

Microchip Technology PIC18 LITE Macro Assembler V1.33 build 59893 
                                                                                               Sat May 30 09:06:37 2015

Microchip Technology Omniscient Code Generator (Lite mode) build 59893
     1                           	processor	18F27J53
     2                           	fnconf	rparam,??,?,0
     3                           	opt	pw 120
     4                           	opt	lm
     5                           	psect	idataCOMRAM,global,class=CODE,delta=1
     6                           	psect	idataBANK0,global,class=CODE,delta=1
     7                           	psect	smallconst,global,reloc=2,class=SMALLCONST,delta=1
     8                           	psect	cinit,global,reloc=2,class=CODE,delta=1
     9                           	psect	bssCOMRAM,global,class=COMRAM,space=1,delta=1
    10                           	psect	dataCOMRAM,global,class=COMRAM,space=1,delta=1
    11                           	psect	bssBANK0,global,class=BANK0,space=1,delta=1
    12                           	psect	dataBANK0,global,class=BANK0,space=1,delta=1
    13                           	psect	bssBANK1,global,class=BANK1,space=1,delta=1
    14                           	psect	cstackBANK1,global,class=BANK1,space=1,delta=1
    15                           	psect	cstackBANK0,global,class=BANK0,space=1,delta=1
    16                           	psect	cstackCOMRAM,global,class=COMRAM,space=1,delta=1
    17                           	psect	text0,global,reloc=2,class=CODE,delta=1
    18                           	psect	text1,global,reloc=2,class=CODE,delta=1
    19                           	psect	text2,global,reloc=2,class=CODE,delta=1
    20                           	psect	text3,global,reloc=2,class=CODE,delta=1
    21                           	psect	text4,global,reloc=2,class=CODE,delta=1
    22                           	psect	text5,global,reloc=2,class=CODE,delta=1
    23                           	psect	text6,global,reloc=2,class=CODE,delta=1
    24                           	psect	text7,global,reloc=2,class=CODE,delta=1
    25                           	psect	text8,global,reloc=2,class=CODE,delta=1
    26                           	psect	text9,global,reloc=2,class=CODE,delta=1
    27                           	psect	text10,global,reloc=2,class=CODE,delta=1
    28                           	psect	text11,global,reloc=2,class=CODE,delta=1
    29                           	psect	text12,global,reloc=2,class=CODE,delta=1
    30                           	psect	text13,global,reloc=2,class=CODE,delta=1
    31                           	psect	text14,global,reloc=2,class=CODE,delta=1
    32                           	psect	text15,global,reloc=2,class=CODE,delta=1
    33                           	psect	text16,global,reloc=2,class=CODE,delta=1
    34                           	psect	text17,global,reloc=2,class=CODE,delta=1
    35                           	psect	text18,global,reloc=2,class=CODE,delta=1
    36                           	psect	text19,global,reloc=2,class=CODE,delta=1
    37                           	psect	text20,global,reloc=2,class=CODE,delta=1
    38                           	psect	text21,global,reloc=2,class=CODE,delta=1
    39                           	psect	text22,global,reloc=2,class=CODE,delta=1
    40                           	psect	text23,global,reloc=2,class=CODE,delta=1
    41                           	psect	text24,global,reloc=2,class=CODE,delta=1
    42                           	psect	text25,global,reloc=2,class=CODE,delta=1
    43                           	psect	text26,global,reloc=2,class=CODE,delta=1
    44                           	psect	text27,global,reloc=2,class=CODE,delta=1
    45                           	psect	intcode,global,reloc=2,class=CODE,delta=1
    46                           	psect	text29,global,reloc=2,class=CODE,delta=1
    47                           	psect	text30,global,reloc=2,class=CODE,delta=1
    48                           	psect	text31,global,reloc=2,class=CODE,delta=1
    49                           	psect	text32,global,reloc=2,class=CODE,delta=1
    50                           	psect	text33,global,reloc=2,class=CODE,delta=1
    51                           	psect	text34,global,reloc=2,class=CODE,delta=1
    52                           	psect	text35,global,reloc=2,class=CODE,delta=1
    53                           	psect	text36,global,reloc=2,class=CODE,delta=1
    54                           	psect	text37,global,reloc=2,class=CODE,delta=1
    55                           	psect	text38,global,reloc=2,class=CODE,delta=1
    56                           	psect	text39,global,reloc=2,class=CODE,delta=1
    57                           	psect	text40,global,reloc=2,class=CODE,delta=1
    58                           	psect	text41,global,reloc=2,class=CODE,delta=1
    59                           	psect	text42,global,reloc=2,class=CODE,delta=1
    60                           	psect	text43,global,reloc=2,class=CODE,delta=1
    61                           	psect	text44,global,reloc=2,class=CODE,delta=1
    62                           	psect	text45,global,reloc=2,class=CODE,delta=1
    63                           	psect	text46,global,reloc=2,class=CODE,delta=1
    64                           	psect	intsave_regs,global,class=BIGRAM,space=1,delta=1
    65                           	psect	rparam,global,class=COMRAM,space=1,delta=1
    66  0000                     
    67                           	psect	idataCOMRAM
    68  002920                     __pidataCOMRAM:
    69                           	opt stack 0
    70                           
    71                           ;initializer for I2C_LCD_SetCursor@F9846
    72  002920  00                 	db	0
    73  002921  40                 	db	64
    74                           
    75                           ;initializer for epoch_to_caltime@month_cache
    76  002922  01                 	db	1
    77                           
    78                           	psect	idataBANK0
    79  00289C                     __pidataBANK0:
    80                           	opt stack 0
    81                           
    82                           ;initializer for _weekday_char
    83  00289C  0FA3               	dw	STR_1& (0+65535)
    84  00289E  0F9F               	dw	STR_2& (0+65535)
    85  0028A0  0F97               	dw	STR_3& (0+65535)
    86  0028A2  0F93               	dw	STR_4& (0+65535)
    87  0028A4  0FAB               	dw	STR_5& (0+65535)
    88  0028A6  0F9B               	dw	STR_6& (0+65535)
    89  0028A8  0FA7               	dw	STR_7& (0+65535)
    90                           
    91                           ;initializer for _weekday_char_full
    92  0028AA  0F6A               	dw	STR_8& (0+65535)
    93  0028AC  0F63               	dw	STR_9& (0+65535)
    94  0028AE  0F3F               	dw	STR_10& (0+65535)
    95  0028B0  0F01               	dw	STR_11& (0+65535)
    96  0028B2  0F26               	dw	STR_12& (0+65535)
    97  0028B4  0F71               	dw	STR_13& (0+65535)
    98  0028B6  0F1D               	dw	STR_14& (0+65535)
    99  0000                     _ADRES	set	4035
   100  0000                     _ADCON0	set	4034
   101  0000                     _ADCON0bits	set	4034
   102  0000                     _ADCON1	set	4033
   103  0000                     _ADCON1bits	set	4033
   104  0000                     _ANCON0	set	3912
   105  0000                     _ANCON1	set	3913
   106  0000                     _BAUDCON1bits	set	3966
   107  0000                     _CTMUCONH	set	4019
   108  0000                     _CTMUCONHbits	set	4019
   109  0000                     _CTMUCONL	set	4018
   110  0000                     _CTMUCONLbits	set	4018
   111  0000                     _CTMUICON	set	4017
   112  0000                     _EECON2	set	4007
   113  0000                     _INTCON2bits	set	4081
   114  0000                     _INTCONbits	set	4082
   115  0000                     _IPR1bits	set	3999
   116  0000                     _IPR2bits	set	4002
   117  0000                     _IPR5bits	set	3993
   118  0000                     _OSCCONbits	set	4051
   119  0000                     _OSCTUNEbits	set	3995
   120  0000                     _PADCFG1bits	set	3900
   121  0000                     _PIE1bits	set	3997
   122  0000                     _PIE2bits	set	4000
   123  0000                     _PIE5bits	set	3985
   124  0000                     _PIR1bits	set	3998
   125  0000                     _PIR2bits	set	4001
   126  0000                     _PIR5bits	set	3992
   127  0000                     _PORTAbits	set	3968
   128  0000                     _RCREG1	set	4015
   129  0000                     _RCSTA1bits	set	4012
   130  0000                     _RTCCAL	set	3902
   131  0000                     _RTCCFGbits	set	3903
   132  0000                     _RTCVALH	set	3899
   133  0000                     _RTCVALL	set	3898
   134  0000                     _SPBRG1	set	4016
   135  0000                     _SPBRGH1	set	3967
   136  0000                     _SSP1ADD	set	4040
   137  0000                     _SSP1BUF	set	4041
   138  0000                     _SSP1CON1	set	4038
   139  0000                     _SSP1CON2	set	4037
   140  0000                     _SSP1CON2bits	set	4037
   141  0000                     _SSP1STAT	set	4039
   142  0000                     _T0CONbits	set	4053
   143  0000                     _T1CONbits	set	4045
   144  0000                     _T3CONbits	set	3961
   145  0000                     _T5CONbits	set	3874
   146  0000                     _TMR1H	set	4047
   147  0000                     _TRISA	set	3986
   148  0000                     _TRISB	set	3987
   149  0000                     _TRISC	set	3988
   150  0000                     _TXREG1	set	4014
   151  0000                     _TXSTA1bits	set	4013
   152  0000                     _BCL1IF	set	32011
   153  0000                     _LATA5	set	31821
   154  0000                     _LATA6	set	31822
   155  0000                     _LATA7	set	31823
   156  0000                     _LATB2	set	31826
   157  0000                     _LATB6	set	31830
   158  0000                     _LATB7	set	31831
   159  0000                     _LATC2	set	31834
   160  0000                     _SSP1IF	set	31987
   161                           
   162                           	psect	smallconst
   163  000F00                     __psmallconst:
   164                           	opt stack 0
   165  000F00  00                 	db	0
   166  000F01                     __stringdata:
   167                           	opt stack 0
   168  000F01                     STR_11:
   169  000F01  57                 	db	87	;'W'
   170  000F02  65                 	db	101	;'e'
   171  000F03  64                 	db	100	;'d'
   172  000F04  6E                 	db	110	;'n'
   173  000F05  65                 	db	101	;'e'
   174  000F06  73                 	db	115	;'s'
   175  000F07  64                 	db	100	;'d'
   176  000F08  61                 	db	97	;'a'
   177  000F09  79                 	db	121	;'y'
   178  000F0A  00                 	db	0
   179  000F0B                     STR_25:
   180  000F0B  41                 	db	65	;'A'
   181  000F0C  6C                 	db	108	;'l'
   182  000F0D  77                 	db	119	;'w'
   183  000F0E  61                 	db	97	;'a'
   184  000F0F  79                 	db	121	;'y'
   185  000F10  73                 	db	115	;'s'
   186  000F11  4F                 	db	79	;'O'
   187  000F12  4E                 	db	78	;'N'
   188  000F13  00                 	db	0
   189  000F14                     STR_26:
   190  000F14  41                 	db	65	;'A'
   191  000F15  75                 	db	117	;'u'
   192  000F16  74                 	db	116	;'t'
   193  000F17  6F                 	db	111	;'o'
   194  000F18  53                 	db	83	;'S'
   195  000F19  74                 	db	116	;'t'
   196  000F1A  6F                 	db	111	;'o'
   197  000F1B  70                 	db	112	;'p'
   198  000F1C  00                 	db	0
   199  000F1D                     STR_14:
   200  000F1D  53                 	db	83	;'S'
   201  000F1E  61                 	db	97	;'a'
   202  000F1F  74                 	db	116	;'t'
   203  000F20  75                 	db	117	;'u'
   204  000F21  72                 	db	114	;'r'
   205  000F22  64                 	db	100	;'d'
   206  000F23  61                 	db	97	;'a'
   207  000F24  79                 	db	121	;'y'
   208  000F25  00                 	db	0
   209  000F26                     STR_12:
   210  000F26  54                 	db	84	;'T'
   211  000F27  68                 	db	104	;'h'
   212  000F28  75                 	db	117	;'u'
   213  000F29  72                 	db	114	;'r'
   214  000F2A  73                 	db	115	;'s'
   215  000F2B  64                 	db	100	;'d'
   216  000F2C  61                 	db	97	;'a'
   217  000F2D  79                 	db	121	;'y'
   218  000F2E  00                 	db	0
   219  000F2F                     STR_24:
   220  000F2F  52                 	db	82	;'R'
   221  000F30  65                 	db	101	;'e'
   222  000F31  73                 	db	115	;'s'
   223  000F32  65                 	db	101	;'e'
   224  000F33  74                 	db	116	;'t'
   225  000F34  65                 	db	101	;'e'
   226  000F35  64                 	db	100	;'d'
   227  000F36  00                 	db	0
   228  000F37                     STR_30:
   229  000F37  53                 	db	83	;'S'
   230  000F38  74                 	db	116	;'t'
   231  000F39  61                 	db	97	;'a'
   232  000F3A  74                 	db	116	;'t'
   233  000F3B  69                 	db	105	;'i'
   234  000F3C  6F                 	db	111	;'o'
   235  000F3D  6E                 	db	110	;'n'
   236  000F3E  00                 	db	0
   237  000F3F                     STR_10:
   238  000F3F  54                 	db	84	;'T'
   239  000F40  75                 	db	117	;'u'
   240  000F41  65                 	db	101	;'e'
   241  000F42  73                 	db	115	;'s'
   242  000F43  64                 	db	100	;'d'
   243  000F44  61                 	db	97	;'a'
   244  000F45  79                 	db	121	;'y'
   245  000F46  00                 	db	0
   246  000F47                     STR_23:
   247  000F47  52                 	db	82	;'R'
   248  000F48  65                 	db	101	;'e'
   249  000F49  73                 	db	115	;'s'
   250  000F4A  65                 	db	101	;'e'
   251  000F4B  74                 	db	116	;'t'
   252  000F4C  3F                 	db	63	;'?'
   253  000F4D  00                 	db	0
   254  000F4E                     STR_19:
   255  000F4E  43                 	db	67	;'C'
   256  000F4F  45                 	db	69	;'E'
   257  000F50  4E                 	db	78	;'N'
   258  000F51  54                 	db	84	;'T'
   259  000F52  45                 	db	69	;'E'
   260  000F53  52                 	db	82	;'R'
   261  000F54  00                 	db	0
   262  000F55                     STR_29:
   263  000F55  43                 	db	67	;'C'
   264  000F56  68                 	db	104	;'h'
   265  000F57  61                 	db	97	;'a'
   266  000F58  72                 	db	114	;'r'
   267  000F59  67                 	db	103	;'g'
   268  000F5A  65                 	db	101	;'e'
   269  000F5B  00                 	db	0
   270  000F5C                     STR_18:
   271  000F5C  43                 	db	67	;'C'
   272  000F5D  65                 	db	101	;'e'
   273  000F5E  6E                 	db	110	;'n'
   274  000F5F  74                 	db	116	;'t'
   275  000F60  65                 	db	101	;'e'
   276  000F61  72                 	db	114	;'r'
   277  000F62  00                 	db	0
   278  000F63                     STR_9:
   279  000F63  4D                 	db	77	;'M'
   280  000F64  6F                 	db	111	;'o'
   281  000F65  6E                 	db	110	;'n'
   282  000F66  64                 	db	100	;'d'
   283  000F67  61                 	db	97	;'a'
   284  000F68  79                 	db	121	;'y'
   285  000F69  00                 	db	0
   286  000F6A                     STR_8:
   287  000F6A  53                 	db	83	;'S'
   288  000F6B  75                 	db	117	;'u'
   289  000F6C  6E                 	db	110	;'n'
   290  000F6D  64                 	db	100	;'d'
   291  000F6E  61                 	db	97	;'a'
   292  000F6F  79                 	db	121	;'y'
   293  000F70  00                 	db	0
   294  000F71                     STR_13:
   295  000F71  46                 	db	70	;'F'
   296  000F72  72                 	db	114	;'r'
   297  000F73  79                 	db	121	;'y'
   298  000F74  64                 	db	100	;'d'
   299  000F75  61                 	db	97	;'a'
   300  000F76  79                 	db	121	;'y'
   301  000F77  00                 	db	0
   302  000F78                     STR_17:
   303  000F78  52                 	db	82	;'R'
   304  000F79  49                 	db	73	;'I'
   305  000F7A  47                 	db	71	;'G'
   306  000F7B  48                 	db	72	;'H'
   307  000F7C  54                 	db	84	;'T'
   308  000F7D  00                 	db	0
   309  000F7E                     STR_16:
   310  000F7E  52                 	db	82	;'R'
   311  000F7F  69                 	db	105	;'i'
   312  000F80  67                 	db	103	;'g'
   313  000F81  68                 	db	104	;'h'
   314  000F82  74                 	db	116	;'t'
   315  000F83  00                 	db	0
   316  000F84                     STR_21:
   317  000F84  4C                 	db	76	;'L'
   318  000F85  45                 	db	69	;'E'
   319  000F86  46                 	db	70	;'F'
   320  000F87  54                 	db	84	;'T'
   321  000F88  00                 	db	0
   322  000F89                     STR_27:
   323  000F89  50                 	db	80	;'P'
   324  000F8A  4F                 	db	79	;'O'
   325  000F8B  52                 	db	82	;'R'
   326  000F8C  54                 	db	84	;'T'
   327  000F8D  00                 	db	0
   328  000F8E                     STR_20:
   329  000F8E  4C                 	db	76	;'L'
   330  000F8F  65                 	db	101	;'e'
   331  000F90  66                 	db	102	;'f'
   332  000F91  74                 	db	116	;'t'
   333  000F92  00                 	db	0
   334  000F93                     STR_4:
   335  000F93  57                 	db	87	;'W'
   336  000F94  45                 	db	69	;'E'
   337  000F95  44                 	db	68	;'D'
   338  000F96  00                 	db	0
   339  000F97                     STR_3:
   340  000F97  54                 	db	84	;'T'
   341  000F98  55                 	db	85	;'U'
   342  000F99  45                 	db	69	;'E'
   343  000F9A  00                 	db	0
   344  000F9B                     STR_6:
   345  000F9B  46                 	db	70	;'F'
   346  000F9C  52                 	db	82	;'R'
   347  000F9D  49                 	db	73	;'I'
   348  000F9E  00                 	db	0
   349  000F9F                     STR_2:
   350  000F9F  4D                 	db	77	;'M'
   351  000FA0  4F                 	db	79	;'O'
   352  000FA1  4E                 	db	78	;'N'
   353  000FA2  00                 	db	0
   354  000FA3                     STR_1:
   355  000FA3  53                 	db	83	;'S'
   356  000FA4  55                 	db	85	;'U'
   357  000FA5  4E                 	db	78	;'N'
   358  000FA6  00                 	db	0
   359  000FA7                     STR_7:
   360  000FA7  53                 	db	83	;'S'
   361  000FA8  41                 	db	65	;'A'
   362  000FA9  54                 	db	84	;'T'
   363  000FAA  00                 	db	0
   364  000FAB                     STR_5:
   365  000FAB  54                 	db	84	;'T'
   366  000FAC  48                 	db	72	;'H'
   367  000FAD  55                 	db	85	;'U'
   368  000FAE  00                 	db	0
   369  000FAF                     STR_22:
   370  000FAF  6D                 	db	109	;'m'
   371  000FB0  41                 	db	65	;'A'
   372  000FB1  68                 	db	104	;'h'
   373  000FB2  00                 	db	0
   374  000FB3                     STR_28:
   375  000FB3  0A                 	db	10
   376  000FB4  0A                 	db	10
   377  000FB5  00                 	db	0
   378  000FB6  20                 	db	32
   379  000FB7  20                 	db	32
   380  000FB8  00                 	db	0
   381  000FB9                     __end_of__stringdata:
   382                           	opt stack 0
   383                           
   384                           ; #config settings
   385  000FB9  00                 	db	0	; dummy byte at the end
   386  0000                     
   387                           	psect	cinit
   388  0021B0                     __pcinit:
   389                           	opt stack 0
   390  0021B0                     start_initialization:
   391                           	opt stack 0
   392  0021B0                     __initialization:
   393                           	opt stack 0
   394                           
   395                           ; Clear objects allocated to BANK1 (16 bytes)
   396  0021B0  EE01  F0C9         	lfsr	0,__pbssBANK1
   397  0021B4  0E10               	movlw	16
   398  0021B6                     clear_0:
   399  0021B6  6AEE               	clrf	postinc0,c
   400  0021B8  06E8               	decf	wreg,f,c
   401  0021BA  E1FD               	bnz	clear_0
   402                           
   403                           ; Clear objects allocated to BANK0 (40 bytes)
   404  0021BC  EE00  F060         	lfsr	0,__pbssBANK0
   405  0021C0  0E28               	movlw	40
   406  0021C2                     clear_1:
   407  0021C2  6AEE               	clrf	postinc0,c
   408  0021C4  06E8               	decf	wreg,f,c
   409  0021C6  E1FD               	bnz	clear_1
   410                           
   411                           ; Clear objects allocated to COMRAM (36 bytes)
   412  0021C8  EE00  F028         	lfsr	0,__pbssCOMRAM
   413  0021CC  0E24               	movlw	36
   414  0021CE                     clear_2:
   415  0021CE  6AEE               	clrf	postinc0,c
   416  0021D0  06E8               	decf	wreg,f,c
   417  0021D2  E1FD               	bnz	clear_2
   418                           
   419                           ; Initialize objects allocated to BANK0 (28 bytes)
   420                           ; load TBLPTR registers with __pidataBANK0
   421  0021D4  0E9C               	movlw	low __pidataBANK0
   422  0021D6  6EF6               	movwf	tblptrl,c
   423  0021D8  0E28               	movlw	high __pidataBANK0
   424  0021DA  6EF7               	movwf	tblptrh,c
   425  0021DC  0E00               	movlw	low (__pidataBANK0 shr (0+16))
   426  0021DE  6EF8               	movwf	tblptru,c
   427  0021E0  EE00  F088         	lfsr	0,__pdataBANK0
   428  0021E4  EE10 F01C          	lfsr	1,28
   429  0021E8                     copy_data0:
   430  0021E8  0009               	tblrd		*+
   431  0021EA  CFF5 FFEE          	movff	tablat,postinc0
   432  0021EE  50E5               	movf	postdec1,w,c
   433  0021F0  50E1               	movf	fsr1l,w,c
   434  0021F2  E1FA               	bnz	copy_data0
   435                           
   436                           ; Initialize objects allocated to COMRAM (3 bytes)
   437                           ; load TBLPTR registers with __pidataCOMRAM
   438  0021F4  0E20               	movlw	low __pidataCOMRAM
   439  0021F6  6EF6               	movwf	tblptrl,c
   440  0021F8  0E29               	movlw	high __pidataCOMRAM
   441  0021FA  6EF7               	movwf	tblptrh,c
   442  0021FC  0E00               	movlw	low (__pidataCOMRAM shr (0+16))
   443  0021FE  6EF8               	movwf	tblptru,c
   444  002200  0009               	tblrd		*+	;fetch initializer
   445  002202  CFF5 F04C          	movff	tablat,__pdataCOMRAM
   446  002206  0009               	tblrd		*+	;fetch initializer
   447  002208  CFF5 F04D          	movff	tablat,__pdataCOMRAM+1
   448  00220C  0009               	tblrd		*+	;fetch initializer
   449  00220E  CFF5 F04E          	movff	tablat,__pdataCOMRAM+2
   450  002212                     end_of_initialization:
   451                           	opt stack 0
   452  002212                     __end_of__initialization:
   453                           	opt stack 0
   454  002212  0100               	movlb	0
   455  002214  EFDA  F00B         	goto	_main	;jump to C main() function
   456                           tblptru	equ	0xFF8
   457                           tblptrh	equ	0xFF7
   458                           tblptrl	equ	0xFF6
   459                           tablat	equ	0xFF5
   460                           postinc0	equ	0xFEE
   461                           wreg	equ	0xFE8
   462                           postdec1	equ	0xFE5
   463                           fsr1l	equ	0xFE1
   464                           
   465                           	psect	bssCOMRAM
   466  000028                     __pbssCOMRAM:
   467                           	opt stack 0
   468  000028                     _I:
   469                           	opt stack 0
   470  000028                     	ds	6
   471  00002E                     _auto_cut_ON:
   472                           	opt stack 0
   473  00002E                     	ds	3
   474  000031                     lchika@cnt:
   475                           	opt stack 0
   476  000031                     	ds	3
   477  000034                     lchika@cntf:
   478                           	opt stack 0
   479  000034                     	ds	3
   480  000037                     ISR@cnt_t0:
   481                           	opt stack 0
   482  000037                     	ds	2
   483  000039                     RTCC_loop@prev_halfsec:
   484                           	opt stack 0
   485  000039                     	ds	1
   486  00003A                     _colon:
   487                           	opt stack 0
   488  00003A                     	ds	1
   489  00003B                     _edit_flag:
   490                           	opt stack 0
   491  00003B                     	ds	1
   492  00003C                     _print_content:
   493                           	opt stack 0
   494  00003C                     	ds	1
   495  00003D                     _print_port:
   496                           	opt stack 0
   497  00003D                     	ds	1
   498  00003E                     _time_change_flag:
   499                           	opt stack 0
   500  00003E                     	ds	1
   501  00003F                     epoch_to_caltime@year_cache:
   502                           	opt stack 0
   503  00003F                     	ds	1
   504  000040                     _epoch_now:
   505                           	opt stack 0
   506  000040                     	ds	4
   507  000044                     _sw0:
   508                           	opt stack 0
   509  000044                     	ds	4
   510  000048                     _sw1:
   511                           	opt stack 0
   512  000048                     	ds	4
   513                           tblptru	equ	0xFF8
   514                           tblptrh	equ	0xFF7
   515                           tblptrl	equ	0xFF6
   516                           tablat	equ	0xFF5
   517                           postinc0	equ	0xFEE
   518                           wreg	equ	0xFE8
   519                           postdec1	equ	0xFE5
   520                           fsr1l	equ	0xFE1
   521                           
   522                           	psect	dataCOMRAM
   523  00004C                     __pdataCOMRAM:
   524                           	opt stack 0
   525  00004C                     I2C_LCD_SetCursor@F9846:
   526                           	opt stack 0
   527  00004C                     	ds	2
   528  00004E                     epoch_to_caltime@month_cache:
   529                           	opt stack 0
   530  00004E                     	ds	1
   531                           tblptru	equ	0xFF8
   532                           tblptrh	equ	0xFF7
   533                           tblptrl	equ	0xFF6
   534                           tablat	equ	0xFF5
   535                           postinc0	equ	0xFEE
   536                           wreg	equ	0xFE8
   537                           postdec1	equ	0xFE5
   538                           fsr1l	equ	0xFE1
   539                           
   540                           	psect	bssBANK0
   541  000060                     __pbssBANK0:
   542                           	opt stack 0
   543  000060                     _S:
   544                           	opt stack 0
   545  000060                     	ds	12
   546  00006C                     _ss:
   547                           	opt stack 0
   548  00006C                     	ds	12
   549  000078                     _d1:
   550                           	opt stack 0
   551  000078                     	ds	3
   552  00007B                     epoch_to_caltime@day_cache:
   553                           	opt stack 0
   554  00007B                     	ds	2
   555  00007D                     _caltime_now:
   556                           	opt stack 0
   557  00007D                     	ds	7
   558  000084                     _sw2:
   559                           	opt stack 0
   560  000084                     	ds	4
   561                           tblptru	equ	0xFF8
   562                           tblptrh	equ	0xFF7
   563                           tblptrl	equ	0xFF6
   564                           tablat	equ	0xFF5
   565                           postinc0	equ	0xFEE
   566                           wreg	equ	0xFE8
   567                           postdec1	equ	0xFE5
   568                           fsr1l	equ	0xFE1
   569                           
   570                           	psect	dataBANK0
   571  000088                     __pdataBANK0:
   572                           	opt stack 0
   573  000088                     _weekday_char:
   574                           	opt stack 0
   575  000088                     	ds	14
   576  000096                     _weekday_char_full:
   577                           	opt stack 0
   578  000096                     	ds	14
   579                           tblptru	equ	0xFF8
   580                           tblptrh	equ	0xFF7
   581                           tblptrl	equ	0xFF6
   582                           tablat	equ	0xFF5
   583                           postinc0	equ	0xFEE
   584                           wreg	equ	0xFE8
   585                           postdec1	equ	0xFE5
   586                           fsr1l	equ	0xFE1
   587                           
   588                           	psect	bssBANK1
   589  0001C9                     __pbssBANK1:
   590                           	opt stack 0
   591  0001C9                     _cut_cnt:
   592                           	opt stack 0
   593  0001C9                     	ds	6
   594  0001CF                     _display_flag:
   595                           	opt stack 0
   596  0001CF                     	ds	1
   597  0001D0                     _tx_buf:
   598                           	opt stack 0
   599  0001D0                     	ds	5
   600  0001D5                     _sw:
   601                           	opt stack 0
   602  0001D5                     	ds	4
   603                           tblptru	equ	0xFF8
   604                           tblptrh	equ	0xFF7
   605                           tblptrl	equ	0xFF6
   606                           tablat	equ	0xFF5
   607                           postinc0	equ	0xFEE
   608                           wreg	equ	0xFE8
   609                           postdec1	equ	0xFE5
   610                           fsr1l	equ	0xFE1
   611                           
   612                           	psect	cstackBANK1
   613  000100                     __pcstackBANK1:
   614                           	opt stack 0
   615  000100                     main@txbuf:
   616                           	opt stack 0
   617                           
   618                           ; 200 bytes @ 0x0
   619  000100                     	ds	200
   620  0001C8                     main@i:
   621                           	opt stack 0
   622                           
   623                           ; 1 bytes @ 0xC8
   624  0001C8                     	ds	1
   625                           tblptru	equ	0xFF8
   626                           tblptrh	equ	0xFF7
   627                           tblptrl	equ	0xFF6
   628                           tablat	equ	0xFF5
   629                           postinc0	equ	0xFEE
   630                           wreg	equ	0xFE8
   631                           postdec1	equ	0xFE5
   632                           fsr1l	equ	0xFE1
   633                           
   634                           	psect	cstackBANK0
   635  0000A4                     __pcstackBANK0:
   636                           	opt stack 0
   637  0000A4                     ??_timer0_init:
   638  0000A4                     ??_timer3_init:
   639  0000A4                     ??_I2C_IdleCheck:
   640  0000A4                     ?___lwmod:
   641                           	opt stack 0
   642  0000A4                     ?___llmod:
   643                           	opt stack 0
   644  0000A4                     timer1_init@clock_select:
   645                           	opt stack 0
   646  0000A4                     ADC_init@p_ref:
   647                           	opt stack 0
   648  0000A4                     OUT@value:
   649                           	opt stack 0
   650  0000A4                     LED@value:
   651                           	opt stack 0
   652  0000A4                     sw_flag_read@bit_and:
   653                           	opt stack 0
   654  0000A4                     sw_flag_clear@bit_and:
   655                           	opt stack 0
   656  0000A4                     ringbuf_init@rb:
   657                           	opt stack 0
   658  0000A4                     Delay_ms@ms:
   659                           	opt stack 0
   660  0000A4                     ___lwmod@dividend:
   661                           	opt stack 0
   662  0000A4                     ___llmod@dividend:
   663                           	opt stack 0
   664                           
   665                           ; 4 bytes @ 0x0
   666  0000A4                     	ds	1
   667  0000A5                     ??_timer1_init:
   668  0000A5                     timer0_init@prescaler:
   669                           	opt stack 0
   670  0000A5                     timer3_init@prescaler:
   671                           	opt stack 0
   672  0000A5                     I2C_IdleCheck@mask:
   673                           	opt stack 0
   674  0000A5                     OUT@b:
   675                           	opt stack 0
   676  0000A5                     LED@b:
   677                           	opt stack 0
   678  0000A5                     sw_flag_read@port:
   679                           	opt stack 0
   680  0000A5                     sw_flag_clear@port:
   681                           	opt stack 0
   682                           
   683                           ; 1 bytes @ 0x1
   684  0000A5                     	ds	1
   685  0000A6                     ??_Delay_ms:
   686  0000A6                     timer1_init@prescaler:
   687                           	opt stack 0
   688  0000A6                     I2C_Start@rw:
   689                           	opt stack 0
   690  0000A6                     I2C_Send@data:
   691                           	opt stack 0
   692  0000A6                     ringbuf_init@internal_buf:
   693                           	opt stack 0
   694  0000A6                     ___lwmod@divisor:
   695                           	opt stack 0
   696                           
   697                           ; 2 bytes @ 0x2
   698  0000A6                     	ds	1
   699  0000A7                     I2C_Start@adrs:
   700                           	opt stack 0
   701                           
   702                           ; 1 bytes @ 0x3
   703  0000A7                     	ds	1
   704  0000A8                     ringbuf_init@bufsize:
   705                           	opt stack 0
   706  0000A8                     I2C_LCD_Command@c:
   707                           	opt stack 0
   708  0000A8                     I2C_LCD_Putc@c:
   709                           	opt stack 0
   710  0000A8                     ___lwmod@counter:
   711                           	opt stack 0
   712  0000A8                     I2C_LCD_Puts@s:
   713                           	opt stack 0
   714  0000A8                     ___llmod@divisor:
   715                           	opt stack 0
   716                           
   717                           ; 4 bytes @ 0x4
   718  0000A8                     	ds	1
   719  0000A9                     ?___lwdiv:
   720                           	opt stack 0
   721  0000A9                     I2C_LCD_Command@ans:
   722                           	opt stack 0
   723  0000A9                     I2C_LCD_Putc@ans:
   724                           	opt stack 0
   725  0000A9                     ___lwdiv@dividend:
   726                           	opt stack 0
   727                           
   728                           ; 2 bytes @ 0x5
   729  0000A9                     	ds	1
   730  0000AA                     ??_I2C_LCD_Clear:
   731  0000AA                     ??_I2C_LCD_Puts:
   732  0000AA                     I2C_LCD_SetCursor@row:
   733                           	opt stack 0
   734                           
   735                           ; 1 bytes @ 0x6
   736  0000AA                     	ds	1
   737  0000AB                     I2C_LCD_SetCursor@row_offsets:
   738                           	opt stack 0
   739  0000AB                     I2C_LCD_Puts@ans:
   740                           	opt stack 0
   741  0000AB                     ___lwdiv@divisor:
   742                           	opt stack 0
   743                           
   744                           ; 2 bytes @ 0x7
   745  0000AB                     	ds	1
   746  0000AC                     ___llmod@counter:
   747                           	opt stack 0
   748                           
   749                           ; 1 bytes @ 0x8
   750  0000AC                     	ds	1
   751  0000AD                     ?___lldiv:
   752                           	opt stack 0
   753  0000AD                     I2C_LCD_SetCursor@col:
   754                           	opt stack 0
   755  0000AD                     ___lwdiv@counter:
   756                           	opt stack 0
   757  0000AD                     ___lldiv@dividend:
   758                           	opt stack 0
   759                           
   760                           ; 4 bytes @ 0x9
   761  0000AD                     	ds	1
   762  0000AE                     ___lwdiv@quotient:
   763                           	opt stack 0
   764                           
   765                           ; 2 bytes @ 0xA
   766  0000AE                     	ds	3
   767  0000B1                     ___lldiv@divisor:
   768                           	opt stack 0
   769                           
   770                           ; 4 bytes @ 0xD
   771  0000B1                     	ds	4
   772  0000B5                     ___lldiv@quotient:
   773                           	opt stack 0
   774                           
   775                           ; 4 bytes @ 0x11
   776  0000B5                     	ds	4
   777  0000B9                     ___lldiv@counter:
   778                           	opt stack 0
   779                           
   780                           ; 1 bytes @ 0x15
   781  0000B9                     	ds	1
   782  0000BA                     ??_display:
   783                           
   784                           ; 0 bytes @ 0x16
   785  0000BA                     	ds	4
   786  0000BE                     tblptru	equ	0xFF8
   787                           tblptrh	equ	0xFF7
   788                           tblptrl	equ	0xFF6
   789                           tablat	equ	0xFF5
   790                           postinc0	equ	0xFEE
   791                           wreg	equ	0xFE8
   792                           postdec1	equ	0xFE5
   793                           fsr1l	equ	0xFE1
   794                           
   795                           ; 0 bytes @ 0x1A
   796                           
   797                           	psect	cstackCOMRAM
   798  000001                     __pcstackCOMRAM:
   799                           	opt stack 0
   800  000001                     ?_ADC:
   801                           	opt stack 0
   802  000001                     ?___awdiv:
   803                           	opt stack 0
   804  000001                     ?i2___lwdiv:
   805                           	opt stack 0
   806  000001                     ?i2___lwmod:
   807                           	opt stack 0
   808  000001                     ?i2___lldiv:
   809                           	opt stack 0
   810  000001                     i2OUT@value:
   811                           	opt stack 0
   812  000001                     i2LED@value:
   813                           	opt stack 0
   814  000001                     ringbuf_num@rb:
   815                           	opt stack 0
   816  000001                     button_timer_interrupt@bt:
   817                           	opt stack 0
   818  000001                     ___awdiv@dividend:
   819                           	opt stack 0
   820  000001                     i2___lwdiv@dividend:
   821                           	opt stack 0
   822  000001                     i2___lwmod@dividend:
   823                           	opt stack 0
   824  000001                     i2___lldiv@dividend:
   825                           	opt stack 0
   826                           
   827                           ; 4 bytes @ 0x0
   828  000001                     	ds	1
   829  000002                     i2OUT@b:
   830                           	opt stack 0
   831  000002                     i2LED@b:
   832                           	opt stack 0
   833                           
   834                           ; 1 bytes @ 0x1
   835  000002                     	ds	1
   836  000003                     ??_ADC:
   837  000003                     ??_ringbuf_num:
   838  000003                     button_timer_interrupt@sw_value:
   839                           	opt stack 0
   840  000003                     ___awdiv@divisor:
   841                           	opt stack 0
   842  000003                     i2___lwdiv@divisor:
   843                           	opt stack 0
   844  000003                     i2___lwmod@divisor:
   845                           	opt stack 0
   846                           
   847                           ; 2 bytes @ 0x2
   848  000003                     	ds	1
   849  000004                     ??_button_timer_interrupt:
   850  000004                     ADC@ch:
   851                           	opt stack 0
   852                           
   853                           ; 1 bytes @ 0x3
   854  000004                     	ds	1
   855  000005                     ?___wmul:
   856                           	opt stack 0
   857  000005                     ___awdiv@counter:
   858                           	opt stack 0
   859  000005                     i2___lwmod@counter:
   860                           	opt stack 0
   861  000005                     ringbuf_push@rb:
   862                           	opt stack 0
   863  000005                     ringbuf_pop@rb:
   864                           	opt stack 0
   865  000005                     ___wmul@multiplier:
   866                           	opt stack 0
   867  000005                     i2___lwdiv@quotient:
   868                           	opt stack 0
   869  000005                     i2___lldiv@divisor:
   870                           	opt stack 0
   871                           
   872                           ; 4 bytes @ 0x4
   873  000005                     	ds	1
   874  000006                     ___awdiv@sign:
   875                           	opt stack 0
   876                           
   877                           ; 1 bytes @ 0x5
   878  000006                     	ds	1
   879  000007                     ??_ringbuf_pop:
   880  000007                     ringbuf_push@asciicode:
   881                           	opt stack 0
   882  000007                     i2___lwdiv@counter:
   883                           	opt stack 0
   884  000007                     ___wmul@multiplicand:
   885                           	opt stack 0
   886  000007                     ___awdiv@quotient:
   887                           	opt stack 0
   888                           
   889                           ; 2 bytes @ 0x6
   890  000007                     	ds	1
   891  000008                     ??_ringbuf_push:
   892                           
   893                           ; 0 bytes @ 0x7
   894  000008                     	ds	1
   895  000009                     ??_lchika:
   896  000009                     ___wmul@product:
   897                           	opt stack 0
   898  000009                     i2___lldiv@quotient:
   899                           	opt stack 0
   900                           
   901                           ; 4 bytes @ 0x8
   902  000009                     	ds	1
   903  00000A                     ringbuf_pop@ret:
   904                           	opt stack 0
   905                           
   906                           ; 1 bytes @ 0x9
   907  00000A                     	ds	1
   908  00000B                     ??_Auto_cut:
   909                           
   910                           ; 0 bytes @ 0xA
   911  00000B                     	ds	1
   912  00000C                     lchika@i:
   913                           	opt stack 0
   914                           
   915                           ; 1 bytes @ 0xB
   916  00000C                     	ds	1
   917  00000D                     tx_send@asciicode:
   918                           	opt stack 0
   919  00000D                     Auto_cut@i:
   920                           	opt stack 0
   921  00000D                     i2___lldiv@counter:
   922                           	opt stack 0
   923  00000D                     tx_sends@asciicode:
   924                           	opt stack 0
   925                           
   926                           ; 2 bytes @ 0xC
   927  00000D                     	ds	1
   928  00000E                     tx_sendn@value:
   929                           	opt stack 0
   930                           
   931                           ; 2 bytes @ 0xD
   932  00000E                     	ds	1
   933  00000F                     
   934                           ; 0 bytes @ 0xE
   935  00000F                     	ds	1
   936  000010                     tx_sendn@digits:
   937                           	opt stack 0
   938                           
   939                           ; 1 bytes @ 0xF
   940  000010                     	ds	1
   941  000011                     tx_sendn@i:
   942                           	opt stack 0
   943                           
   944                           ; 1 bytes @ 0x10
   945  000011                     	ds	1
   946  000012                     tx_sendn@temp:
   947                           	opt stack 0
   948                           
   949                           ; 2 bytes @ 0x11
   950  000012                     	ds	2
   951  000014                     ??_ISR:
   952                           
   953                           ; 0 bytes @ 0x13
   954  000014                     	ds	18
   955  000026                     ISR@ascii:
   956                           	opt stack 0
   957                           
   958                           ; 1 bytes @ 0x25
   959  000026                     	ds	1
   960  000027                     ISR@i:
   961                           	opt stack 0
   962                           
   963                           ; 1 bytes @ 0x26
   964  000027                     	ds	1
   965                           tblptru	equ	0xFF8
   966                           tblptrh	equ	0xFF7
   967                           tblptrl	equ	0xFF6
   968                           tablat	equ	0xFF5
   969                           postinc0	equ	0xFEE
   970                           wreg	equ	0xFE8
   971                           postdec1	equ	0xFE5
   972                           fsr1l	equ	0xFE1
   973                           
   974 ;;
   975 ;;Main: autosize = 0, tempsize = 0, incstack = 0, save=0
   976 ;;
   977 ;; *************** function _main *****************
   978 ;; Defined at:
   979 ;;		line 270 in file "PIC18F27J53-ChargeStation6-01.c"
   980 ;; Parameters:    Size  Location     Type
   981 ;;		None
   982 ;; Auto vars:     Size  Location     Type
   983 ;;  txbuf         200    0[BANK1 ] unsigned char [200]
   984 ;;  i               1  200[BANK1 ] unsigned char 
   985 ;; Return value:  Size  Location     Type
   986 ;;                  2  629[COMRAM] int 
   987 ;; Registers used:
   988 ;;		wreg, fsr0l, fsr0h, fsr2l, fsr2h, status,2, status,0, tblptrl, tblptrh, tblptru, prodl, prodh, cstack
   989 ;; Tracked objects:
   990 ;;		On entry : 0/0
   991 ;;		On exit  : 0/0
   992 ;;		Unchanged: 0/0
   993 ;; Data sizes:     COMRAM   BANK0   BANK1   BANK2   BANK3   BANK4   BANK5   BANK6   BANK7   BANK8   BANK9  BANK10  BANK1
      +1  BANK12  BANK13  BANK14
   994 ;;      Params:         0       0       0       0       0       0       0       0       0       0       0       0       
      +0       0       0       0
   995 ;;      Locals:         0       0     201       0       0       0       0       0       0       0       0       0       
      +0       0       0       0
   996 ;;      Temps:          0       0       0       0       0       0       0       0       0       0       0       0       
      +0       0       0       0
   997 ;;      Totals:         0       0     201       0       0       0       0       0       0       0       0       0       
      +0       0       0       0
   998 ;;Total ram usage:      201 bytes
   999 ;; Hardware stack levels required when called:   10
  1000 ;; This function calls:
  1001 ;;		_ADC_init
  1002 ;;		_I2C_LCD_Clear
  1003 ;;		_I2C_LCD_Puts
  1004 ;;		_I2C_LCD_SetCursor
  1005 ;;		_I2C_LCD_init
  1006 ;;		_I2C_init
  1007 ;;		_LED
  1008 ;;		_OUT
  1009 ;;		_UART_init
  1010 ;;		_display
  1011 ;;		_ringbuf_init
  1012 ;;		_sw_flag_clear
  1013 ;;		_sw_flag_read
  1014 ;;		_timer0_init
  1015 ;;		_timer1_init
  1016 ;;		_timer3_init
  1017 ;; This function is called by:
  1018 ;;		Startup code after reset
  1019 ;; This function uses a non-reentrant model
  1020 ;;
  1021                           
  1022                           	psect	text0
  1023  0017B4                     __ptext0:
  1024                           	opt stack 0
  1025  0017B4                     _main:
  1026                           	opt stack 21
  1027                           
  1028                           ;PIC18F27J53-ChargeStation6-01.c: 271: OSCCONbits.IRCF = 7;
  1029                           
  1030                           ;incstack = 0
  1031  0017B4  88D3               	bsf	4051,4,c	;volatile
  1032  0017B6  8AD3               	bsf	4051,5,c	;volatile
  1033  0017B8  8CD3               	bsf	4051,6,c	;volatile
  1034                           
  1035                           ;PIC18F27J53-ChargeStation6-01.c: 272: OSCTUNEbits.PLLEN = 1;
  1036  0017BA  8C9B               	bsf	3995,6,c	;volatile
  1037                           
  1038                           ;PIC18F27J53-ChargeStation6-01.c: 273: OSCCONbits.SCS = 0;
  1039  0017BC  0EFC               	movlw	-4
  1040  0017BE  16D3               	andwf	4051,f,c	;volatile
  1041                           
  1042                           ;PIC18F27J53-ChargeStation6-01.c: 274: TRISA = 0b00011111;
  1043  0017C0  0E1F               	movlw	31
  1044  0017C2  6E92               	movwf	3986,c	;volatile
  1045                           
  1046                           ;PIC18F27J53-ChargeStation6-01.c: 275: TRISB = 0b00111111;
  1047  0017C4  0E3F               	movlw	63
  1048  0017C6  6E93               	movwf	3987,c	;volatile
  1049                           
  1050                           ;PIC18F27J53-ChargeStation6-01.c: 276: TRISC = 0b10110010;
  1051  0017C8  0EB2               	movlw	178
  1052  0017CA  6E94               	movwf	3988,c	;volatile
  1053                           
  1054                           ;PIC18F27J53-ChargeStation6-01.c: 277: ANCON0 = 0b11111111;
  1055  0017CC  010F               	movlb	15	; () banked
  1056  0017CE  6948               	setf	72,b	;volatile
  1057                           
  1058                           ;PIC18F27J53-ChargeStation6-01.c: 278: ANCON1 = 0b00011000;
  1059  0017D0  0E18               	movlw	24
  1060  0017D2  010F               	movlb	15	; () banked
  1061  0017D4  6F49               	movwf	73,b	;volatile
  1062                           
  1063                           ; BSR set to: 15
  1064                           ;PIC18F27J53-ChargeStation6-01.c: 280: timer0_init(6);
  1065  0017D6  0E06               	movlw	6
  1066  0017D8  EC4E  F013         	call	_timer0_init
  1067                           
  1068                           ;PIC18F27J53-ChargeStation6-01.c: 281: timer1_init(0, 2);
  1069  0017DC  0E02               	movlw	2
  1070  0017DE  0100               	movlb	0	; () banked
  1071  0017E0  6FA4               	movwf	timer1_init@clock_select& (0+255),b
  1072  0017E2  0E00               	movlw	0
  1073  0017E4  EC1C  F012         	call	_timer1_init
  1074                           
  1075                           ;PIC18F27J53-ChargeStation6-01.c: 282: timer3_init(2);
  1076  0017E8  0E02               	movlw	2
  1077  0017EA  ECCE  F013         	call	_timer3_init
  1078                           
  1079                           ;PIC18F27J53-ChargeStation6-01.c: 283: I2C_init();
  1080  0017EE  EC82  F014         	call	_I2C_init	;wreg free
  1081                           
  1082                           ;PIC18F27J53-ChargeStation6-01.c: 284: I2C_LCD_init();
  1083  0017F2  EC6E  F011         	call	_I2C_LCD_init	;wreg free
  1084                           
  1085                           ;PIC18F27J53-ChargeStation6-01.c: 285: ADC_init(0);
  1086  0017F6  0E00               	movlw	0
  1087  0017F8  EC2F  F014         	call	_ADC_init
  1088                           
  1089                           ;PIC18F27J53-ChargeStation6-01.c: 287: UART_init();
  1090  0017FC  EC1F  F014         	call	_UART_init	;wreg free
  1091                           
  1092                           ;PIC18F27J53-ChargeStation6-01.c: 288: uint8_t txbuf[200];
  1093                           ;PIC18F27J53-ChargeStation6-01.c: 289: ringbuf_init(&tx_buf, txbuf, sizeof (txbuf));
  1094  001800  0101               	movlb	1	; () banked
  1095  001802  0E01               	movlw	high _tx_buf
  1096  001804  0100               	movlb	0	; () banked
  1097  001806  6FA5               	movwf	(ringbuf_init@rb+1)& (0+255),b
  1098  001808  0101               	movlb	1	; () banked
  1099  00180A  0ED0               	movlw	low _tx_buf
  1100  00180C  0100               	movlb	0	; () banked
  1101  00180E  6FA4               	movwf	ringbuf_init@rb& (0+255),b
  1102  001810  0101               	movlb	1	; () banked
  1103  001812  0E01               	movlw	high main@txbuf
  1104  001814  0100               	movlb	0	; () banked
  1105  001816  6FA7               	movwf	(ringbuf_init@internal_buf+1)& (0+255),b
  1106  001818  0101               	movlb	1	; () banked
  1107  00181A  0E00               	movlw	low main@txbuf
  1108  00181C  0100               	movlb	0	; () banked
  1109  00181E  6FA6               	movwf	ringbuf_init@internal_buf& (0+255),b
  1110  001820  0EC8               	movlw	200
  1111  001822  0100               	movlb	0	; () banked
  1112  001824  6FA8               	movwf	ringbuf_init@bufsize& (0+255),b
  1113  001826  EC9C  F011         	call	_ringbuf_init	;wreg free
  1114                           
  1115                           ;PIC18F27J53-ChargeStation6-01.c: 291: INTCONbits.GIE = 1;
  1116  00182A  8EF2               	bsf	intcon,7,c	;volatile
  1117                           
  1118                           ;PIC18F27J53-ChargeStation6-01.c: 293: I2C_LCD_Clear();
  1119  00182C  EC5C  F014         	call	_I2C_LCD_Clear	;wreg free
  1120                           
  1121                           ;PIC18F27J53-ChargeStation6-01.c: 294: I2C_LCD_SetCursor(0, 0);
  1122  001830  0E00               	movlw	0
  1123  001832  0100               	movlb	0	; () banked
  1124  001834  6FAA               	movwf	I2C_LCD_SetCursor@row& (0+255),b
  1125  001836  0E00               	movlw	0
  1126  001838  ECB6  F013         	call	_I2C_LCD_SetCursor
  1127                           
  1128                           ;PIC18F27J53-ChargeStation6-01.c: 295: I2C_LCD_Puts("Charge");
  1129  00183C  0E0F               	movlw	high STR_29
  1130  00183E  0100               	movlb	0	; () banked
  1131  001840  6FA9               	movwf	(I2C_LCD_Puts@s+1)& (0+255),b
  1132  001842  0E55               	movlw	low STR_29
  1133  001844  0100               	movlb	0	; () banked
  1134  001846  6FA8               	movwf	I2C_LCD_Puts@s& (0+255),b
  1135  001848  EC89  F00F         	call	_I2C_LCD_Puts	;wreg free
  1136                           
  1137                           ;PIC18F27J53-ChargeStation6-01.c: 296: I2C_LCD_SetCursor(0, 1);
  1138  00184C  0E01               	movlw	1
  1139  00184E  0100               	movlb	0	; () banked
  1140  001850  6FAA               	movwf	I2C_LCD_SetCursor@row& (0+255),b
  1141  001852  0E00               	movlw	0
  1142  001854  ECB6  F013         	call	_I2C_LCD_SetCursor
  1143                           
  1144                           ;PIC18F27J53-ChargeStation6-01.c: 297: I2C_LCD_Puts("Station");
  1145  001858  0E0F               	movlw	high STR_30
  1146  00185A  0100               	movlb	0	; () banked
  1147  00185C  6FA9               	movwf	(I2C_LCD_Puts@s+1)& (0+255),b
  1148  00185E  0E37               	movlw	low STR_30
  1149  001860  0100               	movlb	0	; () banked
  1150  001862  6FA8               	movwf	I2C_LCD_Puts@s& (0+255),b
  1151  001864  EC89  F00F         	call	_I2C_LCD_Puts	;wreg free
  1152                           
  1153                           ;PIC18F27J53-ChargeStation6-01.c: 299: uint8_t i;
  1154                           ;PIC18F27J53-ChargeStation6-01.c: 301: for (i = 0; i < 3; i++) {
  1155  001868  0E00               	movlw	0
  1156  00186A  0101               	movlb	1	; () banked
  1157  00186C  6FC8               	movwf	main@i& (0+255),b
  1158  00186E  D02A               	goto	L4
  1159  001870                     l4724:
  1160                           
  1161                           ; BSR set to: 1
  1162                           ;PIC18F27J53-ChargeStation6-01.c: 302: OUT(i, 1);
  1163  001870  0E01               	movlw	1
  1164  001872  0100               	movlb	0	; () banked
  1165  001874  6FA4               	movwf	OUT@value& (0+255),b
  1166  001876  0101               	movlb	1	; () banked
  1167  001878  51C8               	movf	main@i& (0+255),w,b
  1168  00187A  EC44  F012         	call	_OUT
  1169                           
  1170                           ;PIC18F27J53-ChargeStation6-01.c: 303: LED(i, 1);
  1171  00187E  0E01               	movlw	1
  1172  001880  0100               	movlb	0	; () banked
  1173  001882  6FA4               	movwf	LED@value& (0+255),b
  1174  001884  0101               	movlb	1	; () banked
  1175  001886  51C8               	movf	main@i& (0+255),w,b
  1176  001888  ECC9  F011         	call	_LED
  1177                           
  1178                           ;PIC18F27J53-ChargeStation6-01.c: 304: cut_cnt[i] = 0;
  1179  00188C  0101               	movlb	1	; () banked
  1180  00188E  51C8               	movf	main@i& (0+255),w,b
  1181  001890  0D02               	mullw	2
  1182  001892  0101               	movlb	1	; () banked
  1183  001894  0EC9               	movlw	low _cut_cnt
  1184  001896  24F3               	addwf	prodl,w,c
  1185  001898  6ED9               	movwf	fsr2l,c
  1186  00189A  0101               	movlb	1	; () banked
  1187  00189C  0E01               	movlw	high _cut_cnt
  1188  00189E  20F4               	addwfc	prodh,w,c
  1189  0018A0  6EDA               	movwf	fsr2h,c
  1190  0018A2  0E00               	movlw	0
  1191  0018A4  6EDE               	movwf	postinc2,c
  1192  0018A6  0E00               	movlw	0
  1193  0018A8  6EDD               	movwf	postdec2,c
  1194                           
  1195                           ; BSR set to: 1
  1196                           ;PIC18F27J53-ChargeStation6-01.c: 305: auto_cut_ON[i] = 1;
  1197  0018AA  0101               	movlb	1	; () banked
  1198  0018AC  51C8               	movf	main@i& (0+255),w,b
  1199  0018AE  0D01               	mullw	1
  1200  0018B0  0E2E               	movlw	low _auto_cut_ON
  1201  0018B2  24F3               	addwf	prodl,w,c
  1202  0018B4  6ED9               	movwf	fsr2l,c
  1203  0018B6  0E00               	movlw	high _auto_cut_ON
  1204  0018B8  20F4               	addwfc	prodh,w,c
  1205  0018BA  6EDA               	movwf	fsr2h,c
  1206  0018BC  0E01               	movlw	1
  1207  0018BE  6EDF               	movwf	indf2,c
  1208                           
  1209                           ; BSR set to: 1
  1210  0018C0  0101               	movlb	1	; () banked
  1211  0018C2  2BC8               	incf	main@i& (0+255),f,b
  1212  0018C4                     L4:
  1213                           
  1214                           ; BSR set to: 1
  1215  0018C4  0E02               	movlw	2
  1216  0018C6  0101               	movlb	1	; () banked
  1217  0018C8  65C8               	cpfsgt	main@i& (0+255),b
  1218  0018CA  D7D2               	goto	l4724
  1219  0018CC                     l632:
  1220  0018CC  0004               	clrwdt		;# 
  1221                           
  1222                           ;PIC18F27J53-ChargeStation6-01.c: 310: for (i = 0; i < 3; i++) {
  1223  0018CE  0E00               	movlw	0
  1224  0018D0  0101               	movlb	1	; () banked
  1225  0018D2  6FC8               	movwf	main@i& (0+255),b
  1226  0018D4  D099               	goto	L3
  1227  0018D6                     l4740:
  1228                           
  1229                           ; BSR set to: 1
  1230                           ;PIC18F27J53-ChargeStation6-01.c: 311: if (sw_flag_read(i, 0x10)) {
  1231  0018D6  0E10               	movlw	16
  1232  0018D8  0100               	movlb	0	; () banked
  1233  0018DA  6FA4               	movwf	sw_flag_read@bit_and& (0+255),b
  1234  0018DC  0101               	movlb	1	; () banked
  1235  0018DE  51C8               	movf	main@i& (0+255),w,b
  1236  0018E0  EC14  F013         	call	_sw_flag_read
  1237  0018E4  0900               	iorlw	0
  1238  0018E6  B4D8               	btfsc	status,2,c
  1239  0018E8  D01D               	goto	l4746
  1240                           
  1241                           ;PIC18F27J53-ChargeStation6-01.c: 312: OUT(i, 1);
  1242  0018EA  0E01               	movlw	1
  1243  0018EC  0100               	movlb	0	; () banked
  1244  0018EE  6FA4               	movwf	OUT@value& (0+255),b
  1245  0018F0  0101               	movlb	1	; () banked
  1246  0018F2  51C8               	movf	main@i& (0+255),w,b
  1247  0018F4  EC44  F012         	call	_OUT
  1248                           
  1249                           ;PIC18F27J53-ChargeStation6-01.c: 313: LED(i, 1);
  1250  0018F8  0E01               	movlw	1
  1251  0018FA  0100               	movlb	0	; () banked
  1252  0018FC  6FA4               	movwf	LED@value& (0+255),b
  1253  0018FE  0101               	movlb	1	; () banked
  1254  001900  51C8               	movf	main@i& (0+255),w,b
  1255  001902  ECC9  F011         	call	_LED
  1256                           
  1257                           ;PIC18F27J53-ChargeStation6-01.c: 314: cut_cnt[i] = 0;
  1258  001906  0101               	movlb	1	; () banked
  1259  001908  51C8               	movf	main@i& (0+255),w,b
  1260  00190A  0D02               	mullw	2
  1261  00190C  0101               	movlb	1	; () banked
  1262  00190E  0EC9               	movlw	low _cut_cnt
  1263  001910  24F3               	addwf	prodl,w,c
  1264  001912  6ED9               	movwf	fsr2l,c
  1265  001914  0101               	movlb	1	; () banked
  1266  001916  0E01               	movlw	high _cut_cnt
  1267  001918  20F4               	addwfc	prodh,w,c
  1268  00191A  6EDA               	movwf	fsr2h,c
  1269  00191C  0E00               	movlw	0
  1270  00191E  6EDE               	movwf	postinc2,c
  1271  001920  0E00               	movlw	0
  1272  001922  6EDD               	movwf	postdec2,c
  1273  001924                     l4746:
  1274                           
  1275                           ;PIC18F27J53-ChargeStation6-01.c: 315: }
  1276                           ;PIC18F27J53-ChargeStation6-01.c: 316: if (sw_flag_read(i, 0x10)) {
  1277  001924  0E10               	movlw	16
  1278  001926  0100               	movlb	0	; () banked
  1279  001928  6FA4               	movwf	sw_flag_read@bit_and& (0+255),b
  1280  00192A  0101               	movlb	1	; () banked
  1281  00192C  51C8               	movf	main@i& (0+255),w,b
  1282  00192E  EC14  F013         	call	_sw_flag_read
  1283  001932  0900               	iorlw	0
  1284  001934  B4D8               	btfsc	status,2,c
  1285  001936  D009               	goto	l636
  1286                           
  1287                           ;PIC18F27J53-ChargeStation6-01.c: 317: sw_flag_clear(i, 0x00);
  1288  001938  0E00               	movlw	0
  1289  00193A  0100               	movlb	0	; () banked
  1290  00193C  6FA4               	movwf	sw_flag_clear@bit_and& (0+255),b
  1291  00193E  0101               	movlb	1	; () banked
  1292  001940  51C8               	movf	main@i& (0+255),w,b
  1293  001942  EC6B  F012         	call	_sw_flag_clear
  1294                           
  1295                           ;PIC18F27J53-ChargeStation6-01.c: 318: print_port = i;
  1296  001946  C1C8  F03D         	movff	main@i,_print_port
  1297  00194A                     l636:
  1298                           
  1299                           ;PIC18F27J53-ChargeStation6-01.c: 319: }
  1300                           ;PIC18F27J53-ChargeStation6-01.c: 320: if (sw_flag_read(i, 0x40)) {
  1301  00194A  0E40               	movlw	64
  1302  00194C  0100               	movlb	0	; () banked
  1303  00194E  6FA4               	movwf	sw_flag_read@bit_and& (0+255),b
  1304  001950  0101               	movlb	1	; () banked
  1305  001952  51C8               	movf	main@i& (0+255),w,b
  1306  001954  EC14  F013         	call	_sw_flag_read
  1307  001958  0900               	iorlw	0
  1308  00195A  B4D8               	btfsc	status,2,c
  1309  00195C  D009               	goto	l4756
  1310                           
  1311                           ;PIC18F27J53-ChargeStation6-01.c: 321: sw_flag_clear(i, 0x00);
  1312  00195E  0E00               	movlw	0
  1313  001960  0100               	movlb	0	; () banked
  1314  001962  6FA4               	movwf	sw_flag_clear@bit_and& (0+255),b
  1315  001964  0101               	movlb	1	; () banked
  1316  001966  51C8               	movf	main@i& (0+255),w,b
  1317  001968  EC6B  F012         	call	_sw_flag_clear
  1318                           
  1319                           ;PIC18F27J53-ChargeStation6-01.c: 322: print_content = RESET;
  1320  00196C  0E02               	movlw	2
  1321  00196E  6E3C               	movwf	_print_content,c
  1322  001970                     l4756:
  1323                           
  1324                           ;PIC18F27J53-ChargeStation6-01.c: 323: }
  1325                           ;PIC18F27J53-ChargeStation6-01.c: 324: if (sw_flag_read(i, 0x04)) {
  1326  001970  0E04               	movlw	4
  1327  001972  0100               	movlb	0	; () banked
  1328  001974  6FA4               	movwf	sw_flag_read@bit_and& (0+255),b
  1329  001976  0101               	movlb	1	; () banked
  1330  001978  51C8               	movf	main@i& (0+255),w,b
  1331  00197A  EC14  F013         	call	_sw_flag_read
  1332  00197E  0900               	iorlw	0
  1333  001980  B4D8               	btfsc	status,2,c
  1334  001982  D009               	goto	l4762
  1335                           
  1336                           ;PIC18F27J53-ChargeStation6-01.c: 325: sw_flag_clear(i, 0x00);
  1337  001984  0E00               	movlw	0
  1338  001986  0100               	movlb	0	; () banked
  1339  001988  6FA4               	movwf	sw_flag_clear@bit_and& (0+255),b
  1340  00198A  0101               	movlb	1	; () banked
  1341  00198C  51C8               	movf	main@i& (0+255),w,b
  1342  00198E  EC6B  F012         	call	_sw_flag_clear
  1343                           
  1344                           ;PIC18F27J53-ChargeStation6-01.c: 326: print_content = RESETED;
  1345  001992  0E03               	movlw	3
  1346  001994  6E3C               	movwf	_print_content,c
  1347  001996                     l4762:
  1348                           
  1349                           ;PIC18F27J53-ChargeStation6-01.c: 327: }
  1350                           ;PIC18F27J53-ChargeStation6-01.c: 328: if (sw_flag_read(i, 0x80)) {
  1351  001996  0E80               	movlw	128
  1352  001998  0100               	movlb	0	; () banked
  1353  00199A  6FA4               	movwf	sw_flag_read@bit_and& (0+255),b
  1354  00199C  0101               	movlb	1	; () banked
  1355  00199E  51C8               	movf	main@i& (0+255),w,b
  1356  0019A0  EC14  F013         	call	_sw_flag_read
  1357  0019A4  0900               	iorlw	0
  1358  0019A6  B4D8               	btfsc	status,2,c
  1359  0019A8  D02D               	goto	l4776
  1360                           
  1361                           ;PIC18F27J53-ChargeStation6-01.c: 329: sw_flag_clear(i, 0x00);
  1362  0019AA  0E00               	movlw	0
  1363  0019AC  0100               	movlb	0	; () banked
  1364  0019AE  6FA4               	movwf	sw_flag_clear@bit_and& (0+255),b
  1365  0019B0  0101               	movlb	1	; () banked
  1366  0019B2  51C8               	movf	main@i& (0+255),w,b
  1367  0019B4  EC6B  F012         	call	_sw_flag_clear
  1368                           
  1369                           ;PIC18F27J53-ChargeStation6-01.c: 330: if (auto_cut_ON[i]) {
  1370  0019B8  0101               	movlb	1	; () banked
  1371  0019BA  51C8               	movf	main@i& (0+255),w,b
  1372  0019BC  0D01               	mullw	1
  1373  0019BE  0E2E               	movlw	low _auto_cut_ON
  1374  0019C0  24F3               	addwf	prodl,w,c
  1375  0019C2  6ED9               	movwf	fsr2l,c
  1376  0019C4  0E00               	movlw	high _auto_cut_ON
  1377  0019C6  20F4               	addwfc	prodh,w,c
  1378  0019C8  6EDA               	movwf	fsr2h,c
  1379  0019CA  50DF               	movf	indf2,w,c
  1380  0019CC  B4D8               	btfsc	status,2,c
  1381  0019CE  D00D               	goto	l4772
  1382                           
  1383                           ; BSR set to: 1
  1384                           ;PIC18F27J53-ChargeStation6-01.c: 331: auto_cut_ON[i] = 0;
  1385  0019D0  0101               	movlb	1	; () banked
  1386  0019D2  51C8               	movf	main@i& (0+255),w,b
  1387  0019D4  0D01               	mullw	1
  1388  0019D6  0E2E               	movlw	low _auto_cut_ON
  1389  0019D8  24F3               	addwf	prodl,w,c
  1390  0019DA  6ED9               	movwf	fsr2l,c
  1391  0019DC  0E00               	movlw	high _auto_cut_ON
  1392  0019DE  20F4               	addwfc	prodh,w,c
  1393  0019E0  6EDA               	movwf	fsr2h,c
  1394  0019E2  0E00               	movlw	0
  1395  0019E4  6EDF               	movwf	indf2,c
  1396                           
  1397                           ; BSR set to: 1
  1398                           ;PIC18F27J53-ChargeStation6-01.c: 332: print_content = ALWAYS_ON;
  1399  0019E6  0E04               	movlw	4
  1400  0019E8  D00C               	goto	L1
  1401  0019EA                     l4772:
  1402                           
  1403                           ; BSR set to: 1
  1404                           ;PIC18F27J53-ChargeStation6-01.c: 334: auto_cut_ON[i] = 1;
  1405  0019EA  0101               	movlb	1	; () banked
  1406  0019EC  51C8               	movf	main@i& (0+255),w,b
  1407  0019EE  0D01               	mullw	1
  1408  0019F0  0E2E               	movlw	low _auto_cut_ON
  1409  0019F2  24F3               	addwf	prodl,w,c
  1410  0019F4  6ED9               	movwf	fsr2l,c
  1411  0019F6  0E00               	movlw	high _auto_cut_ON
  1412  0019F8  20F4               	addwfc	prodh,w,c
  1413  0019FA  6EDA               	movwf	fsr2h,c
  1414  0019FC  0E01               	movlw	1
  1415  0019FE  6EDF               	movwf	indf2,c
  1416                           
  1417                           ; BSR set to: 1
  1418                           ;PIC18F27J53-ChargeStation6-01.c: 335: print_content = AUTO_STOP;
  1419  001A00  0E05               	movlw	5
  1420  001A02                     L1:
  1421  001A02  6E3C               	movwf	_print_content,c
  1422  001A04                     l4776:
  1423  001A04  0101               	movlb	1	; () banked
  1424  001A06  2BC8               	incf	main@i& (0+255),f,b
  1425  001A08                     L3:
  1426                           
  1427                           ; BSR set to: 1
  1428  001A08  0E02               	movlw	2
  1429  001A0A  0101               	movlb	1	; () banked
  1430  001A0C  65C8               	cpfsgt	main@i& (0+255),b
  1431  001A0E  D763               	goto	l4740
  1432                           
  1433                           ; BSR set to: 1
  1434                           ;PIC18F27J53-ChargeStation6-01.c: 336: }
  1435                           ;PIC18F27J53-ChargeStation6-01.c: 337: }
  1436                           ;PIC18F27J53-ChargeStation6-01.c: 338: }
  1437                           ;PIC18F27J53-ChargeStation6-01.c: 339: if (sw.flag.press) {
  1438  001A10  0101               	movlb	1	; () banked
  1439  001A12  A1D7               	btfss	(_sw+2)& (0+255),0,b
  1440  001A14  D008               	goto	l642
  1441                           
  1442                           ; BSR set to: 1
  1443                           ;PIC18F27J53-ChargeStation6-01.c: 340: sw.flag.press = 0;
  1444  001A16  0101               	movlb	1	; () banked
  1445  001A18  91D7               	bcf	(_sw+2)& (0+255),0,b
  1446                           
  1447                           ;PIC18F27J53-ChargeStation6-01.c: 341: if (print_content == CURRENT)print_content = INTE
      +                          GRATING;
  1448  001A1A  663C               	tstfsz	_print_content,c
  1449  001A1C  D002               	goto	l4784
  1450                           
  1451                           ; BSR set to: 1
  1452  001A1E  0E01               	movlw	1
  1453  001A20  D001               	goto	L2
  1454  001A22                     l4784:
  1455                           
  1456                           ; BSR set to: 1
  1457                           ;PIC18F27J53-ChargeStation6-01.c: 342: else print_content = CURRENT;
  1458  001A22  0E00               	movlw	0
  1459  001A24                     L2:
  1460  001A24  6E3C               	movwf	_print_content,c
  1461  001A26                     l642:
  1462                           
  1463                           ; BSR set to: 1
  1464                           ;PIC18F27J53-ChargeStation6-01.c: 343: }
  1465                           ;PIC18F27J53-ChargeStation6-01.c: 344: if (display_flag) {
  1466  001A26  0101               	movlb	1	; () banked
  1467  001A28  51CF               	movf	_display_flag& (0+255),w,b
  1468  001A2A  B4D8               	btfsc	status,2,c
  1469  001A2C  D74F               	goto	l632
  1470                           
  1471                           ; BSR set to: 1
  1472                           ;PIC18F27J53-ChargeStation6-01.c: 345: display_flag = 0;
  1473  001A2E  0E00               	movlw	0
  1474  001A30  0101               	movlb	1	; () banked
  1475  001A32  6FCF               	movwf	_display_flag& (0+255),b
  1476                           
  1477                           ; BSR set to: 1
  1478                           ;PIC18F27J53-ChargeStation6-01.c: 346: display();
  1479  001A34  ECDD  F007         	call	_display	;wreg free
  1480  001A38  D749               	goto	l632
  1481  001A3A                     __end_of_main:
  1482                           	opt stack 0
  1483                           tblptru	equ	0xFF8
  1484                           tblptrh	equ	0xFF7
  1485                           tblptrl	equ	0xFF6
  1486                           tablat	equ	0xFF5
  1487                           prodh	equ	0xFF4
  1488                           prodl	equ	0xFF3
  1489                           intcon	equ	0xFF2
  1490                           postinc0	equ	0xFEE
  1491                           wreg	equ	0xFE8
  1492                           postdec1	equ	0xFE5
  1493                           fsr1l	equ	0xFE1
  1494                           indf2	equ	0xFDF
  1495                           postinc2	equ	0xFDE
  1496                           postdec2	equ	0xFDD
  1497                           fsr2h	equ	0xFDA
  1498                           fsr2l	equ	0xFD9
  1499                           status	equ	0xFD8
  1500                           
  1501 ;; *************** function _timer3_init *****************
  1502 ;; Defined at:
  1503 ;;		line 86 in file "../My_header\My_header.h"
  1504 ;; Parameters:    Size  Location     Type
  1505 ;;  prescaler       1    wreg     unsigned char 
  1506 ;; Auto vars:     Size  Location     Type
  1507 ;;  prescaler       1    1[BANK0 ] unsigned char 
  1508 ;; Return value:  Size  Location     Type
  1509 ;;		None               void
  1510 ;; Registers used:
  1511 ;;		wreg, status,2, status,0
  1512 ;; Tracked objects:
  1513 ;;		On entry : 0/0
  1514 ;;		On exit  : 0/0
  1515 ;;		Unchanged: 0/0
  1516 ;; Data sizes:     COMRAM   BANK0   BANK1   BANK2   BANK3   BANK4   BANK5   BANK6   BANK7   BANK8   BANK9  BANK10  BANK1
      +1  BANK12  BANK13  BANK14
  1517 ;;      Params:         0       0       0       0       0       0       0       0       0       0       0       0       
      +0       0       0       0
  1518 ;;      Locals:         0       1       0       0       0       0       0       0       0       0       0       0       
      +0       0       0       0
  1519 ;;      Temps:          0       1       0       0       0       0       0       0       0       0       0       0       
      +0       0       0       0
  1520 ;;      Totals:         0       2       0       0       0       0       0       0       0       0       0       0       
      +0       0       0       0
  1521 ;;Total ram usage:        2 bytes
  1522 ;; Hardware stack levels used:    1
  1523 ;; Hardware stack levels required when called:    5
  1524 ;; This function calls:
  1525 ;;		Nothing
  1526 ;; This function is called by:
  1527 ;;		_main
  1528 ;; This function uses a non-reentrant model
  1529 ;;
  1530                           
  1531                           	psect	text1
  1532  00279C                     __ptext1:
  1533                           	opt stack 0
  1534  00279C                     _timer3_init:
  1535                           	opt stack 25
  1536                           
  1537                           ;incstack = 0
  1538                           ;timer3_init@prescaler stored from wreg
  1539  00279C  0100               	movlb	0	; () banked
  1540  00279E  6FA5               	movwf	timer3_init@prescaler& (0+255),b
  1541                           
  1542                           ; BSR set to: 0
  1543                           ;My_header\My_header.h: 87: T3CONbits.TMR3CS = 0;
  1544  0027A0  0E3F               	movlw	-193
  1545  0027A2  1679               	andwf	3961,f,c	;volatile
  1546                           
  1547                           ; BSR set to: 0
  1548                           ;My_header\My_header.h: 88: T3CONbits.T3OSCEN = 0;
  1549  0027A4  9679               	bcf	3961,3,c	;volatile
  1550                           
  1551                           ; BSR set to: 0
  1552                           ;My_header\My_header.h: 89: T3CONbits.T3CKPS = prescaler;
  1553  0027A6  C0A5  F0A4         	movff	timer3_init@prescaler,??_timer3_init
  1554  0027AA  0100               	movlb	0	; () banked
  1555  0027AC  3BA4               	swapf	??_timer3_init& (0+255),f,b
  1556  0027AE  5079               	movf	3961,w,c	;volatile
  1557  0027B0  0100               	movlb	0	; () banked
  1558  0027B2  19A4               	xorwf	??_timer3_init& (0+255),w,b
  1559  0027B4  0BCF               	andlw	-49
  1560  0027B6  19A4               	xorwf	??_timer3_init& (0+255),w,b
  1561  0027B8  6E79               	movwf	3961,c	;volatile
  1562                           
  1563                           ; BSR set to: 0
  1564                           ;My_header\My_header.h: 90: T3CONbits.RD163 = 0;
  1565  0027BA  9E79               	bcf	3961,7,c	;volatile
  1566                           
  1567                           ; BSR set to: 0
  1568                           ;My_header\My_header.h: 91: T3CONbits.TMR3ON = 1;
  1569  0027BC  8079               	bsf	3961,0,c	;volatile
  1570                           
  1571                           ; BSR set to: 0
  1572                           ;My_header\My_header.h: 92: IPR2bits.TMR3IP = 0;
  1573  0027BE  92A2               	bcf	4002,1,c	;volatile
  1574                           
  1575                           ; BSR set to: 0
  1576                           ;My_header\My_header.h: 93: PIR2bits.TMR3IF = 0;
  1577  0027C0  92A1               	bcf	4001,1,c	;volatile
  1578                           
  1579                           ; BSR set to: 0
  1580                           ;My_header\My_header.h: 94: PIE2bits.TMR3IE = 1;
  1581  0027C2  82A0               	bsf	4000,1,c	;volatile
  1582                           
  1583                           ; BSR set to: 0
  1584                           ;My_header\My_header.h: 95: INTCONbits.PEIE = 1;
  1585  0027C4  8CF2               	bsf	intcon,6,c	;volatile
  1586                           
  1587                           ; BSR set to: 0
  1588  0027C6  0012               	return	
  1589  0027C8                     __end_of_timer3_init:
  1590                           	opt stack 0
  1591                           tblptru	equ	0xFF8
  1592                           tblptrh	equ	0xFF7
  1593                           tblptrl	equ	0xFF6
  1594                           tablat	equ	0xFF5
  1595                           prodh	equ	0xFF4
  1596                           prodl	equ	0xFF3
  1597                           intcon	equ	0xFF2
  1598                           postinc0	equ	0xFEE
  1599                           wreg	equ	0xFE8
  1600                           postdec1	equ	0xFE5
  1601                           fsr1l	equ	0xFE1
  1602                           indf2	equ	0xFDF
  1603                           postinc2	equ	0xFDE
  1604                           postdec2	equ	0xFDD
  1605                           fsr2h	equ	0xFDA
  1606                           fsr2l	equ	0xFD9
  1607                           status	equ	0xFD8
  1608                           
  1609 ;; *************** function _timer1_init *****************
  1610 ;; Defined at:
  1611 ;;		line 55 in file "../My_header\My_header.h"
  1612 ;; Parameters:    Size  Location     Type
  1613 ;;  prescaler       1    wreg     unsigned char 
  1614 ;;  clock_select    1    0[BANK0 ] unsigned char 
  1615 ;; Auto vars:     Size  Location     Type
  1616 ;;  prescaler       1    2[BANK0 ] unsigned char 
  1617 ;; Return value:  Size  Location     Type
  1618 ;;		None               void
  1619 ;; Registers used:
  1620 ;;		wreg, status,2, status,0
  1621 ;; Tracked objects:
  1622 ;;		On entry : 0/0
  1623 ;;		On exit  : 0/0
  1624 ;;		Unchanged: 0/0
  1625 ;; Data sizes:     COMRAM   BANK0   BANK1   BANK2   BANK3   BANK4   BANK5   BANK6   BANK7   BANK8   BANK9  BANK10  BANK1
      +1  BANK12  BANK13  BANK14
  1626 ;;      Params:         0       1       0       0       0       0       0       0       0       0       0       0       
      +0       0       0       0
  1627 ;;      Locals:         0       1       0       0       0       0       0       0       0       0       0       0       
      +0       0       0       0
  1628 ;;      Temps:          0       1       0       0       0       0       0       0       0       0       0       0       
      +0       0       0       0
  1629 ;;      Totals:         0       3       0       0       0       0       0       0       0       0       0       0       
      +0       0       0       0
  1630 ;;Total ram usage:        3 bytes
  1631 ;; Hardware stack levels used:    1
  1632 ;; Hardware stack levels required when called:    5
  1633 ;; This function calls:
  1634 ;;		Nothing
  1635 ;; This function is called by:
  1636 ;;		_main
  1637 ;; This function uses a non-reentrant model
  1638 ;;
  1639                           
  1640                           	psect	text2
  1641  002438                     __ptext2:
  1642                           	opt stack 0
  1643  002438                     _timer1_init:
  1644                           	opt stack 25
  1645                           
  1646                           ; BSR set to: 0
  1647                           ;incstack = 0
  1648                           ;timer1_init@prescaler stored from wreg
  1649  002438  0100               	movlb	0	; () banked
  1650  00243A  6FA6               	movwf	timer1_init@prescaler& (0+255),b
  1651                           
  1652                           ; BSR set to: 0
  1653                           ;My_header\My_header.h: 56: T1CONbits.TMR1CS = clock_select;
  1654  00243C  C0A4  F0A5         	movff	timer1_init@clock_select,??_timer1_init
  1655  002440  0100               	movlb	0	; () banked
  1656  002442  3BA5               	swapf	??_timer1_init& (0+255),f,b
  1657  002444  47A5               	rlncf	??_timer1_init& (0+255),f,b
  1658  002446  47A5               	rlncf	??_timer1_init& (0+255),f,b
  1659  002448  50CD               	movf	4045,w,c	;volatile
  1660  00244A  0100               	movlb	0	; () banked
  1661  00244C  19A5               	xorwf	??_timer1_init& (0+255),w,b
  1662  00244E  0B3F               	andlw	-193
  1663  002450  19A5               	xorwf	??_timer1_init& (0+255),w,b
  1664  002452  6ECD               	movwf	4045,c	;volatile
  1665                           
  1666                           ;My_header\My_header.h: 57: if (clock_select == 2) T1CONbits.T1OSCEN = 1;
  1667  002454  0100               	movlb	0	; () banked
  1668  002456  51A4               	movf	timer1_init@clock_select& (0+255),w,b
  1669  002458  0A02               	xorlw	2
  1670  00245A  A4D8               	btfss	status,2,c
  1671  00245C  D002               	goto	l134
  1672                           
  1673                           ; BSR set to: 0
  1674  00245E  86CD               	bsf	4045,3,c	;volatile
  1675  002460  D001               	goto	l4240
  1676  002462                     l134:
  1677                           
  1678                           ; BSR set to: 0
  1679                           ;My_header\My_header.h: 58: else T1CONbits.T1OSCEN = 0;
  1680  002462  96CD               	bcf	4045,3,c	;volatile
  1681  002464                     l4240:
  1682                           
  1683                           ; BSR set to: 0
  1684                           ;My_header\My_header.h: 59: T1CONbits.T1CKPS = prescaler;
  1685  002464  C0A6  F0A5         	movff	timer1_init@prescaler,??_timer1_init
  1686  002468  0100               	movlb	0	; () banked
  1687  00246A  3BA5               	swapf	??_timer1_init& (0+255),f,b
  1688  00246C  50CD               	movf	4045,w,c	;volatile
  1689  00246E  0100               	movlb	0	; () banked
  1690  002470  19A5               	xorwf	??_timer1_init& (0+255),w,b
  1691  002472  0BCF               	andlw	-49
  1692  002474  19A5               	xorwf	??_timer1_init& (0+255),w,b
  1693  002476  6ECD               	movwf	4045,c	;volatile
  1694                           
  1695                           ; BSR set to: 0
  1696                           ;My_header\My_header.h: 60: T1CONbits.nT1SYNC = 1;
  1697  002478  84CD               	bsf	4045,2,c	;volatile
  1698                           
  1699                           ; BSR set to: 0
  1700                           ;My_header\My_header.h: 61: T1CONbits.RD16 = 0;
  1701  00247A  92CD               	bcf	4045,1,c	;volatile
  1702                           
  1703                           ; BSR set to: 0
  1704                           ;My_header\My_header.h: 62: T1CONbits.TMR1ON = 1;
  1705  00247C  80CD               	bsf	4045,0,c	;volatile
  1706                           
  1707                           ; BSR set to: 0
  1708                           ;My_header\My_header.h: 63: IPR1bits.TMR1IP = 0;
  1709  00247E  909F               	bcf	3999,0,c	;volatile
  1710                           
  1711                           ; BSR set to: 0
  1712                           ;My_header\My_header.h: 64: PIR1bits.TMR1IF = 0;
  1713  002480  909E               	bcf	3998,0,c	;volatile
  1714                           
  1715                           ; BSR set to: 0
  1716                           ;My_header\My_header.h: 65: PIE1bits.TMR1IE = 1;
  1717  002482  809D               	bsf	3997,0,c	;volatile
  1718                           
  1719                           ; BSR set to: 0
  1720                           ;My_header\My_header.h: 66: INTCONbits.PEIE = 1;
  1721  002484  8CF2               	bsf	intcon,6,c	;volatile
  1722                           
  1723                           ; BSR set to: 0
  1724  002486  0012               	return	
  1725  002488                     __end_of_timer1_init:
  1726                           	opt stack 0
  1727                           tblptru	equ	0xFF8
  1728                           tblptrh	equ	0xFF7
  1729                           tblptrl	equ	0xFF6
  1730                           tablat	equ	0xFF5
  1731                           prodh	equ	0xFF4
  1732                           prodl	equ	0xFF3
  1733                           intcon	equ	0xFF2
  1734                           postinc0	equ	0xFEE
  1735                           wreg	equ	0xFE8
  1736                           postdec1	equ	0xFE5
  1737                           fsr1l	equ	0xFE1
  1738                           indf2	equ	0xFDF
  1739                           postinc2	equ	0xFDE
  1740                           postdec2	equ	0xFDD
  1741                           fsr2h	equ	0xFDA
  1742                           fsr2l	equ	0xFD9
  1743                           status	equ	0xFD8
  1744                           
  1745 ;; *************** function _timer0_init *****************
  1746 ;; Defined at:
  1747 ;;		line 16 in file "../My_header\My_header.h"
  1748 ;; Parameters:    Size  Location     Type
  1749 ;;  prescaler       1    wreg     unsigned char 
  1750 ;; Auto vars:     Size  Location     Type
  1751 ;;  prescaler       1    1[BANK0 ] unsigned char 
  1752 ;; Return value:  Size  Location     Type
  1753 ;;		None               void
  1754 ;; Registers used:
  1755 ;;		wreg, status,2, status,0
  1756 ;; Tracked objects:
  1757 ;;		On entry : 0/0
  1758 ;;		On exit  : 0/0
  1759 ;;		Unchanged: 0/0
  1760 ;; Data sizes:     COMRAM   BANK0   BANK1   BANK2   BANK3   BANK4   BANK5   BANK6   BANK7   BANK8   BANK9  BANK10  BANK1
      +1  BANK12  BANK13  BANK14
  1761 ;;      Params:         0       0       0       0       0       0       0       0       0       0       0       0       
      +0       0       0       0
  1762 ;;      Locals:         0       1       0       0       0       0       0       0       0       0       0       0       
      +0       0       0       0
  1763 ;;      Temps:          0       1       0       0       0       0       0       0       0       0       0       0       
      +0       0       0       0
  1764 ;;      Totals:         0       2       0       0       0       0       0       0       0       0       0       0       
      +0       0       0       0
  1765 ;;Total ram usage:        2 bytes
  1766 ;; Hardware stack levels used:    1
  1767 ;; Hardware stack levels required when called:    5
  1768 ;; This function calls:
  1769 ;;		Nothing
  1770 ;; This function is called by:
  1771 ;;		_main
  1772 ;; This function uses a non-reentrant model
  1773 ;;
  1774                           
  1775                           	psect	text3
  1776  00269C                     __ptext3:
  1777                           	opt stack 0
  1778  00269C                     _timer0_init:
  1779                           	opt stack 25
  1780                           
  1781                           ; BSR set to: 0
  1782                           ;incstack = 0
  1783                           ;timer0_init@prescaler stored from wreg
  1784  00269C  0100               	movlb	0	; () banked
  1785  00269E  6FA5               	movwf	timer0_init@prescaler& (0+255),b
  1786                           
  1787                           ; BSR set to: 0
  1788                           ;My_header\My_header.h: 17: T0CONbits.TMR0ON = 1;
  1789  0026A0  8ED5               	bsf	4053,7,c	;volatile
  1790                           
  1791                           ;My_header\My_header.h: 18: T0CONbits.T08BIT = 1;
  1792  0026A2  8CD5               	bsf	4053,6,c	;volatile
  1793                           
  1794                           ;My_header\My_header.h: 19: T0CONbits.T0CS = 0;
  1795  0026A4  9AD5               	bcf	4053,5,c	;volatile
  1796                           
  1797                           ; BSR set to: 0
  1798                           ;My_header\My_header.h: 20: if (prescaler == 0) {
  1799  0026A6  0100               	movlb	0	; () banked
  1800  0026A8  67A5               	tstfsz	timer0_init@prescaler& (0+255),b
  1801  0026AA  D002               	goto	l129
  1802                           
  1803                           ; BSR set to: 0
  1804                           ;My_header\My_header.h: 21: T0CONbits.PSA = 1;
  1805  0026AC  86D5               	bsf	4053,3,c	;volatile
  1806                           
  1807                           ;My_header\My_header.h: 22: } else {
  1808  0026AE  D00C               	goto	l4228
  1809  0026B0                     l129:
  1810                           
  1811                           ; BSR set to: 0
  1812                           ;My_header\My_header.h: 23: T0CONbits.PSA = 0;
  1813  0026B0  96D5               	bcf	4053,3,c	;volatile
  1814                           
  1815                           ; BSR set to: 0
  1816                           ;My_header\My_header.h: 24: T0CONbits.T0PS = prescaler - 1;
  1817  0026B2  C0A5  F0A4         	movff	timer0_init@prescaler,??_timer0_init
  1818  0026B6  0EFF               	movlw	255
  1819  0026B8  0100               	movlb	0	; () banked
  1820  0026BA  27A4               	addwf	??_timer0_init& (0+255),f,b
  1821  0026BC  50D5               	movf	4053,w,c	;volatile
  1822  0026BE  0100               	movlb	0	; () banked
  1823  0026C0  19A4               	xorwf	??_timer0_init& (0+255),w,b
  1824  0026C2  0BF8               	andlw	-8
  1825  0026C4  19A4               	xorwf	??_timer0_init& (0+255),w,b
  1826  0026C6  6ED5               	movwf	4053,c	;volatile
  1827  0026C8                     l4228:
  1828                           
  1829                           ; BSR set to: 0
  1830                           ;My_header\My_header.h: 25: }
  1831                           ;My_header\My_header.h: 26: INTCONbits.T0IE = 1;
  1832  0026C8  8AF2               	bsf	intcon,5,c	;volatile
  1833                           
  1834                           ; BSR set to: 0
  1835                           ;My_header\My_header.h: 27: INTCONbits.TMR0IF = 0;
  1836  0026CA  94F2               	bcf	intcon,2,c	;volatile
  1837                           
  1838                           ; BSR set to: 0
  1839                           ;My_header\My_header.h: 28: INTCON2bits.TMR0IP = 0;
  1840  0026CC  94F1               	bcf	intcon2,2,c	;volatile
  1841                           
  1842                           ; BSR set to: 0
  1843                           ;My_header\My_header.h: 29: INTCONbits.PEIE = 1;
  1844  0026CE  8CF2               	bsf	intcon,6,c	;volatile
  1845                           
  1846                           ; BSR set to: 0
  1847  0026D0  0012               	return	
  1848  0026D2                     __end_of_timer0_init:
  1849                           	opt stack 0
  1850                           tblptru	equ	0xFF8
  1851                           tblptrh	equ	0xFF7
  1852                           tblptrl	equ	0xFF6
  1853                           tablat	equ	0xFF5
  1854                           prodh	equ	0xFF4
  1855                           prodl	equ	0xFF3
  1856                           intcon	equ	0xFF2
  1857                           intcon2	equ	0xFF1
  1858                           postinc0	equ	0xFEE
  1859                           wreg	equ	0xFE8
  1860                           postdec1	equ	0xFE5
  1861                           fsr1l	equ	0xFE1
  1862                           indf2	equ	0xFDF
  1863                           postinc2	equ	0xFDE
  1864                           postdec2	equ	0xFDD
  1865                           fsr2h	equ	0xFDA
  1866                           fsr2l	equ	0xFD9
  1867                           status	equ	0xFD8
  1868                           
  1869 ;; *************** function _sw_flag_read *****************
  1870 ;; Defined at:
  1871 ;;		line 112 in file "PIC18F27J53-ChargeStation6-01.c"
  1872 ;; Parameters:    Size  Location     Type
  1873 ;;  port            1    wreg     unsigned char 
  1874 ;;  bit_and         1    0[BANK0 ] unsigned char 
  1875 ;; Auto vars:     Size  Location     Type
  1876 ;;  port            1    1[BANK0 ] unsigned char 
  1877 ;; Return value:  Size  Location     Type
  1878 ;;                  1    wreg      unsigned char 
  1879 ;; Registers used:
  1880 ;;		wreg, status,2, status,0
  1881 ;; Tracked objects:
  1882 ;;		On entry : 0/0
  1883 ;;		On exit  : 0/0
  1884 ;;		Unchanged: 0/0
  1885 ;; Data sizes:     COMRAM   BANK0   BANK1   BANK2   BANK3   BANK4   BANK5   BANK6   BANK7   BANK8   BANK9  BANK10  BANK1
      +1  BANK12  BANK13  BANK14
  1886 ;;      Params:         0       1       0       0       0       0       0       0       0       0       0       0       
      +0       0       0       0
  1887 ;;      Locals:         0       1       0       0       0       0       0       0       0       0       0       0       
      +0       0       0       0
  1888 ;;      Temps:          0       0       0       0       0       0       0       0       0       0       0       0       
      +0       0       0       0
  1889 ;;      Totals:         0       2       0       0       0       0       0       0       0       0       0       0       
      +0       0       0       0
  1890 ;;Total ram usage:        2 bytes
  1891 ;; Hardware stack levels used:    1
  1892 ;; Hardware stack levels required when called:    5
  1893 ;; This function calls:
  1894 ;;		Nothing
  1895 ;; This function is called by:
  1896 ;;		_main
  1897 ;; This function uses a non-reentrant model
  1898 ;;
  1899                           
  1900                           	psect	text4
  1901  002628                     __ptext4:
  1902                           	opt stack 0
  1903  002628                     _sw_flag_read:
  1904                           	opt stack 25
  1905                           
  1906                           ; BSR set to: 0
  1907                           ;incstack = 0
  1908                           ;sw_flag_read@port stored from wreg
  1909  002628  0100               	movlb	0	; () banked
  1910  00262A  6FA5               	movwf	sw_flag_read@port& (0+255),b
  1911                           
  1912                           ; BSR set to: 0
  1913                           ;PIC18F27J53-ChargeStation6-01.c: 113: switch (port) {
  1914  00262C  D00F               	goto	l4468
  1915  00262E                     l4450:
  1916                           
  1917                           ; BSR set to: 0
  1918                           ;PIC18F27J53-ChargeStation6-01.c: 115: return (sw0.flags) & bit_and;
  1919  00262E  5046               	movf	_sw0+2,w,c
  1920  002630  0100               	movlb	0	; () banked
  1921  002632  15A4               	andwf	sw_flag_read@bit_and& (0+255),w,b
  1922  002634  0012               	return	
  1923  002636                     l4454:
  1924                           
  1925                           ; BSR set to: 0
  1926                           ;PIC18F27J53-ChargeStation6-01.c: 117: return (sw1.flags) & bit_and;
  1927  002636  504A               	movf	_sw1+2,w,c
  1928  002638  0100               	movlb	0	; () banked
  1929  00263A  15A4               	andwf	sw_flag_read@bit_and& (0+255),w,b
  1930  00263C  0012               	return	
  1931  00263E                     l4458:
  1932                           
  1933                           ; BSR set to: 0
  1934                           ;PIC18F27J53-ChargeStation6-01.c: 119: return (sw2.flags) & bit_and;
  1935  00263E  0100               	movlb	0	; () banked
  1936  002640  5186               	movf	(_sw2+2)& (0+255),w,b
  1937  002642  0100               	movlb	0	; () banked
  1938  002644  15A4               	andwf	sw_flag_read@bit_and& (0+255),w,b
  1939  002646  0012               	return	
  1940  002648                     l4462:
  1941                           
  1942                           ; BSR set to: 0
  1943                           ;PIC18F27J53-ChargeStation6-01.c: 121: return 0;
  1944  002648  0E00               	movlw	0
  1945  00264A  0012               	return	
  1946  00264C                     l4468:
  1947                           
  1948                           ; BSR set to: 0
  1949  00264C  0100               	movlb	0	; () banked
  1950  00264E  51A5               	movf	sw_flag_read@port& (0+255),w,b
  1951                           
  1952                           ; Switch size 1, requested type "space"
  1953                           ; Number of cases is 3, Range of values is 0 to 2
  1954                           ; switch strategies available:
  1955                           ; Name         Instructions Cycles
  1956                           ; simple_byte           10     6 (average)
  1957                           ;	Chosen strategy is simple_byte
  1958  002650  0A00               	xorlw	0	; case 0
  1959  002652  B4D8               	btfsc	status,2,c
  1960  002654  D7EC               	goto	l4450
  1961  002656  0A01               	xorlw	1	; case 1
  1962  002658  B4D8               	btfsc	status,2,c
  1963  00265A  D7ED               	goto	l4454
  1964  00265C  0A03               	xorlw	3	; case 2
  1965  00265E  B4D8               	btfsc	status,2,c
  1966  002660  D7EE               	goto	l4458
  1967  002662  D7F2               	goto	l4462
  1968  002664                     __end_of_sw_flag_read:
  1969                           	opt stack 0
  1970                           tblptru	equ	0xFF8
  1971                           tblptrh	equ	0xFF7
  1972                           tblptrl	equ	0xFF6
  1973                           tablat	equ	0xFF5
  1974                           prodh	equ	0xFF4
  1975                           prodl	equ	0xFF3
  1976                           intcon	equ	0xFF2
  1977                           intcon2	equ	0xFF1
  1978                           postinc0	equ	0xFEE
  1979                           wreg	equ	0xFE8
  1980                           postdec1	equ	0xFE5
  1981                           fsr1l	equ	0xFE1
  1982                           indf2	equ	0xFDF
  1983                           postinc2	equ	0xFDE
  1984                           postdec2	equ	0xFDD
  1985                           fsr2h	equ	0xFDA
  1986                           fsr2l	equ	0xFD9
  1987                           status	equ	0xFD8
  1988                           
  1989 ;; *************** function _sw_flag_clear *****************
  1990 ;; Defined at:
  1991 ;;		line 125 in file "PIC18F27J53-ChargeStation6-01.c"
  1992 ;; Parameters:    Size  Location     Type
  1993 ;;  port            1    wreg     unsigned char 
  1994 ;;  bit_and         1    0[BANK0 ] unsigned char 
  1995 ;; Auto vars:     Size  Location     Type
  1996 ;;  port            1    1[BANK0 ] unsigned char 
  1997 ;; Return value:  Size  Location     Type
  1998 ;;		None               void
  1999 ;; Registers used:
  2000 ;;		wreg, status,2, status,0
  2001 ;; Tracked objects:
  2002 ;;		On entry : 0/0
  2003 ;;		On exit  : 0/0
  2004 ;;		Unchanged: 0/0
  2005 ;; Data sizes:     COMRAM   BANK0   BANK1   BANK2   BANK3   BANK4   BANK5   BANK6   BANK7   BANK8   BANK9  BANK10  BANK1
      +1  BANK12  BANK13  BANK14
  2006 ;;      Params:         0       1       0       0       0       0       0       0       0       0       0       0       
      +0       0       0       0
  2007 ;;      Locals:         0       1       0       0       0       0       0       0       0       0       0       0       
      +0       0       0       0
  2008 ;;      Temps:          0       0       0       0       0       0       0       0       0       0       0       0       
      +0       0       0       0
  2009 ;;      Totals:         0       2       0       0       0       0       0       0       0       0       0       0       
      +0       0       0       0
  2010 ;;Total ram usage:        2 bytes
  2011 ;; Hardware stack levels used:    1
  2012 ;; Hardware stack levels required when called:    5
  2013 ;; This function calls:
  2014 ;;		Nothing
  2015 ;; This function is called by:
  2016 ;;		_main
  2017 ;; This function uses a non-reentrant model
  2018 ;;
  2019                           
  2020                           	psect	text5
  2021  0024D6                     __ptext5:
  2022                           	opt stack 0
  2023  0024D6                     _sw_flag_clear:
  2024                           	opt stack 25
  2025                           
  2026                           ; BSR set to: 0
  2027                           ;incstack = 0
  2028                           ;sw_flag_clear@port stored from wreg
  2029  0024D6  0100               	movlb	0	; () banked
  2030  0024D8  6FA5               	movwf	sw_flag_clear@port& (0+255),b
  2031                           
  2032                           ; BSR set to: 0
  2033                           ;PIC18F27J53-ChargeStation6-01.c: 126: switch (port) {
  2034  0024DA  D014               	goto	l4480
  2035  0024DC                     l4472:
  2036                           
  2037                           ; BSR set to: 0
  2038                           ;PIC18F27J53-ChargeStation6-01.c: 128: sw0.flags &= bit_and;
  2039  0024DC  0100               	movlb	0	; () banked
  2040  0024DE  51A4               	movf	sw_flag_clear@bit_and& (0+255),w,b
  2041  0024E0  1646               	andwf	_sw0+2,f,c
  2042  0024E2  0E00               	movlw	0
  2043  0024E4  1647               	andwf	_sw0+3,f,c
  2044                           
  2045                           ;PIC18F27J53-ChargeStation6-01.c: 129: break;
  2046  0024E6  0012               	return	
  2047  0024E8                     l4474:
  2048                           
  2049                           ; BSR set to: 0
  2050                           ;PIC18F27J53-ChargeStation6-01.c: 131: sw1.flags &= bit_and;
  2051  0024E8  0100               	movlb	0	; () banked
  2052  0024EA  51A4               	movf	sw_flag_clear@bit_and& (0+255),w,b
  2053  0024EC  164A               	andwf	_sw1+2,f,c
  2054  0024EE  0E00               	movlw	0
  2055  0024F0  164B               	andwf	_sw1+3,f,c
  2056                           
  2057                           ;PIC18F27J53-ChargeStation6-01.c: 132: break;
  2058  0024F2  0012               	return	
  2059  0024F4                     l4476:
  2060                           
  2061                           ; BSR set to: 0
  2062                           ;PIC18F27J53-ChargeStation6-01.c: 134: sw2.flags &= bit_and;
  2063  0024F4  0100               	movlb	0	; () banked
  2064  0024F6  51A4               	movf	sw_flag_clear@bit_and& (0+255),w,b
  2065  0024F8  0100               	movlb	0	; () banked
  2066  0024FA  1786               	andwf	(_sw2+2)& (0+255),f,b
  2067  0024FC  0E00               	movlw	0
  2068  0024FE  0100               	movlb	0	; () banked
  2069  002500  1787               	andwf	(_sw2+3)& (0+255),f,b
  2070                           
  2071                           ;PIC18F27J53-ChargeStation6-01.c: 135: break;
  2072  002502  0012               	return	
  2073  002504                     l4480:
  2074                           
  2075                           ; BSR set to: 0
  2076  002504  0100               	movlb	0	; () banked
  2077  002506  51A5               	movf	sw_flag_clear@port& (0+255),w,b
  2078                           
  2079                           ; Switch size 1, requested type "space"
  2080                           ; Number of cases is 3, Range of values is 0 to 2
  2081                           ; switch strategies available:
  2082                           ; Name         Instructions Cycles
  2083                           ; simple_byte           10     6 (average)
  2084                           ;	Chosen strategy is simple_byte
  2085  002508  0A00               	xorlw	0	; case 0
  2086  00250A  B4D8               	btfsc	status,2,c
  2087  00250C  D7E7               	goto	l4472
  2088  00250E  0A01               	xorlw	1	; case 1
  2089  002510  B4D8               	btfsc	status,2,c
  2090  002512  D7EA               	goto	l4474
  2091  002514  0A03               	xorlw	3	; case 2
  2092  002516  A4D8               	btfss	status,2,c
  2093  002518  0012               	return	
  2094  00251A  D7EC               	goto	l4476
  2095  00251C                     __end_of_sw_flag_clear:
  2096                           	opt stack 0
  2097                           tblptru	equ	0xFF8
  2098                           tblptrh	equ	0xFF7
  2099                           tblptrl	equ	0xFF6
  2100                           tablat	equ	0xFF5
  2101                           prodh	equ	0xFF4
  2102                           prodl	equ	0xFF3
  2103                           intcon	equ	0xFF2
  2104                           intcon2	equ	0xFF1
  2105                           postinc0	equ	0xFEE
  2106                           wreg	equ	0xFE8
  2107                           postdec1	equ	0xFE5
  2108                           fsr1l	equ	0xFE1
  2109                           indf2	equ	0xFDF
  2110                           postinc2	equ	0xFDE
  2111                           postdec2	equ	0xFDD
  2112                           fsr2h	equ	0xFDA
  2113                           fsr2l	equ	0xFD9
  2114                           status	equ	0xFD8
  2115                           
  2116 ;; *************** function _ringbuf_init *****************
  2117 ;; Defined at:
  2118 ;;		line 22 in file "../My_header\My_ringbuf.h"
  2119 ;; Parameters:    Size  Location     Type
  2120 ;;  rb              2    0[BANK0 ] PTR struct ringbuf
  2121 ;;		 -> tx_buf(5), 
  2122 ;;  internal_buf    2    2[BANK0 ] PTR unsigned char 
  2123 ;;		 -> main@txbuf(200), 
  2124 ;;  bufsize         1    4[BANK0 ] unsigned char 
  2125 ;; Auto vars:     Size  Location     Type
  2126 ;;		None
  2127 ;; Return value:  Size  Location     Type
  2128 ;;		None               void
  2129 ;; Registers used:
  2130 ;;		wreg, fsr2l, fsr2h, status,2, status,0
  2131 ;; Tracked objects:
  2132 ;;		On entry : 0/0
  2133 ;;		On exit  : 0/0
  2134 ;;		Unchanged: 0/0
  2135 ;; Data sizes:     COMRAM   BANK0   BANK1   BANK2   BANK3   BANK4   BANK5   BANK6   BANK7   BANK8   BANK9  BANK10  BANK1
      +1  BANK12  BANK13  BANK14
  2136 ;;      Params:         0       5       0       0       0       0       0       0       0       0       0       0       
      +0       0       0       0
  2137 ;;      Locals:         0       0       0       0       0       0       0       0       0       0       0       0       
      +0       0       0       0
  2138 ;;      Temps:          0       0       0       0       0       0       0       0       0       0       0       0       
      +0       0       0       0
  2139 ;;      Totals:         0       5       0       0       0       0       0       0       0       0       0       0       
      +0       0       0       0
  2140 ;;Total ram usage:        5 bytes
  2141 ;; Hardware stack levels used:    1
  2142 ;; Hardware stack levels required when called:    5
  2143 ;; This function calls:
  2144 ;;		Nothing
  2145 ;; This function is called by:
  2146 ;;		_main
  2147 ;; This function uses a non-reentrant model
  2148 ;;
  2149                           
  2150                           	psect	text6
  2151  002338                     __ptext6:
  2152                           	opt stack 0
  2153  002338                     _ringbuf_init:
  2154                           	opt stack 25
  2155                           
  2156                           ;My_header\My_ringbuf.h: 23: rb->buf = internal_buf;
  2157                           
  2158                           ; BSR set to: 0
  2159                           ;incstack = 0
  2160  002338  C0A4  FFD9         	movff	ringbuf_init@rb,fsr2l
  2161  00233C  C0A5  FFDA         	movff	ringbuf_init@rb+1,fsr2h
  2162  002340  0100               	movlb	0	; () banked
  2163  002342  C0A6  FFDE         	movff	ringbuf_init@internal_buf,postinc2
  2164  002346  0100               	movlb	0	; () banked
  2165  002348  C0A7  FFDD         	movff	ringbuf_init@internal_buf+1,postdec2
  2166                           
  2167                           ; BSR set to: 0
  2168                           ;My_header\My_ringbuf.h: 24: rb->size = bufsize;
  2169  00234C  0100               	movlb	0	; () banked
  2170  00234E  EE20 F002          	lfsr	2,2
  2171  002352  0100               	movlb	0	; () banked
  2172  002354  51A4               	movf	ringbuf_init@rb& (0+255),w,b
  2173  002356  26D9               	addwf	fsr2l,f,c
  2174  002358  0100               	movlb	0	; () banked
  2175  00235A  51A5               	movf	(ringbuf_init@rb+1)& (0+255),w,b
  2176  00235C  22DA               	addwfc	fsr2h,f,c
  2177  00235E  0100               	movlb	0	; () banked
  2178  002360  C0A8  FFDF         	movff	ringbuf_init@bufsize,indf2
  2179                           
  2180                           ; BSR set to: 0
  2181                           ;My_header\My_ringbuf.h: 25: rb->head = 0;
  2182  002364  0100               	movlb	0	; () banked
  2183  002366  EE20 F003          	lfsr	2,3
  2184  00236A  0100               	movlb	0	; () banked
  2185  00236C  51A4               	movf	ringbuf_init@rb& (0+255),w,b
  2186  00236E  26D9               	addwf	fsr2l,f,c
  2187  002370  0100               	movlb	0	; () banked
  2188  002372  51A5               	movf	(ringbuf_init@rb+1)& (0+255),w,b
  2189  002374  22DA               	addwfc	fsr2h,f,c
  2190  002376  0E00               	movlw	0
  2191  002378  6EDF               	movwf	indf2,c
  2192                           
  2193                           ; BSR set to: 0
  2194                           ;My_header\My_ringbuf.h: 26: rb->tail = 0;
  2195  00237A  0100               	movlb	0	; () banked
  2196  00237C  EE20 F004          	lfsr	2,4
  2197  002380  0100               	movlb	0	; () banked
  2198  002382  51A4               	movf	ringbuf_init@rb& (0+255),w,b
  2199  002384  26D9               	addwf	fsr2l,f,c
  2200  002386  0100               	movlb	0	; () banked
  2201  002388  51A5               	movf	(ringbuf_init@rb+1)& (0+255),w,b
  2202  00238A  22DA               	addwfc	fsr2h,f,c
  2203  00238C  0E00               	movlw	0
  2204  00238E  6EDF               	movwf	indf2,c
  2205                           
  2206                           ; BSR set to: 0
  2207  002390  0012               	return	
  2208  002392                     __end_of_ringbuf_init:
  2209                           	opt stack 0
  2210                           tblptru	equ	0xFF8
  2211                           tblptrh	equ	0xFF7
  2212                           tblptrl	equ	0xFF6
  2213                           tablat	equ	0xFF5
  2214                           prodh	equ	0xFF4
  2215                           prodl	equ	0xFF3
  2216                           intcon	equ	0xFF2
  2217                           intcon2	equ	0xFF1
  2218                           postinc0	equ	0xFEE
  2219                           wreg	equ	0xFE8
  2220                           postdec1	equ	0xFE5
  2221                           fsr1l	equ	0xFE1
  2222                           indf2	equ	0xFDF
  2223                           postinc2	equ	0xFDE
  2224                           postdec2	equ	0xFDD
  2225                           fsr2h	equ	0xFDA
  2226                           fsr2l	equ	0xFD9
  2227                           status	equ	0xFD8
  2228                           
  2229 ;; *************** function _display *****************
  2230 ;; Defined at:
  2231 ;;		line 178 in file "PIC18F27J53-ChargeStation6-01.c"
  2232 ;; Parameters:    Size  Location     Type
  2233 ;;		None
  2234 ;; Auto vars:     Size  Location     Type
  2235 ;;		None
  2236 ;; Return value:  Size  Location     Type
  2237 ;;		None               void
  2238 ;; Registers used:
  2239 ;;		wreg, fsr0l, fsr0h, fsr2l, fsr2h, status,2, status,0, tblptrl, tblptrh, tblptru, prodl, prodh, cstack
  2240 ;; Tracked objects:
  2241 ;;		On entry : 0/0
  2242 ;;		On exit  : 0/0
  2243 ;;		Unchanged: 0/0
  2244 ;; Data sizes:     COMRAM   BANK0   BANK1   BANK2   BANK3   BANK4   BANK5   BANK6   BANK7   BANK8   BANK9  BANK10  BANK1
      +1  BANK12  BANK13  BANK14
  2245 ;;      Params:         0       0       0       0       0       0       0       0       0       0       0       0       
      +0       0       0       0
  2246 ;;      Locals:         0       0       0       0       0       0       0       0       0       0       0       0       
      +0       0       0       0
  2247 ;;      Temps:          0       4       0       0       0       0       0       0       0       0       0       0       
      +0       0       0       0
  2248 ;;      Totals:         0       4       0       0       0       0       0       0       0       0       0       0       
      +0       0       0       0
  2249 ;;Total ram usage:        4 bytes
  2250 ;; Hardware stack levels used:    1
  2251 ;; Hardware stack levels required when called:    9
  2252 ;; This function calls:
  2253 ;;		_I2C_LCD_Clear
  2254 ;;		_I2C_LCD_Putc
  2255 ;;		_I2C_LCD_Puts
  2256 ;;		_I2C_LCD_SetCursor
  2257 ;;		___lldiv
  2258 ;;		___llmod
  2259 ;;		___lwdiv
  2260 ;;		___lwmod
  2261 ;; This function is called by:
  2262 ;;		_main
  2263 ;; This function uses a non-reentrant model
  2264 ;;
  2265                           
  2266                           	psect	text7
  2267  000FBA                     __ptext7:
  2268                           	opt stack 0
  2269  000FBA                     _display:
  2270                           	opt stack 21
  2271                           
  2272                           ;PIC18F27J53-ChargeStation6-01.c: 179: I2C_LCD_Clear();
  2273                           
  2274                           ; BSR set to: 0
  2275                           ;incstack = 0
  2276  000FBA  EC5C  F014         	call	_I2C_LCD_Clear	;wreg free
  2277                           
  2278                           ;PIC18F27J53-ChargeStation6-01.c: 180: I2C_LCD_SetCursor(0, 0);
  2279  000FBE  0E00               	movlw	0
  2280  000FC0  0100               	movlb	0	; () banked
  2281  000FC2  6FAA               	movwf	I2C_LCD_SetCursor@row& (0+255),b
  2282  000FC4  0E00               	movlw	0
  2283  000FC6  ECB6  F013         	call	_I2C_LCD_SetCursor
  2284                           
  2285                           ;PIC18F27J53-ChargeStation6-01.c: 181: switch (print_port) {
  2286  000FCA  D057               	goto	l4506
  2287  000FCC                     l4486:
  2288                           
  2289                           ;PIC18F27J53-ChargeStation6-01.c: 183: if (auto_cut_ON[print_port]) I2C_LCD_Puts("Right"
      +                          );
  2290  000FCC  503D               	movf	_print_port,w,c
  2291  000FCE  0D01               	mullw	1
  2292  000FD0  0E2E               	movlw	low _auto_cut_ON
  2293  000FD2  24F3               	addwf	prodl,w,c
  2294  000FD4  6ED9               	movwf	fsr2l,c
  2295  000FD6  0E00               	movlw	high _auto_cut_ON
  2296  000FD8  20F4               	addwfc	prodh,w,c
  2297  000FDA  6EDA               	movwf	fsr2h,c
  2298  000FDC  50DF               	movf	indf2,w,c
  2299  000FDE  B4D8               	btfsc	status,2,c
  2300  000FE0  D009               	goto	l4490
  2301  000FE2  0E0F               	movlw	high STR_16
  2302  000FE4  0100               	movlb	0	; () banked
  2303  000FE6  6FA9               	movwf	(I2C_LCD_Puts@s+1)& (0+255),b
  2304  000FE8  0E7E               	movlw	low STR_16
  2305  000FEA  0100               	movlb	0	; () banked
  2306  000FEC  6FA8               	movwf	I2C_LCD_Puts@s& (0+255),b
  2307  000FEE  EC89  F00F         	call	_I2C_LCD_Puts	;wreg free
  2308  000FF2  D04D               	goto	l4508
  2309  000FF4                     l4490:
  2310                           
  2311                           ;PIC18F27J53-ChargeStation6-01.c: 184: else I2C_LCD_Puts("RIGHT");
  2312  000FF4  0E0F               	movlw	high STR_17
  2313  000FF6  0100               	movlb	0	; () banked
  2314  000FF8  6FA9               	movwf	(I2C_LCD_Puts@s+1)& (0+255),b
  2315  000FFA  0E78               	movlw	low STR_17
  2316  000FFC  0100               	movlb	0	; () banked
  2317  000FFE  6FA8               	movwf	I2C_LCD_Puts@s& (0+255),b
  2318  001000  EC89  F00F         	call	_I2C_LCD_Puts	;wreg free
  2319  001004  D044               	goto	l4508
  2320  001006                     l4492:
  2321                           
  2322                           ;PIC18F27J53-ChargeStation6-01.c: 187: if (auto_cut_ON[print_port]) I2C_LCD_Puts("Center
      +                          ");
  2323  001006  503D               	movf	_print_port,w,c
  2324  001008  0D01               	mullw	1
  2325  00100A  0E2E               	movlw	low _auto_cut_ON
  2326  00100C  24F3               	addwf	prodl,w,c
  2327  00100E  6ED9               	movwf	fsr2l,c
  2328  001010  0E00               	movlw	high _auto_cut_ON
  2329  001012  20F4               	addwfc	prodh,w,c
  2330  001014  6EDA               	movwf	fsr2h,c
  2331  001016  50DF               	movf	indf2,w,c
  2332  001018  B4D8               	btfsc	status,2,c
  2333  00101A  D009               	goto	l4496
  2334  00101C  0E0F               	movlw	high STR_18
  2335  00101E  0100               	movlb	0	; () banked
  2336  001020  6FA9               	movwf	(I2C_LCD_Puts@s+1)& (0+255),b
  2337  001022  0E5C               	movlw	low STR_18
  2338  001024  0100               	movlb	0	; () banked
  2339  001026  6FA8               	movwf	I2C_LCD_Puts@s& (0+255),b
  2340  001028  EC89  F00F         	call	_I2C_LCD_Puts	;wreg free
  2341  00102C  D030               	goto	l4508
  2342  00102E                     l4496:
  2343                           
  2344                           ;PIC18F27J53-ChargeStation6-01.c: 188: else I2C_LCD_Puts("CENTER");
  2345  00102E  0E0F               	movlw	high STR_19
  2346  001030  0100               	movlb	0	; () banked
  2347  001032  6FA9               	movwf	(I2C_LCD_Puts@s+1)& (0+255),b
  2348  001034  0E4E               	movlw	low STR_19
  2349  001036  0100               	movlb	0	; () banked
  2350  001038  6FA8               	movwf	I2C_LCD_Puts@s& (0+255),b
  2351  00103A  EC89  F00F         	call	_I2C_LCD_Puts	;wreg free
  2352  00103E  D027               	goto	l4508
  2353  001040                     l4498:
  2354                           
  2355                           ;PIC18F27J53-ChargeStation6-01.c: 191: if (auto_cut_ON[print_port]) I2C_LCD_Puts("Left")
      +                          ;
  2356  001040  503D               	movf	_print_port,w,c
  2357  001042  0D01               	mullw	1
  2358  001044  0E2E               	movlw	low _auto_cut_ON
  2359  001046  24F3               	addwf	prodl,w,c
  2360  001048  6ED9               	movwf	fsr2l,c
  2361  00104A  0E00               	movlw	high _auto_cut_ON
  2362  00104C  20F4               	addwfc	prodh,w,c
  2363  00104E  6EDA               	movwf	fsr2h,c
  2364  001050  50DF               	movf	indf2,w,c
  2365  001052  B4D8               	btfsc	status,2,c
  2366  001054  D009               	goto	l4502
  2367  001056  0E0F               	movlw	high STR_20
  2368  001058  0100               	movlb	0	; () banked
  2369  00105A  6FA9               	movwf	(I2C_LCD_Puts@s+1)& (0+255),b
  2370  00105C  0E8E               	movlw	low STR_20
  2371  00105E  0100               	movlb	0	; () banked
  2372  001060  6FA8               	movwf	I2C_LCD_Puts@s& (0+255),b
  2373  001062  EC89  F00F         	call	_I2C_LCD_Puts	;wreg free
  2374  001066  D013               	goto	l4508
  2375  001068                     l4502:
  2376                           
  2377                           ;PIC18F27J53-ChargeStation6-01.c: 192: else I2C_LCD_Puts("LEFT");
  2378  001068  0E0F               	movlw	high STR_21
  2379  00106A  0100               	movlb	0	; () banked
  2380  00106C  6FA9               	movwf	(I2C_LCD_Puts@s+1)& (0+255),b
  2381  00106E  0E84               	movlw	low STR_21
  2382  001070  0100               	movlb	0	; () banked
  2383  001072  6FA8               	movwf	I2C_LCD_Puts@s& (0+255),b
  2384  001074  EC89  F00F         	call	_I2C_LCD_Puts	;wreg free
  2385  001078  D00A               	goto	l4508
  2386  00107A                     l4506:
  2387  00107A  503D               	movf	_print_port,w,c
  2388                           
  2389                           ; Switch size 1, requested type "space"
  2390                           ; Number of cases is 3, Range of values is 0 to 2
  2391                           ; switch strategies available:
  2392                           ; Name         Instructions Cycles
  2393                           ; simple_byte           10     6 (average)
  2394                           ;	Chosen strategy is simple_byte
  2395  00107C  0A00               	xorlw	0	; case 0
  2396  00107E  B4D8               	btfsc	status,2,c
  2397  001080  D7A5               	goto	l4486
  2398  001082  0A01               	xorlw	1	; case 1
  2399  001084  B4D8               	btfsc	status,2,c
  2400  001086  D7BF               	goto	l4492
  2401  001088  0A03               	xorlw	3	; case 2
  2402  00108A  B4D8               	btfsc	status,2,c
  2403  00108C  D7D9               	goto	l4498
  2404  00108E                     l4508:
  2405                           
  2406                           ;PIC18F27J53-ChargeStation6-01.c: 195: I2C_LCD_SetCursor(0, 1);
  2407  00108E  0E01               	movlw	1
  2408  001090  0100               	movlb	0	; () banked
  2409  001092  6FAA               	movwf	I2C_LCD_SetCursor@row& (0+255),b
  2410  001094  0E00               	movlw	0
  2411  001096  ECB6  F013         	call	_I2C_LCD_SetCursor
  2412                           
  2413                           ;PIC18F27J53-ChargeStation6-01.c: 196: switch (print_content) {
  2414  00109A  D217               	goto	l4534
  2415  00109C                     l4510:
  2416                           
  2417                           ;PIC18F27J53-ChargeStation6-01.c: 198: I2C_LCD_Putc((I[print_port] % 10000) / 1000 + '0'
      +                          );
  2418  00109C  0E27               	movlw	39
  2419  00109E  0100               	movlb	0	; () banked
  2420  0010A0  6FA7               	movwf	(___lwmod@divisor+1)& (0+255),b
  2421  0010A2  0E10               	movlw	16
  2422  0010A4  0100               	movlb	0	; () banked
  2423  0010A6  6FA6               	movwf	___lwmod@divisor& (0+255),b
  2424  0010A8  503D               	movf	_print_port,w,c
  2425  0010AA  0D02               	mullw	2
  2426  0010AC  0E28               	movlw	low _I
  2427  0010AE  24F3               	addwf	prodl,w,c
  2428  0010B0  6ED9               	movwf	fsr2l,c
  2429  0010B2  0E00               	movlw	high _I
  2430  0010B4  20F4               	addwfc	prodh,w,c
  2431  0010B6  6EDA               	movwf	fsr2h,c
  2432  0010B8  0100               	movlb	0	; () banked
  2433  0010BA  CFDE F0A4          	movff	postinc2,___lwmod@dividend
  2434  0010BE  0100               	movlb	0	; () banked
  2435  0010C0  CFDD F0A5          	movff	postdec2,___lwmod@dividend+1
  2436  0010C4  EC3E  F011         	call	___lwmod	;wreg free
  2437  0010C8  0100               	movlb	0	; () banked
  2438  0010CA  C0A4  F0A9         	movff	?___lwmod,___lwdiv@dividend
  2439  0010CE  0100               	movlb	0	; () banked
  2440  0010D0  C0A5  F0AA         	movff	?___lwmod+1,___lwdiv@dividend+1
  2441  0010D4  0E03               	movlw	3
  2442  0010D6  0100               	movlb	0	; () banked
  2443  0010D8  6FAC               	movwf	(___lwdiv@divisor+1)& (0+255),b
  2444  0010DA  0EE8               	movlw	232
  2445  0010DC  0100               	movlb	0	; () banked
  2446  0010DE  6FAB               	movwf	___lwdiv@divisor& (0+255),b
  2447  0010E0  EC9C  F010         	call	___lwdiv	;wreg free
  2448  0010E4  0100               	movlb	0	; () banked
  2449  0010E6  51A9               	movf	?___lwdiv& (0+255),w,b
  2450  0010E8  0F30               	addlw	48
  2451  0010EA  EC69  F013         	call	_I2C_LCD_Putc
  2452                           
  2453                           ;PIC18F27J53-ChargeStation6-01.c: 199: I2C_LCD_Putc('.');
  2454  0010EE  0E2E               	movlw	46
  2455  0010F0  EC69  F013         	call	_I2C_LCD_Putc
  2456                           
  2457                           ;PIC18F27J53-ChargeStation6-01.c: 200: I2C_LCD_Putc((I[print_port] % 1000) / 100 + '0');
  2458  0010F4  0E03               	movlw	3
  2459  0010F6  0100               	movlb	0	; () banked
  2460  0010F8  6FA7               	movwf	(___lwmod@divisor+1)& (0+255),b
  2461  0010FA  0EE8               	movlw	232
  2462  0010FC  0100               	movlb	0	; () banked
  2463  0010FE  6FA6               	movwf	___lwmod@divisor& (0+255),b
  2464  001100  503D               	movf	_print_port,w,c
  2465  001102  0D02               	mullw	2
  2466  001104  0E28               	movlw	low _I
  2467  001106  24F3               	addwf	prodl,w,c
  2468  001108  6ED9               	movwf	fsr2l,c
  2469  00110A  0E00               	movlw	high _I
  2470  00110C  20F4               	addwfc	prodh,w,c
  2471  00110E  6EDA               	movwf	fsr2h,c
  2472  001110  0100               	movlb	0	; () banked
  2473  001112  CFDE F0A4          	movff	postinc2,___lwmod@dividend
  2474  001116  0100               	movlb	0	; () banked
  2475  001118  CFDD F0A5          	movff	postdec2,___lwmod@dividend+1
  2476  00111C  EC3E  F011         	call	___lwmod	;wreg free
  2477  001120  0100               	movlb	0	; () banked
  2478  001122  C0A4  F0A9         	movff	?___lwmod,___lwdiv@dividend
  2479  001126  0100               	movlb	0	; () banked
  2480  001128  C0A5  F0AA         	movff	?___lwmod+1,___lwdiv@dividend+1
  2481  00112C  0E00               	movlw	0
  2482  00112E  0100               	movlb	0	; () banked
  2483  001130  6FAC               	movwf	(___lwdiv@divisor+1)& (0+255),b
  2484  001132  0E64               	movlw	100
  2485  001134  0100               	movlb	0	; () banked
  2486  001136  6FAB               	movwf	___lwdiv@divisor& (0+255),b
  2487  001138  EC9C  F010         	call	___lwdiv	;wreg free
  2488  00113C  0100               	movlb	0	; () banked
  2489  00113E  51A9               	movf	?___lwdiv& (0+255),w,b
  2490  001140  0F30               	addlw	48
  2491  001142  EC69  F013         	call	_I2C_LCD_Putc
  2492                           
  2493                           ;PIC18F27J53-ChargeStation6-01.c: 201: I2C_LCD_Putc((I[print_port] % 100) / 10 + '0');
  2494  001146  0E00               	movlw	0
  2495  001148  0100               	movlb	0	; () banked
  2496  00114A  6FA7               	movwf	(___lwmod@divisor+1)& (0+255),b
  2497  00114C  0E64               	movlw	100
  2498  00114E  0100               	movlb	0	; () banked
  2499  001150  6FA6               	movwf	___lwmod@divisor& (0+255),b
  2500  001152  503D               	movf	_print_port,w,c
  2501  001154  0D02               	mullw	2
  2502  001156  0E28               	movlw	low _I
  2503  001158  24F3               	addwf	prodl,w,c
  2504  00115A  6ED9               	movwf	fsr2l,c
  2505  00115C  0E00               	movlw	high _I
  2506  00115E  20F4               	addwfc	prodh,w,c
  2507  001160  6EDA               	movwf	fsr2h,c
  2508  001162  0100               	movlb	0	; () banked
  2509  001164  CFDE F0A4          	movff	postinc2,___lwmod@dividend
  2510  001168  0100               	movlb	0	; () banked
  2511  00116A  CFDD F0A5          	movff	postdec2,___lwmod@dividend+1
  2512  00116E  EC3E  F011         	call	___lwmod	;wreg free
  2513  001172  0100               	movlb	0	; () banked
  2514  001174  C0A4  F0A9         	movff	?___lwmod,___lwdiv@dividend
  2515  001178  0100               	movlb	0	; () banked
  2516  00117A  C0A5  F0AA         	movff	?___lwmod+1,___lwdiv@dividend+1
  2517  00117E  0E00               	movlw	0
  2518  001180  0100               	movlb	0	; () banked
  2519  001182  6FAC               	movwf	(___lwdiv@divisor+1)& (0+255),b
  2520  001184  0E0A               	movlw	10
  2521  001186  0100               	movlb	0	; () banked
  2522  001188  6FAB               	movwf	___lwdiv@divisor& (0+255),b
  2523  00118A  EC9C  F010         	call	___lwdiv	;wreg free
  2524  00118E  0100               	movlb	0	; () banked
  2525  001190  51A9               	movf	?___lwdiv& (0+255),w,b
  2526  001192  0F30               	addlw	48
  2527  001194  EC69  F013         	call	_I2C_LCD_Putc
  2528                           
  2529                           ;PIC18F27J53-ChargeStation6-01.c: 202: I2C_LCD_Putc((I[print_port] % 10) / 1 + '0');
  2530  001198  503D               	movf	_print_port,w,c
  2531  00119A  0D02               	mullw	2
  2532  00119C  0E28               	movlw	low _I
  2533  00119E  24F3               	addwf	prodl,w,c
  2534  0011A0  6ED9               	movwf	fsr2l,c
  2535  0011A2  0E00               	movlw	high _I
  2536  0011A4  20F4               	addwfc	prodh,w,c
  2537  0011A6  6EDA               	movwf	fsr2h,c
  2538  0011A8  0100               	movlb	0	; () banked
  2539  0011AA  CFDE F0A4          	movff	postinc2,___lwmod@dividend
  2540  0011AE  0100               	movlb	0	; () banked
  2541  0011B0  CFDD F0A5          	movff	postdec2,___lwmod@dividend+1
  2542  0011B4  0E00               	movlw	0
  2543  0011B6  0100               	movlb	0	; () banked
  2544  0011B8  6FA7               	movwf	(___lwmod@divisor+1)& (0+255),b
  2545  0011BA  0E0A               	movlw	10
  2546  0011BC  0100               	movlb	0	; () banked
  2547  0011BE  6FA6               	movwf	___lwmod@divisor& (0+255),b
  2548  0011C0  EC3E  F011         	call	___lwmod	;wreg free
  2549  0011C4  0100               	movlb	0	; () banked
  2550  0011C6  51A4               	movf	?___lwmod& (0+255),w,b
  2551  0011C8  0F30               	addlw	48
  2552  0011CA  EC69  F013         	call	_I2C_LCD_Putc
  2553                           
  2554                           ;PIC18F27J53-ChargeStation6-01.c: 203: I2C_LCD_Putc('A');
  2555  0011CE  0E41               	movlw	65
  2556  0011D0  EC69  F013         	call	_I2C_LCD_Putc
  2557                           
  2558                           ;PIC18F27J53-ChargeStation6-01.c: 204: break;
  2559  0011D4  0012               	return	
  2560  0011D6                     l4520:
  2561                           
  2562                           ;PIC18F27J53-ChargeStation6-01.c: 206: I2C_LCD_Putc((S[print_port] % 100000) / 10000 + '
      +                          0');
  2563  0011D6  0EA0               	movlw	160
  2564  0011D8  0100               	movlb	0	; () banked
  2565  0011DA  6FA8               	movwf	___llmod@divisor& (0+255),b
  2566  0011DC  0E86               	movlw	134
  2567  0011DE  0100               	movlb	0	; () banked
  2568  0011E0  6FA9               	movwf	(___llmod@divisor+1)& (0+255),b
  2569  0011E2  0E01               	movlw	1
  2570  0011E4  0100               	movlb	0	; () banked
  2571  0011E6  6FAA               	movwf	(___llmod@divisor+2)& (0+255),b
  2572  0011E8  0E00               	movlw	0
  2573  0011EA  0100               	movlb	0	; () banked
  2574  0011EC  6FAB               	movwf	(___llmod@divisor+3)& (0+255),b
  2575  0011EE  503D               	movf	_print_port,w,c
  2576  0011F0  0D04               	mullw	4
  2577  0011F2  0100               	movlb	0	; () banked
  2578  0011F4  0E60               	movlw	low _S
  2579  0011F6  24F3               	addwf	prodl,w,c
  2580  0011F8  6ED9               	movwf	fsr2l,c
  2581  0011FA  0100               	movlb	0	; () banked
  2582  0011FC  0E00               	movlw	high _S
  2583  0011FE  20F4               	addwfc	prodh,w,c
  2584  001200  6EDA               	movwf	fsr2h,c
  2585  001202  0100               	movlb	0	; () banked
  2586  001204  CFDE F0A4          	movff	postinc2,___llmod@dividend
  2587  001208  0100               	movlb	0	; () banked
  2588  00120A  CFDE F0A5          	movff	postinc2,___llmod@dividend+1
  2589  00120E  0100               	movlb	0	; () banked
  2590  001210  CFDE F0A6          	movff	postinc2,___llmod@dividend+2
  2591  001214  0100               	movlb	0	; () banked
  2592  001216  CFDE F0A7          	movff	postinc2,___llmod@dividend+3
  2593  00121A  ECE5  F00E         	call	___llmod	;wreg free
  2594  00121E  C0A4  F0AD         	movff	?___llmod,___lldiv@dividend
  2595  001222  C0A5  F0AE         	movff	?___llmod+1,___lldiv@dividend+1
  2596  001226  C0A6  F0AF         	movff	?___llmod+2,___lldiv@dividend+2
  2597  00122A  C0A7  F0B0         	movff	?___llmod+3,___lldiv@dividend+3
  2598  00122E  0E10               	movlw	16
  2599  001230  0100               	movlb	0	; () banked
  2600  001232  6FB1               	movwf	___lldiv@divisor& (0+255),b
  2601  001234  0E27               	movlw	39
  2602  001236  0100               	movlb	0	; () banked
  2603  001238  6FB2               	movwf	(___lldiv@divisor+1)& (0+255),b
  2604  00123A  0E00               	movlw	0
  2605  00123C  0100               	movlb	0	; () banked
  2606  00123E  6FB3               	movwf	(___lldiv@divisor+2)& (0+255),b
  2607  001240  0E00               	movlw	0
  2608  001242  0100               	movlb	0	; () banked
  2609  001244  6FB4               	movwf	(___lldiv@divisor+3)& (0+255),b
  2610  001246  EC1F  F00E         	call	___lldiv	;wreg free
  2611  00124A  C0AD  F0BA         	movff	?___lldiv,??_display
  2612  00124E  C0AE  F0BB         	movff	?___lldiv+1,??_display+1
  2613  001252  C0AF  F0BC         	movff	?___lldiv+2,??_display+2
  2614  001256  C0B0  F0BD         	movff	?___lldiv+3,??_display+3
  2615  00125A  0100               	movlb	0	; () banked
  2616  00125C  51BA               	movf	??_display& (0+255),w,b
  2617  00125E  0F30               	addlw	48
  2618  001260  EC69  F013         	call	_I2C_LCD_Putc
  2619                           
  2620                           ;PIC18F27J53-ChargeStation6-01.c: 207: I2C_LCD_Putc((S[print_port] % 10000) / 1000 + '0'
      +                          );
  2621  001264  0E10               	movlw	16
  2622  001266  0100               	movlb	0	; () banked
  2623  001268  6FA8               	movwf	___llmod@divisor& (0+255),b
  2624  00126A  0E27               	movlw	39
  2625  00126C  0100               	movlb	0	; () banked
  2626  00126E  6FA9               	movwf	(___llmod@divisor+1)& (0+255),b
  2627  001270  0E00               	movlw	0
  2628  001272  0100               	movlb	0	; () banked
  2629  001274  6FAA               	movwf	(___llmod@divisor+2)& (0+255),b
  2630  001276  0E00               	movlw	0
  2631  001278  0100               	movlb	0	; () banked
  2632  00127A  6FAB               	movwf	(___llmod@divisor+3)& (0+255),b
  2633  00127C  503D               	movf	_print_port,w,c
  2634  00127E  0D04               	mullw	4
  2635  001280  0100               	movlb	0	; () banked
  2636  001282  0E60               	movlw	low _S
  2637  001284  24F3               	addwf	prodl,w,c
  2638  001286  6ED9               	movwf	fsr2l,c
  2639  001288  0100               	movlb	0	; () banked
  2640  00128A  0E00               	movlw	high _S
  2641  00128C  20F4               	addwfc	prodh,w,c
  2642  00128E  6EDA               	movwf	fsr2h,c
  2643  001290  0100               	movlb	0	; () banked
  2644  001292  CFDE F0A4          	movff	postinc2,___llmod@dividend
  2645  001296  0100               	movlb	0	; () banked
  2646  001298  CFDE F0A5          	movff	postinc2,___llmod@dividend+1
  2647  00129C  0100               	movlb	0	; () banked
  2648  00129E  CFDE F0A6          	movff	postinc2,___llmod@dividend+2
  2649  0012A2  0100               	movlb	0	; () banked
  2650  0012A4  CFDE F0A7          	movff	postinc2,___llmod@dividend+3
  2651  0012A8  ECE5  F00E         	call	___llmod	;wreg free
  2652  0012AC  C0A4  F0AD         	movff	?___llmod,___lldiv@dividend
  2653  0012B0  C0A5  F0AE         	movff	?___llmod+1,___lldiv@dividend+1
  2654  0012B4  C0A6  F0AF         	movff	?___llmod+2,___lldiv@dividend+2
  2655  0012B8  C0A7  F0B0         	movff	?___llmod+3,___lldiv@dividend+3
  2656  0012BC  0EE8               	movlw	232
  2657  0012BE  0100               	movlb	0	; () banked
  2658  0012C0  6FB1               	movwf	___lldiv@divisor& (0+255),b
  2659  0012C2  0E03               	movlw	3
  2660  0012C4  0100               	movlb	0	; () banked
  2661  0012C6  6FB2               	movwf	(___lldiv@divisor+1)& (0+255),b
  2662  0012C8  0E00               	movlw	0
  2663  0012CA  0100               	movlb	0	; () banked
  2664  0012CC  6FB3               	movwf	(___lldiv@divisor+2)& (0+255),b
  2665  0012CE  0E00               	movlw	0
  2666  0012D0  0100               	movlb	0	; () banked
  2667  0012D2  6FB4               	movwf	(___lldiv@divisor+3)& (0+255),b
  2668  0012D4  EC1F  F00E         	call	___lldiv	;wreg free
  2669  0012D8  C0AD  F0BA         	movff	?___lldiv,??_display
  2670  0012DC  C0AE  F0BB         	movff	?___lldiv+1,??_display+1
  2671  0012E0  C0AF  F0BC         	movff	?___lldiv+2,??_display+2
  2672  0012E4  C0B0  F0BD         	movff	?___lldiv+3,??_display+3
  2673  0012E8  0100               	movlb	0	; () banked
  2674  0012EA  51BA               	movf	??_display& (0+255),w,b
  2675  0012EC  0F30               	addlw	48
  2676  0012EE  EC69  F013         	call	_I2C_LCD_Putc
  2677                           
  2678                           ;PIC18F27J53-ChargeStation6-01.c: 208: I2C_LCD_Putc((S[print_port] % 1000) / 100 + '0');
  2679  0012F2  0EE8               	movlw	232
  2680  0012F4  0100               	movlb	0	; () banked
  2681  0012F6  6FA8               	movwf	___llmod@divisor& (0+255),b
  2682  0012F8  0E03               	movlw	3
  2683  0012FA  0100               	movlb	0	; () banked
  2684  0012FC  6FA9               	movwf	(___llmod@divisor+1)& (0+255),b
  2685  0012FE  0E00               	movlw	0
  2686  001300  0100               	movlb	0	; () banked
  2687  001302  6FAA               	movwf	(___llmod@divisor+2)& (0+255),b
  2688  001304  0E00               	movlw	0
  2689  001306  0100               	movlb	0	; () banked
  2690  001308  6FAB               	movwf	(___llmod@divisor+3)& (0+255),b
  2691  00130A  503D               	movf	_print_port,w,c
  2692  00130C  0D04               	mullw	4
  2693  00130E  0100               	movlb	0	; () banked
  2694  001310  0E60               	movlw	low _S
  2695  001312  24F3               	addwf	prodl,w,c
  2696  001314  6ED9               	movwf	fsr2l,c
  2697  001316  0100               	movlb	0	; () banked
  2698  001318  0E00               	movlw	high _S
  2699  00131A  20F4               	addwfc	prodh,w,c
  2700  00131C  6EDA               	movwf	fsr2h,c
  2701  00131E  0100               	movlb	0	; () banked
  2702  001320  CFDE F0A4          	movff	postinc2,___llmod@dividend
  2703  001324  0100               	movlb	0	; () banked
  2704  001326  CFDE F0A5          	movff	postinc2,___llmod@dividend+1
  2705  00132A  0100               	movlb	0	; () banked
  2706  00132C  CFDE F0A6          	movff	postinc2,___llmod@dividend+2
  2707  001330  0100               	movlb	0	; () banked
  2708  001332  CFDE F0A7          	movff	postinc2,___llmod@dividend+3
  2709  001336  ECE5  F00E         	call	___llmod	;wreg free
  2710  00133A  C0A4  F0AD         	movff	?___llmod,___lldiv@dividend
  2711  00133E  C0A5  F0AE         	movff	?___llmod+1,___lldiv@dividend+1
  2712  001342  C0A6  F0AF         	movff	?___llmod+2,___lldiv@dividend+2
  2713  001346  C0A7  F0B0         	movff	?___llmod+3,___lldiv@dividend+3
  2714  00134A  0E64               	movlw	100
  2715  00134C  0100               	movlb	0	; () banked
  2716  00134E  6FB1               	movwf	___lldiv@divisor& (0+255),b
  2717  001350  0E00               	movlw	0
  2718  001352  0100               	movlb	0	; () banked
  2719  001354  6FB2               	movwf	(___lldiv@divisor+1)& (0+255),b
  2720  001356  0E00               	movlw	0
  2721  001358  0100               	movlb	0	; () banked
  2722  00135A  6FB3               	movwf	(___lldiv@divisor+2)& (0+255),b
  2723  00135C  0E00               	movlw	0
  2724  00135E  0100               	movlb	0	; () banked
  2725  001360  6FB4               	movwf	(___lldiv@divisor+3)& (0+255),b
  2726  001362  EC1F  F00E         	call	___lldiv	;wreg free
  2727  001366  C0AD  F0BA         	movff	?___lldiv,??_display
  2728  00136A  C0AE  F0BB         	movff	?___lldiv+1,??_display+1
  2729  00136E  C0AF  F0BC         	movff	?___lldiv+2,??_display+2
  2730  001372  C0B0  F0BD         	movff	?___lldiv+3,??_display+3
  2731  001376  0100               	movlb	0	; () banked
  2732  001378  51BA               	movf	??_display& (0+255),w,b
  2733  00137A  0F30               	addlw	48
  2734  00137C  EC69  F013         	call	_I2C_LCD_Putc
  2735                           
  2736                           ;PIC18F27J53-ChargeStation6-01.c: 209: I2C_LCD_Putc((S[print_port] % 100) / 10 + '0');
  2737  001380  0E64               	movlw	100
  2738  001382  0100               	movlb	0	; () banked
  2739  001384  6FA8               	movwf	___llmod@divisor& (0+255),b
  2740  001386  0E00               	movlw	0
  2741  001388  0100               	movlb	0	; () banked
  2742  00138A  6FA9               	movwf	(___llmod@divisor+1)& (0+255),b
  2743  00138C  0E00               	movlw	0
  2744  00138E  0100               	movlb	0	; () banked
  2745  001390  6FAA               	movwf	(___llmod@divisor+2)& (0+255),b
  2746  001392  0E00               	movlw	0
  2747  001394  0100               	movlb	0	; () banked
  2748  001396  6FAB               	movwf	(___llmod@divisor+3)& (0+255),b
  2749  001398  503D               	movf	_print_port,w,c
  2750  00139A  0D04               	mullw	4
  2751  00139C  0100               	movlb	0	; () banked
  2752  00139E  0E60               	movlw	low _S
  2753  0013A0  24F3               	addwf	prodl,w,c
  2754  0013A2  6ED9               	movwf	fsr2l,c
  2755  0013A4  0100               	movlb	0	; () banked
  2756  0013A6  0E00               	movlw	high _S
  2757  0013A8  20F4               	addwfc	prodh,w,c
  2758  0013AA  6EDA               	movwf	fsr2h,c
  2759  0013AC  0100               	movlb	0	; () banked
  2760  0013AE  CFDE F0A4          	movff	postinc2,___llmod@dividend
  2761  0013B2  0100               	movlb	0	; () banked
  2762  0013B4  CFDE F0A5          	movff	postinc2,___llmod@dividend+1
  2763  0013B8  0100               	movlb	0	; () banked
  2764  0013BA  CFDE F0A6          	movff	postinc2,___llmod@dividend+2
  2765  0013BE  0100               	movlb	0	; () banked
  2766  0013C0  CFDE F0A7          	movff	postinc2,___llmod@dividend+3
  2767  0013C4  ECE5  F00E         	call	___llmod	;wreg free
  2768  0013C8  C0A4  F0AD         	movff	?___llmod,___lldiv@dividend
  2769  0013CC  C0A5  F0AE         	movff	?___llmod+1,___lldiv@dividend+1
  2770  0013D0  C0A6  F0AF         	movff	?___llmod+2,___lldiv@dividend+2
  2771  0013D4  C0A7  F0B0         	movff	?___llmod+3,___lldiv@dividend+3
  2772  0013D8  0E0A               	movlw	10
  2773  0013DA  0100               	movlb	0	; () banked
  2774  0013DC  6FB1               	movwf	___lldiv@divisor& (0+255),b
  2775  0013DE  0E00               	movlw	0
  2776  0013E0  0100               	movlb	0	; () banked
  2777  0013E2  6FB2               	movwf	(___lldiv@divisor+1)& (0+255),b
  2778  0013E4  0E00               	movlw	0
  2779  0013E6  0100               	movlb	0	; () banked
  2780  0013E8  6FB3               	movwf	(___lldiv@divisor+2)& (0+255),b
  2781  0013EA  0E00               	movlw	0
  2782  0013EC  0100               	movlb	0	; () banked
  2783  0013EE  6FB4               	movwf	(___lldiv@divisor+3)& (0+255),b
  2784  0013F0  EC1F  F00E         	call	___lldiv	;wreg free
  2785  0013F4  C0AD  F0BA         	movff	?___lldiv,??_display
  2786  0013F8  C0AE  F0BB         	movff	?___lldiv+1,??_display+1
  2787  0013FC  C0AF  F0BC         	movff	?___lldiv+2,??_display+2
  2788  001400  C0B0  F0BD         	movff	?___lldiv+3,??_display+3
  2789  001404  0100               	movlb	0	; () banked
  2790  001406  51BA               	movf	??_display& (0+255),w,b
  2791  001408  0F30               	addlw	48
  2792  00140A  EC69  F013         	call	_I2C_LCD_Putc
  2793                           
  2794                           ;PIC18F27J53-ChargeStation6-01.c: 210: I2C_LCD_Putc((S[print_port] % 10) / 1 + '0');
  2795  00140E  503D               	movf	_print_port,w,c
  2796  001410  0D04               	mullw	4
  2797  001412  0100               	movlb	0	; () banked
  2798  001414  0E60               	movlw	low _S
  2799  001416  24F3               	addwf	prodl,w,c
  2800  001418  6ED9               	movwf	fsr2l,c
  2801  00141A  0100               	movlb	0	; () banked
  2802  00141C  0E00               	movlw	high _S
  2803  00141E  20F4               	addwfc	prodh,w,c
  2804  001420  6EDA               	movwf	fsr2h,c
  2805  001422  0100               	movlb	0	; () banked
  2806  001424  CFDE F0A4          	movff	postinc2,___llmod@dividend
  2807  001428  0100               	movlb	0	; () banked
  2808  00142A  CFDE F0A5          	movff	postinc2,___llmod@dividend+1
  2809  00142E  0100               	movlb	0	; () banked
  2810  001430  CFDE F0A6          	movff	postinc2,___llmod@dividend+2
  2811  001434  0100               	movlb	0	; () banked
  2812  001436  CFDE F0A7          	movff	postinc2,___llmod@dividend+3
  2813  00143A  0E0A               	movlw	10
  2814  00143C  0100               	movlb	0	; () banked
  2815  00143E  6FA8               	movwf	___llmod@divisor& (0+255),b
  2816  001440  0E00               	movlw	0
  2817  001442  0100               	movlb	0	; () banked
  2818  001444  6FA9               	movwf	(___llmod@divisor+1)& (0+255),b
  2819  001446  0E00               	movlw	0
  2820  001448  0100               	movlb	0	; () banked
  2821  00144A  6FAA               	movwf	(___llmod@divisor+2)& (0+255),b
  2822  00144C  0E00               	movlw	0
  2823  00144E  0100               	movlb	0	; () banked
  2824  001450  6FAB               	movwf	(___llmod@divisor+3)& (0+255),b
  2825  001452  ECE5  F00E         	call	___llmod	;wreg free
  2826  001456  C0A4  F0BA         	movff	?___llmod,??_display
  2827  00145A  C0A5  F0BB         	movff	?___llmod+1,??_display+1
  2828  00145E  C0A6  F0BC         	movff	?___llmod+2,??_display+2
  2829  001462  C0A7  F0BD         	movff	?___llmod+3,??_display+3
  2830  001466  0100               	movlb	0	; () banked
  2831  001468  51BA               	movf	??_display& (0+255),w,b
  2832  00146A  0F30               	addlw	48
  2833  00146C  EC69  F013         	call	_I2C_LCD_Putc
  2834                           
  2835                           ;PIC18F27J53-ChargeStation6-01.c: 211: I2C_LCD_Puts("mAh");
  2836  001470  0E0F               	movlw	high STR_22
  2837  001472  0100               	movlb	0	; () banked
  2838  001474  6FA9               	movwf	(I2C_LCD_Puts@s+1)& (0+255),b
  2839  001476  0EAF               	movlw	low STR_22
  2840  001478  0100               	movlb	0	; () banked
  2841  00147A  6FA8               	movwf	I2C_LCD_Puts@s& (0+255),b
  2842  00147C  EC89  F00F         	call	_I2C_LCD_Puts	;wreg free
  2843                           
  2844                           ;PIC18F27J53-ChargeStation6-01.c: 212: break;
  2845  001480  0012               	return	
  2846  001482                     l4524:
  2847                           
  2848                           ;PIC18F27J53-ChargeStation6-01.c: 214: I2C_LCD_Puts("Reset?");
  2849  001482  0E0F               	movlw	high STR_23
  2850  001484  0100               	movlb	0	; () banked
  2851  001486  6FA9               	movwf	(I2C_LCD_Puts@s+1)& (0+255),b
  2852  001488  0E47               	movlw	low STR_23
  2853  00148A  0100               	movlb	0	; () banked
  2854  00148C  6FA8               	movwf	I2C_LCD_Puts@s& (0+255),b
  2855  00148E  EC89  F00F         	call	_I2C_LCD_Puts	;wreg free
  2856                           
  2857                           ;PIC18F27J53-ChargeStation6-01.c: 215: break;
  2858  001492  0012               	return	
  2859  001494                     l4526:
  2860                           
  2861                           ;PIC18F27J53-ChargeStation6-01.c: 217: I2C_LCD_Puts("Reseted");
  2862  001494  0E0F               	movlw	high STR_24
  2863  001496  0100               	movlb	0	; () banked
  2864  001498  6FA9               	movwf	(I2C_LCD_Puts@s+1)& (0+255),b
  2865  00149A  0E2F               	movlw	low STR_24
  2866  00149C  0100               	movlb	0	; () banked
  2867  00149E  6FA8               	movwf	I2C_LCD_Puts@s& (0+255),b
  2868  0014A0  EC89  F00F         	call	_I2C_LCD_Puts	;wreg free
  2869                           
  2870                           ;PIC18F27J53-ChargeStation6-01.c: 218: break;
  2871  0014A4  0012               	return	
  2872  0014A6                     l4528:
  2873                           
  2874                           ;PIC18F27J53-ChargeStation6-01.c: 220: I2C_LCD_Puts("AlwaysON");
  2875  0014A6  0E0F               	movlw	high STR_25
  2876  0014A8  0100               	movlb	0	; () banked
  2877  0014AA  6FA9               	movwf	(I2C_LCD_Puts@s+1)& (0+255),b
  2878  0014AC  0E0B               	movlw	low STR_25
  2879  0014AE  0100               	movlb	0	; () banked
  2880  0014B0  6FA8               	movwf	I2C_LCD_Puts@s& (0+255),b
  2881  0014B2  EC89  F00F         	call	_I2C_LCD_Puts	;wreg free
  2882                           
  2883                           ;PIC18F27J53-ChargeStation6-01.c: 221: break;
  2884  0014B6  0012               	return	
  2885  0014B8                     l4530:
  2886                           
  2887                           ;PIC18F27J53-ChargeStation6-01.c: 223: I2C_LCD_Puts("AutoStop");
  2888  0014B8  0E0F               	movlw	high STR_26
  2889  0014BA  0100               	movlb	0	; () banked
  2890  0014BC  6FA9               	movwf	(I2C_LCD_Puts@s+1)& (0+255),b
  2891  0014BE  0E14               	movlw	low STR_26
  2892  0014C0  0100               	movlb	0	; () banked
  2893  0014C2  6FA8               	movwf	I2C_LCD_Puts@s& (0+255),b
  2894  0014C4  EC89  F00F         	call	_I2C_LCD_Puts	;wreg free
  2895                           
  2896                           ;PIC18F27J53-ChargeStation6-01.c: 224: break;
  2897  0014C8  0012               	return	
  2898  0014CA                     l4534:
  2899  0014CA  503C               	movf	_print_content,w,c
  2900                           
  2901                           ; Switch size 1, requested type "space"
  2902                           ; Number of cases is 6, Range of values is 0 to 5
  2903                           ; switch strategies available:
  2904                           ; Name         Instructions Cycles
  2905                           ; simple_byte           19    10 (average)
  2906                           ;	Chosen strategy is simple_byte
  2907  0014CC  0A00               	xorlw	0	; case 0
  2908  0014CE  B4D8               	btfsc	status,2,c
  2909  0014D0  D5E5               	goto	l4510
  2910  0014D2  0A01               	xorlw	1	; case 1
  2911  0014D4  B4D8               	btfsc	status,2,c
  2912  0014D6  D67F               	goto	l4520
  2913  0014D8  0A03               	xorlw	3	; case 2
  2914  0014DA  B4D8               	btfsc	status,2,c
  2915  0014DC  D7D2               	goto	l4524
  2916  0014DE  0A01               	xorlw	1	; case 3
  2917  0014E0  B4D8               	btfsc	status,2,c
  2918  0014E2  D7D8               	goto	l4526
  2919  0014E4  0A07               	xorlw	7	; case 4
  2920  0014E6  B4D8               	btfsc	status,2,c
  2921  0014E8  D7DE               	goto	l4528
  2922  0014EA  0A01               	xorlw	1	; case 5
  2923  0014EC  A4D8               	btfss	status,2,c
  2924  0014EE  0012               	return	
  2925  0014F0  D7E3               	goto	l4530
  2926  0014F2                     __end_of_display:
  2927                           	opt stack 0
  2928                           tblptru	equ	0xFF8
  2929                           tblptrh	equ	0xFF7
  2930                           tblptrl	equ	0xFF6
  2931                           tablat	equ	0xFF5
  2932                           prodh	equ	0xFF4
  2933                           prodl	equ	0xFF3
  2934                           intcon	equ	0xFF2
  2935                           intcon2	equ	0xFF1
  2936                           postinc0	equ	0xFEE
  2937                           wreg	equ	0xFE8
  2938                           postdec1	equ	0xFE5
  2939                           fsr1l	equ	0xFE1
  2940                           indf2	equ	0xFDF
  2941                           postinc2	equ	0xFDE
  2942                           postdec2	equ	0xFDD
  2943                           fsr2h	equ	0xFDA
  2944                           fsr2l	equ	0xFD9
  2945                           status	equ	0xFD8
  2946                           
  2947 ;; *************** function ___lwmod *****************
  2948 ;; Defined at:
  2949 ;;		line 8 in file "C:\Program Files (x86)\Microchip\xc8\v1.33\sources\common\lwmod.c"
  2950 ;; Parameters:    Size  Location     Type
  2951 ;;  dividend        2    0[BANK0 ] unsigned int 
  2952 ;;  divisor         2    2[BANK0 ] unsigned int 
  2953 ;; Auto vars:     Size  Location     Type
  2954 ;;  counter         1    4[BANK0 ] unsigned char 
  2955 ;; Return value:  Size  Location     Type
  2956 ;;                  2    0[BANK0 ] unsigned int 
  2957 ;; Registers used:
  2958 ;;		wreg, status,2, status,0
  2959 ;; Tracked objects:
  2960 ;;		On entry : 0/0
  2961 ;;		On exit  : 0/0
  2962 ;;		Unchanged: 0/0
  2963 ;; Data sizes:     COMRAM   BANK0   BANK1   BANK2   BANK3   BANK4   BANK5   BANK6   BANK7   BANK8   BANK9  BANK10  BANK1
      +1  BANK12  BANK13  BANK14
  2964 ;;      Params:         0       4       0       0       0       0       0       0       0       0       0       0       
      +0       0       0       0
  2965 ;;      Locals:         0       1       0       0       0       0       0       0       0       0       0       0       
      +0       0       0       0
  2966 ;;      Temps:          0       0       0       0       0       0       0       0       0       0       0       0       
      +0       0       0       0
  2967 ;;      Totals:         0       5       0       0       0       0       0       0       0       0       0       0       
      +0       0       0       0
  2968 ;;Total ram usage:        5 bytes
  2969 ;; Hardware stack levels used:    1
  2970 ;; Hardware stack levels required when called:    5
  2971 ;; This function calls:
  2972 ;;		Nothing
  2973 ;; This function is called by:
  2974 ;;		_display
  2975 ;;		_utoa
  2976 ;; This function uses a non-reentrant model
  2977 ;;
  2978                           
  2979                           	psect	text8
  2980  00227C                     __ptext8:
  2981                           	opt stack 0
  2982  00227C                     ___lwmod:
  2983                           	opt stack 24
  2984                           
  2985                           ;incstack = 0
  2986  00227C  0100               	movlb	0	; () banked
  2987  00227E  51A7               	movf	(___lwmod@divisor+1)& (0+255),w,b
  2988  002280  11A6               	iorwf	___lwmod@divisor& (0+255),w,b
  2989  002282  B4D8               	btfsc	status,2,c
  2990  002284  D026               	goto	l1173
  2991                           
  2992                           ; BSR set to: 0
  2993  002286  0E01               	movlw	1
  2994  002288  0100               	movlb	0	; () banked
  2995  00228A  6FA8               	movwf	___lwmod@counter& (0+255),b
  2996  00228C  D006               	goto	l4210
  2997  00228E                     l4208:
  2998                           
  2999                           ; BSR set to: 0
  3000  00228E  0100               	movlb	0	; () banked
  3001  002290  90D8               	bcf	status,0,c
  3002  002292  37A6               	rlcf	___lwmod@divisor& (0+255),f,b
  3003  002294  37A7               	rlcf	(___lwmod@divisor+1)& (0+255),f,b
  3004  002296  0100               	movlb	0	; () banked
  3005  002298  2BA8               	incf	___lwmod@counter& (0+255),f,b
  3006  00229A                     l4210:
  3007                           
  3008                           ; BSR set to: 0
  3009  00229A  0100               	movlb	0	; () banked
  3010  00229C  AFA7               	btfss	(___lwmod@divisor+1)& (0+255),7,b
  3011  00229E  D7F7               	goto	l4208
  3012  0022A0                     l4212:
  3013                           
  3014                           ; BSR set to: 0
  3015  0022A0  0100               	movlb	0	; () banked
  3016  0022A2  51A6               	movf	___lwmod@divisor& (0+255),w,b
  3017  0022A4  0100               	movlb	0	; () banked
  3018  0022A6  5DA4               	subwf	___lwmod@dividend& (0+255),w,b
  3019  0022A8  0100               	movlb	0	; () banked
  3020  0022AA  51A7               	movf	(___lwmod@divisor+1)& (0+255),w,b
  3021  0022AC  0100               	movlb	0	; () banked
  3022  0022AE  59A5               	subwfb	(___lwmod@dividend+1)& (0+255),w,b
  3023  0022B0  A0D8               	btfss	status,0,c
  3024  0022B2  D008               	goto	l4216
  3025                           
  3026                           ; BSR set to: 0
  3027  0022B4  0100               	movlb	0	; () banked
  3028  0022B6  51A6               	movf	___lwmod@divisor& (0+255),w,b
  3029  0022B8  0100               	movlb	0	; () banked
  3030  0022BA  5FA4               	subwf	___lwmod@dividend& (0+255),f,b
  3031  0022BC  0100               	movlb	0	; () banked
  3032  0022BE  51A7               	movf	(___lwmod@divisor+1)& (0+255),w,b
  3033  0022C0  0100               	movlb	0	; () banked
  3034  0022C2  5BA5               	subwfb	(___lwmod@dividend+1)& (0+255),f,b
  3035  0022C4                     l4216:
  3036                           
  3037                           ; BSR set to: 0
  3038  0022C4  0100               	movlb	0	; () banked
  3039  0022C6  90D8               	bcf	status,0,c
  3040  0022C8  33A7               	rrcf	(___lwmod@divisor+1)& (0+255),f,b
  3041  0022CA  33A6               	rrcf	___lwmod@divisor& (0+255),f,b
  3042                           
  3043                           ; BSR set to: 0
  3044  0022CC  0100               	movlb	0	; () banked
  3045  0022CE  2FA8               	decfsz	___lwmod@counter& (0+255),f,b
  3046  0022D0  D7E7               	goto	l4212
  3047  0022D2                     l1173:
  3048                           
  3049                           ; BSR set to: 0
  3050  0022D2  C0A4  F0A4         	movff	___lwmod@dividend,?___lwmod
  3051  0022D6  C0A5  F0A5         	movff	___lwmod@dividend+1,?___lwmod+1
  3052                           
  3053                           ; BSR set to: 0
  3054  0022DA  0012               	return	
  3055  0022DC                     __end_of___lwmod:
  3056                           	opt stack 0
  3057                           tblptru	equ	0xFF8
  3058                           tblptrh	equ	0xFF7
  3059                           tblptrl	equ	0xFF6
  3060                           tablat	equ	0xFF5
  3061                           prodh	equ	0xFF4
  3062                           prodl	equ	0xFF3
  3063                           intcon	equ	0xFF2
  3064                           intcon2	equ	0xFF1
  3065                           postinc0	equ	0xFEE
  3066                           wreg	equ	0xFE8
  3067                           postdec1	equ	0xFE5
  3068                           fsr1l	equ	0xFE1
  3069                           indf2	equ	0xFDF
  3070                           postinc2	equ	0xFDE
  3071                           postdec2	equ	0xFDD
  3072                           fsr2h	equ	0xFDA
  3073                           fsr2l	equ	0xFD9
  3074                           status	equ	0xFD8
  3075                           
  3076 ;; *************** function ___lwdiv *****************
  3077 ;; Defined at:
  3078 ;;		line 8 in file "C:\Program Files (x86)\Microchip\xc8\v1.33\sources\common\lwdiv.c"
  3079 ;; Parameters:    Size  Location     Type
  3080 ;;  dividend        2    5[BANK0 ] unsigned int 
  3081 ;;  divisor         2    7[BANK0 ] unsigned int 
  3082 ;; Auto vars:     Size  Location     Type
  3083 ;;  quotient        2   10[BANK0 ] unsigned int 
  3084 ;;  counter         1    9[BANK0 ] unsigned char 
  3085 ;; Return value:  Size  Location     Type
  3086 ;;                  2    5[BANK0 ] unsigned int 
  3087 ;; Registers used:
  3088 ;;		wreg, status,2, status,0
  3089 ;; Tracked objects:
  3090 ;;		On entry : 0/0
  3091 ;;		On exit  : 0/0
  3092 ;;		Unchanged: 0/0
  3093 ;; Data sizes:     COMRAM   BANK0   BANK1   BANK2   BANK3   BANK4   BANK5   BANK6   BANK7   BANK8   BANK9  BANK10  BANK1
      +1  BANK12  BANK13  BANK14
  3094 ;;      Params:         0       4       0       0       0       0       0       0       0       0       0       0       
      +0       0       0       0
  3095 ;;      Locals:         0       3       0       0       0       0       0       0       0       0       0       0       
      +0       0       0       0
  3096 ;;      Temps:          0       0       0       0       0       0       0       0       0       0       0       0       
      +0       0       0       0
  3097 ;;      Totals:         0       7       0       0       0       0       0       0       0       0       0       0       
      +0       0       0       0
  3098 ;;Total ram usage:        7 bytes
  3099 ;; Hardware stack levels used:    1
  3100 ;; Hardware stack levels required when called:    5
  3101 ;; This function calls:
  3102 ;;		Nothing
  3103 ;; This function is called by:
  3104 ;;		_display
  3105 ;;		_utoa
  3106 ;; This function uses a non-reentrant model
  3107 ;;
  3108                           
  3109                           	psect	text9
  3110  002138                     __ptext9:
  3111                           	opt stack 0
  3112  002138                     ___lwdiv:
  3113                           	opt stack 24
  3114                           
  3115                           ; BSR set to: 0
  3116                           ;incstack = 0
  3117  002138  0E00               	movlw	0
  3118  00213A  0100               	movlb	0	; () banked
  3119  00213C  6FAF               	movwf	(___lwdiv@quotient+1)& (0+255),b
  3120  00213E  0E00               	movlw	0
  3121  002140  0100               	movlb	0	; () banked
  3122  002142  6FAE               	movwf	___lwdiv@quotient& (0+255),b
  3123                           
  3124                           ; BSR set to: 0
  3125  002144  0100               	movlb	0	; () banked
  3126  002146  51AC               	movf	(___lwdiv@divisor+1)& (0+255),w,b
  3127  002148  11AB               	iorwf	___lwdiv@divisor& (0+255),w,b
  3128  00214A  B4D8               	btfsc	status,2,c
  3129  00214C  D02C               	goto	l1163
  3130                           
  3131                           ; BSR set to: 0
  3132  00214E  0E01               	movlw	1
  3133  002150  0100               	movlb	0	; () banked
  3134  002152  6FAD               	movwf	___lwdiv@counter& (0+255),b
  3135  002154  D006               	goto	l4190
  3136  002156                     l4188:
  3137                           
  3138                           ; BSR set to: 0
  3139  002156  0100               	movlb	0	; () banked
  3140  002158  90D8               	bcf	status,0,c
  3141  00215A  37AB               	rlcf	___lwdiv@divisor& (0+255),f,b
  3142  00215C  37AC               	rlcf	(___lwdiv@divisor+1)& (0+255),f,b
  3143  00215E  0100               	movlb	0	; () banked
  3144  002160  2BAD               	incf	___lwdiv@counter& (0+255),f,b
  3145  002162                     l4190:
  3146                           
  3147                           ; BSR set to: 0
  3148  002162  0100               	movlb	0	; () banked
  3149  002164  AFAC               	btfss	(___lwdiv@divisor+1)& (0+255),7,b
  3150  002166  D7F7               	goto	l4188
  3151  002168                     l4192:
  3152                           
  3153                           ; BSR set to: 0
  3154  002168  0100               	movlb	0	; () banked
  3155  00216A  90D8               	bcf	status,0,c
  3156  00216C  37AE               	rlcf	___lwdiv@quotient& (0+255),f,b
  3157  00216E  37AF               	rlcf	(___lwdiv@quotient+1)& (0+255),f,b
  3158                           
  3159                           ; BSR set to: 0
  3160  002170  0100               	movlb	0	; () banked
  3161  002172  51AB               	movf	___lwdiv@divisor& (0+255),w,b
  3162  002174  0100               	movlb	0	; () banked
  3163  002176  5DA9               	subwf	___lwdiv@dividend& (0+255),w,b
  3164  002178  0100               	movlb	0	; () banked
  3165  00217A  51AC               	movf	(___lwdiv@divisor+1)& (0+255),w,b
  3166  00217C  0100               	movlb	0	; () banked
  3167  00217E  59AA               	subwfb	(___lwdiv@dividend+1)& (0+255),w,b
  3168  002180  A0D8               	btfss	status,0,c
  3169  002182  D00A               	goto	l4200
  3170                           
  3171                           ; BSR set to: 0
  3172  002184  0100               	movlb	0	; () banked
  3173  002186  51AB               	movf	___lwdiv@divisor& (0+255),w,b
  3174  002188  0100               	movlb	0	; () banked
  3175  00218A  5FA9               	subwf	___lwdiv@dividend& (0+255),f,b
  3176  00218C  0100               	movlb	0	; () banked
  3177  00218E  51AC               	movf	(___lwdiv@divisor+1)& (0+255),w,b
  3178  002190  0100               	movlb	0	; () banked
  3179  002192  5BAA               	subwfb	(___lwdiv@dividend+1)& (0+255),f,b
  3180                           
  3181                           ; BSR set to: 0
  3182  002194  0100               	movlb	0	; () banked
  3183  002196  81AE               	bsf	___lwdiv@quotient& (0+255),0,b
  3184  002198                     l4200:
  3185                           
  3186                           ; BSR set to: 0
  3187  002198  0100               	movlb	0	; () banked
  3188  00219A  90D8               	bcf	status,0,c
  3189  00219C  33AC               	rrcf	(___lwdiv@divisor+1)& (0+255),f,b
  3190  00219E  33AB               	rrcf	___lwdiv@divisor& (0+255),f,b
  3191                           
  3192                           ; BSR set to: 0
  3193  0021A0  0100               	movlb	0	; () banked
  3194  0021A2  2FAD               	decfsz	___lwdiv@counter& (0+255),f,b
  3195  0021A4  D7E1               	goto	l4192
  3196  0021A6                     l1163:
  3197                           
  3198                           ; BSR set to: 0
  3199  0021A6  C0AE  F0A9         	movff	___lwdiv@quotient,?___lwdiv
  3200  0021AA  C0AF  F0AA         	movff	___lwdiv@quotient+1,?___lwdiv+1
  3201                           
  3202                           ; BSR set to: 0
  3203  0021AE  0012               	return	
  3204  0021B0                     __end_of___lwdiv:
  3205                           	opt stack 0
  3206                           tblptru	equ	0xFF8
  3207                           tblptrh	equ	0xFF7
  3208                           tblptrl	equ	0xFF6
  3209                           tablat	equ	0xFF5
  3210                           prodh	equ	0xFF4
  3211                           prodl	equ	0xFF3
  3212                           intcon	equ	0xFF2
  3213                           intcon2	equ	0xFF1
  3214                           postinc0	equ	0xFEE
  3215                           wreg	equ	0xFE8
  3216                           postdec1	equ	0xFE5
  3217                           fsr1l	equ	0xFE1
  3218                           indf2	equ	0xFDF
  3219                           postinc2	equ	0xFDE
  3220                           postdec2	equ	0xFDD
  3221                           fsr2h	equ	0xFDA
  3222                           fsr2l	equ	0xFD9
  3223                           status	equ	0xFD8
  3224                           
  3225 ;; *************** function ___llmod *****************
  3226 ;; Defined at:
  3227 ;;		line 8 in file "C:\Program Files (x86)\Microchip\xc8\v1.33\sources\common\llmod.c"
  3228 ;; Parameters:    Size  Location     Type
  3229 ;;  dividend        4    0[BANK0 ] unsigned long 
  3230 ;;  divisor         4    4[BANK0 ] unsigned long 
  3231 ;; Auto vars:     Size  Location     Type
  3232 ;;  counter         1    8[BANK0 ] unsigned char 
  3233 ;; Return value:  Size  Location     Type
  3234 ;;                  4    0[BANK0 ] unsigned long 
  3235 ;; Registers used:
  3236 ;;		wreg, status,2, status,0
  3237 ;; Tracked objects:
  3238 ;;		On entry : 0/0
  3239 ;;		On exit  : 0/0
  3240 ;;		Unchanged: 0/0
  3241 ;; Data sizes:     COMRAM   BANK0   BANK1   BANK2   BANK3   BANK4   BANK5   BANK6   BANK7   BANK8   BANK9  BANK10  BANK1
      +1  BANK12  BANK13  BANK14
  3242 ;;      Params:         0       8       0       0       0       0       0       0       0       0       0       0       
      +0       0       0       0
  3243 ;;      Locals:         0       1       0       0       0       0       0       0       0       0       0       0       
      +0       0       0       0
  3244 ;;      Temps:          0       0       0       0       0       0       0       0       0       0       0       0       
      +0       0       0       0
  3245 ;;      Totals:         0       9       0       0       0       0       0       0       0       0       0       0       
      +0       0       0       0
  3246 ;;Total ram usage:        9 bytes
  3247 ;; Hardware stack levels used:    1
  3248 ;; Hardware stack levels required when called:    5
  3249 ;; This function calls:
  3250 ;;		Nothing
  3251 ;; This function is called by:
  3252 ;;		_display
  3253 ;; This function uses a non-reentrant model
  3254 ;;
  3255                           
  3256                           	psect	text10
  3257  001DCA                     __ptext10:
  3258                           	opt stack 0
  3259  001DCA                     ___llmod:
  3260                           	opt stack 24
  3261                           
  3262                           ; BSR set to: 0
  3263                           ;incstack = 0
  3264  001DCA  0100               	movlb	0	; () banked
  3265  001DCC  51AB               	movf	(___llmod@divisor+3)& (0+255),w,b
  3266  001DCE  11A8               	iorwf	___llmod@divisor& (0+255),w,b
  3267  001DD0  11A9               	iorwf	(___llmod@divisor+1)& (0+255),w,b
  3268  001DD2  11AA               	iorwf	(___llmod@divisor+2)& (0+255),w,b
  3269  001DD4  B4D8               	btfsc	status,2,c
  3270  001DD6  D042               	goto	l1110
  3271                           
  3272                           ; BSR set to: 0
  3273  001DD8  0E01               	movlw	1
  3274  001DDA  0100               	movlb	0	; () banked
  3275  001DDC  6FAC               	movwf	___llmod@counter& (0+255),b
  3276  001DDE  D00C               	goto	l4172
  3277  001DE0                     l4170:
  3278                           
  3279                           ; BSR set to: 0
  3280  001DE0  0100               	movlb	0	; () banked
  3281  001DE2  90D8               	bcf	status,0,c
  3282  001DE4  0100               	movlb	0	; () banked
  3283  001DE6  37A8               	rlcf	___llmod@divisor& (0+255),f,b
  3284  001DE8  0100               	movlb	0	; () banked
  3285  001DEA  37A9               	rlcf	(___llmod@divisor+1)& (0+255),f,b
  3286  001DEC  0100               	movlb	0	; () banked
  3287  001DEE  37AA               	rlcf	(___llmod@divisor+2)& (0+255),f,b
  3288  001DF0  0100               	movlb	0	; () banked
  3289  001DF2  37AB               	rlcf	(___llmod@divisor+3)& (0+255),f,b
  3290  001DF4  0100               	movlb	0	; () banked
  3291  001DF6  2BAC               	incf	___llmod@counter& (0+255),f,b
  3292  001DF8                     l4172:
  3293                           
  3294                           ; BSR set to: 0
  3295  001DF8  0100               	movlb	0	; () banked
  3296  001DFA  AFAB               	btfss	(___llmod@divisor+3)& (0+255),7,b
  3297  001DFC  D7F1               	goto	l4170
  3298  001DFE                     l4174:
  3299                           
  3300                           ; BSR set to: 0
  3301  001DFE  0100               	movlb	0	; () banked
  3302  001E00  51A8               	movf	___llmod@divisor& (0+255),w,b
  3303  001E02  0100               	movlb	0	; () banked
  3304  001E04  5DA4               	subwf	___llmod@dividend& (0+255),w,b
  3305  001E06  0100               	movlb	0	; () banked
  3306  001E08  51A9               	movf	(___llmod@divisor+1)& (0+255),w,b
  3307  001E0A  0100               	movlb	0	; () banked
  3308  001E0C  59A5               	subwfb	(___llmod@dividend+1)& (0+255),w,b
  3309  001E0E  0100               	movlb	0	; () banked
  3310  001E10  51AA               	movf	(___llmod@divisor+2)& (0+255),w,b
  3311  001E12  0100               	movlb	0	; () banked
  3312  001E14  59A6               	subwfb	(___llmod@dividend+2)& (0+255),w,b
  3313  001E16  0100               	movlb	0	; () banked
  3314  001E18  51AB               	movf	(___llmod@divisor+3)& (0+255),w,b
  3315  001E1A  0100               	movlb	0	; () banked
  3316  001E1C  59A7               	subwfb	(___llmod@dividend+3)& (0+255),w,b
  3317  001E1E  A0D8               	btfss	status,0,c
  3318  001E20  D010               	goto	l4178
  3319                           
  3320                           ; BSR set to: 0
  3321  001E22  0100               	movlb	0	; () banked
  3322  001E24  51A8               	movf	___llmod@divisor& (0+255),w,b
  3323  001E26  0100               	movlb	0	; () banked
  3324  001E28  5FA4               	subwf	___llmod@dividend& (0+255),f,b
  3325  001E2A  0100               	movlb	0	; () banked
  3326  001E2C  51A9               	movf	(___llmod@divisor+1)& (0+255),w,b
  3327  001E2E  0100               	movlb	0	; () banked
  3328  001E30  5BA5               	subwfb	(___llmod@dividend+1)& (0+255),f,b
  3329  001E32  0100               	movlb	0	; () banked
  3330  001E34  51AA               	movf	(___llmod@divisor+2)& (0+255),w,b
  3331  001E36  0100               	movlb	0	; () banked
  3332  001E38  5BA6               	subwfb	(___llmod@dividend+2)& (0+255),f,b
  3333  001E3A  0100               	movlb	0	; () banked
  3334  001E3C  51AB               	movf	(___llmod@divisor+3)& (0+255),w,b
  3335  001E3E  0100               	movlb	0	; () banked
  3336  001E40  5BA7               	subwfb	(___llmod@dividend+3)& (0+255),f,b
  3337  001E42                     l4178:
  3338                           
  3339                           ; BSR set to: 0
  3340  001E42  0100               	movlb	0	; () banked
  3341  001E44  90D8               	bcf	status,0,c
  3342  001E46  0100               	movlb	0	; () banked
  3343  001E48  33AB               	rrcf	(___llmod@divisor+3)& (0+255),f,b
  3344  001E4A  0100               	movlb	0	; () banked
  3345  001E4C  33AA               	rrcf	(___llmod@divisor+2)& (0+255),f,b
  3346  001E4E  0100               	movlb	0	; () banked
  3347  001E50  33A9               	rrcf	(___llmod@divisor+1)& (0+255),f,b
  3348  001E52  0100               	movlb	0	; () banked
  3349  001E54  33A8               	rrcf	___llmod@divisor& (0+255),f,b
  3350                           
  3351                           ; BSR set to: 0
  3352  001E56  0100               	movlb	0	; () banked
  3353  001E58  2FAC               	decfsz	___llmod@counter& (0+255),f,b
  3354  001E5A  D7D1               	goto	l4174
  3355  001E5C                     l1110:
  3356                           
  3357                           ; BSR set to: 0
  3358  001E5C  C0A4  F0A4         	movff	___llmod@dividend,?___llmod
  3359  001E60  C0A5  F0A5         	movff	___llmod@dividend+1,?___llmod+1
  3360  001E64  C0A6  F0A6         	movff	___llmod@dividend+2,?___llmod+2
  3361  001E68  C0A7  F0A7         	movff	___llmod@dividend+3,?___llmod+3
  3362                           
  3363                           ; BSR set to: 0
  3364  001E6C  0012               	return	
  3365  001E6E                     __end_of___llmod:
  3366                           	opt stack 0
  3367                           tblptru	equ	0xFF8
  3368                           tblptrh	equ	0xFF7
  3369                           tblptrl	equ	0xFF6
  3370                           tablat	equ	0xFF5
  3371                           prodh	equ	0xFF4
  3372                           prodl	equ	0xFF3
  3373                           intcon	equ	0xFF2
  3374                           intcon2	equ	0xFF1
  3375                           postinc0	equ	0xFEE
  3376                           wreg	equ	0xFE8
  3377                           postdec1	equ	0xFE5
  3378                           fsr1l	equ	0xFE1
  3379                           indf2	equ	0xFDF
  3380                           postinc2	equ	0xFDE
  3381                           postdec2	equ	0xFDD
  3382                           fsr2h	equ	0xFDA
  3383                           fsr2l	equ	0xFD9
  3384                           status	equ	0xFD8
  3385                           
  3386 ;; *************** function ___lldiv *****************
  3387 ;; Defined at:
  3388 ;;		line 8 in file "C:\Program Files (x86)\Microchip\xc8\v1.33\sources\common\lldiv.c"
  3389 ;; Parameters:    Size  Location     Type
  3390 ;;  dividend        4    9[BANK0 ] unsigned long 
  3391 ;;  divisor         4   13[BANK0 ] unsigned long 
  3392 ;; Auto vars:     Size  Location     Type
  3393 ;;  quotient        4   17[BANK0 ] unsigned long 
  3394 ;;  counter         1   21[BANK0 ] unsigned char 
  3395 ;; Return value:  Size  Location     Type
  3396 ;;                  4    9[BANK0 ] unsigned long 
  3397 ;; Registers used:
  3398 ;;		wreg, status,2, status,0
  3399 ;; Tracked objects:
  3400 ;;		On entry : 0/0
  3401 ;;		On exit  : 0/0
  3402 ;;		Unchanged: 0/0
  3403 ;; Data sizes:     COMRAM   BANK0   BANK1   BANK2   BANK3   BANK4   BANK5   BANK6   BANK7   BANK8   BANK9  BANK10  BANK1
      +1  BANK12  BANK13  BANK14
  3404 ;;      Params:         0       8       0       0       0       0       0       0       0       0       0       0       
      +0       0       0       0
  3405 ;;      Locals:         0       5       0       0       0       0       0       0       0       0       0       0       
      +0       0       0       0
  3406 ;;      Temps:          0       0       0       0       0       0       0       0       0       0       0       0       
      +0       0       0       0
  3407 ;;      Totals:         0      13       0       0       0       0       0       0       0       0       0       0       
      +0       0       0       0
  3408 ;;Total ram usage:       13 bytes
  3409 ;; Hardware stack levels used:    1
  3410 ;; Hardware stack levels required when called:    5
  3411 ;; This function calls:
  3412 ;;		Nothing
  3413 ;; This function is called by:
  3414 ;;		_display
  3415 ;;		_CTMU_read
  3416 ;;		_get_quot_rem
  3417 ;; This function uses a non-reentrant model
  3418 ;;
  3419                           
  3420                           	psect	text11
  3421  001C3E                     __ptext11:
  3422                           	opt stack 0
  3423  001C3E                     ___lldiv:
  3424                           	opt stack 24
  3425                           
  3426                           ; BSR set to: 0
  3427                           ;incstack = 0
  3428  001C3E  0E00               	movlw	0
  3429  001C40  0100               	movlb	0	; () banked
  3430  001C42  6FB5               	movwf	___lldiv@quotient& (0+255),b
  3431  001C44  0E00               	movlw	0
  3432  001C46  0100               	movlb	0	; () banked
  3433  001C48  6FB6               	movwf	(___lldiv@quotient+1)& (0+255),b
  3434  001C4A  0E00               	movlw	0
  3435  001C4C  0100               	movlb	0	; () banked
  3436  001C4E  6FB7               	movwf	(___lldiv@quotient+2)& (0+255),b
  3437  001C50  0E00               	movlw	0
  3438  001C52  0100               	movlb	0	; () banked
  3439  001C54  6FB8               	movwf	(___lldiv@quotient+3)& (0+255),b
  3440                           
  3441                           ; BSR set to: 0
  3442  001C56  0100               	movlb	0	; () banked
  3443  001C58  51B4               	movf	(___lldiv@divisor+3)& (0+255),w,b
  3444  001C5A  11B1               	iorwf	___lldiv@divisor& (0+255),w,b
  3445  001C5C  11B2               	iorwf	(___lldiv@divisor+1)& (0+255),w,b
  3446  001C5E  11B3               	iorwf	(___lldiv@divisor+2)& (0+255),w,b
  3447  001C60  B4D8               	btfsc	status,2,c
  3448  001C62  D04E               	goto	l1100
  3449                           
  3450                           ; BSR set to: 0
  3451  001C64  0E01               	movlw	1
  3452  001C66  0100               	movlb	0	; () banked
  3453  001C68  6FB9               	movwf	___lldiv@counter& (0+255),b
  3454  001C6A  D00C               	goto	l4152
  3455  001C6C                     l4150:
  3456                           
  3457                           ; BSR set to: 0
  3458  001C6C  0100               	movlb	0	; () banked
  3459  001C6E  90D8               	bcf	status,0,c
  3460  001C70  0100               	movlb	0	; () banked
  3461  001C72  37B1               	rlcf	___lldiv@divisor& (0+255),f,b
  3462  001C74  0100               	movlb	0	; () banked
  3463  001C76  37B2               	rlcf	(___lldiv@divisor+1)& (0+255),f,b
  3464  001C78  0100               	movlb	0	; () banked
  3465  001C7A  37B3               	rlcf	(___lldiv@divisor+2)& (0+255),f,b
  3466  001C7C  0100               	movlb	0	; () banked
  3467  001C7E  37B4               	rlcf	(___lldiv@divisor+3)& (0+255),f,b
  3468  001C80  0100               	movlb	0	; () banked
  3469  001C82  2BB9               	incf	___lldiv@counter& (0+255),f,b
  3470  001C84                     l4152:
  3471                           
  3472                           ; BSR set to: 0
  3473  001C84  0100               	movlb	0	; () banked
  3474  001C86  AFB4               	btfss	(___lldiv@divisor+3)& (0+255),7,b
  3475  001C88  D7F1               	goto	l4150
  3476  001C8A                     l4154:
  3477                           
  3478                           ; BSR set to: 0
  3479  001C8A  0100               	movlb	0	; () banked
  3480  001C8C  90D8               	bcf	status,0,c
  3481  001C8E  0100               	movlb	0	; () banked
  3482  001C90  37B5               	rlcf	___lldiv@quotient& (0+255),f,b
  3483  001C92  0100               	movlb	0	; () banked
  3484  001C94  37B6               	rlcf	(___lldiv@quotient+1)& (0+255),f,b
  3485  001C96  0100               	movlb	0	; () banked
  3486  001C98  37B7               	rlcf	(___lldiv@quotient+2)& (0+255),f,b
  3487  001C9A  0100               	movlb	0	; () banked
  3488  001C9C  37B8               	rlcf	(___lldiv@quotient+3)& (0+255),f,b
  3489                           
  3490                           ; BSR set to: 0
  3491  001C9E  0100               	movlb	0	; () banked
  3492  001CA0  51B1               	movf	___lldiv@divisor& (0+255),w,b
  3493  001CA2  0100               	movlb	0	; () banked
  3494  001CA4  5DAD               	subwf	___lldiv@dividend& (0+255),w,b
  3495  001CA6  0100               	movlb	0	; () banked
  3496  001CA8  51B2               	movf	(___lldiv@divisor+1)& (0+255),w,b
  3497  001CAA  0100               	movlb	0	; () banked
  3498  001CAC  59AE               	subwfb	(___lldiv@dividend+1)& (0+255),w,b
  3499  001CAE  0100               	movlb	0	; () banked
  3500  001CB0  51B3               	movf	(___lldiv@divisor+2)& (0+255),w,b
  3501  001CB2  0100               	movlb	0	; () banked
  3502  001CB4  59AF               	subwfb	(___lldiv@dividend+2)& (0+255),w,b
  3503  001CB6  0100               	movlb	0	; () banked
  3504  001CB8  51B4               	movf	(___lldiv@divisor+3)& (0+255),w,b
  3505  001CBA  0100               	movlb	0	; () banked
  3506  001CBC  59B0               	subwfb	(___lldiv@dividend+3)& (0+255),w,b
  3507  001CBE  A0D8               	btfss	status,0,c
  3508  001CC0  D012               	goto	l4162
  3509                           
  3510                           ; BSR set to: 0
  3511  001CC2  0100               	movlb	0	; () banked
  3512  001CC4  51B1               	movf	___lldiv@divisor& (0+255),w,b
  3513  001CC6  0100               	movlb	0	; () banked
  3514  001CC8  5FAD               	subwf	___lldiv@dividend& (0+255),f,b
  3515  001CCA  0100               	movlb	0	; () banked
  3516  001CCC  51B2               	movf	(___lldiv@divisor+1)& (0+255),w,b
  3517  001CCE  0100               	movlb	0	; () banked
  3518  001CD0  5BAE               	subwfb	(___lldiv@dividend+1)& (0+255),f,b
  3519  001CD2  0100               	movlb	0	; () banked
  3520  001CD4  51B3               	movf	(___lldiv@divisor+2)& (0+255),w,b
  3521  001CD6  0100               	movlb	0	; () banked
  3522  001CD8  5BAF               	subwfb	(___lldiv@dividend+2)& (0+255),f,b
  3523  001CDA  0100               	movlb	0	; () banked
  3524  001CDC  51B4               	movf	(___lldiv@divisor+3)& (0+255),w,b
  3525  001CDE  0100               	movlb	0	; () banked
  3526  001CE0  5BB0               	subwfb	(___lldiv@dividend+3)& (0+255),f,b
  3527                           
  3528                           ; BSR set to: 0
  3529  001CE2  0100               	movlb	0	; () banked
  3530  001CE4  81B5               	bsf	___lldiv@quotient& (0+255),0,b
  3531  001CE6                     l4162:
  3532                           
  3533                           ; BSR set to: 0
  3534  001CE6  0100               	movlb	0	; () banked
  3535  001CE8  90D8               	bcf	status,0,c
  3536  001CEA  0100               	movlb	0	; () banked
  3537  001CEC  33B4               	rrcf	(___lldiv@divisor+3)& (0+255),f,b
  3538  001CEE  0100               	movlb	0	; () banked
  3539  001CF0  33B3               	rrcf	(___lldiv@divisor+2)& (0+255),f,b
  3540  001CF2  0100               	movlb	0	; () banked
  3541  001CF4  33B2               	rrcf	(___lldiv@divisor+1)& (0+255),f,b
  3542  001CF6  0100               	movlb	0	; () banked
  3543  001CF8  33B1               	rrcf	___lldiv@divisor& (0+255),f,b
  3544                           
  3545                           ; BSR set to: 0
  3546  001CFA  0100               	movlb	0	; () banked
  3547  001CFC  2FB9               	decfsz	___lldiv@counter& (0+255),f,b
  3548  001CFE  D7C5               	goto	l4154
  3549  001D00                     l1100:
  3550                           
  3551                           ; BSR set to: 0
  3552  001D00  C0B5  F0AD         	movff	___lldiv@quotient,?___lldiv
  3553  001D04  C0B6  F0AE         	movff	___lldiv@quotient+1,?___lldiv+1
  3554  001D08  C0B7  F0AF         	movff	___lldiv@quotient+2,?___lldiv+2
  3555  001D0C  C0B8  F0B0         	movff	___lldiv@quotient+3,?___lldiv+3
  3556                           
  3557                           ; BSR set to: 0
  3558  001D10  0012               	return	
  3559  001D12                     __end_of___lldiv:
  3560                           	opt stack 0
  3561                           tblptru	equ	0xFF8
  3562                           tblptrh	equ	0xFF7
  3563                           tblptrl	equ	0xFF6
  3564                           tablat	equ	0xFF5
  3565                           prodh	equ	0xFF4
  3566                           prodl	equ	0xFF3
  3567                           intcon	equ	0xFF2
  3568                           intcon2	equ	0xFF1
  3569                           postinc0	equ	0xFEE
  3570                           wreg	equ	0xFE8
  3571                           postdec1	equ	0xFE5
  3572                           fsr1l	equ	0xFE1
  3573                           indf2	equ	0xFDF
  3574                           postinc2	equ	0xFDE
  3575                           postdec2	equ	0xFDD
  3576                           fsr2h	equ	0xFDA
  3577                           fsr2l	equ	0xFD9
  3578                           status	equ	0xFD8
  3579                           
  3580 ;; *************** function _I2C_LCD_SetCursor *****************
  3581 ;; Defined at:
  3582 ;;		line 111 in file "../My_header\My_I2C.h"
  3583 ;; Parameters:    Size  Location     Type
  3584 ;;  col             1    wreg     unsigned char 
  3585 ;;  row             1    6[BANK0 ] unsigned char 
  3586 ;; Auto vars:     Size  Location     Type
  3587 ;;  col             1    9[BANK0 ] unsigned char 
  3588 ;;  row_offsets     2    7[BANK0 ] unsigned char [2]
  3589 ;; Return value:  Size  Location     Type
  3590 ;;		None               void
  3591 ;; Registers used:
  3592 ;;		wreg, fsr2l, fsr2h, status,2, status,0, prodl, prodh, cstack
  3593 ;; Tracked objects:
  3594 ;;		On entry : 0/0
  3595 ;;		On exit  : 0/0
  3596 ;;		Unchanged: 0/0
  3597 ;; Data sizes:     COMRAM   BANK0   BANK1   BANK2   BANK3   BANK4   BANK5   BANK6   BANK7   BANK8   BANK9  BANK10  BANK1
      +1  BANK12  BANK13  BANK14
  3598 ;;      Params:         0       1       0       0       0       0       0       0       0       0       0       0       
      +0       0       0       0
  3599 ;;      Locals:         0       3       0       0       0       0       0       0       0       0       0       0       
      +0       0       0       0
  3600 ;;      Temps:          0       0       0       0       0       0       0       0       0       0       0       0       
      +0       0       0       0
  3601 ;;      Totals:         0       4       0       0       0       0       0       0       0       0       0       0       
      +0       0       0       0
  3602 ;;Total ram usage:        4 bytes
  3603 ;; Hardware stack levels used:    1
  3604 ;; Hardware stack levels required when called:    8
  3605 ;; This function calls:
  3606 ;;		_I2C_LCD_Command
  3607 ;; This function is called by:
  3608 ;;		_display
  3609 ;;		_main
  3610 ;;		_display_time
  3611 ;; This function uses a non-reentrant model
  3612 ;;
  3613                           
  3614                           	psect	text12
  3615  00276C                     __ptext12:
  3616                           	opt stack 0
  3617  00276C                     _I2C_LCD_SetCursor:
  3618                           	opt stack 21
  3619                           
  3620                           ; BSR set to: 0
  3621                           ;incstack = 0
  3622                           ;I2C_LCD_SetCursor@col stored from wreg
  3623  00276C  0100               	movlb	0	; () banked
  3624  00276E  6FAD               	movwf	I2C_LCD_SetCursor@col& (0+255),b
  3625                           
  3626                           ; BSR set to: 0
  3627                           ;My_header\My_I2C.h: 112: uint8_t row_offsets[] = {0x00, 0x40};
  3628  002770  C04C  F0AB         	movff	I2C_LCD_SetCursor@F9846,I2C_LCD_SetCursor@row_offsets
  3629  002774  C04D  F0AC         	movff	I2C_LCD_SetCursor@F9846+1,I2C_LCD_SetCursor@row_offsets+1
  3630                           
  3631                           ; BSR set to: 0
  3632                           ;My_header\My_I2C.h: 114: I2C_LCD_Command(0x80 | (col + row_offsets[row]));
  3633  002778  0100               	movlb	0	; () banked
  3634  00277A  51AA               	movf	I2C_LCD_SetCursor@row& (0+255),w,b
  3635  00277C  0D01               	mullw	1
  3636  00277E  0100               	movlb	0	; () banked
  3637  002780  0EAB               	movlw	low I2C_LCD_SetCursor@row_offsets
  3638  002782  24F3               	addwf	prodl,w,c
  3639  002784  6ED9               	movwf	fsr2l,c
  3640  002786  0100               	movlb	0	; () banked
  3641  002788  0E00               	movlw	high I2C_LCD_SetCursor@row_offsets
  3642  00278A  20F4               	addwfc	prodh,w,c
  3643  00278C  6EDA               	movwf	fsr2h,c
  3644  00278E  50DF               	movf	indf2,w,c
  3645  002790  0100               	movlb	0	; () banked
  3646  002792  25AD               	addwf	I2C_LCD_SetCursor@col& (0+255),w,b
  3647  002794  0980               	iorlw	128
  3648  002796  EC83  F013         	call	_I2C_LCD_Command
  3649  00279A  0012               	return	
  3650  00279C                     __end_of_I2C_LCD_SetCursor:
  3651                           	opt stack 0
  3652                           tblptru	equ	0xFF8
  3653                           tblptrh	equ	0xFF7
  3654                           tblptrl	equ	0xFF6
  3655                           tablat	equ	0xFF5
  3656                           prodh	equ	0xFF4
  3657                           prodl	equ	0xFF3
  3658                           intcon	equ	0xFF2
  3659                           intcon2	equ	0xFF1
  3660                           postinc0	equ	0xFEE
  3661                           wreg	equ	0xFE8
  3662                           postdec1	equ	0xFE5
  3663                           fsr1l	equ	0xFE1
  3664                           indf2	equ	0xFDF
  3665                           postinc2	equ	0xFDE
  3666                           postdec2	equ	0xFDD
  3667                           fsr2h	equ	0xFDA
  3668                           fsr2l	equ	0xFD9
  3669                           status	equ	0xFD8
  3670                           
  3671 ;; *************** function _I2C_LCD_Puts *****************
  3672 ;; Defined at:
  3673 ;;		line 130 in file "../My_header\My_I2C.h"
  3674 ;; Parameters:    Size  Location     Type
  3675 ;;  s               2    4[BANK0 ] PTR const unsigned char 
  3676 ;;		 -> STR_30(8), STR_29(7), STR_26(9), STR_25(9), 
  3677 ;;		 -> STR_24(8), STR_23(7), STR_22(4), STR_21(5), 
  3678 ;;		 -> STR_20(5), STR_19(7), STR_18(7), STR_17(6), 
  3679 ;;		 -> STR_16(6), STR_15(3), display_dec@str(10), STR_7(4), 
  3680 ;;		 -> STR_6(4), STR_5(4), STR_4(4), STR_3(4), 
  3681 ;;		 -> STR_2(4), STR_1(4), 
  3682 ;; Auto vars:     Size  Location     Type
  3683 ;;  ans             2    7[BANK0 ] int 
  3684 ;; Return value:  Size  Location     Type
  3685 ;;		None               void
  3686 ;; Registers used:
  3687 ;;		wreg, fsr0l, fsr0h, status,2, status,0, tblptrl, tblptrh, tblptru, cstack
  3688 ;; Tracked objects:
  3689 ;;		On entry : 0/0
  3690 ;;		On exit  : 0/0
  3691 ;;		Unchanged: 0/0
  3692 ;; Data sizes:     COMRAM   BANK0   BANK1   BANK2   BANK3   BANK4   BANK5   BANK6   BANK7   BANK8   BANK9  BANK10  BANK1
      +1  BANK12  BANK13  BANK14
  3693 ;;      Params:         0       2       0       0       0       0       0       0       0       0       0       0       
      +0       0       0       0
  3694 ;;      Locals:         0       2       0       0       0       0       0       0       0       0       0       0       
      +0       0       0       0
  3695 ;;      Temps:          0       1       0       0       0       0       0       0       0       0       0       0       
      +0       0       0       0
  3696 ;;      Totals:         0       5       0       0       0       0       0       0       0       0       0       0       
      +0       0       0       0
  3697 ;;Total ram usage:        5 bytes
  3698 ;; Hardware stack levels used:    1
  3699 ;; Hardware stack levels required when called:    7
  3700 ;; This function calls:
  3701 ;;		_I2C_Send
  3702 ;;		_I2C_Start
  3703 ;;		_I2C_Stop
  3704 ;; This function is called by:
  3705 ;;		_display
  3706 ;;		_main
  3707 ;;		_display_dec
  3708 ;;		_display_time
  3709 ;; This function uses a non-reentrant model
  3710 ;;
  3711                           
  3712                           	psect	text13
  3713  001F12                     __ptext13:
  3714                           	opt stack 0
  3715  001F12                     _I2C_LCD_Puts:
  3716                           	opt stack 22
  3717                           
  3718                           ;My_header\My_I2C.h: 131: int ans;
  3719                           ;My_header\My_I2C.h: 133: ans = I2C_Start(0x3E, 0);
  3720                           
  3721                           ;incstack = 0
  3722  001F12  0E00               	movlw	0
  3723  001F14  0100               	movlb	0	; () banked
  3724  001F16  6FA6               	movwf	I2C_Start@rw& (0+255),b
  3725  001F18  0E3E               	movlw	62
  3726  001F1A  EC9D  F013         	call	_I2C_Start
  3727  001F1E  0100               	movlb	0	; () banked
  3728  001F20  6FAA               	movwf	??_I2C_LCD_Puts& (0+255),b
  3729  001F22  0100               	movlb	0	; () banked
  3730  001F24  51AA               	movf	??_I2C_LCD_Puts& (0+255),w,b
  3731  001F26  0100               	movlb	0	; () banked
  3732  001F28  6FAB               	movwf	I2C_LCD_Puts@ans& (0+255),b
  3733  001F2A  0100               	movlb	0	; () banked
  3734  001F2C  6BAC               	clrf	(I2C_LCD_Puts@ans+1)& (0+255),b
  3735                           
  3736                           ; BSR set to: 0
  3737                           ;My_header\My_I2C.h: 134: if (ans == 0) {
  3738  001F2E  0100               	movlb	0	; () banked
  3739  001F30  51AC               	movf	(I2C_LCD_Puts@ans+1)& (0+255),w,b
  3740  001F32  11AB               	iorwf	I2C_LCD_Puts@ans& (0+255),w,b
  3741  001F34  A4D8               	btfss	status,2,c
  3742  001F36  D035               	goto	l4138
  3743                           
  3744                           ; BSR set to: 0
  3745                           ;My_header\My_I2C.h: 135: I2C_Send(0b01000000);
  3746  001F38  0E40               	movlw	64
  3747  001F3A  EC76  F014         	call	_I2C_Send
  3748                           
  3749                           ;My_header\My_I2C.h: 136: while (*s) {
  3750  001F3E  D01B               	goto	l4136
  3751  001F40                     l4130:
  3752                           
  3753                           ;My_header\My_I2C.h: 137: I2C_Send(*s++);
  3754  001F40  0100               	movlb	0	; () banked
  3755  001F42  C0A8  FFF6         	movff	I2C_LCD_Puts@s,tblptrl
  3756  001F46  0100               	movlb	0	; () banked
  3757  001F48  C0A9  FFF7         	movff	I2C_LCD_Puts@s+1,tblptrh
  3758  001F4C  0E00               	movlw	low (__smallconst shr (0+16))
  3759  001F4E  6EF8               	movwf	tblptru,c
  3760  001F50  0E0E               	movlw	(high __ramtop+-1)
  3761  001F52  64F7               	cpfsgt	tblptrh,c
  3762  001F54  D003               	bra	u3897
  3763  001F56  0008               	tblrd		*
  3764  001F58  50F5               	movf	tablat,w,c
  3765  001F5A  D005               	bra	u3890
  3766  001F5C                     u3897:
  3767  001F5C  CFF6 FFE9          	movff	tblptrl,fsr0l
  3768  001F60  CFF7 FFEA          	movff	tblptrh,fsr0h
  3769  001F64  50EF               	movf	indf0,w,c
  3770  001F66                     u3890:
  3771  001F66  EC76  F014         	call	_I2C_Send
  3772  001F6A  0100               	movlb	0	; () banked
  3773  001F6C  4BA8               	infsnz	I2C_LCD_Puts@s& (0+255),f,b
  3774  001F6E  2BA9               	incf	(I2C_LCD_Puts@s+1)& (0+255),f,b
  3775                           
  3776                           ; BSR set to: 0
  3777                           ;My_header\My_I2C.h: 138: _delay((unsigned long)((26)*(48000000/4000000.0)));
  3778  001F70  0E68               	movlw	104
  3779  001F72                     u4657:
  3780  001F72  2EE8               	decfsz	wreg,f,c
  3781  001F74  D7FE               	goto	u4657
  3782  001F76                     l4136:
  3783  001F76  0100               	movlb	0	; () banked
  3784  001F78  C0A8  FFF6         	movff	I2C_LCD_Puts@s,tblptrl
  3785  001F7C  0100               	movlb	0	; () banked
  3786  001F7E  C0A9  FFF7         	movff	I2C_LCD_Puts@s+1,tblptrh
  3787  001F82  0E00               	movlw	low (__smallconst shr (0+16))
  3788  001F84  6EF8               	movwf	tblptru,c
  3789  001F86  0E0E               	movlw	(high __ramtop+-1)
  3790  001F88  64F7               	cpfsgt	tblptrh,c
  3791  001F8A  D003               	bra	u3907
  3792  001F8C  0008               	tblrd		*
  3793  001F8E  50F5               	movf	tablat,w,c
  3794  001F90  D005               	bra	u3900
  3795  001F92                     u3907:
  3796  001F92  CFF6 FFE9          	movff	tblptrl,fsr0l
  3797  001F96  CFF7 FFEA          	movff	tblptrh,fsr0h
  3798  001F9A  50EF               	movf	indf0,w,c
  3799  001F9C                     u3900:
  3800  001F9C  0900               	iorlw	0
  3801  001F9E  A4D8               	btfss	status,2,c
  3802  001FA0  D7CF               	goto	l4130
  3803  001FA2                     l4138:
  3804                           
  3805                           ;My_header\My_I2C.h: 139: }
  3806                           ;My_header\My_I2C.h: 140: }
  3807                           ;My_header\My_I2C.h: 141: I2C_Stop();
  3808  001FA2  EC8B  F014         	call	_I2C_Stop	;wreg free
  3809  001FA6  0012               	return	
  3810  001FA8                     __end_of_I2C_LCD_Puts:
  3811                           	opt stack 0
  3812                           tblptru	equ	0xFF8
  3813                           tblptrh	equ	0xFF7
  3814                           tblptrl	equ	0xFF6
  3815                           tablat	equ	0xFF5
  3816                           prodh	equ	0xFF4
  3817                           prodl	equ	0xFF3
  3818                           intcon	equ	0xFF2
  3819                           intcon2	equ	0xFF1
  3820                           indf0	equ	0xFEF
  3821                           postinc0	equ	0xFEE
  3822                           fsr0h	equ	0xFEA
  3823                           fsr0l	equ	0xFE9
  3824                           wreg	equ	0xFE8
  3825                           postdec1	equ	0xFE5
  3826                           fsr1l	equ	0xFE1
  3827                           indf2	equ	0xFDF
  3828                           postinc2	equ	0xFDE
  3829                           postdec2	equ	0xFDD
  3830                           fsr2h	equ	0xFDA
  3831                           fsr2l	equ	0xFD9
  3832                           status	equ	0xFD8
  3833                           
  3834 ;; *************** function _I2C_LCD_Putc *****************
  3835 ;; Defined at:
  3836 ;;		line 117 in file "../My_header\My_I2C.h"
  3837 ;; Parameters:    Size  Location     Type
  3838 ;;  c               1    wreg     unsigned char 
  3839 ;; Auto vars:     Size  Location     Type
  3840 ;;  c               1    4[BANK0 ] unsigned char 
  3841 ;;  ans             1    5[BANK0 ] unsigned char 
  3842 ;; Return value:  Size  Location     Type
  3843 ;;		None               void
  3844 ;; Registers used:
  3845 ;;		wreg, status,2, status,0, cstack
  3846 ;; Tracked objects:
  3847 ;;		On entry : 0/0
  3848 ;;		On exit  : 0/0
  3849 ;;		Unchanged: 0/0
  3850 ;; Data sizes:     COMRAM   BANK0   BANK1   BANK2   BANK3   BANK4   BANK5   BANK6   BANK7   BANK8   BANK9  BANK10  BANK1
      +1  BANK12  BANK13  BANK14
  3851 ;;      Params:         0       0       0       0       0       0       0       0       0       0       0       0       
      +0       0       0       0
  3852 ;;      Locals:         0       2       0       0       0       0       0       0       0       0       0       0       
      +0       0       0       0
  3853 ;;      Temps:          0       0       0       0       0       0       0       0       0       0       0       0       
      +0       0       0       0
  3854 ;;      Totals:         0       2       0       0       0       0       0       0       0       0       0       0       
      +0       0       0       0
  3855 ;;Total ram usage:        2 bytes
  3856 ;; Hardware stack levels used:    1
  3857 ;; Hardware stack levels required when called:    7
  3858 ;; This function calls:
  3859 ;;		_I2C_Send
  3860 ;;		_I2C_Start
  3861 ;;		_I2C_Stop
  3862 ;; This function is called by:
  3863 ;;		_display
  3864 ;;		_display_time
  3865 ;; This function uses a non-reentrant model
  3866 ;;
  3867                           
  3868                           	psect	text14
  3869  0026D2                     __ptext14:
  3870                           	opt stack 0
  3871  0026D2                     _I2C_LCD_Putc:
  3872                           	opt stack 22
  3873                           
  3874                           ;incstack = 0
  3875                           ;I2C_LCD_Putc@c stored from wreg
  3876  0026D2  0100               	movlb	0	; () banked
  3877  0026D4  6FA8               	movwf	I2C_LCD_Putc@c& (0+255),b
  3878                           
  3879                           ; BSR set to: 0
  3880                           ;My_header\My_I2C.h: 118: uint8_t ans;
  3881                           ;My_header\My_I2C.h: 120: ans = I2C_Start(0x3E, 0);
  3882  0026D6  0E00               	movlw	0
  3883  0026D8  0100               	movlb	0	; () banked
  3884  0026DA  6FA6               	movwf	I2C_Start@rw& (0+255),b
  3885  0026DC  0E3E               	movlw	62
  3886  0026DE  EC9D  F013         	call	_I2C_Start
  3887  0026E2  0100               	movlb	0	; () banked
  3888  0026E4  6FA9               	movwf	I2C_LCD_Putc@ans& (0+255),b
  3889                           
  3890                           ; BSR set to: 0
  3891                           ;My_header\My_I2C.h: 121: if (ans == 0) {
  3892  0026E6  0100               	movlb	0	; () banked
  3893  0026E8  67A9               	tstfsz	I2C_LCD_Putc@ans& (0+255),b
  3894  0026EA  D007               	goto	l341
  3895                           
  3896                           ; BSR set to: 0
  3897                           ;My_header\My_I2C.h: 123: I2C_Send(0b11000000);
  3898  0026EC  0EC0               	movlw	192
  3899  0026EE  EC76  F014         	call	_I2C_Send
  3900                           
  3901                           ;My_header\My_I2C.h: 124: I2C_Send(c);
  3902  0026F2  0100               	movlb	0	; () banked
  3903  0026F4  51A8               	movf	I2C_LCD_Putc@c& (0+255),w,b
  3904  0026F6  EC76  F014         	call	_I2C_Send
  3905  0026FA                     l341:
  3906                           
  3907                           ;My_header\My_I2C.h: 125: }
  3908                           ;My_header\My_I2C.h: 126: I2C_Stop();
  3909  0026FA  EC8B  F014         	call	_I2C_Stop	;wreg free
  3910                           
  3911                           ;My_header\My_I2C.h: 127: _delay((unsigned long)((26)*(48000000/4000000.0)));
  3912  0026FE  0E68               	movlw	104
  3913  002700                     u4667:
  3914  002700  2EE8               	decfsz	wreg,f,c
  3915  002702  D7FE               	goto	u4667
  3916  002704  0012               	return	
  3917  002706                     __end_of_I2C_LCD_Putc:
  3918                           	opt stack 0
  3919                           tblptru	equ	0xFF8
  3920                           tblptrh	equ	0xFF7
  3921                           tblptrl	equ	0xFF6
  3922                           tablat	equ	0xFF5
  3923                           prodh	equ	0xFF4
  3924                           prodl	equ	0xFF3
  3925                           intcon	equ	0xFF2
  3926                           intcon2	equ	0xFF1
  3927                           indf0	equ	0xFEF
  3928                           postinc0	equ	0xFEE
  3929                           fsr0h	equ	0xFEA
  3930                           fsr0l	equ	0xFE9
  3931                           wreg	equ	0xFE8
  3932                           postdec1	equ	0xFE5
  3933                           fsr1l	equ	0xFE1
  3934                           indf2	equ	0xFDF
  3935                           postinc2	equ	0xFDE
  3936                           postdec2	equ	0xFDD
  3937                           fsr2h	equ	0xFDA
  3938                           fsr2l	equ	0xFD9
  3939                           status	equ	0xFD8
  3940                           
  3941 ;; *************** function _UART_init *****************
  3942 ;; Defined at:
  3943 ;;		line 189 in file "../My_header\My_header.h"
  3944 ;; Parameters:    Size  Location     Type
  3945 ;;		None
  3946 ;; Auto vars:     Size  Location     Type
  3947 ;;		None
  3948 ;; Return value:  Size  Location     Type
  3949 ;;		None               void
  3950 ;; Registers used:
  3951 ;;		wreg, status,2
  3952 ;; Tracked objects:
  3953 ;;		On entry : 0/0
  3954 ;;		On exit  : 0/0
  3955 ;;		Unchanged: 0/0
  3956 ;; Data sizes:     COMRAM   BANK0   BANK1   BANK2   BANK3   BANK4   BANK5   BANK6   BANK7   BANK8   BANK9  BANK10  BANK1
      +1  BANK12  BANK13  BANK14
  3957 ;;      Params:         0       0       0       0       0       0       0       0       0       0       0       0       
      +0       0       0       0
  3958 ;;      Locals:         0       0       0       0       0       0       0       0       0       0       0       0       
      +0       0       0       0
  3959 ;;      Temps:          0       0       0       0       0       0       0       0       0       0       0       0       
      +0       0       0       0
  3960 ;;      Totals:         0       0       0       0       0       0       0       0       0       0       0       0       
      +0       0       0       0
  3961 ;;Total ram usage:        0 bytes
  3962 ;; Hardware stack levels used:    1
  3963 ;; Hardware stack levels required when called:    5
  3964 ;; This function calls:
  3965 ;;		Nothing
  3966 ;; This function is called by:
  3967 ;;		_main
  3968 ;; This function uses a non-reentrant model
  3969 ;;
  3970                           
  3971                           	psect	text15
  3972  00283E                     __ptext15:
  3973                           	opt stack 0
  3974  00283E                     _UART_init:
  3975                           	opt stack 25
  3976                           
  3977                           ;My_header\My_header.h: 190: TXSTA1bits.TX9 = 0;
  3978                           
  3979                           ;incstack = 0
  3980  00283E  9CAD               	bcf	4013,6,c	;volatile
  3981                           
  3982                           ;My_header\My_header.h: 191: TXSTA1bits.TXEN = 1;
  3983  002840  8AAD               	bsf	4013,5,c	;volatile
  3984                           
  3985                           ;My_header\My_header.h: 192: TXSTA1bits.SYNC = 0;
  3986  002842  98AD               	bcf	4013,4,c	;volatile
  3987                           
  3988                           ;My_header\My_header.h: 193: TXSTA1bits.BRGH = 0;
  3989  002844  94AD               	bcf	4013,2,c	;volatile
  3990                           
  3991                           ;My_header\My_header.h: 194: RCSTA1bits.SPEN = 1;
  3992  002846  8EAC               	bsf	4012,7,c	;volatile
  3993                           
  3994                           ;My_header\My_header.h: 195: RCSTA1bits.RX9 = 0;
  3995  002848  9CAC               	bcf	4012,6,c	;volatile
  3996                           
  3997                           ;My_header\My_header.h: 196: RCSTA1bits.CREN = 1;
  3998  00284A  88AC               	bsf	4012,4,c	;volatile
  3999                           
  4000                           ;My_header\My_header.h: 197: BAUDCON1bits.BRG16 = 0;
  4001  00284C  967E               	bcf	3966,3,c	;volatile
  4002                           
  4003                           ;My_header\My_header.h: 198: SPBRG1 = 48000000 / 64 / 9600 - 1;
  4004  00284E  0E4D               	movlw	77
  4005  002850  6EB0               	movwf	4016,c	;volatile
  4006                           
  4007                           ;My_header\My_header.h: 199: SPBRGH1 = 0;
  4008  002852  0E00               	movlw	0
  4009  002854  6E7F               	movwf	3967,c	;volatile
  4010                           
  4011                           ;My_header\My_header.h: 200: IPR1bits.RC1IP = 0;
  4012  002856  9A9F               	bcf	3999,5,c	;volatile
  4013                           
  4014                           ;My_header\My_header.h: 201: PIE1bits.RC1IE = 1;
  4015  002858  8A9D               	bsf	3997,5,c	;volatile
  4016                           
  4017                           ;My_header\My_header.h: 202: INTCONbits.PEIE = 1;
  4018  00285A  8CF2               	bsf	intcon,6,c	;volatile
  4019  00285C  0012               	return	
  4020  00285E                     __end_of_UART_init:
  4021                           	opt stack 0
  4022                           tblptru	equ	0xFF8
  4023                           tblptrh	equ	0xFF7
  4024                           tblptrl	equ	0xFF6
  4025                           tablat	equ	0xFF5
  4026                           prodh	equ	0xFF4
  4027                           prodl	equ	0xFF3
  4028                           intcon	equ	0xFF2
  4029                           intcon2	equ	0xFF1
  4030                           indf0	equ	0xFEF
  4031                           postinc0	equ	0xFEE
  4032                           fsr0h	equ	0xFEA
  4033                           fsr0l	equ	0xFE9
  4034                           wreg	equ	0xFE8
  4035                           postdec1	equ	0xFE5
  4036                           fsr1l	equ	0xFE1
  4037                           indf2	equ	0xFDF
  4038                           postinc2	equ	0xFDE
  4039                           postdec2	equ	0xFDD
  4040                           fsr2h	equ	0xFDA
  4041                           fsr2l	equ	0xFD9
  4042                           status	equ	0xFD8
  4043                           
  4044 ;; *************** function _OUT *****************
  4045 ;; Defined at:
  4046 ;;		line 72 in file "PIC18F27J53-ChargeStation6-01.c"
  4047 ;; Parameters:    Size  Location     Type
  4048 ;;  b               1    wreg     unsigned char 
  4049 ;;  value           1    0[BANK0 ] unsigned char 
  4050 ;; Auto vars:     Size  Location     Type
  4051 ;;  b               1    1[BANK0 ] unsigned char 
  4052 ;; Return value:  Size  Location     Type
  4053 ;;		None               void
  4054 ;; Registers used:
  4055 ;;		wreg, status,2, status,0
  4056 ;; Tracked objects:
  4057 ;;		On entry : 0/0
  4058 ;;		On exit  : 0/0
  4059 ;;		Unchanged: 0/0
  4060 ;; Data sizes:     COMRAM   BANK0   BANK1   BANK2   BANK3   BANK4   BANK5   BANK6   BANK7   BANK8   BANK9  BANK10  BANK1
      +1  BANK12  BANK13  BANK14
  4061 ;;      Params:         0       1       0       0       0       0       0       0       0       0       0       0       
      +0       0       0       0
  4062 ;;      Locals:         0       1       0       0       0       0       0       0       0       0       0       0       
      +0       0       0       0
  4063 ;;      Temps:          0       0       0       0       0       0       0       0       0       0       0       0       
      +0       0       0       0
  4064 ;;      Totals:         0       2       0       0       0       0       0       0       0       0       0       0       
      +0       0       0       0
  4065 ;;Total ram usage:        2 bytes
  4066 ;; Hardware stack levels used:    1
  4067 ;; Hardware stack levels required when called:    5
  4068 ;; This function calls:
  4069 ;;		Nothing
  4070 ;; This function is called by:
  4071 ;;		_main
  4072 ;; This function uses a non-reentrant model
  4073 ;;
  4074                           
  4075                           	psect	text16
  4076  002488                     __ptext16:
  4077                           	opt stack 0
  4078  002488                     _OUT:
  4079                           	opt stack 25
  4080                           
  4081                           ;incstack = 0
  4082                           ;OUT@b stored from wreg
  4083  002488  0100               	movlb	0	; () banked
  4084  00248A  6FA5               	movwf	OUT@b& (0+255),b
  4085                           
  4086                           ; BSR set to: 0
  4087                           ;PIC18F27J53-ChargeStation6-01.c: 73: switch (b) {
  4088  00248C  D018               	goto	l4440
  4089  00248E                     l4426:
  4090                           
  4091                           ; BSR set to: 0
  4092                           ;PIC18F27J53-ChargeStation6-01.c: 75: if (value) {
  4093  00248E  0100               	movlb	0	; () banked
  4094  002490  51A4               	movf	OUT@value& (0+255),w,b
  4095  002492  B4D8               	btfsc	status,2,c
  4096  002494  D002               	goto	l535
  4097                           
  4098                           ; BSR set to: 0
  4099                           ;PIC18F27J53-ChargeStation6-01.c: 76: LATA5 = 0;
  4100  002496  9A89               	bcf	3977,5,c	;volatile
  4101                           
  4102                           ;PIC18F27J53-ChargeStation6-01.c: 77: } else {
  4103  002498  0012               	return	
  4104  00249A                     l535:
  4105                           
  4106                           ; BSR set to: 0
  4107                           ;PIC18F27J53-ChargeStation6-01.c: 78: LATA5 = 1;
  4108  00249A  8A89               	bsf	3977,5,c	;volatile
  4109  00249C  0012               	return	
  4110  00249E                     l4430:
  4111                           
  4112                           ; BSR set to: 0
  4113                           ;PIC18F27J53-ChargeStation6-01.c: 82: if (value) {
  4114  00249E  0100               	movlb	0	; () banked
  4115  0024A0  51A4               	movf	OUT@value& (0+255),w,b
  4116  0024A2  B4D8               	btfsc	status,2,c
  4117  0024A4  D002               	goto	l539
  4118                           
  4119                           ; BSR set to: 0
  4120                           ;PIC18F27J53-ChargeStation6-01.c: 83: LATA6 = 0;
  4121  0024A6  9C89               	bcf	3977,6,c	;volatile
  4122                           
  4123                           ;PIC18F27J53-ChargeStation6-01.c: 84: } else {
  4124  0024A8  0012               	return	
  4125  0024AA                     l539:
  4126                           
  4127                           ; BSR set to: 0
  4128                           ;PIC18F27J53-ChargeStation6-01.c: 85: LATA6 = 1;
  4129  0024AA  8C89               	bsf	3977,6,c	;volatile
  4130  0024AC  0012               	return	
  4131  0024AE                     l4434:
  4132                           
  4133                           ; BSR set to: 0
  4134                           ;PIC18F27J53-ChargeStation6-01.c: 89: if (value) {
  4135  0024AE  0100               	movlb	0	; () banked
  4136  0024B0  51A4               	movf	OUT@value& (0+255),w,b
  4137  0024B2  B4D8               	btfsc	status,2,c
  4138  0024B4  D002               	goto	l542
  4139                           
  4140                           ; BSR set to: 0
  4141                           ;PIC18F27J53-ChargeStation6-01.c: 90: LATA7 = 0;
  4142  0024B6  9E89               	bcf	3977,7,c	;volatile
  4143                           
  4144                           ;PIC18F27J53-ChargeStation6-01.c: 91: } else {
  4145  0024B8  0012               	return	
  4146  0024BA                     l542:
  4147                           
  4148                           ; BSR set to: 0
  4149                           ;PIC18F27J53-ChargeStation6-01.c: 92: LATA7 = 1;
  4150  0024BA  8E89               	bsf	3977,7,c	;volatile
  4151  0024BC  0012               	return	
  4152  0024BE                     l4440:
  4153                           
  4154                           ; BSR set to: 0
  4155  0024BE  0100               	movlb	0	; () banked
  4156  0024C0  51A5               	movf	OUT@b& (0+255),w,b
  4157                           
  4158                           ; Switch size 1, requested type "space"
  4159                           ; Number of cases is 3, Range of values is 0 to 2
  4160                           ; switch strategies available:
  4161                           ; Name         Instructions Cycles
  4162                           ; simple_byte           10     6 (average)
  4163                           ;	Chosen strategy is simple_byte
  4164  0024C2  0A00               	xorlw	0	; case 0
  4165  0024C4  B4D8               	btfsc	status,2,c
  4166  0024C6  D7E3               	goto	l4426
  4167  0024C8  0A01               	xorlw	1	; case 1
  4168  0024CA  B4D8               	btfsc	status,2,c
  4169  0024CC  D7E8               	goto	l4430
  4170  0024CE  0A03               	xorlw	3	; case 2
  4171  0024D0  A4D8               	btfss	status,2,c
  4172  0024D2  0012               	return	
  4173  0024D4  D7EC               	goto	l4434
  4174  0024D6                     __end_of_OUT:
  4175                           	opt stack 0
  4176                           tblptru	equ	0xFF8
  4177                           tblptrh	equ	0xFF7
  4178                           tblptrl	equ	0xFF6
  4179                           tablat	equ	0xFF5
  4180                           prodh	equ	0xFF4
  4181                           prodl	equ	0xFF3
  4182                           intcon	equ	0xFF2
  4183                           intcon2	equ	0xFF1
  4184                           indf0	equ	0xFEF
  4185                           postinc0	equ	0xFEE
  4186                           fsr0h	equ	0xFEA
  4187                           fsr0l	equ	0xFE9
  4188                           wreg	equ	0xFE8
  4189                           postdec1	equ	0xFE5
  4190                           fsr1l	equ	0xFE1
  4191                           indf2	equ	0xFDF
  4192                           postinc2	equ	0xFDE
  4193                           postdec2	equ	0xFDD
  4194                           fsr2h	equ	0xFDA
  4195                           fsr2l	equ	0xFD9
  4196                           status	equ	0xFD8
  4197                           
  4198 ;; *************** function _LED *****************
  4199 ;; Defined at:
  4200 ;;		line 98 in file "PIC18F27J53-ChargeStation6-01.c"
  4201 ;; Parameters:    Size  Location     Type
  4202 ;;  b               1    wreg     unsigned char 
  4203 ;;  value           1    0[BANK0 ] unsigned char 
  4204 ;; Auto vars:     Size  Location     Type
  4205 ;;  b               1    1[BANK0 ] unsigned char 
  4206 ;; Return value:  Size  Location     Type
  4207 ;;		None               void
  4208 ;; Registers used:
  4209 ;;		wreg, status,2, status,0
  4210 ;; Tracked objects:
  4211 ;;		On entry : 0/0
  4212 ;;		On exit  : 0/0
  4213 ;;		Unchanged: 0/0
  4214 ;; Data sizes:     COMRAM   BANK0   BANK1   BANK2   BANK3   BANK4   BANK5   BANK6   BANK7   BANK8   BANK9  BANK10  BANK1
      +1  BANK12  BANK13  BANK14
  4215 ;;      Params:         0       1       0       0       0       0       0       0       0       0       0       0       
      +0       0       0       0
  4216 ;;      Locals:         0       1       0       0       0       0       0       0       0       0       0       0       
      +0       0       0       0
  4217 ;;      Temps:          0       0       0       0       0       0       0       0       0       0       0       0       
      +0       0       0       0
  4218 ;;      Totals:         0       2       0       0       0       0       0       0       0       0       0       0       
      +0       0       0       0
  4219 ;;Total ram usage:        2 bytes
  4220 ;; Hardware stack levels used:    1
  4221 ;; Hardware stack levels required when called:    5
  4222 ;; This function calls:
  4223 ;;		Nothing
  4224 ;; This function is called by:
  4225 ;;		_main
  4226 ;; This function uses a non-reentrant model
  4227 ;;
  4228                           
  4229                           	psect	text17
  4230  002392                     __ptext17:
  4231                           	opt stack 0
  4232  002392                     _LED:
  4233                           	opt stack 25
  4234                           
  4235                           ; BSR set to: 0
  4236                           ;incstack = 0
  4237                           ;LED@b stored from wreg
  4238  002392  0100               	movlb	0	; () banked
  4239  002394  6FA5               	movwf	LED@b& (0+255),b
  4240                           
  4241                           ; BSR set to: 0
  4242                           ;PIC18F27J53-ChargeStation6-01.c: 99: switch (b) {
  4243  002396  D01B               	goto	l4446
  4244  002398                     l548:
  4245                           
  4246                           ; BSR set to: 0
  4247                           ;PIC18F27J53-ChargeStation6-01.c: 101: LATB7 = value;
  4248  002398  0100               	movlb	0	; () banked
  4249  00239A  A1A4               	btfss	LED@value& (0+255),0,b
  4250  00239C  D001               	bra	u4325
  4251  00239E  8E8A               	bsf	3978,7,c	;volatile
  4252  0023A0                     u4325:
  4253  0023A0  0100               	movlb	0	; () banked
  4254  0023A2  B1A4               	btfsc	LED@value& (0+255),0,b
  4255  0023A4  D001               	bra	u4326
  4256  0023A6  9E8A               	bcf	3978,7,c	;volatile
  4257  0023A8                     u4326:
  4258                           
  4259                           ;PIC18F27J53-ChargeStation6-01.c: 102: break;
  4260  0023A8  0012               	return	
  4261  0023AA                     l550:
  4262                           
  4263                           ; BSR set to: 0
  4264                           ;PIC18F27J53-ChargeStation6-01.c: 104: LATB6 = value;
  4265  0023AA  0100               	movlb	0	; () banked
  4266  0023AC  A1A4               	btfss	LED@value& (0+255),0,b
  4267  0023AE  D001               	bra	u4335
  4268  0023B0  8C8A               	bsf	3978,6,c	;volatile
  4269  0023B2                     u4335:
  4270  0023B2  0100               	movlb	0	; () banked
  4271  0023B4  B1A4               	btfsc	LED@value& (0+255),0,b
  4272  0023B6  D001               	bra	u4336
  4273  0023B8  9C8A               	bcf	3978,6,c	;volatile
  4274  0023BA                     u4336:
  4275                           
  4276                           ;PIC18F27J53-ChargeStation6-01.c: 105: break;
  4277  0023BA  0012               	return	
  4278  0023BC                     l551:
  4279                           
  4280                           ; BSR set to: 0
  4281                           ;PIC18F27J53-ChargeStation6-01.c: 107: LATC2 = value;
  4282  0023BC  0100               	movlb	0	; () banked
  4283  0023BE  A1A4               	btfss	LED@value& (0+255),0,b
  4284  0023C0  D001               	bra	u4345
  4285  0023C2  848B               	bsf	3979,2,c	;volatile
  4286  0023C4                     u4345:
  4287  0023C4  0100               	movlb	0	; () banked
  4288  0023C6  B1A4               	btfsc	LED@value& (0+255),0,b
  4289  0023C8  D001               	bra	u4346
  4290  0023CA  948B               	bcf	3979,2,c	;volatile
  4291  0023CC                     u4346:
  4292                           
  4293                           ;PIC18F27J53-ChargeStation6-01.c: 108: break;
  4294  0023CC  0012               	return	
  4295  0023CE                     l4446:
  4296                           
  4297                           ; BSR set to: 0
  4298  0023CE  0100               	movlb	0	; () banked
  4299  0023D0  51A5               	movf	LED@b& (0+255),w,b
  4300                           
  4301                           ; Switch size 1, requested type "space"
  4302                           ; Number of cases is 3, Range of values is 0 to 2
  4303                           ; switch strategies available:
  4304                           ; Name         Instructions Cycles
  4305                           ; simple_byte           10     6 (average)
  4306                           ;	Chosen strategy is simple_byte
  4307  0023D2  0A00               	xorlw	0	; case 0
  4308  0023D4  B4D8               	btfsc	status,2,c
  4309  0023D6  D7E0               	goto	l548
  4310  0023D8  0A01               	xorlw	1	; case 1
  4311  0023DA  B4D8               	btfsc	status,2,c
  4312  0023DC  D7E6               	goto	l550
  4313  0023DE  0A03               	xorlw	3	; case 2
  4314  0023E0  A4D8               	btfss	status,2,c
  4315  0023E2  0012               	return	
  4316  0023E4  D7EB               	goto	l551
  4317  0023E6                     __end_of_LED:
  4318                           	opt stack 0
  4319                           tblptru	equ	0xFF8
  4320                           tblptrh	equ	0xFF7
  4321                           tblptrl	equ	0xFF6
  4322                           tablat	equ	0xFF5
  4323                           prodh	equ	0xFF4
  4324                           prodl	equ	0xFF3
  4325                           intcon	equ	0xFF2
  4326                           intcon2	equ	0xFF1
  4327                           indf0	equ	0xFEF
  4328                           postinc0	equ	0xFEE
  4329                           fsr0h	equ	0xFEA
  4330                           fsr0l	equ	0xFE9
  4331                           wreg	equ	0xFE8
  4332                           postdec1	equ	0xFE5
  4333                           fsr1l	equ	0xFE1
  4334                           indf2	equ	0xFDF
  4335                           postinc2	equ	0xFDE
  4336                           postdec2	equ	0xFDD
  4337                           fsr2h	equ	0xFDA
  4338                           fsr2l	equ	0xFD9
  4339                           status	equ	0xFD8
  4340                           
  4341 ;; *************** function _I2C_init *****************
  4342 ;; Defined at:
  4343 ;;		line 23 in file "../My_header\My_I2C.h"
  4344 ;; Parameters:    Size  Location     Type
  4345 ;;		None
  4346 ;; Auto vars:     Size  Location     Type
  4347 ;;		None
  4348 ;; Return value:  Size  Location     Type
  4349 ;;		None               void
  4350 ;; Registers used:
  4351 ;;		wreg, status,2
  4352 ;; Tracked objects:
  4353 ;;		On entry : 0/0
  4354 ;;		On exit  : 0/0
  4355 ;;		Unchanged: 0/0
  4356 ;; Data sizes:     COMRAM   BANK0   BANK1   BANK2   BANK3   BANK4   BANK5   BANK6   BANK7   BANK8   BANK9  BANK10  BANK1
      +1  BANK12  BANK13  BANK14
  4357 ;;      Params:         0       0       0       0       0       0       0       0       0       0       0       0       
      +0       0       0       0
  4358 ;;      Locals:         0       0       0       0       0       0       0       0       0       0       0       0       
      +0       0       0       0
  4359 ;;      Temps:          0       0       0       0       0       0       0       0       0       0       0       0       
      +0       0       0       0
  4360 ;;      Totals:         0       0       0       0       0       0       0       0       0       0       0       0       
      +0       0       0       0
  4361 ;;Total ram usage:        0 bytes
  4362 ;; Hardware stack levels used:    1
  4363 ;; Hardware stack levels required when called:    5
  4364 ;; This function calls:
  4365 ;;		Nothing
  4366 ;; This function is called by:
  4367 ;;		_main
  4368 ;; This function uses a non-reentrant model
  4369 ;;
  4370                           
  4371                           	psect	text18
  4372  002904                     __ptext18:
  4373                           	opt stack 0
  4374  002904                     _I2C_init:
  4375                           	opt stack 25
  4376                           
  4377                           ;My_header\My_I2C.h: 24: SSP1STAT = 0b10000000;
  4378                           
  4379                           ; BSR set to: 0
  4380                           ;incstack = 0
  4381  002904  0E80               	movlw	128
  4382  002906  6EC7               	movwf	4039,c	;volatile
  4383                           
  4384                           ;My_header\My_I2C.h: 25: SSP1CON1 = 0b00101000;
  4385  002908  0E28               	movlw	40
  4386  00290A  6EC6               	movwf	4038,c	;volatile
  4387                           
  4388                           ;My_header\My_I2C.h: 26: SSP1ADD = 0x13;
  4389  00290C  0E13               	movlw	19
  4390  00290E  6EC8               	movwf	4040,c	;volatile
  4391                           
  4392                           ;My_header\My_I2C.h: 29: SSP1IF = 0;
  4393  002910  969E               	bcf	3998,3,c	;volatile
  4394                           
  4395                           ;My_header\My_I2C.h: 30: BCL1IF = 0;
  4396  002912  96A1               	bcf	4001,3,c	;volatile
  4397  002914  0012               	return	
  4398  002916                     __end_of_I2C_init:
  4399                           	opt stack 0
  4400                           tblptru	equ	0xFF8
  4401                           tblptrh	equ	0xFF7
  4402                           tblptrl	equ	0xFF6
  4403                           tablat	equ	0xFF5
  4404                           prodh	equ	0xFF4
  4405                           prodl	equ	0xFF3
  4406                           intcon	equ	0xFF2
  4407                           intcon2	equ	0xFF1
  4408                           indf0	equ	0xFEF
  4409                           postinc0	equ	0xFEE
  4410                           fsr0h	equ	0xFEA
  4411                           fsr0l	equ	0xFE9
  4412                           wreg	equ	0xFE8
  4413                           postdec1	equ	0xFE5
  4414                           fsr1l	equ	0xFE1
  4415                           indf2	equ	0xFDF
  4416                           postinc2	equ	0xFDE
  4417                           postdec2	equ	0xFDD
  4418                           fsr2h	equ	0xFDA
  4419                           fsr2l	equ	0xFD9
  4420                           status	equ	0xFD8
  4421                           
  4422 ;; *************** function _I2C_LCD_init *****************
  4423 ;; Defined at:
  4424 ;;		line 163 in file "../My_header\My_I2C.h"
  4425 ;; Parameters:    Size  Location     Type
  4426 ;;		None
  4427 ;; Auto vars:     Size  Location     Type
  4428 ;;		None
  4429 ;; Return value:  Size  Location     Type
  4430 ;;		None               void
  4431 ;; Registers used:
  4432 ;;		wreg, status,2, status,0, cstack
  4433 ;; Tracked objects:
  4434 ;;		On entry : 0/0
  4435 ;;		On exit  : 0/0
  4436 ;;		Unchanged: 0/0
  4437 ;; Data sizes:     COMRAM   BANK0   BANK1   BANK2   BANK3   BANK4   BANK5   BANK6   BANK7   BANK8   BANK9  BANK10  BANK1
      +1  BANK12  BANK13  BANK14
  4438 ;;      Params:         0       0       0       0       0       0       0       0       0       0       0       0       
      +0       0       0       0
  4439 ;;      Locals:         0       0       0       0       0       0       0       0       0       0       0       0       
      +0       0       0       0
  4440 ;;      Temps:          0       0       0       0       0       0       0       0       0       0       0       0       
      +0       0       0       0
  4441 ;;      Totals:         0       0       0       0       0       0       0       0       0       0       0       0       
      +0       0       0       0
  4442 ;;Total ram usage:        0 bytes
  4443 ;; Hardware stack levels used:    1
  4444 ;; Hardware stack levels required when called:    9
  4445 ;; This function calls:
  4446 ;;		_Delay_ms
  4447 ;;		_I2C_LCD_Clear
  4448 ;;		_I2C_LCD_Command
  4449 ;; This function is called by:
  4450 ;;		_main
  4451 ;; This function uses a non-reentrant model
  4452 ;;
  4453                           
  4454                           	psect	text19
  4455  0022DC                     __ptext19:
  4456                           	opt stack 0
  4457  0022DC                     _I2C_LCD_init:
  4458                           	opt stack 21
  4459                           
  4460                           ;My_header\My_I2C.h: 164: Delay_ms(40);
  4461                           
  4462                           ;incstack = 0
  4463  0022DC  0E00               	movlw	0
  4464  0022DE  0100               	movlb	0	; () banked
  4465  0022E0  6FA5               	movwf	(Delay_ms@ms+1)& (0+255),b
  4466  0022E2  0E28               	movlw	40
  4467  0022E4  0100               	movlb	0	; () banked
  4468  0022E6  6FA4               	movwf	Delay_ms@ms& (0+255),b
  4469  0022E8  ECE4  F013         	call	_Delay_ms	;wreg free
  4470                           
  4471                           ;My_header\My_I2C.h: 165: I2C_LCD_Command(0x38);
  4472  0022EC  0E38               	movlw	56
  4473  0022EE  EC83  F013         	call	_I2C_LCD_Command
  4474                           
  4475                           ;My_header\My_I2C.h: 166: I2C_LCD_Command(0x39);
  4476  0022F2  0E39               	movlw	57
  4477  0022F4  EC83  F013         	call	_I2C_LCD_Command
  4478                           
  4479                           ;My_header\My_I2C.h: 167: I2C_LCD_Command(0x14);
  4480  0022F8  0E14               	movlw	20
  4481  0022FA  EC83  F013         	call	_I2C_LCD_Command
  4482                           
  4483                           ;My_header\My_I2C.h: 168: I2C_LCD_Command(0x70);
  4484  0022FE  0E70               	movlw	112
  4485  002300  EC83  F013         	call	_I2C_LCD_Command
  4486                           
  4487                           ;My_header\My_I2C.h: 169: I2C_LCD_Command(0x56);
  4488  002304  0E56               	movlw	86
  4489  002306  EC83  F013         	call	_I2C_LCD_Command
  4490                           
  4491                           ;My_header\My_I2C.h: 170: I2C_LCD_Command(0x6C);
  4492  00230A  0E6C               	movlw	108
  4493  00230C  EC83  F013         	call	_I2C_LCD_Command
  4494                           
  4495                           ;My_header\My_I2C.h: 171: Delay_ms(200);
  4496  002310  0E00               	movlw	0
  4497  002312  0100               	movlb	0	; () banked
  4498  002314  6FA5               	movwf	(Delay_ms@ms+1)& (0+255),b
  4499  002316  0EC8               	movlw	200
  4500  002318  0100               	movlb	0	; () banked
  4501  00231A  6FA4               	movwf	Delay_ms@ms& (0+255),b
  4502  00231C  ECE4  F013         	call	_Delay_ms	;wreg free
  4503                           
  4504                           ;My_header\My_I2C.h: 172: I2C_LCD_Command(0x38);
  4505  002320  0E38               	movlw	56
  4506  002322  EC83  F013         	call	_I2C_LCD_Command
  4507                           
  4508                           ;My_header\My_I2C.h: 173: I2C_LCD_Command(0x0C);
  4509  002326  0E0C               	movlw	12
  4510  002328  EC83  F013         	call	_I2C_LCD_Command
  4511                           
  4512                           ;My_header\My_I2C.h: 174: I2C_LCD_Command(0x06);
  4513  00232C  0E06               	movlw	6
  4514  00232E  EC83  F013         	call	_I2C_LCD_Command
  4515                           
  4516                           ;My_header\My_I2C.h: 175: I2C_LCD_Clear();
  4517  002332  EC5C  F014         	call	_I2C_LCD_Clear	;wreg free
  4518  002336  0012               	return	
  4519  002338                     __end_of_I2C_LCD_init:
  4520                           	opt stack 0
  4521                           tblptru	equ	0xFF8
  4522                           tblptrh	equ	0xFF7
  4523                           tblptrl	equ	0xFF6
  4524                           tablat	equ	0xFF5
  4525                           prodh	equ	0xFF4
  4526                           prodl	equ	0xFF3
  4527                           intcon	equ	0xFF2
  4528                           intcon2	equ	0xFF1
  4529                           indf0	equ	0xFEF
  4530                           postinc0	equ	0xFEE
  4531                           fsr0h	equ	0xFEA
  4532                           fsr0l	equ	0xFE9
  4533                           wreg	equ	0xFE8
  4534                           postdec1	equ	0xFE5
  4535                           fsr1l	equ	0xFE1
  4536                           indf2	equ	0xFDF
  4537                           postinc2	equ	0xFDE
  4538                           postdec2	equ	0xFDD
  4539                           fsr2h	equ	0xFDA
  4540                           fsr2l	equ	0xFD9
  4541                           status	equ	0xFD8
  4542                           
  4543 ;; *************** function _I2C_LCD_Clear *****************
  4544 ;; Defined at:
  4545 ;;		line 106 in file "../My_header\My_I2C.h"
  4546 ;; Parameters:    Size  Location     Type
  4547 ;;		None
  4548 ;; Auto vars:     Size  Location     Type
  4549 ;;		None
  4550 ;; Return value:  Size  Location     Type
  4551 ;;		None               void
  4552 ;; Registers used:
  4553 ;;		wreg, status,2, status,0, cstack
  4554 ;; Tracked objects:
  4555 ;;		On entry : 0/0
  4556 ;;		On exit  : 0/0
  4557 ;;		Unchanged: 0/0
  4558 ;; Data sizes:     COMRAM   BANK0   BANK1   BANK2   BANK3   BANK4   BANK5   BANK6   BANK7   BANK8   BANK9  BANK10  BANK1
      +1  BANK12  BANK13  BANK14
  4559 ;;      Params:         0       0       0       0       0       0       0       0       0       0       0       0       
      +0       0       0       0
  4560 ;;      Locals:         0       0       0       0       0       0       0       0       0       0       0       0       
      +0       0       0       0
  4561 ;;      Temps:          0       1       0       0       0       0       0       0       0       0       0       0       
      +0       0       0       0
  4562 ;;      Totals:         0       1       0       0       0       0       0       0       0       0       0       0       
      +0       0       0       0
  4563 ;;Total ram usage:        1 bytes
  4564 ;; Hardware stack levels used:    1
  4565 ;; Hardware stack levels required when called:    8
  4566 ;; This function calls:
  4567 ;;		_I2C_LCD_Command
  4568 ;; This function is called by:
  4569 ;;		_I2C_LCD_init
  4570 ;;		_display
  4571 ;;		_main
  4572 ;; This function uses a non-reentrant model
  4573 ;;
  4574                           
  4575                           	psect	text20
  4576  0028B8                     __ptext20:
  4577                           	opt stack 0
  4578  0028B8                     _I2C_LCD_Clear:
  4579                           	opt stack 21
  4580                           
  4581                           ;My_header\My_I2C.h: 107: I2C_LCD_Command(0x01);
  4582                           
  4583                           ;incstack = 0
  4584  0028B8  0E01               	movlw	1
  4585  0028BA  EC83  F013         	call	_I2C_LCD_Command
  4586                           
  4587                           ;My_header\My_I2C.h: 108: _delay((unsigned long)((1100)*(48000000/4000000.0)));
  4588  0028BE  0E12               	movlw	18
  4589  0028C0  0100               	movlb	0	; () banked
  4590  0028C2  6FAA               	movwf	??_I2C_LCD_Clear& (0+255),b
  4591  0028C4  0E23               	movlw	35
  4592  0028C6                     u4677:
  4593  0028C6  2EE8               	decfsz	wreg,f,c
  4594  0028C8  D7FE               	goto	u4677
  4595  0028CA  2FAA               	decfsz	??_I2C_LCD_Clear& (0+255),f,b
  4596  0028CC  D7FC               	goto	u4677
  4597  0028CE  F000               	nop	
  4598  0028D0  0012               	return	
  4599  0028D2                     __end_of_I2C_LCD_Clear:
  4600                           	opt stack 0
  4601                           tblptru	equ	0xFF8
  4602                           tblptrh	equ	0xFF7
  4603                           tblptrl	equ	0xFF6
  4604                           tablat	equ	0xFF5
  4605                           prodh	equ	0xFF4
  4606                           prodl	equ	0xFF3
  4607                           intcon	equ	0xFF2
  4608                           intcon2	equ	0xFF1
  4609                           indf0	equ	0xFEF
  4610                           postinc0	equ	0xFEE
  4611                           fsr0h	equ	0xFEA
  4612                           fsr0l	equ	0xFE9
  4613                           wreg	equ	0xFE8
  4614                           postdec1	equ	0xFE5
  4615                           fsr1l	equ	0xFE1
  4616                           indf2	equ	0xFDF
  4617                           postinc2	equ	0xFDE
  4618                           postdec2	equ	0xFDD
  4619                           fsr2h	equ	0xFDA
  4620                           fsr2l	equ	0xFD9
  4621                           status	equ	0xFD8
  4622                           
  4623 ;; *************** function _I2C_LCD_Command *****************
  4624 ;; Defined at:
  4625 ;;		line 93 in file "../My_header\My_I2C.h"
  4626 ;; Parameters:    Size  Location     Type
  4627 ;;  c               1    wreg     unsigned char 
  4628 ;; Auto vars:     Size  Location     Type
  4629 ;;  c               1    4[BANK0 ] unsigned char 
  4630 ;;  ans             1    5[BANK0 ] unsigned char 
  4631 ;; Return value:  Size  Location     Type
  4632 ;;		None               void
  4633 ;; Registers used:
  4634 ;;		wreg, status,2, status,0, cstack
  4635 ;; Tracked objects:
  4636 ;;		On entry : 0/0
  4637 ;;		On exit  : 0/0
  4638 ;;		Unchanged: 0/0
  4639 ;; Data sizes:     COMRAM   BANK0   BANK1   BANK2   BANK3   BANK4   BANK5   BANK6   BANK7   BANK8   BANK9  BANK10  BANK1
      +1  BANK12  BANK13  BANK14
  4640 ;;      Params:         0       0       0       0       0       0       0       0       0       0       0       0       
      +0       0       0       0
  4641 ;;      Locals:         0       2       0       0       0       0       0       0       0       0       0       0       
      +0       0       0       0
  4642 ;;      Temps:          0       0       0       0       0       0       0       0       0       0       0       0       
      +0       0       0       0
  4643 ;;      Totals:         0       2       0       0       0       0       0       0       0       0       0       0       
      +0       0       0       0
  4644 ;;Total ram usage:        2 bytes
  4645 ;; Hardware stack levels used:    1
  4646 ;; Hardware stack levels required when called:    7
  4647 ;; This function calls:
  4648 ;;		_I2C_Send
  4649 ;;		_I2C_Start
  4650 ;;		_I2C_Stop
  4651 ;; This function is called by:
  4652 ;;		_I2C_LCD_Clear
  4653 ;;		_I2C_LCD_SetCursor
  4654 ;;		_I2C_LCD_init
  4655 ;; This function uses a non-reentrant model
  4656 ;;
  4657                           
  4658                           	psect	text21
  4659  002706                     __ptext21:
  4660                           	opt stack 0
  4661  002706                     _I2C_LCD_Command:
  4662                           	opt stack 21
  4663                           
  4664                           ;incstack = 0
  4665                           ;I2C_LCD_Command@c stored from wreg
  4666  002706  0100               	movlb	0	; () banked
  4667  002708  6FA8               	movwf	I2C_LCD_Command@c& (0+255),b
  4668                           
  4669                           ; BSR set to: 0
  4670                           ;My_header\My_I2C.h: 94: uint8_t ans;
  4671                           ;My_header\My_I2C.h: 96: ans = I2C_Start(0x3E, 0);
  4672  00270A  0E00               	movlw	0
  4673  00270C  0100               	movlb	0	; () banked
  4674  00270E  6FA6               	movwf	I2C_Start@rw& (0+255),b
  4675  002710  0E3E               	movlw	62
  4676  002712  EC9D  F013         	call	_I2C_Start
  4677  002716  0100               	movlb	0	; () banked
  4678  002718  6FA9               	movwf	I2C_LCD_Command@ans& (0+255),b
  4679                           
  4680                           ; BSR set to: 0
  4681                           ;My_header\My_I2C.h: 97: if (ans == 0) {
  4682  00271A  0100               	movlb	0	; () banked
  4683  00271C  67A9               	tstfsz	I2C_LCD_Command@ans& (0+255),b
  4684  00271E  D007               	goto	l329
  4685                           
  4686                           ; BSR set to: 0
  4687                           ;My_header\My_I2C.h: 99: I2C_Send(0b10000000);
  4688  002720  0E80               	movlw	128
  4689  002722  EC76  F014         	call	_I2C_Send
  4690                           
  4691                           ;My_header\My_I2C.h: 100: I2C_Send(c);
  4692  002726  0100               	movlb	0	; () banked
  4693  002728  51A8               	movf	I2C_LCD_Command@c& (0+255),w,b
  4694  00272A  EC76  F014         	call	_I2C_Send
  4695  00272E                     l329:
  4696                           
  4697                           ;My_header\My_I2C.h: 101: }
  4698                           ;My_header\My_I2C.h: 102: I2C_Stop();
  4699  00272E  EC8B  F014         	call	_I2C_Stop	;wreg free
  4700                           
  4701                           ;My_header\My_I2C.h: 103: _delay((unsigned long)((26)*(48000000/4000000.0)));
  4702  002732  0E68               	movlw	104
  4703  002734                     u4687:
  4704  002734  2EE8               	decfsz	wreg,f,c
  4705  002736  D7FE               	goto	u4687
  4706  002738  0012               	return	
  4707  00273A                     __end_of_I2C_LCD_Command:
  4708                           	opt stack 0
  4709                           tblptru	equ	0xFF8
  4710                           tblptrh	equ	0xFF7
  4711                           tblptrl	equ	0xFF6
  4712                           tablat	equ	0xFF5
  4713                           prodh	equ	0xFF4
  4714                           prodl	equ	0xFF3
  4715                           intcon	equ	0xFF2
  4716                           intcon2	equ	0xFF1
  4717                           indf0	equ	0xFEF
  4718                           postinc0	equ	0xFEE
  4719                           fsr0h	equ	0xFEA
  4720                           fsr0l	equ	0xFE9
  4721                           wreg	equ	0xFE8
  4722                           postdec1	equ	0xFE5
  4723                           fsr1l	equ	0xFE1
  4724                           indf2	equ	0xFDF
  4725                           postinc2	equ	0xFDE
  4726                           postdec2	equ	0xFDD
  4727                           fsr2h	equ	0xFDA
  4728                           fsr2l	equ	0xFD9
  4729                           status	equ	0xFD8
  4730                           
  4731 ;; *************** function _I2C_Stop *****************
  4732 ;; Defined at:
  4733 ;;		line 57 in file "../My_header\My_I2C.h"
  4734 ;; Parameters:    Size  Location     Type
  4735 ;;		None
  4736 ;; Auto vars:     Size  Location     Type
  4737 ;;		None
  4738 ;; Return value:  Size  Location     Type
  4739 ;;		None               void
  4740 ;; Registers used:
  4741 ;;		wreg, status,2, status,0, cstack
  4742 ;; Tracked objects:
  4743 ;;		On entry : 0/0
  4744 ;;		On exit  : 0/0
  4745 ;;		Unchanged: 0/0
  4746 ;; Data sizes:     COMRAM   BANK0   BANK1   BANK2   BANK3   BANK4   BANK5   BANK6   BANK7   BANK8   BANK9  BANK10  BANK1
      +1  BANK12  BANK13  BANK14
  4747 ;;      Params:         0       0       0       0       0       0       0       0       0       0       0       0       
      +0       0       0       0
  4748 ;;      Locals:         0       0       0       0       0       0       0       0       0       0       0       0       
      +0       0       0       0
  4749 ;;      Temps:          0       0       0       0       0       0       0       0       0       0       0       0       
      +0       0       0       0
  4750 ;;      Totals:         0       0       0       0       0       0       0       0       0       0       0       0       
      +0       0       0       0
  4751 ;;Total ram usage:        0 bytes
  4752 ;; Hardware stack levels used:    1
  4753 ;; Hardware stack levels required when called:    6
  4754 ;; This function calls:
  4755 ;;		_I2C_IdleCheck
  4756 ;; This function is called by:
  4757 ;;		_I2C_LCD_Command
  4758 ;;		_I2C_LCD_Putc
  4759 ;;		_I2C_LCD_Puts
  4760 ;;		_I2C_LCD_CreateChar
  4761 ;; This function uses a non-reentrant model
  4762 ;;
  4763                           
  4764                           	psect	text22
  4765  002916                     __ptext22:
  4766                           	opt stack 0
  4767  002916                     _I2C_Stop:
  4768                           	opt stack 21
  4769                           
  4770                           ;My_header\My_I2C.h: 59: I2C_IdleCheck(0x5);
  4771                           
  4772                           ;incstack = 0
  4773  002916  0E05               	movlw	5
  4774  002918  EC3F  F014         	call	_I2C_IdleCheck
  4775                           
  4776                           ;My_header\My_I2C.h: 60: SSP1CON2bits.PEN = 1;
  4777  00291C  84C5               	bsf	4037,2,c	;volatile
  4778  00291E  0012               	return	
  4779  002920                     __end_of_I2C_Stop:
  4780                           	opt stack 0
  4781                           tblptru	equ	0xFF8
  4782                           tblptrh	equ	0xFF7
  4783                           tblptrl	equ	0xFF6
  4784                           tablat	equ	0xFF5
  4785                           prodh	equ	0xFF4
  4786                           prodl	equ	0xFF3
  4787                           intcon	equ	0xFF2
  4788                           intcon2	equ	0xFF1
  4789                           indf0	equ	0xFEF
  4790                           postinc0	equ	0xFEE
  4791                           fsr0h	equ	0xFEA
  4792                           fsr0l	equ	0xFE9
  4793                           wreg	equ	0xFE8
  4794                           postdec1	equ	0xFE5
  4795                           fsr1l	equ	0xFE1
  4796                           indf2	equ	0xFDF
  4797                           postinc2	equ	0xFDE
  4798                           postdec2	equ	0xFDD
  4799                           fsr2h	equ	0xFDA
  4800                           fsr2l	equ	0xFD9
  4801                           status	equ	0xFD8
  4802                           
  4803 ;; *************** function _I2C_Start *****************
  4804 ;; Defined at:
  4805 ;;		line 33 in file "../My_header\My_I2C.h"
  4806 ;; Parameters:    Size  Location     Type
  4807 ;;  adrs            1    wreg     unsigned char 
  4808 ;;  rw              1    2[BANK0 ] unsigned char 
  4809 ;; Auto vars:     Size  Location     Type
  4810 ;;  adrs            1    3[BANK0 ] unsigned char 
  4811 ;; Return value:  Size  Location     Type
  4812 ;;                  1    wreg      unsigned char 
  4813 ;; Registers used:
  4814 ;;		wreg, status,2, status,0, cstack
  4815 ;; Tracked objects:
  4816 ;;		On entry : 0/0
  4817 ;;		On exit  : 0/0
  4818 ;;		Unchanged: 0/0
  4819 ;; Data sizes:     COMRAM   BANK0   BANK1   BANK2   BANK3   BANK4   BANK5   BANK6   BANK7   BANK8   BANK9  BANK10  BANK1
      +1  BANK12  BANK13  BANK14
  4820 ;;      Params:         0       1       0       0       0       0       0       0       0       0       0       0       
      +0       0       0       0
  4821 ;;      Locals:         0       1       0       0       0       0       0       0       0       0       0       0       
      +0       0       0       0
  4822 ;;      Temps:          0       0       0       0       0       0       0       0       0       0       0       0       
      +0       0       0       0
  4823 ;;      Totals:         0       2       0       0       0       0       0       0       0       0       0       0       
      +0       0       0       0
  4824 ;;Total ram usage:        2 bytes
  4825 ;; Hardware stack levels used:    1
  4826 ;; Hardware stack levels required when called:    6
  4827 ;; This function calls:
  4828 ;;		_I2C_IdleCheck
  4829 ;; This function is called by:
  4830 ;;		_I2C_LCD_Command
  4831 ;;		_I2C_LCD_Putc
  4832 ;;		_I2C_LCD_Puts
  4833 ;;		_I2C_LCD_CreateChar
  4834 ;; This function uses a non-reentrant model
  4835 ;;
  4836                           
  4837                           	psect	text23
  4838  00273A                     __ptext23:
  4839                           	opt stack 0
  4840  00273A                     _I2C_Start:
  4841                           	opt stack 21
  4842                           
  4843                           ;incstack = 0
  4844                           ;I2C_Start@adrs stored from wreg
  4845  00273A  0100               	movlb	0	; () banked
  4846  00273C  6FA7               	movwf	I2C_Start@adrs& (0+255),b
  4847                           
  4848                           ; BSR set to: 0
  4849                           ;My_header\My_I2C.h: 35: I2C_IdleCheck(0x5);
  4850  00273E  0E05               	movlw	5
  4851  002740  EC3F  F014         	call	_I2C_IdleCheck
  4852                           
  4853                           ;My_header\My_I2C.h: 36: SSP1CON2bits.SEN = 1;
  4854  002744  80C5               	bsf	4037,0,c	;volatile
  4855                           
  4856                           ;My_header\My_I2C.h: 38: I2C_IdleCheck(0x5);
  4857  002746  0E05               	movlw	5
  4858  002748  EC3F  F014         	call	_I2C_IdleCheck
  4859                           
  4860                           ;My_header\My_I2C.h: 39: SSP1IF = 0;
  4861  00274C  969E               	bcf	3998,3,c	;volatile
  4862                           
  4863                           ;My_header\My_I2C.h: 40: SSP1BUF = (uint8_t) ((adrs << 1) + rw);
  4864  00274E  0100               	movlb	0	; () banked
  4865  002750  51A7               	movf	I2C_Start@adrs& (0+255),w,b
  4866  002752  0100               	movlb	0	; () banked
  4867  002754  25A7               	addwf	I2C_Start@adrs& (0+255),w,b
  4868  002756  0100               	movlb	0	; () banked
  4869  002758  25A6               	addwf	I2C_Start@rw& (0+255),w,b
  4870  00275A  6EC9               	movwf	4041,c	;volatile
  4871  00275C                     l305:
  4872                           
  4873                           ; BSR set to: 0
  4874  00275C  A69E               	btfss	3998,3,c	;volatile
  4875  00275E  D7FE               	goto	l305
  4876                           
  4877                           ; BSR set to: 0
  4878                           ;My_header\My_I2C.h: 42: return SSP1CON2bits.ACKSTAT;
  4879                           
  4880                           ; BSR set to: 0
  4881  002760  ACC5               	btfss	4037,6,c	;volatile
  4882  002762  D002               	goto	u3780
  4883  002764  0E01               	movlw	1
  4884  002766  0012               	return	
  4885  002768                     u3780:
  4886  002768  0E00               	movlw	0
  4887  00276A  0012               	return	
  4888  00276C                     __end_of_I2C_Start:
  4889                           	opt stack 0
  4890                           tblptru	equ	0xFF8
  4891                           tblptrh	equ	0xFF7
  4892                           tblptrl	equ	0xFF6
  4893                           tablat	equ	0xFF5
  4894                           prodh	equ	0xFF4
  4895                           prodl	equ	0xFF3
  4896                           intcon	equ	0xFF2
  4897                           intcon2	equ	0xFF1
  4898                           indf0	equ	0xFEF
  4899                           postinc0	equ	0xFEE
  4900                           fsr0h	equ	0xFEA
  4901                           fsr0l	equ	0xFE9
  4902                           wreg	equ	0xFE8
  4903                           postdec1	equ	0xFE5
  4904                           fsr1l	equ	0xFE1
  4905                           indf2	equ	0xFDF
  4906                           postinc2	equ	0xFDE
  4907                           postdec2	equ	0xFDD
  4908                           fsr2h	equ	0xFDA
  4909                           fsr2l	equ	0xFD9
  4910                           status	equ	0xFD8
  4911                           
  4912 ;; *************** function _I2C_Send *****************
  4913 ;; Defined at:
  4914 ;;		line 63 in file "../My_header\My_I2C.h"
  4915 ;; Parameters:    Size  Location     Type
  4916 ;;  data            1    wreg     unsigned char 
  4917 ;; Auto vars:     Size  Location     Type
  4918 ;;  data            1    2[BANK0 ] unsigned char 
  4919 ;; Return value:  Size  Location     Type
  4920 ;;                  1    wreg      unsigned char 
  4921 ;; Registers used:
  4922 ;;		wreg, status,2, status,0, cstack
  4923 ;; Tracked objects:
  4924 ;;		On entry : 0/0
  4925 ;;		On exit  : 0/0
  4926 ;;		Unchanged: 0/0
  4927 ;; Data sizes:     COMRAM   BANK0   BANK1   BANK2   BANK3   BANK4   BANK5   BANK6   BANK7   BANK8   BANK9  BANK10  BANK1
      +1  BANK12  BANK13  BANK14
  4928 ;;      Params:         0       0       0       0       0       0       0       0       0       0       0       0       
      +0       0       0       0
  4929 ;;      Locals:         0       1       0       0       0       0       0       0       0       0       0       0       
      +0       0       0       0
  4930 ;;      Temps:          0       0       0       0       0       0       0       0       0       0       0       0       
      +0       0       0       0
  4931 ;;      Totals:         0       1       0       0       0       0       0       0       0       0       0       0       
      +0       0       0       0
  4932 ;;Total ram usage:        1 bytes
  4933 ;; Hardware stack levels used:    1
  4934 ;; Hardware stack levels required when called:    6
  4935 ;; This function calls:
  4936 ;;		_I2C_IdleCheck
  4937 ;; This function is called by:
  4938 ;;		_I2C_LCD_Command
  4939 ;;		_I2C_LCD_Putc
  4940 ;;		_I2C_LCD_Puts
  4941 ;;		_I2C_LCD_CreateChar
  4942 ;; This function uses a non-reentrant model
  4943 ;;
  4944                           
  4945                           	psect	text24
  4946  0028EC                     __ptext24:
  4947                           	opt stack 0
  4948  0028EC                     _I2C_Send:
  4949                           	opt stack 21
  4950                           
  4951                           ; BSR set to: 0
  4952                           ;incstack = 0
  4953                           ;I2C_Send@data stored from wreg
  4954  0028EC  0100               	movlb	0	; () banked
  4955  0028EE  6FA6               	movwf	I2C_Send@data& (0+255),b
  4956                           
  4957                           ; BSR set to: 0
  4958                           ;My_header\My_I2C.h: 64: I2C_IdleCheck(0x5);
  4959  0028F0  0E05               	movlw	5
  4960  0028F2  EC3F  F014         	call	_I2C_IdleCheck
  4961                           
  4962                           ;My_header\My_I2C.h: 65: SSP1IF = 0;
  4963  0028F6  969E               	bcf	3998,3,c	;volatile
  4964                           
  4965                           ;My_header\My_I2C.h: 66: SSP1BUF = data;
  4966  0028F8  C0A6  FFC9         	movff	I2C_Send@data,4041	;volatile
  4967  0028FC                     l320:
  4968  0028FC  A69E               	btfss	3998,3,c	;volatile
  4969  0028FE  D7FE               	goto	l320
  4970                           
  4971                           ;My_header\My_I2C.h: 68: return SSP1CON2bits.ACKSTAT;
  4972                           ;	Return value of _I2C_Send is never used
  4973  002900  50C5               	movf	4037,w,c	;volatile
  4974  002902  0012               	return	
  4975  002904                     __end_of_I2C_Send:
  4976                           	opt stack 0
  4977                           tblptru	equ	0xFF8
  4978                           tblptrh	equ	0xFF7
  4979                           tblptrl	equ	0xFF6
  4980                           tablat	equ	0xFF5
  4981                           prodh	equ	0xFF4
  4982                           prodl	equ	0xFF3
  4983                           intcon	equ	0xFF2
  4984                           intcon2	equ	0xFF1
  4985                           indf0	equ	0xFEF
  4986                           postinc0	equ	0xFEE
  4987                           fsr0h	equ	0xFEA
  4988                           fsr0l	equ	0xFE9
  4989                           wreg	equ	0xFE8
  4990                           postdec1	equ	0xFE5
  4991                           fsr1l	equ	0xFE1
  4992                           indf2	equ	0xFDF
  4993                           postinc2	equ	0xFDE
  4994                           postdec2	equ	0xFDD
  4995                           fsr2h	equ	0xFDA
  4996                           fsr2l	equ	0xFD9
  4997                           status	equ	0xFD8
  4998                           
  4999 ;; *************** function _I2C_IdleCheck *****************
  5000 ;; Defined at:
  5001 ;;		line 19 in file "../My_header\My_I2C.h"
  5002 ;; Parameters:    Size  Location     Type
  5003 ;;  mask            1    wreg     unsigned char 
  5004 ;; Auto vars:     Size  Location     Type
  5005 ;;  mask            1    1[BANK0 ] unsigned char 
  5006 ;; Return value:  Size  Location     Type
  5007 ;;		None               void
  5008 ;; Registers used:
  5009 ;;		wreg, status,2, status,0
  5010 ;; Tracked objects:
  5011 ;;		On entry : 0/0
  5012 ;;		On exit  : 0/0
  5013 ;;		Unchanged: 0/0
  5014 ;; Data sizes:     COMRAM   BANK0   BANK1   BANK2   BANK3   BANK4   BANK5   BANK6   BANK7   BANK8   BANK9  BANK10  BANK1
      +1  BANK12  BANK13  BANK14
  5015 ;;      Params:         0       0       0       0       0       0       0       0       0       0       0       0       
      +0       0       0       0
  5016 ;;      Locals:         0       1       0       0       0       0       0       0       0       0       0       0       
      +0       0       0       0
  5017 ;;      Temps:          0       1       0       0       0       0       0       0       0       0       0       0       
      +0       0       0       0
  5018 ;;      Totals:         0       2       0       0       0       0       0       0       0       0       0       0       
      +0       0       0       0
  5019 ;;Total ram usage:        2 bytes
  5020 ;; Hardware stack levels used:    1
  5021 ;; Hardware stack levels required when called:    5
  5022 ;; This function calls:
  5023 ;;		Nothing
  5024 ;; This function is called by:
  5025 ;;		_I2C_Start
  5026 ;;		_I2C_Stop
  5027 ;;		_I2C_Send
  5028 ;;		_I2C_rStart
  5029 ;;		_I2C_Receive
  5030 ;; This function uses a non-reentrant model
  5031 ;;
  5032                           
  5033                           	psect	text25
  5034  00287E                     __ptext25:
  5035                           	opt stack 0
  5036  00287E                     _I2C_IdleCheck:
  5037                           	opt stack 21
  5038                           
  5039                           ;incstack = 0
  5040                           ;I2C_IdleCheck@mask stored from wreg
  5041  00287E  0100               	movlb	0	; () banked
  5042  002880  6FA5               	movwf	I2C_IdleCheck@mask& (0+255),b
  5043  002882                     l3994:
  5044                           
  5045                           ; BSR set to: 0
  5046  002882  50C7               	movf	4039,w,c	;volatile
  5047  002884  0100               	movlb	0	; () banked
  5048  002886  15A5               	andwf	I2C_IdleCheck@mask& (0+255),w,b
  5049  002888  0100               	movlb	0	; () banked
  5050  00288A  6FA4               	movwf	??_I2C_IdleCheck& (0+255),b
  5051  00288C  50C5               	movf	4037,w,c	;volatile
  5052  00288E  0B1F               	andlw	31
  5053  002890  0100               	movlb	0	; () banked
  5054  002892  11A4               	iorwf	??_I2C_IdleCheck& (0+255),w,b
  5055  002894  0900               	iorlw	0
  5056  002896  B4D8               	btfsc	status,2,c
  5057                           
  5058                           ; BSR set to: 0
  5059                           
  5060                           ; BSR set to: 0
  5061  002898  0012               	return	
  5062  00289A  D7F3               	goto	l3994
  5063  00289C                     __end_of_I2C_IdleCheck:
  5064                           	opt stack 0
  5065                           tblptru	equ	0xFF8
  5066                           tblptrh	equ	0xFF7
  5067                           tblptrl	equ	0xFF6
  5068                           tablat	equ	0xFF5
  5069                           prodh	equ	0xFF4
  5070                           prodl	equ	0xFF3
  5071                           intcon	equ	0xFF2
  5072                           intcon2	equ	0xFF1
  5073                           indf0	equ	0xFEF
  5074                           postinc0	equ	0xFEE
  5075                           fsr0h	equ	0xFEA
  5076                           fsr0l	equ	0xFE9
  5077                           wreg	equ	0xFE8
  5078                           postdec1	equ	0xFE5
  5079                           fsr1l	equ	0xFE1
  5080                           indf2	equ	0xFDF
  5081                           postinc2	equ	0xFDE
  5082                           postdec2	equ	0xFDD
  5083                           fsr2h	equ	0xFDA
  5084                           fsr2l	equ	0xFD9
  5085                           status	equ	0xFD8
  5086                           
  5087 ;; *************** function _Delay_ms *****************
  5088 ;; Defined at:
  5089 ;;		line 348 in file "../My_header\My_header.h"
  5090 ;; Parameters:    Size  Location     Type
  5091 ;;  ms              2    0[BANK0 ] unsigned int 
  5092 ;; Auto vars:     Size  Location     Type
  5093 ;;		None
  5094 ;; Return value:  Size  Location     Type
  5095 ;;		None               void
  5096 ;; Registers used:
  5097 ;;		wreg, status,2, status,0
  5098 ;; Tracked objects:
  5099 ;;		On entry : 0/0
  5100 ;;		On exit  : 0/0
  5101 ;;		Unchanged: 0/0
  5102 ;; Data sizes:     COMRAM   BANK0   BANK1   BANK2   BANK3   BANK4   BANK5   BANK6   BANK7   BANK8   BANK9  BANK10  BANK1
      +1  BANK12  BANK13  BANK14
  5103 ;;      Params:         0       2       0       0       0       0       0       0       0       0       0       0       
      +0       0       0       0
  5104 ;;      Locals:         0       0       0       0       0       0       0       0       0       0       0       0       
      +0       0       0       0
  5105 ;;      Temps:          0       1       0       0       0       0       0       0       0       0       0       0       
      +0       0       0       0
  5106 ;;      Totals:         0       3       0       0       0       0       0       0       0       0       0       0       
      +0       0       0       0
  5107 ;;Total ram usage:        3 bytes
  5108 ;; Hardware stack levels used:    1
  5109 ;; Hardware stack levels required when called:    5
  5110 ;; This function calls:
  5111 ;;		Nothing
  5112 ;; This function is called by:
  5113 ;;		_I2C_LCD_init
  5114 ;; This function uses a non-reentrant model
  5115 ;;
  5116                           
  5117                           	psect	text26
  5118  0027C8                     __ptext26:
  5119                           	opt stack 0
  5120  0027C8                     _Delay_ms:
  5121                           	opt stack 24
  5122                           
  5123                           ;My_header\My_header.h: 349: while (ms--)_delay((unsigned long)((1)*(48000000/4000.0)));
  5124                           
  5125                           ; BSR set to: 0
  5126                           ;incstack = 0
  5127  0027C8  D009               	goto	l4090
  5128  0027CA                     l4088:
  5129  0027CA  0E10               	movlw	16
  5130  0027CC  0100               	movlb	0	; () banked
  5131  0027CE  6FA6               	movwf	??_Delay_ms& (0+255),b
  5132  0027D0  0E94               	movlw	148
  5133  0027D2                     u4697:
  5134  0027D2  2EE8               	decfsz	wreg,f,c
  5135  0027D4  D7FE               	goto	u4697
  5136  0027D6  2FA6               	decfsz	??_Delay_ms& (0+255),f,b
  5137  0027D8  D7FC               	goto	u4697
  5138  0027DA  D000               	nop2	
  5139  0027DC                     l4090:
  5140  0027DC  0100               	movlb	0	; () banked
  5141  0027DE  07A4               	decf	Delay_ms@ms& (0+255),f,b
  5142  0027E0  A0D8               	btfss	status,0,c
  5143  0027E2  07A5               	decf	(Delay_ms@ms+1)& (0+255),f,b
  5144  0027E4  0100               	movlb	0	; () banked
  5145  0027E6  29A4               	incf	Delay_ms@ms& (0+255),w,b
  5146  0027E8  B4D8               	btfsc	status,2,c
  5147  0027EA  29A5               	incf	(Delay_ms@ms+1)& (0+255),w,b
  5148  0027EC  B4D8               	btfsc	status,2,c
  5149                           
  5150                           ; BSR set to: 0
  5151                           
  5152                           ; BSR set to: 0
  5153  0027EE  0012               	return	
  5154  0027F0  D7EC               	goto	l4088
  5155  0027F2                     __end_of_Delay_ms:
  5156                           	opt stack 0
  5157                           tblptru	equ	0xFF8
  5158                           tblptrh	equ	0xFF7
  5159                           tblptrl	equ	0xFF6
  5160                           tablat	equ	0xFF5
  5161                           prodh	equ	0xFF4
  5162                           prodl	equ	0xFF3
  5163                           intcon	equ	0xFF2
  5164                           intcon2	equ	0xFF1
  5165                           indf0	equ	0xFEF
  5166                           postinc0	equ	0xFEE
  5167                           fsr0h	equ	0xFEA
  5168                           fsr0l	equ	0xFE9
  5169                           wreg	equ	0xFE8
  5170                           postdec1	equ	0xFE5
  5171                           fsr1l	equ	0xFE1
  5172                           indf2	equ	0xFDF
  5173                           postinc2	equ	0xFDE
  5174                           postdec2	equ	0xFDD
  5175                           fsr2h	equ	0xFDA
  5176                           fsr2l	equ	0xFD9
  5177                           status	equ	0xFD8
  5178                           
  5179 ;; *************** function _ADC_init *****************
  5180 ;; Defined at:
  5181 ;;		line 148 in file "../My_header\My_header.h"
  5182 ;; Parameters:    Size  Location     Type
  5183 ;;  p_ref           1    wreg     unsigned char 
  5184 ;; Auto vars:     Size  Location     Type
  5185 ;;  p_ref           1    0[BANK0 ] unsigned char 
  5186 ;; Return value:  Size  Location     Type
  5187 ;;		None               void
  5188 ;; Registers used:
  5189 ;;		wreg, status,2
  5190 ;; Tracked objects:
  5191 ;;		On entry : 0/0
  5192 ;;		On exit  : 0/0
  5193 ;;		Unchanged: 0/0
  5194 ;; Data sizes:     COMRAM   BANK0   BANK1   BANK2   BANK3   BANK4   BANK5   BANK6   BANK7   BANK8   BANK9  BANK10  BANK1
      +1  BANK12  BANK13  BANK14
  5195 ;;      Params:         0       0       0       0       0       0       0       0       0       0       0       0       
      +0       0       0       0
  5196 ;;      Locals:         0       1       0       0       0       0       0       0       0       0       0       0       
      +0       0       0       0
  5197 ;;      Temps:          0       0       0       0       0       0       0       0       0       0       0       0       
      +0       0       0       0
  5198 ;;      Totals:         0       1       0       0       0       0       0       0       0       0       0       0       
      +0       0       0       0
  5199 ;;Total ram usage:        1 bytes
  5200 ;; Hardware stack levels used:    1
  5201 ;; Hardware stack levels required when called:    5
  5202 ;; This function calls:
  5203 ;;		Nothing
  5204 ;; This function is called by:
  5205 ;;		_main
  5206 ;; This function uses a non-reentrant model
  5207 ;;
  5208                           
  5209                           	psect	text27
  5210  00285E                     __ptext27:
  5211                           	opt stack 0
  5212  00285E                     _ADC_init:
  5213                           	opt stack 25
  5214                           
  5215                           ; BSR set to: 0
  5216                           ;incstack = 0
  5217                           ;ADC_init@p_ref stored from wreg
  5218  00285E  0100               	movlb	0	; () banked
  5219  002860  6FA4               	movwf	ADC_init@p_ref& (0+255),b
  5220                           
  5221                           ; BSR set to: 0
  5222                           ;My_header\My_header.h: 149: ADCON0bits.VCFG1 = 0;
  5223  002862  9EC2               	bcf	4034,7,c	;volatile
  5224                           
  5225                           ; BSR set to: 0
  5226                           ;My_header\My_header.h: 150: ADCON0bits.VCFG0 = p_ref;
  5227  002864  0100               	movlb	0	; () banked
  5228  002866  B1A4               	btfsc	ADC_init@p_ref& (0+255),0,b
  5229  002868  D002               	bra	u4065
  5230  00286A  9CC2               	bcf	4034,6,c	;volatile
  5231  00286C  D001               	bra	u4066
  5232  00286E                     u4065:
  5233  00286E  8CC2               	bsf	4034,6,c	;volatile
  5234  002870                     u4066:
  5235                           
  5236                           ;My_header\My_header.h: 152: ADCON1bits.ADFM = 1;
  5237  002870  8EC1               	bsf	4033,7,c	;volatile
  5238                           
  5239                           ;My_header\My_header.h: 153: ADCON1bits.ADCAL = 0;
  5240  002872  9CC1               	bcf	4033,6,c	;volatile
  5241                           
  5242                           ;My_header\My_header.h: 154: ADCON1bits.ADCS = 2;
  5243  002874  50C1               	movf	4033,w,c	;volatile
  5244  002876  0BF8               	andlw	-8
  5245  002878  0902               	iorlw	2
  5246  00287A  6EC1               	movwf	4033,c	;volatile
  5247  00287C  0012               	return	
  5248  00287E                     __end_of_ADC_init:
  5249                           	opt stack 0
  5250                           tblptru	equ	0xFF8
  5251                           tblptrh	equ	0xFF7
  5252                           tblptrl	equ	0xFF6
  5253                           tablat	equ	0xFF5
  5254                           prodh	equ	0xFF4
  5255                           prodl	equ	0xFF3
  5256                           intcon	equ	0xFF2
  5257                           intcon2	equ	0xFF1
  5258                           indf0	equ	0xFEF
  5259                           postinc0	equ	0xFEE
  5260                           fsr0h	equ	0xFEA
  5261                           fsr0l	equ	0xFE9
  5262                           wreg	equ	0xFE8
  5263                           postdec1	equ	0xFE5
  5264                           fsr1l	equ	0xFE1
  5265                           indf2	equ	0xFDF
  5266                           postinc2	equ	0xFDE
  5267                           postdec2	equ	0xFDD
  5268                           fsr2h	equ	0xFDA
  5269                           fsr2l	equ	0xFD9
  5270                           status	equ	0xFD8
  5271                           
  5272 ;; *************** function _ISR *****************
  5273 ;; Defined at:
  5274 ;;		line 228 in file "PIC18F27J53-ChargeStation6-01.c"
  5275 ;; Parameters:    Size  Location     Type
  5276 ;;		None
  5277 ;; Auto vars:     Size  Location     Type
  5278 ;;  i               1   38[COMRAM] unsigned char 
  5279 ;;  ascii           1   37[COMRAM] unsigned char 
  5280 ;; Return value:  Size  Location     Type
  5281 ;;		None               void
  5282 ;; Registers used:
  5283 ;;		wreg, fsr2l, fsr2h, status,2, status,0, tblptrl, tblptrh, tblptru, prodl, prodh, cstack
  5284 ;; Tracked objects:
  5285 ;;		On entry : 0/0
  5286 ;;		On exit  : 0/0
  5287 ;;		Unchanged: 0/0
  5288 ;; Data sizes:     COMRAM   BANK0   BANK1   BANK2   BANK3   BANK4   BANK5   BANK6   BANK7   BANK8   BANK9  BANK10  BANK1
      +1  BANK12  BANK13  BANK14
  5289 ;;      Params:         0       0       0       0       0       0       0       0       0       0       0       0       
      +0       0       0       0
  5290 ;;      Locals:         2       0       0       0       0       0       0       0       0       0       0       0       
      +0       0       0       0
  5291 ;;      Temps:         18       0       0       0       0       0       0       0       0       0       0       0       
      +0       0       0       0
  5292 ;;      Totals:        20       0       0       0       0       0       0       0       0       0       0       0       
      +0       0       0       0
  5293 ;;Total ram usage:       20 bytes
  5294 ;; Hardware stack levels used:    1
  5295 ;; Hardware stack levels required when called:    4
  5296 ;; This function calls:
  5297 ;;		_Auto_cut
  5298 ;;		_button_timer_interrupt
  5299 ;;		_interrupt_TXIF
  5300 ;;		_lchika
  5301 ;;		_tx_send
  5302 ;;		_tx_sendn
  5303 ;;		_tx_sends
  5304 ;;		i2___lldiv
  5305 ;; This function is called by:
  5306 ;;		Interrupt level 2
  5307 ;; This function uses a non-reentrant model
  5308 ;;
  5309                           
  5310                           	psect	intcode
  5311  000008                     __pintcode:
  5312                           	opt stack 0
  5313  000008                     _ISR:
  5314                           	opt stack 21
  5315                           
  5316                           ;incstack = 0
  5317  000008  CFFA F018          	movff	pclath,??_ISR+4
  5318  00000C  CFFB F019          	movff	pclatu,??_ISR+5
  5319  000010  CFE9 F01A          	movff	fsr0l,??_ISR+6
  5320  000014  CFEA F01B          	movff	fsr0h,??_ISR+7
  5321  000018  CFE1 F01C          	movff	fsr1l,??_ISR+8
  5322  00001C  CFE2 F01D          	movff	fsr1h,??_ISR+9
  5323  000020  CFD9 F01E          	movff	fsr2l,??_ISR+10
  5324  000024  CFDA F01F          	movff	fsr2h,??_ISR+11
  5325  000028  CFF3 F020          	movff	prodl,??_ISR+12
  5326  00002C  CFF4 F021          	movff	prodh,??_ISR+13
  5327  000030  CFF6 F022          	movff	tblptrl,??_ISR+14
  5328  000034  CFF7 F023          	movff	tblptrh,??_ISR+15
  5329  000038  CFF8 F024          	movff	tblptru,??_ISR+16
  5330  00003C  CFF5 F025          	movff	tablat,??_ISR+17
  5331                           
  5332                           ;PIC18F27J53-ChargeStation6-01.c: 229: interrupt_TXIF();
  5333  000040  EC32  F013         	call	_interrupt_TXIF	;wreg free
  5334                           
  5335                           ;PIC18F27J53-ChargeStation6-01.c: 230: if (PIR1bits.RC1IF) {
  5336  000044  AA9E               	btfss	3998,5,c	;volatile
  5337  000046  D006               	goto	i2l3802
  5338                           
  5339                           ;PIC18F27J53-ChargeStation6-01.c: 231: PIR1bits.RC1IF = 0;
  5340  000048  9A9E               	bcf	3998,5,c	;volatile
  5341                           
  5342                           ;PIC18F27J53-ChargeStation6-01.c: 232: uint8_t ascii = RCREG1;
  5343  00004A  CFAF F026          	movff	4015,ISR@ascii	;volatile
  5344                           
  5345                           ;PIC18F27J53-ChargeStation6-01.c: 233: tx_send(ascii);
  5346  00004E  5026               	movf	ISR@ascii,w,c
  5347  000050  EC69  F014         	call	_tx_send
  5348  000054                     i2l3802:
  5349                           
  5350                           ;PIC18F27J53-ChargeStation6-01.c: 234: }
  5351                           ;PIC18F27J53-ChargeStation6-01.c: 235: if (INTCONbits.T0IF) {
  5352  000054  A4F2               	btfss	intcon,2,c	;volatile
  5353  000056  D00F               	goto	i2l3814
  5354                           
  5355                           ;PIC18F27J53-ChargeStation6-01.c: 236: INTCONbits.T0IF = 0;
  5356  000058  94F2               	bcf	intcon,2,c	;volatile
  5357                           
  5358                           ;PIC18F27J53-ChargeStation6-01.c: 237: static uint16_t cnt_t0;
  5359                           ;PIC18F27J53-ChargeStation6-01.c: 238: if (cnt_t0) {
  5360  00005A  5038               	movf	ISR@cnt_t0+1,w,c
  5361  00005C  1037               	iorwf	ISR@cnt_t0,w,c
  5362  00005E  B4D8               	btfsc	status,2,c
  5363  000060  D004               	goto	i2l3810
  5364                           
  5365                           ;PIC18F27J53-ChargeStation6-01.c: 239: cnt_t0--;
  5366  000062  0637               	decf	ISR@cnt_t0,f,c
  5367  000064  A0D8               	btfss	status,0,c
  5368  000066  0638               	decf	ISR@cnt_t0+1,f,c
  5369                           
  5370                           ;PIC18F27J53-ChargeStation6-01.c: 240: } else {
  5371  000068  D006               	goto	i2l3814
  5372  00006A                     i2l3810:
  5373                           
  5374                           ;PIC18F27J53-ChargeStation6-01.c: 241: cnt_t0 = 120;
  5375  00006A  0E00               	movlw	0
  5376  00006C  6E38               	movwf	ISR@cnt_t0+1,c
  5377  00006E  0E78               	movlw	120
  5378  000070  6E37               	movwf	ISR@cnt_t0,c
  5379                           
  5380                           ;PIC18F27J53-ChargeStation6-01.c: 242: lchika();
  5381  000072  EC1D  F00D         	call	_lchika	;wreg free
  5382  000076                     i2l3814:
  5383                           
  5384                           ;PIC18F27J53-ChargeStation6-01.c: 243: }
  5385                           ;PIC18F27J53-ChargeStation6-01.c: 244: }
  5386                           ;PIC18F27J53-ChargeStation6-01.c: 245: if (PIR1bits.TMR1IF) {
  5387  000076  A09E               	btfss	3998,0,c	;volatile
  5388  000078  D084               	goto	i2l623
  5389                           
  5390                           ;PIC18F27J53-ChargeStation6-01.c: 246: PIR1bits.TMR1IF = 0;
  5391  00007A  909E               	bcf	3998,0,c	;volatile
  5392                           
  5393                           ;PIC18F27J53-ChargeStation6-01.c: 247: TMR1H = 0x80;
  5394  00007C  0E80               	movlw	128
  5395  00007E  6ECF               	movwf	4047,c	;volatile
  5396                           
  5397                           ;PIC18F27J53-ChargeStation6-01.c: 248: for (uint8_t i = 0; i < 3; i++) {
  5398  000080  0E00               	movlw	0
  5399  000082  6E27               	movwf	ISR@i,c
  5400  000084  D07B               	goto	L5
  5401  000086                     i2l3824:
  5402                           
  5403                           ;PIC18F27J53-ChargeStation6-01.c: 249: tx_sends("PORT");
  5404  000086  0E0F               	movlw	high STR_27
  5405  000088  6E0E               	movwf	tx_sends@asciicode+1,c
  5406  00008A  0E89               	movlw	low STR_27
  5407  00008C  6E0D               	movwf	tx_sends@asciicode,c
  5408  00008E  ECD2  F012         	call	_tx_sends	;wreg free
  5409                           
  5410                           ;PIC18F27J53-ChargeStation6-01.c: 250: tx_send('0' + i + 1);
  5411  000092  5027               	movf	ISR@i,w,c
  5412  000094  0F31               	addlw	49
  5413  000096  EC69  F014         	call	_tx_send
  5414                           
  5415                           ;PIC18F27J53-ChargeStation6-01.c: 251: tx_send('=');
  5416  00009A  0E3D               	movlw	61
  5417  00009C  EC69  F014         	call	_tx_send
  5418                           
  5419                           ;PIC18F27J53-ChargeStation6-01.c: 252: tx_sendn(I[i], 6);
  5420  0000A0  5027               	movf	ISR@i,w,c
  5421  0000A2  0D02               	mullw	2
  5422  0000A4  0E28               	movlw	low _I
  5423  0000A6  24F3               	addwf	prodl,w,c
  5424  0000A8  6ED9               	movwf	fsr2l,c
  5425  0000AA  0E00               	movlw	high _I
  5426  0000AC  20F4               	addwfc	prodh,w,c
  5427  0000AE  6EDA               	movwf	fsr2h,c
  5428  0000B0  CFDE F00E          	movff	postinc2,tx_sendn@value
  5429  0000B4  CFDD F00F          	movff	postdec2,tx_sendn@value+1
  5430  0000B8  0E06               	movlw	6
  5431  0000BA  6E10               	movwf	tx_sendn@digits,c
  5432  0000BC  EC0C  F011         	call	_tx_sendn	;wreg free
  5433                           
  5434                           ;PIC18F27J53-ChargeStation6-01.c: 253: tx_sends("\n\n");
  5435  0000C0  0E0F               	movlw	high STR_28
  5436  0000C2  6E0E               	movwf	tx_sends@asciicode+1,c
  5437  0000C4  0EB3               	movlw	low STR_28
  5438  0000C6  6E0D               	movwf	tx_sends@asciicode,c
  5439  0000C8  ECD2  F012         	call	_tx_sends	;wreg free
  5440                           
  5441                           ;PIC18F27J53-ChargeStation6-01.c: 255: ss[i] += I[i];
  5442  0000CC  5027               	movf	ISR@i,w,c
  5443  0000CE  0D02               	mullw	2
  5444  0000D0  0E28               	movlw	low _I
  5445  0000D2  24F3               	addwf	prodl,w,c
  5446  0000D4  6ED9               	movwf	fsr2l,c
  5447  0000D6  0E00               	movlw	high _I
  5448  0000D8  20F4               	addwfc	prodh,w,c
  5449  0000DA  6EDA               	movwf	fsr2h,c
  5450  0000DC  CFDE F014          	movff	postinc2,??_ISR
  5451  0000E0  CFDD F015          	movff	postdec2,??_ISR+1
  5452  0000E4  5027               	movf	ISR@i,w,c
  5453  0000E6  0D04               	mullw	4
  5454  0000E8  0100               	movlb	0	; () banked
  5455  0000EA  0E6C               	movlw	low _ss
  5456  0000EC  24F3               	addwf	prodl,w,c
  5457  0000EE  6ED9               	movwf	fsr2l,c
  5458  0000F0  0100               	movlb	0	; () banked
  5459  0000F2  0E00               	movlw	high _ss
  5460  0000F4  20F4               	addwfc	prodh,w,c
  5461  0000F6  6EDA               	movwf	fsr2h,c
  5462  0000F8  5014               	movf	??_ISR,w,c
  5463  0000FA  26DE               	addwf	postinc2,f,c
  5464  0000FC  5015               	movf	??_ISR+1,w,c
  5465  0000FE  22DE               	addwfc	postinc2,f,c
  5466  000100  0E00               	movlw	0
  5467  000102  22DE               	addwfc	postinc2,f,c
  5468  000104  22DD               	addwfc	postdec2,f,c
  5469  000106  52DD               	movf	postdec2,f,c
  5470  000108  52DD               	movf	postdec2,f,c
  5471                           
  5472                           ; BSR set to: 0
  5473                           ;PIC18F27J53-ChargeStation6-01.c: 256: S[i] = ss[i] / 3600;
  5474  00010A  5027               	movf	ISR@i,w,c
  5475  00010C  0D04               	mullw	4
  5476  00010E  0100               	movlb	0	; () banked
  5477  000110  0E6C               	movlw	low _ss
  5478  000112  24F3               	addwf	prodl,w,c
  5479  000114  6ED9               	movwf	fsr2l,c
  5480  000116  0100               	movlb	0	; () banked
  5481  000118  0E00               	movlw	high _ss
  5482  00011A  20F4               	addwfc	prodh,w,c
  5483  00011C  6EDA               	movwf	fsr2h,c
  5484  00011E  CFDE F001          	movff	postinc2,i2___lldiv@dividend
  5485  000122  CFDE F002          	movff	postinc2,i2___lldiv@dividend+1
  5486  000126  CFDE F003          	movff	postinc2,i2___lldiv@dividend+2
  5487  00012A  CFDE F004          	movff	postinc2,i2___lldiv@dividend+3
  5488  00012E  0E10               	movlw	16
  5489  000130  6E05               	movwf	i2___lldiv@divisor,c
  5490  000132  0E0E               	movlw	14
  5491  000134  6E06               	movwf	i2___lldiv@divisor+1,c
  5492  000136  0E00               	movlw	0
  5493  000138  6E07               	movwf	i2___lldiv@divisor+2,c
  5494  00013A  0E00               	movlw	0
  5495  00013C  6E08               	movwf	i2___lldiv@divisor+3,c
  5496  00013E  EC1C  F010         	call	i2___lldiv	;wreg free
  5497  000142  C001  F014         	movff	?i2___lldiv,??_ISR
  5498  000146  C002  F015         	movff	?i2___lldiv+1,??_ISR+1
  5499  00014A  C003  F016         	movff	?i2___lldiv+2,??_ISR+2
  5500  00014E  C004  F017         	movff	?i2___lldiv+3,??_ISR+3
  5501  000152  5027               	movf	ISR@i,w,c
  5502  000154  0D04               	mullw	4
  5503  000156  0100               	movlb	0	; () banked
  5504  000158  0E60               	movlw	low _S
  5505  00015A  24F3               	addwf	prodl,w,c
  5506  00015C  6ED9               	movwf	fsr2l,c
  5507  00015E  0100               	movlb	0	; () banked
  5508  000160  0E00               	movlw	high _S
  5509  000162  20F4               	addwfc	prodh,w,c
  5510  000164  6EDA               	movwf	fsr2h,c
  5511  000166  C014  FFDE         	movff	??_ISR,postinc2
  5512  00016A  C015  FFDE         	movff	??_ISR+1,postinc2
  5513  00016E  C016  FFDE         	movff	??_ISR+2,postinc2
  5514  000172  C017  FFDD         	movff	??_ISR+3,postdec2
  5515  000176  06D9               	decf	fsr2l,f,c
  5516  000178  06D9               	decf	fsr2l,f,c
  5517                           
  5518                           ; BSR set to: 0
  5519  00017A  2A27               	incf	ISR@i,f,c
  5520  00017C                     L5:
  5521                           
  5522                           ; BSR set to: 0
  5523  00017C  0E02               	movlw	2
  5524  00017E  6427               	cpfsgt	ISR@i,c
  5525  000180  D782               	goto	i2l3824
  5526  000182                     i2l623:
  5527                           
  5528                           ;PIC18F27J53-ChargeStation6-01.c: 257: }
  5529                           ;PIC18F27J53-ChargeStation6-01.c: 258: }
  5530                           ;PIC18F27J53-ChargeStation6-01.c: 259: if (PIR2bits.TMR3IF) {
  5531  000182  A2A1               	btfss	4001,1,c	;volatile
  5532  000184  D03A               	goto	i2l627
  5533                           
  5534                           ;PIC18F27J53-ChargeStation6-01.c: 260: PIR2bits.TMR3IF = 0;
  5535  000186  92A1               	bcf	4001,1,c	;volatile
  5536                           
  5537                           ;PIC18F27J53-ChargeStation6-01.c: 261: button_timer_interrupt(&sw, !PORTAbits.RA3);
  5538  000188  0101               	movlb	1	; () banked
  5539  00018A  0E01               	movlw	high _sw
  5540  00018C  6E02               	movwf	button_timer_interrupt@bt+1,c
  5541  00018E  0101               	movlb	1	; () banked
  5542  000190  0ED5               	movlw	low _sw
  5543  000192  6E01               	movwf	button_timer_interrupt@bt,c
  5544  000194  B680               	btfsc	3968,3,c	;volatile
  5545  000196  D002               	goto	i2u353_40
  5546  000198  0E01               	movlw	1
  5547  00019A  D001               	goto	i2u353_46
  5548  00019C                     i2u353_40:
  5549  00019C  0E00               	movlw	0
  5550  00019E                     i2u353_46:
  5551  00019E  6E03               	movwf	button_timer_interrupt@sw_value,c
  5552  0001A0  EC79  F00A         	call	_button_timer_interrupt	;wreg free
  5553                           
  5554                           ;PIC18F27J53-ChargeStation6-01.c: 262: button_timer_interrupt(&sw0, !PORTAbits.RA0);
  5555  0001A4  0E00               	movlw	high _sw0
  5556  0001A6  6E02               	movwf	button_timer_interrupt@bt+1,c
  5557  0001A8  0E44               	movlw	low _sw0
  5558  0001AA  6E01               	movwf	button_timer_interrupt@bt,c
  5559  0001AC  B080               	btfsc	3968,0,c	;volatile
  5560  0001AE  D002               	goto	i2u354_40
  5561  0001B0  0E01               	movlw	1
  5562  0001B2  D001               	goto	i2u354_46
  5563  0001B4                     i2u354_40:
  5564  0001B4  0E00               	movlw	0
  5565  0001B6                     i2u354_46:
  5566  0001B6  6E03               	movwf	button_timer_interrupt@sw_value,c
  5567  0001B8  EC79  F00A         	call	_button_timer_interrupt	;wreg free
  5568                           
  5569                           ;PIC18F27J53-ChargeStation6-01.c: 263: button_timer_interrupt(&sw1, !PORTAbits.RA1);
  5570  0001BC  0E00               	movlw	high _sw1
  5571  0001BE  6E02               	movwf	button_timer_interrupt@bt+1,c
  5572  0001C0  0E48               	movlw	low _sw1
  5573  0001C2  6E01               	movwf	button_timer_interrupt@bt,c
  5574  0001C4  B280               	btfsc	3968,1,c	;volatile
  5575  0001C6  D002               	goto	i2u355_40
  5576  0001C8  0E01               	movlw	1
  5577  0001CA  D001               	goto	i2u355_46
  5578  0001CC                     i2u355_40:
  5579  0001CC  0E00               	movlw	0
  5580  0001CE                     i2u355_46:
  5581  0001CE  6E03               	movwf	button_timer_interrupt@sw_value,c
  5582  0001D0  EC79  F00A         	call	_button_timer_interrupt	;wreg free
  5583                           
  5584                           ;PIC18F27J53-ChargeStation6-01.c: 264: button_timer_interrupt(&sw2, !PORTAbits.RA2);
  5585  0001D4  0100               	movlb	0	; () banked
  5586  0001D6  0E00               	movlw	high _sw2
  5587  0001D8  6E02               	movwf	button_timer_interrupt@bt+1,c
  5588  0001DA  0100               	movlb	0	; () banked
  5589  0001DC  0E84               	movlw	low _sw2
  5590  0001DE  6E01               	movwf	button_timer_interrupt@bt,c
  5591  0001E0  B480               	btfsc	3968,2,c	;volatile
  5592  0001E2  D002               	goto	i2u356_40
  5593  0001E4  0E01               	movlw	1
  5594  0001E6  D001               	goto	i2u356_46
  5595  0001E8                     i2u356_40:
  5596  0001E8  0E00               	movlw	0
  5597  0001EA                     i2u356_46:
  5598  0001EA  6E03               	movwf	button_timer_interrupt@sw_value,c
  5599  0001EC  EC79  F00A         	call	_button_timer_interrupt	;wreg free
  5600                           
  5601                           ;PIC18F27J53-ChargeStation6-01.c: 265: Auto_cut();
  5602  0001F0  ECA1  F00D         	call	_Auto_cut	;wreg free
  5603                           
  5604                           ;PIC18F27J53-ChargeStation6-01.c: 266: display_flag = 1;
  5605  0001F4  0E01               	movlw	1
  5606  0001F6  0101               	movlb	1	; () banked
  5607  0001F8  6FCF               	movwf	_display_flag& (0+255),b
  5608  0001FA                     i2l627:
  5609  0001FA  C025  FFF5         	movff	??_ISR+17,tablat
  5610  0001FE  C024  FFF8         	movff	??_ISR+16,tblptru
  5611  000202  C023  FFF7         	movff	??_ISR+15,tblptrh
  5612  000206  C022  FFF6         	movff	??_ISR+14,tblptrl
  5613  00020A  C021  FFF4         	movff	??_ISR+13,prodh
  5614  00020E  C020  FFF3         	movff	??_ISR+12,prodl
  5615  000212  C01F  FFDA         	movff	??_ISR+11,fsr2h
  5616  000216  C01E  FFD9         	movff	??_ISR+10,fsr2l
  5617  00021A  C01D  FFE2         	movff	??_ISR+9,fsr1h
  5618  00021E  C01C  FFE1         	movff	??_ISR+8,fsr1l
  5619  000222  C01B  FFEA         	movff	??_ISR+7,fsr0h
  5620  000226  C01A  FFE9         	movff	??_ISR+6,fsr0l
  5621  00022A  C019  FFFB         	movff	??_ISR+5,pclatu
  5622  00022E  C018  FFFA         	movff	??_ISR+4,pclath
  5623  000232  0011               	retfie		f
  5624  000234                     __end_of_ISR:
  5625                           	opt stack 0
  5626                           pclatu	equ	0xFFB
  5627                           pclath	equ	0xFFA
  5628                           tblptru	equ	0xFF8
  5629                           tblptrh	equ	0xFF7
  5630                           tblptrl	equ	0xFF6
  5631                           tablat	equ	0xFF5
  5632                           prodh	equ	0xFF4
  5633                           prodl	equ	0xFF3
  5634                           intcon	equ	0xFF2
  5635                           intcon2	equ	0xFF1
  5636                           indf0	equ	0xFEF
  5637                           postinc0	equ	0xFEE
  5638                           fsr0h	equ	0xFEA
  5639                           fsr0l	equ	0xFE9
  5640                           wreg	equ	0xFE8
  5641                           postdec1	equ	0xFE5
  5642                           fsr1h	equ	0xFE2
  5643                           fsr1l	equ	0xFE1
  5644                           indf2	equ	0xFDF
  5645                           postinc2	equ	0xFDE
  5646                           postdec2	equ	0xFDD
  5647                           fsr2h	equ	0xFDA
  5648                           fsr2l	equ	0xFD9
  5649                           status	equ	0xFD8
  5650                           
  5651 ;; *************** function i2___lldiv *****************
  5652 ;; Defined at:
  5653 ;;		line 8 in file "C:\Program Files (x86)\Microchip\xc8\v1.33\sources\common\lldiv.c"
  5654 ;; Parameters:    Size  Location     Type
  5655 ;;  dividend        4    0[COMRAM] unsigned long 
  5656 ;;  divisor         4    4[COMRAM] unsigned long 
  5657 ;; Auto vars:     Size  Location     Type
  5658 ;;  __lldiv         4    8[COMRAM] unsigned long 
  5659 ;;  __lldiv         1   12[COMRAM] unsigned char 
  5660 ;; Return value:  Size  Location     Type
  5661 ;;                  4    0[COMRAM] unsigned long 
  5662 ;; Registers used:
  5663 ;;		wreg, status,2, status,0
  5664 ;; Tracked objects:
  5665 ;;		On entry : 0/0
  5666 ;;		On exit  : 0/0
  5667 ;;		Unchanged: 0/0
  5668 ;; Data sizes:     COMRAM   BANK0   BANK1   BANK2   BANK3   BANK4   BANK5   BANK6   BANK7   BANK8   BANK9  BANK10  BANK1
      +1  BANK12  BANK13  BANK14
  5669 ;;      Params:         8       0       0       0       0       0       0       0       0       0       0       0       
      +0       0       0       0
  5670 ;;      Locals:         5       0       0       0       0       0       0       0       0       0       0       0       
      +0       0       0       0
  5671 ;;      Temps:          0       0       0       0       0       0       0       0       0       0       0       0       
      +0       0       0       0
  5672 ;;      Totals:        13       0       0       0       0       0       0       0       0       0       0       0       
      +0       0       0       0
  5673 ;;Total ram usage:       13 bytes
  5674 ;; Hardware stack levels used:    1
  5675 ;; This function calls:
  5676 ;;		Nothing
  5677 ;; This function is called by:
  5678 ;;		_ISR
  5679 ;; This function uses a non-reentrant model
  5680 ;;
  5681                           
  5682                           	psect	text29
  5683  002038                     __ptext29:
  5684                           	opt stack 0
  5685  002038                     i2___lldiv:
  5686                           	opt stack 24
  5687                           
  5688                           ;incstack = 0
  5689  002038  0E00               	movlw	0
  5690  00203A  6E09               	movwf	i2___lldiv@quotient,c
  5691  00203C  0E00               	movlw	0
  5692  00203E  6E0A               	movwf	i2___lldiv@quotient+1,c
  5693  002040  0E00               	movlw	0
  5694  002042  6E0B               	movwf	i2___lldiv@quotient+2,c
  5695  002044  0E00               	movlw	0
  5696  002046  6E0C               	movwf	i2___lldiv@quotient+3,c
  5697  002048  5008               	movf	i2___lldiv@divisor+3,w,c
  5698  00204A  1005               	iorwf	i2___lldiv@divisor,w,c
  5699  00204C  1006               	iorwf	i2___lldiv@divisor+1,w,c
  5700  00204E  1007               	iorwf	i2___lldiv@divisor+2,w,c
  5701  002050  B4D8               	btfsc	status,2,c
  5702  002052  D02A               	goto	i2l1100
  5703  002054  0E01               	movlw	1
  5704  002056  6E0D               	movwf	i2___lldiv@counter,c
  5705  002058  D006               	goto	i2l3622
  5706  00205A                     i2l3620:
  5707  00205A  90D8               	bcf	status,0,c
  5708  00205C  3605               	rlcf	i2___lldiv@divisor,f,c
  5709  00205E  3606               	rlcf	i2___lldiv@divisor+1,f,c
  5710  002060  3607               	rlcf	i2___lldiv@divisor+2,f,c
  5711  002062  3608               	rlcf	i2___lldiv@divisor+3,f,c
  5712  002064  2A0D               	incf	i2___lldiv@counter,f,c
  5713  002066                     i2l3622:
  5714  002066  AE08               	btfss	i2___lldiv@divisor+3,7,c
  5715  002068  D7F8               	goto	i2l3620
  5716  00206A                     i2l3624:
  5717  00206A  90D8               	bcf	status,0,c
  5718  00206C  3609               	rlcf	i2___lldiv@quotient,f,c
  5719  00206E  360A               	rlcf	i2___lldiv@quotient+1,f,c
  5720  002070  360B               	rlcf	i2___lldiv@quotient+2,f,c
  5721  002072  360C               	rlcf	i2___lldiv@quotient+3,f,c
  5722  002074  5005               	movf	i2___lldiv@divisor,w,c
  5723  002076  5C01               	subwf	i2___lldiv@dividend,w,c
  5724  002078  5006               	movf	i2___lldiv@divisor+1,w,c
  5725  00207A  5802               	subwfb	i2___lldiv@dividend+1,w,c
  5726  00207C  5007               	movf	i2___lldiv@divisor+2,w,c
  5727  00207E  5803               	subwfb	i2___lldiv@dividend+2,w,c
  5728  002080  5008               	movf	i2___lldiv@divisor+3,w,c
  5729  002082  5804               	subwfb	i2___lldiv@dividend+3,w,c
  5730  002084  A0D8               	btfss	status,0,c
  5731  002086  D009               	goto	i2l3632
  5732  002088  5005               	movf	i2___lldiv@divisor,w,c
  5733  00208A  5E01               	subwf	i2___lldiv@dividend,f,c
  5734  00208C  5006               	movf	i2___lldiv@divisor+1,w,c
  5735  00208E  5A02               	subwfb	i2___lldiv@dividend+1,f,c
  5736  002090  5007               	movf	i2___lldiv@divisor+2,w,c
  5737  002092  5A03               	subwfb	i2___lldiv@dividend+2,f,c
  5738  002094  5008               	movf	i2___lldiv@divisor+3,w,c
  5739  002096  5A04               	subwfb	i2___lldiv@dividend+3,f,c
  5740  002098  8009               	bsf	i2___lldiv@quotient,0,c
  5741  00209A                     i2l3632:
  5742  00209A  90D8               	bcf	status,0,c
  5743  00209C  3208               	rrcf	i2___lldiv@divisor+3,f,c
  5744  00209E  3207               	rrcf	i2___lldiv@divisor+2,f,c
  5745  0020A0  3206               	rrcf	i2___lldiv@divisor+1,f,c
  5746  0020A2  3205               	rrcf	i2___lldiv@divisor,f,c
  5747  0020A4  2E0D               	decfsz	i2___lldiv@counter,f,c
  5748  0020A6  D7E1               	goto	i2l3624
  5749  0020A8                     i2l1100:
  5750  0020A8  C009  F001         	movff	i2___lldiv@quotient,?i2___lldiv
  5751  0020AC  C00A  F002         	movff	i2___lldiv@quotient+1,?i2___lldiv+1
  5752  0020B0  C00B  F003         	movff	i2___lldiv@quotient+2,?i2___lldiv+2
  5753  0020B4  C00C  F004         	movff	i2___lldiv@quotient+3,?i2___lldiv+3
  5754  0020B8  0012               	return	
  5755  0020BA                     __end_ofi2___lldiv:
  5756                           	opt stack 0
  5757                           pclatu	equ	0xFFB
  5758                           pclath	equ	0xFFA
  5759                           tblptru	equ	0xFF8
  5760                           tblptrh	equ	0xFF7
  5761                           tblptrl	equ	0xFF6
  5762                           tablat	equ	0xFF5
  5763                           prodh	equ	0xFF4
  5764                           prodl	equ	0xFF3
  5765                           intcon	equ	0xFF2
  5766                           intcon2	equ	0xFF1
  5767                           indf0	equ	0xFEF
  5768                           postinc0	equ	0xFEE
  5769                           fsr0h	equ	0xFEA
  5770                           fsr0l	equ	0xFE9
  5771                           wreg	equ	0xFE8
  5772                           postdec1	equ	0xFE5
  5773                           fsr1h	equ	0xFE2
  5774                           fsr1l	equ	0xFE1
  5775                           indf2	equ	0xFDF
  5776                           postinc2	equ	0xFDE
  5777                           postdec2	equ	0xFDD
  5778                           fsr2h	equ	0xFDA
  5779                           fsr2l	equ	0xFD9
  5780                           status	equ	0xFD8
  5781                           
  5782 ;; *************** function _tx_sends *****************
  5783 ;; Defined at:
  5784 ;;		line 239 in file "../My_header\My_header.h"
  5785 ;; Parameters:    Size  Location     Type
  5786 ;;  asciicode       2   12[COMRAM] PTR const unsigned char 
  5787 ;;		 -> STR_28(3), STR_27(5), 
  5788 ;; Auto vars:     Size  Location     Type
  5789 ;;		None
  5790 ;; Return value:  Size  Location     Type
  5791 ;;		None               void
  5792 ;; Registers used:
  5793 ;;		wreg, fsr2l, fsr2h, status,2, status,0, tblptrl, tblptrh, tblptru, prodl, prodh, cstack
  5794 ;; Tracked objects:
  5795 ;;		On entry : 0/0
  5796 ;;		On exit  : 0/0
  5797 ;;		Unchanged: 0/0
  5798 ;; Data sizes:     COMRAM   BANK0   BANK1   BANK2   BANK3   BANK4   BANK5   BANK6   BANK7   BANK8   BANK9  BANK10  BANK1
      +1  BANK12  BANK13  BANK14
  5799 ;;      Params:         2       0       0       0       0       0       0       0       0       0       0       0       
      +0       0       0       0
  5800 ;;      Locals:         0       0       0       0       0       0       0       0       0       0       0       0       
      +0       0       0       0
  5801 ;;      Temps:          0       0       0       0       0       0       0       0       0       0       0       0       
      +0       0       0       0
  5802 ;;      Totals:         2       0       0       0       0       0       0       0       0       0       0       0       
      +0       0       0       0
  5803 ;;Total ram usage:        2 bytes
  5804 ;; Hardware stack levels used:    1
  5805 ;; Hardware stack levels required when called:    2
  5806 ;; This function calls:
  5807 ;;		_ringbuf_push
  5808 ;; This function is called by:
  5809 ;;		_ISR
  5810 ;; This function uses a non-reentrant model
  5811 ;;
  5812                           
  5813                           	psect	text30
  5814  0025A4                     __ptext30:
  5815                           	opt stack 0
  5816  0025A4                     _tx_sends:
  5817                           	opt stack 22
  5818                           
  5819                           ;My_header\My_header.h: 240: while (*asciicode) {
  5820                           
  5821                           ;incstack = 0
  5822  0025A4  D013               	goto	i2l3226
  5823  0025A6                     i2l3222:
  5824                           
  5825                           ;My_header\My_header.h: 241: ringbuf_push(&tx_buf, *asciicode++);
  5826  0025A6  0101               	movlb	1	; () banked
  5827  0025A8  0E01               	movlw	high _tx_buf
  5828  0025AA  6E06               	movwf	ringbuf_push@rb+1,c
  5829  0025AC  0101               	movlb	1	; () banked
  5830  0025AE  0ED0               	movlw	low _tx_buf
  5831  0025B0  6E05               	movwf	ringbuf_push@rb,c
  5832  0025B2  C00D  FFF6         	movff	tx_sends@asciicode,tblptrl
  5833  0025B6  C00E  FFF7         	movff	tx_sends@asciicode+1,tblptrh
  5834  0025BA                     	if	0	;tblptru may be non-zero
  5835  0025BA                     	endif
  5836  0025BA                     	if	1	;Program memory is > 0xFFFF, there are 3 active tblptr bytes
  5837  0025BA  0E00               	movlw	low (__mediumconst shr (0+16))
  5838  0025BC  6EF8               	movwf	tblptru,c
  5839  0025BE                     	endif
  5840  0025BE  0008               	tblrd		*
  5841  0025C0  CFF5 F007          	movff	tablat,ringbuf_push@asciicode
  5842  0025C4  EC89  F00E         	call	_ringbuf_push	;wreg free
  5843  0025C8  4A0D               	infsnz	tx_sends@asciicode,f,c
  5844  0025CA  2A0E               	incf	tx_sends@asciicode+1,f,c
  5845  0025CC                     i2l3226:
  5846  0025CC  C00D  FFF6         	movff	tx_sends@asciicode,tblptrl
  5847  0025D0  C00E  FFF7         	movff	tx_sends@asciicode+1,tblptrh
  5848  0025D4                     	if	0	;tblptru may be non-zero
  5849  0025D4                     	endif
  5850  0025D4                     	if	1	;Program memory is > 0xFFFF, there are 3 active tblptr bytes
  5851  0025D4  0E00               	movlw	low (__mediumconst shr (0+16))
  5852  0025D6  6EF8               	movwf	tblptru,c
  5853  0025D8                     	endif
  5854  0025D8  0008               	tblrd		*
  5855  0025DA  50F5               	movf	tablat,w,c
  5856  0025DC  0900               	iorlw	0
  5857  0025DE  A4D8               	btfss	status,2,c
  5858  0025E0  D7E2               	goto	i2l3222
  5859                           
  5860                           ;My_header\My_header.h: 242: }
  5861                           ;My_header\My_header.h: 243: PIE1bits.TX1IE = 1;
  5862  0025E2  889D               	bsf	3997,4,c	;volatile
  5863  0025E4  0012               	return	
  5864  0025E6                     __end_of_tx_sends:
  5865                           	opt stack 0
  5866                           pclatu	equ	0xFFB
  5867                           pclath	equ	0xFFA
  5868                           tblptru	equ	0xFF8
  5869                           tblptrh	equ	0xFF7
  5870                           tblptrl	equ	0xFF6
  5871                           tablat	equ	0xFF5
  5872                           prodh	equ	0xFF4
  5873                           prodl	equ	0xFF3
  5874                           intcon	equ	0xFF2
  5875                           intcon2	equ	0xFF1
  5876                           indf0	equ	0xFEF
  5877                           postinc0	equ	0xFEE
  5878                           fsr0h	equ	0xFEA
  5879                           fsr0l	equ	0xFE9
  5880                           wreg	equ	0xFE8
  5881                           postdec1	equ	0xFE5
  5882                           fsr1h	equ	0xFE2
  5883                           fsr1l	equ	0xFE1
  5884                           indf2	equ	0xFDF
  5885                           postinc2	equ	0xFDE
  5886                           postdec2	equ	0xFDD
  5887                           fsr2h	equ	0xFDA
  5888                           fsr2l	equ	0xFD9
  5889                           status	equ	0xFD8
  5890                           
  5891 ;; *************** function _tx_sendn *****************
  5892 ;; Defined at:
  5893 ;;		line 284 in file "../My_header\My_header.h"
  5894 ;; Parameters:    Size  Location     Type
  5895 ;;  value           2   13[COMRAM] const unsigned int 
  5896 ;;  digits          1   15[COMRAM] unsigned char 
  5897 ;; Auto vars:     Size  Location     Type
  5898 ;;  i               1   16[COMRAM] unsigned char 
  5899 ;;  temp            2   17[COMRAM] unsigned int 
  5900 ;; Return value:  Size  Location     Type
  5901 ;;		None               void
  5902 ;; Registers used:
  5903 ;;		wreg, fsr2l, fsr2h, status,2, status,0, prodl, prodh, cstack
  5904 ;; Tracked objects:
  5905 ;;		On entry : 0/0
  5906 ;;		On exit  : 0/0
  5907 ;;		Unchanged: 0/0
  5908 ;; Data sizes:     COMRAM   BANK0   BANK1   BANK2   BANK3   BANK4   BANK5   BANK6   BANK7   BANK8   BANK9  BANK10  BANK1
      +1  BANK12  BANK13  BANK14
  5909 ;;      Params:         3       0       0       0       0       0       0       0       0       0       0       0       
      +0       0       0       0
  5910 ;;      Locals:         3       0       0       0       0       0       0       0       0       0       0       0       
      +0       0       0       0
  5911 ;;      Temps:          0       0       0       0       0       0       0       0       0       0       0       0       
      +0       0       0       0
  5912 ;;      Totals:         6       0       0       0       0       0       0       0       0       0       0       0       
      +0       0       0       0
  5913 ;;Total ram usage:        6 bytes
  5914 ;; Hardware stack levels used:    1
  5915 ;; Hardware stack levels required when called:    3
  5916 ;; This function calls:
  5917 ;;		_tx_send
  5918 ;;		i2___lwdiv
  5919 ;;		i2___lwmod
  5920 ;; This function is called by:
  5921 ;;		_ISR
  5922 ;; This function uses a non-reentrant model
  5923 ;;
  5924                           
  5925                           	psect	text31
  5926  002218                     __ptext31:
  5927                           	opt stack 0
  5928  002218                     _tx_sendn:
  5929                           	opt stack 21
  5930                           
  5931                           ;My_header\My_header.h: 285: while (digits--) {
  5932                           
  5933                           ;incstack = 0
  5934  002218  D02C               	goto	i2l3242
  5935  00221A                     i2l207:
  5936                           
  5937                           ;My_header\My_header.h: 286: uint16_t temp = value;
  5938  00221A  C00E  F012         	movff	tx_sendn@value,tx_sendn@temp
  5939  00221E  C00F  F013         	movff	tx_sendn@value+1,tx_sendn@temp+1
  5940                           
  5941                           ;My_header\My_header.h: 287: for (uint8_t i = 0; i < digits; i++) {
  5942  002222  0E00               	movlw	0
  5943  002224  6E11               	movwf	tx_sendn@i,c
  5944  002226  D00F               	goto	i2l3236
  5945  002228                     i2l3232:
  5946                           
  5947                           ;My_header\My_header.h: 288: temp /= 10;
  5948  002228  C012  F001         	movff	tx_sendn@temp,i2___lwdiv@dividend
  5949  00222C  C013  F002         	movff	tx_sendn@temp+1,i2___lwdiv@dividend+1
  5950  002230  0E00               	movlw	0
  5951  002232  6E04               	movwf	i2___lwdiv@divisor+1,c
  5952  002234  0E0A               	movlw	10
  5953  002236  6E03               	movwf	i2___lwdiv@divisor,c
  5954  002238  ECF3  F011         	call	i2___lwdiv	;wreg free
  5955  00223C  C001  F012         	movff	?i2___lwdiv,tx_sendn@temp
  5956  002240  C002  F013         	movff	?i2___lwdiv+1,tx_sendn@temp+1
  5957  002244  2A11               	incf	tx_sendn@i,f,c
  5958  002246                     i2l3236:
  5959  002246  5010               	movf	tx_sendn@digits,w,c
  5960  002248  5C11               	subwf	tx_sendn@i,w,c
  5961  00224A  A0D8               	btfss	status,0,c
  5962  00224C  D7ED               	goto	i2l3232
  5963                           
  5964                           ;My_header\My_header.h: 289: }
  5965                           ;My_header\My_header.h: 290: temp %= 10;
  5966  00224E  C012  F001         	movff	tx_sendn@temp,i2___lwmod@dividend
  5967  002252  C013  F002         	movff	tx_sendn@temp+1,i2___lwmod@dividend+1
  5968  002256  0E00               	movlw	0
  5969  002258  6E04               	movwf	i2___lwmod@divisor+1,c
  5970  00225A  0E0A               	movlw	10
  5971  00225C  6E03               	movwf	i2___lwmod@divisor,c
  5972  00225E  ECF3  F012         	call	i2___lwmod	;wreg free
  5973  002262  C001  F012         	movff	?i2___lwmod,tx_sendn@temp
  5974  002266  C002  F013         	movff	?i2___lwmod+1,tx_sendn@temp+1
  5975                           
  5976                           ;My_header\My_header.h: 291: tx_send('0' + temp);
  5977  00226A  5012               	movf	tx_sendn@temp,w,c
  5978  00226C  0F30               	addlw	48
  5979  00226E  EC69  F014         	call	_tx_send
  5980  002272                     i2l3242:
  5981  002272  0610               	decf	tx_sendn@digits,f,c
  5982  002274  2810               	incf	tx_sendn@digits& (0+255),w,c
  5983  002276  B4D8               	btfsc	status,2,c
  5984  002278  0012               	return	
  5985  00227A  D7CF               	goto	i2l207
  5986  00227C                     __end_of_tx_sendn:
  5987                           	opt stack 0
  5988                           pclatu	equ	0xFFB
  5989                           pclath	equ	0xFFA
  5990                           tblptru	equ	0xFF8
  5991                           tblptrh	equ	0xFF7
  5992                           tblptrl	equ	0xFF6
  5993                           tablat	equ	0xFF5
  5994                           prodh	equ	0xFF4
  5995                           prodl	equ	0xFF3
  5996                           intcon	equ	0xFF2
  5997                           intcon2	equ	0xFF1
  5998                           indf0	equ	0xFEF
  5999                           postinc0	equ	0xFEE
  6000                           fsr0h	equ	0xFEA
  6001                           fsr0l	equ	0xFE9
  6002                           wreg	equ	0xFE8
  6003                           postdec1	equ	0xFE5
  6004                           fsr1h	equ	0xFE2
  6005                           fsr1l	equ	0xFE1
  6006                           indf2	equ	0xFDF
  6007                           postinc2	equ	0xFDE
  6008                           postdec2	equ	0xFDD
  6009                           fsr2h	equ	0xFDA
  6010                           fsr2l	equ	0xFD9
  6011                           status	equ	0xFD8
  6012                           
  6013 ;; *************** function i2___lwmod *****************
  6014 ;; Defined at:
  6015 ;;		line 8 in file "C:\Program Files (x86)\Microchip\xc8\v1.33\sources\common\lwmod.c"
  6016 ;; Parameters:    Size  Location     Type
  6017 ;;  dividend        2    0[COMRAM] unsigned int 
  6018 ;;  divisor         2    2[COMRAM] unsigned int 
  6019 ;; Auto vars:     Size  Location     Type
  6020 ;;  __lwmod         1    4[COMRAM] unsigned char 
  6021 ;; Return value:  Size  Location     Type
  6022 ;;                  2    0[COMRAM] unsigned int 
  6023 ;; Registers used:
  6024 ;;		wreg, status,2, status,0
  6025 ;; Tracked objects:
  6026 ;;		On entry : 0/0
  6027 ;;		On exit  : 0/0
  6028 ;;		Unchanged: 0/0
  6029 ;; Data sizes:     COMRAM   BANK0   BANK1   BANK2   BANK3   BANK4   BANK5   BANK6   BANK7   BANK8   BANK9  BANK10  BANK1
      +1  BANK12  BANK13  BANK14
  6030 ;;      Params:         4       0       0       0       0       0       0       0       0       0       0       0       
      +0       0       0       0
  6031 ;;      Locals:         1       0       0       0       0       0       0       0       0       0       0       0       
      +0       0       0       0
  6032 ;;      Temps:          0       0       0       0       0       0       0       0       0       0       0       0       
      +0       0       0       0
  6033 ;;      Totals:         5       0       0       0       0       0       0       0       0       0       0       0       
      +0       0       0       0
  6034 ;;Total ram usage:        5 bytes
  6035 ;; Hardware stack levels used:    1
  6036 ;; This function calls:
  6037 ;;		Nothing
  6038 ;; This function is called by:
  6039 ;;		_tx_sendn
  6040 ;; This function uses a non-reentrant model
  6041 ;;
  6042                           
  6043                           	psect	text32
  6044  0025E6                     __ptext32:
  6045                           	opt stack 0
  6046  0025E6                     i2___lwmod:
  6047                           	opt stack 23
  6048                           
  6049                           ;incstack = 0
  6050  0025E6  5004               	movf	i2___lwmod@divisor+1,w,c
  6051  0025E8  1003               	iorwf	i2___lwmod@divisor,w,c
  6052  0025EA  B4D8               	btfsc	status,2,c
  6053  0025EC  D018               	goto	i2l1173
  6054  0025EE  0E01               	movlw	1
  6055  0025F0  6E05               	movwf	i2___lwmod@counter,c
  6056  0025F2  D004               	goto	i2l3118
  6057  0025F4                     i2l3116:
  6058  0025F4  90D8               	bcf	status,0,c
  6059  0025F6  3603               	rlcf	i2___lwmod@divisor,f,c
  6060  0025F8  3604               	rlcf	i2___lwmod@divisor+1,f,c
  6061  0025FA  2A05               	incf	i2___lwmod@counter,f,c
  6062  0025FC                     i2l3118:
  6063  0025FC  AE04               	btfss	i2___lwmod@divisor+1,7,c
  6064  0025FE  D7FA               	goto	i2l3116
  6065  002600                     i2l3120:
  6066  002600  5003               	movf	i2___lwmod@divisor,w,c
  6067  002602  5C01               	subwf	i2___lwmod@dividend,w,c
  6068  002604  5004               	movf	i2___lwmod@divisor+1,w,c
  6069  002606  5802               	subwfb	i2___lwmod@dividend+1,w,c
  6070  002608  A0D8               	btfss	status,0,c
  6071  00260A  D004               	goto	i2l3124
  6072  00260C  5003               	movf	i2___lwmod@divisor,w,c
  6073  00260E  5E01               	subwf	i2___lwmod@dividend,f,c
  6074  002610  5004               	movf	i2___lwmod@divisor+1,w,c
  6075  002612  5A02               	subwfb	i2___lwmod@dividend+1,f,c
  6076  002614                     i2l3124:
  6077  002614  90D8               	bcf	status,0,c
  6078  002616  3204               	rrcf	i2___lwmod@divisor+1,f,c
  6079  002618  3203               	rrcf	i2___lwmod@divisor,f,c
  6080  00261A  2E05               	decfsz	i2___lwmod@counter,f,c
  6081  00261C  D7F1               	goto	i2l3120
  6082  00261E                     i2l1173:
  6083  00261E  C001  F001         	movff	i2___lwmod@dividend,?i2___lwmod
  6084  002622  C002  F002         	movff	i2___lwmod@dividend+1,?i2___lwmod+1
  6085  002626  0012               	return	
  6086  002628                     __end_ofi2___lwmod:
  6087                           	opt stack 0
  6088                           pclatu	equ	0xFFB
  6089                           pclath	equ	0xFFA
  6090                           tblptru	equ	0xFF8
  6091                           tblptrh	equ	0xFF7
  6092                           tblptrl	equ	0xFF6
  6093                           tablat	equ	0xFF5
  6094                           prodh	equ	0xFF4
  6095                           prodl	equ	0xFF3
  6096                           intcon	equ	0xFF2
  6097                           intcon2	equ	0xFF1
  6098                           indf0	equ	0xFEF
  6099                           postinc0	equ	0xFEE
  6100                           fsr0h	equ	0xFEA
  6101                           fsr0l	equ	0xFE9
  6102                           wreg	equ	0xFE8
  6103                           postdec1	equ	0xFE5
  6104                           fsr1h	equ	0xFE2
  6105                           fsr1l	equ	0xFE1
  6106                           indf2	equ	0xFDF
  6107                           postinc2	equ	0xFDE
  6108                           postdec2	equ	0xFDD
  6109                           fsr2h	equ	0xFDA
  6110                           fsr2l	equ	0xFD9
  6111                           status	equ	0xFD8
  6112                           
  6113 ;; *************** function _tx_send *****************
  6114 ;; Defined at:
  6115 ;;		line 234 in file "../My_header\My_header.h"
  6116 ;; Parameters:    Size  Location     Type
  6117 ;;  asciicode       1    wreg     const unsigned char 
  6118 ;; Auto vars:     Size  Location     Type
  6119 ;;  asciicode       1   12[COMRAM] const unsigned char 
  6120 ;; Return value:  Size  Location     Type
  6121 ;;		None               void
  6122 ;; Registers used:
  6123 ;;		wreg, fsr2l, fsr2h, status,2, status,0, prodl, prodh, cstack
  6124 ;; Tracked objects:
  6125 ;;		On entry : 0/0
  6126 ;;		On exit  : 0/0
  6127 ;;		Unchanged: 0/0
  6128 ;; Data sizes:     COMRAM   BANK0   BANK1   BANK2   BANK3   BANK4   BANK5   BANK6   BANK7   BANK8   BANK9  BANK10  BANK1
      +1  BANK12  BANK13  BANK14
  6129 ;;      Params:         0       0       0       0       0       0       0       0       0       0       0       0       
      +0       0       0       0
  6130 ;;      Locals:         1       0       0       0       0       0       0       0       0       0       0       0       
      +0       0       0       0
  6131 ;;      Temps:          0       0       0       0       0       0       0       0       0       0       0       0       
      +0       0       0       0
  6132 ;;      Totals:         1       0       0       0       0       0       0       0       0       0       0       0       
      +0       0       0       0
  6133 ;;Total ram usage:        1 bytes
  6134 ;; Hardware stack levels used:    1
  6135 ;; Hardware stack levels required when called:    2
  6136 ;; This function calls:
  6137 ;;		_ringbuf_push
  6138 ;; This function is called by:
  6139 ;;		_tx_sendn
  6140 ;;		_ISR
  6141 ;; This function uses a non-reentrant model
  6142 ;;
  6143                           
  6144                           	psect	text33
  6145  0028D2                     __ptext33:
  6146                           	opt stack 0
  6147  0028D2                     _tx_send:
  6148                           	opt stack 21
  6149                           
  6150                           ;incstack = 0
  6151                           ;tx_send@asciicode stored from wreg
  6152  0028D2  6E0D               	movwf	tx_send@asciicode,c
  6153                           
  6154                           ;My_header\My_header.h: 235: ringbuf_push(&tx_buf, asciicode);
  6155  0028D4  0101               	movlb	1	; () banked
  6156  0028D6  0E01               	movlw	high _tx_buf
  6157  0028D8  6E06               	movwf	ringbuf_push@rb+1,c
  6158  0028DA  0101               	movlb	1	; () banked
  6159  0028DC  0ED0               	movlw	low _tx_buf
  6160  0028DE  6E05               	movwf	ringbuf_push@rb,c
  6161  0028E0  C00D  F007         	movff	tx_send@asciicode,ringbuf_push@asciicode
  6162  0028E4  EC89  F00E         	call	_ringbuf_push	;wreg free
  6163                           
  6164                           ;My_header\My_header.h: 236: PIE1bits.TX1IE = 1;
  6165  0028E8  889D               	bsf	3997,4,c	;volatile
  6166  0028EA  0012               	return	
  6167  0028EC                     __end_of_tx_send:
  6168                           	opt stack 0
  6169                           pclatu	equ	0xFFB
  6170                           pclath	equ	0xFFA
  6171                           tblptru	equ	0xFF8
  6172                           tblptrh	equ	0xFF7
  6173                           tblptrl	equ	0xFF6
  6174                           tablat	equ	0xFF5
  6175                           prodh	equ	0xFF4
  6176                           prodl	equ	0xFF3
  6177                           intcon	equ	0xFF2
  6178                           intcon2	equ	0xFF1
  6179                           indf0	equ	0xFEF
  6180                           postinc0	equ	0xFEE
  6181                           fsr0h	equ	0xFEA
  6182                           fsr0l	equ	0xFE9
  6183                           wreg	equ	0xFE8
  6184                           postdec1	equ	0xFE5
  6185                           fsr1h	equ	0xFE2
  6186                           fsr1l	equ	0xFE1
  6187                           indf2	equ	0xFDF
  6188                           postinc2	equ	0xFDE
  6189                           postdec2	equ	0xFDD
  6190                           fsr2h	equ	0xFDA
  6191                           fsr2l	equ	0xFD9
  6192                           status	equ	0xFD8
  6193                           
  6194 ;; *************** function _ringbuf_push *****************
  6195 ;; Defined at:
  6196 ;;		line 37 in file "../My_header\My_ringbuf.h"
  6197 ;; Parameters:    Size  Location     Type
  6198 ;;  rb              2    4[COMRAM] PTR struct ringbuf
  6199 ;;		 -> tx_buf(5), 
  6200 ;;  asciicode       1    6[COMRAM] unsigned char 
  6201 ;; Auto vars:     Size  Location     Type
  6202 ;;		None
  6203 ;; Return value:  Size  Location     Type
  6204 ;;		None               void
  6205 ;; Registers used:
  6206 ;;		wreg, fsr2l, fsr2h, status,2, status,0, prodl, prodh, cstack
  6207 ;; Tracked objects:
  6208 ;;		On entry : 0/0
  6209 ;;		On exit  : 0/0
  6210 ;;		Unchanged: 0/0
  6211 ;; Data sizes:     COMRAM   BANK0   BANK1   BANK2   BANK3   BANK4   BANK5   BANK6   BANK7   BANK8   BANK9  BANK10  BANK1
      +1  BANK12  BANK13  BANK14
  6212 ;;      Params:         3       0       0       0       0       0       0       0       0       0       0       0       
      +0       0       0       0
  6213 ;;      Locals:         0       0       0       0       0       0       0       0       0       0       0       0       
      +0       0       0       0
  6214 ;;      Temps:          5       0       0       0       0       0       0       0       0       0       0       0       
      +0       0       0       0
  6215 ;;      Totals:         8       0       0       0       0       0       0       0       0       0       0       0       
      +0       0       0       0
  6216 ;;Total ram usage:        8 bytes
  6217 ;; Hardware stack levels used:    1
  6218 ;; Hardware stack levels required when called:    1
  6219 ;; This function calls:
  6220 ;;		_ringbuf_num
  6221 ;; This function is called by:
  6222 ;;		_tx_send
  6223 ;;		_tx_sends
  6224 ;; This function uses a non-reentrant model
  6225 ;;
  6226                           
  6227                           	psect	text34
  6228  001D12                     __ptext34:
  6229                           	opt stack 0
  6230  001D12                     _ringbuf_push:
  6231                           	opt stack 22
  6232                           
  6233                           ;My_header\My_ringbuf.h: 38: if (ringbuf_num(rb) < rb->size) {
  6234                           
  6235                           ;incstack = 0
  6236  001D12  C006  F002         	movff	ringbuf_push@rb+1,ringbuf_num@rb+1
  6237  001D16  C005  F001         	movff	ringbuf_push@rb,ringbuf_num@rb
  6238  001D1A  EC5D  F010         	call	_ringbuf_num	;wreg free
  6239  001D1E  6E08               	movwf	??_ringbuf_push& (0+255),c
  6240  001D20  EE20 F002          	lfsr	2,2
  6241  001D24  5005               	movf	ringbuf_push@rb,w,c
  6242  001D26  26D9               	addwf	fsr2l,f,c
  6243  001D28  5006               	movf	ringbuf_push@rb+1,w,c
  6244  001D2A  22DA               	addwfc	fsr2h,f,c
  6245  001D2C  50DF               	movf	indf2,w,c
  6246  001D2E  5C08               	subwf	??_ringbuf_push,w,c
  6247  001D30  B0D8               	btfsc	status,0,c
  6248  001D32  0012               	return	
  6249                           
  6250                           ;My_header\My_ringbuf.h: 39: rb->buf[rb->head] = asciicode;
  6251  001D34  EE20 F003          	lfsr	2,3
  6252  001D38  5005               	movf	ringbuf_push@rb,w,c
  6253  001D3A  26D9               	addwf	fsr2l,f,c
  6254  001D3C  5006               	movf	ringbuf_push@rb+1,w,c
  6255  001D3E  22DA               	addwfc	fsr2h,f,c
  6256  001D40  50DF               	movf	indf2,w,c
  6257  001D42  6E08               	movwf	??_ringbuf_push& (0+255),c
  6258  001D44  5008               	movf	??_ringbuf_push,w,c
  6259  001D46  0D01               	mullw	1
  6260  001D48  C005  FFD9         	movff	ringbuf_push@rb,fsr2l
  6261  001D4C  C006  FFDA         	movff	ringbuf_push@rb+1,fsr2h
  6262  001D50  CFDE F009          	movff	postinc2,??_ringbuf_push+1
  6263  001D54  CFDD F00A          	movff	postdec2,??_ringbuf_push+2
  6264  001D58  50F3               	movf	prodl,w,c
  6265  001D5A  2409               	addwf	??_ringbuf_push+1,w,c
  6266  001D5C  6ED9               	movwf	fsr2l,c
  6267  001D5E  50F4               	movf	prodh,w,c
  6268  001D60  200A               	addwfc	??_ringbuf_push+2,w,c
  6269  001D62  6EDA               	movwf	fsr2h,c
  6270  001D64  C007  FFDF         	movff	ringbuf_push@asciicode,indf2
  6271                           
  6272                           ;My_header\My_ringbuf.h: 40: if (rb->head + 1 < rb->size) rb->head++;
  6273  001D68  EE20 F002          	lfsr	2,2
  6274  001D6C  5005               	movf	ringbuf_push@rb,w,c
  6275  001D6E  26D9               	addwf	fsr2l,f,c
  6276  001D70  5006               	movf	ringbuf_push@rb+1,w,c
  6277  001D72  22DA               	addwfc	fsr2h,f,c
  6278  001D74  50DF               	movf	indf2,w,c
  6279  001D76  6E08               	movwf	??_ringbuf_push& (0+255),c
  6280  001D78  6A09               	clrf	(??_ringbuf_push+1)& (0+255),c
  6281  001D7A  EE20 F003          	lfsr	2,3
  6282  001D7E  5005               	movf	ringbuf_push@rb,w,c
  6283  001D80  26D9               	addwf	fsr2l,f,c
  6284  001D82  5006               	movf	ringbuf_push@rb+1,w,c
  6285  001D84  22DA               	addwfc	fsr2h,f,c
  6286  001D86  50DF               	movf	indf2,w,c
  6287  001D88  6E0A               	movwf	(??_ringbuf_push+2)& (0+255),c
  6288  001D8A  6A0B               	clrf	(??_ringbuf_push+3)& (0+255),c
  6289  001D8C  0E01               	movlw	1
  6290  001D8E  260A               	addwf	??_ringbuf_push+2,f,c
  6291  001D90  0E00               	movlw	0
  6292  001D92  220B               	addwfc	??_ringbuf_push+3,f,c
  6293  001D94  500B               	movf	??_ringbuf_push+3,w,c
  6294  001D96  0A80               	xorlw	128
  6295  001D98  6E0C               	movwf	(??_ringbuf_push+4)& (0+255),c
  6296  001D9A  5008               	movf	??_ringbuf_push,w,c
  6297  001D9C  5C0A               	subwf	??_ringbuf_push+2,w,c
  6298  001D9E  5009               	movf	??_ringbuf_push+1,w,c
  6299  001DA0  0A80               	xorlw	128
  6300  001DA2  580C               	subwfb	(??_ringbuf_push+4)& (0+255),w,c
  6301  001DA4  B0D8               	btfsc	status,0,c
  6302  001DA6  D008               	goto	i2l2720
  6303  001DA8  EE20 F003          	lfsr	2,3
  6304  001DAC  5005               	movf	ringbuf_push@rb,w,c
  6305  001DAE  26D9               	addwf	fsr2l,f,c
  6306  001DB0  5006               	movf	ringbuf_push@rb+1,w,c
  6307  001DB2  22DA               	addwfc	fsr2h,f,c
  6308  001DB4  2ADF               	incf	indf2,f,c
  6309  001DB6  0012               	return	
  6310  001DB8                     i2l2720:
  6311                           
  6312                           ;My_header\My_ringbuf.h: 41: else rb->head = 0;
  6313  001DB8  EE20 F003          	lfsr	2,3
  6314  001DBC  5005               	movf	ringbuf_push@rb,w,c
  6315  001DBE  26D9               	addwf	fsr2l,f,c
  6316  001DC0  5006               	movf	ringbuf_push@rb+1,w,c
  6317  001DC2  22DA               	addwfc	fsr2h,f,c
  6318  001DC4  0E00               	movlw	0
  6319  001DC6  6EDF               	movwf	indf2,c
  6320  001DC8  0012               	return	
  6321  001DCA                     __end_of_ringbuf_push:
  6322                           	opt stack 0
  6323                           pclatu	equ	0xFFB
  6324                           pclath	equ	0xFFA
  6325                           tblptru	equ	0xFF8
  6326                           tblptrh	equ	0xFF7
  6327                           tblptrl	equ	0xFF6
  6328                           tablat	equ	0xFF5
  6329                           prodh	equ	0xFF4
  6330                           prodl	equ	0xFF3
  6331                           intcon	equ	0xFF2
  6332                           intcon2	equ	0xFF1
  6333                           indf0	equ	0xFEF
  6334                           postinc0	equ	0xFEE
  6335                           fsr0h	equ	0xFEA
  6336                           fsr0l	equ	0xFE9
  6337                           wreg	equ	0xFE8
  6338                           postdec1	equ	0xFE5
  6339                           fsr1h	equ	0xFE2
  6340                           fsr1l	equ	0xFE1
  6341                           indf2	equ	0xFDF
  6342                           postinc2	equ	0xFDE
  6343                           postdec2	equ	0xFDD
  6344                           fsr2h	equ	0xFDA
  6345                           fsr2l	equ	0xFD9
  6346                           status	equ	0xFD8
  6347                           
  6348 ;; *************** function _lchika *****************
  6349 ;; Defined at:
  6350 ;;		line 139 in file "PIC18F27J53-ChargeStation6-01.c"
  6351 ;; Parameters:    Size  Location     Type
  6352 ;;		None
  6353 ;; Auto vars:     Size  Location     Type
  6354 ;;  i               1   11[COMRAM] unsigned char 
  6355 ;; Return value:  Size  Location     Type
  6356 ;;		None               void
  6357 ;; Registers used:
  6358 ;;		wreg, fsr2l, fsr2h, status,2, status,0, prodl, prodh, cstack
  6359 ;; Tracked objects:
  6360 ;;		On entry : 0/0
  6361 ;;		On exit  : 0/0
  6362 ;;		Unchanged: 0/0
  6363 ;; Data sizes:     COMRAM   BANK0   BANK1   BANK2   BANK3   BANK4   BANK5   BANK6   BANK7   BANK8   BANK9  BANK10  BANK1
      +1  BANK12  BANK13  BANK14
  6364 ;;      Params:         0       0       0       0       0       0       0       0       0       0       0       0       
      +0       0       0       0
  6365 ;;      Locals:         1       0       0       0       0       0       0       0       0       0       0       0       
      +0       0       0       0
  6366 ;;      Temps:          3       0       0       0       0       0       0       0       0       0       0       0       
      +0       0       0       0
  6367 ;;      Totals:         4       0       0       0       0       0       0       0       0       0       0       0       
      +0       0       0       0
  6368 ;;Total ram usage:        4 bytes
  6369 ;; Hardware stack levels used:    1
  6370 ;; Hardware stack levels required when called:    1
  6371 ;; This function calls:
  6372 ;;		___awdiv
  6373 ;;		i2_LED
  6374 ;;		i2___lwdiv
  6375 ;; This function is called by:
  6376 ;;		_ISR
  6377 ;; This function uses a non-reentrant model
  6378 ;;
  6379                           
  6380                           	psect	text35
  6381  001A3A                     __ptext35:
  6382                           	opt stack 0
  6383  001A3A                     _lchika:
  6384                           	opt stack 23
  6385                           
  6386                           ;PIC18F27J53-ChargeStation6-01.c: 140: uint8_t i;
  6387                           ;PIC18F27J53-ChargeStation6-01.c: 141: static uint8_t cnt[3];
  6388                           ;PIC18F27J53-ChargeStation6-01.c: 142: static uint8_t cntf[3];
  6389                           ;PIC18F27J53-ChargeStation6-01.c: 143: for (i = 0; i < 3; i++) {
  6390                           
  6391                           ;incstack = 0
  6392  001A3A  0E00               	movlw	0
  6393  001A3C  6E0C               	movwf	lchika@i,c
  6394  001A3E  0E02               	movlw	2
  6395  001A40  640C               	cpfsgt	lchika@i,c
  6396  001A42  D001               	goto	i2l3506
  6397  001A44  0012               	return	
  6398  001A46                     i2l3506:
  6399                           
  6400                           ;PIC18F27J53-ChargeStation6-01.c: 144: cnt[i]++;
  6401  001A46  500C               	movf	lchika@i,w,c
  6402  001A48  0D01               	mullw	1
  6403  001A4A  0E31               	movlw	low lchika@cnt
  6404  001A4C  24F3               	addwf	prodl,w,c
  6405  001A4E  6ED9               	movwf	fsr2l,c
  6406  001A50  0E00               	movlw	high lchika@cnt
  6407  001A52  20F4               	addwfc	prodh,w,c
  6408  001A54  6EDA               	movwf	fsr2h,c
  6409  001A56  2ADF               	incf	indf2,f,c
  6410                           
  6411                           ;PIC18F27J53-ChargeStation6-01.c: 145: if (cnt[i] % 2 == 1) {
  6412  001A58  500C               	movf	lchika@i,w,c
  6413  001A5A  0D01               	mullw	1
  6414  001A5C  0E31               	movlw	low lchika@cnt
  6415  001A5E  24F3               	addwf	prodl,w,c
  6416  001A60  6ED9               	movwf	fsr2l,c
  6417  001A62  0E00               	movlw	high lchika@cnt
  6418  001A64  20F4               	addwfc	prodh,w,c
  6419  001A66  6EDA               	movwf	fsr2h,c
  6420  001A68  50DF               	movf	indf2,w,c
  6421  001A6A  6E09               	movwf	??_lchika& (0+255),c
  6422  001A6C  A009               	btfss	??_lchika,0,c
  6423  001A6E  D006               	goto	i2l3510
  6424                           
  6425                           ;PIC18F27J53-ChargeStation6-01.c: 146: LED(i, 0);
  6426  001A70  0E00               	movlw	0
  6427  001A72  6E01               	movwf	i2LED@value,c
  6428  001A74  500C               	movf	lchika@i,w,c
  6429  001A76  EC8E  F012         	call	i2_LED
  6430                           
  6431                           ;PIC18F27J53-ChargeStation6-01.c: 147: } else {
  6432  001A7A  D05E               	goto	i2l3524
  6433  001A7C                     i2l3510:
  6434                           
  6435                           ;PIC18F27J53-ChargeStation6-01.c: 148: if (cnt[i] / 2 <= I[i] / 100) {
  6436  001A7C  500C               	movf	lchika@i,w,c
  6437  001A7E  0D02               	mullw	2
  6438  001A80  0E28               	movlw	low _I
  6439  001A82  24F3               	addwf	prodl,w,c
  6440  001A84  6ED9               	movwf	fsr2l,c
  6441  001A86  0E00               	movlw	high _I
  6442  001A88  20F4               	addwfc	prodh,w,c
  6443  001A8A  6EDA               	movwf	fsr2h,c
  6444  001A8C  CFDE F001          	movff	postinc2,i2___lwdiv@dividend
  6445  001A90  CFDD F002          	movff	postdec2,i2___lwdiv@dividend+1
  6446  001A94  0E00               	movlw	0
  6447  001A96  6E04               	movwf	i2___lwdiv@divisor+1,c
  6448  001A98  0E64               	movlw	100
  6449  001A9A  6E03               	movwf	i2___lwdiv@divisor,c
  6450  001A9C  ECF3  F011         	call	i2___lwdiv	;wreg free
  6451  001AA0  C001  F009         	movff	?i2___lwdiv,??_lchika
  6452  001AA4  C002  F00A         	movff	?i2___lwdiv+1,??_lchika+1
  6453  001AA8  500C               	movf	lchika@i,w,c
  6454  001AAA  0D01               	mullw	1
  6455  001AAC  0E31               	movlw	low lchika@cnt
  6456  001AAE  24F3               	addwf	prodl,w,c
  6457  001AB0  6ED9               	movwf	fsr2l,c
  6458  001AB2  0E00               	movlw	high lchika@cnt
  6459  001AB4  20F4               	addwfc	prodh,w,c
  6460  001AB6  6EDA               	movwf	fsr2h,c
  6461  001AB8  50DF               	movf	indf2,w,c
  6462  001ABA  6E0B               	movwf	(??_lchika+2)& (0+255),c
  6463  001ABC  500B               	movf	??_lchika+2,w,c
  6464  001ABE  6E01               	movwf	___awdiv@dividend,c
  6465  001AC0  6A02               	clrf	___awdiv@dividend+1,c
  6466  001AC2  0E00               	movlw	0
  6467  001AC4  6E04               	movwf	___awdiv@divisor+1,c
  6468  001AC6  0E02               	movlw	2
  6469  001AC8  6E03               	movwf	___awdiv@divisor,c
  6470  001ACA  EC37  F00F         	call	___awdiv	;wreg free
  6471  001ACE  5001               	movf	?___awdiv,w,c
  6472  001AD0  5C09               	subwf	??_lchika,w,c
  6473  001AD2  5002               	movf	?___awdiv+1,w,c
  6474  001AD4  580A               	subwfb	??_lchika+1,w,c
  6475  001AD6  A0D8               	btfss	status,0,c
  6476  001AD8  D00C               	goto	i2l3516
  6477                           
  6478                           ;PIC18F27J53-ChargeStation6-01.c: 149: LED(i, 1);
  6479  001ADA  0E01               	movlw	1
  6480  001ADC  6E01               	movwf	i2LED@value,c
  6481  001ADE  500C               	movf	lchika@i,w,c
  6482  001AE0  EC8E  F012         	call	i2_LED
  6483                           
  6484                           ;PIC18F27J53-ChargeStation6-01.c: 150: cntf[i] = 0;
  6485  001AE4  500C               	movf	lchika@i,w,c
  6486  001AE6  0D01               	mullw	1
  6487  001AE8  0E34               	movlw	low lchika@cntf
  6488  001AEA  24F3               	addwf	prodl,w,c
  6489  001AEC  6ED9               	movwf	fsr2l,c
  6490  001AEE  0E00               	movlw	high lchika@cntf
  6491  001AF0  D01F               	goto	L6
  6492  001AF2                     i2l3516:
  6493                           
  6494                           ;PIC18F27J53-ChargeStation6-01.c: 152: cntf[i]++;
  6495  001AF2  500C               	movf	lchika@i,w,c
  6496  001AF4  0D01               	mullw	1
  6497  001AF6  0E34               	movlw	low lchika@cntf
  6498  001AF8  24F3               	addwf	prodl,w,c
  6499  001AFA  6ED9               	movwf	fsr2l,c
  6500  001AFC  0E00               	movlw	high lchika@cntf
  6501  001AFE  20F4               	addwfc	prodh,w,c
  6502  001B00  6EDA               	movwf	fsr2h,c
  6503  001B02  2ADF               	incf	indf2,f,c
  6504                           
  6505                           ;PIC18F27J53-ChargeStation6-01.c: 153: LED(i, 0);
  6506  001B04  0E00               	movlw	0
  6507  001B06  6E01               	movwf	i2LED@value,c
  6508  001B08  500C               	movf	lchika@i,w,c
  6509  001B0A  EC8E  F012         	call	i2_LED
  6510                           
  6511                           ;PIC18F27J53-ChargeStation6-01.c: 154: if (cntf[i] >= 2) {
  6512  001B0E  500C               	movf	lchika@i,w,c
  6513  001B10  0D01               	mullw	1
  6514  001B12  0E34               	movlw	low lchika@cntf
  6515  001B14  24F3               	addwf	prodl,w,c
  6516  001B16  6ED9               	movwf	fsr2l,c
  6517  001B18  0E00               	movlw	high lchika@cntf
  6518  001B1A  20F4               	addwfc	prodh,w,c
  6519  001B1C  6EDA               	movwf	fsr2h,c
  6520  001B1E  0E01               	movlw	1
  6521  001B20  64DF               	cpfsgt	indf2,c
  6522  001B22  D00A               	goto	i2l3524
  6523                           
  6524                           ;PIC18F27J53-ChargeStation6-01.c: 155: cnt[i] = 0;
  6525  001B24  500C               	movf	lchika@i,w,c
  6526  001B26  0D01               	mullw	1
  6527  001B28  0E31               	movlw	low lchika@cnt
  6528  001B2A  24F3               	addwf	prodl,w,c
  6529  001B2C  6ED9               	movwf	fsr2l,c
  6530  001B2E  0E00               	movlw	high lchika@cnt
  6531  001B30                     L6:
  6532  001B30  20F4               	addwfc	prodh,w,c
  6533  001B32  6EDA               	movwf	fsr2h,c
  6534  001B34  0E00               	movlw	0
  6535  001B36  6EDF               	movwf	indf2,c
  6536  001B38                     i2l3524:
  6537  001B38  2A0C               	incf	lchika@i,f,c
  6538  001B3A  0E02               	movlw	2
  6539  001B3C  640C               	cpfsgt	lchika@i,c
  6540  001B3E  D783               	goto	i2l3506
  6541  001B40  0012               	return	
  6542  001B42                     __end_of_lchika:
  6543                           	opt stack 0
  6544                           pclatu	equ	0xFFB
  6545                           pclath	equ	0xFFA
  6546                           tblptru	equ	0xFF8
  6547                           tblptrh	equ	0xFF7
  6548                           tblptrl	equ	0xFF6
  6549                           tablat	equ	0xFF5
  6550                           prodh	equ	0xFF4
  6551                           prodl	equ	0xFF3
  6552                           intcon	equ	0xFF2
  6553                           intcon2	equ	0xFF1
  6554                           indf0	equ	0xFEF
  6555                           postinc0	equ	0xFEE
  6556                           fsr0h	equ	0xFEA
  6557                           fsr0l	equ	0xFE9
  6558                           wreg	equ	0xFE8
  6559                           postdec1	equ	0xFE5
  6560                           fsr1h	equ	0xFE2
  6561                           fsr1l	equ	0xFE1
  6562                           indf2	equ	0xFDF
  6563                           postinc2	equ	0xFDE
  6564                           postdec2	equ	0xFDD
  6565                           fsr2h	equ	0xFDA
  6566                           fsr2l	equ	0xFD9
  6567                           status	equ	0xFD8
  6568                           
  6569 ;; *************** function i2___lwdiv *****************
  6570 ;; Defined at:
  6571 ;;		line 8 in file "C:\Program Files (x86)\Microchip\xc8\v1.33\sources\common\lwdiv.c"
  6572 ;; Parameters:    Size  Location     Type
  6573 ;;  dividend        2    0[COMRAM] unsigned int 
  6574 ;;  divisor         2    2[COMRAM] unsigned int 
  6575 ;; Auto vars:     Size  Location     Type
  6576 ;;  __lwdiv         2    4[COMRAM] unsigned int 
  6577 ;;  __lwdiv         1    6[COMRAM] unsigned char 
  6578 ;; Return value:  Size  Location     Type
  6579 ;;                  2    0[COMRAM] unsigned int 
  6580 ;; Registers used:
  6581 ;;		wreg, status,2, status,0
  6582 ;; Tracked objects:
  6583 ;;		On entry : 0/0
  6584 ;;		On exit  : 0/0
  6585 ;;		Unchanged: 0/0
  6586 ;; Data sizes:     COMRAM   BANK0   BANK1   BANK2   BANK3   BANK4   BANK5   BANK6   BANK7   BANK8   BANK9  BANK10  BANK1
      +1  BANK12  BANK13  BANK14
  6587 ;;      Params:         4       0       0       0       0       0       0       0       0       0       0       0       
      +0       0       0       0
  6588 ;;      Locals:         3       0       0       0       0       0       0       0       0       0       0       0       
      +0       0       0       0
  6589 ;;      Temps:          0       0       0       0       0       0       0       0       0       0       0       0       
      +0       0       0       0
  6590 ;;      Totals:         7       0       0       0       0       0       0       0       0       0       0       0       
      +0       0       0       0
  6591 ;;Total ram usage:        7 bytes
  6592 ;; Hardware stack levels used:    1
  6593 ;; This function calls:
  6594 ;;		Nothing
  6595 ;; This function is called by:
  6596 ;;		_tx_sendn
  6597 ;;		_lchika
  6598 ;; This function uses a non-reentrant model
  6599 ;;
  6600                           
  6601                           	psect	text36
  6602  0023E6                     __ptext36:
  6603                           	opt stack 0
  6604  0023E6                     i2___lwdiv:
  6605                           	opt stack 23
  6606                           
  6607                           ;incstack = 0
  6608  0023E6  0E00               	movlw	0
  6609  0023E8  6E06               	movwf	i2___lwdiv@quotient+1,c
  6610  0023EA  0E00               	movlw	0
  6611  0023EC  6E05               	movwf	i2___lwdiv@quotient,c
  6612  0023EE  5004               	movf	i2___lwdiv@divisor+1,w,c
  6613  0023F0  1003               	iorwf	i2___lwdiv@divisor,w,c
  6614  0023F2  B4D8               	btfsc	status,2,c
  6615  0023F4  D01C               	goto	i2l1163
  6616  0023F6  0E01               	movlw	1
  6617  0023F8  6E07               	movwf	i2___lwdiv@counter,c
  6618  0023FA  D004               	goto	i2l3098
  6619  0023FC                     i2l3096:
  6620  0023FC  90D8               	bcf	status,0,c
  6621  0023FE  3603               	rlcf	i2___lwdiv@divisor,f,c
  6622  002400  3604               	rlcf	i2___lwdiv@divisor+1,f,c
  6623  002402  2A07               	incf	i2___lwdiv@counter,f,c
  6624  002404                     i2l3098:
  6625  002404  AE04               	btfss	i2___lwdiv@divisor+1,7,c
  6626  002406  D7FA               	goto	i2l3096
  6627  002408                     i2l3100:
  6628  002408  90D8               	bcf	status,0,c
  6629  00240A  3605               	rlcf	i2___lwdiv@quotient,f,c
  6630  00240C  3606               	rlcf	i2___lwdiv@quotient+1,f,c
  6631  00240E  5003               	movf	i2___lwdiv@divisor,w,c
  6632  002410  5C01               	subwf	i2___lwdiv@dividend,w,c
  6633  002412  5004               	movf	i2___lwdiv@divisor+1,w,c
  6634  002414  5802               	subwfb	i2___lwdiv@dividend+1,w,c
  6635  002416  A0D8               	btfss	status,0,c
  6636  002418  D005               	goto	i2l3108
  6637  00241A  5003               	movf	i2___lwdiv@divisor,w,c
  6638  00241C  5E01               	subwf	i2___lwdiv@dividend,f,c
  6639  00241E  5004               	movf	i2___lwdiv@divisor+1,w,c
  6640  002420  5A02               	subwfb	i2___lwdiv@dividend+1,f,c
  6641  002422  8005               	bsf	i2___lwdiv@quotient,0,c
  6642  002424                     i2l3108:
  6643  002424  90D8               	bcf	status,0,c
  6644  002426  3204               	rrcf	i2___lwdiv@divisor+1,f,c
  6645  002428  3203               	rrcf	i2___lwdiv@divisor,f,c
  6646  00242A  2E07               	decfsz	i2___lwdiv@counter,f,c
  6647  00242C  D7ED               	goto	i2l3100
  6648  00242E                     i2l1163:
  6649  00242E  C005  F001         	movff	i2___lwdiv@quotient,?i2___lwdiv
  6650  002432  C006  F002         	movff	i2___lwdiv@quotient+1,?i2___lwdiv+1
  6651  002436  0012               	return	
  6652  002438                     __end_ofi2___lwdiv:
  6653                           	opt stack 0
  6654                           pclatu	equ	0xFFB
  6655                           pclath	equ	0xFFA
  6656                           tblptru	equ	0xFF8
  6657                           tblptrh	equ	0xFF7
  6658                           tblptrl	equ	0xFF6
  6659                           tablat	equ	0xFF5
  6660                           prodh	equ	0xFF4
  6661                           prodl	equ	0xFF3
  6662                           intcon	equ	0xFF2
  6663                           intcon2	equ	0xFF1
  6664                           indf0	equ	0xFEF
  6665                           postinc0	equ	0xFEE
  6666                           fsr0h	equ	0xFEA
  6667                           fsr0l	equ	0xFE9
  6668                           wreg	equ	0xFE8
  6669                           postdec1	equ	0xFE5
  6670                           fsr1h	equ	0xFE2
  6671                           fsr1l	equ	0xFE1
  6672                           indf2	equ	0xFDF
  6673                           postinc2	equ	0xFDE
  6674                           postdec2	equ	0xFDD
  6675                           fsr2h	equ	0xFDA
  6676                           fsr2l	equ	0xFD9
  6677                           status	equ	0xFD8
  6678                           
  6679 ;; *************** function i2_LED *****************
  6680 ;; Defined at:
  6681 ;;		line 98 in file "PIC18F27J53-ChargeStation6-01.c"
  6682 ;; Parameters:    Size  Location     Type
  6683 ;;  b               1    wreg     unsigned char 
  6684 ;;  value           1    0[COMRAM] unsigned char 
  6685 ;; Auto vars:     Size  Location     Type
  6686 ;;  b               1    1[COMRAM] unsigned char 
  6687 ;; Return value:  Size  Location     Type
  6688 ;;		None               void
  6689 ;; Registers used:
  6690 ;;		wreg, status,2, status,0
  6691 ;; Tracked objects:
  6692 ;;		On entry : 0/0
  6693 ;;		On exit  : 0/0
  6694 ;;		Unchanged: 0/0
  6695 ;; Data sizes:     COMRAM   BANK0   BANK1   BANK2   BANK3   BANK4   BANK5   BANK6   BANK7   BANK8   BANK9  BANK10  BANK1
      +1  BANK12  BANK13  BANK14
  6696 ;;      Params:         1       0       0       0       0       0       0       0       0       0       0       0       
      +0       0       0       0
  6697 ;;      Locals:         1       0       0       0       0       0       0       0       0       0       0       0       
      +0       0       0       0
  6698 ;;      Temps:          0       0       0       0       0       0       0       0       0       0       0       0       
      +0       0       0       0
  6699 ;;      Totals:         2       0       0       0       0       0       0       0       0       0       0       0       
      +0       0       0       0
  6700 ;;Total ram usage:        2 bytes
  6701 ;; Hardware stack levels used:    1
  6702 ;; This function calls:
  6703 ;;		Nothing
  6704 ;; This function is called by:
  6705 ;;		_lchika
  6706 ;; This function uses a non-reentrant model
  6707 ;;
  6708                           
  6709                           	psect	text37
  6710  00251C                     __ptext37:
  6711                           	opt stack 0
  6712  00251C                     i2_LED:
  6713                           	opt stack 23
  6714                           
  6715                           ;incstack = 0
  6716                           ;i2LED@b stored from wreg
  6717  00251C  6E02               	movwf	i2LED@b,c
  6718                           
  6719                           ;PIC18F27J53-ChargeStation6-01.c: 99: switch (b) {
  6720  00251E  D015               	goto	i2l3088
  6721  002520                     i2l548:
  6722                           
  6723                           ;PIC18F27J53-ChargeStation6-01.c: 101: LATB7 = value;
  6724  002520  A001               	btfss	i2LED@value,0,c
  6725  002522  D001               	bra	i2u242_45
  6726  002524  8E8A               	bsf	3978,7,c	;volatile
  6727  002526                     i2u242_45:
  6728  002526  B001               	btfsc	i2LED@value,0,c
  6729  002528  D001               	bra	i2u242_46
  6730  00252A  9E8A               	bcf	3978,7,c	;volatile
  6731  00252C                     i2u242_46:
  6732                           
  6733                           ;PIC18F27J53-ChargeStation6-01.c: 102: break;
  6734  00252C  0012               	return	
  6735  00252E                     i2l550:
  6736                           
  6737                           ;PIC18F27J53-ChargeStation6-01.c: 104: LATB6 = value;
  6738  00252E  A001               	btfss	i2LED@value,0,c
  6739  002530  D001               	bra	i2u243_45
  6740  002532  8C8A               	bsf	3978,6,c	;volatile
  6741  002534                     i2u243_45:
  6742  002534  B001               	btfsc	i2LED@value,0,c
  6743  002536  D001               	bra	i2u243_46
  6744  002538  9C8A               	bcf	3978,6,c	;volatile
  6745  00253A                     i2u243_46:
  6746                           
  6747                           ;PIC18F27J53-ChargeStation6-01.c: 105: break;
  6748  00253A  0012               	return	
  6749  00253C                     i2l551:
  6750                           
  6751                           ;PIC18F27J53-ChargeStation6-01.c: 107: LATC2 = value;
  6752  00253C  A001               	btfss	i2LED@value,0,c
  6753  00253E  D001               	bra	i2u244_45
  6754  002540  848B               	bsf	3979,2,c	;volatile
  6755  002542                     i2u244_45:
  6756  002542  B001               	btfsc	i2LED@value,0,c
  6757  002544  D001               	bra	i2u244_46
  6758  002546  948B               	bcf	3979,2,c	;volatile
  6759  002548                     i2u244_46:
  6760                           
  6761                           ;PIC18F27J53-ChargeStation6-01.c: 108: break;
  6762  002548  0012               	return	
  6763  00254A                     i2l3088:
  6764  00254A  5002               	movf	i2LED@b,w,c
  6765                           
  6766                           ; Switch size 1, requested type "space"
  6767                           ; Number of cases is 3, Range of values is 0 to 2
  6768                           ; switch strategies available:
  6769                           ; Name         Instructions Cycles
  6770                           ; simple_byte           10     6 (average)
  6771                           ;	Chosen strategy is simple_byte
  6772  00254C  0A00               	xorlw	0	; case 0
  6773  00254E  B4D8               	btfsc	status,2,c
  6774  002550  D7E7               	goto	i2l548
  6775  002552  0A01               	xorlw	1	; case 1
  6776  002554  B4D8               	btfsc	status,2,c
  6777  002556  D7EB               	goto	i2l550
  6778  002558  0A03               	xorlw	3	; case 2
  6779  00255A  A4D8               	btfss	status,2,c
  6780  00255C  0012               	return	
  6781  00255E  D7EE               	goto	i2l551
  6782  002560                     __end_ofi2_LED:
  6783                           	opt stack 0
  6784                           pclatu	equ	0xFFB
  6785                           pclath	equ	0xFFA
  6786                           tblptru	equ	0xFF8
  6787                           tblptrh	equ	0xFF7
  6788                           tblptrl	equ	0xFF6
  6789                           tablat	equ	0xFF5
  6790                           prodh	equ	0xFF4
  6791                           prodl	equ	0xFF3
  6792                           intcon	equ	0xFF2
  6793                           intcon2	equ	0xFF1
  6794                           indf0	equ	0xFEF
  6795                           postinc0	equ	0xFEE
  6796                           fsr0h	equ	0xFEA
  6797                           fsr0l	equ	0xFE9
  6798                           wreg	equ	0xFE8
  6799                           postdec1	equ	0xFE5
  6800                           fsr1h	equ	0xFE2
  6801                           fsr1l	equ	0xFE1
  6802                           indf2	equ	0xFDF
  6803                           postinc2	equ	0xFDE
  6804                           postdec2	equ	0xFDD
  6805                           fsr2h	equ	0xFDA
  6806                           fsr2l	equ	0xFD9
  6807                           status	equ	0xFD8
  6808                           
  6809 ;; *************** function ___awdiv *****************
  6810 ;; Defined at:
  6811 ;;		line 8 in file "C:\Program Files (x86)\Microchip\xc8\v1.33\sources\common\awdiv.c"
  6812 ;; Parameters:    Size  Location     Type
  6813 ;;  dividend        2    0[COMRAM] int 
  6814 ;;  divisor         2    2[COMRAM] int 
  6815 ;; Auto vars:     Size  Location     Type
  6816 ;;  quotient        2    6[COMRAM] int 
  6817 ;;  sign            1    5[COMRAM] unsigned char 
  6818 ;;  counter         1    4[COMRAM] unsigned char 
  6819 ;; Return value:  Size  Location     Type
  6820 ;;                  2    0[COMRAM] int 
  6821 ;; Registers used:
  6822 ;;		wreg, status,2, status,0, prodl
  6823 ;; Tracked objects:
  6824 ;;		On entry : 0/0
  6825 ;;		On exit  : 0/0
  6826 ;;		Unchanged: 0/0
  6827 ;; Data sizes:     COMRAM   BANK0   BANK1   BANK2   BANK3   BANK4   BANK5   BANK6   BANK7   BANK8   BANK9  BANK10  BANK1
      +1  BANK12  BANK13  BANK14
  6828 ;;      Params:         4       0       0       0       0       0       0       0       0       0       0       0       
      +0       0       0       0
  6829 ;;      Locals:         4       0       0       0       0       0       0       0       0       0       0       0       
      +0       0       0       0
  6830 ;;      Temps:          0       0       0       0       0       0       0       0       0       0       0       0       
      +0       0       0       0
  6831 ;;      Totals:         8       0       0       0       0       0       0       0       0       0       0       0       
      +0       0       0       0
  6832 ;;Total ram usage:        8 bytes
  6833 ;; Hardware stack levels used:    1
  6834 ;; This function calls:
  6835 ;;		Nothing
  6836 ;; This function is called by:
  6837 ;;		_lchika
  6838 ;;		_d_to_x
  6839 ;; This function uses a non-reentrant model
  6840 ;;
  6841                           
  6842                           	psect	text38
  6843  001E6E                     __ptext38:
  6844                           	opt stack 0
  6845  001E6E                     ___awdiv:
  6846                           	opt stack 23
  6847                           
  6848                           ;incstack = 0
  6849  001E6E  0E00               	movlw	0
  6850  001E70  6E06               	movwf	___awdiv@sign,c
  6851  001E72  5004               	movf	___awdiv@divisor+1,w,c
  6852  001E74  0A80               	xorlw	128
  6853  001E76  6EF3               	movwf	prodl,c
  6854  001E78  0E80               	movlw	128
  6855  001E7A  5CF3               	subwf	prodl,w,c
  6856  001E7C  0E00               	movlw	0
  6857  001E7E  B4D8               	btfsc	status,2,c
  6858  001E80  5C03               	subwf	___awdiv@divisor,w,c
  6859  001E82  B0D8               	btfsc	status,0,c
  6860  001E84  D006               	goto	i2l2954
  6861  001E86  6C03               	negf	___awdiv@divisor,c
  6862  001E88  1E04               	comf	___awdiv@divisor+1,f,c
  6863  001E8A  B0D8               	btfsc	status,0,c
  6864  001E8C  2A04               	incf	___awdiv@divisor+1,f,c
  6865  001E8E  0E01               	movlw	1
  6866  001E90  6E06               	movwf	___awdiv@sign,c
  6867  001E92                     i2l2954:
  6868  001E92  5002               	movf	___awdiv@dividend+1,w,c
  6869  001E94  0A80               	xorlw	128
  6870  001E96  6EF3               	movwf	prodl,c
  6871  001E98  0E80               	movlw	128
  6872  001E9A  5CF3               	subwf	prodl,w,c
  6873  001E9C  0E00               	movlw	0
  6874  001E9E  B4D8               	btfsc	status,2,c
  6875  001EA0  5C01               	subwf	___awdiv@dividend,w,c
  6876  001EA2  B0D8               	btfsc	status,0,c
  6877  001EA4  D006               	goto	i2l2960
  6878  001EA6  6C01               	negf	___awdiv@dividend,c
  6879  001EA8  1E02               	comf	___awdiv@dividend+1,f,c
  6880  001EAA  B0D8               	btfsc	status,0,c
  6881  001EAC  2A02               	incf	___awdiv@dividend+1,f,c
  6882  001EAE  0E01               	movlw	1
  6883  001EB0  1A06               	xorwf	___awdiv@sign,f,c
  6884  001EB2                     i2l2960:
  6885  001EB2  0E00               	movlw	0
  6886  001EB4  6E08               	movwf	___awdiv@quotient+1,c
  6887  001EB6  0E00               	movlw	0
  6888  001EB8  6E07               	movwf	___awdiv@quotient,c
  6889  001EBA  5004               	movf	___awdiv@divisor+1,w,c
  6890  001EBC  1003               	iorwf	___awdiv@divisor,w,c
  6891  001EBE  B4D8               	btfsc	status,2,c
  6892  001EC0  D01C               	goto	i2l2982
  6893  001EC2  0E01               	movlw	1
  6894  001EC4  6E05               	movwf	___awdiv@counter,c
  6895  001EC6  D004               	goto	i2l2968
  6896  001EC8                     i2l2966:
  6897  001EC8  90D8               	bcf	status,0,c
  6898  001ECA  3603               	rlcf	___awdiv@divisor,f,c
  6899  001ECC  3604               	rlcf	___awdiv@divisor+1,f,c
  6900  001ECE  2A05               	incf	___awdiv@counter,f,c
  6901  001ED0                     i2l2968:
  6902  001ED0  AE04               	btfss	___awdiv@divisor+1,7,c
  6903  001ED2  D7FA               	goto	i2l2966
  6904  001ED4                     i2l2970:
  6905  001ED4  90D8               	bcf	status,0,c
  6906  001ED6  3607               	rlcf	___awdiv@quotient,f,c
  6907  001ED8  3608               	rlcf	___awdiv@quotient+1,f,c
  6908  001EDA  5003               	movf	___awdiv@divisor,w,c
  6909  001EDC  5C01               	subwf	___awdiv@dividend,w,c
  6910  001EDE  5004               	movf	___awdiv@divisor+1,w,c
  6911  001EE0  5802               	subwfb	___awdiv@dividend+1,w,c
  6912  001EE2  A0D8               	btfss	status,0,c
  6913  001EE4  D005               	goto	i2l2978
  6914  001EE6  5003               	movf	___awdiv@divisor,w,c
  6915  001EE8  5E01               	subwf	___awdiv@dividend,f,c
  6916  001EEA  5004               	movf	___awdiv@divisor+1,w,c
  6917  001EEC  5A02               	subwfb	___awdiv@dividend+1,f,c
  6918  001EEE  8007               	bsf	___awdiv@quotient,0,c
  6919  001EF0                     i2l2978:
  6920  001EF0  90D8               	bcf	status,0,c
  6921  001EF2  3204               	rrcf	___awdiv@divisor+1,f,c
  6922  001EF4  3203               	rrcf	___awdiv@divisor,f,c
  6923  001EF6  2E05               	decfsz	___awdiv@counter,f,c
  6924  001EF8  D7ED               	goto	i2l2970
  6925  001EFA                     i2l2982:
  6926  001EFA  5006               	movf	___awdiv@sign,w,c
  6927  001EFC  B4D8               	btfsc	status,2,c
  6928  001EFE  D004               	goto	i2l2986
  6929  001F00  6C07               	negf	___awdiv@quotient,c
  6930  001F02  1E08               	comf	___awdiv@quotient+1,f,c
  6931  001F04  B0D8               	btfsc	status,0,c
  6932  001F06  2A08               	incf	___awdiv@quotient+1,f,c
  6933  001F08                     i2l2986:
  6934  001F08  C007  F001         	movff	___awdiv@quotient,?___awdiv
  6935  001F0C  C008  F002         	movff	___awdiv@quotient+1,?___awdiv+1
  6936  001F10  0012               	return	
  6937  001F12                     __end_of___awdiv:
  6938                           	opt stack 0
  6939                           pclatu	equ	0xFFB
  6940                           pclath	equ	0xFFA
  6941                           tblptru	equ	0xFF8
  6942                           tblptrh	equ	0xFF7
  6943                           tblptrl	equ	0xFF6
  6944                           tablat	equ	0xFF5
  6945                           prodh	equ	0xFF4
  6946                           prodl	equ	0xFF3
  6947                           intcon	equ	0xFF2
  6948                           intcon2	equ	0xFF1
  6949                           indf0	equ	0xFEF
  6950                           postinc0	equ	0xFEE
  6951                           fsr0h	equ	0xFEA
  6952                           fsr0l	equ	0xFE9
  6953                           wreg	equ	0xFE8
  6954                           postdec1	equ	0xFE5
  6955                           fsr1h	equ	0xFE2
  6956                           fsr1l	equ	0xFE1
  6957                           indf2	equ	0xFDF
  6958                           postinc2	equ	0xFDE
  6959                           postdec2	equ	0xFDD
  6960                           fsr2h	equ	0xFDA
  6961                           fsr2l	equ	0xFD9
  6962                           status	equ	0xFD8
  6963                           
  6964 ;; *************** function _interrupt_TXIF *****************
  6965 ;; Defined at:
  6966 ;;		line 223 in file "../My_header\My_header.h"
  6967 ;; Parameters:    Size  Location     Type
  6968 ;;		None
  6969 ;; Auto vars:     Size  Location     Type
  6970 ;;		None
  6971 ;; Return value:  Size  Location     Type
  6972 ;;		None               void
  6973 ;; Registers used:
  6974 ;;		wreg, fsr2l, fsr2h, status,2, status,0, prodl, prodh, cstack
  6975 ;; Tracked objects:
  6976 ;;		On entry : 0/0
  6977 ;;		On exit  : 0/0
  6978 ;;		Unchanged: 0/0
  6979 ;; Data sizes:     COMRAM   BANK0   BANK1   BANK2   BANK3   BANK4   BANK5   BANK6   BANK7   BANK8   BANK9  BANK10  BANK1
      +1  BANK12  BANK13  BANK14
  6980 ;;      Params:         0       0       0       0       0       0       0       0       0       0       0       0       
      +0       0       0       0
  6981 ;;      Locals:         0       0       0       0       0       0       0       0       0       0       0       0       
      +0       0       0       0
  6982 ;;      Temps:          0       0       0       0       0       0       0       0       0       0       0       0       
      +0       0       0       0
  6983 ;;      Totals:         0       0       0       0       0       0       0       0       0       0       0       0       
      +0       0       0       0
  6984 ;;Total ram usage:        0 bytes
  6985 ;; Hardware stack levels used:    1
  6986 ;; Hardware stack levels required when called:    2
  6987 ;; This function calls:
  6988 ;;		_ringbuf_num
  6989 ;;		_ringbuf_pop
  6990 ;; This function is called by:
  6991 ;;		_ISR
  6992 ;; This function uses a non-reentrant model
  6993 ;;
  6994                           
  6995                           	psect	text39
  6996  002664                     __ptext39:
  6997                           	opt stack 0
  6998  002664                     _interrupt_TXIF:
  6999                           	opt stack 22
  7000                           
  7001                           ;My_header\My_header.h: 224: if (PIE1bits.TX1IE && PIR1bits.TX1IF) {
  7002                           
  7003                           ;incstack = 0
  7004  002664  A89D               	btfss	3997,4,c	;volatile
  7005  002666  0012               	return	
  7006  002668  A89E               	btfss	3998,4,c	;volatile
  7007  00266A  0012               	return	
  7008                           
  7009                           ;My_header\My_header.h: 225: PIR1bits.TX1IF = 0;
  7010  00266C  989E               	bcf	3998,4,c	;volatile
  7011                           
  7012                           ;My_header\My_header.h: 226: if (ringbuf_num(&tx_buf) > 0) {
  7013  00266E  0101               	movlb	1	; () banked
  7014  002670  0E01               	movlw	high _tx_buf
  7015  002672  6E02               	movwf	ringbuf_num@rb+1,c
  7016  002674  0101               	movlb	1	; () banked
  7017  002676  0ED0               	movlw	low _tx_buf
  7018  002678  6E01               	movwf	ringbuf_num@rb,c
  7019  00267A  EC5D  F010         	call	_ringbuf_num	;wreg free
  7020  00267E  0900               	iorlw	0
  7021  002680  B4D8               	btfsc	status,2,c
  7022  002682  D00A               	goto	i2l192
  7023                           
  7024                           ;My_header\My_header.h: 227: TXREG1 = ringbuf_pop(&tx_buf);
  7025  002684  0101               	movlb	1	; () banked
  7026  002686  0E01               	movlw	high _tx_buf
  7027  002688  6E06               	movwf	ringbuf_pop@rb+1,c
  7028  00268A  0101               	movlb	1	; () banked
  7029  00268C  0ED0               	movlw	low _tx_buf
  7030  00268E  6E05               	movwf	ringbuf_pop@rb,c
  7031  002690  ECD4  F00F         	call	_ringbuf_pop	;wreg free
  7032  002694  6EAE               	movwf	4014,c	;volatile
  7033                           
  7034                           ;My_header\My_header.h: 228: } else {
  7035  002696  0012               	return	
  7036  002698                     i2l192:
  7037                           
  7038                           ;My_header\My_header.h: 229: PIE1bits.TX1IE = 0;
  7039  002698  989D               	bcf	3997,4,c	;volatile
  7040  00269A  0012               	return	
  7041  00269C                     __end_of_interrupt_TXIF:
  7042                           	opt stack 0
  7043                           pclatu	equ	0xFFB
  7044                           pclath	equ	0xFFA
  7045                           tblptru	equ	0xFF8
  7046                           tblptrh	equ	0xFF7
  7047                           tblptrl	equ	0xFF6
  7048                           tablat	equ	0xFF5
  7049                           prodh	equ	0xFF4
  7050                           prodl	equ	0xFF3
  7051                           intcon	equ	0xFF2
  7052                           intcon2	equ	0xFF1
  7053                           indf0	equ	0xFEF
  7054                           postinc0	equ	0xFEE
  7055                           fsr0h	equ	0xFEA
  7056                           fsr0l	equ	0xFE9
  7057                           wreg	equ	0xFE8
  7058                           postdec1	equ	0xFE5
  7059                           fsr1h	equ	0xFE2
  7060                           fsr1l	equ	0xFE1
  7061                           indf2	equ	0xFDF
  7062                           postinc2	equ	0xFDE
  7063                           postdec2	equ	0xFDD
  7064                           fsr2h	equ	0xFDA
  7065                           fsr2l	equ	0xFD9
  7066                           status	equ	0xFD8
  7067                           
  7068 ;; *************** function _ringbuf_pop *****************
  7069 ;; Defined at:
  7070 ;;		line 45 in file "../My_header\My_ringbuf.h"
  7071 ;; Parameters:    Size  Location     Type
  7072 ;;  rb              2    4[COMRAM] PTR struct ringbuf
  7073 ;;		 -> tx_buf(5), 
  7074 ;; Auto vars:     Size  Location     Type
  7075 ;;  ret             1    9[COMRAM] unsigned char 
  7076 ;; Return value:  Size  Location     Type
  7077 ;;                  1    wreg      unsigned char 
  7078 ;; Registers used:
  7079 ;;		wreg, fsr2l, fsr2h, status,2, status,0, prodl, prodh, cstack
  7080 ;; Tracked objects:
  7081 ;;		On entry : 0/0
  7082 ;;		On exit  : 0/0
  7083 ;;		Unchanged: 0/0
  7084 ;; Data sizes:     COMRAM   BANK0   BANK1   BANK2   BANK3   BANK4   BANK5   BANK6   BANK7   BANK8   BANK9  BANK10  BANK1
      +1  BANK12  BANK13  BANK14
  7085 ;;      Params:         2       0       0       0       0       0       0       0       0       0       0       0       
      +0       0       0       0
  7086 ;;      Locals:         1       0       0       0       0       0       0       0       0       0       0       0       
      +0       0       0       0
  7087 ;;      Temps:          3       0       0       0       0       0       0       0       0       0       0       0       
      +0       0       0       0
  7088 ;;      Totals:         6       0       0       0       0       0       0       0       0       0       0       0       
      +0       0       0       0
  7089 ;;Total ram usage:        6 bytes
  7090 ;; Hardware stack levels used:    1
  7091 ;; Hardware stack levels required when called:    1
  7092 ;; This function calls:
  7093 ;;		_ringbuf_num
  7094 ;; This function is called by:
  7095 ;;		_interrupt_TXIF
  7096 ;; This function uses a non-reentrant model
  7097 ;;
  7098                           
  7099                           	psect	text40
  7100  001FA8                     __ptext40:
  7101                           	opt stack 0
  7102  001FA8                     _ringbuf_pop:
  7103                           	opt stack 22
  7104                           
  7105                           ;My_header\My_ringbuf.h: 46: if (ringbuf_num(rb)) {
  7106                           
  7107                           ;incstack = 0
  7108  001FA8  C006  F002         	movff	ringbuf_pop@rb+1,ringbuf_num@rb+1
  7109  001FAC  C005  F001         	movff	ringbuf_pop@rb,ringbuf_num@rb
  7110  001FB0  EC5D  F010         	call	_ringbuf_num	;wreg free
  7111  001FB4  0900               	iorlw	0
  7112  001FB6  B4D8               	btfsc	status,2,c
  7113  001FB8  D03D               	goto	i2l2870
  7114                           
  7115                           ;My_header\My_ringbuf.h: 47: uint8_t ret = rb->buf[rb->tail];
  7116  001FBA  EE20 F004          	lfsr	2,4
  7117  001FBE  5005               	movf	ringbuf_pop@rb,w,c
  7118  001FC0  26D9               	addwf	fsr2l,f,c
  7119  001FC2  5006               	movf	ringbuf_pop@rb+1,w,c
  7120  001FC4  22DA               	addwfc	fsr2h,f,c
  7121  001FC6  50DF               	movf	indf2,w,c
  7122  001FC8  6E07               	movwf	??_ringbuf_pop& (0+255),c
  7123  001FCA  5007               	movf	??_ringbuf_pop,w,c
  7124  001FCC  0D01               	mullw	1
  7125  001FCE  C005  FFD9         	movff	ringbuf_pop@rb,fsr2l
  7126  001FD2  C006  FFDA         	movff	ringbuf_pop@rb+1,fsr2h
  7127  001FD6  CFDE F008          	movff	postinc2,??_ringbuf_pop+1
  7128  001FDA  CFDD F009          	movff	postdec2,??_ringbuf_pop+2
  7129  001FDE  50F3               	movf	prodl,w,c
  7130  001FE0  2408               	addwf	??_ringbuf_pop+1,w,c
  7131  001FE2  6ED9               	movwf	fsr2l,c
  7132  001FE4  50F4               	movf	prodh,w,c
  7133  001FE6  2009               	addwfc	??_ringbuf_pop+2,w,c
  7134  001FE8  6EDA               	movwf	fsr2h,c
  7135  001FEA  50DF               	movf	indf2,w,c
  7136  001FEC  6E0A               	movwf	ringbuf_pop@ret,c
  7137                           
  7138                           ;My_header\My_ringbuf.h: 48: rb->tail++;
  7139  001FEE  EE20 F004          	lfsr	2,4
  7140  001FF2  5005               	movf	ringbuf_pop@rb,w,c
  7141  001FF4  26D9               	addwf	fsr2l,f,c
  7142  001FF6  5006               	movf	ringbuf_pop@rb+1,w,c
  7143  001FF8  22DA               	addwfc	fsr2h,f,c
  7144  001FFA  2ADF               	incf	indf2,f,c
  7145                           
  7146                           ;My_header\My_ringbuf.h: 49: if (rb->tail >= rb->size) {
  7147  001FFC  EE20 F004          	lfsr	2,4
  7148  002000  5005               	movf	ringbuf_pop@rb,w,c
  7149  002002  26D9               	addwf	fsr2l,f,c
  7150  002004  5006               	movf	ringbuf_pop@rb+1,w,c
  7151  002006  22DA               	addwfc	fsr2h,f,c
  7152  002008  50DF               	movf	indf2,w,c
  7153  00200A  6E07               	movwf	??_ringbuf_pop& (0+255),c
  7154  00200C  EE20 F002          	lfsr	2,2
  7155  002010  5005               	movf	ringbuf_pop@rb,w,c
  7156  002012  26D9               	addwf	fsr2l,f,c
  7157  002014  5006               	movf	ringbuf_pop@rb+1,w,c
  7158  002016  22DA               	addwfc	fsr2h,f,c
  7159  002018  50DF               	movf	indf2,w,c
  7160  00201A  5C07               	subwf	??_ringbuf_pop,w,c
  7161  00201C  A0D8               	btfss	status,0,c
  7162  00201E  D008               	goto	i2l2864
  7163                           
  7164                           ;My_header\My_ringbuf.h: 50: rb->tail = 0;
  7165  002020  EE20 F004          	lfsr	2,4
  7166  002024  5005               	movf	ringbuf_pop@rb,w,c
  7167  002026  26D9               	addwf	fsr2l,f,c
  7168  002028  5006               	movf	ringbuf_pop@rb+1,w,c
  7169  00202A  22DA               	addwfc	fsr2h,f,c
  7170  00202C  0E00               	movlw	0
  7171  00202E  6EDF               	movwf	indf2,c
  7172  002030                     i2l2864:
  7173                           
  7174                           ;My_header\My_ringbuf.h: 51: }
  7175                           ;My_header\My_ringbuf.h: 52: return ret;
  7176  002030  500A               	movf	ringbuf_pop@ret,w,c
  7177  002032  0012               	return	
  7178  002034                     i2l2870:
  7179                           
  7180                           ;My_header\My_ringbuf.h: 54: return 0;
  7181  002034  0E00               	movlw	0
  7182  002036  0012               	return	
  7183  002038                     __end_of_ringbuf_pop:
  7184                           	opt stack 0
  7185                           pclatu	equ	0xFFB
  7186                           pclath	equ	0xFFA
  7187                           tblptru	equ	0xFF8
  7188                           tblptrh	equ	0xFF7
  7189                           tblptrl	equ	0xFF6
  7190                           tablat	equ	0xFF5
  7191                           prodh	equ	0xFF4
  7192                           prodl	equ	0xFF3
  7193                           intcon	equ	0xFF2
  7194                           intcon2	equ	0xFF1
  7195                           indf0	equ	0xFEF
  7196                           postinc0	equ	0xFEE
  7197                           fsr0h	equ	0xFEA
  7198                           fsr0l	equ	0xFE9
  7199                           wreg	equ	0xFE8
  7200                           postdec1	equ	0xFE5
  7201                           fsr1h	equ	0xFE2
  7202                           fsr1l	equ	0xFE1
  7203                           indf2	equ	0xFDF
  7204                           postinc2	equ	0xFDE
  7205                           postdec2	equ	0xFDD
  7206                           fsr2h	equ	0xFDA
  7207                           fsr2l	equ	0xFD9
  7208                           status	equ	0xFD8
  7209                           
  7210 ;; *************** function _ringbuf_num *****************
  7211 ;; Defined at:
  7212 ;;		line 29 in file "../My_header\My_ringbuf.h"
  7213 ;; Parameters:    Size  Location     Type
  7214 ;;  rb              2    0[COMRAM] PTR struct ringbuf
  7215 ;;		 -> tx_buf(5), 
  7216 ;; Auto vars:     Size  Location     Type
  7217 ;;		None
  7218 ;; Return value:  Size  Location     Type
  7219 ;;                  1    wreg      unsigned char 
  7220 ;; Registers used:
  7221 ;;		wreg, fsr2l, fsr2h, status,2, status,0
  7222 ;; Tracked objects:
  7223 ;;		On entry : 0/0
  7224 ;;		On exit  : 0/0
  7225 ;;		Unchanged: 0/0
  7226 ;; Data sizes:     COMRAM   BANK0   BANK1   BANK2   BANK3   BANK4   BANK5   BANK6   BANK7   BANK8   BANK9  BANK10  BANK1
      +1  BANK12  BANK13  BANK14
  7227 ;;      Params:         2       0       0       0       0       0       0       0       0       0       0       0       
      +0       0       0       0
  7228 ;;      Locals:         0       0       0       0       0       0       0       0       0       0       0       0       
      +0       0       0       0
  7229 ;;      Temps:          2       0       0       0       0       0       0       0       0       0       0       0       
      +0       0       0       0
  7230 ;;      Totals:         4       0       0       0       0       0       0       0       0       0       0       0       
      +0       0       0       0
  7231 ;;Total ram usage:        4 bytes
  7232 ;; Hardware stack levels used:    1
  7233 ;; This function calls:
  7234 ;;		Nothing
  7235 ;; This function is called by:
  7236 ;;		_ringbuf_push
  7237 ;;		_ringbuf_pop
  7238 ;;		_interrupt_TXIF
  7239 ;;		_ringbuf_backspace
  7240 ;; This function uses a non-reentrant model
  7241 ;;
  7242                           
  7243                           	psect	text41
  7244  0020BA                     __ptext41:
  7245                           	opt stack 0
  7246  0020BA                     _ringbuf_num:
  7247                           	opt stack 22
  7248                           
  7249                           ;My_header\My_ringbuf.h: 30: if (rb->head >= rb->tail) {
  7250                           
  7251                           ;incstack = 0
  7252  0020BA  EE20 F003          	lfsr	2,3
  7253  0020BE  5001               	movf	ringbuf_num@rb,w,c
  7254  0020C0  26D9               	addwf	fsr2l,f,c
  7255  0020C2  5002               	movf	ringbuf_num@rb+1,w,c
  7256  0020C4  22DA               	addwfc	fsr2h,f,c
  7257  0020C6  50DF               	movf	indf2,w,c
  7258  0020C8  6E03               	movwf	??_ringbuf_num& (0+255),c
  7259  0020CA  EE20 F004          	lfsr	2,4
  7260  0020CE  5001               	movf	ringbuf_num@rb,w,c
  7261  0020D0  26D9               	addwf	fsr2l,f,c
  7262  0020D2  5002               	movf	ringbuf_num@rb+1,w,c
  7263  0020D4  22DA               	addwfc	fsr2h,f,c
  7264  0020D6  50DF               	movf	indf2,w,c
  7265  0020D8  5C03               	subwf	??_ringbuf_num,w,c
  7266  0020DA  A0D8               	btfss	status,0,c
  7267  0020DC  D012               	goto	i2l2656
  7268                           
  7269                           ;My_header\My_ringbuf.h: 31: return (rb->head - rb->tail);
  7270  0020DE  EE20 F003          	lfsr	2,3
  7271  0020E2  5001               	movf	ringbuf_num@rb,w,c
  7272  0020E4  26D9               	addwf	fsr2l,f,c
  7273  0020E6  5002               	movf	ringbuf_num@rb+1,w,c
  7274  0020E8  22DA               	addwfc	fsr2h,f,c
  7275  0020EA  50DF               	movf	indf2,w,c
  7276  0020EC  6E03               	movwf	??_ringbuf_num& (0+255),c
  7277  0020EE  EE20 F004          	lfsr	2,4
  7278  0020F2  5001               	movf	ringbuf_num@rb,w,c
  7279  0020F4  26D9               	addwf	fsr2l,f,c
  7280  0020F6  5002               	movf	ringbuf_num@rb+1,w,c
  7281  0020F8  22DA               	addwfc	fsr2h,f,c
  7282  0020FA  50DF               	movf	indf2,w,c
  7283  0020FC  0800               	sublw	0
  7284  0020FE  2403               	addwf	??_ringbuf_num,w,c
  7285  002100  0012               	return	
  7286  002102                     i2l2656:
  7287                           
  7288                           ;My_header\My_ringbuf.h: 33: return (rb->size + rb->head - rb->tail);
  7289  002102  EE20 F003          	lfsr	2,3
  7290  002106  5001               	movf	ringbuf_num@rb,w,c
  7291  002108  26D9               	addwf	fsr2l,f,c
  7292  00210A  5002               	movf	ringbuf_num@rb+1,w,c
  7293  00210C  22DA               	addwfc	fsr2h,f,c
  7294  00210E  50DF               	movf	indf2,w,c
  7295  002110  6E03               	movwf	??_ringbuf_num& (0+255),c
  7296  002112  EE20 F002          	lfsr	2,2
  7297  002116  5001               	movf	ringbuf_num@rb,w,c
  7298  002118  26D9               	addwf	fsr2l,f,c
  7299  00211A  5002               	movf	ringbuf_num@rb+1,w,c
  7300  00211C  22DA               	addwfc	fsr2h,f,c
  7301  00211E  50DF               	movf	indf2,w,c
  7302  002120  6E04               	movwf	(??_ringbuf_num+1)& (0+255),c
  7303  002122  EE20 F004          	lfsr	2,4
  7304  002126  5001               	movf	ringbuf_num@rb,w,c
  7305  002128  26D9               	addwf	fsr2l,f,c
  7306  00212A  5002               	movf	ringbuf_num@rb+1,w,c
  7307  00212C  22DA               	addwfc	fsr2h,f,c
  7308  00212E  50DF               	movf	indf2,w,c
  7309  002130  0800               	sublw	0
  7310  002132  2404               	addwf	??_ringbuf_num+1,w,c
  7311  002134  2403               	addwf	??_ringbuf_num,w,c
  7312  002136  0012               	return	
  7313  002138                     __end_of_ringbuf_num:
  7314                           	opt stack 0
  7315                           pclatu	equ	0xFFB
  7316                           pclath	equ	0xFFA
  7317                           tblptru	equ	0xFF8
  7318                           tblptrh	equ	0xFF7
  7319                           tblptrl	equ	0xFF6
  7320                           tablat	equ	0xFF5
  7321                           prodh	equ	0xFF4
  7322                           prodl	equ	0xFF3
  7323                           intcon	equ	0xFF2
  7324                           intcon2	equ	0xFF1
  7325                           indf0	equ	0xFEF
  7326                           postinc0	equ	0xFEE
  7327                           fsr0h	equ	0xFEA
  7328                           fsr0l	equ	0xFE9
  7329                           wreg	equ	0xFE8
  7330                           postdec1	equ	0xFE5
  7331                           fsr1h	equ	0xFE2
  7332                           fsr1l	equ	0xFE1
  7333                           indf2	equ	0xFDF
  7334                           postinc2	equ	0xFDE
  7335                           postdec2	equ	0xFDD
  7336                           fsr2h	equ	0xFDA
  7337                           fsr2l	equ	0xFD9
  7338                           status	equ	0xFD8
  7339                           
  7340 ;; *************** function _button_timer_interrupt *****************
  7341 ;; Defined at:
  7342 ;;		line 51 in file "../My_header\My_button.h"
  7343 ;; Parameters:    Size  Location     Type
  7344 ;;  bt              2    0[COMRAM] PTR struct button
  7345 ;;		 -> sw(4), sw2(4), sw1(4), sw0(4), 
  7346 ;;  sw_value        1    2[COMRAM] unsigned char 
  7347 ;; Auto vars:     Size  Location     Type
  7348 ;;		None
  7349 ;; Return value:  Size  Location     Type
  7350 ;;		None               void
  7351 ;; Registers used:
  7352 ;;		wreg, fsr2l, fsr2h, status,2, status,0
  7353 ;; Tracked objects:
  7354 ;;		On entry : 0/0
  7355 ;;		On exit  : 0/0
  7356 ;;		Unchanged: 0/0
  7357 ;; Data sizes:     COMRAM   BANK0   BANK1   BANK2   BANK3   BANK4   BANK5   BANK6   BANK7   BANK8   BANK9  BANK10  BANK1
      +1  BANK12  BANK13  BANK14
  7358 ;;      Params:         3       0       0       0       0       0       0       0       0       0       0       0       
      +0       0       0       0
  7359 ;;      Locals:         0       0       0       0       0       0       0       0       0       0       0       0       
      +0       0       0       0
  7360 ;;      Temps:          2       0       0       0       0       0       0       0       0       0       0       0       
      +0       0       0       0
  7361 ;;      Totals:         5       0       0       0       0       0       0       0       0       0       0       0       
      +0       0       0       0
  7362 ;;Total ram usage:        5 bytes
  7363 ;; Hardware stack levels used:    1
  7364 ;; This function calls:
  7365 ;;		Nothing
  7366 ;; This function is called by:
  7367 ;;		_ISR
  7368 ;; This function uses a non-reentrant model
  7369 ;;
  7370                           
  7371                           	psect	text42
  7372  0014F2                     __ptext42:
  7373                           	opt stack 0
  7374  0014F2                     _button_timer_interrupt:
  7375                           	opt stack 24
  7376                           
  7377                           ;My_header\My_button.h: 52: if (sw_value) {
  7378                           
  7379                           ;incstack = 0
  7380  0014F2  5003               	movf	button_timer_interrupt@sw_value,w,c
  7381  0014F4  B4D8               	btfsc	status,2,c
  7382  0014F6  D09C               	goto	i2l3266
  7383                           
  7384                           ;My_header\My_button.h: 53: if (bt->cnt_sw < 350 + 1) bt->cnt_sw++;
  7385  0014F8  C001  FFD9         	movff	button_timer_interrupt@bt,fsr2l
  7386  0014FC  C002  FFDA         	movff	button_timer_interrupt@bt+1,fsr2h
  7387  001500  CFDE F004          	movff	postinc2,??_button_timer_interrupt
  7388  001504  CFDD F005          	movff	postdec2,??_button_timer_interrupt+1
  7389  001508  0E5F               	movlw	95
  7390  00150A  5C04               	subwf	??_button_timer_interrupt,w,c
  7391  00150C  0E01               	movlw	1
  7392  00150E  5805               	subwfb	??_button_timer_interrupt+1,w,c
  7393  001510  B0D8               	btfsc	status,0,c
  7394  001512  D007               	goto	i2l268
  7395  001514  C001  FFD9         	movff	button_timer_interrupt@bt,fsr2l
  7396  001518  C002  FFDA         	movff	button_timer_interrupt@bt+1,fsr2h
  7397  00151C  2ADE               	incf	postinc2,f,c
  7398  00151E  0E00               	movlw	0
  7399  001520  22DD               	addwfc	postdec2,f,c
  7400  001522                     i2l268:
  7401                           
  7402                           ;My_header\My_button.h: 54: if (bt->cnt_sw == 350)bt->flag.long_holding_7 = 1;
  7403  001522  C001  FFD9         	movff	button_timer_interrupt@bt,fsr2l
  7404  001526  C002  FFDA         	movff	button_timer_interrupt@bt+1,fsr2h
  7405  00152A  2AD9               	incf	fsr2l,f,c
  7406  00152C  50DD               	movf	postdec2,w,c
  7407  00152E  0A01               	xorlw	1
  7408  001530  0E5E               	movlw	94
  7409  001532  B4D8               	btfsc	status,2,c
  7410  001534  18DF               	xorwf	indf2,w,c
  7411  001536  A4D8               	btfss	status,2,c
  7412  001538  D007               	goto	i2l269
  7413  00153A  EE20 F003          	lfsr	2,3
  7414  00153E  5001               	movf	button_timer_interrupt@bt,w,c
  7415  001540  26D9               	addwf	fsr2l,f,c
  7416  001542  5002               	movf	button_timer_interrupt@bt+1,w,c
  7417  001544  22DA               	addwfc	fsr2h,f,c
  7418  001546  8EDF               	bsf	indf2,7,c
  7419  001548                     i2l269:
  7420                           
  7421                           ;My_header\My_button.h: 55: if (bt->cnt_sw == 300)bt->flag.long_holding_6 = 1;
  7422  001548  C001  FFD9         	movff	button_timer_interrupt@bt,fsr2l
  7423  00154C  C002  FFDA         	movff	button_timer_interrupt@bt+1,fsr2h
  7424  001550  2AD9               	incf	fsr2l,f,c
  7425  001552  50DD               	movf	postdec2,w,c
  7426  001554  0A01               	xorlw	1
  7427  001556  0E2C               	movlw	44
  7428  001558  B4D8               	btfsc	status,2,c
  7429  00155A  18DF               	xorwf	indf2,w,c
  7430  00155C  A4D8               	btfss	status,2,c
  7431  00155E  D007               	goto	i2l270
  7432  001560  EE20 F003          	lfsr	2,3
  7433  001564  5001               	movf	button_timer_interrupt@bt,w,c
  7434  001566  26D9               	addwf	fsr2l,f,c
  7435  001568  5002               	movf	button_timer_interrupt@bt+1,w,c
  7436  00156A  22DA               	addwfc	fsr2h,f,c
  7437  00156C  8CDF               	bsf	indf2,6,c
  7438  00156E                     i2l270:
  7439                           
  7440                           ;My_header\My_button.h: 56: if (bt->cnt_sw == 250)bt->flag.long_holding_5 = 1;
  7441  00156E  C001  FFD9         	movff	button_timer_interrupt@bt,fsr2l
  7442  001572  C002  FFDA         	movff	button_timer_interrupt@bt+1,fsr2h
  7443  001576  50DE               	movf	postinc2,w,c
  7444  001578  0AFA               	xorlw	250
  7445  00157A  10DD               	iorwf	postdec2,w,c
  7446  00157C  A4D8               	btfss	status,2,c
  7447  00157E  D007               	goto	i2l271
  7448  001580  EE20 F003          	lfsr	2,3
  7449  001584  5001               	movf	button_timer_interrupt@bt,w,c
  7450  001586  26D9               	addwf	fsr2l,f,c
  7451  001588  5002               	movf	button_timer_interrupt@bt+1,w,c
  7452  00158A  22DA               	addwfc	fsr2h,f,c
  7453  00158C  8ADF               	bsf	indf2,5,c
  7454  00158E                     i2l271:
  7455                           
  7456                           ;My_header\My_button.h: 57: if (bt->cnt_sw == 200)bt->flag.long_holding_4 = 1;
  7457  00158E  C001  FFD9         	movff	button_timer_interrupt@bt,fsr2l
  7458  001592  C002  FFDA         	movff	button_timer_interrupt@bt+1,fsr2h
  7459  001596  50DE               	movf	postinc2,w,c
  7460  001598  0AC8               	xorlw	200
  7461  00159A  10DD               	iorwf	postdec2,w,c
  7462  00159C  A4D8               	btfss	status,2,c
  7463  00159E  D007               	goto	i2l272
  7464  0015A0  EE20 F003          	lfsr	2,3
  7465  0015A4  5001               	movf	button_timer_interrupt@bt,w,c
  7466  0015A6  26D9               	addwf	fsr2l,f,c
  7467  0015A8  5002               	movf	button_timer_interrupt@bt+1,w,c
  7468  0015AA  22DA               	addwfc	fsr2h,f,c
  7469  0015AC  88DF               	bsf	indf2,4,c
  7470  0015AE                     i2l272:
  7471                           
  7472                           ;My_header\My_button.h: 58: if (bt->cnt_sw == 150)bt->flag.long_holding_3 = 1;
  7473  0015AE  C001  FFD9         	movff	button_timer_interrupt@bt,fsr2l
  7474  0015B2  C002  FFDA         	movff	button_timer_interrupt@bt+1,fsr2h
  7475  0015B6  50DE               	movf	postinc2,w,c
  7476  0015B8  0A96               	xorlw	150
  7477  0015BA  10DD               	iorwf	postdec2,w,c
  7478  0015BC  A4D8               	btfss	status,2,c
  7479  0015BE  D007               	goto	i2l273
  7480  0015C0  EE20 F003          	lfsr	2,3
  7481  0015C4  5001               	movf	button_timer_interrupt@bt,w,c
  7482  0015C6  26D9               	addwf	fsr2l,f,c
  7483  0015C8  5002               	movf	button_timer_interrupt@bt+1,w,c
  7484  0015CA  22DA               	addwfc	fsr2h,f,c
  7485  0015CC  86DF               	bsf	indf2,3,c
  7486  0015CE                     i2l273:
  7487                           
  7488                           ;My_header\My_button.h: 59: if (bt->cnt_sw == 60)bt->flag.long_holding_2 = 1;
  7489  0015CE  C001  FFD9         	movff	button_timer_interrupt@bt,fsr2l
  7490  0015D2  C002  FFDA         	movff	button_timer_interrupt@bt+1,fsr2h
  7491  0015D6  50DE               	movf	postinc2,w,c
  7492  0015D8  0A3C               	xorlw	60
  7493  0015DA  10DD               	iorwf	postdec2,w,c
  7494  0015DC  A4D8               	btfss	status,2,c
  7495  0015DE  D007               	goto	i2l274
  7496  0015E0  EE20 F003          	lfsr	2,3
  7497  0015E4  5001               	movf	button_timer_interrupt@bt,w,c
  7498  0015E6  26D9               	addwf	fsr2l,f,c
  7499  0015E8  5002               	movf	button_timer_interrupt@bt+1,w,c
  7500  0015EA  22DA               	addwfc	fsr2h,f,c
  7501  0015EC  84DF               	bsf	indf2,2,c
  7502  0015EE                     i2l274:
  7503                           
  7504                           ;My_header\My_button.h: 60: if (bt->cnt_sw == 16)bt->flag.long_holding_1 = 1;
  7505  0015EE  C001  FFD9         	movff	button_timer_interrupt@bt,fsr2l
  7506  0015F2  C002  FFDA         	movff	button_timer_interrupt@bt+1,fsr2h
  7507  0015F6  50DE               	movf	postinc2,w,c
  7508  0015F8  0A10               	xorlw	16
  7509  0015FA  10DD               	iorwf	postdec2,w,c
  7510  0015FC  A4D8               	btfss	status,2,c
  7511  0015FE  D007               	goto	i2l275
  7512  001600  EE20 F003          	lfsr	2,3
  7513  001604  5001               	movf	button_timer_interrupt@bt,w,c
  7514  001606  26D9               	addwf	fsr2l,f,c
  7515  001608  5002               	movf	button_timer_interrupt@bt+1,w,c
  7516  00160A  22DA               	addwfc	fsr2h,f,c
  7517  00160C  82DF               	bsf	indf2,1,c
  7518  00160E                     i2l275:
  7519                           
  7520                           ;My_header\My_button.h: 61: if (bt->cnt_sw == 2)bt->flag.pressing = 1;
  7521  00160E  C001  FFD9         	movff	button_timer_interrupt@bt,fsr2l
  7522  001612  C002  FFDA         	movff	button_timer_interrupt@bt+1,fsr2h
  7523  001616  50DE               	movf	postinc2,w,c
  7524  001618  0A02               	xorlw	2
  7525  00161A  10DD               	iorwf	postdec2,w,c
  7526  00161C  A4D8               	btfss	status,2,c
  7527  00161E  0012               	return	
  7528  001620  EE20 F003          	lfsr	2,3
  7529  001624  5001               	movf	button_timer_interrupt@bt,w,c
  7530  001626  26D9               	addwf	fsr2l,f,c
  7531  001628  5002               	movf	button_timer_interrupt@bt+1,w,c
  7532  00162A  22DA               	addwfc	fsr2h,f,c
  7533  00162C  80DF               	bsf	indf2,0,c
  7534  00162E  0012               	return	
  7535  001630                     i2l3266:
  7536                           
  7537                           ;My_header\My_button.h: 63: if (bt->cnt_sw >= 350)bt->flag.long_hold_7 = 1;
  7538  001630  C001  FFD9         	movff	button_timer_interrupt@bt,fsr2l
  7539  001634  C002  FFDA         	movff	button_timer_interrupt@bt+1,fsr2h
  7540  001638  CFDE F004          	movff	postinc2,??_button_timer_interrupt
  7541  00163C  CFDD F005          	movff	postdec2,??_button_timer_interrupt+1
  7542  001640  0E5E               	movlw	94
  7543  001642  5C04               	subwf	??_button_timer_interrupt,w,c
  7544  001644  0E01               	movlw	1
  7545  001646  5805               	subwfb	??_button_timer_interrupt+1,w,c
  7546  001648  A0D8               	btfss	status,0,c
  7547  00164A  D008               	goto	i2l3270
  7548  00164C  EE20 F002          	lfsr	2,2
  7549  001650  5001               	movf	button_timer_interrupt@bt,w,c
  7550  001652  26D9               	addwf	fsr2l,f,c
  7551  001654  5002               	movf	button_timer_interrupt@bt+1,w,c
  7552  001656  22DA               	addwfc	fsr2h,f,c
  7553  001658  8EDF               	bsf	indf2,7,c
  7554  00165A  D099               	goto	i2l3298
  7555  00165C                     i2l3270:
  7556                           
  7557                           ;My_header\My_button.h: 64: else if (bt->cnt_sw >= 300)bt->flag.long_hold_6 = 1;
  7558  00165C  C001  FFD9         	movff	button_timer_interrupt@bt,fsr2l
  7559  001660  C002  FFDA         	movff	button_timer_interrupt@bt+1,fsr2h
  7560  001664  CFDE F004          	movff	postinc2,??_button_timer_interrupt
  7561  001668  CFDD F005          	movff	postdec2,??_button_timer_interrupt+1
  7562  00166C  0E2C               	movlw	44
  7563  00166E  5C04               	subwf	??_button_timer_interrupt,w,c
  7564  001670  0E01               	movlw	1
  7565  001672  5805               	subwfb	??_button_timer_interrupt+1,w,c
  7566  001674  A0D8               	btfss	status,0,c
  7567  001676  D008               	goto	i2l3274
  7568  001678  EE20 F002          	lfsr	2,2
  7569  00167C  5001               	movf	button_timer_interrupt@bt,w,c
  7570  00167E  26D9               	addwf	fsr2l,f,c
  7571  001680  5002               	movf	button_timer_interrupt@bt+1,w,c
  7572  001682  22DA               	addwfc	fsr2h,f,c
  7573  001684  8CDF               	bsf	indf2,6,c
  7574  001686  D083               	goto	i2l3298
  7575  001688                     i2l3274:
  7576                           
  7577                           ;My_header\My_button.h: 65: else if (bt->cnt_sw >= 250)bt->flag.long_hold_5 = 1;
  7578  001688  C001  FFD9         	movff	button_timer_interrupt@bt,fsr2l
  7579  00168C  C002  FFDA         	movff	button_timer_interrupt@bt+1,fsr2h
  7580  001690  CFDE F004          	movff	postinc2,??_button_timer_interrupt
  7581  001694  CFDD F005          	movff	postdec2,??_button_timer_interrupt+1
  7582  001698  0EFA               	movlw	250
  7583  00169A  5C04               	subwf	??_button_timer_interrupt,w,c
  7584  00169C  0E00               	movlw	0
  7585  00169E  5805               	subwfb	??_button_timer_interrupt+1,w,c
  7586  0016A0  A0D8               	btfss	status,0,c
  7587  0016A2  D008               	goto	i2l3278
  7588  0016A4  EE20 F002          	lfsr	2,2
  7589  0016A8  5001               	movf	button_timer_interrupt@bt,w,c
  7590  0016AA  26D9               	addwf	fsr2l,f,c
  7591  0016AC  5002               	movf	button_timer_interrupt@bt+1,w,c
  7592  0016AE  22DA               	addwfc	fsr2h,f,c
  7593  0016B0  8ADF               	bsf	indf2,5,c
  7594  0016B2  D06D               	goto	i2l3298
  7595  0016B4                     i2l3278:
  7596                           
  7597                           ;My_header\My_button.h: 66: else if (bt->cnt_sw >= 200)bt->flag.long_hold_4 = 1;
  7598  0016B4  C001  FFD9         	movff	button_timer_interrupt@bt,fsr2l
  7599  0016B8  C002  FFDA         	movff	button_timer_interrupt@bt+1,fsr2h
  7600  0016BC  CFDE F004          	movff	postinc2,??_button_timer_interrupt
  7601  0016C0  CFDD F005          	movff	postdec2,??_button_timer_interrupt+1
  7602  0016C4  0EC8               	movlw	200
  7603  0016C6  5C04               	subwf	??_button_timer_interrupt,w,c
  7604  0016C8  0E00               	movlw	0
  7605  0016CA  5805               	subwfb	??_button_timer_interrupt+1,w,c
  7606  0016CC  A0D8               	btfss	status,0,c
  7607  0016CE  D008               	goto	i2l3282
  7608  0016D0  EE20 F002          	lfsr	2,2
  7609  0016D4  5001               	movf	button_timer_interrupt@bt,w,c
  7610  0016D6  26D9               	addwf	fsr2l,f,c
  7611  0016D8  5002               	movf	button_timer_interrupt@bt+1,w,c
  7612  0016DA  22DA               	addwfc	fsr2h,f,c
  7613  0016DC  88DF               	bsf	indf2,4,c
  7614  0016DE  D057               	goto	i2l3298
  7615  0016E0                     i2l3282:
  7616                           
  7617                           ;My_header\My_button.h: 67: else if (bt->cnt_sw >= 150)bt->flag.long_hold_3 = 1;
  7618  0016E0  C001  FFD9         	movff	button_timer_interrupt@bt,fsr2l
  7619  0016E4  C002  FFDA         	movff	button_timer_interrupt@bt+1,fsr2h
  7620  0016E8  CFDE F004          	movff	postinc2,??_button_timer_interrupt
  7621  0016EC  CFDD F005          	movff	postdec2,??_button_timer_interrupt+1
  7622  0016F0  0E96               	movlw	150
  7623  0016F2  5C04               	subwf	??_button_timer_interrupt,w,c
  7624  0016F4  0E00               	movlw	0
  7625  0016F6  5805               	subwfb	??_button_timer_interrupt+1,w,c
  7626  0016F8  A0D8               	btfss	status,0,c
  7627  0016FA  D008               	goto	i2l3286
  7628  0016FC  EE20 F002          	lfsr	2,2
  7629  001700  5001               	movf	button_timer_interrupt@bt,w,c
  7630  001702  26D9               	addwf	fsr2l,f,c
  7631  001704  5002               	movf	button_timer_interrupt@bt+1,w,c
  7632  001706  22DA               	addwfc	fsr2h,f,c
  7633  001708  86DF               	bsf	indf2,3,c
  7634  00170A  D041               	goto	i2l3298
  7635  00170C                     i2l3286:
  7636                           
  7637                           ;My_header\My_button.h: 68: else if (bt->cnt_sw >= 60)bt->flag.long_hold_2 = 1;
  7638  00170C  C001  FFD9         	movff	button_timer_interrupt@bt,fsr2l
  7639  001710  C002  FFDA         	movff	button_timer_interrupt@bt+1,fsr2h
  7640  001714  CFDE F004          	movff	postinc2,??_button_timer_interrupt
  7641  001718  CFDD F005          	movff	postdec2,??_button_timer_interrupt+1
  7642  00171C  0E3C               	movlw	60
  7643  00171E  5C04               	subwf	??_button_timer_interrupt,w,c
  7644  001720  0E00               	movlw	0
  7645  001722  5805               	subwfb	??_button_timer_interrupt+1,w,c
  7646  001724  A0D8               	btfss	status,0,c
  7647  001726  D008               	goto	i2l3290
  7648  001728  EE20 F002          	lfsr	2,2
  7649  00172C  5001               	movf	button_timer_interrupt@bt,w,c
  7650  00172E  26D9               	addwf	fsr2l,f,c
  7651  001730  5002               	movf	button_timer_interrupt@bt+1,w,c
  7652  001732  22DA               	addwfc	fsr2h,f,c
  7653  001734  84DF               	bsf	indf2,2,c
  7654  001736  D02B               	goto	i2l3298
  7655  001738                     i2l3290:
  7656                           
  7657                           ;My_header\My_button.h: 69: else if (bt->cnt_sw >= 16)bt->flag.long_hold_1 = 1;
  7658  001738  C001  FFD9         	movff	button_timer_interrupt@bt,fsr2l
  7659  00173C  C002  FFDA         	movff	button_timer_interrupt@bt+1,fsr2h
  7660  001740  CFDE F004          	movff	postinc2,??_button_timer_interrupt
  7661  001744  CFDD F005          	movff	postdec2,??_button_timer_interrupt+1
  7662  001748  0E10               	movlw	16
  7663  00174A  5C04               	subwf	??_button_timer_interrupt,w,c
  7664  00174C  0E00               	movlw	0
  7665  00174E  5805               	subwfb	??_button_timer_interrupt+1,w,c
  7666  001750  A0D8               	btfss	status,0,c
  7667  001752  D008               	goto	i2l3294
  7668  001754  EE20 F002          	lfsr	2,2
  7669  001758  5001               	movf	button_timer_interrupt@bt,w,c
  7670  00175A  26D9               	addwf	fsr2l,f,c
  7671  00175C  5002               	movf	button_timer_interrupt@bt+1,w,c
  7672  00175E  22DA               	addwfc	fsr2h,f,c
  7673  001760  82DF               	bsf	indf2,1,c
  7674  001762  D015               	goto	i2l3298
  7675  001764                     i2l3294:
  7676                           
  7677                           ;My_header\My_button.h: 70: else if (bt->cnt_sw >= 2)bt->flag.press = 1;
  7678  001764  C001  FFD9         	movff	button_timer_interrupt@bt,fsr2l
  7679  001768  C002  FFDA         	movff	button_timer_interrupt@bt+1,fsr2h
  7680  00176C  CFDE F004          	movff	postinc2,??_button_timer_interrupt
  7681  001770  CFDD F005          	movff	postdec2,??_button_timer_interrupt+1
  7682  001774  0E02               	movlw	2
  7683  001776  5C04               	subwf	??_button_timer_interrupt,w,c
  7684  001778  0E00               	movlw	0
  7685  00177A  5805               	subwfb	??_button_timer_interrupt+1,w,c
  7686  00177C  A0D8               	btfss	status,0,c
  7687  00177E  D007               	goto	i2l3298
  7688  001780  EE20 F002          	lfsr	2,2
  7689  001784  5001               	movf	button_timer_interrupt@bt,w,c
  7690  001786  26D9               	addwf	fsr2l,f,c
  7691  001788  5002               	movf	button_timer_interrupt@bt+1,w,c
  7692  00178A  22DA               	addwfc	fsr2h,f,c
  7693  00178C  80DF               	bsf	indf2,0,c
  7694  00178E                     i2l3298:
  7695                           
  7696                           ;My_header\My_button.h: 71: bt->cnt_sw = 0;
  7697  00178E  C001  FFD9         	movff	button_timer_interrupt@bt,fsr2l
  7698  001792  C002  FFDA         	movff	button_timer_interrupt@bt+1,fsr2h
  7699  001796  0E00               	movlw	0
  7700  001798  6EDE               	movwf	postinc2,c
  7701  00179A  0E00               	movlw	0
  7702  00179C  6EDD               	movwf	postdec2,c
  7703                           
  7704                           ;My_header\My_button.h: 72: bt->flags &= 0x00FF;
  7705  00179E  EE20 F002          	lfsr	2,2
  7706  0017A2  5001               	movf	button_timer_interrupt@bt,w,c
  7707  0017A4  26D9               	addwf	fsr2l,f,c
  7708  0017A6  5002               	movf	button_timer_interrupt@bt+1,w,c
  7709  0017A8  22DA               	addwfc	fsr2h,f,c
  7710  0017AA  0EFF               	movlw	255
  7711  0017AC  16DE               	andwf	postinc2,f,c
  7712  0017AE  0E00               	movlw	0
  7713  0017B0  16DD               	andwf	postdec2,f,c
  7714  0017B2  0012               	return	
  7715  0017B4                     __end_of_button_timer_interrupt:
  7716                           	opt stack 0
  7717                           pclatu	equ	0xFFB
  7718                           pclath	equ	0xFFA
  7719                           tblptru	equ	0xFF8
  7720                           tblptrh	equ	0xFF7
  7721                           tblptrl	equ	0xFF6
  7722                           tablat	equ	0xFF5
  7723                           prodh	equ	0xFF4
  7724                           prodl	equ	0xFF3
  7725                           intcon	equ	0xFF2
  7726                           intcon2	equ	0xFF1
  7727                           indf0	equ	0xFEF
  7728                           postinc0	equ	0xFEE
  7729                           fsr0h	equ	0xFEA
  7730                           fsr0l	equ	0xFE9
  7731                           wreg	equ	0xFE8
  7732                           postdec1	equ	0xFE5
  7733                           fsr1h	equ	0xFE2
  7734                           fsr1l	equ	0xFE1
  7735                           indf2	equ	0xFDF
  7736                           postinc2	equ	0xFDE
  7737                           postdec2	equ	0xFDD
  7738                           fsr2h	equ	0xFDA
  7739                           fsr2l	equ	0xFD9
  7740                           status	equ	0xFD8
  7741                           
  7742 ;; *************** function _Auto_cut *****************
  7743 ;; Defined at:
  7744 ;;		line 162 in file "PIC18F27J53-ChargeStation6-01.c"
  7745 ;; Parameters:    Size  Location     Type
  7746 ;;		None
  7747 ;; Auto vars:     Size  Location     Type
  7748 ;;  i               1   12[COMRAM] unsigned char 
  7749 ;; Return value:  Size  Location     Type
  7750 ;;		None               void
  7751 ;; Registers used:
  7752 ;;		wreg, fsr2l, fsr2h, status,2, status,0, prodl, prodh, cstack
  7753 ;; Tracked objects:
  7754 ;;		On entry : 0/0
  7755 ;;		On exit  : 0/0
  7756 ;;		Unchanged: 0/0
  7757 ;; Data sizes:     COMRAM   BANK0   BANK1   BANK2   BANK3   BANK4   BANK5   BANK6   BANK7   BANK8   BANK9  BANK10  BANK1
      +1  BANK12  BANK13  BANK14
  7758 ;;      Params:         0       0       0       0       0       0       0       0       0       0       0       0       
      +0       0       0       0
  7759 ;;      Locals:         1       0       0       0       0       0       0       0       0       0       0       0       
      +0       0       0       0
  7760 ;;      Temps:          2       0       0       0       0       0       0       0       0       0       0       0       
      +0       0       0       0
  7761 ;;      Totals:         3       0       0       0       0       0       0       0       0       0       0       0       
      +0       0       0       0
  7762 ;;Total ram usage:        3 bytes
  7763 ;; Hardware stack levels used:    1
  7764 ;; Hardware stack levels required when called:    1
  7765 ;; This function calls:
  7766 ;;		_ADC
  7767 ;;		___wmul
  7768 ;;		i2_OUT
  7769 ;; This function is called by:
  7770 ;;		_ISR
  7771 ;; This function uses a non-reentrant model
  7772 ;;
  7773                           
  7774                           	psect	text43
  7775  001B42                     __ptext43:
  7776                           	opt stack 0
  7777  001B42                     _Auto_cut:
  7778                           	opt stack 23
  7779                           
  7780                           ;PIC18F27J53-ChargeStation6-01.c: 163: for (uint8_t i = 0; i < 3; i++) {
  7781                           
  7782                           ;incstack = 0
  7783  001B42  0E00               	movlw	0
  7784  001B44  6E0D               	movwf	Auto_cut@i,c
  7785  001B46  0E02               	movlw	2
  7786  001B48  640D               	cpfsgt	Auto_cut@i,c
  7787  001B4A  D001               	goto	i2l3534
  7788  001B4C  0012               	return	
  7789  001B4E                     i2l3534:
  7790                           
  7791                           ;PIC18F27J53-ChargeStation6-01.c: 164: I[i] = 13 * ADC(i + 8) / 16;
  7792  001B4E  500D               	movf	Auto_cut@i,w,c
  7793  001B50  0F08               	addlw	8
  7794  001B52  EC0C  F014         	call	_ADC
  7795  001B56  C001  F005         	movff	?_ADC,___wmul@multiplier
  7796  001B5A  C002  F006         	movff	?_ADC+1,___wmul@multiplier+1
  7797  001B5E  0E00               	movlw	0
  7798  001B60  6E08               	movwf	___wmul@multiplicand+1,c
  7799  001B62  0E0D               	movlw	13
  7800  001B64  6E07               	movwf	___wmul@multiplicand,c
  7801  001B66  ECF9  F013         	call	___wmul	;wreg free
  7802  001B6A  0E04               	movlw	4
  7803  001B6C  6E0B               	movwf	??_Auto_cut& (0+255),c
  7804  001B6E                     i2u319_45:
  7805  001B6E  90D8               	bcf	status,0,c
  7806  001B70  3206               	rrcf	?___wmul+1,f,c
  7807  001B72  3205               	rrcf	?___wmul,f,c
  7808  001B74  2E0B               	decfsz	??_Auto_cut& (0+255),f,c
  7809  001B76  D7FB               	goto	i2u319_45
  7810  001B78  500D               	movf	Auto_cut@i,w,c
  7811  001B7A  0D02               	mullw	2
  7812  001B7C  0E28               	movlw	low _I
  7813  001B7E  24F3               	addwf	prodl,w,c
  7814  001B80  6ED9               	movwf	fsr2l,c
  7815  001B82  0E00               	movlw	high _I
  7816  001B84  20F4               	addwfc	prodh,w,c
  7817  001B86  6EDA               	movwf	fsr2h,c
  7818  001B88  C005  FFDE         	movff	?___wmul,postinc2
  7819  001B8C  C006  FFDD         	movff	?___wmul+1,postdec2
  7820                           
  7821                           ;PIC18F27J53-ChargeStation6-01.c: 165: if (auto_cut_ON[i]) {
  7822  001B90  500D               	movf	Auto_cut@i,w,c
  7823  001B92  0D01               	mullw	1
  7824  001B94  0E2E               	movlw	low _auto_cut_ON
  7825  001B96  24F3               	addwf	prodl,w,c
  7826  001B98  6ED9               	movwf	fsr2l,c
  7827  001B9A  0E00               	movlw	high _auto_cut_ON
  7828  001B9C  20F4               	addwfc	prodh,w,c
  7829  001B9E  6EDA               	movwf	fsr2h,c
  7830  001BA0  50DF               	movf	indf2,w,c
  7831  001BA2  B4D8               	btfsc	status,2,c
  7832  001BA4  D047               	goto	i2l3546
  7833                           
  7834                           ;PIC18F27J53-ChargeStation6-01.c: 166: if (I[i] < 100) {
  7835  001BA6  500D               	movf	Auto_cut@i,w,c
  7836  001BA8  0D02               	mullw	2
  7837  001BAA  0E28               	movlw	low _I
  7838  001BAC  24F3               	addwf	prodl,w,c
  7839  001BAE  6ED9               	movwf	fsr2l,c
  7840  001BB0  0E00               	movlw	high _I
  7841  001BB2  20F4               	addwfc	prodh,w,c
  7842  001BB4  6EDA               	movwf	fsr2h,c
  7843  001BB6  CFDE F00B          	movff	postinc2,??_Auto_cut
  7844  001BBA  CFDD F00C          	movff	postdec2,??_Auto_cut+1
  7845  001BBE  0E64               	movlw	100
  7846  001BC0  5C0B               	subwf	??_Auto_cut,w,c
  7847  001BC2  0E00               	movlw	0
  7848  001BC4  580C               	subwfb	??_Auto_cut+1,w,c
  7849  001BC6  B0D8               	btfsc	status,0,c
  7850  001BC8  D027               	goto	i2l3544
  7851                           
  7852                           ;PIC18F27J53-ChargeStation6-01.c: 167: cut_cnt[i]++;
  7853  001BCA  500D               	movf	Auto_cut@i,w,c
  7854  001BCC  0D02               	mullw	2
  7855  001BCE  0101               	movlb	1	; () banked
  7856  001BD0  0EC9               	movlw	low _cut_cnt
  7857  001BD2  24F3               	addwf	prodl,w,c
  7858  001BD4  6ED9               	movwf	fsr2l,c
  7859  001BD6  0101               	movlb	1	; () banked
  7860  001BD8  0E01               	movlw	high _cut_cnt
  7861  001BDA  20F4               	addwfc	prodh,w,c
  7862  001BDC  6EDA               	movwf	fsr2h,c
  7863  001BDE  2ADE               	incf	postinc2,f,c
  7864  001BE0  0E00               	movlw	0
  7865  001BE2  22DD               	addwfc	postdec2,f,c
  7866                           
  7867                           ;PIC18F27J53-ChargeStation6-01.c: 168: if (cut_cnt[i] >= 46 * 5) {
  7868  001BE4  500D               	movf	Auto_cut@i,w,c
  7869  001BE6  0D02               	mullw	2
  7870  001BE8  0101               	movlb	1	; () banked
  7871  001BEA  0EC9               	movlw	low _cut_cnt
  7872  001BEC  24F3               	addwf	prodl,w,c
  7873  001BEE  6ED9               	movwf	fsr2l,c
  7874  001BF0  0101               	movlb	1	; () banked
  7875  001BF2  0E01               	movlw	high _cut_cnt
  7876  001BF4  20F4               	addwfc	prodh,w,c
  7877  001BF6  6EDA               	movwf	fsr2h,c
  7878  001BF8  CFDE F00B          	movff	postinc2,??_Auto_cut
  7879  001BFC  CFDD F00C          	movff	postdec2,??_Auto_cut+1
  7880  001C00  0EE6               	movlw	230
  7881  001C02  5C0B               	subwf	??_Auto_cut,w,c
  7882  001C04  0E00               	movlw	0
  7883  001C06  580C               	subwfb	??_Auto_cut+1,w,c
  7884  001C08  A0D8               	btfss	status,0,c
  7885  001C0A  D014               	goto	i2l3546
  7886                           
  7887                           ; BSR set to: 1
  7888                           ;PIC18F27J53-ChargeStation6-01.c: 169: OUT(i, 0);
  7889  001C0C  0E00               	movlw	0
  7890  001C0E  6E01               	movwf	i2OUT@value,c
  7891  001C10  500D               	movf	Auto_cut@i,w,c
  7892  001C12  ECB0  F012         	call	i2_OUT
  7893  001C16  D00E               	goto	i2l3546
  7894  001C18                     i2l3544:
  7895                           
  7896                           ;PIC18F27J53-ChargeStation6-01.c: 172: cut_cnt[i] = 0;
  7897  001C18  500D               	movf	Auto_cut@i,w,c
  7898  001C1A  0D02               	mullw	2
  7899  001C1C  0101               	movlb	1	; () banked
  7900  001C1E  0EC9               	movlw	low _cut_cnt
  7901  001C20  24F3               	addwf	prodl,w,c
  7902  001C22  6ED9               	movwf	fsr2l,c
  7903  001C24  0101               	movlb	1	; () banked
  7904  001C26  0E01               	movlw	high _cut_cnt
  7905  001C28  20F4               	addwfc	prodh,w,c
  7906  001C2A  6EDA               	movwf	fsr2h,c
  7907  001C2C  0E00               	movlw	0
  7908  001C2E  6EDE               	movwf	postinc2,c
  7909  001C30  0E00               	movlw	0
  7910  001C32  6EDD               	movwf	postdec2,c
  7911  001C34                     i2l3546:
  7912  001C34  2A0D               	incf	Auto_cut@i,f,c
  7913  001C36  0E02               	movlw	2
  7914  001C38  640D               	cpfsgt	Auto_cut@i,c
  7915  001C3A  D789               	goto	i2l3534
  7916  001C3C  0012               	return	
  7917  001C3E                     __end_of_Auto_cut:
  7918                           	opt stack 0
  7919                           pclatu	equ	0xFFB
  7920                           pclath	equ	0xFFA
  7921                           tblptru	equ	0xFF8
  7922                           tblptrh	equ	0xFF7
  7923                           tblptrl	equ	0xFF6
  7924                           tablat	equ	0xFF5
  7925                           prodh	equ	0xFF4
  7926                           prodl	equ	0xFF3
  7927                           intcon	equ	0xFF2
  7928                           intcon2	equ	0xFF1
  7929                           indf0	equ	0xFEF
  7930                           postinc0	equ	0xFEE
  7931                           fsr0h	equ	0xFEA
  7932                           fsr0l	equ	0xFE9
  7933                           wreg	equ	0xFE8
  7934                           postdec1	equ	0xFE5
  7935                           fsr1h	equ	0xFE2
  7936                           fsr1l	equ	0xFE1
  7937                           indf2	equ	0xFDF
  7938                           postinc2	equ	0xFDE
  7939                           postdec2	equ	0xFDD
  7940                           fsr2h	equ	0xFDA
  7941                           fsr2l	equ	0xFD9
  7942                           status	equ	0xFD8
  7943                           
  7944 ;; *************** function i2_OUT *****************
  7945 ;; Defined at:
  7946 ;;		line 72 in file "PIC18F27J53-ChargeStation6-01.c"
  7947 ;; Parameters:    Size  Location     Type
  7948 ;;  b               1    wreg     unsigned char 
  7949 ;;  value           1    0[COMRAM] unsigned char 
  7950 ;; Auto vars:     Size  Location     Type
  7951 ;;  b               1    1[COMRAM] unsigned char 
  7952 ;; Return value:  Size  Location     Type
  7953 ;;		None               void
  7954 ;; Registers used:
  7955 ;;		wreg, status,2, status,0
  7956 ;; Tracked objects:
  7957 ;;		On entry : 0/0
  7958 ;;		On exit  : 0/0
  7959 ;;		Unchanged: 0/0
  7960 ;; Data sizes:     COMRAM   BANK0   BANK1   BANK2   BANK3   BANK4   BANK5   BANK6   BANK7   BANK8   BANK9  BANK10  BANK1
      +1  BANK12  BANK13  BANK14
  7961 ;;      Params:         1       0       0       0       0       0       0       0       0       0       0       0       
      +0       0       0       0
  7962 ;;      Locals:         1       0       0       0       0       0       0       0       0       0       0       0       
      +0       0       0       0
  7963 ;;      Temps:          0       0       0       0       0       0       0       0       0       0       0       0       
      +0       0       0       0
  7964 ;;      Totals:         2       0       0       0       0       0       0       0       0       0       0       0       
      +0       0       0       0
  7965 ;;Total ram usage:        2 bytes
  7966 ;; Hardware stack levels used:    1
  7967 ;; This function calls:
  7968 ;;		Nothing
  7969 ;; This function is called by:
  7970 ;;		_Auto_cut
  7971 ;; This function uses a non-reentrant model
  7972 ;;
  7973                           
  7974                           	psect	text44
  7975  002560                     __ptext44:
  7976                           	opt stack 0
  7977  002560                     i2_OUT:
  7978                           	opt stack 23
  7979                           
  7980                           ;incstack = 0
  7981                           ;i2OUT@b stored from wreg
  7982  002560  6E02               	movwf	i2OUT@b,c
  7983                           
  7984                           ;PIC18F27J53-ChargeStation6-01.c: 73: switch (b) {
  7985  002562  D015               	goto	i2l3082
  7986  002564                     i2l3068:
  7987                           
  7988                           ;PIC18F27J53-ChargeStation6-01.c: 75: if (value) {
  7989  002564  5001               	movf	i2OUT@value,w,c
  7990  002566  B4D8               	btfsc	status,2,c
  7991  002568  D002               	goto	i2l535
  7992                           
  7993                           ;PIC18F27J53-ChargeStation6-01.c: 76: LATA5 = 0;
  7994  00256A  9A89               	bcf	3977,5,c	;volatile
  7995                           
  7996                           ;PIC18F27J53-ChargeStation6-01.c: 77: } else {
  7997  00256C  0012               	return	
  7998  00256E                     i2l535:
  7999                           
  8000                           ;PIC18F27J53-ChargeStation6-01.c: 78: LATA5 = 1;
  8001  00256E  8A89               	bsf	3977,5,c	;volatile
  8002  002570  0012               	return	
  8003  002572                     i2l3072:
  8004                           
  8005                           ;PIC18F27J53-ChargeStation6-01.c: 82: if (value) {
  8006  002572  5001               	movf	i2OUT@value,w,c
  8007  002574  B4D8               	btfsc	status,2,c
  8008  002576  D002               	goto	i2l539
  8009                           
  8010                           ;PIC18F27J53-ChargeStation6-01.c: 83: LATA6 = 0;
  8011  002578  9C89               	bcf	3977,6,c	;volatile
  8012                           
  8013                           ;PIC18F27J53-ChargeStation6-01.c: 84: } else {
  8014  00257A  0012               	return	
  8015  00257C                     i2l539:
  8016                           
  8017                           ;PIC18F27J53-ChargeStation6-01.c: 85: LATA6 = 1;
  8018  00257C  8C89               	bsf	3977,6,c	;volatile
  8019  00257E  0012               	return	
  8020  002580                     i2l3076:
  8021                           
  8022                           ;PIC18F27J53-ChargeStation6-01.c: 89: if (value) {
  8023  002580  5001               	movf	i2OUT@value,w,c
  8024  002582  B4D8               	btfsc	status,2,c
  8025  002584  D002               	goto	i2l542
  8026                           
  8027                           ;PIC18F27J53-ChargeStation6-01.c: 90: LATA7 = 0;
  8028  002586  9E89               	bcf	3977,7,c	;volatile
  8029                           
  8030                           ;PIC18F27J53-ChargeStation6-01.c: 91: } else {
  8031  002588  0012               	return	
  8032  00258A                     i2l542:
  8033                           
  8034                           ;PIC18F27J53-ChargeStation6-01.c: 92: LATA7 = 1;
  8035  00258A  8E89               	bsf	3977,7,c	;volatile
  8036  00258C  0012               	return	
  8037  00258E                     i2l3082:
  8038  00258E  5002               	movf	i2OUT@b,w,c
  8039                           
  8040                           ; Switch size 1, requested type "space"
  8041                           ; Number of cases is 3, Range of values is 0 to 2
  8042                           ; switch strategies available:
  8043                           ; Name         Instructions Cycles
  8044                           ; simple_byte           10     6 (average)
  8045                           ;	Chosen strategy is simple_byte
  8046  002590  0A00               	xorlw	0	; case 0
  8047  002592  B4D8               	btfsc	status,2,c
  8048  002594  D7E7               	goto	i2l3068
  8049  002596  0A01               	xorlw	1	; case 1
  8050  002598  B4D8               	btfsc	status,2,c
  8051  00259A  D7EB               	goto	i2l3072
  8052  00259C  0A03               	xorlw	3	; case 2
  8053  00259E  A4D8               	btfss	status,2,c
  8054  0025A0  0012               	return	
  8055  0025A2  D7EE               	goto	i2l3076
  8056  0025A4                     __end_ofi2_OUT:
  8057                           	opt stack 0
  8058                           pclatu	equ	0xFFB
  8059                           pclath	equ	0xFFA
  8060                           tblptru	equ	0xFF8
  8061                           tblptrh	equ	0xFF7
  8062                           tblptrl	equ	0xFF6
  8063                           tablat	equ	0xFF5
  8064                           prodh	equ	0xFF4
  8065                           prodl	equ	0xFF3
  8066                           intcon	equ	0xFF2
  8067                           intcon2	equ	0xFF1
  8068                           indf0	equ	0xFEF
  8069                           postinc0	equ	0xFEE
  8070                           fsr0h	equ	0xFEA
  8071                           fsr0l	equ	0xFE9
  8072                           wreg	equ	0xFE8
  8073                           postdec1	equ	0xFE5
  8074                           fsr1h	equ	0xFE2
  8075                           fsr1l	equ	0xFE1
  8076                           indf2	equ	0xFDF
  8077                           postinc2	equ	0xFDE
  8078                           postdec2	equ	0xFDD
  8079                           fsr2h	equ	0xFDA
  8080                           fsr2l	equ	0xFD9
  8081                           status	equ	0xFD8
  8082                           
  8083 ;; *************** function ___wmul *****************
  8084 ;; Defined at:
  8085 ;;		line 15 in file "C:\Program Files (x86)\Microchip\xc8\v1.33\sources\common\Umul16.c"
  8086 ;; Parameters:    Size  Location     Type
  8087 ;;  multiplier      2    4[COMRAM] unsigned int 
  8088 ;;  multiplicand    2    6[COMRAM] unsigned int 
  8089 ;; Auto vars:     Size  Location     Type
  8090 ;;  product         2    8[COMRAM] unsigned int 
  8091 ;; Return value:  Size  Location     Type
  8092 ;;                  2    4[COMRAM] unsigned int 
  8093 ;; Registers used:
  8094 ;;		wreg, status,2, status,0, prodl, prodh
  8095 ;; Tracked objects:
  8096 ;;		On entry : 0/0
  8097 ;;		On exit  : 0/0
  8098 ;;		Unchanged: 0/0
  8099 ;; Data sizes:     COMRAM   BANK0   BANK1   BANK2   BANK3   BANK4   BANK5   BANK6   BANK7   BANK8   BANK9  BANK10  BANK1
      +1  BANK12  BANK13  BANK14
  8100 ;;      Params:         4       0       0       0       0       0       0       0       0       0       0       0       
      +0       0       0       0
  8101 ;;      Locals:         2       0       0       0       0       0       0       0       0       0       0       0       
      +0       0       0       0
  8102 ;;      Temps:          0       0       0       0       0       0       0       0       0       0       0       0       
      +0       0       0       0
  8103 ;;      Totals:         6       0       0       0       0       0       0       0       0       0       0       0       
      +0       0       0       0
  8104 ;;Total ram usage:        6 bytes
  8105 ;; Hardware stack levels used:    1
  8106 ;; This function calls:
  8107 ;;		Nothing
  8108 ;; This function is called by:
  8109 ;;		_Auto_cut
  8110 ;; This function uses a non-reentrant model
  8111 ;;
  8112                           
  8113                           	psect	text45
  8114  0027F2                     __ptext45:
  8115                           	opt stack 0
  8116  0027F2                     ___wmul:
  8117                           	opt stack 23
  8118                           
  8119                           ;incstack = 0
  8120  0027F2  5005               	movf	___wmul@multiplier,w,c
  8121  0027F4  0207               	mulwf	___wmul@multiplicand,c
  8122  0027F6  CFF3 F009          	movff	prodl,___wmul@product
  8123  0027FA  CFF4 F00A          	movff	prodh,___wmul@product+1
  8124  0027FE  5005               	movf	___wmul@multiplier,w,c
  8125  002800  0208               	mulwf	___wmul@multiplicand+1,c
  8126  002802  50F3               	movf	prodl,w,c
  8127  002804  260A               	addwf	___wmul@product+1,f,c
  8128  002806  5006               	movf	___wmul@multiplier+1,w,c
  8129  002808  0207               	mulwf	___wmul@multiplicand,c
  8130  00280A  50F3               	movf	prodl,w,c
  8131  00280C  260A               	addwf	___wmul@product+1,f,c
  8132  00280E  C009  F005         	movff	___wmul@product,?___wmul
  8133  002812  C00A  F006         	movff	___wmul@product+1,?___wmul+1
  8134  002816  0012               	return	
  8135  002818                     __end_of___wmul:
  8136                           	opt stack 0
  8137                           pclatu	equ	0xFFB
  8138                           pclath	equ	0xFFA
  8139                           tblptru	equ	0xFF8
  8140                           tblptrh	equ	0xFF7
  8141                           tblptrl	equ	0xFF6
  8142                           tablat	equ	0xFF5
  8143                           prodh	equ	0xFF4
  8144                           prodl	equ	0xFF3
  8145                           intcon	equ	0xFF2
  8146                           intcon2	equ	0xFF1
  8147                           indf0	equ	0xFEF
  8148                           postinc0	equ	0xFEE
  8149                           fsr0h	equ	0xFEA
  8150                           fsr0l	equ	0xFE9
  8151                           wreg	equ	0xFE8
  8152                           postdec1	equ	0xFE5
  8153                           fsr1h	equ	0xFE2
  8154                           fsr1l	equ	0xFE1
  8155                           indf2	equ	0xFDF
  8156                           postinc2	equ	0xFDE
  8157                           postdec2	equ	0xFDD
  8158                           fsr2h	equ	0xFDA
  8159                           fsr2l	equ	0xFD9
  8160                           status	equ	0xFD8
  8161                           
  8162 ;; *************** function _ADC *****************
  8163 ;; Defined at:
  8164 ;;		line 169 in file "../My_header\My_header.h"
  8165 ;; Parameters:    Size  Location     Type
  8166 ;;  ch              1    wreg     unsigned char 
  8167 ;; Auto vars:     Size  Location     Type
  8168 ;;  ch              1    3[COMRAM] unsigned char 
  8169 ;; Return value:  Size  Location     Type
  8170 ;;                  2    0[COMRAM] unsigned int 
  8171 ;; Registers used:
  8172 ;;		wreg, status,2, status,0
  8173 ;; Tracked objects:
  8174 ;;		On entry : 0/0
  8175 ;;		On exit  : 0/0
  8176 ;;		Unchanged: 0/0
  8177 ;; Data sizes:     COMRAM   BANK0   BANK1   BANK2   BANK3   BANK4   BANK5   BANK6   BANK7   BANK8   BANK9  BANK10  BANK1
      +1  BANK12  BANK13  BANK14
  8178 ;;      Params:         2       0       0       0       0       0       0       0       0       0       0       0       
      +0       0       0       0
  8179 ;;      Locals:         1       0       0       0       0       0       0       0       0       0       0       0       
      +0       0       0       0
  8180 ;;      Temps:          1       0       0       0       0       0       0       0       0       0       0       0       
      +0       0       0       0
  8181 ;;      Totals:         4       0       0       0       0       0       0       0       0       0       0       0       
      +0       0       0       0
  8182 ;;Total ram usage:        4 bytes
  8183 ;; Hardware stack levels used:    1
  8184 ;; This function calls:
  8185 ;;		Nothing
  8186 ;; This function is called by:
  8187 ;;		_Auto_cut
  8188 ;; This function uses a non-reentrant model
  8189 ;;
  8190                           
  8191                           	psect	text46
  8192  002818                     __ptext46:
  8193                           	opt stack 0
  8194  002818                     _ADC:
  8195                           	opt stack 23
  8196                           
  8197                           ;incstack = 0
  8198                           ;ADC@ch stored from wreg
  8199  002818  6E04               	movwf	ADC@ch,c
  8200                           
  8201                           ;My_header\My_header.h: 170: ADCON0bits.CHS = ch;
  8202  00281A  C004  F003         	movff	ADC@ch,??_ADC
  8203  00281E  4603               	rlncf	??_ADC,f,c
  8204  002820  4603               	rlncf	??_ADC,f,c
  8205  002822  50C2               	movf	4034,w,c	;volatile
  8206  002824  1803               	xorwf	??_ADC,w,c
  8207  002826  0BC3               	andlw	-61
  8208  002828  1803               	xorwf	??_ADC,w,c
  8209  00282A  6EC2               	movwf	4034,c	;volatile
  8210                           
  8211                           ;My_header\My_header.h: 171: ADCON0bits.ADON = 1;
  8212  00282C  80C2               	bsf	4034,0,c	;volatile
  8213                           
  8214                           ;My_header\My_header.h: 173: ADCON0bits.GO_nDONE = 1;
  8215  00282E  82C2               	bsf	4034,1,c	;volatile
  8216  002830                     i2l151:
  8217  002830  B2C2               	btfsc	4034,1,c	;volatile
  8218  002832  D7FE               	goto	i2l151
  8219                           
  8220                           ;My_header\My_header.h: 175: return ADRES;
  8221  002834  CFC3 F001          	movff	4035,?_ADC	;volatile
  8222  002838  CFC4 F002          	movff	4036,?_ADC+1	;volatile
  8223  00283C  0012               	return	
  8224  00283E                     __end_of_ADC:
  8225                           	opt stack 0
  8226                           pclatu	equ	0xFFB
  8227                           pclath	equ	0xFFA
  8228                           tblptru	equ	0xFF8
  8229                           tblptrh	equ	0xFF7
  8230                           tblptrl	equ	0xFF6
  8231                           tablat	equ	0xFF5
  8232                           prodh	equ	0xFF4
  8233                           prodl	equ	0xFF3
  8234                           intcon	equ	0xFF2
  8235                           intcon2	equ	0xFF1
  8236                           indf0	equ	0xFEF
  8237                           postinc0	equ	0xFEE
  8238                           fsr0h	equ	0xFEA
  8239                           fsr0l	equ	0xFE9
  8240                           wreg	equ	0xFE8
  8241                           postdec1	equ	0xFE5
  8242                           fsr1h	equ	0xFE2
  8243                           fsr1l	equ	0xFE1
  8244                           indf2	equ	0xFDF
  8245                           postinc2	equ	0xFDE
  8246                           postdec2	equ	0xFDD
  8247                           fsr2h	equ	0xFDA
  8248                           fsr2l	equ	0xFD9
  8249                           status	equ	0xFD8
  8250                           pclatu	equ	0xFFB
  8251                           pclath	equ	0xFFA
  8252                           tblptru	equ	0xFF8
  8253                           tblptrh	equ	0xFF7
  8254                           tblptrl	equ	0xFF6
  8255                           tablat	equ	0xFF5
  8256                           prodh	equ	0xFF4
  8257                           prodl	equ	0xFF3
  8258                           intcon	equ	0xFF2
  8259                           intcon2	equ	0xFF1
  8260                           indf0	equ	0xFEF
  8261                           postinc0	equ	0xFEE
  8262                           fsr0h	equ	0xFEA
  8263                           fsr0l	equ	0xFE9
  8264                           wreg	equ	0xFE8
  8265                           postdec1	equ	0xFE5
  8266                           fsr1h	equ	0xFE2
  8267                           fsr1l	equ	0xFE1
  8268                           indf2	equ	0xFDF
  8269                           postinc2	equ	0xFDE
  8270                           postdec2	equ	0xFDD
  8271                           fsr2h	equ	0xFDA
  8272                           fsr2l	equ	0xFD9
  8273                           status	equ	0xFD8
  8274                           
  8275                           	psect	rparam
  8276  0000                     pclatu	equ	0xFFB
  8277                           pclath	equ	0xFFA
  8278                           tblptru	equ	0xFF8
  8279                           tblptrh	equ	0xFF7
  8280                           tblptrl	equ	0xFF6
  8281                           tablat	equ	0xFF5
  8282                           prodh	equ	0xFF4
  8283                           prodl	equ	0xFF3
  8284                           intcon	equ	0xFF2
  8285                           intcon2	equ	0xFF1
  8286                           indf0	equ	0xFEF
  8287                           postinc0	equ	0xFEE
  8288                           fsr0h	equ	0xFEA
  8289                           fsr0l	equ	0xFE9
  8290                           wreg	equ	0xFE8
  8291                           postdec1	equ	0xFE5
  8292                           fsr1h	equ	0xFE2
  8293                           fsr1l	equ	0xFE1
  8294                           indf2	equ	0xFDF
  8295                           postinc2	equ	0xFDE
  8296                           postdec2	equ	0xFDD
  8297                           fsr2h	equ	0xFDA
  8298                           fsr2l	equ	0xFD9
  8299                           status	equ	0xFD8


Data Sizes:
    Strings     184
    Constant    0
    Data        31
    BSS         92
    Persistent  0
    Stack       0

Auto Spaces:
    Space          Size  Autos    Used
    COMRAM           95     39      78
    BANK0           160     26      94
    BANK1           256    201     217
    BANK2           256      0       0
    BANK3           256      0       0
    BANK4           256      0       0
    BANK5           256      0       0
    BANK6           256      0       0
    BANK7           256      0       0
    BANK8           256      0       0
    BANK9           256      0       0
    BANK10          256      0       0
    BANK11          256      0       0
    BANK12          256      0       0
    BANK13          256      0       0
    BANK14          176      0       0

Pointer List with Targets:

    weekday_char_full	PTR const unsigned char [7] size(2) Largest target is 10
		 -> STR_14(CODE[9]), STR_13(CODE[7]), STR_12(CODE[9]), STR_11(CODE[10]), 
		 -> STR_10(CODE[8]), STR_9(CODE[7]), STR_8(CODE[7]), 

    weekday_char	PTR const unsigned char [7] size(2) Largest target is 4
		 -> STR_7(CODE[4]), STR_6(CODE[4]), STR_5(CODE[4]), STR_4(CODE[4]), 
		 -> STR_3(CODE[4]), STR_2(CODE[4]), STR_1(CODE[4]), 

    I2C_LCD_Puts@s	PTR const unsigned char  size(2) Largest target is 10
		 -> STR_30(CODE[8]), STR_29(CODE[7]), STR_26(CODE[9]), STR_25(CODE[9]), 
		 -> STR_24(CODE[8]), STR_23(CODE[7]), STR_22(CODE[4]), STR_21(CODE[5]), 
		 -> STR_20(CODE[5]), STR_19(CODE[7]), STR_18(CODE[7]), STR_17(CODE[6]), 
		 -> STR_16(CODE[6]), STR_15(CODE[3]), display_dec@str(COMRAM[10]), STR_7(CODE[4]), 
		 -> STR_6(CODE[4]), STR_5(CODE[4]), STR_4(CODE[4]), STR_3(CODE[4]), 
		 -> STR_2(CODE[4]), STR_1(CODE[4]), 

    button_timer_interrupt@bt	PTR struct button size(2) Largest target is 4
		 -> sw(BANK1[4]), sw2(BANK0[4]), sw1(COMRAM[4]), sw0(COMRAM[4]), 

    tx_sends@asciicode	PTR const unsigned char  size(2) Largest target is 5
		 -> STR_28(CODE[3]), STR_27(CODE[5]), 

    tx_buf.buf	PTR unsigned char  size(2) Largest target is 200
		 -> main@txbuf(BANK1[200]), 

    ringbuf_delete@rb.buf	PTR unsigned char  size(2) Largest target is 200
		 -> main@txbuf(BANK1[200]), 

    ringbuf_backspace@rb.buf	PTR unsigned char  size(2) Largest target is 200
		 -> main@txbuf(BANK1[200]), 

    ringbuf_pop@rb.buf	PTR unsigned char  size(2) Largest target is 200
		 -> main@txbuf(BANK1[200]), 

    ringbuf_pop@rb	PTR struct ringbuf size(2) Largest target is 6
		 -> tx_buf(BANK1[5]), 

    ringbuf_push@rb.buf	PTR unsigned char  size(2) Largest target is 200
		 -> main@txbuf(BANK1[200]), 

    ringbuf_push@rb	PTR struct ringbuf size(2) Largest target is 6
		 -> tx_buf(BANK1[5]), 

    ringbuf_num@rb.buf	PTR unsigned char  size(2) Largest target is 200
		 -> main@txbuf(BANK1[200]), 

    ringbuf_num@rb	PTR struct ringbuf size(2) Largest target is 6
		 -> tx_buf(BANK1[5]), 

    S790ringbuf$buf	PTR unsigned char  size(2) Largest target is 200
		 -> main@txbuf(BANK1[200]), 

    ringbuf_init@rb.buf	PTR unsigned char  size(2) Largest target is 200
		 -> main@txbuf(BANK1[200]), 

    ringbuf_init@internal_buf	PTR unsigned char  size(2) Largest target is 200
		 -> main@txbuf(BANK1[200]), 

    ringbuf_init@rb	PTR struct ringbuf size(2) Largest target is 6
		 -> tx_buf(BANK1[5]), 


Critical Paths under _main in COMRAM

    None.

Critical Paths under _ISR in COMRAM

    _ISR->_tx_sendn
    _tx_sends->_ringbuf_push
    _tx_sendn->_tx_send
    _tx_send->_ringbuf_push
    _ringbuf_push->_ringbuf_num
    _lchika->___awdiv
    _interrupt_TXIF->_ringbuf_pop
    _ringbuf_pop->_ringbuf_num
    _Auto_cut->___wmul
    ___wmul->_ADC

Critical Paths under _main in BANK0

    _main->_display
    _display->___lldiv
    ___lwdiv->___lwmod
    ___lldiv->___llmod
    _I2C_LCD_SetCursor->_I2C_LCD_Command
    _I2C_LCD_Puts->_I2C_Start
    _I2C_LCD_Putc->_I2C_Start
    _I2C_LCD_init->_I2C_LCD_Clear
    _I2C_LCD_Clear->_I2C_LCD_Command
    _I2C_LCD_Command->_I2C_Start
    _I2C_Stop->_I2C_IdleCheck
    _I2C_Start->_I2C_IdleCheck
    _I2C_Send->_I2C_IdleCheck

Critical Paths under _ISR in BANK0

    None.

Critical Paths under _main in BANK1

    None.

Critical Paths under _ISR in BANK1

    None.

Critical Paths under _main in BANK2

    None.

Critical Paths under _ISR in BANK2

    None.

Critical Paths under _main in BANK3

    None.

Critical Paths under _ISR in BANK3

    None.

Critical Paths under _main in BANK4

    None.

Critical Paths under _ISR in BANK4

    None.

Critical Paths under _main in BANK5

    None.

Critical Paths under _ISR in BANK5

    None.

Critical Paths under _main in BANK6

    None.

Critical Paths under _ISR in BANK6

    None.

Critical Paths under _main in BANK7

    None.

Critical Paths under _ISR in BANK7

    None.

Critical Paths under _main in BANK8

    None.

Critical Paths under _ISR in BANK8

    None.

Critical Paths under _main in BANK9

    None.

Critical Paths under _ISR in BANK9

    None.

Critical Paths under _main in BANK10

    None.

Critical Paths under _ISR in BANK10

    None.

Critical Paths under _main in BANK11

    None.

Critical Paths under _ISR in BANK11

    None.

Critical Paths under _main in BANK12

    None.

Critical Paths under _ISR in BANK12

    None.

Critical Paths under _main in BANK13

    None.

Critical Paths under _ISR in BANK13

    None.

Critical Paths under _main in BANK14

    None.

Critical Paths under _ISR in BANK14

    None.

Call Graph Tables:

 ---------------------------------------------------------------------------------
 (Depth) Function   	        Calls       Base Space   Used Autos Params    Refs
 ---------------------------------------------------------------------------------
 (0) _main                                               201   201      0   20481
                                              0 BANK1    201   201      0
                           _ADC_init
                      _I2C_LCD_Clear
                       _I2C_LCD_Puts
                  _I2C_LCD_SetCursor
                       _I2C_LCD_init
                           _I2C_init
                                _LED
                                _OUT
                          _UART_init
                            _display
                       _ringbuf_init
                      _sw_flag_clear
                       _sw_flag_read
                        _timer0_init
                        _timer1_init
                        _timer3_init
 ---------------------------------------------------------------------------------
 (1) _timer3_init                                          2     2      0      31
                                              0 BANK0      2     2      0
 ---------------------------------------------------------------------------------
 (1) _timer1_init                                          3     2      1     197
                                              0 BANK0      3     2      1
 ---------------------------------------------------------------------------------
 (1) _timer0_init                                          2     2      0      62
                                              0 BANK0      2     2      0
 ---------------------------------------------------------------------------------
 (1) _sw_flag_read                                         2     1      1     644
                                              0 BANK0      2     1      1
 ---------------------------------------------------------------------------------
 (1) _sw_flag_clear                                        2     1      1     540
                                              0 BANK0      2     1      1
 ---------------------------------------------------------------------------------
 (1) _ringbuf_init                                         5     0      5     498
                                              0 BANK0      5     0      5
 ---------------------------------------------------------------------------------
 (1) _display                                              4     4      0   10747
                                             22 BANK0      4     4      0
                      _I2C_LCD_Clear
                       _I2C_LCD_Putc
                       _I2C_LCD_Puts
                  _I2C_LCD_SetCursor
                            ___lldiv
                            ___llmod
                            ___lwdiv
                            ___lwmod
 ---------------------------------------------------------------------------------
 (2) ___lwmod                                              5     1      4    1410
                                              0 BANK0      5     1      4
 ---------------------------------------------------------------------------------
 (2) ___lwdiv                                              7     3      4    1349
                                              5 BANK0      7     3      4
                            ___lwmod (ARG)
 ---------------------------------------------------------------------------------
 (2) ___llmod                                              9     1      8    1272
                                              0 BANK0      9     1      8
 ---------------------------------------------------------------------------------
 (2) ___lldiv                                             13     5      8    1627
                                              9 BANK0     13     5      8
                            ___llmod (ARG)
 ---------------------------------------------------------------------------------
 (2) _I2C_LCD_SetCursor                                    4     3      1    1390
                                              6 BANK0      4     3      1
                    _I2C_LCD_Command
 ---------------------------------------------------------------------------------
 (2) _I2C_LCD_Puts                                         5     3      2    2365
                                              4 BANK0      5     3      2
                           _I2C_Send
                          _I2C_Start
                           _I2C_Stop
 ---------------------------------------------------------------------------------
 (2) _I2C_LCD_Putc                                         2     2      0     667
                                              4 BANK0      2     2      0
                           _I2C_Send
                          _I2C_Start
                           _I2C_Stop
 ---------------------------------------------------------------------------------
 (1) _UART_init                                            0     0      0       0
 ---------------------------------------------------------------------------------
 (1) _OUT                                                  2     1      1     401
                                              0 BANK0      2     1      1
 ---------------------------------------------------------------------------------
 (1) _LED                                                  2     1      1     539
                                              0 BANK0      2     1      1
 ---------------------------------------------------------------------------------
 (1) _I2C_init                                             0     0      0       0
 ---------------------------------------------------------------------------------
 (1) _I2C_LCD_init                                         0     0      0    1573
                           _Delay_ms
                      _I2C_LCD_Clear
                    _I2C_LCD_Command
 ---------------------------------------------------------------------------------
 (2) _I2C_LCD_Clear                                        1     1      0     667
                                              6 BANK0      1     1      0
                    _I2C_LCD_Command
 ---------------------------------------------------------------------------------
 (3) _I2C_LCD_Command                                      2     2      0     667
                                              4 BANK0      2     2      0
                           _I2C_Send
                          _I2C_Start
                           _I2C_Stop
 ---------------------------------------------------------------------------------
 (4) _I2C_Stop                                             0     0      0      31
                      _I2C_IdleCheck
 ---------------------------------------------------------------------------------
 (4) _I2C_Start                                            2     1      1     509
                                              2 BANK0      2     1      1
                      _I2C_IdleCheck
 ---------------------------------------------------------------------------------
 (4) _I2C_Send                                             1     1      0      62
                                              2 BANK0      1     1      0
                      _I2C_IdleCheck
 ---------------------------------------------------------------------------------
 (5) _I2C_IdleCheck                                        2     2      0      31
                                              0 BANK0      2     2      0
 ---------------------------------------------------------------------------------
 (2) _Delay_ms                                             3     1      2     239
                                              0 BANK0      3     1      2
 ---------------------------------------------------------------------------------
 (1) _ADC_init                                             1     1      0      31
                                              0 BANK0      1     1      0
 ---------------------------------------------------------------------------------
 Estimated maximum stack depth 5
 ---------------------------------------------------------------------------------
 (Depth) Function   	        Calls       Base Space   Used Autos Params    Refs
 ---------------------------------------------------------------------------------
 (6) _ISR                                                 20    20      0    9571
                                             19 COMRAM    20    20      0
                           _Auto_cut
             _button_timer_interrupt
                     _interrupt_TXIF
                             _lchika
                            _tx_send
                           _tx_sendn
                           _tx_sends
                          i2___lldiv
 ---------------------------------------------------------------------------------
 (7) i2___lldiv                                           13     5      8     214
                                              0 COMRAM    13     5      8
 ---------------------------------------------------------------------------------
 (7) _tx_sends                                             2     0      2    1287
                                             12 COMRAM     2     0      2
                       _ringbuf_push
 ---------------------------------------------------------------------------------
 (7) _tx_sendn                                             6     3      3    1900
                                             13 COMRAM     6     3      3
                            _tx_send
                          i2___lwdiv
                          i2___lwmod
 ---------------------------------------------------------------------------------
 (8) i2___lwmod                                            5     1      4     211
                                              0 COMRAM     5     1      4
 ---------------------------------------------------------------------------------
 (8) _tx_send                                              1     1      0    1086
                                             12 COMRAM     1     1      0
                       _ringbuf_push
 ---------------------------------------------------------------------------------
 (8) _ringbuf_push                                         8     5      3    1064
                                              4 COMRAM     8     5      3
                        _ringbuf_num
 ---------------------------------------------------------------------------------
 (7) _lchika                                               4     4      0    1376
                                              8 COMRAM     4     4      0
                            ___awdiv
                              i2_LED
                          i2___lwdiv
 ---------------------------------------------------------------------------------
 (8) i2___lwdiv                                            7     3      4     266
                                              0 COMRAM     7     3      4
 ---------------------------------------------------------------------------------
 (8) i2_LED                                                2     1      1     166
                                              0 COMRAM     2     1      1
 ---------------------------------------------------------------------------------
 (8) ___awdiv                                              8     4      4     656
                                              0 COMRAM     8     4      4
 ---------------------------------------------------------------------------------
 (7) _interrupt_TXIF                                       0     0      0    1286
                        _ringbuf_num
                        _ringbuf_pop
 ---------------------------------------------------------------------------------
 (8) _ringbuf_pop                                          6     4      2     776
                                              4 COMRAM     6     4      2
                        _ringbuf_num
 ---------------------------------------------------------------------------------
 (9) _ringbuf_num                                          4     2      2     510
                                              0 COMRAM     4     2      2
 ---------------------------------------------------------------------------------
 (7) _button_timer_interrupt                               5     2      3    1526
                                              0 COMRAM     5     2      3
 ---------------------------------------------------------------------------------
 (7) _Auto_cut                                             3     3      0     695
                                             10 COMRAM     3     3      0
                                _ADC
                             ___wmul
                              i2_OUT
 ---------------------------------------------------------------------------------
 (8) i2_OUT                                                2     1      1     114
                                              0 COMRAM     2     1      1
 ---------------------------------------------------------------------------------
 (8) ___wmul                                               6     2      4     337
                                              4 COMRAM     6     2      4
                                _ADC (ARG)
 ---------------------------------------------------------------------------------
 (8) _ADC                                                  4     2      2      22
                                              0 COMRAM     4     2      2
 ---------------------------------------------------------------------------------
 Estimated maximum stack depth 9
 ---------------------------------------------------------------------------------

 Call Graph Graphs:

 _main (ROOT)
   _ADC_init
   _I2C_LCD_Clear
     _I2C_LCD_Command
       _I2C_Send
         _I2C_IdleCheck
       _I2C_Start
         _I2C_IdleCheck
       _I2C_Stop
         _I2C_IdleCheck
   _I2C_LCD_Puts
     _I2C_Send
       _I2C_IdleCheck
     _I2C_Start
       _I2C_IdleCheck
     _I2C_Stop
       _I2C_IdleCheck
   _I2C_LCD_SetCursor
     _I2C_LCD_Command
       _I2C_Send
         _I2C_IdleCheck
       _I2C_Start
         _I2C_IdleCheck
       _I2C_Stop
         _I2C_IdleCheck
   _I2C_LCD_init
     _Delay_ms
     _I2C_LCD_Clear
       _I2C_LCD_Command
         _I2C_Send
           _I2C_IdleCheck
         _I2C_Start
           _I2C_IdleCheck
         _I2C_Stop
           _I2C_IdleCheck
     _I2C_LCD_Command
       _I2C_Send
         _I2C_IdleCheck
       _I2C_Start
         _I2C_IdleCheck
       _I2C_Stop
         _I2C_IdleCheck
   _I2C_init
   _LED
   _OUT
   _UART_init
   _display
     _I2C_LCD_Clear
       _I2C_LCD_Command
         _I2C_Send
           _I2C_IdleCheck
         _I2C_Start
           _I2C_IdleCheck
         _I2C_Stop
           _I2C_IdleCheck
     _I2C_LCD_Putc
       _I2C_Send
         _I2C_IdleCheck
       _I2C_Start
         _I2C_IdleCheck
       _I2C_Stop
         _I2C_IdleCheck
     _I2C_LCD_Puts
       _I2C_Send
         _I2C_IdleCheck
       _I2C_Start
         _I2C_IdleCheck
       _I2C_Stop
         _I2C_IdleCheck
     _I2C_LCD_SetCursor
       _I2C_LCD_Command
         _I2C_Send
           _I2C_IdleCheck
         _I2C_Start
           _I2C_IdleCheck
         _I2C_Stop
           _I2C_IdleCheck
     ___lldiv
       ___llmod (ARG)
     ___llmod
     ___lwdiv
       ___lwmod (ARG)
     ___lwmod
   _ringbuf_init
   _sw_flag_clear
   _sw_flag_read
   _timer0_init
   _timer1_init
   _timer3_init

 _ISR (ROOT)
   _Auto_cut
     _ADC
     ___wmul
       _ADC (ARG)
     i2_OUT
   _button_timer_interrupt
   _interrupt_TXIF
     _ringbuf_num
     _ringbuf_pop
       _ringbuf_num
   _lchika
     ___awdiv
     i2_LED
     i2___lwdiv
   _tx_send
     _ringbuf_push
       _ringbuf_num
   _tx_sendn
     _tx_send
       _ringbuf_push
         _ringbuf_num
     i2___lwdiv
     i2___lwmod
   _tx_sends
     _ringbuf_push
       _ringbuf_num
   i2___lldiv

 Address spaces:
Name               Size   Autos  Total    Cost      Usage
BIGRAM             EAF      0       0      35        0.0%
BITBANK13          100      0       0      31        0.0%
BANK13             100      0       0      32        0.0%
BITBANK12          100      0       0      29        0.0%
BANK12             100      0       0      30        0.0%
BITBANK11          100      0       0      27        0.0%
BANK11             100      0       0      28        0.0%
BITBANK10          100      0       0      25        0.0%
BANK10             100      0       0      26        0.0%
BITBANK9           100      0       0      23        0.0%
BANK9              100      0       0      24        0.0%
BITBANK8           100      0       0      21        0.0%
BANK8              100      0       0      22        0.0%
BITBANK7           100      0       0      19        0.0%
BANK7              100      0       0      20        0.0%
BITBANK6           100      0       0      17        0.0%
BANK6              100      0       0      18        0.0%
BITBANK5           100      0       0      15        0.0%
BANK5              100      0       0      16        0.0%
BITBANK4           100      0       0      13        0.0%
BANK4              100      0       0      14        0.0%
BITBANK3           100      0       0      11        0.0%
BANK3              100      0       0      12        0.0%
BITBANK2           100      0       0       9        0.0%
BANK2              100      0       0      10        0.0%
BITBANK1           100      0       0       7        0.0%
BANK1              100     C9      D9       8       84.8%
BITBANK14           B0      0       0      33        0.0%
BANK14              B0      0       0      34        0.0%
BITBANK0            A0      0       0       4        0.0%
BANK0               A0     1A      5E       5       58.8%
BITCOMRAM           5F      0       0       0        0.0%
COMRAM              5F     27      4E       1       82.1%
BITSFR_2             0      0       0      40        0.0%
SFR_2                0      0       0      40        0.0%
BITSFR_1             0      0       0      40        0.0%
SFR_1                0      0       0      40        0.0%
BITSFR               0      0       0      40        0.0%
SFR                  0      0       0      40        0.0%
STACK                0      0       0       2        0.0%
NULL                 0      0       0       0        0.0%
ABS                  0      0     185       6        0.0%
DATA                 0      0     185       3        0.0%
CODE                 0      0       0       0        0.0%


Microchip Technology PIC18 Macro Assembler V1.33 build 59893 
Symbol Table                                                                                   Sat May 30 09:06:37 2015

                              _I 0028                                _S 0060  
             __size_of_I2C_Start 0032                               _d1 0078  
                   ___awdiv@sign 0006                               _ss 006C  
                             _sw 01D5              ___wmul@multiplicand 0007  
             i2___lwdiv@dividend 0001           __end_of_interrupt_TXIF 269C  
                   _sw_flag_read 2628                     __CFG_CP0$OFF 000000  
                            l134 2462                              l320 28FC  
                            l305 275C                              l129 26B0  
                            l341 26FA                              _ADC 2818  
                            l329 272E                              l550 23AA  
                            l542 24BA                              l551 23BC  
                            l535 249A                              l632 18CC  
                            l642 1A26                              l539 24AA  
                            l548 2398                              l636 194A  
                            _LED 2392                              _ISR 0008  
                            _OUT 2488                              _sw0 0044  
                            _sw1 0048                              _sw2 0084  
                  _sw_flag_clear 24D6                              fsr2 000FD9  
                            prod 000FF3                              wreg 000FE8  
                     _TXSTA1bits 000FAD                     _I2C_LCD_Putc 26D2  
                   _I2C_LCD_Puts 1F12                             ?_ADC 0001  
            sw_flag_read@bit_and 00A4                             LED@b 00A5  
                           ?_LED 00A4                ??_I2C_LCD_Command 00A8  
                           ?_ISR 0001                             ?_OUT 00A4  
                   _I2C_LCD_init 22DC                             ISR@i 0027  
                           l1100 1D00                             l1110 1E5C  
                           l1163 21A6                             l1173 22D2  
                           l4200 2198                             l4130 1F40  
                           l4210 229A                             l4212 22A0  
                           l4150 1C6C                             l4136 1F76  
                           l4152 1C84                             l4216 22C4  
                           l4208 228E                             l4240 2464  
                           l4090 27DC                             l4138 1FA2  
                           l4162 1CE6                             l4154 1C8A  
                           l4170 1DE0                             l4172 1DF8  
                           l4228 26C8                             l4430 249E  
                           l4174 1DFE                             l4190 2162  
                           l4510 109C                             l4502 1068  
                           l4088 27CA                             l4440 24BE  
                           l4192 2168                             l4520 11D6  
                           l4434 24AE                             l4426 248E  
                           l4178 1E42                             l4530 14B8  
                           l4506 107A                             l4450 262E  
                           OUT@b 00A5                             l4188 2156  
                           l4524 1482                             l4508 108E  
                           l4446 23CE                             l4526 1494  
                           l4534 14CA                             l4462 2648  
                           l4454 2636                             l4528 14A6  
                           l4472 24DC                             l4480 2504  
                           l4490 0FF4                             l4474 24E8  
                           l4458 263E                             l4492 1006  
                           l4476 24F4                             l4468 264C  
                           l4740 18D6                             l4724 1870  
                           l4486 0FCC                             l4496 102E  
                           l4498 1040                             l4762 1996  
                           l4746 1924                             l4772 19EA  
                           l4756 1970                             l4784 1A22  
                           l4776 1A04               __CFG_WPFP$PAGE_127 000000  
                           l3994 2882                             STR_1 0FA3  
                           STR_2 0F9F                             STR_3 0F97  
                           STR_4 0F93                             STR_5 0FAB  
                           STR_6 0F9B                             STR_7 0FA7  
                           STR_8 0F6A                             STR_9 0F63  
                           u4065 286E                             u4066 2870  
                           u4325 23A0                             u4326 23A8  
                           u4335 23B2                             u4336 23BA  
                           u4345 23C4                             u4346 23CC  
                           u3900 1F9C                             u3907 1F92  
                           u3780 2768                             u4657 1F72  
                           u3890 1F66                             u4667 2700  
                           u4677 28C6                             u4687 2734  
                           u4697 27D2                             u3897 1F5C  
                           _main 17B4         button_timer_interrupt@bt 0001  
                           fsr0h 000FEA                             fsr1h 000FE2  
             i2___lwdiv@quotient 0005                             indf0 000FEF  
                           fsr0l 000FE9                             fsr2h 000FDA  
                           fsr1l 000FE1                             indf2 000FDF  
                           fsr2l 000FD9                 __end_of_I2C_Send 2904  
         __CFG_DSWDTOSC$T1OSCREF 000000                 __end_of_I2C_Stop 2920  
                           pclat 000FFA                 __end_of_I2C_init 2916  
                           prodh 000FF4                             prodl 000FF3  
                           start 0234                 __end_of_ADC_init 287E  
                  __CFG_IESO$OFF 000000                    _I2C_LCD_Clear 28B8  
                          ??_ADC 0003                            ADC@ch 0004  
                  ADC_init@p_ref 00A4                            ??_LED 00A5  
                          ??_ISR 0014           __size_of_I2C_IdleCheck 001E  
                          ??_OUT 00A5                _weekday_char_full 0096  
                  __CFG_PLLDIV$2 000000                     _BAUDCON1bits 000F7E  
                ?_interrupt_TXIF 0001                            ?_main 0001  
                __end_of___awdiv 1F12                            _ADRES 000FC3  
                          STR_10 0F3F                            STR_11 0F01  
                          STR_20 0F8E                            STR_12 0F26  
                          STR_21 0F84                            STR_13 0F71  
                          STR_22 0FAF                            STR_30 0F37  
                          STR_14 0F1D                            STR_15 0FB6  
                          STR_23 0F47                            STR_16 0F7E  
                          STR_24 0F2F                            STR_17 0F78  
                          STR_25 0F0B                            STR_18 0F5C  
                          STR_26 0F14                            STR_27 0F89  
                          STR_19 0F4E                            STR_28 0FB3  
                          STR_29 0F55                  __end_of___lldiv 1D12  
                ___awdiv@divisor 0003                  __end_of___llmod 1E6E  
                          _LATB2 007C52                            _LATA5 007C4D  
                          _LATC2 007C5A                            _LATA6 007C4E  
                          _LATA7 007C4F                            _LATB6 007C56  
                          _LATB7 007C57                  __end_of___lwdiv 21B0  
                 ?_sw_flag_clear 00A4                  __end_of___lwmod 22DC  
                          i2l151 2830                            i2l207 221A  
                  __CFG_WDTEN$ON 000000                            i2l270 156E  
                          i2l271 158E                            i2l272 15AE  
                          i2l192 2698                            i2l273 15CE  
                          i2l274 15EE                            i2l275 160E  
                          i2l268 1522                            i2l269 1548  
                          i2l542 258A                            i2l550 252E  
                          i2l535 256E                            i2l551 253C  
                          i2l623 0182                            i2l539 257C  
                          i2l627 01FA                            i2l548 2520  
                ___awdiv@counter 0005                            i2_LED 251C  
                          i2_OUT 2560                            _TMR1H 000FCF  
                          _TRISA 000F92                            _TRISB 000F93  
                          _TRISC 000F94                   __CFG_FCMEN$OFF 000000  
                __end_of_display 14F2               __size_of_UART_init 0020  
          ringbuf_push@asciicode 0007                            _colon 003A  
                          main@i 01C8                __end_of_I2C_Start 276C  
                          tablat 000FF5                            status 000FD8  
                __end_of_tx_send 28EC                 __end_of_Delay_ms 27F2  
             __size_ofi2___lldiv 0082               __size_ofi2___lwdiv 0052  
             __size_ofi2___lwmod 0042                   ?_I2C_LCD_Clear 0001  
                __initialization 21B0                i2___lldiv@divisor 0005  
                   __end_of_main 1A3A                i2___lldiv@counter 000D  
               __end_of_Auto_cut 1C3E              ringbuf_init@bufsize 00A8  
                         ??_main 00BE                    __activetblptr 000003  
                         ?i2_LED 0001                           ?i2_OUT 0001  
                         _BCL1IF 007D0B                    _I2C_IdleCheck 287E  
                         _ADCON0 000FC2                           _ADCON1 000FC1  
               ___llmod@dividend 00A4                _I2C_LCD_SetCursor 276C  
                         _EECON2 000FA7                           _ANCON0 000F48  
                         _ANCON1 000F49                 ___awdiv@dividend 0001  
                         i2LED@b 0002               I2C_LCD_Command@ans 00A9  
                         i2l1100 20A8                           i2l1163 242E  
                         i2l3100 2408                           i2l1173 261E  
                         i2l3120 2600                           i2l3108 2424  
                         i2l3124 2614                           i2l3116 25F4  
                         i2l3118 25FC                           i2l3222 25A6  
                         i2l3072 2572                           i2l3232 2228  
                         i2l3082 258E                           i2l3242 2272  
                         i2l3226 25CC                           i2l3076 2580  
                         i2l3068 2564                           i2l3236 2246  
                         i2l3270 165C                           i2l3510 1A7C  
                         i2l3088 254A                           i2l3096 23FC  
                         i2l2720 1DB8                           i2l3290 1738  
                         i2l3282 16E0                           i2l3274 1688  
                         i2l3266 1630                           i2l3098 2404  
                         i2l3506 1A46                           i2l3516 1AF2  
                         i2l3524 1B38                           i2l3620 205A  
                         i2l3534 1B4E                           i2l3294 1764  
                         i2l3286 170C                           i2l3278 16B4  
                         i2l3622 2066                           i2l3544 1C18  
                         i2l2656 2102                           i2l3632 209A  
                         i2l3624 206A                           i2l3546 1C34  
                         i2l3298 178E                           i2l3810 006A  
                         i2l3802 0054                           i2OUT@b 0002  
                         i2l2870 2034                           i2l3814 0076  
                         i2l2864 2030                           i2l2960 1EB2  
                         i2l3824 0086                           i2l2970 1ED4  
                         i2l2954 1E92                           i2l2966 1EC8  
                         i2l2982 1EFA                           i2l2968 1ED0  
                         i2l2986 1F08                           i2l2978 1EF0  
             ?_I2C_LCD_SetCursor 00AA                           _RCREG1 000FAF  
                         _RTCCAL 000F3E                           _SPBRG1 000FB0  
                 __CFG_WDTPS$256 000000                           _SSP1IF 007CF3  
                 __CFG_WPCFG$OFF 000000                sw_flag_clear@port 00A5  
                         _TXREG1 000FAE                   __CFG_WPDIS$OFF 000000  
            ??_I2C_LCD_SetCursor 00AB                   __CFG_XINST$OFF 000000  
                   ?_ringbuf_pop 0005                     ?_ringbuf_num 0001  
                         ___wmul 27F2                __end_of_UART_init 285E  
                      ??___awdiv 0005                        ??___lldiv 00B5  
                   ?_timer0_init 0001                        ??___llmod 00AC  
                   ?_timer1_init 00A4                        ??___lwdiv 00AD  
                      ??___lwmod 00A8                     ?_timer3_init 0001  
                         _lchika 1A3A                           clear_0 21B6  
                         clear_1 21C2                           clear_2 21CE  
                __CFG_CLKOEC$OFF 000000                 ___awdiv@quotient 0007  
                ??_sw_flag_clear 00A5                           _tx_buf 01D0  
                      ??_display 00BA                     __pdataCOMRAM 004C  
                      ?_I2C_Send 0001                        ?_I2C_Stop 0001  
              __end_ofi2___lldiv 20BA                __end_ofi2___lwdiv 2438  
                   __mediumconst 0000                __end_ofi2___lwmod 2628  
                      ?_I2C_init 0001        __end_of_I2C_LCD_SetCursor 279C  
                         tblptrh 000FF7                           tblptrl 000FF6  
                         tblptru 000FF8                        ?_ADC_init 0001  
                 ?_I2C_IdleCheck 0001                        ??_tx_send 000D  
               __end_of_tx_sendn 227C                 __end_of_tx_sends 25E6  
           __CFG_LS48MHZ$SYS48X8 000000                       __accesstop 0060  
        __end_of__initialization 2212                  ??_I2C_LCD_Clear 00AA  
                  __end_ofi2_LED 2560                    __end_ofi2_OUT 25A4  
           __CFG_WPEND$PAGE_WPFP 000000               i2___lwmod@dividend 0001  
                 __pcstackCOMRAM 0001               i2___lldiv@dividend 0001  
                   __pidataBANK0 289C                  __CFG_DSWDTPS$G2 000000  
                _I2C_LCD_Command 2706                          ??i2_LED 0002  
                        ??i2_OUT 0002                 I2C_LCD_Command@c 00A8  
                     ??_I2C_Send 00A6                       ??_I2C_Stop 00A6  
                     ??_I2C_init 00A4                        ?_Delay_ms 00A4  
                     ??_ADC_init 00A4               i2___lldiv@quotient 0009  
                     __pbssBANK0 0060                       __pbssBANK1 01C9  
                      ?_Auto_cut 0001                        ISR@cnt_t0 0037  
               ??_interrupt_TXIF 000B                          ?___wmul 0005  
                        ?_lchika 0001             I2C_LCD_SetCursor@col 00AD  
           I2C_LCD_SetCursor@row 00AA                     I2C_Send@data 00A6  
             __CFG_OSC$INTOSCPLL 000000                  ??_I2C_IdleCheck 00A4  
                     ??_Delay_ms 00A6       __size_of_I2C_LCD_SetCursor 0030  
         I2C_LCD_SetCursor@F9846 004C                     tx_sendn@temp 0012  
                        _SPBRGH1 000F7F                          _SSP1ADD 000FC8  
                        _SSP1BUF 000FC9                          _RTCVALH 000F3B  
                        _RTCVALL 000F3A             timer1_init@prescaler 00A6  
                     ??_Auto_cut 000B                 __CFG_CFGPLLEN$ON 000000  
       ??_button_timer_interrupt 0004                        _I2C_Start 273A  
                        __Hparam 0000                          __Lparam 0000  
        __end_of_I2C_LCD_Command 273A                    ?_ringbuf_init 00A4  
                        ___awdiv 1E6E                    ?_ringbuf_push 0005  
                        ___lldiv 1C3E                  __size_of___wmul 0026  
                        ___llmod 1DCA                          ___lwdiv 2138  
                        ___lwmod 227C                     __psmallconst 0F00  
           __size_of_ringbuf_pop 0090             __size_of_ringbuf_num 007E  
                __CFG_STVREN$OFF 000000                  __size_of_lchika 0108  
    epoch_to_caltime@month_cache 004E                          __pcinit 21B0  
                      ?_tx_sendn 000E                        ?_tx_sends 000D  
                        __ramtop 0F00             __size_of_timer0_init 0036  
           __size_of_timer1_init 0050                          __ptext0 17B4  
                        __ptext1 279C                          __ptext2 2438  
                        __ptext3 269C                          __ptext4 2628  
                        __ptext5 24D6                          __ptext6 2338  
                        __ptext7 0FBA                          __ptext8 227C  
                        __ptext9 2138                    I2C_LCD_Putc@c 00A8  
           __size_of_timer3_init 002C                    I2C_LCD_Puts@s 00A8  
                        _display 0FBA                        _T0CONbits 000FD5  
                   __size_of_ADC 0026                     __size_of_LED 0054  
               _time_change_flag 003E                     __size_of_ISR 022C  
                      _T1CONbits 000FCD                     __size_of_OUT 004E  
                        _cut_cnt 01C9                        _T3CONbits 000F79  
                      _T5CONbits 000F22                          _tx_send 28D2  
                        lchika@i 000C             end_of_initialization 2212  
                   _CTMUCONHbits 000FB3                     _CTMUCONLbits 000FB2  
                     ?_I2C_Start 00A6                  ___lldiv@divisor 00B1  
           timer3_init@prescaler 00A5                  ___lldiv@counter 00B9  
                 tx_sendn@digits 0010                   ??_ringbuf_init 00A9  
                 ??_ringbuf_push 0008                          postdec1 000FE5  
                        postdec2 000FDD             sw_flag_clear@bit_and 00A4  
                        postinc0 000FEE                          postinc2 000FDE  
                     ??_tx_sendn 0011                       ??_tx_sends 000F  
                      _PORTAbits 000F80                        _UART_init 283E  
               __CFG_DSBOREN$OFF 000000                     _display_flag 01CF  
      epoch_to_caltime@day_cache 007B                       _print_port 003D  
               __CFG_CPUDIV$OSC1 000000                __size_of_I2C_Send 0018  
              __size_of_I2C_Stop 000A                __size_of_I2C_init 0012  
              i2___lwdiv@divisor 0003                        i2___lldiv 2038  
              __size_of_ADC_init 0020                        i2___lwdiv 23E6  
                      i2___lwmod 25E6                i2___lwdiv@counter 0007  
                      Auto_cut@i 000D  __size_of_button_timer_interrupt 02C2  
        timer1_init@clock_select 00A4                 __CFG_IOL1WAY$OFF 000000  
            __CFG_MSSP7B_EN$MSK7 000000                 ?_I2C_LCD_Command 0001  
                 ringbuf_init@rb 00A4                       lchika@cntf 0034  
                 ringbuf_pop@ret 000A                   __end_of___wmul 2818  
                  ?_sw_flag_read 00A4                   ringbuf_push@rb 0005  
                  __pidataCOMRAM 2920                   __end_of_lchika 1B42  
                     ?_UART_init 0001                 __CFG_DSWDTEN$OFF 000000  
          __end_of_sw_flag_clear 251C              start_initialization 21B0  
                    __end_of_ADC 283E                      __end_of_LED 23E6  
                    __end_of_ISR 0234                      __end_of_OUT 24D6  
                  ?_I2C_LCD_Putc 0001                    ?_I2C_LCD_Puts 00A8  
                  ?_I2C_LCD_init 0001                __size_of_Delay_ms 002A  
                     ?i2___lldiv 0001                       ?i2___lwdiv 0001  
                     ?i2___lwmod 0001                  ___llmod@divisor 00A8  
              __size_of_Auto_cut 00FC                      ??_I2C_Start 00A7  
                ___llmod@counter 00AC            __end_of_I2C_LCD_Clear 28D2  
                       ??___wmul 0009                   ??_sw_flag_read 00A5  
              __CFG_ADCSEL$BIT12 000000                      __pdataBANK0 0088  
                       ??_lchika 0009           _button_timer_interrupt 14F2  
                    __pbssCOMRAM 0028                         LED@value 00A4  
                  __pcstackBANK0 00A4                    __pcstackBANK1 0100  
                 ??_I2C_LCD_Putc 00A8                 sw_flag_read@port 00A5  
                 ??_I2C_LCD_Puts 00AA                   ??_I2C_LCD_init 00AB  
            __end_of__stringdata 0FB9                i2___lwmod@divisor 0003  
              i2___lwmod@counter 0005                      _caltime_now 007D  
           __end_of_ringbuf_init 2392             __end_of_ringbuf_push 1DCA  
               tx_send@asciicode 000D                         ISR@ascii 0026  
               ___lwdiv@dividend 00A9                        _edit_flag 003B  
                      __pintcode 0008                         ?___awdiv 0001  
                       ?___lldiv 00AD                         ?___llmod 00A4  
                       ?___lwdiv 00A9                         ?___lwmod 00A4  
                I2C_LCD_Putc@ans 00A9                  I2C_LCD_Puts@ans 00AB  
                    ??_UART_init 00A4                         ?_display 0001  
                    __smallconst 0F00                __size_of_tx_sendn 0064  
              __size_of_tx_sends 0042                   __size_ofi2_LED 0044  
                      _epoch_now 0040                   __size_ofi2_OUT 0044  
                    I2C_Start@rw 00A6                         _I2C_Send 28EC  
                       OUT@value 00A4                         _I2C_Stop 2916  
           __CFG_RTCOSC$T1OSCREF 000000                         _I2C_init 2904  
                       _ADC_init 285E            __end_of_I2C_IdleCheck 289C  
                    _PADCFG1bits 000F3C                 ___lwdiv@quotient 00AE  
                       ?_tx_send 0001                      ??i2___lldiv 0009  
                    ??i2___lwdiv 0005                      ??i2___lwmod 0005  
                       _CTMUCONH 000FB3                         _CTMUCONL 000FB2  
                       _CTMUICON 000FB1         ringbuf_init@internal_buf 00A6  
                 ___wmul@product 0009                         _IPR1bits 000F9F  
                       _IPR2bits 000FA2                         _PIE1bits 000F9D  
                       _PIE2bits 000FA0                         _IPR5bits 000F99  
                       _PIE5bits 000F91                         i2u242_45 2526  
                       i2u242_46 252C                         i2u243_45 2534  
                       i2u243_46 253A                         i2u244_45 2542  
                       i2u244_46 2548                         i2u319_45 1B6E  
                       i2u353_40 019C                         _PIR1bits 000F9E  
                       i2u353_46 019E                         i2u354_40 01B4  
                       i2u354_46 01B6                         i2u355_40 01CC  
                       _PIR2bits 000FA1                         i2u355_46 01CE  
                       i2u356_40 01E8                         i2u356_46 01EA  
                       _PIR5bits 000F98       epoch_to_caltime@year_cache 003F  
                  ??_ringbuf_pop 0007                    ??_ringbuf_num 0003  
                  tx_sendn@value 000E                         _SSP1CON1 000FC6  
                       _SSP1CON2 000FC5                    ??_timer0_init 00A4  
                  ??_timer1_init 00A5                    ??_timer3_init 00A4  
                       _SSP1STAT 000FC7                       _ADCON0bits 000FC2  
                     _ADCON1bits 000FC1                      __stringdata 0F01  
              ___wmul@multiplier 0005                 __CFG_SOSCSEL$LOW 000000  
 button_timer_interrupt@sw_value 0003          __size_of_interrupt_TXIF 0038  
                       _Delay_ms 27C8                        main@txbuf 0100  
                      lchika@cnt 0031                    ringbuf_pop@rb 0005  
                  ringbuf_num@rb 0001                    I2C_Start@adrs 00A7  
                    _INTCON2bits 000FF1                        copy_data0 21E8  
           __end_of_sw_flag_read 2664                         _Auto_cut 1B42  
                    _auto_cut_ON 002E                         __Hrparam 0000  
                       __Lrparam 0000             __end_of_I2C_LCD_Putc 2706  
           __end_of_I2C_LCD_Puts 1FA8             __end_of_I2C_LCD_init 2338  
               __size_of___awdiv 00A4                I2C_IdleCheck@mask 00A5  
               __size_of___lldiv 00D4                 __size_of___llmod 00A4  
               __size_of___lwdiv 0078                 __size_of___lwmod 0060  
              tx_sends@asciicode 000D              __end_of_ringbuf_pop 2038  
            __end_of_ringbuf_num 2138              __end_of_timer0_init 26D2  
          __size_of_ringbuf_init 005A              __end_of_timer1_init 2488  
               __size_of_display 0538              __end_of_timer3_init 27C8  
          __size_of_ringbuf_push 00B8                       i2LED@value 0001  
                ___lwdiv@divisor 00AB                  ___lwdiv@counter 00AD  
           timer0_init@prescaler 00A5                         __ptext10 1DCA  
                       __ptext11 1C3E                         __ptext20 28B8  
                       __ptext12 276C                         __ptext21 2706  
                       __ptext13 1F12                         __ptext30 25A4  
                       __ptext22 2916                         __ptext14 26D2  
                       __ptext31 2218                         __ptext23 273A  
                       __ptext15 283E                         __ptext40 1FA8  
                       __ptext32 25E6                         __ptext24 28EC  
                       __ptext16 2488                         __ptext41 20BA  
                       __ptext33 28D2                         __ptext25 287E  
                       __ptext17 2392                         __ptext42 14F2  
                       __ptext34 1D12                         __ptext26 27C8  
                       __ptext18 2904                         __ptext43 1B42  
                       __ptext35 1A3A                         __ptext27 285E  
                       __ptext19 22DC                         __ptext44 2560  
                       __ptext36 23E6                         __ptext45 27F2  
                       __ptext37 251C                         __ptext29 2038  
                       __ptext46 2818                         __ptext38 1E6E  
                       __ptext39 2664                     _SSP1CON2bits 000FC5  
          RTCC_loop@prev_halfsec 0039                 __size_of_tx_send 001A  
                  __size_of_main 0286          ?_button_timer_interrupt 0001  
                   _ringbuf_init 2338                     _ringbuf_push 1D12  
                       _tx_sendn 2218                         _tx_sends 25A4  
       __size_of_I2C_LCD_Command 0034                      _OSCTUNEbits 000F9B  
                     _INTCONbits 000FF2                       i2OUT@value 0001  
   I2C_LCD_SetCursor@row_offsets 00AB                       Delay_ms@ms 00A4  
                   _weekday_char 0088                         intlevel2 0000  
               ___lwmod@dividend 00A4                 ___lldiv@dividend 00AD  
                      tx_sendn@i 0011                       _RCSTA1bits 000FAC  
         __size_of_sw_flag_clear 0046                    _print_content 003C  
                     _OSCCONbits 000FD3   __end_of_button_timer_interrupt 17B4  
                    _ringbuf_pop 1FA8                      _ringbuf_num 20BA  
                    _timer0_init 269C                      _timer1_init 2438  
                    _timer3_init 279C                       _RTCCFGbits 000F3F  
                 _interrupt_TXIF 2664                 ___lldiv@quotient 00B5  
                ___lwmod@divisor 00A6                  ___lwmod@counter 00A8  
          __size_of_sw_flag_read 003C           __size_of_I2C_LCD_Clear 001A  
          __size_of_I2C_LCD_Putc 0034            __size_of_I2C_LCD_Puts 0096  
          __size_of_I2C_LCD_init 005C  
