

Microchip Technology PIC18 PRO Macro Assembler V1.35 build -356382666 
                                                                                               Tue Nov 10 13:35:00 2015

Microchip Technology Omniscient Code Generator v1.35 (PRO mode) build 201507080246
     1                           	processor	18F27J53
     2                           	fnconf	rparam,??,?,0
     3                           	opt	pw 120
     4                           	opt	pm
     5                           	psect	smallconst,global,reloc=2,class=SMALLCONST,delta=1
     6                           	psect	_FlashSignatureWord_const,global,ovrld,reloc=2,class=CODE,delta=1
     7                           	psect	cinit,global,reloc=2,class=CODE,delta=1
     8                           	psect	bssCOMRAM,global,class=COMRAM,space=1,delta=1
     9                           	psect	bssBANK0,global,class=BANK0,space=1,delta=1
    10                           	psect	bssBIGRAMl,global,class=BIGRAM,space=1,delta=1
    11                           	psect	cstackCOMRAM,global,class=COMRAM,space=1,delta=1
    12                           	psect	text0,global,reloc=2,class=CODE,delta=1
    13                           	psect	_BootMain_text,global,ovrld,reloc=2,class=CODE,delta=1
    14                           	psect	text2,global,reloc=2,class=CODE,delta=1
    15                           	psect	text3,global,reloc=2,class=CODE,delta=1
    16                           	psect	text4,global,reloc=2,class=CODE,delta=1
    17                           	psect	text5,global,reloc=2,class=CODE,delta=1
    18                           	psect	text6,global,reloc=2,class=CODE,delta=1
    19                           	psect	text7,global,reloc=2,class=CODE,delta=1
    20                           	psect	text8,global,reloc=2,class=CODE,delta=1
    21                           	psect	text9,global,reloc=2,class=CODE,delta=1
    22                           	psect	text10,global,reloc=2,class=CODE,delta=1
    23                           	psect	text11,global,reloc=2,class=CODE,delta=1
    24                           	psect	text12,global,reloc=2,class=CODE,delta=1
    25                           	psect	text13,global,reloc=2,class=CODE,delta=1
    26                           	psect	text14,global,reloc=2,class=CODE,delta=1
    27                           	psect	text15,global,reloc=2,class=CODE,delta=1
    28                           	psect	text16,global,reloc=2,class=CODE,delta=1
    29                           	psect	text17,global,reloc=2,class=CODE,delta=1
    30                           	psect	text18,global,reloc=2,class=CODE,delta=1
    31                           	psect	text19,global,reloc=2,class=CODE,delta=1
    32                           	psect	text20,global,reloc=2,class=CODE,delta=1
    33                           	psect	text21,global,reloc=2,class=CODE,delta=1
    34                           	psect	text22,global,reloc=2,class=CODE,delta=1
    35                           	psect	text23,global,reloc=2,class=CODE,delta=1
    36                           	psect	text24,global,reloc=2,class=CODE,delta=1
    37                           	psect	text25,global,reloc=2,class=CODE,delta=1
    38                           	psect	text26,global,reloc=2,class=CODE,delta=1
    39                           	psect	text27,global,reloc=2,class=CODE,delta=1
    40                           	psect	text28,global,reloc=2,class=CODE,delta=1
    41                           	psect	text29,global,reloc=2,class=CODE,delta=1
    42                           	psect	text30,global,reloc=2,class=CODE,delta=1
    43                           	psect	text31,global,reloc=2,class=CODE,delta=1
    44                           	psect	text32,global,reloc=2,class=CODE,delta=1
    45                           	psect	text33,global,reloc=2,class=CODE,delta=1
    46                           	psect	text34,global,reloc=2,class=CODE,delta=1
    47                           	psect	text35,global,reloc=2,class=CODE,delta=1
    48                           	psect	text36,global,reloc=2,class=CODE,delta=1
    49                           	psect	text37,global,reloc=2,class=CODE,delta=1
    50                           	psect	text38,global,reloc=2,class=CODE,delta=1
    51                           	psect	text39,global,reloc=2,class=CODE,delta=1
    52                           	psect	text40,global,reloc=2,class=CODE,delta=1
    53                           	psect	text41,global,reloc=2,class=CODE,delta=1
    54                           	psect	intsave_regs,global,class=BIGRAM,space=1,delta=1
    55                           	psect	rparam,global,class=COMRAM,space=1,delta=1
    56                           	psect	pa_nodes,global,class=CODE,delta=1
    57                           	dabs	1,0xD08,4,_ep0Bi
    58                           	dabs	1,0xD10,4,_ep1Bi
    59                           	dabs	1,0xD0C,4,_ep1Bo
    60                           	dabs	1,0xD14,8,_EP0OutEvenBuf
    61                           	dabs	1,0xD04,4,_ep0BoOdd
    62                           	dabs	1,0xD00,4,_ep0BoEven
    63                           	dabs	1,0xD6C,64,_hid_report_in
    64                           	dabs	1,0xD2C,64,_hid_report_out
    65                           	dabs	1,0xD24,8,_CtrlTrfData
    66                           	dabs	1,0xD1C,8,_EP0OutOddBuf
    67  0000                     stkptr	equ	0xFFC
    68                           tblptru	equ	0xFF8
    69                           tblptrh	equ	0xFF7
    70                           tblptrl	equ	0xFF6
    71                           tablat	equ	0xFF5
    72                           prodh	equ	0xFF4
    73                           prodl	equ	0xFF3
    74                           intcon	equ	0xFF2
    75                           wreg	equ	0xFE8
    76                           indf1	equ	0xFE7
    77                           fsr1h	equ	0xFE2
    78                           fsr1l	equ	0xFE1
    79                           indf2	equ	0xFDF
    80                           postinc2	equ	0xFDE
    81                           postdec2	equ	0xFDD
    82                           plusw2	equ	0xFDB
    83                           fsr2h	equ	0xFDA
    84                           fsr2l	equ	0xFD9
    85                           status	equ	0xFD8
    86                           
    87                           	psect	smallconst
    88  000F00                     __psmallconst:
    89                           	opt stack 0
    90  000F00  00                 	db	0
    91  000F01                     _USB_SD_Ptr:
    92                           	opt stack 0
    93  000F01  B6                 	db	low _sd000
    94  000F02  04                 	db	low _sd001
    95  000F03  61                 	db	low _sd002
    96  000F04                     __end_of_USB_SD_Ptr:
    97                           	opt stack 0
    98  0000                     _FlashSignatureWord_absconstaddr	set	4102
    99  000F04                     _sd001:
   100                           	opt stack 0
   101  000F04  34                 	db	52
   102  000F05  03                 	db	3
   103  000F06  004D               	dw	77
   104  000F08  0069               	dw	105
   105  000F0A  0063               	dw	99
   106  000F0C  0072               	dw	114
   107  000F0E  006F               	dw	111
   108  000F10  0063               	dw	99
   109  000F12  0068               	dw	104
   110  000F14  0069               	dw	105
   111  000F16  0070               	dw	112
   112  000F18  0020               	dw	32
   113  000F1A  0054               	dw	84
   114  000F1C  0065               	dw	101
   115  000F1E  0063               	dw	99
   116  000F20  0068               	dw	104
   117  000F22  006E               	dw	110
   118  000F24  006F               	dw	111
   119  000F26  006C               	dw	108
   120  000F28  006F               	dw	111
   121  000F2A  0067               	dw	103
   122  000F2C  0079               	dw	121
   123  000F2E  0020               	dw	32
   124  000F30  0049               	dw	73
   125  000F32  006E               	dw	110
   126  000F34  0063               	dw	99
   127  000F36  002E               	dw	46
   128  000F38                     __end_of_sd001:
   129                           	opt stack 0
   130  000F38                     _CFG01:
   131                           	opt stack 0
   132  000F38  09                 	db	9
   133  000F39  02                 	db	2
   134  000F3A  29                 	db	41
   135  000F3B  00                 	db	0
   136  000F3C  01                 	db	1
   137  000F3D  01                 	db	1
   138  000F3E  00                 	db	0
   139  000F3F  80                 	db	128
   140  000F40  32                 	db	50
   141  000F41  09                 	db	9
   142  000F42  04                 	db	4
   143  000F43  00                 	db	0
   144  000F44  00                 	db	0
   145  000F45  02                 	db	2
   146  000F46  03                 	db	3
   147  000F47  00                 	db	0
   148  000F48  00                 	db	0
   149  000F49  00                 	db	0
   150  000F4A  09                 	db	9
   151  000F4B  21                 	db	33
   152  000F4C  11                 	db	17
   153  000F4D  01                 	db	1
   154  000F4E  00                 	db	0
   155  000F4F  01                 	db	1
   156  000F50  22                 	db	34
   157  000F51  1D                 	db	29
   158  000F52  00                 	db	0
   159  000F53  07                 	db	7
   160  000F54  05                 	db	5
   161  000F55  81                 	db	129
   162  000F56  03                 	db	3
   163  000F57  40                 	db	64
   164  000F58  00                 	db	0
   165  000F59  01                 	db	1
   166  000F5A  07                 	db	7
   167  000F5B  05                 	db	5
   168  000F5C  01                 	db	1
   169  000F5D  03                 	db	3
   170  000F5E  40                 	db	64
   171  000F5F  00                 	db	0
   172  000F60  01                 	db	1
   173  000F61                     __end_of_CFG01:
   174                           	opt stack 0
   175  000F61                     _sd002:
   176                           	opt stack 0
   177  000F61  26                 	db	38
   178  000F62  03                 	db	3
   179  000F63  0048               	dw	72
   180  000F65  0049               	dw	73
   181  000F67  0044               	dw	68
   182  000F69  0020               	dw	32
   183  000F6B  0055               	dw	85
   184  000F6D  0053               	dw	83
   185  000F6F  0042               	dw	66
   186  000F71  0020               	dw	32
   187  000F73  0042               	dw	66
   188  000F75  006F               	dw	111
   189  000F77  006F               	dw	111
   190  000F79  0074               	dw	116
   191  000F7B  006C               	dw	108
   192  000F7D  006F               	dw	111
   193  000F7F  0061               	dw	97
   194  000F81  0064               	dw	100
   195  000F83  0065               	dw	101
   196  000F85  0072               	dw	114
   197  000F87                     __end_of_sd002:
   198                           	opt stack 0
   199  000F87                     _hid_rpt01:
   200                           	opt stack 0
   201  000F87  06                 	db	6
   202  000F88  00                 	db	0
   203  000F89  FF                 	db	255
   204  000F8A  09                 	db	9
   205  000F8B  01                 	db	1
   206  000F8C  A1                 	db	161
   207  000F8D  01                 	db	1
   208  000F8E  19                 	db	25
   209  000F8F  01                 	db	1
   210  000F90  29                 	db	41
   211  000F91  40                 	db	64
   212  000F92  15                 	db	21
   213  000F93  00                 	db	0
   214  000F94  26                 	db	38
   215  000F95  FF                 	db	255
   216  000F96  00                 	db	0
   217  000F97  75                 	db	117
   218  000F98  08                 	db	8
   219  000F99  95                 	db	149
   220  000F9A  40                 	db	64
   221  000F9B  81                 	db	129
   222  000F9C  00                 	db	0
   223  000F9D  19                 	db	25
   224  000F9E  01                 	db	1
   225  000F9F  29                 	db	41
   226  000FA0  40                 	db	64
   227  000FA1  91                 	db	145
   228  000FA2  00                 	db	0
   229  000FA3  C0                 	db	192
   230  000FA4                     __end_of_hid_rpt01:
   231                           	opt stack 0
   232  000FA4                     _device_dsc:
   233                           	opt stack 0
   234  000FA4  12                 	db	18
   235  000FA5  01                 	db	1
   236  000FA6  0200               	dw	512
   237  000FA8  00                 	db	0
   238  000FA9  00                 	db	0
   239  000FAA  00                 	db	0
   240  000FAB  08                 	db	8
   241  000FAC  04D8               	dw	1240
   242  000FAE  003C               	dw	60
   243  000FB0  0101               	dw	257
   244  000FB2  01                 	db	1
   245  000FB3  02                 	db	2
   246  000FB4  00                 	db	0
   247  000FB5  01                 	db	1
   248  000FB6                     __end_of_device_dsc:
   249                           	opt stack 0
   250  000FB6                     _sd000:
   251                           	opt stack 0
   252  000FB6  04                 	db	4
   253  000FB7  03                 	db	3
   254  000FB8  0409               	dw	1033
   255  000FBA                     __end_of_sd000:
   256                           	opt stack 0
   257  0000                     _FlashSignatureWord_absconstaddr	set	4102
   258  000FBA  00                 	db	0	; dummy byte at the end
   259  0000                     stkptr	equ	0xFFC
   260                           tblptru	equ	0xFF8
   261                           tblptrh	equ	0xFF7
   262                           tblptrl	equ	0xFF6
   263                           tablat	equ	0xFF5
   264                           prodh	equ	0xFF4
   265                           prodl	equ	0xFF3
   266                           intcon	equ	0xFF2
   267                           wreg	equ	0xFE8
   268                           indf1	equ	0xFE7
   269                           fsr1h	equ	0xFE2
   270                           fsr1l	equ	0xFE1
   271                           indf2	equ	0xFDF
   272                           postinc2	equ	0xFDE
   273                           postdec2	equ	0xFDD
   274                           plusw2	equ	0xFDB
   275                           fsr2h	equ	0xFDA
   276                           fsr2l	equ	0xFD9
   277                           status	equ	0xFD8
   278                           
   279                           	psect	_FlashSignatureWord_const
   280  001006                     __p_FlashSignatureWord_const:
   281                           	opt stack 0
   282  001006                     _FlashSignatureWord:
   283                           	opt stack 0
   284  001006  600D               	dw	24589
   285  001008                     __end_of_FlashSignatureWord:
   286                           	opt stack 0
   287  0000                     _ANCON0	set	3912
   288  0000                     _ANCON1	set	3913
   289  0000                     _ANCON1bits	set	3913
   290  0000                     _UADDR	set	3896
   291  0000                     _UCFG	set	3897
   292  0000                     _UEIE	set	3895
   293  0000                     _UEP0	set	3878
   294  0000                     _UEP1	set	3879
   295  0000                     _UEP2	set	3880
   296  0000                     _UEP3	set	3881
   297  0000                     _UEP4	set	3882
   298  0000                     _UEP5	set	3883
   299  0000                     _UEP6	set	3884
   300  0000                     _UEP7	set	3885
   301  0000                     _UIE	set	3894
   302  0000                     _UIEbits	set	3894
   303  0000                     _EECON1	set	4006
   304  0000                     _EECON1bits	set	4006
   305  0000                     _EECON2	set	4007
   306  0000                     _INTCON	set	4082
   307  0000                     _INTCONbits	set	4082
   308  0000                     _LATCbits	set	3979
   309  0000                     _OSCCON	set	4051
   310  0000                     _OSCTUNEbits	set	3995
   311  0000                     _PIE2bits	set	4000
   312  0000                     _PIR2bits	set	4001
   313  0000                     _PORTBbits	set	3969
   314  0000                     _RCONbits	set	4048
   315  0000                     _STKPTR	set	4092
   316  0000                     _TABLAT	set	4085
   317  0000                     _TBLPTRH	set	4087
   318  0000                     _TBLPTRL	set	4086
   319  0000                     _TBLPTRU	set	4088
   320  0000                     _TRISCbits	set	3988
   321  0000                     _UCON	set	3941
   322  0000                     _UCONbits	set	3941
   323  0000                     _UIR	set	3938
   324  0000                     _UIRbits	set	3938
   325  0000                     _USTAT	set	3940
   326  0000                     _USTATbits	set	3940
   327  0000                     _WDTCONbits	set	4032
   328                           
   329                           ; #config settings
   330  0000                     stkptr	equ	0xFFC
   331                           tblptru	equ	0xFF8
   332                           tblptrh	equ	0xFF7
   333                           tblptrl	equ	0xFF6
   334                           tablat	equ	0xFF5
   335                           prodh	equ	0xFF4
   336                           prodl	equ	0xFF3
   337                           intcon	equ	0xFF2
   338                           wreg	equ	0xFE8
   339                           indf1	equ	0xFE7
   340                           fsr1h	equ	0xFE2
   341                           fsr1l	equ	0xFE1
   342                           indf2	equ	0xFDF
   343                           postinc2	equ	0xFDE
   344                           postdec2	equ	0xFDD
   345                           plusw2	equ	0xFDB
   346                           fsr2h	equ	0xFDA
   347                           fsr2l	equ	0xFD9
   348                           status	equ	0xFD8
   349                           
   350                           	psect	cinit
   351  000CDA                     __pcinit:
   352                           	opt stack 0
   353  000CDA                     start_initialization:
   354                           	opt stack 0
   355  000CDA                     __initialization:
   356                           	opt stack 0
   357  000CDA                     end_of_initialization:
   358                           	opt stack 0
   359  000CDA                     __end_of__initialization:
   360                           	opt stack 0
   361  000CDA  0100               	movlb	0
   362  000CDC  EFE4  F004         	goto	_main	;jump to C main() function
   363                           stkptr	equ	0xFFC
   364                           tblptru	equ	0xFF8
   365                           tblptrh	equ	0xFF7
   366                           tblptrl	equ	0xFF6
   367                           tablat	equ	0xFF5
   368                           prodh	equ	0xFF4
   369                           prodl	equ	0xFF3
   370                           intcon	equ	0xFF2
   371                           wreg	equ	0xFE8
   372                           indf1	equ	0xFE7
   373                           fsr1h	equ	0xFE2
   374                           fsr1l	equ	0xFE1
   375                           indf2	equ	0xFDF
   376                           postinc2	equ	0xFDE
   377                           postdec2	equ	0xFDD
   378                           plusw2	equ	0xFDB
   379                           fsr2h	equ	0xFDA
   380                           fsr2l	equ	0xFD9
   381                           status	equ	0xFD8
   382                           
   383                           	psect	bssCOMRAM
   384  000001                     __pbssCOMRAM:
   385                           	opt stack 0
   386  000001                     _SetupPkt:
   387                           	opt stack 0
   388  000001                     	ds	8
   389  000009                     EraseFlashPage@TablePointerValue:
   390                           	opt stack 0
   391  000009                     	ds	4
   392  00000D                     WriteFlashSubBlock@Address:
   393                           	opt stack 0
   394  00000D                     	ds	4
   395  000011                     _ProgramMemStopAddress:
   396                           	opt stack 0
   397  000011                     	ds	4
   398  000015                     _ProgrammedPointer:
   399                           	opt stack 0
   400  000015                     	ds	4
   401  000019                     _TempBDT:
   402                           	opt stack 0
   403  000019                     	ds	4
   404  00001D                     _pDst:
   405                           	opt stack 0
   406  00001D                     	ds	3
   407  000020                     _pSrc:
   408                           	opt stack 0
   409  000020                     	ds	3
   410  000023                     BlinkUSBStatus@led_count:
   411                           	opt stack 0
   412  000023                     	ds	2
   413  000025                     LoadBDTandSetUOWN@pBDTEntry:
   414                           	opt stack 0
   415  000025                     	ds	2
   416  000027                     ProcessIO@i:
   417                           	opt stack 0
   418  000027                     	ds	2
   419  000029                     SignFlash@i:
   420                           	opt stack 0
   421  000029                     	ds	2
   422  00002B                     USBDeviceTasks@pBDTEntry:
   423                           	opt stack 0
   424  00002B                     	ds	2
   425  00002D                     _uint_delay_counter:
   426                           	opt stack 0
   427  00002D                     	ds	2
   428  00002F                     _wCount:
   429                           	opt stack 0
   430  00002F                     	ds	2
   431  000031                     USBCBSuspend@OSCCONSave:
   432                           	opt stack 0
   433  000031                     	ds	1
   434  000032                     USBCtrlTrfTxService@bytes_to_send:
   435                           	opt stack 0
   436  000032                     	ds	1
   437  000033                     USBDeviceTasks@i:
   438                           	opt stack 0
   439  000033                     	ds	1
   440  000034                     USBStdSetCfgHandler@i:
   441                           	opt stack 0
   442  000034                     	ds	1
   443  000035                     USBSuspend@UIESave:
   444                           	opt stack 0
   445  000035                     	ds	1
   446  000036                     WriteFlashSubBlock@i:
   447                           	opt stack 0
   448  000036                     	ds	1
   449  000037                     _BootState:
   450                           	opt stack 0
   451  000037                     	ds	1
   452  000038                     _BufferedDataIndex:
   453                           	opt stack 0
   454  000038                     	ds	1
   455  000039                     _DeviceIsSoftDetached:
   456                           	opt stack 0
   457  000039                     	ds	1
   458  00003A                     _EP0OutOddNeedsArmingNext:
   459                           	opt stack 0
   460  00003A                     	ds	1
   461  00003B                     _MaxPageToErase:
   462                           	opt stack 0
   463  00003B                     	ds	1
   464  00003C                     _bTRNIFCount:
   465                           	opt stack 0
   466  00003C                     	ds	1
   467  00003D                     _ctrl_trf_session_owner:
   468                           	opt stack 0
   469  00003D                     	ds	1
   470  00003E                     _ctrl_trf_state:
   471                           	opt stack 0
   472  00003E                     	ds	1
   473  00003F                     _hid_rpt_rx_len:
   474                           	opt stack 0
   475  00003F                     	ds	1
   476  000040                     _short_pkt_status:
   477                           	opt stack 0
   478  000040                     	ds	1
   479  000041                     _usb_device_state:
   480                           	opt stack 0
   481  000041                     	ds	1
   482  000042                     _usb_stat:
   483                           	opt stack 0
   484  000042                     	ds	1
   485  000043                     _active_protocol:
   486                           	opt stack 0
   487  000043                     	ds	1
   488  000044                     _idle_rate:
   489                           	opt stack 0
   490  000044                     	ds	1
   491  000045                     _usb_active_cfg:
   492                           	opt stack 0
   493  000045                     	ds	1
   494  000046                     _usb_alt_intf:
   495                           	opt stack 0
   496  000046                     	ds	1
   497                           stkptr	equ	0xFFC
   498                           tblptru	equ	0xFF8
   499                           tblptrh	equ	0xFF7
   500                           tblptrl	equ	0xFF6
   501                           tablat	equ	0xFF5
   502                           prodh	equ	0xFF4
   503                           prodl	equ	0xFF3
   504                           intcon	equ	0xFF2
   505                           wreg	equ	0xFE8
   506                           indf1	equ	0xFE7
   507                           fsr1h	equ	0xFE2
   508                           fsr1l	equ	0xFE1
   509                           indf2	equ	0xFDF
   510                           postinc2	equ	0xFDE
   511                           postdec2	equ	0xFDD
   512                           plusw2	equ	0xFDB
   513                           fsr2h	equ	0xFDA
   514                           fsr2l	equ	0xFD9
   515                           status	equ	0xFD8
   516                           
   517                           	psect	bssBANK0
   518  000060                     __pbssBANK0:
   519                           	opt stack 0
   520  000060                     _PacketFromPC:
   521                           	opt stack 0
   522  000060                     	ds	65
   523  0000A1                     _PacketToPC:
   524                           	opt stack 0
   525  0000A1                     	ds	65
   526                           stkptr	equ	0xFFC
   527                           tblptru	equ	0xFF8
   528                           tblptrh	equ	0xFF7
   529                           tblptrl	equ	0xFF6
   530                           tablat	equ	0xFF5
   531                           prodh	equ	0xFF4
   532                           prodl	equ	0xFF3
   533                           intcon	equ	0xFF2
   534                           wreg	equ	0xFE8
   535                           indf1	equ	0xFE7
   536                           fsr1h	equ	0xFE2
   537                           fsr1l	equ	0xFE1
   538                           indf2	equ	0xFDF
   539                           postinc2	equ	0xFDE
   540                           postdec2	equ	0xFDD
   541                           plusw2	equ	0xFDB
   542                           fsr2h	equ	0xFDA
   543                           fsr2l	equ	0xFD9
   544                           status	equ	0xFD8
   545                           
   546                           	psect	bssBIGRAMl
   547  0000E2                     __pbssBIGRAMl:
   548                           	opt stack 0
   549  0000E2                     _ProgrammingBuffer:
   550                           	opt stack 0
   551  0000E2                     	ds	1024
   552                           stkptr	equ	0xFFC
   553                           tblptru	equ	0xFF8
   554                           tblptrh	equ	0xFF7
   555                           tblptrl	equ	0xFF6
   556                           tablat	equ	0xFF5
   557                           prodh	equ	0xFF4
   558                           prodl	equ	0xFF3
   559                           intcon	equ	0xFF2
   560                           wreg	equ	0xFE8
   561                           indf1	equ	0xFE7
   562                           fsr1h	equ	0xFE2
   563                           fsr1l	equ	0xFE1
   564                           indf2	equ	0xFDF
   565                           postinc2	equ	0xFDE
   566                           postdec2	equ	0xFDD
   567                           plusw2	equ	0xFDB
   568                           fsr2h	equ	0xFDA
   569                           fsr2l	equ	0xFD9
   570                           status	equ	0xFD8
   571                           
   572                           	psect	cstackCOMRAM
   573  000047                     __pcstackCOMRAM:
   574                           	opt stack 0
   575  000047                     ??_BlinkUSBStatus:
   576  000047                     ??_USBStdGetDscHandler:
   577  000047                     ??_USBStdGetStatusHandler:
   578  000047                     ??_USBStdFeatureReqHandler:
   579  000047                     USBCBInitEP@ConfigurationIndex:
   580                           	opt stack 0
   581  000047                     LoadBDTandSetUOWN@BDTIndexToLoad:
   582                           	opt stack 0
   583  000047                     HIDTxReport@len:
   584                           	opt stack 0
   585  000047                     HIDRxReport@len:
   586                           	opt stack 0
   587  000047                     UnlockAndActivate@UnlockKey:
   588                           	opt stack 0
   589  000047                     DelayRoutine@DelayAmount:
   590                           	opt stack 0
   591                           
   592                           ; 2 bytes @ 0x0
   593  000047                     	ds	1
   594  000048                     ??_WriteFlashSubBlock:
   595  000048                     ??_HIDTxReport:
   596  000048                     ??_HIDRxReport:
   597  000048                     EraseFlashPage@PageNumToErase:
   598                           	opt stack 0
   599                           
   600                           ; 2 bytes @ 0x1
   601  000048                     	ds	1
   602  000049                     ??_USBCheckStdRequest:
   603  000049                     HIDTxReport@buffer:
   604                           	opt stack 0
   605  000049                     HIDRxReport@buffer:
   606                           	opt stack 0
   607                           
   608                           ; 1 bytes @ 0x2
   609  000049                     	ds	1
   610  00004A                     ??_USBDeviceTasks:
   611  00004A                     ??_EraseFlashPage:
   612  00004A                     HIDTxReport@i:
   613                           	opt stack 0
   614                           
   615                           ; 1 bytes @ 0x3
   616  00004A                     	ds	4
   617  00004E                     ??_SignFlash:
   618                           
   619                           ; 0 bytes @ 0x7
   620  00004E                     	ds	1
   621  00004F                     SignFlash@pROM:
   622                           	opt stack 0
   623                           
   624                           ; 3 bytes @ 0x8
   625  00004F                     	ds	3
   626  000052                     ??_ProcessIO:
   627                           
   628                           ; 0 bytes @ 0xB
   629  000052                     	ds	2
   630  000054                     stkptr	equ	0xFFC
   631                           tblptru	equ	0xFF8
   632                           tblptrh	equ	0xFF7
   633                           tblptrl	equ	0xFF6
   634                           tablat	equ	0xFF5
   635                           prodh	equ	0xFF4
   636                           prodl	equ	0xFF3
   637                           intcon	equ	0xFF2
   638                           wreg	equ	0xFE8
   639                           indf1	equ	0xFE7
   640                           fsr1h	equ	0xFE2
   641                           fsr1l	equ	0xFE1
   642                           indf2	equ	0xFDF
   643                           postinc2	equ	0xFDE
   644                           postdec2	equ	0xFDD
   645                           plusw2	equ	0xFDB
   646                           fsr2h	equ	0xFDA
   647                           fsr2l	equ	0xFD9
   648                           status	equ	0xFD8
   649                           
   650                           ; 0 bytes @ 0xD
   651 ;;
   652 ;;Main: autosize = 0, tempsize = 0, incstack = 0, save=0
   653 ;;
   654 ;; *************** function _main *****************
   655 ;; Defined at:
   656 ;;		line 322 in file "../src/main.c"
   657 ;; Parameters:    Size  Location     Type
   658 ;;		None
   659 ;; Auto vars:     Size  Location     Type
   660 ;;		None
   661 ;; Return value:  Size  Location     Type
   662 ;;		None               void
   663 ;; Registers used:
   664 ;;		wreg, fsr1l, fsr1h, fsr2l, fsr2h, status,2, status,0, tblptrl, tblptrh, tblptru, prodl, prodh, cstack
   665 ;; Tracked objects:
   666 ;;		On entry : 0/0
   667 ;;		On exit  : 0/0
   668 ;;		Unchanged: 0/0
   669 ;; Data sizes:     COMRAM   BANK0   BANK1   BANK2   BANK3   BANK4   BANK5   BANK6   BANK7   BANK8   BANK9  BANK10  BANK1
      +1  BANK12  BANK13  BANK14
   670 ;;      Params:         0       0       0       0       0       0       0       0       0       0       0       0       
      +0       0       0       0
   671 ;;      Locals:         0       0       0       0       0       0       0       0       0       0       0       0       
      +0       0       0       0
   672 ;;      Temps:          0       0       0       0       0       0       0       0       0       0       0       0       
      +0       0       0       0
   673 ;;      Totals:         0       0       0       0       0       0       0       0       0       0       0       0       
      +0       0       0       0
   674 ;;Total ram usage:        0 bytes
   675 ;; Hardware stack levels required when called:    8
   676 ;; This function calls:
   677 ;;		_BootMain
   678 ;; This function is called by:
   679 ;;		Startup code after reset
   680 ;; This function uses a non-reentrant model
   681 ;;
   682                           
   683                           	psect	text0
   684  0009C8                     __ptext0:
   685                           	opt stack 0
   686  0009C8                     _main:
   687                           	opt stack 23
   688                           
   689                           ;main.c: 330: {ANCON1bits.PCFG12 = 1;};
   690                           
   691                           ;incstack = 0
   692  0009C8  010F               	movlb	15	; () banked
   693  0009CA  8949               	bsf	73,4,b	;volatile
   694                           
   695                           ;main.c: 334: if(PORTBbits.RB0 == 1)
   696  0009CC  A081               	btfss	3969,0,c	;volatile
   697  0009CE  D002               	goto	l3305
   698                           
   699                           ; BSR set to: 15
   700                           ;main.c: 335: {
   701                           ;main.c: 339: {ANCON1bits.PCFG12 = 0;};
   702  0009D0  9949               	bcf	73,4,b	;volatile
   703                           
   704                           ;main.c: 343: goto DoFlashSignatureCheck;
   705  0009D2  D002               	goto	l3307
   706  0009D4                     l3305:
   707                           
   708                           ; BSR set to: 15
   709                           ;main.c: 345: else
   710                           ;main.c: 346: {
   711                           ;main.c: 348: BootMain();
   712  0009D4  EC18  F000         	call	_BootMain	;wreg free
   713  0009D8                     l3307:
   714                           
   715                           ;main.c: 354: if(*(const unsigned int*)0x1006 == 0x600D)
   716  0009D8  0E06               	movlw	6
   717  0009DA  6EF6               	movwf	tblptrl,c
   718  0009DC                     	if	1	;There is more than 1 active tblptr byte
   719  0009DC  D814               	call	PL22	;call to abstracted procedure
   720  0009DE  0E0D               	movlw	13
   721  0009E0  18F5               	xorwf	tablat,w,c
   722  0009E2  E10D               	bnz	l3313
   723  0009E4  0009               	tblrd		*+
   724  0009E6  0E60               	movlw	96
   725  0009E8  18F5               	xorwf	tablat,w,c
   726  0009EA  E109               	bnz	l3313
   727                           
   728                           ;main.c: 355: {
   729                           ;main.c: 361: if(*(const unsigned int*)0x1000 != 0xFFFF)
   730  0009EC  6AF6               	clrf	tblptrl,c
   731  0009EE                     	if	1	;There is more than 1 active tblptr byte
   732  0009EE  D80B               	call	PL22	;call to abstracted procedure
   733  0009F0  28F5               	incf	tablat,w,c
   734  0009F2  E103               	bnz	u2220
   735  0009F4  0009               	tblrd		*+
   736  0009F6  28F5               	incf	tablat,w,c
   737  0009F8  E002               	bz	l3313
   738  0009FA                     u2220:
   739  0009FA  EF00 F008          	goto	4096	;# 
   740  0009FE                     l3313:
   741                           
   742                           ;main.c: 371: }
   743                           ;main.c: 372: }
   744                           ;main.c: 378: BootMain();
   745  0009FE  EC18  F000         	call	_BootMain	;wreg free
   746  000A02  EF00  F000         	goto	start
   747  000A06                     __end_of_main:
   748                           	opt stack 0
   749  000A06                     PL22:
   750                           	opt stack 23
   751  000A06  0E10               	movlw	16
   752  000A08  6EF7               	movwf	tblptrh,c
   753  000A0A                     	endif
   754  000A0A                     	if	1	;There are 3 active tblptr bytes
   755  000A0A  6AF8               	clrf	tblptru,c
   756  000A0C                     	endif
   757  000A0C  0009               	tblrd		*+
   758  000A0E  0C10               	retlw	16
   759  000A10                     __end_ofPL22:
   760                           	opt stack 0
   761                           stkptr	equ	0xFFC
   762                           tblptru	equ	0xFF8
   763                           tblptrh	equ	0xFF7
   764                           tblptrl	equ	0xFF6
   765                           tablat	equ	0xFF5
   766                           prodh	equ	0xFF4
   767                           prodl	equ	0xFF3
   768                           intcon	equ	0xFF2
   769                           wreg	equ	0xFE8
   770                           indf1	equ	0xFE7
   771                           fsr1h	equ	0xFE2
   772                           fsr1l	equ	0xFE1
   773                           indf2	equ	0xFDF
   774                           postinc2	equ	0xFDE
   775                           postdec2	equ	0xFDD
   776                           plusw2	equ	0xFDB
   777                           fsr2h	equ	0xFDA
   778                           fsr2l	equ	0xFD9
   779                           status	equ	0xFD8
   780                           
   781 ;; *************** function _BootMain *****************
   782 ;; Defined at:
   783 ;;		line 407 in file "../src/main.c"
   784 ;; Parameters:    Size  Location     Type
   785 ;;		None
   786 ;; Auto vars:     Size  Location     Type
   787 ;;		None
   788 ;; Return value:  Size  Location     Type
   789 ;;		None               void
   790 ;; Registers used:
   791 ;;		wreg, fsr1l, fsr1h, fsr2l, fsr2h, status,2, status,0, tblptrl, tblptrh, tblptru, prodl, prodh, cstack
   792 ;; Tracked objects:
   793 ;;		On entry : 0/F
   794 ;;		On exit  : 0/0
   795 ;;		Unchanged: 0/0
   796 ;; Data sizes:     COMRAM   BANK0   BANK1   BANK2   BANK3   BANK4   BANK5   BANK6   BANK7   BANK8   BANK9  BANK10  BANK1
      +1  BANK12  BANK13  BANK14
   797 ;;      Params:         0       0       0       0       0       0       0       0       0       0       0       0       
      +0       0       0       0
   798 ;;      Locals:         0       0       0       0       0       0       0       0       0       0       0       0       
      +0       0       0       0
   799 ;;      Temps:          0       0       0       0       0       0       0       0       0       0       0       0       
      +0       0       0       0
   800 ;;      Totals:         0       0       0       0       0       0       0       0       0       0       0       0       
      +0       0       0       0
   801 ;;Total ram usage:        0 bytes
   802 ;; Hardware stack levels used:    1
   803 ;; Hardware stack levels required when called:    7
   804 ;; This function calls:
   805 ;;		_BlinkUSBStatus
   806 ;;		_InitializeSystem
   807 ;;		_LowVoltageCheck
   808 ;;		_ProcessIO
   809 ;;		_USBDeviceTasks
   810 ;; This function is called by:
   811 ;;		_main
   812 ;; This function uses a non-reentrant model
   813 ;;
   814                           
   815                           	psect	_BootMain_text
   816  000030                     __p_BootMain_text:
   817                           	opt stack 0
   818  000030                     _BootMain:
   819                           	opt stack 0
   820                           
   821                           ;incstack = 0
   822  0000                     
   823                           ;main.c: 424: INTCON = 0x00;
   824  000030  6AF2               	clrf	intcon,c	;volatile
   825                           
   826                           ;main.c: 438: STKPTR = 0x00;
   827  000032  6AFC               	clrf	stkptr,c	;volatile
   828                           
   829                           ;main.c: 447: InitializeSystem();
   830  000034  EC0A  F006         	call	_InitializeSystem	;wreg free
   831  000038                     l67:
   832  000038  0004               	clrwdt		;# 
   833                           
   834                           ;main.c: 457: USBDeviceTasks();
   835  00003A  EC6F  F001         	call	_USBDeviceTasks	;wreg free
   836                           
   837                           ;main.c: 459: BlinkUSBStatus();
   838  00003E  EC6E  F005         	call	_BlinkUSBStatus	;wreg free
   839                           
   840                           ;main.c: 461: LowVoltageCheck();
   841  000042  EC8B  F005         	call	_LowVoltageCheck	;wreg free
   842                           
   843                           ;main.c: 465: ProcessIO();
   844  000046  EC26  F000         	call	_ProcessIO	;wreg free
   845  00004A  D7F6               	goto	l67
   846  00004C                     __end_of_BootMain:
   847                           	opt stack 0
   848                           stkptr	equ	0xFFC
   849                           tblptru	equ	0xFF8
   850                           tblptrh	equ	0xFF7
   851                           tblptrl	equ	0xFF6
   852                           tablat	equ	0xFF5
   853                           prodh	equ	0xFF4
   854                           prodl	equ	0xFF3
   855                           intcon	equ	0xFF2
   856                           wreg	equ	0xFE8
   857                           indf1	equ	0xFE7
   858                           fsr1h	equ	0xFE2
   859                           fsr1l	equ	0xFE1
   860                           indf2	equ	0xFDF
   861                           postinc2	equ	0xFDE
   862                           postdec2	equ	0xFDD
   863                           plusw2	equ	0xFDB
   864                           fsr2h	equ	0xFDA
   865                           fsr2l	equ	0xFD9
   866                           status	equ	0xFD8
   867                           
   868 ;; *************** function _ProcessIO *****************
   869 ;; Defined at:
   870 ;;		line 265 in file "../src/boot_18fxxjxx.c"
   871 ;; Parameters:    Size  Location     Type
   872 ;;		None
   873 ;; Auto vars:     Size  Location     Type
   874 ;;		None
   875 ;; Return value:  Size  Location     Type
   876 ;;		None               void
   877 ;; Registers used:
   878 ;;		wreg, fsr1l, fsr1h, fsr2l, fsr2h, status,2, status,0, tblptrl, tblptrh, tblptru, prodl, prodh, cstack
   879 ;; Tracked objects:
   880 ;;		On entry : 0/F
   881 ;;		On exit  : 0/0
   882 ;;		Unchanged: 0/0
   883 ;; Data sizes:     COMRAM   BANK0   BANK1   BANK2   BANK3   BANK4   BANK5   BANK6   BANK7   BANK8   BANK9  BANK10  BANK1
      +1  BANK12  BANK13  BANK14
   884 ;;      Params:         0       0       0       0       0       0       0       0       0       0       0       0       
      +0       0       0       0
   885 ;;      Locals:         0       0       0       0       0       0       0       0       0       0       0       0       
      +0       0       0       0
   886 ;;      Temps:          2       0       0       0       0       0       0       0       0       0       0       0       
      +0       0       0       0
   887 ;;      Totals:         2       0       0       0       0       0       0       0       0       0       0       0       
      +0       0       0       0
   888 ;;Total ram usage:        2 bytes
   889 ;; Hardware stack levels used:    1
   890 ;; Hardware stack levels required when called:    6
   891 ;; This function calls:
   892 ;;		_ClearWatchdog
   893 ;;		_EraseFlashPage
   894 ;;		_HIDRxReport
   895 ;;		_HIDTxReport
   896 ;;		_ResetDeviceCleanly
   897 ;;		_SignFlash
   898 ;;		_USBDeviceTasks
   899 ;;		_WriteFlashSubBlock
   900 ;; This function is called by:
   901 ;;		_BootMain
   902 ;; This function uses a non-reentrant model
   903 ;;
   904                           
   905                           	psect	text2
   906  00004C                     __ptext2:
   907                           	opt stack 0
   908  00004C                     _ProcessIO:
   909                           	opt stack 23
   910                           
   911                           ;boot_18fxxjxx.c: 267: static unsigned int i;
   912                           ;boot_18fxxjxx.c: 275: if((usb_device_state != 6) || (UCONbits.SUSPND == 1))
   913                           
   914                           ;incstack = 0
   915  00004C  0E06               	movlw	6
   916  00004E  1841               	xorwf	_usb_device_state,w,c
   917  000050  B4D8               	btfsc	status,2,c
   918  000052  B265               	btfsc	3941,1,c	;volatile
   919  000054  0012               	return	
   920                           
   921                           ;boot_18fxxjxx.c: 280: }
   922                           ;boot_18fxxjxx.c: 285: if(BootState == 0x00)
   923  000056  5037               	movf	_BootState,w,c
   924  000058  E001 D11C          	bnz	l3285
   925                           
   926                           ;boot_18fxxjxx.c: 286: {
   927                           ;boot_18fxxjxx.c: 289: if(!ep1Bo.Stat.UOWN)
   928  00005C  010D               	movlb	13	; () banked
   929  00005E  BF0C               	btfsc	12,7,b	;volatile
   930  000060  0012               	return	
   931                           
   932                           ; BSR set to: 13
   933                           ;boot_18fxxjxx.c: 290: {
   934                           ;boot_18fxxjxx.c: 293: HIDRxReport((char *)&PacketFromPC, 0x40);
   935  000062  0E40               	movlw	64
   936  000064  6E47               	movwf	HIDRxReport@len,c
   937  000066  0E60               	movlw	_PacketFromPC& (0+255)
   938  000068  EC5E  F004         	call	_HIDRxReport
   939                           
   940                           ; BSR set to: 13
   941                           ;boot_18fxxjxx.c: 294: BootState = 0x01;
   942  00006C  0E01               	movlw	1
   943  00006E  6E37               	movwf	_BootState,c
   944                           
   945                           ; BSR set to: 13
   946                           ;boot_18fxxjxx.c: 297: for(i = 0; i < 0x40; i++)
   947  000070  6A27               	clrf	ProcessIO@i,c
   948  000072  6A28               	clrf	ProcessIO@i+1,c
   949  000074                     l3131:
   950                           
   951                           ;boot_18fxxjxx.c: 298: PacketToPC.Contents[i] = 0;
   952  000074  5027               	movf	ProcessIO@i,w,c
   953  000076  0FA1               	addlw	low _PacketToPC
   954  000078  6ED9               	movwf	fsr2l,c
   955  00007A  6ADA               	clrf	fsr2h,c
   956  00007C  0E00               	movlw	0
   957  00007E  6EDF               	movwf	indf2,c
   958  000080  4A27               	infsnz	ProcessIO@i,f,c
   959  000082  2A28               	incf	ProcessIO@i+1,f,c
   960  000084  5028               	movf	ProcessIO@i+1,w,c
   961  000086  E105               	bnz	u2090
   962  000088  0E40               	movlw	64
   963  00008A  5C27               	subwf	ProcessIO@i,w,c
   964  00008C  B0D8               	btfsc	status,0,c
   965  00008E  0012               	return	
   966  000090  D7F1               	goto	l3131
   967  000092                     u2090:
   968  000092  0012               	return	
   969  000094                     l3137:
   970                           
   971                           ; BSR set to: 0
   972                           ;boot_18fxxjxx.c: 309: PacketToPC.Command = 0x02;
   973  000094  0E02               	movlw	2
   974  000096  6FA1               	movwf	_PacketToPC& (0+255),b
   975                           
   976                           ;boot_18fxxjxx.c: 310: PacketToPC.PacketDataFieldSize = 0x3A;
   977  000098  0E3A               	movlw	58
   978  00009A  6FA2               	movwf	(_PacketToPC+1)& (0+255),b
   979                           
   980                           ;boot_18fxxjxx.c: 311: PacketToPC.BytesPerAddress = 0x01;
   981  00009C  0E01               	movlw	1
   982  00009E  6FA3               	movwf	(_PacketToPC+2)& (0+255),b
   983                           
   984                           ;boot_18fxxjxx.c: 312: PacketToPC.Type1 = 0x01;
   985  0000A0  6FA4               	movwf	(_PacketToPC+3)& (0+255),b
   986                           
   987                           ;boot_18fxxjxx.c: 313: PacketToPC.Address1 = (unsigned long)(uint32_t)0x1000;
   988  0000A2  6BA5               	clrf	(_PacketToPC+4)& (0+255),b
   989  0000A4  0E10               	movlw	16
   990  0000A6  6FA6               	movwf	(_PacketToPC+5)& (0+255),b
   991  0000A8  6BA7               	clrf	(_PacketToPC+6)& (0+255),b
   992  0000AA  6BA8               	clrf	(_PacketToPC+7)& (0+255),b
   993                           
   994                           ; BSR set to: 0
   995                           ;boot_18fxxjxx.c: 314: PacketToPC.Length1 = (unsigned long)(ProgramMemStopAddress - (uin
      +                          t32_t)0x1000);
   996  0000AC  0E00               	movlw	0
   997  0000AE  2411               	addwf	_ProgramMemStopAddress,w,c
   998  0000B0  6FA9               	movwf	(_PacketToPC+8)& (0+255),b
   999  0000B2  0EF0               	movlw	240
  1000  0000B4  2012               	addwfc	_ProgramMemStopAddress+1,w,c
  1001  0000B6  6FAA               	movwf	(_PacketToPC+9)& (0+255),b
  1002  0000B8  0EFF               	movlw	255
  1003  0000BA  2013               	addwfc	_ProgramMemStopAddress+2,w,c
  1004  0000BC  6FAB               	movwf	(_PacketToPC+10)& (0+255),b
  1005  0000BE  0EFF               	movlw	255
  1006  0000C0  2014               	addwfc	_ProgramMemStopAddress+3,w,c
  1007  0000C2  6FAC               	movwf	(_PacketToPC+11)& (0+255),b
  1008                           
  1009                           ; BSR set to: 0
  1010                           ;boot_18fxxjxx.c: 315: PacketToPC.Type2 = 0x03;
  1011  0000C4  0E03               	movlw	3
  1012  0000C6  6FAD               	movwf	(_PacketToPC+12)& (0+255),b
  1013                           
  1014                           ; BSR set to: 0
  1015                           ;boot_18fxxjxx.c: 316: PacketToPC.Address2 = (unsigned long)(uint32_t)0x01FFF8;
  1016  0000C8  0EF8               	movlw	248
  1017  0000CA  6FAE               	movwf	(_PacketToPC+13)& (0+255),b
  1018  0000CC  69AF               	setf	(_PacketToPC+14)& (0+255),b
  1019  0000CE  0E01               	movlw	1
  1020  0000D0  6FB0               	movwf	(_PacketToPC+15)& (0+255),b
  1021  0000D2  6BB1               	clrf	(_PacketToPC+16)& (0+255),b
  1022                           
  1023                           ; BSR set to: 0
  1024                           ;boot_18fxxjxx.c: 317: PacketToPC.Length2 = (unsigned long)8;
  1025  0000D4  0E08               	movlw	8
  1026  0000D6  6FB2               	movwf	(_PacketToPC+17)& (0+255),b
  1027  0000D8  6BB3               	clrf	(_PacketToPC+18)& (0+255),b
  1028  0000DA  6BB4               	clrf	(_PacketToPC+19)& (0+255),b
  1029  0000DC  6BB5               	clrf	(_PacketToPC+20)& (0+255),b
  1030                           
  1031                           ; BSR set to: 0
  1032                           ;boot_18fxxjxx.c: 318: PacketToPC.Type3 = 0xFF;
  1033  0000DE  69B6               	setf	(_PacketToPC+21)& (0+255),b
  1034                           
  1035                           ; BSR set to: 0
  1036                           ;boot_18fxxjxx.c: 319: PacketToPC.VersionFlag = 0xA5;
  1037  0000E0  0EA5               	movlw	165
  1038  0000E2  6FDA               	movwf	(_PacketToPC+57)& (0+255),b
  1039                           
  1040                           ; BSR set to: 0
  1041                           ;boot_18fxxjxx.c: 323: if(!ep1Bi.Stat.UOWN)
  1042  0000E4  010D               	movlb	13	; () banked
  1043  0000E6  BF10               	btfsc	16,7,b	;volatile
  1044  0000E8  0CA5               	retlw	165
  1045                           
  1046                           ; BSR set to: 13
  1047                           ;boot_18fxxjxx.c: 324: {
  1048                           ;boot_18fxxjxx.c: 325: HIDTxReport((char *)&PacketToPC, 0x40);
  1049  0000EA  D8F5               	call	PL44	;call to abstracted procedure
  1050  0000EC  EC8E  F004         	call	_HIDTxReport
  1051  0000F0                     l3155:
  1052                           
  1053                           ;boot_18fxxjxx.c: 326: BootState = 0x00;
  1054  0000F0  6A37               	clrf	_BootState,c
  1055  0000F2  0012               	return	
  1056  0000F4                     l3157:
  1057                           
  1058                           ; BSR set to: 0
  1059                           ;boot_18fxxjxx.c: 330: if(PacketFromPC.LockValue == 0x00)
  1060  0000F4  5161               	movf	(_PacketFromPC+1)& (0+255),w,b
  1061  0000F6  E106               	bnz	l3161
  1062                           
  1063                           ; BSR set to: 0
  1064                           ;boot_18fxxjxx.c: 331: {
  1065                           ;boot_18fxxjxx.c: 332: MaxPageToErase = (((uint32_t)0x01FFF8)/1024);
  1066  0000F8  0E7F               	movlw	127
  1067  0000FA  6E3B               	movwf	_MaxPageToErase,c
  1068                           
  1069                           ;boot_18fxxjxx.c: 333: ProgramMemStopAddress = ((uint32_t)0x01FFF8);
  1070  0000FC  0EF8               	movlw	248
  1071  0000FE  6E11               	movwf	_ProgramMemStopAddress,c
  1072  000100  6812               	setf	_ProgramMemStopAddress+1,c
  1073  000102  D002               	goto	L1
  1074  000104                     l3161:
  1075                           
  1076                           ; BSR set to: 0
  1077                           ;boot_18fxxjxx.c: 335: else
  1078                           ;boot_18fxxjxx.c: 336: {
  1079                           ;boot_18fxxjxx.c: 337: MaxPageToErase = ((((uint32_t)0x01FFF8)/1024) - 1);
  1080                           
  1081                           ;boot_18fxxjxx.c: 338: ProgramMemStopAddress = ((((((uint32_t)0x01FFF8)/1024) - 1) + 1) 
      +                          * 1024);
  1082  000104  ECC2  F005         	call	PL28	;call to abstracted procedure
  1083  000108                     L1:
  1084  000108  ECCD  F005         	call	PL42	;call to abstracted procedure
  1085  00010C  D7F1               	goto	l3155
  1086  00010E                     l3165:
  1087                           
  1088                           ; BSR set to: 0
  1089                           ;boot_18fxxjxx.c: 347: for(i = ((uint32_t)0x1000/1024); i < (MaxPageToErase + 1); i++)
  1090  00010E  6A28               	clrf	ProcessIO@i+1,c
  1091  000110  0E04               	movlw	4
  1092  000112  6E27               	movwf	ProcessIO@i,c
  1093  000114  D00C               	goto	l3175
  1094  000116                     l3167:
  1095                           
  1096                           ;boot_18fxxjxx.c: 348: {
  1097                           ;boot_18fxxjxx.c: 349: ClearWatchdog();
  1098  000116  EC70  F006         	call	_ClearWatchdog	;wreg free
  1099                           
  1100                           ;boot_18fxxjxx.c: 350: EraseFlashPage(i);
  1101  00011A  C027  F048         	movff	ProcessIO@i,EraseFlashPage@PageNumToErase
  1102  00011E  C028  F049         	movff	ProcessIO@i+1,EraseFlashPage@PageNumToErase+1
  1103  000122  ECBC  F004         	call	_EraseFlashPage	;wreg free
  1104                           
  1105                           ;boot_18fxxjxx.c: 351: USBDeviceTasks();
  1106  000126  EC6F  F001         	call	_USBDeviceTasks	;wreg free
  1107  00012A  4A27               	infsnz	ProcessIO@i,f,c
  1108  00012C  2A28               	incf	ProcessIO@i+1,f,c
  1109  00012E                     l3175:
  1110  00012E  503B               	movf	_MaxPageToErase,w,c
  1111  000130  6E52               	movwf	??_ProcessIO& (0+255),c
  1112  000132  6A53               	clrf	(??_ProcessIO+1)& (0+255),c
  1113  000134  2A52               	incf	??_ProcessIO,f,c
  1114  000136  0E00               	movlw	0
  1115  000138  2253               	addwfc	??_ProcessIO+1,f,c
  1116  00013A  5052               	movf	??_ProcessIO,w,c
  1117  00013C  5C27               	subwf	ProcessIO@i,w,c
  1118  00013E  5053               	movf	??_ProcessIO+1,w,c
  1119  000140  5828               	subwfb	ProcessIO@i+1,w,c
  1120  000142  E2D6               	bc	l3155
  1121  000144  D7E8               	goto	l3167
  1122  000146                     l3177:
  1123                           
  1124                           ; BSR set to: 0
  1125                           ;boot_18fxxjxx.c: 356: if(ProgrammedPointer == (uint32_t)0xFFFFFFFF)
  1126  000146  2815               	incf	_ProgrammedPointer,w,c
  1127  000148  E10E               	bnz	l3181
  1128  00014A  2816               	incf	_ProgrammedPointer+1,w,c
  1129  00014C  E10C               	bnz	l3181
  1130  00014E  2817               	incf	_ProgrammedPointer+2,w,c
  1131  000150  E10A               	bnz	l3181
  1132  000152  2818               	incf	_ProgrammedPointer+3,w,c
  1133  000154  E108               	bnz	l3181
  1134                           
  1135                           ; BSR set to: 0
  1136                           ;boot_18fxxjxx.c: 357: ProgrammedPointer = PacketFromPC.Address;
  1137  000156  C061  F015         	movff	_PacketFromPC+1,_ProgrammedPointer
  1138  00015A  C062  F016         	movff	_PacketFromPC+2,_ProgrammedPointer+1
  1139  00015E  C063  F017         	movff	_PacketFromPC+3,_ProgrammedPointer+2
  1140  000162  C064  F018         	movff	_PacketFromPC+4,_ProgrammedPointer+3
  1141  000166                     l3181:
  1142                           
  1143                           ; BSR set to: 0
  1144                           ;boot_18fxxjxx.c: 359: if(ProgrammedPointer == (uint32_t)PacketFromPC.Address)
  1145  000166  5015               	movf	_ProgrammedPointer,w,c
  1146  000168  1961               	xorwf	(_PacketFromPC+1)& (0+255),w,b
  1147  00016A  E1C2               	bnz	l3155
  1148  00016C  5016               	movf	_ProgrammedPointer+1,w,c
  1149  00016E  1962               	xorwf	(_PacketFromPC+2)& (0+255),w,b
  1150  000170  E1BF               	bnz	l3155
  1151  000172  5017               	movf	_ProgrammedPointer+2,w,c
  1152  000174  1963               	xorwf	(_PacketFromPC+3)& (0+255),w,b
  1153  000176  E1BC               	bnz	l3155
  1154  000178  5018               	movf	_ProgrammedPointer+3,w,c
  1155  00017A  1964               	xorwf	(_PacketFromPC+4)& (0+255),w,b
  1156  00017C  E1B9               	bnz	l3155
  1157                           
  1158                           ; BSR set to: 0
  1159                           ;boot_18fxxjxx.c: 360: {
  1160                           ;boot_18fxxjxx.c: 361: for(i = 0; i < PacketFromPC.Size; i++)
  1161  00017E  6A27               	clrf	ProcessIO@i,c
  1162  000180  6A28               	clrf	ProcessIO@i+1,c
  1163  000182  D01A               	goto	l3197
  1164  000184                     l3185:
  1165                           
  1166                           ; BSR set to: 0
  1167                           ;boot_18fxxjxx.c: 362: {
  1168                           ;boot_18fxxjxx.c: 363: ProgrammingBuffer[BufferedDataIndex] = PacketFromPC.Data[i+(0x3A-
      +                          PacketFromPC.Size)];
  1169  000184  5165               	movf	(_PacketFromPC+5)& (0+255),w,b
  1170  000186  08A0               	sublw	low (_PacketFromPC+64)
  1171  000188  2427               	addwf	ProcessIO@i,w,c
  1172  00018A  6ED9               	movwf	fsr2l,c
  1173  00018C  6ADA               	clrf	fsr2h,c
  1174  00018E  0EE2               	movlw	low _ProgrammingBuffer
  1175  000190  2438               	addwf	_BufferedDataIndex,w,c
  1176  000192  6EE1               	movwf	fsr1l,c
  1177  000194  6AE2               	clrf	fsr1h,c
  1178  000196  0E00               	movlw	high _ProgrammingBuffer
  1179  000198  22E2               	addwfc	fsr1h,f,c
  1180  00019A  CFDF FFE7          	movff	indf2,indf1
  1181                           
  1182                           ; BSR set to: 0
  1183                           ;boot_18fxxjxx.c: 364: BufferedDataIndex++;
  1184  00019E  2A38               	incf	_BufferedDataIndex,f,c
  1185                           
  1186                           ; BSR set to: 0
  1187                           ;boot_18fxxjxx.c: 365: ProgrammedPointer++;
  1188  0001A0  2A15               	incf	_ProgrammedPointer,f,c
  1189  0001A2  0E00               	movlw	0
  1190  0001A4  2216               	addwfc	_ProgrammedPointer+1,f,c
  1191  0001A6  2217               	addwfc	_ProgrammedPointer+2,f,c
  1192  0001A8  2218               	addwfc	_ProgrammedPointer+3,f,c
  1193                           
  1194                           ; BSR set to: 0
  1195                           ;boot_18fxxjxx.c: 366: if(BufferedDataIndex == 0x3A)
  1196  0001AA  0E3A               	movlw	58
  1197  0001AC  1838               	xorwf	_BufferedDataIndex,w,c
  1198  0001AE  E102               	bnz	l3195
  1199                           
  1200                           ; BSR set to: 0
  1201                           ;boot_18fxxjxx.c: 367: {
  1202                           ;boot_18fxxjxx.c: 368: WriteFlashSubBlock();
  1203  0001B0  EC27  F004         	call	_WriteFlashSubBlock	;wreg free
  1204  0001B4                     l3195:
  1205  0001B4  4A27               	infsnz	ProcessIO@i,f,c
  1206  0001B6  2A28               	incf	ProcessIO@i+1,f,c
  1207  0001B8                     l3197:
  1208  0001B8  0100               	movlb	0	; () banked
  1209  0001BA  D885               	call	PL12	;call to abstracted procedure
  1210  0001BC  E299               	bc	l3155
  1211  0001BE  D7E2               	goto	l3185
  1212  0001C0                     l3199:
  1213                           
  1214                           ; BSR set to: 0
  1215                           ;boot_18fxxjxx.c: 378: WriteFlashSubBlock();
  1216  0001C0  EC27  F004         	call	_WriteFlashSubBlock	;wreg free
  1217                           
  1218                           ;boot_18fxxjxx.c: 379: ProgrammedPointer = 0xFFFFFFFF;
  1219  0001C4  ECC8  F005         	call	PL34	;call to abstracted procedure
  1220  0001C8  D793               	goto	l3155
  1221  0001CA                     l3205:
  1222                           
  1223                           ; BSR set to: 0
  1224                           ;boot_18fxxjxx.c: 384: PacketToPC.Command = 0x07;
  1225  0001CA  0E07               	movlw	7
  1226  0001CC  6FA1               	movwf	_PacketToPC& (0+255),b
  1227                           
  1228                           ; BSR set to: 0
  1229                           ;boot_18fxxjxx.c: 385: PacketToPC.Address = PacketFromPC.Address;
  1230  0001CE  C061  F0A2         	movff	_PacketFromPC+1,_PacketToPC+1
  1231  0001D2  C062  F0A3         	movff	_PacketFromPC+2,_PacketToPC+2
  1232  0001D6  C063  F0A4         	movff	_PacketFromPC+3,_PacketToPC+3
  1233  0001DA  C064  F0A5         	movff	_PacketFromPC+4,_PacketToPC+4
  1234                           
  1235                           ; BSR set to: 0
  1236                           ;boot_18fxxjxx.c: 386: PacketToPC.Size = PacketFromPC.Size;
  1237  0001DE  C065  F0A6         	movff	_PacketFromPC+5,_PacketToPC+5
  1238                           
  1239                           ; BSR set to: 0
  1240                           ;boot_18fxxjxx.c: 389: TBLPTRU = PacketFromPC.Address >> 16;
  1241  0001E2  C063  FFF8         	movff	_PacketFromPC+3,tblptru	;volatile
  1242                           
  1243                           ; BSR set to: 0
  1244                           ;boot_18fxxjxx.c: 390: TBLPTRH = PacketFromPC.Address >> 8;
  1245  0001E6  C062  FFF7         	movff	_PacketFromPC+2,tblptrh	;volatile
  1246                           
  1247                           ; BSR set to: 0
  1248                           ;boot_18fxxjxx.c: 391: TBLPTRL = PacketFromPC.Address;
  1249  0001EA  C061  FFF6         	movff	_PacketFromPC+1,tblptrl	;volatile
  1250                           
  1251                           ; BSR set to: 0
  1252                           ;boot_18fxxjxx.c: 392: for(i = 0; i < PacketFromPC.Size; i++)
  1253  0001EE  6A27               	clrf	ProcessIO@i,c
  1254  0001F0  6A28               	clrf	ProcessIO@i+1,c
  1255  0001F2  D00B               	goto	l3223
  1256  0001F4                     l641:
  1257                           
  1258                           ; BSR set to: 0
  1259  0001F4  0009               	tblrd		*+	;# 
  1260                           
  1261                           ;boot_18fxxjxx.c: 397: PacketToPC.Data[i+((0x40 - 6) - PacketFromPC.Size)] = TABLAT;
  1262  0001F6  0100               	movlb	0	; () banked
  1263  0001F8  5165               	movf	(_PacketFromPC+5)& (0+255),w,b
  1264  0001FA  08E1               	sublw	low (_PacketToPC+64)
  1265  0001FC  2427               	addwf	ProcessIO@i,w,c
  1266  0001FE  6ED9               	movwf	fsr2l,c
  1267  000200  6ADA               	clrf	fsr2h,c
  1268  000202  CFF5 FFDF          	movff	tablat,indf2	;volatile
  1269                           
  1270                           ; BSR set to: 0
  1271  000206  4A27               	infsnz	ProcessIO@i,f,c
  1272  000208  2A28               	incf	ProcessIO@i+1,f,c
  1273  00020A                     l3223:
  1274                           
  1275                           ; BSR set to: 0
  1276  00020A  D85D               	call	PL12	;call to abstracted procedure
  1277  00020C  E3F3               	bnc	l641
  1278                           
  1279                           ; BSR set to: 0
  1280                           ;boot_18fxxjxx.c: 398: }
  1281                           ;boot_18fxxjxx.c: 409: if(!ep1Bi.Stat.UOWN)
  1282  00020E  010D               	movlb	13	; () banked
  1283  000210  BF10               	btfsc	16,7,b	;volatile
  1284  000212  0012               	return	
  1285                           
  1286                           ; BSR set to: 13
  1287                           ;boot_18fxxjxx.c: 410: {
  1288                           ;boot_18fxxjxx.c: 411: HIDTxReport((char *)&PacketToPC, 0x40);
  1289  000214  D860               	call	PL44	;call to abstracted procedure
  1290  000216  EC8E  F004         	call	_HIDTxReport
  1291  00021A  D76A               	goto	l3155
  1292  00021C                     l3229:
  1293                           
  1294                           ; BSR set to: 0
  1295                           ;boot_18fxxjxx.c: 416: SignFlash();
  1296  00021C  EC29  F002         	call	_SignFlash	;wreg free
  1297  000220  D767               	goto	l3155
  1298  000222                     l3233:
  1299                           
  1300                           ; BSR set to: 0
  1301                           ;boot_18fxxjxx.c: 425: PacketToPC.Command = 0x0C;
  1302  000222  0E0C               	movlw	12
  1303  000224  6FA1               	movwf	_PacketToPC& (0+255),b
  1304                           
  1305                           ;boot_18fxxjxx.c: 426: PacketToPC.BootloaderVersion = ((unsigned int)1 << 8)| 2;
  1306  000226  0E01               	movlw	1
  1307  000228  6FA3               	movwf	(_PacketToPC+2)& (0+255),b
  1308  00022A  0E02               	movlw	2
  1309  00022C  6FA2               	movwf	(_PacketToPC+1)& (0+255),b
  1310                           
  1311                           ; BSR set to: 0
  1312                           ;boot_18fxxjxx.c: 427: PacketToPC.ApplicationVersion = *(const unsigned int*)0x1016;
  1313  00022E  0E16               	movlw	22
  1314  000230  6EF6               	movwf	tblptrl,c
  1315  000232                     	if	1	;There is more than 1 active tblptr byte
  1316  000232  EC03  F005         	call	PL22	;call to abstracted procedure
  1317  000236  CFF5 F0A4          	movff	tablat,_PacketToPC+3
  1318  00023A  000A               	tblrd		*-
  1319  00023C  CFF5 F0A5          	movff	tablat,_PacketToPC+4
  1320                           
  1321                           ; BSR set to: 0
  1322                           ;boot_18fxxjxx.c: 428: PacketToPC.SignatureAddress = 0x1006;
  1323  000240  0E06               	movlw	6
  1324  000242  6FA6               	movwf	(_PacketToPC+5)& (0+255),b
  1325  000244  0E10               	movlw	16
  1326  000246  6FA7               	movwf	(_PacketToPC+6)& (0+255),b
  1327  000248  6BA8               	clrf	(_PacketToPC+7)& (0+255),b
  1328  00024A  6BA9               	clrf	(_PacketToPC+8)& (0+255),b
  1329                           
  1330                           ; BSR set to: 0
  1331                           ;boot_18fxxjxx.c: 429: PacketToPC.SignatureValue = 0x600D;
  1332  00024C  0E60               	movlw	96
  1333  00024E  6FAB               	movwf	(_PacketToPC+10)& (0+255),b
  1334  000250  0E0D               	movlw	13
  1335  000252  6FAA               	movwf	(_PacketToPC+9)& (0+255),b
  1336                           
  1337                           ; BSR set to: 0
  1338                           ;boot_18fxxjxx.c: 430: PacketToPC.ErasePageSize = 1024;
  1339  000254  6BAC               	clrf	(_PacketToPC+11)& (0+255),b
  1340  000256  0E04               	movlw	4
  1341  000258  6FAD               	movwf	(_PacketToPC+12)& (0+255),b
  1342  00025A  0E00               	movlw	0
  1343  00025C  6BAE               	clrf	(_PacketToPC+13)& (0+255),b
  1344  00025E  6BAF               	clrf	(_PacketToPC+14)& (0+255),b
  1345                           
  1346                           ; BSR set to: 0
  1347                           ;boot_18fxxjxx.c: 431: PacketToPC.Config1LMask = 0xFF;
  1348  000260  69B0               	setf	(_PacketToPC+15)& (0+255),b
  1349                           
  1350                           ; BSR set to: 0
  1351                           ;boot_18fxxjxx.c: 432: PacketToPC.Config1HMask = 0xFF;
  1352  000262  69B1               	setf	(_PacketToPC+16)& (0+255),b
  1353                           
  1354                           ; BSR set to: 0
  1355                           ;boot_18fxxjxx.c: 433: PacketToPC.Config2LMask = 0xFF;
  1356  000264  69B2               	setf	(_PacketToPC+17)& (0+255),b
  1357                           
  1358                           ; BSR set to: 0
  1359                           ;boot_18fxxjxx.c: 434: PacketToPC.Config2HMask = 0xFF;
  1360  000266  69B3               	setf	(_PacketToPC+18)& (0+255),b
  1361                           
  1362                           ; BSR set to: 0
  1363                           ;boot_18fxxjxx.c: 435: PacketToPC.Config3LMask = 0xFF;
  1364  000268  69B4               	setf	(_PacketToPC+19)& (0+255),b
  1365                           
  1366                           ; BSR set to: 0
  1367                           ;boot_18fxxjxx.c: 436: PacketToPC.Config3HMask = 0xFF;
  1368  00026A  69B5               	setf	(_PacketToPC+20)& (0+255),b
  1369                           
  1370                           ; BSR set to: 0
  1371                           ;boot_18fxxjxx.c: 437: PacketToPC.Config4LMask = 0xFF;
  1372  00026C  69B6               	setf	(_PacketToPC+21)& (0+255),b
  1373                           
  1374                           ; BSR set to: 0
  1375                           ;boot_18fxxjxx.c: 438: PacketToPC.Config4HMask = 0xFF;
  1376  00026E  69B7               	setf	(_PacketToPC+22)& (0+255),b
  1377                           
  1378                           ; BSR set to: 0
  1379                           ;boot_18fxxjxx.c: 439: PacketToPC.Config5LMask = 0x00;
  1380  000270  6BB8               	clrf	(_PacketToPC+23)& (0+255),b
  1381                           
  1382                           ; BSR set to: 0
  1383                           ;boot_18fxxjxx.c: 440: PacketToPC.Config5HMask = 0x00;
  1384  000272  6BB9               	clrf	(_PacketToPC+24)& (0+255),b
  1385                           
  1386                           ; BSR set to: 0
  1387                           ;boot_18fxxjxx.c: 441: PacketToPC.Config6LMask = 0x00;
  1388  000274  6BBA               	clrf	(_PacketToPC+25)& (0+255),b
  1389                           
  1390                           ; BSR set to: 0
  1391                           ;boot_18fxxjxx.c: 442: PacketToPC.Config6HMask = 0x00;
  1392  000276  6BBB               	clrf	(_PacketToPC+26)& (0+255),b
  1393                           
  1394                           ; BSR set to: 0
  1395                           ;boot_18fxxjxx.c: 443: PacketToPC.Config7LMask = 0x00;
  1396  000278  6BBC               	clrf	(_PacketToPC+27)& (0+255),b
  1397                           
  1398                           ; BSR set to: 0
  1399                           ;boot_18fxxjxx.c: 444: PacketToPC.Config7HMask = 0x00;
  1400  00027A  6BBD               	clrf	(_PacketToPC+28)& (0+255),b
  1401                           
  1402                           ; BSR set to: 0
  1403                           ;boot_18fxxjxx.c: 445: PacketToPC.Config8LMask = 0x00;
  1404  00027C  6BBE               	clrf	(_PacketToPC+29)& (0+255),b
  1405                           
  1406                           ; BSR set to: 0
  1407                           ;boot_18fxxjxx.c: 446: PacketToPC.Config8HMask = 0x00;
  1408  00027E  6BBF               	clrf	(_PacketToPC+30)& (0+255),b
  1409                           
  1410                           ; BSR set to: 0
  1411                           ;boot_18fxxjxx.c: 449: if(!ep1Bi.Stat.UOWN)
  1412  000280  010D               	movlb	13	; () banked
  1413  000282  BF10               	btfsc	16,7,b	;volatile
  1414  000284  0012               	return	
  1415                           
  1416                           ; BSR set to: 13
  1417                           ;boot_18fxxjxx.c: 450: {
  1418                           ;boot_18fxxjxx.c: 451: HIDTxReport((char *)&PacketToPC, 0x40);
  1419  000286  D827               	call	PL44	;call to abstracted procedure
  1420  000288  EC8E  F004         	call	_HIDTxReport
  1421  00028C  D731               	goto	l3155
  1422  00028E                     l3281:
  1423                           
  1424                           ; BSR set to: 0
  1425                           ;boot_18fxxjxx.c: 456: ResetDeviceCleanly();
  1426  00028E  EC06  F000         	call	_ResetDeviceCleanly	;wreg free
  1427  000292  D72E               	goto	l3155
  1428  000294                     l3285:
  1429  000294  0100               	movlb	0	; () banked
  1430  000296  5160               	movf	_PacketFromPC& (0+255),w,b
  1431                           
  1432                           ; Switch size 1, requested type "space"
  1433                           ; Number of cases is 9, Range of values is 2 to 12
  1434                           ; switch strategies available:
  1435                           ; Name         Instructions Cycles
  1436                           ; simple_byte           28    15 (average)
  1437                           ;	Chosen strategy is simple_byte
  1438  000298  0A02               	xorlw	2	; case 2
  1439  00029A  E101 D6FB          	bz	l3137
  1440  00029E  0A01               	xorlw	1	; case 3
  1441  0002A0  E101 D728          	bz	l3157
  1442  0002A4  0A07               	xorlw	7	; case 4
  1443  0002A6  E101 D732          	bz	l3165
  1444  0002AA  0A01               	xorlw	1	; case 5
  1445  0002AC  E101 D74B          	bz	l3177
  1446  0002B0  0A03               	xorlw	3	; case 6
  1447  0002B2  E086               	bz	l3199
  1448  0002B4  0A01               	xorlw	1	; case 7
  1449  0002B6  E089               	bz	l3205
  1450  0002B8  0A0F               	xorlw	15	; case 8
  1451  0002BA  E0E9               	bz	l3281
  1452  0002BC  0A01               	xorlw	1	; case 9
  1453  0002BE  E0AE               	bz	l3229
  1454  0002C0  0A05               	xorlw	5	; case 12
  1455  0002C2  E0AF               	bz	l3233
  1456  0002C4  D715               	goto	l3155
  1457  0002C6                     __end_of_ProcessIO:
  1458                           	opt stack 0
  1459  0002C6                     PL12:
  1460                           	opt stack 23
  1461  0002C6  5165               	movf	(_PacketFromPC+5)& (0+255),w,b
  1462  0002C8  6E52               	movwf	??_ProcessIO& (0+255),c
  1463  0002CA  6A53               	clrf	(??_ProcessIO+1)& (0+255),c
  1464  0002CC  5052               	movf	??_ProcessIO,w,c
  1465  0002CE  5C27               	subwf	ProcessIO@i,w,c
  1466  0002D0  5053               	movf	??_ProcessIO+1,w,c
  1467  0002D2  5828               	subwfb	ProcessIO@i+1,w,c
  1468  0002D4  0012               	return	
  1469  0002D6                     __end_ofPL12:
  1470                           	opt stack 0
  1471  0002D6                     PL44:
  1472                           	opt stack 23
  1473  0002D6  0E40               	movlw	64
  1474  0002D8  6E47               	movwf	HIDTxReport@len,c
  1475  0002DA  0EA1               	movlw	_PacketToPC& (0+255)
  1476  0002DC  0012               	return	
  1477  0002DE                     __end_ofPL44:
  1478                           	opt stack 0
  1479                           stkptr	equ	0xFFC
  1480                           tblptru	equ	0xFF8
  1481                           tblptrh	equ	0xFF7
  1482                           tblptrl	equ	0xFF6
  1483                           tablat	equ	0xFF5
  1484                           prodh	equ	0xFF4
  1485                           prodl	equ	0xFF3
  1486                           intcon	equ	0xFF2
  1487                           wreg	equ	0xFE8
  1488                           indf1	equ	0xFE7
  1489                           fsr1h	equ	0xFE2
  1490                           fsr1l	equ	0xFE1
  1491                           indf2	equ	0xFDF
  1492                           postinc2	equ	0xFDE
  1493                           postdec2	equ	0xFDD
  1494                           plusw2	equ	0xFDB
  1495                           fsr2h	equ	0xFDA
  1496                           fsr2l	equ	0xFD9
  1497                           status	equ	0xFD8
  1498                           
  1499 ;; *************** function _WriteFlashSubBlock *****************
  1500 ;; Defined at:
  1501 ;;		line 576 in file "../src/boot_18fxxjxx.c"
  1502 ;; Parameters:    Size  Location     Type
  1503 ;;		None
  1504 ;; Auto vars:     Size  Location     Type
  1505 ;;  WordToWrite     2    0        unsigned int 
  1506 ;; Return value:  Size  Location     Type
  1507 ;;		None               void
  1508 ;; Registers used:
  1509 ;;		wreg, fsr2l, fsr2h, status,2, status,0, cstack
  1510 ;; Tracked objects:
  1511 ;;		On entry : 0/0
  1512 ;;		On exit  : 0/0
  1513 ;;		Unchanged: 0/0
  1514 ;; Data sizes:     COMRAM   BANK0   BANK1   BANK2   BANK3   BANK4   BANK5   BANK6   BANK7   BANK8   BANK9  BANK10  BANK1
      +1  BANK12  BANK13  BANK14
  1515 ;;      Params:         0       0       0       0       0       0       0       0       0       0       0       0       
      +0       0       0       0
  1516 ;;      Locals:         0       0       0       0       0       0       0       0       0       0       0       0       
      +0       0       0       0
  1517 ;;      Temps:          4       0       0       0       0       0       0       0       0       0       0       0       
      +0       0       0       0
  1518 ;;      Totals:         4       0       0       0       0       0       0       0       0       0       0       0       
      +0       0       0       0
  1519 ;;Total ram usage:        4 bytes
  1520 ;; Hardware stack levels used:    1
  1521 ;; Hardware stack levels required when called:    2
  1522 ;; This function calls:
  1523 ;;		_UnlockAndActivate
  1524 ;; This function is called by:
  1525 ;;		_ProcessIO
  1526 ;; This function uses a non-reentrant model
  1527 ;;
  1528                           
  1529                           	psect	text3
  1530  00084E                     __ptext3:
  1531                           	opt stack 0
  1532  00084E                     _WriteFlashSubBlock:
  1533                           	opt stack 26
  1534                           
  1535                           ;boot_18fxxjxx.c: 578: static unsigned char i;
  1536                           ;boot_18fxxjxx.c: 579: uint16_t WordToWrite;
  1537                           ;boot_18fxxjxx.c: 580: static uint32_t Address;
  1538                           ;boot_18fxxjxx.c: 583: i = 0;
  1539                           
  1540                           ;incstack = 0
  1541  00084E  6A36               	clrf	WriteFlashSubBlock@i,c
  1542                           
  1543                           ;boot_18fxxjxx.c: 584: while(BufferedDataIndex > 0)
  1544  000850  D027               	goto	l3043
  1545  000852                     l3021:
  1546                           
  1547                           ;boot_18fxxjxx.c: 585: {
  1548                           ;boot_18fxxjxx.c: 587: Address = (ProgrammedPointer - BufferedDataIndex);
  1549  000852  5038               	movf	_BufferedDataIndex,w,c
  1550  000854  6E48               	movwf	??_WriteFlashSubBlock& (0+255),c
  1551  000856  0E00               	movlw	0
  1552  000858  BE48               	btfsc	??_WriteFlashSubBlock& (0+255),7,c
  1553  00085A  0EFF               	movlw	255
  1554  00085C  6E49               	movwf	(??_WriteFlashSubBlock+1)& (0+255),c
  1555  00085E  6E4A               	movwf	(??_WriteFlashSubBlock+2)& (0+255),c
  1556  000860  6E4B               	movwf	(??_WriteFlashSubBlock+3)& (0+255),c
  1557  000862  5048               	movf	??_WriteFlashSubBlock,w,c
  1558  000864  5C15               	subwf	_ProgrammedPointer,w,c
  1559  000866  6E0D               	movwf	WriteFlashSubBlock@Address,c
  1560  000868  5049               	movf	??_WriteFlashSubBlock+1,w,c
  1561  00086A  5816               	subwfb	_ProgrammedPointer+1,w,c
  1562  00086C  6E0E               	movwf	WriteFlashSubBlock@Address+1,c
  1563  00086E  504A               	movf	??_WriteFlashSubBlock+2,w,c
  1564  000870  5817               	subwfb	_ProgrammedPointer+2,w,c
  1565  000872  6E0F               	movwf	WriteFlashSubBlock@Address+2,c
  1566  000874  504B               	movf	??_WriteFlashSubBlock+3,w,c
  1567  000876  5818               	subwfb	_ProgrammedPointer+3,w,c
  1568  000878  6E10               	movwf	WriteFlashSubBlock@Address+3,c
  1569                           
  1570                           ;boot_18fxxjxx.c: 588: TBLPTRU = Address >> 16;
  1571  00087A  C00F  FFF8         	movff	WriteFlashSubBlock@Address+2,tblptru	;volatile
  1572                           
  1573                           ;boot_18fxxjxx.c: 589: TBLPTRH = Address >> 8;
  1574  00087E  C00E  FFF7         	movff	WriteFlashSubBlock@Address+1,tblptrh	;volatile
  1575                           
  1576                           ;boot_18fxxjxx.c: 590: TBLPTRL = (uint8_t)Address;
  1577  000882  C00D  FFF6         	movff	WriteFlashSubBlock@Address,tblptrl	;volatile
  1578                           
  1579                           ;boot_18fxxjxx.c: 592: TABLAT = ProgrammingBuffer[i];
  1580  000886  D811               	call	PL8	;call to abstracted procedure
  1581  000888  000D               	tblwt		*+	;# 
  1582                           
  1583                           ;boot_18fxxjxx.c: 596: i++;
  1584  00088A  2A36               	incf	WriteFlashSubBlock@i,f,c
  1585                           
  1586                           ;boot_18fxxjxx.c: 597: TABLAT = ProgrammingBuffer[i];
  1587  00088C  D80E               	call	PL8	;call to abstracted procedure
  1588  00088E  000C               	tblwt		*	;# 
  1589                           
  1590                           ;boot_18fxxjxx.c: 601: i++;
  1591  000890  2A36               	incf	WriteFlashSubBlock@i,f,c
  1592                           
  1593                           ;boot_18fxxjxx.c: 617: EECON1 = 0b00100100;
  1594  000892  0E24               	movlw	36
  1595  000894  6EA6               	movwf	4006,c	;volatile
  1596                           
  1597                           ;boot_18fxxjxx.c: 618: UnlockAndActivate(0xB5);
  1598  000896  0EB5               	movlw	181
  1599  000898  ECE6  F005         	call	_UnlockAndActivate
  1600                           
  1601                           ;boot_18fxxjxx.c: 620: BufferedDataIndex = BufferedDataIndex - 0x02;
  1602  00089C  0EFE               	movlw	254
  1603  00089E  2638               	addwf	_BufferedDataIndex,f,c
  1604  0008A0                     l3043:
  1605  0008A0  5038               	movf	_BufferedDataIndex,w,c
  1606  0008A2  0A80               	xorlw	128
  1607  0008A4  0F7F               	addlw	-129
  1608  0008A6  E2D5               	bc	l3021
  1609  0008A8  0012               	return		;funcret
  1610  0008AA                     __end_of_WriteFlashSubBlock:
  1611                           	opt stack 0
  1612  0008AA                     PL8:
  1613                           	opt stack 26
  1614  0008AA  0EE2               	movlw	low _ProgrammingBuffer
  1615  0008AC  2436               	addwf	WriteFlashSubBlock@i,w,c
  1616  0008AE  6ED9               	movwf	fsr2l,c
  1617  0008B0  6ADA               	clrf	fsr2h,c
  1618  0008B2  0E00               	movlw	high _ProgrammingBuffer
  1619  0008B4  22DA               	addwfc	fsr2h,f,c
  1620  0008B6  50DF               	movf	indf2,w,c
  1621  0008B8  6EF5               	movwf	tablat,c	;volatile
  1622  0008BA  0012               	return	
  1623  0008BC                     __end_ofPL8:
  1624                           	opt stack 0
  1625                           stkptr	equ	0xFFC
  1626                           tblptru	equ	0xFF8
  1627                           tblptrh	equ	0xFF7
  1628                           tblptrl	equ	0xFF6
  1629                           tablat	equ	0xFF5
  1630                           prodh	equ	0xFF4
  1631                           prodl	equ	0xFF3
  1632                           intcon	equ	0xFF2
  1633                           wreg	equ	0xFE8
  1634                           indf1	equ	0xFE7
  1635                           fsr1h	equ	0xFE2
  1636                           fsr1l	equ	0xFE1
  1637                           indf2	equ	0xFDF
  1638                           postinc2	equ	0xFDE
  1639                           postdec2	equ	0xFDD
  1640                           plusw2	equ	0xFDB
  1641                           fsr2h	equ	0xFDA
  1642                           fsr2l	equ	0xFD9
  1643                           status	equ	0xFD8
  1644                           
  1645 ;; *************** function _USBDeviceTasks *****************
  1646 ;; Defined at:
  1647 ;;		line 463 in file "../src/usb_device.c"
  1648 ;; Parameters:    Size  Location     Type
  1649 ;;		None
  1650 ;; Auto vars:     Size  Location     Type
  1651 ;;		None
  1652 ;; Return value:  Size  Location     Type
  1653 ;;		None               void
  1654 ;; Registers used:
  1655 ;;		wreg, fsr1l, fsr1h, fsr2l, fsr2h, status,2, status,0, tblptrl, tblptrh, tblptru, prodl, prodh, cstack
  1656 ;; Tracked objects:
  1657 ;;		On entry : 0/F
  1658 ;;		On exit  : 0/0
  1659 ;;		Unchanged: 0/0
  1660 ;; Data sizes:     COMRAM   BANK0   BANK1   BANK2   BANK3   BANK4   BANK5   BANK6   BANK7   BANK8   BANK9  BANK10  BANK1
      +1  BANK12  BANK13  BANK14
  1661 ;;      Params:         0       0       0       0       0       0       0       0       0       0       0       0       
      +0       0       0       0
  1662 ;;      Locals:         0       0       0       0       0       0       0       0       0       0       0       0       
      +0       0       0       0
  1663 ;;      Temps:          2       0       0       0       0       0       0       0       0       0       0       0       
      +0       0       0       0
  1664 ;;      Totals:         2       0       0       0       0       0       0       0       0       0       0       0       
      +0       0       0       0
  1665 ;;Total ram usage:        2 bytes
  1666 ;; Hardware stack levels used:    1
  1667 ;; Hardware stack levels required when called:    5
  1668 ;; This function calls:
  1669 ;;		_USBCheckBusStatus
  1670 ;;		_USBCtrlTrfInHandler
  1671 ;;		_USBCtrlTrfSetupHandler
  1672 ;;		_USBProtocolResetHandler
  1673 ;;		_USBSuspend
  1674 ;;		_USBWakeFromSuspend
  1675 ;; This function is called by:
  1676 ;;		_BootMain
  1677 ;;		_ProcessIO
  1678 ;; This function uses a non-reentrant model
  1679 ;;
  1680                           
  1681                           	psect	text4
  1682  0002DE                     __ptext4:
  1683                           	opt stack 0
  1684  0002DE                     _USBDeviceTasks:
  1685                           	opt stack 24
  1686                           
  1687                           ;usb_device.c: 465: static volatile BDT* pBDTEntry;
  1688                           ;usb_device.c: 466: static uint8_t i;
  1689                           ;usb_device.c: 469: USBCheckBusStatus();
  1690                           
  1691                           ;incstack = 0
  1692  0002DE  EC60  F006         	call	_USBCheckBusStatus	;wreg free
  1693                           
  1694                           ;usb_device.c: 474: if(usb_device_state == 0) return;
  1695  0002E2  5041               	movf	_usb_device_state,w,c
  1696  0002E4  E101               	bnz	l291
  1697  0002E6  0012               	return	
  1698  0002E8                     l291:
  1699                           
  1700                           ;usb_device.c: 480: if(UIRbits.ACTVIF) USBWakeFromSuspend();
  1701  0002E8  B462               	btfsc	3938,2,c	;volatile
  1702  0002EA  EC35  F006         	call	_USBWakeFromSuspend	;wreg free
  1703                           
  1704                           ;usb_device.c: 485: if(UCONbits.SUSPND == 1) return;
  1705  0002EE  B265               	btfsc	3941,1,c	;volatile
  1706  0002F0  0012               	return	
  1707                           
  1708                           ;usb_device.c: 493: if(UIRbits.URSTIF) USBProtocolResetHandler();
  1709  0002F2  B062               	btfsc	3938,0,c	;volatile
  1710  0002F4  EC4D  F005         	call	_USBProtocolResetHandler	;wreg free
  1711                           
  1712                           ;usb_device.c: 498: if(UIRbits.IDLEIF) USBSuspend();
  1713  0002F8  B862               	btfsc	3938,4,c	;volatile
  1714  0002FA  ECFA  F005         	call	_USBSuspend	;wreg free
  1715                           
  1716                           ;usb_device.c: 515: if(usb_device_state < 3) return;
  1717  0002FE  0E03               	movlw	3
  1718  000300  6041               	cpfslt	_usb_device_state,c
  1719  000302  D001               	goto	l297
  1720  000304  0C03               	retlw	3
  1721  000306                     l297:
  1722                           
  1723                           ;usb_device.c: 520: for(bTRNIFCount = 0; bTRNIFCount < 4; bTRNIFCount++)
  1724  000306  6A3C               	clrf	_bTRNIFCount,c
  1725  000308                     l298:
  1726                           
  1727                           ;usb_device.c: 521: {
  1728                           ;usb_device.c: 522: if(UIRbits.TRNIF)
  1729  000308  A662               	btfss	3938,3,c	;volatile
  1730  00030A  0012               	return	
  1731                           
  1732                           ;usb_device.c: 523: {
  1733                           ;usb_device.c: 525: USTATSave = USTAT;
  1734  00030C  5064               	movf	3940,w,c	;volatile
  1735                           
  1736                           ;usb_device.c: 526: if((USTAT & 0x7C) == ((0x00<<3)|(0<<2)))
  1737  00030E  CF64 F04A          	movff	3940,??_USBDeviceTasks	;volatile
  1738  000312  0E7C               	movlw	124
  1739  000314  164A               	andwf	??_USBDeviceTasks,f,c
  1740  000316  E12A               	bnz	l2959
  1741                           
  1742                           ;usb_device.c: 527: {
  1743                           ;usb_device.c: 529: if(USTATbits.PPBI == 0)
  1744  000318  B264               	btfsc	3940,1,c	;volatile
  1745  00031A  D002               	goto	l2937
  1746                           
  1747                           ;usb_device.c: 530: {
  1748                           ;usb_device.c: 532: pBDTEntry = &ep0BoEven;
  1749  00031C  6A2B               	clrf	USBDeviceTasks@pBDTEntry,c
  1750  00031E  D002               	goto	L2
  1751  000320                     l2937:
  1752                           
  1753                           ;usb_device.c: 534: else
  1754                           ;usb_device.c: 535: {
  1755                           ;usb_device.c: 537: pBDTEntry = &ep0BoOdd;
  1756  000320  0E04               	movlw	4
  1757  000322  6E2B               	movwf	USBDeviceTasks@pBDTEntry,c
  1758  000324                     L2:
  1759  000324  0E0D               	movlw	13
  1760  000326  6E2C               	movwf	USBDeviceTasks@pBDTEntry+1,c
  1761                           
  1762                           ;usb_device.c: 538: }
  1763                           ;usb_device.c: 541: UIRbits.TRNIF = 0;
  1764  000328  9662               	bcf	3938,3,c	;volatile
  1765                           
  1766                           ;usb_device.c: 544: if(pBDTEntry->Stat.PID == 0b00001101)
  1767  00032A  C02B  FFD9         	movff	USBDeviceTasks@pBDTEntry,fsr2l
  1768  00032E  C02C  FFDA         	movff	USBDeviceTasks@pBDTEntry+1,fsr2h
  1769  000332  30DF               	rrcf	indf2,w,c
  1770  000334  32E8               	rrcf	wreg,f,c
  1771  000336  0B0F               	andlw	15
  1772  000338  0A0D               	xorlw	13
  1773  00033A  E120               	bnz	l2965
  1774                           
  1775                           ;usb_device.c: 545: {
  1776                           ;usb_device.c: 548: for(i = 0; i < sizeof(CTRL_TRF_SETUP); i++)
  1777  00033C  6A33               	clrf	USBDeviceTasks@i,c
  1778  00033E                     l2949:
  1779                           
  1780                           ;usb_device.c: 549: {
  1781                           ;usb_device.c: 550: SetupPkt._byte[i] = *pBDTEntry->ADR++;
  1782  00033E  D823               	call	PL18	;call to abstracted procedure
  1783  000340  CFDE F04A          	movff	postinc2,??_USBDeviceTasks
  1784  000344  CFDD F04B          	movff	postdec2,??_USBDeviceTasks+1
  1785  000348  C04A  FFD9         	movff	??_USBDeviceTasks,fsr2l
  1786  00034C  C04B  FFDA         	movff	??_USBDeviceTasks+1,fsr2h
  1787  000350  5033               	movf	USBDeviceTasks@i,w,c
  1788  000352  0F01               	addlw	low _SetupPkt
  1789  000354  D81F               	call	PL38	;call to abstracted procedure
  1790  000356  D817               	call	PL18	;call to abstracted procedure
  1791  000358  2ADE               	incf	postinc2,f,c
  1792  00035A  0E00               	movlw	0
  1793  00035C  22DD               	addwfc	postdec2,f,c
  1794  00035E  2A33               	incf	USBDeviceTasks@i,f,c
  1795  000360  0E07               	movlw	7
  1796  000362  6433               	cpfsgt	USBDeviceTasks@i,c
  1797  000364  D7EC               	goto	l2949
  1798                           
  1799                           ;usb_device.c: 551: }
  1800                           ;usb_device.c: 555: USBCtrlTrfSetupHandler();
  1801  000366  ECA5  F005         	call	_USBCtrlTrfSetupHandler	;wreg free
  1802                           
  1803                           ;usb_device.c: 556: }
  1804  00036A  D008               	goto	l2965
  1805  00036C                     l2959:
  1806                           
  1807                           ;usb_device.c: 563: else if(USTAT == ((0x00<<3)|(1<<2)))
  1808  00036C  0E04               	movlw	4
  1809  00036E  1864               	xorwf	3940,w,c	;volatile
  1810  000370  E104               	bnz	l309
  1811                           
  1812                           ;usb_device.c: 564: {
  1813                           ;usb_device.c: 566: UIRbits.TRNIF = 0;
  1814  000372  9662               	bcf	3938,3,c	;volatile
  1815                           
  1816                           ;usb_device.c: 567: USBCtrlTrfInHandler();
  1817  000374  EC2C  F005         	call	_USBCtrlTrfInHandler	;wreg free
  1818                           
  1819                           ;usb_device.c: 568: }
  1820  000378  D001               	goto	l2965
  1821  00037A                     l309:
  1822                           
  1823                           ;usb_device.c: 569: else
  1824                           ;usb_device.c: 570: {
  1825                           ;usb_device.c: 575: UIRbits.TRNIF = 0;
  1826  00037A  9662               	bcf	3938,3,c	;volatile
  1827  00037C                     l2965:
  1828  00037C  2A3C               	incf	_bTRNIFCount,f,c
  1829  00037E  0E03               	movlw	3
  1830  000380  643C               	cpfsgt	_bTRNIFCount,c
  1831  000382  D7C2               	goto	l298
  1832  000384  0C03               	retlw	3
  1833  000386                     __end_of_USBDeviceTasks:
  1834                           	opt stack 0
  1835  000386                     PL18:
  1836                           	opt stack 24
  1837  000386  EE20 F002          	lfsr	2,2
  1838  00038A  502B               	movf	USBDeviceTasks@pBDTEntry,w,c
  1839  00038C  26D9               	addwf	fsr2l,f,c
  1840  00038E  502C               	movf	USBDeviceTasks@pBDTEntry+1,w,c
  1841  000390  22DA               	addwfc	fsr2h,f,c
  1842  000392  0012               	return	
  1843  000394                     __end_ofPL18:
  1844                           	opt stack 0
  1845  000394                     PL38:
  1846                           	opt stack 28
  1847  000394  6EE1               	movwf	fsr1l,c
  1848  000396  6AE2               	clrf	fsr1h,c
  1849  000398  CFDF FFE7          	movff	indf2,indf1
  1850  00039C  0012               	return	
  1851  00039E                     __end_ofPL38:
  1852                           	opt stack 0
  1853                           stkptr	equ	0xFFC
  1854                           tblptru	equ	0xFF8
  1855                           tblptrh	equ	0xFF7
  1856                           tblptrl	equ	0xFF6
  1857                           tablat	equ	0xFF5
  1858                           prodh	equ	0xFF4
  1859                           prodl	equ	0xFF3
  1860                           intcon	equ	0xFF2
  1861                           wreg	equ	0xFE8
  1862                           indf1	equ	0xFE7
  1863                           fsr1h	equ	0xFE2
  1864                           fsr1l	equ	0xFE1
  1865                           indf2	equ	0xFDF
  1866                           postinc2	equ	0xFDE
  1867                           postdec2	equ	0xFDD
  1868                           plusw2	equ	0xFDB
  1869                           fsr2h	equ	0xFDA
  1870                           fsr2l	equ	0xFD9
  1871                           status	equ	0xFD8
  1872                           
  1873 ;; *************** function _USBWakeFromSuspend *****************
  1874 ;; Defined at:
  1875 ;;		line 701 in file "../src/usb_device.c"
  1876 ;; Parameters:    Size  Location     Type
  1877 ;;		None
  1878 ;; Auto vars:     Size  Location     Type
  1879 ;;		None
  1880 ;; Return value:  Size  Location     Type
  1881 ;;		None               void
  1882 ;; Registers used:
  1883 ;;		wreg, status,2, status,0, cstack
  1884 ;; Tracked objects:
  1885 ;;		On entry : 0/F
  1886 ;;		On exit  : 0/0
  1887 ;;		Unchanged: 0/0
  1888 ;; Data sizes:     COMRAM   BANK0   BANK1   BANK2   BANK3   BANK4   BANK5   BANK6   BANK7   BANK8   BANK9  BANK10  BANK1
      +1  BANK12  BANK13  BANK14
  1889 ;;      Params:         0       0       0       0       0       0       0       0       0       0       0       0       
      +0       0       0       0
  1890 ;;      Locals:         0       0       0       0       0       0       0       0       0       0       0       0       
      +0       0       0       0
  1891 ;;      Temps:          0       0       0       0       0       0       0       0       0       0       0       0       
      +0       0       0       0
  1892 ;;      Totals:         0       0       0       0       0       0       0       0       0       0       0       0       
      +0       0       0       0
  1893 ;;Total ram usage:        0 bytes
  1894 ;; Hardware stack levels used:    1
  1895 ;; Hardware stack levels required when called:    3
  1896 ;; This function calls:
  1897 ;;		_USBCBWakeFromSuspend
  1898 ;; This function is called by:
  1899 ;;		_USBDeviceTasks
  1900 ;; This function uses a non-reentrant model
  1901 ;;
  1902                           
  1903                           	psect	text5
  1904  000C6A                     __ptext5:
  1905                           	opt stack 0
  1906  000C6A                     _USBWakeFromSuspend:
  1907                           	opt stack 25
  1908                           
  1909                           ;usb_device.c: 706: USBCBWakeFromSuspend();
  1910                           
  1911                           ;incstack = 0
  1912  000C6A  EC59  F006         	call	_USBCBWakeFromSuspend	;wreg free
  1913                           
  1914                           ;usb_device.c: 709: UCONbits.SUSPND = 0;
  1915  000C6E  9265               	bcf	3941,1,c	;volatile
  1916                           
  1917                           ;usb_device.c: 710: UIEbits.ACTVIE = 0;
  1918  000C70  010F               	movlb	15	; () banked
  1919  000C72  9536               	bcf	54,2,b	;volatile
  1920                           
  1921                           ;usb_device.c: 711: while(UIRbits.ACTVIF){UIRbits.ACTVIF = 0;}
  1922  000C74  D001               	goto	l319
  1923  000C76                     l320:
  1924  000C76  9462               	bcf	3938,2,c	;volatile
  1925  000C78                     l319:
  1926  000C78  A462               	btfss	3938,2,c	;volatile
  1927  000C7A  0012               	return		;funcret
  1928  000C7C  D7FC               	goto	l320
  1929  000C7E                     __end_of_USBWakeFromSuspend:
  1930                           	opt stack 0
  1931                           stkptr	equ	0xFFC
  1932                           tblptru	equ	0xFF8
  1933                           tblptrh	equ	0xFF7
  1934                           tblptrl	equ	0xFF6
  1935                           tablat	equ	0xFF5
  1936                           prodh	equ	0xFF4
  1937                           prodl	equ	0xFF3
  1938                           intcon	equ	0xFF2
  1939                           wreg	equ	0xFE8
  1940                           indf1	equ	0xFE7
  1941                           fsr1h	equ	0xFE2
  1942                           fsr1l	equ	0xFE1
  1943                           indf2	equ	0xFDF
  1944                           postinc2	equ	0xFDE
  1945                           postdec2	equ	0xFDD
  1946                           plusw2	equ	0xFDB
  1947                           fsr2h	equ	0xFDA
  1948                           fsr2l	equ	0xFD9
  1949                           status	equ	0xFD8
  1950                           
  1951 ;; *************** function _USBCBWakeFromSuspend *****************
  1952 ;; Defined at:
  1953 ;;		line 736 in file "../src/main.c"
  1954 ;; Parameters:    Size  Location     Type
  1955 ;;		None
  1956 ;; Auto vars:     Size  Location     Type
  1957 ;;		None
  1958 ;; Return value:  Size  Location     Type
  1959 ;;		None               void
  1960 ;; Registers used:
  1961 ;;		wreg, status,2, status,0, cstack
  1962 ;; Tracked objects:
  1963 ;;		On entry : 0/F
  1964 ;;		On exit  : 0/0
  1965 ;;		Unchanged: 0/0
  1966 ;; Data sizes:     COMRAM   BANK0   BANK1   BANK2   BANK3   BANK4   BANK5   BANK6   BANK7   BANK8   BANK9  BANK10  BANK1
      +1  BANK12  BANK13  BANK14
  1967 ;;      Params:         0       0       0       0       0       0       0       0       0       0       0       0       
      +0       0       0       0
  1968 ;;      Locals:         0       0       0       0       0       0       0       0       0       0       0       0       
      +0       0       0       0
  1969 ;;      Temps:          0       0       0       0       0       0       0       0       0       0       0       0       
      +0       0       0       0
  1970 ;;      Totals:         0       0       0       0       0       0       0       0       0       0       0       0       
      +0       0       0       0
  1971 ;;Total ram usage:        0 bytes
  1972 ;; Hardware stack levels used:    1
  1973 ;; Hardware stack levels required when called:    2
  1974 ;; This function calls:
  1975 ;;		_DelayRoutine
  1976 ;; This function is called by:
  1977 ;;		_USBWakeFromSuspend
  1978 ;; This function uses a non-reentrant model
  1979 ;;
  1980                           
  1981                           	psect	text6
  1982  000CB2                     __ptext6:
  1983                           	opt stack 0
  1984  000CB2                     _USBCBWakeFromSuspend:
  1985                           	opt stack 0
  1986                           
  1987                           ;main.c: 742: DelayRoutine(0x300);
  1988                           
  1989                           ;incstack = 0
  1990  000CB2  D802               	call	PL48	;call to abstracted procedure
  1991  000CB4  EF45  F006         	goto	l2353	;wreg free
  1992  000CB8                     __end_of_USBCBWakeFromSuspend:
  1993                           	opt stack 0
  1994  000CB8                     PL48:
  1995                           	opt stack 23
  1996  000CB8  0E03               	movlw	3
  1997  000CBA  6E48               	movwf	DelayRoutine@DelayAmount+1,c
  1998  000CBC  6A47               	clrf	DelayRoutine@DelayAmount,c
  1999  000CBE  0C03               	retlw	3
  2000  000CC0                     __end_ofPL48:
  2001                           	opt stack 0
  2002                           stkptr	equ	0xFFC
  2003                           tblptru	equ	0xFF8
  2004                           tblptrh	equ	0xFF7
  2005                           tblptrl	equ	0xFF6
  2006                           tablat	equ	0xFF5
  2007                           prodh	equ	0xFF4
  2008                           prodl	equ	0xFF3
  2009                           intcon	equ	0xFF2
  2010                           wreg	equ	0xFE8
  2011                           indf1	equ	0xFE7
  2012                           fsr1h	equ	0xFE2
  2013                           fsr1l	equ	0xFE1
  2014                           indf2	equ	0xFDF
  2015                           postinc2	equ	0xFDE
  2016                           postdec2	equ	0xFDD
  2017                           plusw2	equ	0xFDB
  2018                           fsr2h	equ	0xFDA
  2019                           fsr2l	equ	0xFD9
  2020                           status	equ	0xFD8
  2021                           
  2022 ;; *************** function _USBSuspend *****************
  2023 ;; Defined at:
  2024 ;;		line 609 in file "../src/usb_device.c"
  2025 ;; Parameters:    Size  Location     Type
  2026 ;;		None
  2027 ;; Auto vars:     Size  Location     Type
  2028 ;;		None
  2029 ;; Return value:  Size  Location     Type
  2030 ;;		None               void
  2031 ;; Registers used:
  2032 ;;		wreg, status,2, status,0, cstack
  2033 ;; Tracked objects:
  2034 ;;		On entry : 0/F
  2035 ;;		On exit  : F/F
  2036 ;;		Unchanged: 0/0
  2037 ;; Data sizes:     COMRAM   BANK0   BANK1   BANK2   BANK3   BANK4   BANK5   BANK6   BANK7   BANK8   BANK9  BANK10  BANK1
      +1  BANK12  BANK13  BANK14
  2038 ;;      Params:         0       0       0       0       0       0       0       0       0       0       0       0       
      +0       0       0       0
  2039 ;;      Locals:         0       0       0       0       0       0       0       0       0       0       0       0       
      +0       0       0       0
  2040 ;;      Temps:          0       0       0       0       0       0       0       0       0       0       0       0       
      +0       0       0       0
  2041 ;;      Totals:         0       0       0       0       0       0       0       0       0       0       0       0       
      +0       0       0       0
  2042 ;;Total ram usage:        0 bytes
  2043 ;; Hardware stack levels used:    1
  2044 ;; Hardware stack levels required when called:    1
  2045 ;; This function calls:
  2046 ;;		_USBCBSuspend
  2047 ;; This function is called by:
  2048 ;;		_USBDeviceTasks
  2049 ;; This function uses a non-reentrant model
  2050 ;;
  2051                           
  2052                           	psect	text7
  2053  000BF4                     __ptext7:
  2054                           	opt stack 0
  2055  000BF4                     _USBSuspend:
  2056                           	opt stack 27
  2057                           
  2058                           ;usb_device.c: 611: static unsigned char UIESave;
  2059                           ;usb_device.c: 646: UIESave = UIE;
  2060                           
  2061                           ;incstack = 0
  2062  000BF4  CF36 F035          	movff	3894,USBSuspend@UIESave	;volatile
  2063                           
  2064                           ;usb_device.c: 647: UIE = 0b00000100;
  2065  000BF8  0E04               	movlw	4
  2066  000BFA  010F               	movlb	15	; () banked
  2067  000BFC  6F36               	movwf	54,b	;volatile
  2068                           
  2069                           ; BSR set to: 15
  2070                           ;usb_device.c: 651: UIRbits.IDLEIF = 0;
  2071  000BFE  9862               	bcf	3938,4,c	;volatile
  2072                           
  2073                           ; BSR set to: 15
  2074                           ;usb_device.c: 652: UCONbits.SUSPND = 1;
  2075  000C00  8265               	bsf	3941,1,c	;volatile
  2076                           
  2077                           ; BSR set to: 15
  2078                           ;usb_device.c: 659: PIR2bits.USBIF = 0;
  2079  000C02  98A1               	bcf	4001,4,c	;volatile
  2080                           
  2081                           ; BSR set to: 15
  2082                           ;usb_device.c: 663: PIE2bits.USBIE = 1;
  2083  000C04  88A0               	bsf	4000,4,c	;volatile
  2084                           
  2085                           ; BSR set to: 15
  2086                           ;usb_device.c: 672: USBCBSuspend();
  2087  000C06  EC2A  F006         	call	_USBCBSuspend	;wreg free
  2088                           
  2089                           ;usb_device.c: 679: PIE2bits.USBIE = 0;
  2090  000C0A  98A0               	bcf	4000,4,c	;volatile
  2091                           
  2092                           ;usb_device.c: 680: UIE |= UIESave;
  2093  000C0C  5035               	movf	USBSuspend@UIESave,w,c
  2094  000C0E  010F               	movlb	15	; () banked
  2095  000C10  1336               	iorwf	54,f,b	;volatile
  2096                           
  2097                           ; BSR set to: 15
  2098  000C12  0012               	return		;funcret
  2099  000C14                     __end_of_USBSuspend:
  2100                           	opt stack 0
  2101                           stkptr	equ	0xFFC
  2102                           tblptru	equ	0xFF8
  2103                           tblptrh	equ	0xFF7
  2104                           tblptrl	equ	0xFF6
  2105                           tablat	equ	0xFF5
  2106                           prodh	equ	0xFF4
  2107                           prodl	equ	0xFF3
  2108                           intcon	equ	0xFF2
  2109                           wreg	equ	0xFE8
  2110                           indf1	equ	0xFE7
  2111                           fsr1h	equ	0xFE2
  2112                           fsr1l	equ	0xFE1
  2113                           indf2	equ	0xFDF
  2114                           postinc2	equ	0xFDE
  2115                           postdec2	equ	0xFDD
  2116                           plusw2	equ	0xFDB
  2117                           fsr2h	equ	0xFDA
  2118                           fsr2l	equ	0xFD9
  2119                           status	equ	0xFD8
  2120                           
  2121 ;; *************** function _USBCBSuspend *****************
  2122 ;; Defined at:
  2123 ;;		line 772 in file "../src/main.c"
  2124 ;; Parameters:    Size  Location     Type
  2125 ;;		None
  2126 ;; Auto vars:     Size  Location     Type
  2127 ;;		None
  2128 ;; Return value:  Size  Location     Type
  2129 ;;		None               void
  2130 ;; Registers used:
  2131 ;;		None
  2132 ;; Tracked objects:
  2133 ;;		On entry : F/F
  2134 ;;		On exit  : 0/0
  2135 ;;		Unchanged: 0/0
  2136 ;; Data sizes:     COMRAM   BANK0   BANK1   BANK2   BANK3   BANK4   BANK5   BANK6   BANK7   BANK8   BANK9  BANK10  BANK1
      +1  BANK12  BANK13  BANK14
  2137 ;;      Params:         0       0       0       0       0       0       0       0       0       0       0       0       
      +0       0       0       0
  2138 ;;      Locals:         0       0       0       0       0       0       0       0       0       0       0       0       
      +0       0       0       0
  2139 ;;      Temps:          0       0       0       0       0       0       0       0       0       0       0       0       
      +0       0       0       0
  2140 ;;      Totals:         0       0       0       0       0       0       0       0       0       0       0       0       
      +0       0       0       0
  2141 ;;Total ram usage:        0 bytes
  2142 ;; Hardware stack levels used:    1
  2143 ;; This function calls:
  2144 ;;		Nothing
  2145 ;; This function is called by:
  2146 ;;		_USBSuspend
  2147 ;; This function uses a non-reentrant model
  2148 ;;
  2149                           
  2150                           	psect	text8
  2151  000C54                     __ptext8:
  2152                           	opt stack 0
  2153  000C54                     _USBCBSuspend:
  2154                           	opt stack 27
  2155                           
  2156                           ; BSR set to: 15
  2157                           ;main.c: 774: static unsigned char OSCCONSave;
  2158                           ;main.c: 778: LATCbits.LATC2 = 0;
  2159                           
  2160                           ; BSR set to: 15
  2161                           ;incstack = 0
  2162  000C54  948B               	bcf	3979,2,c	;volatile
  2163                           
  2164                           ;main.c: 784: OSCCONSave = OSCCON;
  2165  000C56  CFD3 F031          	movff	4051,USBCBSuspend@OSCCONSave	;volatile
  2166  000C5A                     l99:
  2167  000C5A  0003               	sleep		;# 
  2168  000C5C  B8A1               	btfsc	4001,4,c	;volatile
  2169  000C5E  D002               	goto	l102
  2170  000C60  A6D0               	btfss	4048,3,c	;volatile
  2171  000C62  D7FB               	goto	l99
  2172  000C64                     l102:
  2173                           
  2174                           ;main.c: 790: }
  2175                           ;main.c: 793: OSCCON = OSCCONSave;
  2176  000C64  C031  FFD3         	movff	USBCBSuspend@OSCCONSave,4051	;volatile
  2177  000C68  0012               	return		;funcret
  2178  000C6A                     __end_of_USBCBSuspend:
  2179                           	opt stack 0
  2180                           stkptr	equ	0xFFC
  2181                           tblptru	equ	0xFF8
  2182                           tblptrh	equ	0xFF7
  2183                           tblptrl	equ	0xFF6
  2184                           tablat	equ	0xFF5
  2185                           prodh	equ	0xFF4
  2186                           prodl	equ	0xFF3
  2187                           intcon	equ	0xFF2
  2188                           wreg	equ	0xFE8
  2189                           indf1	equ	0xFE7
  2190                           fsr1h	equ	0xFE2
  2191                           fsr1l	equ	0xFE1
  2192                           indf2	equ	0xFDF
  2193                           postinc2	equ	0xFDE
  2194                           postdec2	equ	0xFDD
  2195                           plusw2	equ	0xFDB
  2196                           fsr2h	equ	0xFDA
  2197                           fsr2l	equ	0xFD9
  2198                           status	equ	0xFD8
  2199                           
  2200 ;; *************** function _USBCtrlTrfSetupHandler *****************
  2201 ;; Defined at:
  2202 ;;		line 812 in file "../src/usb_device.c"
  2203 ;; Parameters:    Size  Location     Type
  2204 ;;		None
  2205 ;; Auto vars:     Size  Location     Type
  2206 ;;		None
  2207 ;; Return value:  Size  Location     Type
  2208 ;;		None               void
  2209 ;; Registers used:
  2210 ;;		wreg, fsr1l, fsr1h, fsr2l, fsr2h, status,2, status,0, tblptrl, tblptrh, tblptru, prodl, prodh, cstack
  2211 ;; Tracked objects:
  2212 ;;		On entry : 0/F
  2213 ;;		On exit  : 0/0
  2214 ;;		Unchanged: 0/0
  2215 ;; Data sizes:     COMRAM   BANK0   BANK1   BANK2   BANK3   BANK4   BANK5   BANK6   BANK7   BANK8   BANK9  BANK10  BANK1
      +1  BANK12  BANK13  BANK14
  2216 ;;      Params:         0       0       0       0       0       0       0       0       0       0       0       0       
      +0       0       0       0
  2217 ;;      Locals:         0       0       0       0       0       0       0       0       0       0       0       0       
      +0       0       0       0
  2218 ;;      Temps:          0       0       0       0       0       0       0       0       0       0       0       0       
      +0       0       0       0
  2219 ;;      Totals:         0       0       0       0       0       0       0       0       0       0       0       0       
      +0       0       0       0
  2220 ;;Total ram usage:        0 bytes
  2221 ;; Hardware stack levels used:    1
  2222 ;; Hardware stack levels required when called:    4
  2223 ;; This function calls:
  2224 ;;		_USBCBCheckOtherReq
  2225 ;;		_USBCheckStdRequest
  2226 ;;		_USBCtrlEPServiceComplete
  2227 ;; This function is called by:
  2228 ;;		_USBDeviceTasks
  2229 ;; This function uses a non-reentrant model
  2230 ;;
  2231                           
  2232                           	psect	text9
  2233  000B4A                     __ptext9:
  2234                           	opt stack 0
  2235  000B4A                     _USBCtrlTrfSetupHandler:
  2236                           	opt stack 24
  2237                           
  2238                           ;usb_device.c: 819: ep0Bi.Stat._byte = 0x00;
  2239                           
  2240                           ;incstack = 0
  2241  000B4A  010D               	movlb	13	; () banked
  2242  000B4C  6B08               	clrf	8,b	;volatile
  2243                           
  2244                           ;usb_device.c: 820: short_pkt_status = 0;
  2245  000B4E  6A40               	clrf	_short_pkt_status,c
  2246                           
  2247                           ;usb_device.c: 825: if(ep0BoEven.Stat.UOWN == 1)
  2248  000B50  AF00               	btfss	0,7,b	;volatile
  2249  000B52  D002               	goto	l331
  2250                           
  2251                           ; BSR set to: 13
  2252                           ;usb_device.c: 826: {
  2253                           ;usb_device.c: 827: ep0BoEven.Stat._byte = 0x00;
  2254  000B54  6B00               	clrf	0,b	;volatile
  2255                           
  2256                           ;usb_device.c: 828: EP0OutOddNeedsArmingNext = 0;
  2257  000B56  6A3A               	clrf	_EP0OutOddNeedsArmingNext,c
  2258  000B58                     l331:
  2259                           
  2260                           ; BSR set to: 13
  2261                           ;usb_device.c: 829: }
  2262                           ;usb_device.c: 830: if(ep0BoOdd.Stat.UOWN == 1)
  2263  000B58  AF04               	btfss	4,7,b	;volatile
  2264  000B5A  D003               	goto	l2847
  2265                           
  2266                           ; BSR set to: 13
  2267                           ;usb_device.c: 831: {
  2268                           ;usb_device.c: 832: ep0BoOdd.Stat._byte = 0x00;
  2269  000B5C  6B04               	clrf	4,b	;volatile
  2270                           
  2271                           ; BSR set to: 13
  2272                           ;usb_device.c: 833: EP0OutOddNeedsArmingNext = 1;
  2273  000B5E  0E01               	movlw	1
  2274  000B60  6E3A               	movwf	_EP0OutOddNeedsArmingNext,c
  2275  000B62                     l2847:
  2276                           
  2277                           ; BSR set to: 13
  2278                           ;usb_device.c: 834: }
  2279                           ;usb_device.c: 835: ctrl_trf_state = 0;
  2280  000B62  6A3E               	clrf	_ctrl_trf_state,c
  2281                           
  2282                           ; BSR set to: 13
  2283                           ;usb_device.c: 836: ctrl_trf_session_owner = 0;
  2284  000B64  6A3D               	clrf	_ctrl_trf_session_owner,c
  2285                           
  2286                           ; BSR set to: 13
  2287                           ;usb_device.c: 837: wCount.Val = 0;
  2288  000B66  6A2F               	clrf	_wCount,c
  2289  000B68  6A30               	clrf	_wCount+1,c
  2290                           
  2291                           ; BSR set to: 13
  2292                           ;usb_device.c: 838: UCONbits.PKTDIS = 0;
  2293  000B6A  9865               	bcf	3941,4,c	;volatile
  2294                           
  2295                           ; BSR set to: 13
  2296                           ;usb_device.c: 844: USBCheckStdRequest();
  2297  000B6C  EC71  F003         	call	_USBCheckStdRequest	;wreg free
  2298                           
  2299                           ;usb_device.c: 845: USBCBCheckOtherReq();
  2300  000B70  EC02  F000         	call	_USBCBCheckOtherReq	;wreg free
  2301                           
  2302                           ;usb_device.c: 848: USBCtrlEPServiceComplete();
  2303  000B74  EFD2  F002         	goto	_USBCtrlEPServiceComplete	;wreg free
  2304  000B78                     __end_of_USBCtrlTrfSetupHandler:
  2305                           	opt stack 0
  2306                           stkptr	equ	0xFFC
  2307                           tblptru	equ	0xFF8
  2308                           tblptrh	equ	0xFF7
  2309                           tblptrl	equ	0xFF6
  2310                           tablat	equ	0xFF5
  2311                           prodh	equ	0xFF4
  2312                           prodl	equ	0xFF3
  2313                           intcon	equ	0xFF2
  2314                           wreg	equ	0xFE8
  2315                           indf1	equ	0xFE7
  2316                           fsr1h	equ	0xFE2
  2317                           fsr1l	equ	0xFE1
  2318                           indf2	equ	0xFDF
  2319                           postinc2	equ	0xFDE
  2320                           postdec2	equ	0xFDD
  2321                           plusw2	equ	0xFDB
  2322                           fsr2h	equ	0xFDA
  2323                           fsr2l	equ	0xFD9
  2324                           status	equ	0xFD8
  2325                           
  2326 ;; *************** function _USBCtrlEPServiceComplete *****************
  2327 ;; Defined at:
  2328 ;;		line 1169 in file "../src/usb_device.c"
  2329 ;; Parameters:    Size  Location     Type
  2330 ;;		None
  2331 ;; Auto vars:     Size  Location     Type
  2332 ;;		None
  2333 ;; Return value:  Size  Location     Type
  2334 ;;		None               void
  2335 ;; Registers used:
  2336 ;;		wreg, fsr1l, fsr1h, fsr2l, fsr2h, status,2, status,0, tblptrl, tblptrh, tblptru, cstack
  2337 ;; Tracked objects:
  2338 ;;		On entry : 0/D
  2339 ;;		On exit  : 0/0
  2340 ;;		Unchanged: 0/0
  2341 ;; Data sizes:     COMRAM   BANK0   BANK1   BANK2   BANK3   BANK4   BANK5   BANK6   BANK7   BANK8   BANK9  BANK10  BANK1
      +1  BANK12  BANK13  BANK14
  2342 ;;      Params:         0       0       0       0       0       0       0       0       0       0       0       0       
      +0       0       0       0
  2343 ;;      Locals:         0       0       0       0       0       0       0       0       0       0       0       0       
      +0       0       0       0
  2344 ;;      Temps:          0       0       0       0       0       0       0       0       0       0       0       0       
      +0       0       0       0
  2345 ;;      Totals:         0       0       0       0       0       0       0       0       0       0       0       0       
      +0       0       0       0
  2346 ;;Total ram usage:        0 bytes
  2347 ;; Hardware stack levels used:    1
  2348 ;; Hardware stack levels required when called:    1
  2349 ;; This function calls:
  2350 ;;		_LoadBDTandSetUOWN
  2351 ;;		_USBCtrlTrfTxService
  2352 ;; This function is called by:
  2353 ;;		_USBCtrlTrfSetupHandler
  2354 ;; This function uses a non-reentrant model
  2355 ;;
  2356                           
  2357                           	psect	text10
  2358  0005A4                     __ptext10:
  2359                           	opt stack 0
  2360  0005A4                     _USBCtrlEPServiceComplete:
  2361                           	opt stack 26
  2362                           
  2363                           ;usb_device.c: 1173: if(ctrl_trf_session_owner == 0)
  2364                           
  2365                           ;incstack = 0
  2366  0005A4  503D               	movf	_ctrl_trf_session_owner,w,c
  2367  0005A6  E110               	bnz	l365
  2368                           
  2369                           ;usb_device.c: 1174: {
  2370                           ;usb_device.c: 1178: ep0Bi.Stat._byte = 0x04;
  2371                           
  2372                           ; BSR set to: 13
  2373                           ;usb_device.c: 1179: ep0Bi.Stat._byte |= 0x80;
  2374  0005A8  EC48  F005         	call	PL40	;call to abstracted procedure
  2375                           
  2376                           ; BSR set to: 13
  2377                           ;usb_device.c: 1180: TempBDT.Stat._byte = 0x04;
  2378  0005AC  6E19               	movwf	_TempBDT,c
  2379                           
  2380                           ; BSR set to: 13
  2381                           ;usb_device.c: 1181: if(EP0OutOddNeedsArmingNext == 1)
  2382  0005AE  043A               	decf	_EP0OutOddNeedsArmingNext,w,c
  2383  0005B0  E105               	bnz	l2749
  2384                           
  2385                           ; BSR set to: 13
  2386                           ;usb_device.c: 1182: {
  2387                           ;usb_device.c: 1183: LoadBDTandSetUOWN(1);
  2388  0005B2  0E01               	movlw	1
  2389  0005B4  EC08  F005         	call	_LoadBDTandSetUOWN
  2390                           
  2391                           ;usb_device.c: 1184: EP0OutOddNeedsArmingNext = 0;
  2392  0005B8  6A3A               	clrf	_EP0OutOddNeedsArmingNext,c
  2393                           
  2394                           ;usb_device.c: 1185: }
  2395  0005BA  0012               	return	
  2396  0005BC                     l2749:
  2397                           
  2398                           ; BSR set to: 13
  2399                           ;usb_device.c: 1186: else
  2400                           ;usb_device.c: 1187: {
  2401                           ;usb_device.c: 1188: LoadBDTandSetUOWN(0);
  2402  0005BC  0E00               	movlw	0
  2403  0005BE  EC08  F005         	call	_LoadBDTandSetUOWN
  2404                           
  2405                           ;usb_device.c: 1189: EP0OutOddNeedsArmingNext = 1;
  2406  0005C2  0E01               	movlw	1
  2407  0005C4  6E3A               	movwf	_EP0OutOddNeedsArmingNext,c
  2408  0005C6  0C01               	retlw	1
  2409  0005C8                     l365:
  2410                           
  2411                           ;usb_device.c: 1192: else
  2412                           ;usb_device.c: 1193: {
  2413                           ;usb_device.c: 1194: if(SetupPkt.DataDir == 1)
  2414  0005C8  AE01               	btfss	_SetupPkt,7,c
  2415  0005CA  D01E               	goto	l2773
  2416                           
  2417                           ;usb_device.c: 1195: {
  2418                           ;usb_device.c: 1219: ctrl_trf_state = 1;
  2419  0005CC  0E01               	movlw	1
  2420  0005CE  6E3E               	movwf	_ctrl_trf_state,c
  2421                           
  2422                           ;usb_device.c: 1224: if(SetupPkt.wLength < wCount.Val)
  2423  0005D0  502F               	movf	_wCount,w,c
  2424  0005D2  5C07               	subwf	_SetupPkt+6,w,c
  2425  0005D4  5030               	movf	_wCount+1,w,c
  2426  0005D6  5808               	subwfb	_SetupPkt+7,w,c
  2427  0005D8  E204               	bc	l2759
  2428                           
  2429                           ;usb_device.c: 1225: wCount.Val = SetupPkt.wLength;
  2430  0005DA  C007  F02F         	movff	_SetupPkt+6,_wCount
  2431  0005DE  C008  F030         	movff	_SetupPkt+7,_wCount+1
  2432  0005E2                     l2759:
  2433                           
  2434                           ;usb_device.c: 1229: USBCtrlTrfTxService();
  2435  0005E2  EC23  F003         	call	_USBCtrlTrfTxService	;wreg free
  2436                           
  2437                           ;usb_device.c: 1233: TempBDT.Stat._byte = 0x40 | 0x08;
  2438  0005E6  0E48               	movlw	72
  2439  0005E8  6E19               	movwf	_TempBDT,c
  2440                           
  2441                           ;usb_device.c: 1234: LoadBDTandSetUOWN(1);
  2442  0005EA  0E01               	movlw	1
  2443  0005EC  EC08  F005         	call	_LoadBDTandSetUOWN
  2444                           
  2445                           ;usb_device.c: 1235: LoadBDTandSetUOWN(0);
  2446  0005F0  0E00               	movlw	0
  2447  0005F2  EC08  F005         	call	_LoadBDTandSetUOWN
  2448                           
  2449                           ;usb_device.c: 1240: ep0Bi.ADR = (uint8_t*)&CtrlTrfData;
  2450  0005F6  0E24               	movlw	36
  2451  0005F8  010D               	movlb	13	; () banked
  2452  0005FA  6F0A               	movwf	10,b	;volatile
  2453  0005FC  0E0D               	movlw	13
  2454  0005FE  6F0B               	movwf	11,b	;volatile
  2455                           
  2456                           ; BSR set to: 13
  2457                           ;usb_device.c: 1241: ep0Bi.Stat._byte = 0x40|0x08;
  2458  000600  0E48               	movlw	72
  2459  000602  6F08               	movwf	8,b	;volatile
  2460                           
  2461                           ; BSR set to: 13
  2462                           ;usb_device.c: 1242: ep0Bi.Stat._byte |= 0x80;
  2463  000604  8F08               	bsf	8,7,b	;volatile
  2464                           
  2465                           ;usb_device.c: 1243: }
  2466  000606  0C48               	retlw	72
  2467  000608                     l2773:
  2468                           
  2469                           ;usb_device.c: 1244: else
  2470                           ;usb_device.c: 1245: {
  2471                           ;usb_device.c: 1256: ctrl_trf_state = 2;
  2472  000608  0E02               	movlw	2
  2473  00060A  6E3E               	movwf	_ctrl_trf_state,c
  2474                           
  2475                           ;usb_device.c: 1261: TempBDT.Stat._byte = 0x04;
  2476  00060C  0E04               	movlw	4
  2477  00060E  6E19               	movwf	_TempBDT,c
  2478                           
  2479                           ;usb_device.c: 1263: if(SetupPkt.wLength == 0)
  2480  000610  5007               	movf	_SetupPkt+6,w,c
  2481  000612  1008               	iorwf	_SetupPkt+7,w,c
  2482  000614  E102               	bnz	l2779
  2483                           
  2484                           ;usb_device.c: 1264: {
  2485                           ;usb_device.c: 1265: TempBDT.Stat._byte = 0x40|0x08;
  2486  000616  0E48               	movlw	72
  2487  000618  6E19               	movwf	_TempBDT,c
  2488  00061A                     l2779:
  2489                           
  2490                           ;usb_device.c: 1266: }
  2491                           ;usb_device.c: 1268: if(EP0OutOddNeedsArmingNext == 1)
  2492  00061A  043A               	decf	_EP0OutOddNeedsArmingNext,w,c
  2493  00061C  E105               	bnz	l2785
  2494                           
  2495                           ;usb_device.c: 1269: {
  2496                           ;usb_device.c: 1270: LoadBDTandSetUOWN(1);
  2497  00061E  0E01               	movlw	1
  2498  000620  EC08  F005         	call	_LoadBDTandSetUOWN
  2499                           
  2500                           ;usb_device.c: 1271: EP0OutOddNeedsArmingNext = 0;
  2501  000624  6A3A               	clrf	_EP0OutOddNeedsArmingNext,c
  2502                           
  2503                           ;usb_device.c: 1272: }
  2504  000626  D005               	goto	l2789
  2505  000628                     l2785:
  2506                           
  2507                           ;usb_device.c: 1273: else
  2508                           ;usb_device.c: 1274: {
  2509                           ;usb_device.c: 1275: LoadBDTandSetUOWN(0);
  2510  000628  0E00               	movlw	0
  2511  00062A  EC08  F005         	call	_LoadBDTandSetUOWN
  2512                           
  2513                           ;usb_device.c: 1276: EP0OutOddNeedsArmingNext = 1;
  2514  00062E  0E01               	movlw	1
  2515  000630  6E3A               	movwf	_EP0OutOddNeedsArmingNext,c
  2516  000632                     l2789:
  2517                           
  2518                           ;usb_device.c: 1277: }
  2519                           ;usb_device.c: 1281: if(SetupPkt.wLength == 0)
  2520  000632  5007               	movf	_SetupPkt+6,w,c
  2521  000634  1008               	iorwf	_SetupPkt+7,w,c
  2522  000636  A4D8               	btfss	status,2,c
  2523  000638  0012               	return	
  2524                           
  2525                           ;usb_device.c: 1282: {
  2526                           ;usb_device.c: 1284: ep0Bi.Cnt = 0;
  2527  00063A  010D               	movlb	13	; () banked
  2528  00063C  6B09               	clrf	9,b	;volatile
  2529                           
  2530                           ; BSR set to: 13
  2531                           ;usb_device.c: 1285: ep0Bi.Stat._byte = 0x40|0x08;
  2532  00063E  0E48               	movlw	72
  2533  000640  6F08               	movwf	8,b	;volatile
  2534                           
  2535                           ; BSR set to: 13
  2536                           ;usb_device.c: 1286: ep0Bi.Stat._byte |= 0x80;
  2537  000642  8F08               	bsf	8,7,b	;volatile
  2538  000644  0C48               	retlw	72	;funcret
  2539  000646                     __end_of_USBCtrlEPServiceComplete:
  2540                           	opt stack 0
  2541                           stkptr	equ	0xFFC
  2542                           tblptru	equ	0xFF8
  2543                           tblptrh	equ	0xFF7
  2544                           tblptrl	equ	0xFF6
  2545                           tablat	equ	0xFF5
  2546                           prodh	equ	0xFF4
  2547                           prodl	equ	0xFF3
  2548                           intcon	equ	0xFF2
  2549                           wreg	equ	0xFE8
  2550                           indf1	equ	0xFE7
  2551                           fsr1h	equ	0xFE2
  2552                           fsr1l	equ	0xFE1
  2553                           indf2	equ	0xFDF
  2554                           postinc2	equ	0xFDE
  2555                           postdec2	equ	0xFDD
  2556                           plusw2	equ	0xFDB
  2557                           fsr2h	equ	0xFDA
  2558                           fsr2l	equ	0xFD9
  2559                           status	equ	0xFD8
  2560                           
  2561 ;; *************** function _USBCheckStdRequest *****************
  2562 ;; Defined at:
  2563 ;;		line 1316 in file "../src/usb_device.c"
  2564 ;; Parameters:    Size  Location     Type
  2565 ;;		None
  2566 ;; Auto vars:     Size  Location     Type
  2567 ;;		None
  2568 ;; Return value:  Size  Location     Type
  2569 ;;		None               void
  2570 ;; Registers used:
  2571 ;;		wreg, fsr1l, fsr1h, fsr2l, fsr2h, status,2, status,0, tblptrl, tblptrh, tblptru, prodl, prodh, cstack
  2572 ;; Tracked objects:
  2573 ;;		On entry : F/D
  2574 ;;		On exit  : 0/0
  2575 ;;		Unchanged: 0/0
  2576 ;; Data sizes:     COMRAM   BANK0   BANK1   BANK2   BANK3   BANK4   BANK5   BANK6   BANK7   BANK8   BANK9  BANK10  BANK1
      +1  BANK12  BANK13  BANK14
  2577 ;;      Params:         0       0       0       0       0       0       0       0       0       0       0       0       
      +0       0       0       0
  2578 ;;      Locals:         0       0       0       0       0       0       0       0       0       0       0       0       
      +0       0       0       0
  2579 ;;      Temps:          1       0       0       0       0       0       0       0       0       0       0       0       
      +0       0       0       0
  2580 ;;      Totals:         1       0       0       0       0       0       0       0       0       0       0       0       
      +0       0       0       0
  2581 ;;Total ram usage:        1 bytes
  2582 ;; Hardware stack levels used:    1
  2583 ;; Hardware stack levels required when called:    3
  2584 ;; This function calls:
  2585 ;;		_USBStdFeatureReqHandler
  2586 ;;		_USBStdGetDscHandler
  2587 ;;		_USBStdGetStatusHandler
  2588 ;;		_USBStdSetCfgHandler
  2589 ;; This function is called by:
  2590 ;;		_USBCtrlTrfSetupHandler
  2591 ;; This function uses a non-reentrant model
  2592 ;;
  2593                           
  2594                           	psect	text11
  2595  0006E2                     __ptext11:
  2596                           	opt stack 0
  2597  0006E2                     _USBCheckStdRequest:
  2598                           	opt stack 24
  2599                           
  2600                           ; BSR set to: 13
  2601                           ;usb_device.c: 1318: if(SetupPkt.RequestType != 0x00) return;
  2602                           
  2603                           ;incstack = 0
  2604  0006E2  3801               	swapf	_SetupPkt,w,c
  2605  0006E4  32E8               	rrcf	wreg,f,c
  2606  0006E6  0B03               	andlw	3
  2607  0006E8  E018               	bz	l2733
  2608                           
  2609                           ; BSR set to: 13
  2610  0006EA  0012               	return	
  2611  0006EC                     l2701:
  2612                           
  2613                           ; BSR set to: 13
  2614                           ;usb_device.c: 1323: ctrl_trf_session_owner = 1;
  2615  0006EC  0E01               	movlw	1
  2616  0006EE  6E3D               	movwf	_ctrl_trf_session_owner,c
  2617                           
  2618                           ;usb_device.c: 1324: usb_device_state = 4;
  2619  0006F0  0E04               	movlw	4
  2620  0006F2  6E41               	movwf	_usb_device_state,c
  2621                           
  2622                           ;usb_device.c: 1326: break;
  2623  0006F4  0C04               	retlw	4
  2624  0006F6                     l2707:
  2625                           
  2626                           ; BSR set to: 13
  2627                           ;usb_device.c: 1334: ctrl_trf_session_owner = 1;
  2628  0006F6  0E01               	movlw	1
  2629  0006F8  6E3D               	movwf	_ctrl_trf_session_owner,c
  2630                           
  2631                           ; BSR set to: 13
  2632                           ;usb_device.c: 1335: pSrc.bRam = (uint8_t*)&usb_active_cfg;
  2633  0006FA  0E45               	movlw	low _usb_active_cfg
  2634  0006FC  6E20               	movwf	_pSrc,c
  2635  0006FE                     
  2636                           ; BSR set to: 13
  2637                           ;usb_device.c: 1336: usb_stat.ctrl_trf_mem = 0;
  2638                           
  2639                           ; BSR set to: 13
  2640                           ;usb_device.c: 1338: wCount.v[0] = 1;
  2641                           
  2642                           ;usb_device.c: 1339: break;
  2643  0006FE  EF24  F002         	goto	PL24	;call to abstracted procedure
  2644  000702                     l2719:
  2645                           
  2646                           ; BSR set to: 13
  2647                           ;usb_device.c: 1348: ctrl_trf_session_owner = 1;
  2648                           
  2649                           ; BSR set to: 13
  2650                           ;usb_device.c: 1349: pSrc.bRam = (uint8_t*)&usb_alt_intf+SetupPkt.bIntfID;
  2651  000702  D82C               	call	PL32	;call to abstracted procedure
  2652  000704  6E49               	movwf	??_USBCheckStdRequest& (0+255),c
  2653  000706  C049  F020         	movff	??_USBCheckStdRequest,_pSrc
  2654  00070A  EF24  F002         	goto	PL24
  2655  00070E                     l2727:
  2656                           
  2657                           ; BSR set to: 13
  2658                           ;usb_device.c: 1354: ctrl_trf_session_owner = 1;
  2659                           
  2660                           ; BSR set to: 13
  2661                           ;usb_device.c: 1355: usb_alt_intf[SetupPkt.bIntfID] = SetupPkt.bAltID;
  2662  00070E  D826               	call	PL32	;call to abstracted procedure
  2663  000710  6ED9               	movwf	fsr2l,c
  2664  000712  6ADA               	clrf	fsr2h,c
  2665  000714  C003  FFDF         	movff	_SetupPkt+2,indf2
  2666                           
  2667                           ;usb_device.c: 1356: break;
  2668  000718  0012               	return	
  2669  00071A                     l2733:
  2670                           
  2671                           ; BSR set to: 13
  2672  00071A  5002               	movf	_SetupPkt+1,w,c
  2673                           
  2674                           ; Switch size 1, requested type "space"
  2675                           ; Number of cases is 11, Range of values is 0 to 12
  2676                           ; switch strategies available:
  2677                           ; Name         Instructions Cycles
  2678                           ; simple_byte           34    18 (average)
  2679                           ;	Chosen strategy is simple_byte
  2680  00071C  E102 EFEF  F003    	bz	_USBStdGetStatusHandler
  2681  000722  0A01               	xorlw	1	; case 1
  2682  000724  E102 EF7F  F002    	bz	_USBStdFeatureReqHandler
  2683  00072A  0A02               	xorlw	2	; case 3
  2684  00072C  E102 EF7F  F002    	bz	_USBStdFeatureReqHandler
  2685  000732  0A06               	xorlw	6	; case 5
  2686  000734  E0DB               	bz	l2701
  2687  000736  0A03               	xorlw	3	; case 6
  2688  000738  E102 EFB3  F003    	bz	_USBStdGetDscHandler
  2689  00073E  0A01               	xorlw	1	; case 7
  2690  000740  B4D8               	btfsc	status,2,c
  2691  000742  0012               	return	
  2692  000744  0A0F               	xorlw	15	; case 8
  2693  000746  E0D7               	bz	l2707
  2694  000748  0A01               	xorlw	1	; case 9
  2695  00074A  E102 EFDE  F007    	bz	_USBStdSetCfgHandler
  2696  000750  0A03               	xorlw	3	; case 10
  2697  000752  E0D7               	bz	l2719
  2698  000754  0A01               	xorlw	1	; case 11
  2699  000756  E0DB               	bz	l2727
  2700  000758  0A07               	xorlw	7	; case 12
  2701  00075A  0012               	return	
  2702  00075C                     __end_of_USBCheckStdRequest:
  2703                           	opt stack 0
  2704  00075C                     PL32:
  2705                           	opt stack 24
  2706  00075C  0E01               	movlw	1
  2707  00075E  6E3D               	movwf	_ctrl_trf_session_owner,c
  2708  000760  5005               	movf	_SetupPkt+4,w,c
  2709  000762  0F46               	addlw	low _usb_alt_intf
  2710  000764  0012               	return	
  2711  000766                     __end_ofPL32:
  2712                           	opt stack 0
  2713                           stkptr	equ	0xFFC
  2714                           tblptru	equ	0xFF8
  2715                           tblptrh	equ	0xFF7
  2716                           tblptrl	equ	0xFF6
  2717                           tablat	equ	0xFF5
  2718                           prodh	equ	0xFF4
  2719                           prodl	equ	0xFF3
  2720                           intcon	equ	0xFF2
  2721                           wreg	equ	0xFE8
  2722                           indf1	equ	0xFE7
  2723                           fsr1h	equ	0xFE2
  2724                           fsr1l	equ	0xFE1
  2725                           indf2	equ	0xFDF
  2726                           postinc2	equ	0xFDE
  2727                           postdec2	equ	0xFDD
  2728                           plusw2	equ	0xFDB
  2729                           fsr2h	equ	0xFDA
  2730                           fsr2l	equ	0xFD9
  2731                           status	equ	0xFD8
  2732                           
  2733 ;; *************** function _USBStdSetCfgHandler *****************
  2734 ;; Defined at:
  2735 ;;		line 1431 in file "../src/usb_device.c"
  2736 ;; Parameters:    Size  Location     Type
  2737 ;;		None
  2738 ;; Auto vars:     Size  Location     Type
  2739 ;;		None
  2740 ;; Return value:  Size  Location     Type
  2741 ;;		None               void
  2742 ;; Registers used:
  2743 ;;		wreg, fsr2l, fsr2h, status,2, status,0, cstack
  2744 ;; Tracked objects:
  2745 ;;		On entry : F/D
  2746 ;;		On exit  : 0/0
  2747 ;;		Unchanged: 0/0
  2748 ;; Data sizes:     COMRAM   BANK0   BANK1   BANK2   BANK3   BANK4   BANK5   BANK6   BANK7   BANK8   BANK9  BANK10  BANK1
      +1  BANK12  BANK13  BANK14
  2749 ;;      Params:         0       0       0       0       0       0       0       0       0       0       0       0       
      +0       0       0       0
  2750 ;;      Locals:         0       0       0       0       0       0       0       0       0       0       0       0       
      +0       0       0       0
  2751 ;;      Temps:          0       0       0       0       0       0       0       0       0       0       0       0       
      +0       0       0       0
  2752 ;;      Totals:         0       0       0       0       0       0       0       0       0       0       0       0       
      +0       0       0       0
  2753 ;;Total ram usage:        0 bytes
  2754 ;; Hardware stack levels used:    1
  2755 ;; Hardware stack levels required when called:    2
  2756 ;; This function calls:
  2757 ;;		_USBCBInitEP
  2758 ;; This function is called by:
  2759 ;;		_USBCheckStdRequest
  2760 ;; This function uses a non-reentrant model
  2761 ;;
  2762                           
  2763                           	psect	text12
  2764  000FBC                     __ptext12:
  2765                           	opt stack 0
  2766  000FBC                     _USBStdSetCfgHandler:
  2767                           	opt stack 24
  2768                           
  2769                           ; BSR set to: 13
  2770                           ;usb_device.c: 1433: static unsigned char i;
  2771                           ;usb_device.c: 1435: ctrl_trf_session_owner = 1;
  2772                           
  2773                           ;incstack = 0
  2774  000FBC  0E01               	movlw	1
  2775  000FBE  6E3D               	movwf	_ctrl_trf_session_owner,c
  2776                           
  2777                           ; BSR set to: 13
  2778                           ;usb_device.c: 1437: UEP1=0x00;UEP2=0x00;UEP3=0x00; UEP4=0x00;UEP5=0x00;UEP6=0x00;UEP7=0
      +                          x00;;
  2779  000FC0  010F               	movlb	15	; () banked
  2780                           
  2781                           ; BSR set to: 15
  2782                           
  2783                           ; BSR set to: 15
  2784                           
  2785                           ; BSR set to: 15
  2786                           
  2787                           ; BSR set to: 15
  2788                           
  2789                           ; BSR set to: 15
  2790                           
  2791                           ; BSR set to: 15
  2792  000FC2  D816               	call	PL14	;call to abstracted procedure
  2793                           
  2794                           ; BSR set to: 15
  2795                           ;usb_device.c: 1439: for(i = 0; i < 1; i++)
  2796  000FC4  6A34               	clrf	USBStdSetCfgHandler@i,c
  2797  000FC6                     l2593:
  2798                           
  2799                           ;usb_device.c: 1440: {
  2800                           ;usb_device.c: 1441: usb_alt_intf[i] = 0;
  2801  000FC6  5034               	movf	USBStdSetCfgHandler@i,w,c
  2802  000FC8  0F46               	addlw	low _usb_alt_intf
  2803  000FCA  6ED9               	movwf	fsr2l,c
  2804  000FCC  6ADA               	clrf	fsr2h,c
  2805  000FCE  6ADF               	clrf	indf2,c
  2806  000FD0  2A34               	incf	USBStdSetCfgHandler@i,f,c
  2807  000FD2  5034               	movf	USBStdSetCfgHandler@i,w,c
  2808  000FD4  E0F8               	bz	l2593
  2809                           
  2810                           ;usb_device.c: 1442: }
  2811                           ;usb_device.c: 1445: usb_active_cfg = SetupPkt.bCfgValue;
  2812  000FD6  C003  F045         	movff	_SetupPkt+2,_usb_active_cfg
  2813                           
  2814                           ;usb_device.c: 1452: USBCBInitEP(usb_active_cfg);
  2815  000FDA  5045               	movf	_usb_active_cfg,w,c
  2816  000FDC  EC49  F006         	call	_USBCBInitEP
  2817                           
  2818                           ;usb_device.c: 1454: if(SetupPkt.bCfgValue == 0)
  2819  000FE0  5003               	movf	_SetupPkt+2,w,c
  2820  000FE2  E103               	bnz	l2605
  2821                           
  2822                           ;usb_device.c: 1455: {
  2823                           ;usb_device.c: 1456: usb_device_state = 5;
  2824  000FE4  0E05               	movlw	5
  2825  000FE6  6E41               	movwf	_usb_device_state,c
  2826                           
  2827                           ;usb_device.c: 1457: }
  2828  000FE8  0C05               	retlw	5
  2829  000FEA                     l2605:
  2830                           
  2831                           ;usb_device.c: 1458: else
  2832                           ;usb_device.c: 1459: {
  2833                           ;usb_device.c: 1460: usb_device_state = 6;
  2834  000FEA  0E06               	movlw	6
  2835  000FEC  6E41               	movwf	_usb_device_state,c
  2836  000FEE  0C06               	retlw	6	;funcret
  2837  000FF0                     __end_of_USBStdSetCfgHandler:
  2838                           	opt stack 0
  2839  000FF0                     PL14:
  2840                           	opt stack 26
  2841  000FF0  6B27               	clrf	39,b	;volatile
  2842  000FF2  6B28               	clrf	40,b	;volatile
  2843  000FF4  6B29               	clrf	41,b	;volatile
  2844  000FF6  6B2A               	clrf	42,b	;volatile
  2845  000FF8  6B2B               	clrf	43,b	;volatile
  2846  000FFA  6B2C               	clrf	44,b	;volatile
  2847  000FFC  6B2D               	clrf	45,b	;volatile
  2848  000FFE  0012               	return	
  2849  001000                     __end_ofPL14:
  2850                           	opt stack 0
  2851                           stkptr	equ	0xFFC
  2852                           tblptru	equ	0xFF8
  2853                           tblptrh	equ	0xFF7
  2854                           tblptrl	equ	0xFF6
  2855                           tablat	equ	0xFF5
  2856                           prodh	equ	0xFF4
  2857                           prodl	equ	0xFF3
  2858                           intcon	equ	0xFF2
  2859                           wreg	equ	0xFE8
  2860                           indf1	equ	0xFE7
  2861                           fsr1h	equ	0xFE2
  2862                           fsr1l	equ	0xFE1
  2863                           indf2	equ	0xFDF
  2864                           postinc2	equ	0xFDE
  2865                           postdec2	equ	0xFDD
  2866                           plusw2	equ	0xFDB
  2867                           fsr2h	equ	0xFDA
  2868                           fsr2l	equ	0xFD9
  2869                           status	equ	0xFD8
  2870                           
  2871 ;; *************** function _USBStdGetStatusHandler *****************
  2872 ;; Defined at:
  2873 ;;		line 1480 in file "../src/usb_device.c"
  2874 ;; Parameters:    Size  Location     Type
  2875 ;;		None
  2876 ;; Auto vars:     Size  Location     Type
  2877 ;;		None
  2878 ;; Return value:  Size  Location     Type
  2879 ;;		None               void
  2880 ;; Registers used:
  2881 ;;		wreg, fsr2l, fsr2h, status,2, status,0, prodl, prodh
  2882 ;; Tracked objects:
  2883 ;;		On entry : F/D
  2884 ;;		On exit  : F/D
  2885 ;;		Unchanged: 0/0
  2886 ;; Data sizes:     COMRAM   BANK0   BANK1   BANK2   BANK3   BANK4   BANK5   BANK6   BANK7   BANK8   BANK9  BANK10  BANK1
      +1  BANK12  BANK13  BANK14
  2887 ;;      Params:         0       0       0       0       0       0       0       0       0       0       0       0       
      +0       0       0       0
  2888 ;;      Locals:         0       0       0       0       0       0       0       0       0       0       0       0       
      +0       0       0       0
  2889 ;;      Temps:          2       0       0       0       0       0       0       0       0       0       0       0       
      +0       0       0       0
  2890 ;;      Totals:         2       0       0       0       0       0       0       0       0       0       0       0       
      +0       0       0       0
  2891 ;;Total ram usage:        2 bytes
  2892 ;; Hardware stack levels used:    1
  2893 ;; This function calls:
  2894 ;;		Nothing
  2895 ;; This function is called by:
  2896 ;;		_USBCheckStdRequest
  2897 ;; This function uses a non-reentrant model
  2898 ;;
  2899                           
  2900                           	psect	text13
  2901  0007DE                     __ptext13:
  2902                           	opt stack 0
  2903  0007DE                     _USBStdGetStatusHandler:
  2904                           	opt stack 26
  2905                           
  2906                           ; BSR set to: 13
  2907                           ;usb_device.c: 1482: CtrlTrfData._byte0 = 0;
  2908                           
  2909                           ;incstack = 0
  2910  0007DE  6B24               	clrf	36,b	;volatile
  2911                           
  2912                           ;usb_device.c: 1483: CtrlTrfData._byte1 = 0;
  2913  0007E0  6B25               	clrf	37,b	;volatile
  2914                           
  2915                           ;usb_device.c: 1485: switch(SetupPkt.Recipient)
  2916  0007E2  D023               	goto	l2629
  2917  0007E4                     l2609:
  2918                           
  2919                           ; BSR set to: 13
  2920                           ;usb_device.c: 1488: ctrl_trf_session_owner = 1;
  2921  0007E4  0E01               	movlw	1
  2922  0007E6  6E3D               	movwf	_ctrl_trf_session_owner,c
  2923                           
  2924                           ; BSR set to: 13
  2925                           ;usb_device.c: 1496: if(usb_stat.RemoteWakeup == 1)
  2926                           
  2927                           ;usb_device.c: 1494: if(0 == 1)
  2928  0007E8  B042               	btfsc	_usb_stat,0,c
  2929                           
  2930                           ; BSR set to: 13
  2931                           ;usb_device.c: 1497: CtrlTrfData._byte0|=0b00000010;
  2932  0007EA  8324               	bsf	36,1,b	;volatile
  2933  0007EC  D025               	goto	l2631
  2934  0007EE                     l2617:
  2935                           
  2936                           ; BSR set to: 13
  2937                           ;usb_device.c: 1500: ctrl_trf_session_owner = 1;
  2938  0007EE  0E01               	movlw	1
  2939  0007F0  6E3D               	movwf	_ctrl_trf_session_owner,c
  2940                           
  2941                           ;usb_device.c: 1501: break;
  2942  0007F2  D022               	goto	l2631
  2943  0007F4                     l2619:
  2944                           
  2945                           ; BSR set to: 13
  2946                           ;usb_device.c: 1503: ctrl_trf_session_owner = 1;
  2947                           
  2948                           ; BSR set to: 13
  2949                           ;usb_device.c: 1507: pDst.bRam = (uint8_t*)&ep0BoEven+(SetupPkt.EPNum*8)+(SetupPkt.EPDir
      +                          *4)+4;
  2950  0007F4  ECCC  F002         	call	PL30	;call to abstracted procedure
  2951  0007F8  6A47               	clrf	??_USBStdGetStatusHandler& (0+255),c
  2952  0007FA  0E0D               	movlw	13
  2953  0007FC  6E48               	movwf	(??_USBStdGetStatusHandler+1)& (0+255),c
  2954  0007FE  0E04               	movlw	4
  2955  000800  2647               	addwf	??_USBStdGetStatusHandler,f,c
  2956  000802  0E00               	movlw	0
  2957  000804  2248               	addwfc	??_USBStdGetStatusHandler+1,f,c
  2958  000806  50F3               	movf	prodl,w,c
  2959  000808  2647               	addwf	??_USBStdGetStatusHandler,f,c
  2960  00080A  50F4               	movf	prodh,w,c
  2961  00080C  2248               	addwfc	??_USBStdGetStatusHandler+1,f,c
  2962  00080E  ECC6  F002         	call	PL26	;call to abstracted procedure
  2963  000812  2447               	addwf	??_USBStdGetStatusHandler,w,c
  2964  000814  6E1D               	movwf	_pDst,c
  2965  000816  50F4               	movf	prodh,w,c
  2966  000818  2048               	addwfc	??_USBStdGetStatusHandler+1,w,c
  2967  00081A  6E1E               	movwf	_pDst+1,c
  2968                           
  2969                           ; BSR set to: 13
  2970                           ;usb_device.c: 1508: if(*pDst.bRam & 0x04)
  2971  00081C  ECC1  F002         	call	PL2	;call to abstracted procedure
  2972  000820  A4DF               	btfss	indf2,2,c
  2973  000822  D00A               	goto	l2631
  2974                           
  2975                           ; BSR set to: 13
  2976                           ;usb_device.c: 1509: CtrlTrfData._byte0=0x01;
  2977  000824  0E01               	movlw	1
  2978  000826  6F24               	movwf	36,b	;volatile
  2979  000828  D007               	goto	l2631
  2980  00082A                     l2629:
  2981                           
  2982                           ; BSR set to: 13
  2983  00082A  5001               	movf	_SetupPkt,w,c
  2984  00082C  0B1F               	andlw	31
  2985                           
  2986                           ; Switch size 1, requested type "space"
  2987                           ; Number of cases is 3, Range of values is 0 to 2
  2988                           ; switch strategies available:
  2989                           ; Name         Instructions Cycles
  2990                           ; simple_byte           10     6 (average)
  2991                           ;	Chosen strategy is simple_byte
  2992  00082E  E0DA               	bz	l2609
  2993  000830  0A01               	xorlw	1	; case 1
  2994  000832  E0DD               	bz	l2617
  2995  000834  0A03               	xorlw	3	; case 2
  2996  000836  E0DE               	bz	l2619
  2997  000838                     l2631:
  2998                           
  2999                           ; BSR set to: 13
  3000                           ;usb_device.c: 1513: if(ctrl_trf_session_owner == 1)
  3001  000838  043D               	decf	_ctrl_trf_session_owner,w,c
  3002  00083A  A4D8               	btfss	status,2,c
  3003  00083C  0012               	return	
  3004                           
  3005                           ; BSR set to: 13
  3006                           ;usb_device.c: 1514: {
  3007                           ;usb_device.c: 1515: pSrc.bRam = (uint8_t*)&CtrlTrfData;
  3008  00083E  0E24               	movlw	36
  3009  000840  6E20               	movwf	_pSrc,c
  3010  000842  0E0D               	movlw	13
  3011  000844  6E21               	movwf	_pSrc+1,c
  3012                           
  3013                           ; BSR set to: 13
  3014                           ;usb_device.c: 1516: usb_stat.ctrl_trf_mem = 0;
  3015  000846  9242               	bcf	_usb_stat,1,c
  3016                           
  3017                           ; BSR set to: 13
  3018                           ;usb_device.c: 1517: wCount.v[0] = 2;
  3019  000848  0E02               	movlw	2
  3020  00084A  6E2F               	movwf	_wCount,c
  3021                           
  3022                           ; BSR set to: 13
  3023  00084C  0C02               	retlw	2	;funcret
  3024  00084E                     __end_of_USBStdGetStatusHandler:
  3025                           	opt stack 0
  3026                           stkptr	equ	0xFFC
  3027                           tblptru	equ	0xFF8
  3028                           tblptrh	equ	0xFF7
  3029                           tblptrl	equ	0xFF6
  3030                           tablat	equ	0xFF5
  3031                           prodh	equ	0xFF4
  3032                           prodl	equ	0xFF3
  3033                           intcon	equ	0xFF2
  3034                           wreg	equ	0xFE8
  3035                           indf1	equ	0xFE7
  3036                           fsr1h	equ	0xFE2
  3037                           fsr1l	equ	0xFE1
  3038                           indf2	equ	0xFDF
  3039                           postinc2	equ	0xFDE
  3040                           postdec2	equ	0xFDD
  3041                           plusw2	equ	0xFDB
  3042                           fsr2h	equ	0xFDA
  3043                           fsr2l	equ	0xFD9
  3044                           status	equ	0xFD8
  3045                           
  3046 ;; *************** function _USBStdGetDscHandler *****************
  3047 ;; Defined at:
  3048 ;;		line 1383 in file "../src/usb_device.c"
  3049 ;; Parameters:    Size  Location     Type
  3050 ;;		None
  3051 ;; Auto vars:     Size  Location     Type
  3052 ;;		None
  3053 ;; Return value:  Size  Location     Type
  3054 ;;		None               void
  3055 ;; Registers used:
  3056 ;;		wreg, fsr1l, fsr1h, status,2, status,0, tblptrl, tblptrh, tblptru
  3057 ;; Tracked objects:
  3058 ;;		On entry : F/D
  3059 ;;		On exit  : 0/0
  3060 ;;		Unchanged: 0/0
  3061 ;; Data sizes:     COMRAM   BANK0   BANK1   BANK2   BANK3   BANK4   BANK5   BANK6   BANK7   BANK8   BANK9  BANK10  BANK1
      +1  BANK12  BANK13  BANK14
  3062 ;;      Params:         0       0       0       0       0       0       0       0       0       0       0       0       
      +0       0       0       0
  3063 ;;      Locals:         0       0       0       0       0       0       0       0       0       0       0       0       
      +0       0       0       0
  3064 ;;      Temps:          1       0       0       0       0       0       0       0       0       0       0       0       
      +0       0       0       0
  3065 ;;      Totals:         1       0       0       0       0       0       0       0       0       0       0       0       
      +0       0       0       0
  3066 ;;Total ram usage:        1 bytes
  3067 ;; Hardware stack levels used:    1
  3068 ;; This function calls:
  3069 ;;		Nothing
  3070 ;; This function is called by:
  3071 ;;		_USBCheckStdRequest
  3072 ;; This function uses a non-reentrant model
  3073 ;;
  3074                           
  3075                           	psect	text14
  3076  000766                     __ptext14:
  3077                           	opt stack 0
  3078  000766                     _USBStdGetDscHandler:
  3079                           	opt stack 26
  3080                           
  3081                           ; BSR set to: 13
  3082                           ;usb_device.c: 1385: if(SetupPkt.bmRequestType == 0x80)
  3083                           
  3084                           ; BSR set to: 13
  3085                           ;incstack = 0
  3086  000766  0E80               	movlw	128
  3087  000768  1801               	xorwf	_SetupPkt,w,c
  3088  00076A  E030               	bz	l2571
  3089  00076C  0012               	return	
  3090  00076E                     l2549:
  3091                           
  3092                           ; BSR set to: 13
  3093                           ;usb_device.c: 1390: ctrl_trf_session_owner = 1;
  3094  00076E  0E01               	movlw	1
  3095  000770  6E3D               	movwf	_ctrl_trf_session_owner,c
  3096                           
  3097                           ; BSR set to: 13
  3098                           ;usb_device.c: 1391: pSrc.bRom = (const uint8_t*)&device_dsc;
  3099  000772  0EA4               	movlw	low _device_dsc
  3100  000774  EC1E  F002         	call	PL4	;call to abstracted procedure
  3101                           
  3102                           ; BSR set to: 13
  3103                           ;usb_device.c: 1392: wCount.v[0] = sizeof(device_dsc);
  3104  000778  0E12               	movlw	18
  3105  00077A  D009               	goto	L4
  3106  00077C                     l2555:
  3107                           
  3108                           ; BSR set to: 13
  3109                           ;usb_device.c: 1396: if(SetupPkt.bDscIndex < 1)
  3110  00077C  5003               	movf	_SetupPkt+2,w,c
  3111  00077E  E12D               	bnz	l400
  3112                           
  3113                           ; BSR set to: 13
  3114                           ;usb_device.c: 1397: {
  3115                           ;usb_device.c: 1398: ctrl_trf_session_owner = 1;
  3116  000780  0E01               	movlw	1
  3117  000782  6E3D               	movwf	_ctrl_trf_session_owner,c
  3118                           
  3119                           ; BSR set to: 13
  3120                           ;usb_device.c: 1399: pSrc.bRom = (const BYTE*)&CFG01;
  3121  000784  0E38               	movlw	low _CFG01
  3122  000786  EC1E  F002         	call	PL4	;call to abstracted procedure
  3123                           
  3124                           ; BSR set to: 13
  3125                           ;usb_device.c: 1400: wCount.Val = sizeof(CFG01);
  3126  00078A  6A30               	clrf	_wCount+1,c
  3127  00078C  0E29               	movlw	41
  3128  00078E                     L4:
  3129  00078E  6E2F               	movwf	_wCount,c
  3130  000790  D024               	goto	l400
  3131  000792                     l2563:
  3132                           
  3133                           ; BSR set to: 13
  3134                           ;usb_device.c: 1404: ctrl_trf_session_owner = 1;
  3135  000792  0E01               	movlw	1
  3136  000794  6E3D               	movwf	_ctrl_trf_session_owner,c
  3137                           
  3138                           ; BSR set to: 13
  3139                           ;usb_device.c: 1405: pSrc.bRom = *(USB_SD_Ptr+SetupPkt.bDscIndex);
  3140  000796  5003               	movf	_SetupPkt+2,w,c
  3141  000798  0F01               	addlw	low _USB_SD_Ptr
  3142  00079A  6E47               	movwf	??_USBStdGetDscHandler& (0+255),c
  3143  00079C  C047  FFF6         	movff	??_USBStdGetDscHandler,tblptrl
  3144  0007A0                     	if	1	;There is more than 1 active tblptr byte
  3145  0007A0  0E0F               	movlw	high __smallconst
  3146  0007A2  6EF7               	movwf	tblptrh,c
  3147  0007A4                     	endif
  3148  0007A4                     	if	0	;tblptru may be non-zero
  3149  0007A4                     	endif
  3150  0007A4                     	if	1	;Program memory is > 0xFFFF, there are 3 active tblptr bytes
  3151  0007A4  0E00               	movlw	low (__smallconst shr (0+16))
  3152  0007A6  6EF8               	movwf	tblptru,c
  3153  0007A8                     	endif
  3154  0007A8  0009               	tblrd		*+
  3155  0007AA  CFF5 F020          	movff	tablat,_pSrc
  3156  0007AE  0E0F               	movlw	high __smallconst
  3157  0007B0  6E21               	movwf	_pSrc+1,c
  3158                           
  3159                           ; BSR set to: 13
  3160                           ;usb_device.c: 1406: wCount.Val = *pSrc.bRom;
  3161  0007B2  EC5D  F003         	call	PL6	;call to abstracted procedure
  3162  0007B6  0E0E               	movlw	(high __ramtop+-1)
  3163  0007B8  64F7               	cpfsgt	tblptrh,c
  3164  0007BA  D003               	bra	u1377
  3165  0007BC  0008               	tblrd		*
  3166  0007BE  50F5               	movf	tablat,w,c
  3167  0007C0  D002               	bra	u1370
  3168  0007C2                     u1377:
  3169  0007C2  EC64  F003         	call	PL10	;call to abstracted procedure
  3170  0007C6                     u1370:
  3171  0007C6  6E2F               	movwf	_wCount,c
  3172  0007C8  6A30               	clrf	_wCount+1,c
  3173                           
  3174                           ;usb_device.c: 1407: break;
  3175  0007CA  D007               	goto	l400
  3176  0007CC                     l2571:
  3177                           
  3178                           ; BSR set to: 13
  3179  0007CC  5004               	movf	_SetupPkt+3,w,c
  3180                           
  3181                           ; Switch size 1, requested type "space"
  3182                           ; Number of cases is 3, Range of values is 1 to 3
  3183                           ; switch strategies available:
  3184                           ; Name         Instructions Cycles
  3185                           ; simple_byte           10     6 (average)
  3186                           ;	Chosen strategy is simple_byte
  3187  0007CE  0A01               	xorlw	1	; case 1
  3188  0007D0  E0CE               	bz	l2549
  3189  0007D2  0A03               	xorlw	3	; case 2
  3190  0007D4  E0D3               	bz	l2555
  3191  0007D6  0A01               	xorlw	1	; case 3
  3192  0007D8  E0DC               	bz	l2563
  3193  0007DA                     l400:
  3194                           
  3195                           ;usb_device.c: 1410: usb_stat.ctrl_trf_mem = 1;
  3196  0007DA  8242               	bsf	_usb_stat,1,c
  3197  0007DC  0012               	return		;funcret
  3198  0007DE                     __end_of_USBStdGetDscHandler:
  3199                           	opt stack 0
  3200                           stkptr	equ	0xFFC
  3201                           tblptru	equ	0xFF8
  3202                           tblptrh	equ	0xFF7
  3203                           tblptrl	equ	0xFF6
  3204                           tablat	equ	0xFF5
  3205                           prodh	equ	0xFF4
  3206                           prodl	equ	0xFF3
  3207                           intcon	equ	0xFF2
  3208                           wreg	equ	0xFE8
  3209                           indf1	equ	0xFE7
  3210                           fsr1h	equ	0xFE2
  3211                           fsr1l	equ	0xFE1
  3212                           indf2	equ	0xFDF
  3213                           postinc2	equ	0xFDE
  3214                           postdec2	equ	0xFDD
  3215                           plusw2	equ	0xFDB
  3216                           fsr2h	equ	0xFDA
  3217                           fsr2l	equ	0xFD9
  3218                           status	equ	0xFD8
  3219                           
  3220 ;; *************** function _USBStdFeatureReqHandler *****************
  3221 ;; Defined at:
  3222 ;;		line 1538 in file "../src/usb_device.c"
  3223 ;; Parameters:    Size  Location     Type
  3224 ;;		None
  3225 ;; Auto vars:     Size  Location     Type
  3226 ;;		None
  3227 ;; Return value:  Size  Location     Type
  3228 ;;		None               void
  3229 ;; Registers used:
  3230 ;;		wreg, fsr2l, fsr2h, status,2, status,0, prodl, prodh
  3231 ;; Tracked objects:
  3232 ;;		On entry : F/D
  3233 ;;		On exit  : F/D
  3234 ;;		Unchanged: E/0
  3235 ;; Data sizes:     COMRAM   BANK0   BANK1   BANK2   BANK3   BANK4   BANK5   BANK6   BANK7   BANK8   BANK9  BANK10  BANK1
      +1  BANK12  BANK13  BANK14
  3236 ;;      Params:         0       0       0       0       0       0       0       0       0       0       0       0       
      +0       0       0       0
  3237 ;;      Locals:         0       0       0       0       0       0       0       0       0       0       0       0       
      +0       0       0       0
  3238 ;;      Temps:          2       0       0       0       0       0       0       0       0       0       0       0       
      +0       0       0       0
  3239 ;;      Totals:         2       0       0       0       0       0       0       0       0       0       0       0       
      +0       0       0       0
  3240 ;;Total ram usage:        2 bytes
  3241 ;; Hardware stack levels used:    1
  3242 ;; This function calls:
  3243 ;;		Nothing
  3244 ;; This function is called by:
  3245 ;;		_USBCheckStdRequest
  3246 ;; This function uses a non-reentrant model
  3247 ;;
  3248                           
  3249                           	psect	text15
  3250  0004FE                     __ptext15:
  3251                           	opt stack 0
  3252  0004FE                     _USBStdFeatureReqHandler:
  3253                           	opt stack 26
  3254                           
  3255                           ; BSR set to: 13
  3256                           ;usb_device.c: 1541: if((SetupPkt.bFeature == 0x01)&&(SetupPkt.Recipient == 0))
  3257                           
  3258                           ;incstack = 0
  3259  0004FE  0403               	decf	_SetupPkt+2,w,c
  3260  000500  E10B               	bnz	l2649
  3261                           
  3262                           ; BSR set to: 13
  3263  000502  5001               	movf	_SetupPkt,w,c
  3264  000504  0B1F               	andlw	31
  3265  000506  E108               	bnz	l2649
  3266                           
  3267                           ; BSR set to: 13
  3268                           ;usb_device.c: 1542: {
  3269                           ;usb_device.c: 1543: ctrl_trf_session_owner = 1;
  3270  000508  0E01               	movlw	1
  3271  00050A  6E3D               	movwf	_ctrl_trf_session_owner,c
  3272                           
  3273                           ; BSR set to: 13
  3274                           ;usb_device.c: 1544: if(SetupPkt.bRequest == 3)
  3275  00050C  0E03               	movlw	3
  3276  00050E  1802               	xorwf	_SetupPkt+1,w,c
  3277  000510  E102               	bnz	l429
  3278                           
  3279                           ; BSR set to: 13
  3280                           ;usb_device.c: 1545: usb_stat.RemoteWakeup = 1;
  3281  000512  8042               	bsf	_usb_stat,0,c
  3282  000514  D001               	goto	l2649
  3283  000516                     l429:
  3284                           
  3285                           ; BSR set to: 13
  3286                           ;usb_device.c: 1546: else
  3287                           ;usb_device.c: 1547: usb_stat.RemoteWakeup = 0;
  3288  000516  9042               	bcf	_usb_stat,0,c
  3289  000518                     l2649:
  3290                           
  3291                           ; BSR set to: 13
  3292                           ;usb_device.c: 1548: }
  3293                           ;usb_device.c: 1551: if((SetupPkt.bFeature == 0x00)&&(SetupPkt.Recipient == 2)&&(SetupPk
      +                          t.EPNum != 0))
  3294  000518  5003               	movf	_SetupPkt+2,w,c
  3295  00051A  A4D8               	btfss	status,2,c
  3296  00051C  0012               	return	
  3297                           
  3298                           ; BSR set to: 13
  3299  00051E  5001               	movf	_SetupPkt,w,c
  3300  000520  0B1F               	andlw	31
  3301  000522  0A02               	xorlw	2
  3302  000524  A4D8               	btfss	status,2,c
  3303  000526  0012               	return	
  3304                           
  3305                           ; BSR set to: 13
  3306  000528  5005               	movf	_SetupPkt+4,w,c
  3307  00052A  0B0F               	andlw	15
  3308  00052C  B4D8               	btfsc	status,2,c
  3309  00052E  0012               	return	
  3310                           
  3311                           ; BSR set to: 13
  3312                           ;usb_device.c: 1552: {
  3313                           ;usb_device.c: 1553: ctrl_trf_session_owner = 1;
  3314                           
  3315                           ; BSR set to: 13
  3316                           ;usb_device.c: 1555: pDst.bRam = (uint8_t*)&ep0BoEven+(SetupPkt.EPNum*8)+(SetupPkt.EPDir
      +                          *4)+4;
  3317  000530  D833               	call	PL30	;call to abstracted procedure
  3318  000532  6A47               	clrf	??_USBStdFeatureReqHandler& (0+255),c
  3319  000534  0E0D               	movlw	13
  3320  000536  6E48               	movwf	(??_USBStdFeatureReqHandler+1)& (0+255),c
  3321  000538  0E04               	movlw	4
  3322  00053A  2647               	addwf	??_USBStdFeatureReqHandler,f,c
  3323  00053C  0E00               	movlw	0
  3324  00053E  2248               	addwfc	??_USBStdFeatureReqHandler+1,f,c
  3325  000540  50F3               	movf	prodl,w,c
  3326  000542  2647               	addwf	??_USBStdFeatureReqHandler,f,c
  3327  000544  50F4               	movf	prodh,w,c
  3328  000546  2248               	addwfc	??_USBStdFeatureReqHandler+1,f,c
  3329  000548  D821               	call	PL26	;call to abstracted procedure
  3330  00054A  2447               	addwf	??_USBStdFeatureReqHandler,w,c
  3331  00054C  6E1D               	movwf	_pDst,c
  3332  00054E  50F4               	movf	prodh,w,c
  3333  000550  2048               	addwfc	??_USBStdFeatureReqHandler+1,w,c
  3334  000552  6E1E               	movwf	_pDst+1,c
  3335                           
  3336                           ; BSR set to: 13
  3337                           ;usb_device.c: 1557: if(SetupPkt.bRequest == 3)
  3338  000554  0E03               	movlw	3
  3339  000556  1802               	xorwf	_SetupPkt+1,w,c
  3340  000558  E107               	bnz	l432
  3341                           
  3342                           ; BSR set to: 13
  3343                           ;usb_device.c: 1558: {
  3344                           ;usb_device.c: 1559: *pDst.bRam = 0x04;
  3345  00055A  D813               	call	PL2	;call to abstracted procedure
  3346  00055C  0E04               	movlw	4
  3347  00055E  6EDF               	movwf	indf2,c
  3348                           
  3349                           ; BSR set to: 13
  3350                           ;usb_device.c: 1560: *pDst.bRam |= 0x80;
  3351  000560  D810               	call	PL2	;call to abstracted procedure
  3352  000562  0E00               	movlw	0
  3353  000564  8EDB               	bsf	plusw2,7,c
  3354                           
  3355                           ;usb_device.c: 1561: }
  3356  000566  0C00               	retlw	0
  3357  000568                     l432:
  3358                           
  3359                           ; BSR set to: 13
  3360                           ;usb_device.c: 1562: else
  3361                           ;usb_device.c: 1563: {
  3362                           ;usb_device.c: 1564: if(SetupPkt.EPDir == 1)
  3363  000568  AE05               	btfss	_SetupPkt+4,7,c
  3364  00056A  D004               	goto	l2667
  3365                           
  3366                           ; BSR set to: 13
  3367                           ;usb_device.c: 1565: *pDst.bRam = 0x00|0x40;
  3368  00056C  D80A               	call	PL2	;call to abstracted procedure
  3369  00056E  0E40               	movlw	64
  3370  000570  6EDF               	movwf	indf2,c
  3371  000572  0C40               	retlw	64
  3372  000574                     l2667:
  3373                           
  3374                           ; BSR set to: 13
  3375                           ;usb_device.c: 1566: else
  3376                           ;usb_device.c: 1567: {
  3377                           ;usb_device.c: 1568: *pDst.bRam = 0x00|0x08;
  3378  000574  D806               	call	PL2	;call to abstracted procedure
  3379  000576  0E08               	movlw	8
  3380  000578  6EDF               	movwf	indf2,c
  3381                           
  3382                           ; BSR set to: 13
  3383                           ;usb_device.c: 1569: *pDst.bRam |= 0x80;
  3384  00057A  D803               	call	PL2	;call to abstracted procedure
  3385  00057C  0E00               	movlw	0
  3386  00057E  8EDB               	bsf	plusw2,7,c
  3387                           
  3388                           ; BSR set to: 13
  3389  000580  0C00               	retlw	0	;funcret
  3390  000582                     __end_of_USBStdFeatureReqHandler:
  3391                           	opt stack 0
  3392  000582                     PL2:
  3393                           	opt stack 26
  3394  000582  C01D  FFD9         	movff	_pDst,fsr2l
  3395  000586  C01E  FFDA         	movff	_pDst+1,fsr2h
  3396  00058A  0012               	return	
  3397  00058C                     __end_ofPL2:
  3398                           	opt stack 0
  3399  00058C                     PL26:
  3400                           	opt stack 26
  3401  00058C  0E01               	movlw	1
  3402  00058E  AE05               	btfss	_SetupPkt+4,7,c
  3403  000590  0E00               	movlw	0
  3404  000592  0D04               	mullw	4
  3405  000594  50F3               	movf	prodl,w,c
  3406  000596  0012               	return	
  3407  000598                     __end_ofPL26:
  3408                           	opt stack 0
  3409  000598                     PL30:
  3410                           	opt stack 26
  3411  000598  0E01               	movlw	1
  3412  00059A  6E3D               	movwf	_ctrl_trf_session_owner,c
  3413  00059C  5005               	movf	_SetupPkt+4,w,c
  3414  00059E  0B0F               	andlw	15
  3415  0005A0  0D08               	mullw	8
  3416  0005A2  0012               	return	
  3417  0005A4                     __end_ofPL30:
  3418                           	opt stack 0
  3419                           stkptr	equ	0xFFC
  3420                           tblptru	equ	0xFF8
  3421                           tblptrh	equ	0xFF7
  3422                           tblptrl	equ	0xFF6
  3423                           tablat	equ	0xFF5
  3424                           prodh	equ	0xFF4
  3425                           prodl	equ	0xFF3
  3426                           intcon	equ	0xFF2
  3427                           wreg	equ	0xFE8
  3428                           indf1	equ	0xFE7
  3429                           fsr1h	equ	0xFE2
  3430                           fsr1l	equ	0xFE1
  3431                           indf2	equ	0xFDF
  3432                           postinc2	equ	0xFDE
  3433                           postdec2	equ	0xFDD
  3434                           plusw2	equ	0xFDB
  3435                           fsr2h	equ	0xFDA
  3436                           fsr2l	equ	0xFD9
  3437                           status	equ	0xFD8
  3438                           
  3439 ;; *************** function _USBCBCheckOtherReq *****************
  3440 ;; Defined at:
  3441 ;;		line 881 in file "../src/main.c"
  3442 ;; Parameters:    Size  Location     Type
  3443 ;;		None
  3444 ;; Auto vars:     Size  Location     Type
  3445 ;;		None
  3446 ;; Return value:  Size  Location     Type
  3447 ;;		None               void
  3448 ;; Registers used:
  3449 ;;		wreg, status,2, status,0, cstack
  3450 ;; Tracked objects:
  3451 ;;		On entry : 0/D
  3452 ;;		On exit  : 0/0
  3453 ;;		Unchanged: 0/0
  3454 ;; Data sizes:     COMRAM   BANK0   BANK1   BANK2   BANK3   BANK4   BANK5   BANK6   BANK7   BANK8   BANK9  BANK10  BANK1
      +1  BANK12  BANK13  BANK14
  3455 ;;      Params:         0       0       0       0       0       0       0       0       0       0       0       0       
      +0       0       0       0
  3456 ;;      Locals:         0       0       0       0       0       0       0       0       0       0       0       0       
      +0       0       0       0
  3457 ;;      Temps:          0       0       0       0       0       0       0       0       0       0       0       0       
      +0       0       0       0
  3458 ;;      Totals:         0       0       0       0       0       0       0       0       0       0       0       0       
      +0       0       0       0
  3459 ;;Total ram usage:        0 bytes
  3460 ;; Hardware stack levels used:    1
  3461 ;; Hardware stack levels required when called:    2
  3462 ;; This function calls:
  3463 ;;		_USBCheckHIDRequest
  3464 ;; This function is called by:
  3465 ;;		_USBCtrlTrfSetupHandler
  3466 ;; This function uses a non-reentrant model
  3467 ;;
  3468                           
  3469                           	psect	text16
  3470  000004                     __ptext16:
  3471                           	opt stack 0
  3472  000004                     _USBCBCheckOtherReq:
  3473                           	opt stack 25
  3474                           
  3475                           ;main.c: 883: USBCheckHIDRequest();
  3476                           
  3477                           ; BSR set to: 13
  3478                           ;incstack = 0
  3479  000004  EFCF  F001         	goto	_USBCheckHIDRequest	;wreg free
  3480  000008                     __end_of_USBCBCheckOtherReq:
  3481                           	opt stack 0
  3482                           stkptr	equ	0xFFC
  3483                           tblptru	equ	0xFF8
  3484                           tblptrh	equ	0xFF7
  3485                           tblptrl	equ	0xFF6
  3486                           tablat	equ	0xFF5
  3487                           prodh	equ	0xFF4
  3488                           prodl	equ	0xFF3
  3489                           intcon	equ	0xFF2
  3490                           wreg	equ	0xFE8
  3491                           indf1	equ	0xFE7
  3492                           fsr1h	equ	0xFE2
  3493                           fsr1l	equ	0xFE1
  3494                           indf2	equ	0xFDF
  3495                           postinc2	equ	0xFDE
  3496                           postdec2	equ	0xFDD
  3497                           plusw2	equ	0xFDB
  3498                           fsr2h	equ	0xFDA
  3499                           fsr2l	equ	0xFD9
  3500                           status	equ	0xFD8
  3501                           
  3502 ;; *************** function _USBCheckHIDRequest *****************
  3503 ;; Defined at:
  3504 ;;		line 73 in file "../src/usb_device_hid.c"
  3505 ;; Parameters:    Size  Location     Type
  3506 ;;		None
  3507 ;; Auto vars:     Size  Location     Type
  3508 ;;		None
  3509 ;; Return value:  Size  Location     Type
  3510 ;;		None               void
  3511 ;; Registers used:
  3512 ;;		wreg, status,2, status,0, cstack
  3513 ;; Tracked objects:
  3514 ;;		On entry : 0/D
  3515 ;;		On exit  : 0/0
  3516 ;;		Unchanged: 0/0
  3517 ;; Data sizes:     COMRAM   BANK0   BANK1   BANK2   BANK3   BANK4   BANK5   BANK6   BANK7   BANK8   BANK9  BANK10  BANK1
      +1  BANK12  BANK13  BANK14
  3518 ;;      Params:         0       0       0       0       0       0       0       0       0       0       0       0       
      +0       0       0       0
  3519 ;;      Locals:         0       0       0       0       0       0       0       0       0       0       0       0       
      +0       0       0       0
  3520 ;;      Temps:          0       0       0       0       0       0       0       0       0       0       0       0       
      +0       0       0       0
  3521 ;;      Totals:         0       0       0       0       0       0       0       0       0       0       0       0       
      +0       0       0       0
  3522 ;;Total ram usage:        0 bytes
  3523 ;; Hardware stack levels used:    1
  3524 ;; Hardware stack levels required when called:    1
  3525 ;; This function calls:
  3526 ;;		_HIDGetReportHandler
  3527 ;;		_HIDSetReportHandler
  3528 ;; This function is called by:
  3529 ;;		_USBCBCheckOtherReq
  3530 ;; This function uses a non-reentrant model
  3531 ;;
  3532                           
  3533                           	psect	text17
  3534  00039E                     __ptext17:
  3535                           	opt stack 0
  3536  00039E                     _USBCheckHIDRequest:
  3537                           	opt stack 25
  3538                           
  3539                           ;usb_device_hid.c: 75: if(SetupPkt.Recipient != 1) return;
  3540                           
  3541                           ;incstack = 0
  3542  00039E  5001               	movf	_SetupPkt,w,c
  3543  0003A0  0B1F               	andlw	31
  3544  0003A2  06E8               	decf	wreg,f,c
  3545  0003A4  E001               	bz	l2393
  3546  0003A6  0012               	return	
  3547  0003A8                     l2393:
  3548                           
  3549                           ;usb_device_hid.c: 76: if(SetupPkt.bIntfID != 0x00) return;
  3550  0003A8  5005               	movf	_SetupPkt+4,w,c
  3551  0003AA  E001               	bz	l2397
  3552  0003AC  0012               	return	
  3553  0003AE                     l2397:
  3554                           
  3555                           ;usb_device_hid.c: 83: if(SetupPkt.bRequest == 6)
  3556  0003AE  0E06               	movlw	6
  3557  0003B0  1802               	xorwf	_SetupPkt+1,w,c
  3558  0003B2  E014               	bz	l2417
  3559  0003B4  D01A               	goto	l2419
  3560  0003B6                     l2401:
  3561                           
  3562                           ;usb_device_hid.c: 88: ctrl_trf_session_owner = 2;
  3563  0003B6  0E02               	movlw	2
  3564  0003B8  6E3D               	movwf	_ctrl_trf_session_owner,c
  3565                           
  3566                           ;usb_device_hid.c: 89: pSrc.bRom = &CFG01[18];
  3567  0003BA  0E4A               	movlw	low (_CFG01+18)
  3568  0003BC  D83F               	call	PL4	;call to abstracted procedure
  3569                           
  3570                           ;usb_device_hid.c: 90: wCount.Val = sizeof(USB_HID_DSC);
  3571  0003BE  6A30               	clrf	_wCount+1,c
  3572  0003C0  0E09               	movlw	9
  3573  0003C2  D00A               	goto	L5
  3574  0003C4                     l2407:
  3575                           
  3576                           ;usb_device_hid.c: 93: ctrl_trf_session_owner = 2;
  3577  0003C4  0E02               	movlw	2
  3578  0003C6  6E3D               	movwf	_ctrl_trf_session_owner,c
  3579                           
  3580                           ;usb_device_hid.c: 94: { if(usb_active_cfg == 1) pSrc.bRom = (const uint8_t*)&hid_rpt01;
      +                           };
  3581  0003C8  0445               	decf	_usb_active_cfg,w,c
  3582  0003CA  E102               	bnz	l502
  3583  0003CC  0E87               	movlw	low _hid_rpt01
  3584  0003CE  D836               	call	PL4	;call to abstracted procedure
  3585  0003D0                     l502:
  3586                           
  3587                           ;usb_device_hid.c: 95: { if(usb_active_cfg == 1) wCount.Val = sizeof(hid_rpt01); };
  3588  0003D0  0445               	decf	_usb_active_cfg,w,c
  3589  0003D2  E10A               	bnz	l500
  3590  0003D4  6A30               	clrf	_wCount+1,c
  3591  0003D6  0E1D               	movlw	29
  3592  0003D8                     L5:
  3593  0003D8  6E2F               	movwf	_wCount,c
  3594  0003DA  D006               	goto	l500
  3595  0003DC                     l2417:
  3596  0003DC  5004               	movf	_SetupPkt+3,w,c
  3597                           
  3598                           ; Switch size 1, requested type "space"
  3599                           ; Number of cases is 3, Range of values is 33 to 35
  3600                           ; switch strategies available:
  3601                           ; Name         Instructions Cycles
  3602                           ; simple_byte           10     6 (average)
  3603                           ;	Chosen strategy is simple_byte
  3604  0003DE  0A21               	xorlw	33	; case 33
  3605  0003E0  E0EA               	bz	l2401
  3606  0003E2  0A03               	xorlw	3	; case 34
  3607  0003E4  E0EF               	bz	l2407
  3608  0003E6  0A01               	xorlw	1	; case 35
  3609  0003E8                     l500:
  3610                           
  3611                           ;usb_device_hid.c: 101: usb_stat.ctrl_trf_mem = 1;
  3612  0003E8  8242               	bsf	_usb_stat,1,c
  3613  0003EA                     l2419:
  3614                           
  3615                           ;usb_device_hid.c: 102: }
  3616                           ;usb_device_hid.c: 104: if(SetupPkt.RequestType != 0x01) return;
  3617  0003EA  3801               	swapf	_SetupPkt,w,c
  3618  0003EC  32E8               	rrcf	wreg,f,c
  3619  0003EE  0B03               	andlw	3
  3620  0003F0  06E8               	decf	wreg,f,c
  3621  0003F2  E014               	bz	l2453
  3622  0003F4  0012               	return	
  3623  0003F6                     l2427:
  3624                           
  3625                           ;usb_device_hid.c: 114: ctrl_trf_session_owner = 2;
  3626  0003F6  0E02               	movlw	2
  3627  0003F8  6E3D               	movwf	_ctrl_trf_session_owner,c
  3628                           
  3629                           ;usb_device_hid.c: 115: pSrc.bRam = (uint8_t*)&idle_rate;
  3630  0003FA  0E44               	movlw	low _idle_rate
  3631  0003FC  6E20               	movwf	_pSrc,c
  3632                           
  3633                           ;usb_device_hid.c: 116: usb_stat.ctrl_trf_mem = 0;
  3634                           
  3635                           ;usb_device_hid.c: 117: wCount.v[0] = 1;
  3636                           
  3637                           ;usb_device_hid.c: 118: break;
  3638  0003FE  D024               	goto	PL24	;call to abstracted procedure
  3639  000400                     l2435:
  3640                           
  3641                           ;usb_device_hid.c: 120: ctrl_trf_session_owner = 2;
  3642  000400  0E02               	movlw	2
  3643  000402  6E3D               	movwf	_ctrl_trf_session_owner,c
  3644                           
  3645                           ;usb_device_hid.c: 122: idle_rate = SetupPkt.W_Value.v[1];
  3646  000404  C004  F044         	movff	_SetupPkt+3,_idle_rate
  3647                           
  3648                           ;usb_device_hid.c: 123: break;
  3649  000408  0C02               	retlw	2
  3650  00040A                     l2439:
  3651                           
  3652                           ;usb_device_hid.c: 125: ctrl_trf_session_owner = 2;
  3653  00040A  0E02               	movlw	2
  3654  00040C  6E3D               	movwf	_ctrl_trf_session_owner,c
  3655                           
  3656                           ;usb_device_hid.c: 126: pSrc.bRam = (uint8_t*)&active_protocol;
  3657  00040E  0E43               	movlw	low _active_protocol
  3658  000410  D7F5               	goto	L6
  3659  000412                     l2447:
  3660                           
  3661                           ;usb_device_hid.c: 131: ctrl_trf_session_owner = 2;
  3662  000412  0E02               	movlw	2
  3663  000414  6E3D               	movwf	_ctrl_trf_session_owner,c
  3664                           
  3665                           ;usb_device_hid.c: 133: active_protocol = SetupPkt.W_Value.v[0];
  3666  000416  C003  F043         	movff	_SetupPkt+2,_active_protocol
  3667                           
  3668                           ;usb_device_hid.c: 134: break;
  3669  00041A  0C02               	retlw	2
  3670  00041C                     l2453:
  3671  00041C  5002               	movf	_SetupPkt+1,w,c
  3672                           
  3673                           ; Switch size 1, requested type "space"
  3674                           ; Number of cases is 6, Range of values is 1 to 11
  3675                           ; switch strategies available:
  3676                           ; Name         Instructions Cycles
  3677                           ; simple_byte           19    10 (average)
  3678                           ;	Chosen strategy is simple_byte
  3679  00041E  0A01               	xorlw	1	; case 1
  3680  000420  B4D8               	btfsc	status,2,c
  3681  000422  0012               	return	
  3682  000424  0A03               	xorlw	3	; case 2
  3683  000426  E0E7               	bz	l2427
  3684  000428  0A01               	xorlw	1	; case 3
  3685  00042A  E0EF               	bz	l2439
  3686  00042C  0A0A               	xorlw	10	; case 9
  3687  00042E  B4D8               	btfsc	status,2,c
  3688  000430  0012               	return	
  3689  000432  0A03               	xorlw	3	; case 10
  3690  000434  E0E5               	bz	l2435
  3691  000436  0A01               	xorlw	1	; case 11
  3692  000438  E0EC               	bz	l2447
  3693  00043A  0012               	return		;funcret
  3694  00043C                     __end_of_USBCheckHIDRequest:
  3695                           	opt stack 0
  3696  00043C                     PL4:
  3697                           	opt stack 26
  3698  00043C  6E20               	movwf	_pSrc,c
  3699  00043E  5020               	movf	_pSrc,w,c
  3700  000440  A4D8               	btfss	status,2,c
  3701  000442  0E0F               	movlw	high __smallconst
  3702  000444  6E21               	movwf	_pSrc+1,c
  3703  000446  0012               	return	
  3704  000448                     __end_ofPL4:
  3705                           	opt stack 0
  3706  000448                     PL24:
  3707                           	opt stack 24
  3708  000448  6A21               	clrf	_pSrc+1,c
  3709  00044A  9242               	bcf	_usb_stat,1,c
  3710  00044C  0E01               	movlw	1
  3711  00044E  6E2F               	movwf	_wCount,c
  3712  000450  0C01               	retlw	1
  3713  000452                     __end_ofPL24:
  3714                           	opt stack 0
  3715                           stkptr	equ	0xFFC
  3716                           tblptru	equ	0xFF8
  3717                           tblptrh	equ	0xFF7
  3718                           tblptrl	equ	0xFF6
  3719                           tablat	equ	0xFF5
  3720                           prodh	equ	0xFF4
  3721                           prodl	equ	0xFF3
  3722                           intcon	equ	0xFF2
  3723                           wreg	equ	0xFE8
  3724                           indf1	equ	0xFE7
  3725                           fsr1h	equ	0xFE2
  3726                           fsr1l	equ	0xFE1
  3727                           indf2	equ	0xFDF
  3728                           postinc2	equ	0xFDE
  3729                           postdec2	equ	0xFDD
  3730                           plusw2	equ	0xFDB
  3731                           fsr2h	equ	0xFDA
  3732                           fsr2l	equ	0xFD9
  3733                           status	equ	0xFD8
  3734                           
  3735 ;; *************** function _HIDSetReportHandler *****************
  3736 ;; Defined at:
  3737 ;;		line 144 in file "../src/usb_device_hid.c"
  3738 ;; Parameters:    Size  Location     Type
  3739 ;;		None
  3740 ;; Auto vars:     Size  Location     Type
  3741 ;;		None
  3742 ;; Return value:  Size  Location     Type
  3743 ;;		None               void
  3744 ;; Registers used:
  3745 ;;		None
  3746 ;; Tracked objects:
  3747 ;;		On entry : 0/D
  3748 ;;		On exit  : 0/0
  3749 ;;		Unchanged: 0/0
  3750 ;; Data sizes:     COMRAM   BANK0   BANK1   BANK2   BANK3   BANK4   BANK5   BANK6   BANK7   BANK8   BANK9  BANK10  BANK1
      +1  BANK12  BANK13  BANK14
  3751 ;;      Params:         0       0       0       0       0       0       0       0       0       0       0       0       
      +0       0       0       0
  3752 ;;      Locals:         0       0       0       0       0       0       0       0       0       0       0       0       
      +0       0       0       0
  3753 ;;      Temps:          0       0       0       0       0       0       0       0       0       0       0       0       
      +0       0       0       0
  3754 ;;      Totals:         0       0       0       0       0       0       0       0       0       0       0       0       
      +0       0       0       0
  3755 ;;Total ram usage:        0 bytes
  3756 ;; Hardware stack levels used:    1
  3757 ;; This function calls:
  3758 ;;		Nothing
  3759 ;; This function is called by:
  3760 ;;		_USBCheckHIDRequest
  3761 ;; This function uses a non-reentrant model
  3762 ;;
  3763                           
  3764                           	psect	text18
  3765  000CE4                     __ptext18:
  3766                           	opt stack 0
  3767  000CE4                     _HIDSetReportHandler:
  3768                           	opt stack 25
  3769                           
  3770                           ;incstack = 0
  3771  000CE4  0012               	return		;funcret
  3772  000CE6                     __end_of_HIDSetReportHandler:
  3773                           	opt stack 0
  3774                           stkptr	equ	0xFFC
  3775                           tblptru	equ	0xFF8
  3776                           tblptrh	equ	0xFF7
  3777                           tblptrl	equ	0xFF6
  3778                           tablat	equ	0xFF5
  3779                           prodh	equ	0xFF4
  3780                           prodl	equ	0xFF3
  3781                           intcon	equ	0xFF2
  3782                           wreg	equ	0xFE8
  3783                           indf1	equ	0xFE7
  3784                           fsr1h	equ	0xFE2
  3785                           fsr1l	equ	0xFE1
  3786                           indf2	equ	0xFDF
  3787                           postinc2	equ	0xFDE
  3788                           postdec2	equ	0xFDD
  3789                           plusw2	equ	0xFDB
  3790                           fsr2h	equ	0xFDA
  3791                           fsr2l	equ	0xFD9
  3792                           status	equ	0xFD8
  3793                           
  3794 ;; *************** function _HIDGetReportHandler *****************
  3795 ;; Defined at:
  3796 ;;		line 139 in file "../src/usb_device_hid.c"
  3797 ;; Parameters:    Size  Location     Type
  3798 ;;		None
  3799 ;; Auto vars:     Size  Location     Type
  3800 ;;		None
  3801 ;; Return value:  Size  Location     Type
  3802 ;;		None               void
  3803 ;; Registers used:
  3804 ;;		None
  3805 ;; Tracked objects:
  3806 ;;		On entry : 0/D
  3807 ;;		On exit  : 0/0
  3808 ;;		Unchanged: 0/0
  3809 ;; Data sizes:     COMRAM   BANK0   BANK1   BANK2   BANK3   BANK4   BANK5   BANK6   BANK7   BANK8   BANK9  BANK10  BANK1
      +1  BANK12  BANK13  BANK14
  3810 ;;      Params:         0       0       0       0       0       0       0       0       0       0       0       0       
      +0       0       0       0
  3811 ;;      Locals:         0       0       0       0       0       0       0       0       0       0       0       0       
      +0       0       0       0
  3812 ;;      Temps:          0       0       0       0       0       0       0       0       0       0       0       0       
      +0       0       0       0
  3813 ;;      Totals:         0       0       0       0       0       0       0       0       0       0       0       0       
      +0       0       0       0
  3814 ;;Total ram usage:        0 bytes
  3815 ;; Hardware stack levels used:    1
  3816 ;; This function calls:
  3817 ;;		Nothing
  3818 ;; This function is called by:
  3819 ;;		_USBCheckHIDRequest
  3820 ;; This function uses a non-reentrant model
  3821 ;;
  3822                           
  3823                           	psect	text19
  3824  000CE6                     __ptext19:
  3825                           	opt stack 0
  3826  000CE6                     _HIDGetReportHandler:
  3827                           	opt stack 25
  3828                           
  3829                           ;incstack = 0
  3830  000CE6  0012               	return		;funcret
  3831  000CE8                     __end_of_HIDGetReportHandler:
  3832                           	opt stack 0
  3833                           stkptr	equ	0xFFC
  3834                           tblptru	equ	0xFF8
  3835                           tblptrh	equ	0xFF7
  3836                           tblptrl	equ	0xFF6
  3837                           tablat	equ	0xFF5
  3838                           prodh	equ	0xFF4
  3839                           prodl	equ	0xFF3
  3840                           intcon	equ	0xFF2
  3841                           wreg	equ	0xFE8
  3842                           indf1	equ	0xFE7
  3843                           fsr1h	equ	0xFE2
  3844                           fsr1l	equ	0xFE1
  3845                           indf2	equ	0xFDF
  3846                           postinc2	equ	0xFDE
  3847                           postdec2	equ	0xFDD
  3848                           plusw2	equ	0xFDB
  3849                           fsr2h	equ	0xFDA
  3850                           fsr2l	equ	0xFD9
  3851                           status	equ	0xFD8
  3852                           
  3853 ;; *************** function _USBCtrlTrfInHandler *****************
  3854 ;; Defined at:
  3855 ;;		line 1015 in file "../src/usb_device.c"
  3856 ;; Parameters:    Size  Location     Type
  3857 ;;		None
  3858 ;; Auto vars:     Size  Location     Type
  3859 ;;		None
  3860 ;; Return value:  Size  Location     Type
  3861 ;;		None               void
  3862 ;; Registers used:
  3863 ;;		wreg, fsr1l, fsr1h, fsr2l, fsr2h, status,2, status,0, tblptrl, tblptrh, tblptru, cstack
  3864 ;; Tracked objects:
  3865 ;;		On entry : 0/F
  3866 ;;		On exit  : 0/0
  3867 ;;		Unchanged: 0/0
  3868 ;; Data sizes:     COMRAM   BANK0   BANK1   BANK2   BANK3   BANK4   BANK5   BANK6   BANK7   BANK8   BANK9  BANK10  BANK1
      +1  BANK12  BANK13  BANK14
  3869 ;;      Params:         0       0       0       0       0       0       0       0       0       0       0       0       
      +0       0       0       0
  3870 ;;      Locals:         0       0       0       0       0       0       0       0       0       0       0       0       
      +0       0       0       0
  3871 ;;      Temps:          0       0       0       0       0       0       0       0       0       0       0       0       
      +0       0       0       0
  3872 ;;      Totals:         0       0       0       0       0       0       0       0       0       0       0       0       
      +0       0       0       0
  3873 ;;Total ram usage:        0 bytes
  3874 ;; Hardware stack levels used:    1
  3875 ;; Hardware stack levels required when called:    1
  3876 ;; This function calls:
  3877 ;;		_USBCtrlTrfTxService
  3878 ;; This function is called by:
  3879 ;;		_USBDeviceTasks
  3880 ;; This function uses a non-reentrant model
  3881 ;;
  3882                           
  3883                           	psect	text20
  3884  000A58                     __ptext20:
  3885                           	opt stack 0
  3886  000A58                     _USBCtrlTrfInHandler:
  3887                           	opt stack 27
  3888                           
  3889                           ;usb_device.c: 1020: if(usb_device_state == 4)
  3890                           
  3891                           ;incstack = 0
  3892  000A58  0E04               	movlw	4
  3893  000A5A  1841               	xorwf	_usb_device_state,w,c
  3894  000A5C  E108               	bnz	l2871
  3895                           
  3896                           ;usb_device.c: 1021: {
  3897                           ;usb_device.c: 1022: UADDR = SetupPkt.bDevADR;
  3898  000A5E  C003  FF38         	movff	_SetupPkt+2,3896	;volatile
  3899                           
  3900                           ;usb_device.c: 1023: if(UADDR > 0)
  3901  000A62  010F               	movlb	15	; () banked
  3902  000A64  5138               	movf	56,w,b	;volatile
  3903                           
  3904                           ; BSR set to: 15
  3905                           ;usb_device.c: 1024: usb_device_state = 5;
  3906  000A66  0E05               	movlw	5
  3907  000A68  B4D8               	btfsc	status,2,c
  3908                           
  3909                           ; BSR set to: 15
  3910                           ;usb_device.c: 1025: else
  3911                           ;usb_device.c: 1026: usb_device_state = 3;
  3912  000A6A  0E03               	movlw	3
  3913  000A6C  6E41               	movwf	_usb_device_state,c
  3914  000A6E                     l2871:
  3915                           
  3916                           ;usb_device.c: 1027: }
  3917                           ;usb_device.c: 1031: if(ctrl_trf_state == 1)
  3918  000A6E  043E               	decf	_ctrl_trf_state,w,c
  3919  000A70  A4D8               	btfss	status,2,c
  3920  000A72  0012               	return	
  3921                           
  3922                           ;usb_device.c: 1032: {
  3923                           ;usb_device.c: 1035: USBCtrlTrfTxService();
  3924  000A74  EC23  F003         	call	_USBCtrlTrfTxService	;wreg free
  3925                           
  3926                           ;usb_device.c: 1038: if(short_pkt_status == 2)
  3927  000A78  0E02               	movlw	2
  3928  000A7A  1840               	xorwf	_short_pkt_status,w,c
  3929  000A7C  E102               	bnz	l340
  3930                           
  3931                           ;usb_device.c: 1039: {
  3932                           ;usb_device.c: 1042: ep0Bi.Stat._byte = 0x04;
  3933                           
  3934                           ; BSR set to: 13
  3935                           ;usb_device.c: 1043: ep0Bi.Stat._byte |= 0x80;
  3936  000A7E  D808               	call	PL40	;call to abstracted procedure
  3937                           
  3938                           ;usb_device.c: 1044: }
  3939  000A80  0C04               	retlw	4
  3940  000A82                     l340:
  3941                           
  3942                           ;usb_device.c: 1045: else
  3943                           ;usb_device.c: 1046: {
  3944                           ;usb_device.c: 1048: if(ep0Bi.Stat.DTS == 0)
  3945  000A82  010D               	movlb	13	; () banked
  3946                           
  3947                           ; BSR set to: 13
  3948                           ;usb_device.c: 1049: ep0Bi.Stat._byte = 0x40|0x08;
  3949  000A84  0E48               	movlw	72
  3950  000A86  BD08               	btfsc	8,6,b	;volatile
  3951                           
  3952                           ; BSR set to: 13
  3953                           ;usb_device.c: 1050: else
  3954                           ;usb_device.c: 1051: ep0Bi.Stat._byte = 0x00|0x08;
  3955  000A88  0E08               	movlw	8
  3956  000A8A  6F08               	movwf	8,b	;volatile
  3957                           
  3958                           ; BSR set to: 13
  3959                           ;usb_device.c: 1053: ep0Bi.Stat._byte |= 0x80;
  3960  000A8C  8F08               	bsf	8,7,b	;volatile
  3961  000A8E  0012               	return		;funcret
  3962  000A90                     __end_of_USBCtrlTrfInHandler:
  3963                           	opt stack 0
  3964  000A90                     PL40:
  3965                           	opt stack 26
  3966  000A90  0E04               	movlw	4
  3967  000A92  010D               	movlb	13	; () banked
  3968  000A94  6F08               	movwf	8,b	;volatile
  3969  000A96  8F08               	bsf	8,7,b	;volatile
  3970  000A98  0C04               	retlw	4
  3971  000A9A                     __end_ofPL40:
  3972                           	opt stack 0
  3973                           stkptr	equ	0xFFC
  3974                           tblptru	equ	0xFF8
  3975                           tblptrh	equ	0xFF7
  3976                           tblptrl	equ	0xFF6
  3977                           tablat	equ	0xFF5
  3978                           prodh	equ	0xFF4
  3979                           prodl	equ	0xFF3
  3980                           intcon	equ	0xFF2
  3981                           wreg	equ	0xFE8
  3982                           indf1	equ	0xFE7
  3983                           fsr1h	equ	0xFE2
  3984                           fsr1l	equ	0xFE1
  3985                           indf2	equ	0xFDF
  3986                           postinc2	equ	0xFDE
  3987                           postdec2	equ	0xFDD
  3988                           plusw2	equ	0xFDB
  3989                           fsr2h	equ	0xFDA
  3990                           fsr2l	equ	0xFD9
  3991                           status	equ	0xFD8
  3992                           
  3993 ;; *************** function _USBCtrlTrfTxService *****************
  3994 ;; Defined at:
  3995 ;;		line 1085 in file "../src/usb_device.c"
  3996 ;; Parameters:    Size  Location     Type
  3997 ;;		None
  3998 ;; Auto vars:     Size  Location     Type
  3999 ;;		None
  4000 ;; Return value:  Size  Location     Type
  4001 ;;		None               void
  4002 ;; Registers used:
  4003 ;;		wreg, fsr1l, fsr1h, fsr2l, fsr2h, status,2, status,0, tblptrl, tblptrh, tblptru
  4004 ;; Tracked objects:
  4005 ;;		On entry : 0/D
  4006 ;;		On exit  : 0/0
  4007 ;;		Unchanged: 0/0
  4008 ;; Data sizes:     COMRAM   BANK0   BANK1   BANK2   BANK3   BANK4   BANK5   BANK6   BANK7   BANK8   BANK9  BANK10  BANK1
      +1  BANK12  BANK13  BANK14
  4009 ;;      Params:         0       0       0       0       0       0       0       0       0       0       0       0       
      +0       0       0       0
  4010 ;;      Locals:         0       0       0       0       0       0       0       0       0       0       0       0       
      +0       0       0       0
  4011 ;;      Temps:          0       0       0       0       0       0       0       0       0       0       0       0       
      +0       0       0       0
  4012 ;;      Totals:         0       0       0       0       0       0       0       0       0       0       0       0       
      +0       0       0       0
  4013 ;;Total ram usage:        0 bytes
  4014 ;; Hardware stack levels used:    1
  4015 ;; This function calls:
  4016 ;;		Nothing
  4017 ;; This function is called by:
  4018 ;;		_USBCtrlTrfInHandler
  4019 ;;		_USBCtrlEPServiceComplete
  4020 ;; This function uses a non-reentrant model
  4021 ;;
  4022                           
  4023                           	psect	text21
  4024  000646                     __ptext21:
  4025                           	opt stack 0
  4026  000646                     _USBCtrlTrfTxService:
  4027                           	opt stack 26
  4028                           
  4029                           ;usb_device.c: 1087: static uint8_t bytes_to_send;
  4030                           ;usb_device.c: 1092: bytes_to_send = 8;
  4031                           
  4032                           ;incstack = 0
  4033  000646  0E08               	movlw	8
  4034  000648  6E32               	movwf	USBCtrlTrfTxService@bytes_to_send,c
  4035                           
  4036                           ;usb_device.c: 1093: if(wCount.Val < 8)
  4037  00064A  5030               	movf	_wCount+1,w,c
  4038  00064C  E10D               	bnz	l2515
  4039  00064E  0E08               	movlw	8
  4040  000650  5C2F               	subwf	_wCount,w,c
  4041  000652  E20A               	bc	l2515
  4042                           
  4043                           ;usb_device.c: 1094: {
  4044                           ;usb_device.c: 1097: bytes_to_send = wCount.Val;
  4045  000654  C02F  F032         	movff	_wCount,USBCtrlTrfTxService@bytes_to_send
  4046                           
  4047                           ;usb_device.c: 1098: if(short_pkt_status == 0)
  4048  000658  5040               	movf	_short_pkt_status,w,c
  4049  00065A  E102               	bnz	l2511
  4050                           
  4051                           ;usb_device.c: 1099: {
  4052                           ;usb_device.c: 1100: short_pkt_status = 1;
  4053  00065C  0E01               	movlw	1
  4054  00065E  D003               	goto	L9
  4055  000660                     l2511:
  4056                           
  4057                           ;usb_device.c: 1102: else if(short_pkt_status == 1)
  4058  000660  0440               	decf	_short_pkt_status,w,c
  4059  000662  E102               	bnz	l2515
  4060                           
  4061                           ;usb_device.c: 1103: {
  4062                           ;usb_device.c: 1104: short_pkt_status = 2;
  4063  000664  0E02               	movlw	2
  4064  000666                     L9:
  4065  000666  6E40               	movwf	_short_pkt_status,c
  4066  000668                     l2515:
  4067                           
  4068                           ;usb_device.c: 1105: }
  4069                           ;usb_device.c: 1106: }
  4070                           ;usb_device.c: 1109: ep0Bi.Cnt = bytes_to_send;
  4071  000668  C032  FD09         	movff	USBCtrlTrfTxService@bytes_to_send,3337	;volatile
  4072                           
  4073                           ;usb_device.c: 1112: wCount.Val -= bytes_to_send;
  4074  00066C  5032               	movf	USBCtrlTrfTxService@bytes_to_send,w,c
  4075  00066E  5E2F               	subwf	_wCount,f,c
  4076  000670  0E00               	movlw	0
  4077  000672  5A30               	subwfb	_wCount+1,f,c
  4078                           
  4079                           ;usb_device.c: 1117: pDst.bRam = (uint8_t*)&CtrlTrfData;
  4080  000674  0E24               	movlw	36
  4081  000676  6E1D               	movwf	_pDst,c
  4082  000678  0E0D               	movlw	13
  4083  00067A  6E1E               	movwf	_pDst+1,c
  4084                           
  4085                           ;usb_device.c: 1118: if(usb_stat.ctrl_trf_mem == 1)
  4086  00067C  A242               	btfss	_usb_stat,1,c
  4087  00067E  D01A               	goto	l2543
  4088  000680  D00B               	goto	l2533
  4089  000682                     l2525:
  4090                           
  4091                           ;usb_device.c: 1121: {
  4092                           ;usb_device.c: 1122: *pDst.bRam = *pSrc.bRom;
  4093  000682  D81B               	call	PL6	;call to abstracted procedure
  4094  000684  ECC1  F002         	call	PL2	;call to abstracted procedure
  4095  000688  0E0E               	movlw	(high __ramtop+-1)
  4096  00068A  64F7               	cpfsgt	tblptrh,c
  4097  00068C  D003               	bra	u1317
  4098  00068E  0008               	tblrd		*
  4099  000690  50F5               	movf	tablat,w,c
  4100  000692  D001               	bra	u1310
  4101  000694                     u1317:
  4102  000694  D819               	call	PL10	;call to abstracted procedure
  4103  000696                     u1310:
  4104                           
  4105                           ;usb_device.c: 1123: pDst.bRam++;
  4106                           
  4107                           ;usb_device.c: 1124: pSrc.bRom++;
  4108                           
  4109                           ;usb_device.c: 1125: bytes_to_send--;
  4110  000696  D81E               	call	PL20	;call to abstracted procedure
  4111  000698                     l2533:
  4112  000698  5032               	movf	USBCtrlTrfTxService@bytes_to_send,w,c
  4113  00069A  E1F3               	bnz	l2525
  4114  00069C  0012               	return	
  4115  00069E                     l2535:
  4116                           
  4117                           ;usb_device.c: 1131: {
  4118                           ;usb_device.c: 1132: *pDst.bRam = *pSrc.bRam;
  4119  00069E  D80D               	call	PL6	;call to abstracted procedure
  4120  0006A0  ECC1  F002         	call	PL2	;call to abstracted procedure
  4121  0006A4  0E0E               	movlw	(high __ramtop+-1)
  4122  0006A6  64F7               	cpfsgt	tblptrh,c
  4123  0006A8  D003               	bra	u1337
  4124  0006AA  0008               	tblrd		*
  4125  0006AC  50F5               	movf	tablat,w,c
  4126  0006AE  D001               	bra	u1330
  4127  0006B0                     u1337:
  4128  0006B0  D80B               	call	PL10	;call to abstracted procedure
  4129  0006B2                     u1330:
  4130                           
  4131                           ;usb_device.c: 1133: pDst.bRam++;
  4132                           
  4133                           ;usb_device.c: 1134: pSrc.bRam++;
  4134                           
  4135                           ;usb_device.c: 1135: bytes_to_send--;
  4136  0006B2  D810               	call	PL20	;call to abstracted procedure
  4137  0006B4                     l2543:
  4138  0006B4  5032               	movf	USBCtrlTrfTxService@bytes_to_send,w,c
  4139  0006B6  E1F3               	bnz	l2535
  4140  0006B8  0012               	return		;funcret
  4141  0006BA                     __end_of_USBCtrlTrfTxService:
  4142                           	opt stack 0
  4143  0006BA                     PL6:
  4144                           	opt stack 26
  4145  0006BA  C020  FFF6         	movff	_pSrc,tblptrl
  4146  0006BE  C021  FFF7         	movff	_pSrc+1,tblptrh
  4147  0006C2  0E00               	movlw	low (__smallconst shr (0+16))
  4148  0006C4  6EF8               	movwf	tblptru,c
  4149  0006C6  0012               	return	
  4150  0006C8                     __end_ofPL6:
  4151                           	opt stack 0
  4152  0006C8                     PL10:
  4153                           	opt stack 26
  4154  0006C8  CFF6 FFE1          	movff	tblptrl,fsr1l
  4155  0006CC  CFF7 FFE2          	movff	tblptrh,fsr1h
  4156  0006D0  50E7               	movf	indf1,w,c
  4157  0006D2  0012               	return	
  4158  0006D4                     __end_ofPL10:
  4159                           	opt stack 0
  4160  0006D4                     PL20:
  4161                           	opt stack 26
  4162  0006D4  6EDF               	movwf	indf2,c
  4163  0006D6  4A1D               	infsnz	_pDst,f,c
  4164  0006D8  2A1E               	incf	_pDst+1,f,c
  4165  0006DA  4A20               	infsnz	_pSrc,f,c
  4166  0006DC  2A21               	incf	_pSrc+1,f,c
  4167  0006DE  0632               	decf	USBCtrlTrfTxService@bytes_to_send,f,c
  4168  0006E0  0012               	return	
  4169  0006E2                     __end_ofPL20:
  4170                           	opt stack 0
  4171                           stkptr	equ	0xFFC
  4172                           tblptru	equ	0xFF8
  4173                           tblptrh	equ	0xFF7
  4174                           tblptrl	equ	0xFF6
  4175                           tablat	equ	0xFF5
  4176                           prodh	equ	0xFF4
  4177                           prodl	equ	0xFF3
  4178                           intcon	equ	0xFF2
  4179                           wreg	equ	0xFE8
  4180                           indf1	equ	0xFE7
  4181                           fsr1h	equ	0xFE2
  4182                           fsr1l	equ	0xFE1
  4183                           indf2	equ	0xFDF
  4184                           postinc2	equ	0xFDE
  4185                           postdec2	equ	0xFDD
  4186                           plusw2	equ	0xFDB
  4187                           fsr2h	equ	0xFDA
  4188                           fsr2l	equ	0xFD9
  4189                           status	equ	0xFD8
  4190                           
  4191 ;; *************** function _SignFlash *****************
  4192 ;; Defined at:
  4193 ;;		line 476 in file "../src/boot_18fxxjxx.c"
  4194 ;; Parameters:    Size  Location     Type
  4195 ;;		None
  4196 ;; Auto vars:     Size  Location     Type
  4197 ;;  pROM            3    8[COMRAM] PTR  unsigned char 
  4198 ;;		 -> ROM(131063), 
  4199 ;; Return value:  Size  Location     Type
  4200 ;;		None               void
  4201 ;; Registers used:
  4202 ;;		wreg, fsr2l, fsr2h, status,2, status,0, tblptrl, tblptrh, tblptru, cstack
  4203 ;; Tracked objects:
  4204 ;;		On entry : 0/0
  4205 ;;		On exit  : 0/0
  4206 ;;		Unchanged: 0/0
  4207 ;; Data sizes:     COMRAM   BANK0   BANK1   BANK2   BANK3   BANK4   BANK5   BANK6   BANK7   BANK8   BANK9  BANK10  BANK1
      +1  BANK12  BANK13  BANK14
  4208 ;;      Params:         0       0       0       0       0       0       0       0       0       0       0       0       
      +0       0       0       0
  4209 ;;      Locals:         3       0       0       0       0       0       0       0       0       0       0       0       
      +0       0       0       0
  4210 ;;      Temps:          1       0       0       0       0       0       0       0       0       0       0       0       
      +0       0       0       0
  4211 ;;      Totals:         4       0       0       0       0       0       0       0       0       0       0       0       
      +0       0       0       0
  4212 ;;Total ram usage:        4 bytes
  4213 ;; Hardware stack levels used:    1
  4214 ;; Hardware stack levels required when called:    3
  4215 ;; This function calls:
  4216 ;;		_ClearWatchdog
  4217 ;;		_EraseFlashPage
  4218 ;;		_UnlockAndActivate
  4219 ;; This function is called by:
  4220 ;;		_ProcessIO
  4221 ;; This function uses a non-reentrant model
  4222 ;;
  4223                           
  4224                           	psect	text22
  4225  000452                     __ptext22:
  4226                           	opt stack 0
  4227  000452                     _SignFlash:
  4228                           	opt stack 25
  4229                           
  4230                           ;boot_18fxxjxx.c: 478: static unsigned int i;
  4231                           ;boot_18fxxjxx.c: 479: far const uint8_t* pROM;
  4232                           ;boot_18fxxjxx.c: 483: pROM = (far const uint8_t*)(0x1006 & (uint32_t)(0x1000000 - 1024)
      +                          );
  4233                           
  4234                           ;incstack = 0
  4235  000452  6A4F               	clrf	SignFlash@pROM,c
  4236  000454  0E10               	movlw	16
  4237  000456  6E50               	movwf	SignFlash@pROM+1,c
  4238  000458  6A51               	clrf	SignFlash@pROM+2,c
  4239                           
  4240                           ;boot_18fxxjxx.c: 484: for(i = 0; i < 1024; i++)
  4241  00045A  6A29               	clrf	SignFlash@i,c
  4242  00045C  6A2A               	clrf	SignFlash@i+1,c
  4243  00045E                     l3051:
  4244                           
  4245                           ;boot_18fxxjxx.c: 485: {
  4246                           ;boot_18fxxjxx.c: 486: ProgrammingBuffer[i] = *pROM++;
  4247  00045E  C04F  FFF6         	movff	SignFlash@pROM,tblptrl
  4248  000462  C050  FFF7         	movff	SignFlash@pROM+1,tblptrh
  4249  000466  C051  FFF8         	movff	SignFlash@pROM+2,tblptru
  4250  00046A  D842               	call	PL16	;call to abstracted procedure
  4251  00046C  0008               	tblrd		*
  4252  00046E  CFF5 FFDF          	movff	tablat,indf2
  4253  000472  2A4F               	incf	SignFlash@pROM,f,c
  4254  000474  0E00               	movlw	0
  4255  000476  2250               	addwfc	SignFlash@pROM+1,f,c
  4256  000478  2251               	addwfc	SignFlash@pROM+2,f,c
  4257  00047A  4A29               	infsnz	SignFlash@i,f,c
  4258  00047C  2A2A               	incf	SignFlash@i+1,f,c
  4259  00047E  0E04               	movlw	4
  4260  000480  5C2A               	subwf	SignFlash@i+1,w,c
  4261  000482  E3ED               	bnc	l3051
  4262                           
  4263                           ;boot_18fxxjxx.c: 487: }
  4264                           ;boot_18fxxjxx.c: 490: ProgrammingBuffer[(0x1006 & ~(uint32_t)(0x1000000 - 1024))] = (un
      +                          signed char)0x600D;
  4265  000484  0E0D               	movlw	13
  4266  000486  CFE8 F0E8          	movff	wreg,_ProgrammingBuffer+6
  4267                           
  4268                           ;boot_18fxxjxx.c: 491: ProgrammingBuffer[(0x1006 & ~(uint32_t)(0x1000000 - 1024)) + 1] =
      +                           (unsigned char)(0x600D >> 8);
  4269  00048A  0E60               	movlw	96
  4270  00048C  CFE8 F0E9          	movff	wreg,_ProgrammingBuffer+7
  4271                           
  4272                           ;boot_18fxxjxx.c: 494: EraseFlashPage(0x1006 / 1024);
  4273  000490  0E00               	movlw	0
  4274  000492  6E49               	movwf	EraseFlashPage@PageNumToErase+1,c
  4275  000494  0E04               	movlw	4
  4276  000496  6E48               	movwf	EraseFlashPage@PageNumToErase,c
  4277  000498  ECBC  F004         	call	_EraseFlashPage	;wreg free
  4278                           
  4279                           ;boot_18fxxjxx.c: 502: pROM = (far const uint8_t*)((0x1006 & (uint32_t)(0x1000000 - 1024
      +                          )) + 1024 - 1);
  4280  00049C  684F               	setf	SignFlash@pROM,c
  4281  00049E  0E13               	movlw	19
  4282  0004A0  6E50               	movwf	SignFlash@pROM+1,c
  4283  0004A2  6A51               	clrf	SignFlash@pROM+2,c
  4284                           
  4285                           ;boot_18fxxjxx.c: 504: i = 1024 - 1;
  4286  0004A4  0E03               	movlw	3
  4287  0004A6  6E2A               	movwf	SignFlash@i+1,c
  4288  0004A8  6829               	setf	SignFlash@i,c
  4289  0004AA                     l3065:
  4290                           
  4291                           ;boot_18fxxjxx.c: 506: {
  4292                           ;boot_18fxxjxx.c: 508: TBLPTRU = (uint32_t)pROM >> 16;
  4293  0004AA  C051  FFF8         	movff	SignFlash@pROM+2,tblptru	;volatile
  4294                           
  4295                           ;boot_18fxxjxx.c: 509: TBLPTRH = (uint16_t)pROM >> 8;
  4296  0004AE  C050  FFF7         	movff	SignFlash@pROM+1,tblptrh	;volatile
  4297                           
  4298                           ;boot_18fxxjxx.c: 510: TBLPTRL = (uint8_t)pROM;
  4299  0004B2  C04F  FFF6         	movff	SignFlash@pROM,tblptrl	;volatile
  4300                           
  4301                           ;boot_18fxxjxx.c: 514: TABLAT = ProgrammingBuffer[i];
  4302  0004B6  D81C               	call	PL16	;call to abstracted procedure
  4303  0004B8  50DF               	movf	indf2,w,c
  4304  0004BA  6EF5               	movwf	tablat,c	;volatile
  4305  0004BC  000C               	tblwt		*	;# 
  4306                           
  4307                           ;boot_18fxxjxx.c: 525: if((i % 64) == 0)
  4308  0004BE  C029  F04E         	movff	SignFlash@i,??_SignFlash
  4309  0004C2  0E3F               	movlw	63
  4310  0004C4  164E               	andwf	??_SignFlash,f,c
  4311  0004C6  E107               	bnz	l3081
  4312                           
  4313                           ;boot_18fxxjxx.c: 526: {
  4314                           ;boot_18fxxjxx.c: 528: ClearWatchdog();
  4315  0004C8  EC70  F006         	call	_ClearWatchdog	;wreg free
  4316                           
  4317                           ;boot_18fxxjxx.c: 529: EECON1 = 0x04;
  4318  0004CC  0E04               	movlw	4
  4319  0004CE  6EA6               	movwf	4006,c	;volatile
  4320                           
  4321                           ;boot_18fxxjxx.c: 530: UnlockAndActivate(0xB5);
  4322  0004D0  0EB5               	movlw	181
  4323  0004D2  ECE6  F005         	call	_UnlockAndActivate
  4324  0004D6                     l3081:
  4325                           
  4326                           ;boot_18fxxjxx.c: 531: }
  4327                           ;boot_18fxxjxx.c: 533: pROM--;
  4328  0004D6  064F               	decf	SignFlash@pROM,f,c
  4329  0004D8  0E00               	movlw	0
  4330  0004DA  5A50               	subwfb	SignFlash@pROM+1,f,c
  4331  0004DC  5A51               	subwfb	SignFlash@pROM+2,f,c
  4332  0004DE  000A               	tblrd		*-	;# 
  4333                           
  4334                           ;boot_18fxxjxx.c: 543: if(i == 0)
  4335  0004E0  5029               	movf	SignFlash@i,w,c
  4336  0004E2  102A               	iorwf	SignFlash@i+1,w,c
  4337  0004E4  E101               	bnz	l3087
  4338  0004E6  0012               	return	
  4339  0004E8                     l3087:
  4340                           
  4341                           ;boot_18fxxjxx.c: 546: }
  4342                           ;boot_18fxxjxx.c: 547: i--;
  4343  0004E8  0629               	decf	SignFlash@i,f,c
  4344  0004EA  A0D8               	btfss	status,0,c
  4345  0004EC  062A               	decf	SignFlash@i+1,f,c
  4346  0004EE  D7DD               	goto	l3065
  4347  0004F0                     __end_of_SignFlash:
  4348                           	opt stack 0
  4349  0004F0                     PL16:
  4350                           	opt stack 25
  4351  0004F0  0EE2               	movlw	low _ProgrammingBuffer
  4352  0004F2  2429               	addwf	SignFlash@i,w,c
  4353  0004F4  6ED9               	movwf	fsr2l,c
  4354  0004F6  0E00               	movlw	high _ProgrammingBuffer
  4355  0004F8  202A               	addwfc	SignFlash@i+1,w,c
  4356  0004FA  6EDA               	movwf	fsr2h,c
  4357  0004FC  0012               	return	
  4358  0004FE                     __end_ofPL16:
  4359                           	opt stack 0
  4360                           stkptr	equ	0xFFC
  4361                           tblptru	equ	0xFF8
  4362                           tblptrh	equ	0xFF7
  4363                           tblptrl	equ	0xFF6
  4364                           tablat	equ	0xFF5
  4365                           prodh	equ	0xFF4
  4366                           prodl	equ	0xFF3
  4367                           intcon	equ	0xFF2
  4368                           wreg	equ	0xFE8
  4369                           indf1	equ	0xFE7
  4370                           fsr1h	equ	0xFE2
  4371                           fsr1l	equ	0xFE1
  4372                           indf2	equ	0xFDF
  4373                           postinc2	equ	0xFDE
  4374                           postdec2	equ	0xFDD
  4375                           plusw2	equ	0xFDB
  4376                           fsr2h	equ	0xFDA
  4377                           fsr2l	equ	0xFD9
  4378                           status	equ	0xFD8
  4379                           
  4380 ;; *************** function _EraseFlashPage *****************
  4381 ;; Defined at:
  4382 ;;		line 681 in file "../src/boot_18fxxjxx.c"
  4383 ;; Parameters:    Size  Location     Type
  4384 ;;  PageNumToEra    2    1[COMRAM] unsigned int 
  4385 ;; Auto vars:     Size  Location     Type
  4386 ;;		None
  4387 ;; Return value:  Size  Location     Type
  4388 ;;		None               void
  4389 ;; Registers used:
  4390 ;;		wreg, status,2, status,0, cstack
  4391 ;; Tracked objects:
  4392 ;;		On entry : 0/0
  4393 ;;		On exit  : 0/0
  4394 ;;		Unchanged: 0/0
  4395 ;; Data sizes:     COMRAM   BANK0   BANK1   BANK2   BANK3   BANK4   BANK5   BANK6   BANK7   BANK8   BANK9  BANK10  BANK1
      +1  BANK12  BANK13  BANK14
  4396 ;;      Params:         2       0       0       0       0       0       0       0       0       0       0       0       
      +0       0       0       0
  4397 ;;      Locals:         0       0       0       0       0       0       0       0       0       0       0       0       
      +0       0       0       0
  4398 ;;      Temps:          4       0       0       0       0       0       0       0       0       0       0       0       
      +0       0       0       0
  4399 ;;      Totals:         6       0       0       0       0       0       0       0       0       0       0       0       
      +0       0       0       0
  4400 ;;Total ram usage:        6 bytes
  4401 ;; Hardware stack levels used:    1
  4402 ;; Hardware stack levels required when called:    2
  4403 ;; This function calls:
  4404 ;;		_UnlockAndActivate
  4405 ;; This function is called by:
  4406 ;;		_ProcessIO
  4407 ;;		_SignFlash
  4408 ;; This function uses a non-reentrant model
  4409 ;;
  4410                           
  4411                           	psect	text23
  4412  000978                     __ptext23:
  4413                           	opt stack 0
  4414  000978                     _EraseFlashPage:
  4415                           	opt stack 25
  4416                           
  4417                           ;boot_18fxxjxx.c: 683: static uint32_t TablePointerValue;
  4418                           ;boot_18fxxjxx.c: 686: if(PageNumToErase < ((uint32_t)0x1000/1024))
  4419                           
  4420                           ;incstack = 0
  4421  000978  5049               	movf	EraseFlashPage@PageNumToErase+1,w,c
  4422  00097A  E106               	bnz	l2891
  4423  00097C  0E04               	movlw	4
  4424  00097E  5C48               	subwf	EraseFlashPage@PageNumToErase,w,c
  4425  000980  E203               	bc	l2891
  4426                           
  4427                           ;boot_18fxxjxx.c: 687: PageNumToErase = ((uint32_t)0x1000/1024);
  4428  000982  6A49               	clrf	EraseFlashPage@PageNumToErase+1,c
  4429  000984  0E04               	movlw	4
  4430  000986  6E48               	movwf	EraseFlashPage@PageNumToErase,c
  4431  000988                     l2891:
  4432                           
  4433                           ;boot_18fxxjxx.c: 691: TablePointerValue = 1024 * (uint32_t)PageNumToErase;
  4434  000988  5048               	movf	EraseFlashPage@PageNumToErase,w,c
  4435  00098A  6E4A               	movwf	??_EraseFlashPage& (0+255),c
  4436  00098C  5049               	movf	EraseFlashPage@PageNumToErase+1,w,c
  4437  00098E  6E4B               	movwf	(??_EraseFlashPage+1)& (0+255),c
  4438  000990  6A4C               	clrf	(??_EraseFlashPage+2)& (0+255),c
  4439  000992  6A4D               	clrf	(??_EraseFlashPage+3)& (0+255),c
  4440  000994  0E0A               	movlw	10
  4441  000996                     u1775:
  4442  000996  90D8               	bcf	status,0,c
  4443  000998  364A               	rlcf	??_EraseFlashPage,f,c
  4444  00099A  364B               	rlcf	??_EraseFlashPage+1,f,c
  4445  00099C  364C               	rlcf	??_EraseFlashPage+2,f,c
  4446  00099E  364D               	rlcf	??_EraseFlashPage+3,f,c
  4447  0009A0  2EE8               	decfsz	wreg,f,c
  4448  0009A2  D7F9               	goto	u1775
  4449  0009A4  C04A  F009         	movff	??_EraseFlashPage,EraseFlashPage@TablePointerValue
  4450  0009A8  C04B  F00A         	movff	??_EraseFlashPage+1,EraseFlashPage@TablePointerValue+1
  4451  0009AC  C04C  F00B         	movff	??_EraseFlashPage+2,EraseFlashPage@TablePointerValue+2
  4452  0009B0  C04D  F00C         	movff	??_EraseFlashPage+3,EraseFlashPage@TablePointerValue+3
  4453                           
  4454                           ;boot_18fxxjxx.c: 692: TBLPTRU = TablePointerValue >> 16;
  4455  0009B4  C00B  FFF8         	movff	EraseFlashPage@TablePointerValue+2,tblptru	;volatile
  4456                           
  4457                           ;boot_18fxxjxx.c: 693: TBLPTRH = TablePointerValue >> 8;
  4458  0009B8  C00A  FFF7         	movff	EraseFlashPage@TablePointerValue+1,tblptrh	;volatile
  4459                           
  4460                           ;boot_18fxxjxx.c: 694: TBLPTRL = 0x00;
  4461  0009BC  6AF6               	clrf	tblptrl,c	;volatile
  4462                           
  4463                           ;boot_18fxxjxx.c: 700: EECON1 = 0b00010100;
  4464  0009BE  0E14               	movlw	20
  4465  0009C0  6EA6               	movwf	4006,c	;volatile
  4466                           
  4467                           ;boot_18fxxjxx.c: 701: UnlockAndActivate(0xB5);
  4468  0009C2  0EB5               	movlw	181
  4469  0009C4  EFE6  F005         	goto	_UnlockAndActivate
  4470  0009C8                     __end_of_EraseFlashPage:
  4471                           	opt stack 0
  4472                           stkptr	equ	0xFFC
  4473                           tblptru	equ	0xFF8
  4474                           tblptrh	equ	0xFF7
  4475                           tblptrl	equ	0xFF6
  4476                           tablat	equ	0xFF5
  4477                           prodh	equ	0xFF4
  4478                           prodl	equ	0xFF3
  4479                           intcon	equ	0xFF2
  4480                           wreg	equ	0xFE8
  4481                           indf1	equ	0xFE7
  4482                           fsr1h	equ	0xFE2
  4483                           fsr1l	equ	0xFE1
  4484                           indf2	equ	0xFDF
  4485                           postinc2	equ	0xFDE
  4486                           postdec2	equ	0xFDD
  4487                           plusw2	equ	0xFDB
  4488                           fsr2h	equ	0xFDA
  4489                           fsr2l	equ	0xFD9
  4490                           status	equ	0xFD8
  4491                           
  4492 ;; *************** function _UnlockAndActivate *****************
  4493 ;; Defined at:
  4494 ;;		line 635 in file "../src/boot_18fxxjxx.c"
  4495 ;; Parameters:    Size  Location     Type
  4496 ;;  UnlockKey       1    wreg     unsigned char 
  4497 ;; Auto vars:     Size  Location     Type
  4498 ;;  UnlockKey       1    0[COMRAM] unsigned char 
  4499 ;; Return value:  Size  Location     Type
  4500 ;;		None               void
  4501 ;; Registers used:
  4502 ;;		wreg, status,2, status,0, cstack
  4503 ;; Tracked objects:
  4504 ;;		On entry : 0/0
  4505 ;;		On exit  : 0/0
  4506 ;;		Unchanged: 0/0
  4507 ;; Data sizes:     COMRAM   BANK0   BANK1   BANK2   BANK3   BANK4   BANK5   BANK6   BANK7   BANK8   BANK9  BANK10  BANK1
      +1  BANK12  BANK13  BANK14
  4508 ;;      Params:         0       0       0       0       0       0       0       0       0       0       0       0       
      +0       0       0       0
  4509 ;;      Locals:         1       0       0       0       0       0       0       0       0       0       0       0       
      +0       0       0       0
  4510 ;;      Temps:          0       0       0       0       0       0       0       0       0       0       0       0       
      +0       0       0       0
  4511 ;;      Totals:         1       0       0       0       0       0       0       0       0       0       0       0       
      +0       0       0       0
  4512 ;;Total ram usage:        1 bytes
  4513 ;; Hardware stack levels used:    1
  4514 ;; Hardware stack levels required when called:    1
  4515 ;; This function calls:
  4516 ;;		_LowVoltageCheck
  4517 ;; This function is called by:
  4518 ;;		_SignFlash
  4519 ;;		_WriteFlashSubBlock
  4520 ;;		_EraseFlashPage
  4521 ;; This function uses a non-reentrant model
  4522 ;;
  4523                           
  4524                           	psect	text24
  4525  000BCC                     __ptext24:
  4526                           	opt stack 0
  4527  000BCC                     _UnlockAndActivate:
  4528                           	opt stack 26
  4529                           
  4530                           ;incstack = 0
  4531                           ;UnlockAndActivate@UnlockKey stored from wreg
  4532  000BCC  6E47               	movwf	UnlockAndActivate@UnlockKey,c
  4533                           
  4534                           ;boot_18fxxjxx.c: 637: INTCONbits.GIE = 0;
  4535  000BCE  9EF2               	bcf	intcon,7,c	;volatile
  4536                           
  4537                           ;boot_18fxxjxx.c: 640: LowVoltageCheck();
  4538  000BD0  EC8B  F005         	call	_LowVoltageCheck	;wreg free
  4539                           
  4540                           ;boot_18fxxjxx.c: 644: if(UnlockKey != 0xB5)
  4541  000BD4  0EB5               	movlw	181
  4542  000BD6  1847               	xorwf	UnlockAndActivate@UnlockKey,w,c
  4543  000BD8  E004               	bz	l2805
  4544                           
  4545                           ;boot_18fxxjxx.c: 645: {
  4546                           ;boot_18fxxjxx.c: 653: OSCCON = 0x03;
  4547  000BDA  0E03               	movlw	3
  4548  000BDC  6ED3               	movwf	4051,c	;volatile
  4549  000BDE                     l677:
  4550  000BDE  0003               	sleep		;# 
  4551  000BE0  D7FE               	goto	l677
  4552  000BE2                     l2805:
  4553                           
  4554                           ;boot_18fxxjxx.c: 659: }
  4555                           ;boot_18fxxjxx.c: 662: EECON2 = 0x55;
  4556  000BE2  0E55               	movlw	85
  4557  000BE4  6EA7               	movwf	4007,c	;volatile
  4558                           
  4559                           ;boot_18fxxjxx.c: 663: EECON2 = 0xAA;
  4560  000BE6  0EAA               	movlw	170
  4561  000BE8  6EA7               	movwf	4007,c	;volatile
  4562                           
  4563                           ;boot_18fxxjxx.c: 664: EECON1bits.WR = 1;
  4564  000BEA  82A6               	bsf	4006,1,c	;volatile
  4565  000BEC                     l680:
  4566  000BEC  B2A6               	btfsc	4006,1,c	;volatile
  4567  000BEE  D7FE               	goto	l680
  4568                           
  4569                           ;boot_18fxxjxx.c: 677: EECON1bits.WREN = 0;
  4570  000BF0  94A6               	bcf	4006,2,c	;volatile
  4571  000BF2  0012               	return		;funcret
  4572  000BF4                     __end_of_UnlockAndActivate:
  4573                           	opt stack 0
  4574                           stkptr	equ	0xFFC
  4575                           tblptru	equ	0xFF8
  4576                           tblptrh	equ	0xFF7
  4577                           tblptrl	equ	0xFF6
  4578                           tablat	equ	0xFF5
  4579                           prodh	equ	0xFF4
  4580                           prodl	equ	0xFF3
  4581                           intcon	equ	0xFF2
  4582                           wreg	equ	0xFE8
  4583                           indf1	equ	0xFE7
  4584                           fsr1h	equ	0xFE2
  4585                           fsr1l	equ	0xFE1
  4586                           indf2	equ	0xFDF
  4587                           postinc2	equ	0xFDE
  4588                           postdec2	equ	0xFDD
  4589                           plusw2	equ	0xFDB
  4590                           fsr2h	equ	0xFDA
  4591                           fsr2l	equ	0xFD9
  4592                           status	equ	0xFD8
  4593                           
  4594 ;; *************** function _LowVoltageCheck *****************
  4595 ;; Defined at:
  4596 ;;		line 635 in file "../src/main.c"
  4597 ;; Parameters:    Size  Location     Type
  4598 ;;		None
  4599 ;; Auto vars:     Size  Location     Type
  4600 ;;		None
  4601 ;; Return value:  Size  Location     Type
  4602 ;;		None               void
  4603 ;; Registers used:
  4604 ;;		wreg, status,2, status,0
  4605 ;; Tracked objects:
  4606 ;;		On entry : 0/F
  4607 ;;		On exit  : 0/0
  4608 ;;		Unchanged: 0/0
  4609 ;; Data sizes:     COMRAM   BANK0   BANK1   BANK2   BANK3   BANK4   BANK5   BANK6   BANK7   BANK8   BANK9  BANK10  BANK1
      +1  BANK12  BANK13  BANK14
  4610 ;;      Params:         0       0       0       0       0       0       0       0       0       0       0       0       
      +0       0       0       0
  4611 ;;      Locals:         0       0       0       0       0       0       0       0       0       0       0       0       
      +0       0       0       0
  4612 ;;      Temps:          0       0       0       0       0       0       0       0       0       0       0       0       
      +0       0       0       0
  4613 ;;      Totals:         0       0       0       0       0       0       0       0       0       0       0       0       
      +0       0       0       0
  4614 ;;Total ram usage:        0 bytes
  4615 ;; Hardware stack levels used:    1
  4616 ;; This function calls:
  4617 ;;		Nothing
  4618 ;; This function is called by:
  4619 ;;		_BootMain
  4620 ;;		_UnlockAndActivate
  4621 ;; This function uses a non-reentrant model
  4622 ;;
  4623                           
  4624                           	psect	text25
  4625  000B16                     __ptext25:
  4626                           	opt stack 0
  4627  000B16                     _LowVoltageCheck:
  4628                           	opt stack 26
  4629                           
  4630                           ;main.c: 641: if(WDTCONbits.LVDSTAT == 0)
  4631                           
  4632                           ;incstack = 0
  4633  000B16  BCC0               	btfsc	4032,6,c	;volatile
  4634  000B18  0012               	return	
  4635                           
  4636                           ;main.c: 642: {
  4637                           ;main.c: 646: OSCCON = 0x03;
  4638  000B1A  0E03               	movlw	3
  4639  000B1C  6ED3               	movwf	4051,c	;volatile
  4640                           
  4641                           ;main.c: 647: UCONbits.SUSPND = 0;
  4642  000B1E  9265               	bcf	3941,1,c	;volatile
  4643                           
  4644                           ;main.c: 648: UCONbits.USBEN = 0;
  4645  000B20  9665               	bcf	3941,3,c	;volatile
  4646                           
  4647                           ;main.c: 649: INTCON = 0x00;
  4648  000B22  6AF2               	clrf	intcon,c	;volatile
  4649                           
  4650                           ;main.c: 652: uint_delay_counter = 0x400;
  4651  000B24  D80E               	call	PL46	;call to abstracted procedure
  4652                           
  4653                           ;main.c: 653: while(uint_delay_counter)
  4654  000B26  D008               	goto	l2387
  4655  000B28                     l86:
  4656                           
  4657                           ;main.c: 654: {
  4658                           ;main.c: 655: if(WDTCONbits.LVDSTAT == 1)
  4659  000B28  ACC0               	btfss	4032,6,c	;volatile
  4660  000B2A  D004               	goto	l2385
  4661                           
  4662                           ;main.c: 656: {
  4663                           ;main.c: 657: uint_delay_counter--;
  4664  000B2C  062D               	decf	_uint_delay_counter,f,c
  4665  000B2E  A0D8               	btfss	status,0,c
  4666  000B30  062E               	decf	_uint_delay_counter+1,f,c
  4667                           
  4668                           ;main.c: 658: }
  4669  000B32  D001               	goto	l88
  4670  000B34                     l2385:
  4671                           
  4672                           ;main.c: 659: else
  4673                           ;main.c: 660: {
  4674                           ;main.c: 661: uint_delay_counter = 0x400;
  4675  000B34  D806               	call	PL46	;call to abstracted procedure
  4676  000B36                     l88:
  4677  000B36  0004               	clrwdt		;# 
  4678  000B38                     l2387:
  4679  000B38  502D               	movf	_uint_delay_counter,w,c
  4680  000B3A  102E               	iorwf	_uint_delay_counter+1,w,c
  4681  000B3C  E1F5               	bnz	l86
  4682  000B3E  00FF               	reset		;# 
  4683  000B40  0012               	return		;funcret
  4684  000B42                     __end_of_LowVoltageCheck:
  4685                           	opt stack 0
  4686  000B42                     PL46:
  4687                           	opt stack 26
  4688  000B42  0E04               	movlw	4
  4689  000B44  6E2E               	movwf	_uint_delay_counter+1,c
  4690  000B46  6A2D               	clrf	_uint_delay_counter,c
  4691  000B48  0C04               	retlw	4
  4692  000B4A                     __end_ofPL46:
  4693                           	opt stack 0
  4694                           stkptr	equ	0xFFC
  4695                           tblptru	equ	0xFF8
  4696                           tblptrh	equ	0xFF7
  4697                           tblptrl	equ	0xFF6
  4698                           tablat	equ	0xFF5
  4699                           prodh	equ	0xFF4
  4700                           prodl	equ	0xFF3
  4701                           intcon	equ	0xFF2
  4702                           wreg	equ	0xFE8
  4703                           indf1	equ	0xFE7
  4704                           fsr1h	equ	0xFE2
  4705                           fsr1l	equ	0xFE1
  4706                           indf2	equ	0xFDF
  4707                           postinc2	equ	0xFDE
  4708                           postdec2	equ	0xFDD
  4709                           plusw2	equ	0xFDB
  4710                           fsr2h	equ	0xFDA
  4711                           fsr2l	equ	0xFD9
  4712                           status	equ	0xFD8
  4713                           
  4714 ;; *************** function _ResetDeviceCleanly *****************
  4715 ;; Defined at:
  4716 ;;		line 561 in file "../src/boot_18fxxjxx.c"
  4717 ;; Parameters:    Size  Location     Type
  4718 ;;		None
  4719 ;; Auto vars:     Size  Location     Type
  4720 ;;		None
  4721 ;; Return value:  Size  Location     Type
  4722 ;;		None               void
  4723 ;; Registers used:
  4724 ;;		wreg, status,2, status,0, cstack
  4725 ;; Tracked objects:
  4726 ;;		On entry : 0/0
  4727 ;;		On exit  : 0/0
  4728 ;;		Unchanged: 0/0
  4729 ;; Data sizes:     COMRAM   BANK0   BANK1   BANK2   BANK3   BANK4   BANK5   BANK6   BANK7   BANK8   BANK9  BANK10  BANK1
      +1  BANK12  BANK13  BANK14
  4730 ;;      Params:         0       0       0       0       0       0       0       0       0       0       0       0       
      +0       0       0       0
  4731 ;;      Locals:         0       0       0       0       0       0       0       0       0       0       0       0       
      +0       0       0       0
  4732 ;;      Temps:          0       0       0       0       0       0       0       0       0       0       0       0       
      +0       0       0       0
  4733 ;;      Totals:         0       0       0       0       0       0       0       0       0       0       0       0       
      +0       0       0       0
  4734 ;;Total ram usage:        0 bytes
  4735 ;; Hardware stack levels used:    1
  4736 ;; Hardware stack levels required when called:    3
  4737 ;; This function calls:
  4738 ;;		_USBDisableWithLongDelay
  4739 ;; This function is called by:
  4740 ;;		_ProcessIO
  4741 ;; This function uses a non-reentrant model
  4742 ;;
  4743                           
  4744                           	psect	text26
  4745  00000C                     __ptext26:
  4746                           	opt stack 0
  4747  00000C                     _ResetDeviceCleanly:
  4748                           	opt stack 25
  4749                           
  4750                           ;boot_18fxxjxx.c: 563: USBDisableWithLongDelay();
  4751                           
  4752                           ;incstack = 0
  4753  00000C  EC51  F006         	call	_USBDisableWithLongDelay	;wreg free
  4754  000010  00FF               	reset		;# 
  4755                           
  4756                           ;boot_18fxxjxx.c: 565: __nop();
  4757  000012  F000               	nop	
  4758                           
  4759                           ;boot_18fxxjxx.c: 566: __nop();
  4760  000014  F000               	nop	
  4761  000016  0012               	return		;funcret
  4762  000018                     __end_of_ResetDeviceCleanly:
  4763                           	opt stack 0
  4764                           stkptr	equ	0xFFC
  4765                           tblptru	equ	0xFF8
  4766                           tblptrh	equ	0xFF7
  4767                           tblptrl	equ	0xFF6
  4768                           tablat	equ	0xFF5
  4769                           prodh	equ	0xFF4
  4770                           prodl	equ	0xFF3
  4771                           intcon	equ	0xFF2
  4772                           wreg	equ	0xFE8
  4773                           indf1	equ	0xFE7
  4774                           fsr1h	equ	0xFE2
  4775                           fsr1l	equ	0xFE1
  4776                           indf2	equ	0xFDF
  4777                           postinc2	equ	0xFDE
  4778                           postdec2	equ	0xFDD
  4779                           plusw2	equ	0xFDB
  4780                           fsr2h	equ	0xFDA
  4781                           fsr2l	equ	0xFD9
  4782                           status	equ	0xFD8
  4783                           
  4784 ;; *************** function _HIDTxReport *****************
  4785 ;; Defined at:
  4786 ;;		line 229 in file "../src/usb_device_hid.c"
  4787 ;; Parameters:    Size  Location     Type
  4788 ;;  buffer          1    wreg     PTR unsigned char 
  4789 ;;		 -> PacketToPC(65), 
  4790 ;;  len             1    0[COMRAM] unsigned char 
  4791 ;; Auto vars:     Size  Location     Type
  4792 ;;  buffer          1    2[COMRAM] PTR unsigned char 
  4793 ;;		 -> PacketToPC(65), 
  4794 ;;  i               1    3[COMRAM] unsigned char 
  4795 ;; Return value:  Size  Location     Type
  4796 ;;		None               void
  4797 ;; Registers used:
  4798 ;;		wreg, fsr1l, fsr1h, fsr2l, fsr2h, status,2, status,0
  4799 ;; Tracked objects:
  4800 ;;		On entry : F/D
  4801 ;;		On exit  : F/D
  4802 ;;		Unchanged: 0/0
  4803 ;; Data sizes:     COMRAM   BANK0   BANK1   BANK2   BANK3   BANK4   BANK5   BANK6   BANK7   BANK8   BANK9  BANK10  BANK1
      +1  BANK12  BANK13  BANK14
  4804 ;;      Params:         1       0       0       0       0       0       0       0       0       0       0       0       
      +0       0       0       0
  4805 ;;      Locals:         2       0       0       0       0       0       0       0       0       0       0       0       
      +0       0       0       0
  4806 ;;      Temps:          1       0       0       0       0       0       0       0       0       0       0       0       
      +0       0       0       0
  4807 ;;      Totals:         4       0       0       0       0       0       0       0       0       0       0       0       
      +0       0       0       0
  4808 ;;Total ram usage:        4 bytes
  4809 ;; Hardware stack levels used:    1
  4810 ;; This function calls:
  4811 ;;		Nothing
  4812 ;; This function is called by:
  4813 ;;		_ProcessIO
  4814 ;; This function uses a non-reentrant model
  4815 ;;
  4816                           
  4817                           	psect	text27
  4818  00091C                     __ptext27:
  4819                           	opt stack 0
  4820  00091C                     _HIDTxReport:
  4821                           	opt stack 28
  4822                           
  4823                           ;incstack = 0
  4824                           ;HIDTxReport@buffer stored from wreg
  4825  00091C  6E49               	movwf	HIDTxReport@buffer,c
  4826                           
  4827                           ;usb_device_hid.c: 231: uint8_t i;
  4828                           ;usb_device_hid.c: 237: if(len > 64)
  4829  00091E  0E40               	movlw	64
  4830  000920  6447               	cpfsgt	HIDTxReport@len,c
  4831  000922  D001               	goto	l2981
  4832                           
  4833                           ;usb_device_hid.c: 238: len = 64;
  4834  000924  6E47               	movwf	HIDTxReport@len,c
  4835  000926                     l2981:
  4836                           
  4837                           ;usb_device_hid.c: 243: for (i = 0; i < len; i++)
  4838  000926  6A4A               	clrf	HIDTxReport@i,c
  4839  000928  D00D               	goto	l2987
  4840  00092A                     l2983:
  4841                           
  4842                           ;usb_device_hid.c: 244: hid_report_in[i] = buffer[i];
  4843  00092A  5049               	movf	HIDTxReport@buffer,w,c
  4844  00092C  244A               	addwf	HIDTxReport@i,w,c
  4845  00092E  6ED9               	movwf	fsr2l,c
  4846  000930  6ADA               	clrf	fsr2h,c
  4847  000932  0E6C               	movlw	108
  4848  000934  244A               	addwf	HIDTxReport@i,w,c
  4849  000936  6EE1               	movwf	fsr1l,c
  4850  000938  6AE2               	clrf	fsr1h,c
  4851  00093A  0E0D               	movlw	13
  4852  00093C  22E2               	addwfc	fsr1h,f,c
  4853  00093E  CFDF FFE7          	movff	indf2,indf1
  4854  000942  2A4A               	incf	HIDTxReport@i,f,c
  4855  000944                     l2987:
  4856  000944  5047               	movf	HIDTxReport@len,w,c
  4857  000946  5C4A               	subwf	HIDTxReport@i,w,c
  4858  000948  E3F0               	bnc	l2983
  4859                           
  4860                           ;usb_device_hid.c: 246: ep1Bi.Cnt = len;
  4861  00094A  C047  FD11         	movff	HIDTxReport@len,3345	;volatile
  4862                           
  4863                           ;usb_device_hid.c: 247: { ep1Bi.Stat._byte &= 0x40; ep1Bi.Stat.DTS = !ep1Bi.Stat.DTS; ep
      +                          1Bi.Stat._byte |= 0x08; ep1Bi.Stat._byte |= 0x80; };
  4864  00094E  0E40               	movlw	64
  4865  000950  010D               	movlb	13	; () banked
  4866  000952  1710               	andwf	16,f,b	;volatile
  4867  000954  BD10               	btfsc	16,6,b	;volatile
  4868  000956  D003               	goto	u1940
  4869  000958  6A48               	clrf	??_HIDTxReport& (0+255),c
  4870  00095A  2A48               	incf	??_HIDTxReport& (0+255),f,c
  4871  00095C  D001               	goto	u1958
  4872  00095E                     u1940:
  4873  00095E  6A48               	clrf	??_HIDTxReport& (0+255),c
  4874  000960                     u1958:
  4875  000960  3A48               	swapf	??_HIDTxReport,f,c
  4876  000962  4648               	rlncf	??_HIDTxReport,f,c
  4877  000964  4648               	rlncf	??_HIDTxReport,f,c
  4878  000966  010D               	movlb	13	; () banked
  4879  000968  5110               	movf	16,w,b	;volatile
  4880  00096A  1848               	xorwf	??_HIDTxReport,w,c
  4881  00096C  0BBF               	andlw	-65
  4882  00096E  1848               	xorwf	??_HIDTxReport,w,c
  4883  000970  6F10               	movwf	16,b	;volatile
  4884                           
  4885                           ; BSR set to: 13
  4886  000972  8710               	bsf	16,3,b	;volatile
  4887                           
  4888                           ; BSR set to: 13
  4889  000974  8F10               	bsf	16,7,b	;volatile
  4890                           
  4891                           ; BSR set to: 13
  4892  000976  0012               	return		;funcret
  4893  000978                     __end_of_HIDTxReport:
  4894                           	opt stack 0
  4895                           stkptr	equ	0xFFC
  4896                           tblptru	equ	0xFF8
  4897                           tblptrh	equ	0xFF7
  4898                           tblptrl	equ	0xFF6
  4899                           tablat	equ	0xFF5
  4900                           prodh	equ	0xFF4
  4901                           prodl	equ	0xFF3
  4902                           intcon	equ	0xFF2
  4903                           wreg	equ	0xFE8
  4904                           indf1	equ	0xFE7
  4905                           fsr1h	equ	0xFE2
  4906                           fsr1l	equ	0xFE1
  4907                           indf2	equ	0xFDF
  4908                           postinc2	equ	0xFDE
  4909                           postdec2	equ	0xFDD
  4910                           plusw2	equ	0xFDB
  4911                           fsr2h	equ	0xFDA
  4912                           fsr2l	equ	0xFD9
  4913                           status	equ	0xFD8
  4914                           
  4915 ;; *************** function _HIDRxReport *****************
  4916 ;; Defined at:
  4917 ;;		line 284 in file "../src/usb_device_hid.c"
  4918 ;; Parameters:    Size  Location     Type
  4919 ;;  buffer          1    wreg     PTR unsigned char 
  4920 ;;		 -> PacketFromPC(65), 
  4921 ;;  len             1    0[COMRAM] unsigned char 
  4922 ;; Auto vars:     Size  Location     Type
  4923 ;;  buffer          1    2[COMRAM] PTR unsigned char 
  4924 ;;		 -> PacketFromPC(65), 
  4925 ;; Return value:  Size  Location     Type
  4926 ;;                  1    wreg      unsigned char 
  4927 ;; Registers used:
  4928 ;;		wreg, fsr1l, fsr1h, fsr2l, fsr2h, status,2, status,0
  4929 ;; Tracked objects:
  4930 ;;		On entry : F/D
  4931 ;;		On exit  : F/D
  4932 ;;		Unchanged: 0/0
  4933 ;; Data sizes:     COMRAM   BANK0   BANK1   BANK2   BANK3   BANK4   BANK5   BANK6   BANK7   BANK8   BANK9  BANK10  BANK1
      +1  BANK12  BANK13  BANK14
  4934 ;;      Params:         1       0       0       0       0       0       0       0       0       0       0       0       
      +0       0       0       0
  4935 ;;      Locals:         1       0       0       0       0       0       0       0       0       0       0       0       
      +0       0       0       0
  4936 ;;      Temps:          1       0       0       0       0       0       0       0       0       0       0       0       
      +0       0       0       0
  4937 ;;      Totals:         3       0       0       0       0       0       0       0       0       0       0       0       
      +0       0       0       0
  4938 ;;Total ram usage:        3 bytes
  4939 ;; Hardware stack levels used:    1
  4940 ;; This function calls:
  4941 ;;		Nothing
  4942 ;; This function is called by:
  4943 ;;		_ProcessIO
  4944 ;; This function uses a non-reentrant model
  4945 ;;
  4946                           
  4947                           	psect	text28
  4948  0008BC                     __ptext28:
  4949                           	opt stack 0
  4950  0008BC                     _HIDRxReport:
  4951                           	opt stack 28
  4952                           
  4953                           ; BSR set to: 13
  4954                           ;incstack = 0
  4955                           ;HIDRxReport@buffer stored from wreg
  4956  0008BC  6E49               	movwf	HIDRxReport@buffer,c
  4957                           
  4958                           ;usb_device_hid.c: 286: hid_rpt_rx_len = 0;
  4959  0008BE  6A3F               	clrf	_hid_rpt_rx_len,c
  4960                           
  4961                           ;usb_device_hid.c: 288: if(!ep1Bo.Stat.UOWN)
  4962  0008C0  010D               	movlb	13	; () banked
  4963  0008C2  BF0C               	btfsc	12,7,b	;volatile
  4964  0008C4  0012               	return	
  4965                           
  4966                           ; BSR set to: 13
  4967                           ;usb_device_hid.c: 289: {
  4968                           ;usb_device_hid.c: 294: if(len > ep1Bo.Cnt)
  4969  0008C6  5047               	movf	HIDRxReport@len,w,c
  4970  0008C8  5D0D               	subwf	13,w,b	;volatile
  4971  0008CA  E202               	bc	l533
  4972                           
  4973                           ; BSR set to: 13
  4974                           ;usb_device_hid.c: 295: len = ep1Bo.Cnt;
  4975  0008CC  CD0D F047          	movff	3341,HIDRxReport@len	;volatile
  4976  0008D0                     l533:
  4977                           
  4978                           ; BSR set to: 13
  4979                           ;usb_device_hid.c: 300: for(hid_rpt_rx_len = 0; hid_rpt_rx_len < len; hid_rpt_rx_len++)
  4980  0008D0  6A3F               	clrf	_hid_rpt_rx_len,c
  4981  0008D2  D00B               	goto	l3005
  4982  0008D4                     l3001:
  4983                           
  4984                           ;usb_device_hid.c: 301: buffer[hid_rpt_rx_len] = hid_report_out[hid_rpt_rx_len];
  4985  0008D4  0E2C               	movlw	44
  4986  0008D6  243F               	addwf	_hid_rpt_rx_len,w,c
  4987  0008D8  6ED9               	movwf	fsr2l,c
  4988  0008DA  6ADA               	clrf	fsr2h,c
  4989  0008DC  0E0D               	movlw	13
  4990  0008DE  22DA               	addwfc	fsr2h,f,c
  4991  0008E0  5049               	movf	HIDRxReport@buffer,w,c
  4992  0008E2  243F               	addwf	_hid_rpt_rx_len,w,c
  4993  0008E4  ECCA  F001         	call	PL38	;call to abstracted procedure
  4994  0008E8  2A3F               	incf	_hid_rpt_rx_len,f,c
  4995  0008EA                     l3005:
  4996  0008EA  5047               	movf	HIDRxReport@len,w,c
  4997  0008EC  5C3F               	subwf	_hid_rpt_rx_len,w,c
  4998  0008EE  E3F2               	bnc	l3001
  4999                           
  5000                           ;usb_device_hid.c: 306: ep1Bo.Cnt = sizeof(hid_report_out);
  5001  0008F0  0E40               	movlw	64
  5002  0008F2  010D               	movlb	13	; () banked
  5003  0008F4  6F0D               	movwf	13,b	;volatile
  5004                           
  5005                           ; BSR set to: 13
  5006                           ;usb_device_hid.c: 307: { ep1Bo.Stat._byte &= 0x40; ep1Bo.Stat.DTS = !ep1Bo.Stat.DTS; ep
      +                          1Bo.Stat._byte |= 0x08; ep1Bo.Stat._byte |= 0x80; };
  5007  0008F6  170C               	andwf	12,f,b	;volatile
  5008                           
  5009                           ; BSR set to: 13
  5010  0008F8  BD0C               	btfsc	12,6,b	;volatile
  5011  0008FA  D003               	goto	u1990
  5012  0008FC  6A48               	clrf	??_HIDRxReport& (0+255),c
  5013  0008FE  2A48               	incf	??_HIDRxReport& (0+255),f,c
  5014  000900  D001               	goto	u2008
  5015  000902                     u1990:
  5016  000902  6A48               	clrf	??_HIDRxReport& (0+255),c
  5017  000904                     u2008:
  5018  000904  3A48               	swapf	??_HIDRxReport,f,c
  5019  000906  4648               	rlncf	??_HIDRxReport,f,c
  5020  000908  4648               	rlncf	??_HIDRxReport,f,c
  5021  00090A  010D               	movlb	13	; () banked
  5022  00090C  510C               	movf	12,w,b	;volatile
  5023  00090E  1848               	xorwf	??_HIDRxReport,w,c
  5024  000910  0BBF               	andlw	-65
  5025  000912  1848               	xorwf	??_HIDRxReport,w,c
  5026  000914  6F0C               	movwf	12,b	;volatile
  5027                           
  5028                           ; BSR set to: 13
  5029  000916  870C               	bsf	12,3,b	;volatile
  5030                           
  5031                           ; BSR set to: 13
  5032  000918  8F0C               	bsf	12,7,b	;volatile
  5033                           
  5034                           ; BSR set to: 13
  5035  00091A  0012               	return		;funcret
  5036  00091C                     __end_of_HIDRxReport:
  5037                           	opt stack 0
  5038                           stkptr	equ	0xFFC
  5039                           tblptru	equ	0xFF8
  5040                           tblptrh	equ	0xFF7
  5041                           tblptrl	equ	0xFF6
  5042                           tablat	equ	0xFF5
  5043                           prodh	equ	0xFF4
  5044                           prodl	equ	0xFF3
  5045                           intcon	equ	0xFF2
  5046                           wreg	equ	0xFE8
  5047                           indf1	equ	0xFE7
  5048                           fsr1h	equ	0xFE2
  5049                           fsr1l	equ	0xFE1
  5050                           indf2	equ	0xFDF
  5051                           postinc2	equ	0xFDE
  5052                           postdec2	equ	0xFDD
  5053                           plusw2	equ	0xFDB
  5054                           fsr2h	equ	0xFDA
  5055                           fsr2l	equ	0xFD9
  5056                           status	equ	0xFD8
  5057                           
  5058 ;; *************** function _InitializeSystem *****************
  5059 ;; Defined at:
  5060 ;;		line 494 in file "../src/main.c"
  5061 ;; Parameters:    Size  Location     Type
  5062 ;;		None
  5063 ;; Auto vars:     Size  Location     Type
  5064 ;;		None
  5065 ;; Return value:  Size  Location     Type
  5066 ;;		None               void
  5067 ;; Registers used:
  5068 ;;		wreg, fsr2l, fsr2h, status,2, status,0, cstack
  5069 ;; Tracked objects:
  5070 ;;		On entry : 0/F
  5071 ;;		On exit  : 0/0
  5072 ;;		Unchanged: 0/0
  5073 ;; Data sizes:     COMRAM   BANK0   BANK1   BANK2   BANK3   BANK4   BANK5   BANK6   BANK7   BANK8   BANK9  BANK10  BANK1
      +1  BANK12  BANK13  BANK14
  5074 ;;      Params:         0       0       0       0       0       0       0       0       0       0       0       0       
      +0       0       0       0
  5075 ;;      Locals:         0       0       0       0       0       0       0       0       0       0       0       0       
      +0       0       0       0
  5076 ;;      Temps:          0       0       0       0       0       0       0       0       0       0       0       0       
      +0       0       0       0
  5077 ;;      Totals:         0       0       0       0       0       0       0       0       0       0       0       0       
      +0       0       0       0
  5078 ;;Total ram usage:        0 bytes
  5079 ;; Hardware stack levels used:    1
  5080 ;; Hardware stack levels required when called:    6
  5081 ;; This function calls:
  5082 ;;		_DelayRoutine
  5083 ;;		_USBDeviceInit
  5084 ;;		_UserInit
  5085 ;; This function is called by:
  5086 ;;		_BootMain
  5087 ;; This function uses a non-reentrant model
  5088 ;;
  5089                           
  5090                           	psect	text29
  5091  000C14                     __ptext29:
  5092                           	opt stack 0
  5093  000C14                     _InitializeSystem:
  5094                           	opt stack 23
  5095                           
  5096                           ;main.c: 509: OSCCON = 0x60;
  5097                           
  5098                           ; BSR set to: 13
  5099                           ;incstack = 0
  5100  000C14  0E60               	movlw	96
  5101  000C16  6ED3               	movwf	4051,c	;volatile
  5102                           
  5103                           ;main.c: 510: OSCTUNEbits.PLLEN = 1;
  5104  000C18  8C9B               	bsf	3995,6,c	;volatile
  5105                           
  5106                           ;main.c: 512: DelayRoutine(0x300);
  5107  000C1A  EC5C  F006         	call	PL48	;call to abstracted procedure
  5108  000C1E  EC3F  F006         	call	_DelayRoutine	;wreg free
  5109                           
  5110                           ;main.c: 527: ANCON0 = 0x00;
  5111  000C22  010F               	movlb	15	; () banked
  5112  000C24  6B48               	clrf	72,b	;volatile
  5113                           
  5114                           ; BSR set to: 15
  5115                           ;main.c: 528: ANCON1 = 0x00;
  5116  000C26  6B49               	clrf	73,b	;volatile
  5117                           
  5118                           ; BSR set to: 15
  5119                           ;main.c: 578: UserInit();
  5120  000C28  ECBC  F005         	call	_UserInit	;wreg free
  5121                           
  5122                           ;main.c: 580: LATCbits.LATC2 = 0;
  5123  000C2C  948B               	bcf	3979,2,c	;volatile
  5124                           
  5125                           ;main.c: 581: TRISCbits.TRISC2 = 0;
  5126  000C2E  9494               	bcf	3988,2,c	;volatile
  5127                           
  5128                           ;main.c: 585: USBDeviceInit();
  5129  000C30  EF67  F006         	goto	_USBDeviceInit	;wreg free
  5130  000C34                     __end_of_InitializeSystem:
  5131                           	opt stack 0
  5132                           stkptr	equ	0xFFC
  5133                           tblptru	equ	0xFF8
  5134                           tblptrh	equ	0xFF7
  5135                           tblptrl	equ	0xFF6
  5136                           tablat	equ	0xFF5
  5137                           prodh	equ	0xFF4
  5138                           prodl	equ	0xFF3
  5139                           intcon	equ	0xFF2
  5140                           wreg	equ	0xFE8
  5141                           indf1	equ	0xFE7
  5142                           fsr1h	equ	0xFE2
  5143                           fsr1l	equ	0xFE1
  5144                           indf2	equ	0xFDF
  5145                           postinc2	equ	0xFDE
  5146                           postdec2	equ	0xFDD
  5147                           plusw2	equ	0xFDB
  5148                           fsr2h	equ	0xFDA
  5149                           fsr2l	equ	0xFD9
  5150                           status	equ	0xFD8
  5151                           
  5152 ;; *************** function _USBDeviceInit *****************
  5153 ;; Defined at:
  5154 ;;		line 317 in file "../src/usb_device.c"
  5155 ;; Parameters:    Size  Location     Type
  5156 ;;		None
  5157 ;; Auto vars:     Size  Location     Type
  5158 ;;		None
  5159 ;; Return value:  Size  Location     Type
  5160 ;;		None               void
  5161 ;; Registers used:
  5162 ;;		wreg, fsr2l, fsr2h, status,2, status,0, cstack
  5163 ;; Tracked objects:
  5164 ;;		On entry : D/F
  5165 ;;		On exit  : 0/0
  5166 ;;		Unchanged: 0/0
  5167 ;; Data sizes:     COMRAM   BANK0   BANK1   BANK2   BANK3   BANK4   BANK5   BANK6   BANK7   BANK8   BANK9  BANK10  BANK1
      +1  BANK12  BANK13  BANK14
  5168 ;;      Params:         0       0       0       0       0       0       0       0       0       0       0       0       
      +0       0       0       0
  5169 ;;      Locals:         0       0       0       0       0       0       0       0       0       0       0       0       
      +0       0       0       0
  5170 ;;      Temps:          0       0       0       0       0       0       0       0       0       0       0       0       
      +0       0       0       0
  5171 ;;      Totals:         0       0       0       0       0       0       0       0       0       0       0       0       
      +0       0       0       0
  5172 ;;Total ram usage:        0 bytes
  5173 ;; Hardware stack levels used:    1
  5174 ;; Hardware stack levels required when called:    5
  5175 ;; This function calls:
  5176 ;;		_USBCheckBusStatus
  5177 ;;		_USBDisableWithLongDelay
  5178 ;; This function is called by:
  5179 ;;		_InitializeSystem
  5180 ;; This function uses a non-reentrant model
  5181 ;;
  5182                           
  5183                           	psect	text30
  5184  000CCE                     __ptext30:
  5185                           	opt stack 0
  5186  000CCE                     _USBDeviceInit:
  5187                           	opt stack 23
  5188                           
  5189                           ;usb_device.c: 323: if(UCONbits.USBEN == 1)
  5190                           
  5191                           ;incstack = 0
  5192  000CCE  B665               	btfsc	3941,3,c	;volatile
  5193                           
  5194                           ;usb_device.c: 324: {
  5195                           ;usb_device.c: 328: USBDisableWithLongDelay();
  5196  000CD0  EC51  F006         	call	_USBDisableWithLongDelay	;wreg free
  5197                           
  5198                           ;usb_device.c: 329: }
  5199                           ;usb_device.c: 330: DeviceIsSoftDetached = 0;
  5200  000CD4  6A39               	clrf	_DeviceIsSoftDetached,c
  5201                           
  5202                           ;usb_device.c: 338: USBCheckBusStatus();
  5203  000CD6  EF60  F006         	goto	_USBCheckBusStatus	;wreg free
  5204  000CDA                     __end_of_USBDeviceInit:
  5205                           	opt stack 0
  5206                           stkptr	equ	0xFFC
  5207                           tblptru	equ	0xFF8
  5208                           tblptrh	equ	0xFF7
  5209                           tblptrl	equ	0xFF6
  5210                           tablat	equ	0xFF5
  5211                           prodh	equ	0xFF4
  5212                           prodl	equ	0xFF3
  5213                           intcon	equ	0xFF2
  5214                           wreg	equ	0xFE8
  5215                           indf1	equ	0xFE7
  5216                           fsr1h	equ	0xFE2
  5217                           fsr1l	equ	0xFE1
  5218                           indf2	equ	0xFDF
  5219                           postinc2	equ	0xFDE
  5220                           postdec2	equ	0xFDD
  5221                           plusw2	equ	0xFDB
  5222                           fsr2h	equ	0xFDA
  5223                           fsr2l	equ	0xFD9
  5224                           status	equ	0xFD8
  5225                           
  5226 ;; *************** function _USBCheckBusStatus *****************
  5227 ;; Defined at:
  5228 ;;		line 397 in file "../src/usb_device.c"
  5229 ;; Parameters:    Size  Location     Type
  5230 ;;		None
  5231 ;; Auto vars:     Size  Location     Type
  5232 ;;		None
  5233 ;; Return value:  Size  Location     Type
  5234 ;;		None               void
  5235 ;; Registers used:
  5236 ;;		wreg, fsr2l, fsr2h, status,2, status,0, cstack
  5237 ;; Tracked objects:
  5238 ;;		On entry : 0/F
  5239 ;;		On exit  : 0/0
  5240 ;;		Unchanged: 0/0
  5241 ;; Data sizes:     COMRAM   BANK0   BANK1   BANK2   BANK3   BANK4   BANK5   BANK6   BANK7   BANK8   BANK9  BANK10  BANK1
      +1  BANK12  BANK13  BANK14
  5242 ;;      Params:         0       0       0       0       0       0       0       0       0       0       0       0       
      +0       0       0       0
  5243 ;;      Locals:         0       0       0       0       0       0       0       0       0       0       0       0       
      +0       0       0       0
  5244 ;;      Temps:          0       0       0       0       0       0       0       0       0       0       0       0       
      +0       0       0       0
  5245 ;;      Totals:         0       0       0       0       0       0       0       0       0       0       0       0       
      +0       0       0       0
  5246 ;;Total ram usage:        0 bytes
  5247 ;; Hardware stack levels used:    1
  5248 ;; Hardware stack levels required when called:    4
  5249 ;; This function calls:
  5250 ;;		_USBSoftAttach
  5251 ;; This function is called by:
  5252 ;;		_USBDeviceInit
  5253 ;;		_USBDeviceTasks
  5254 ;; This function uses a non-reentrant model
  5255 ;;
  5256                           
  5257                           	psect	text31
  5258  000CC0                     __ptext31:
  5259                           	opt stack 0
  5260  000CC0                     _USBCheckBusStatus:
  5261                           	opt stack 24
  5262                           
  5263                           ;usb_device.c: 402: if(DeviceIsSoftDetached == 1)
  5264                           
  5265                           ;incstack = 0
  5266  000CC0  0439               	decf	_DeviceIsSoftDetached,w,c
  5267  000CC2  E101               	bnz	l282
  5268  000CC4  0012               	return	
  5269  000CC6                     l282:
  5270                           
  5271                           ;usb_device.c: 405: }
  5272                           ;usb_device.c: 431: if(UCONbits.USBEN == 0)
  5273  000CC6  A665               	btfss	3941,3,c	;volatile
  5274                           
  5275                           ;usb_device.c: 432: USBSoftAttach();
  5276  000CC8  EC1A  F006         	call	_USBSoftAttach	;wreg free
  5277  000CCC  0012               	return		;funcret
  5278  000CCE                     __end_of_USBCheckBusStatus:
  5279                           	opt stack 0
  5280                           stkptr	equ	0xFFC
  5281                           tblptru	equ	0xFF8
  5282                           tblptrh	equ	0xFF7
  5283                           tblptrl	equ	0xFF6
  5284                           tablat	equ	0xFF5
  5285                           prodh	equ	0xFF4
  5286                           prodl	equ	0xFF3
  5287                           intcon	equ	0xFF2
  5288                           wreg	equ	0xFE8
  5289                           indf1	equ	0xFE7
  5290                           fsr1h	equ	0xFE2
  5291                           fsr1l	equ	0xFE1
  5292                           indf2	equ	0xFDF
  5293                           postinc2	equ	0xFDE
  5294                           postdec2	equ	0xFDD
  5295                           plusw2	equ	0xFDB
  5296                           fsr2h	equ	0xFDA
  5297                           fsr2l	equ	0xFD9
  5298                           status	equ	0xFD8
  5299                           
  5300 ;; *************** function _USBSoftAttach *****************
  5301 ;; Defined at:
  5302 ;;		line 345 in file "../src/usb_device.c"
  5303 ;; Parameters:    Size  Location     Type
  5304 ;;		None
  5305 ;; Auto vars:     Size  Location     Type
  5306 ;;		None
  5307 ;; Return value:  Size  Location     Type
  5308 ;;		None               void
  5309 ;; Registers used:
  5310 ;;		wreg, fsr2l, fsr2h, status,2, status,0, cstack
  5311 ;; Tracked objects:
  5312 ;;		On entry : 0/F
  5313 ;;		On exit  : 0/0
  5314 ;;		Unchanged: 0/0
  5315 ;; Data sizes:     COMRAM   BANK0   BANK1   BANK2   BANK3   BANK4   BANK5   BANK6   BANK7   BANK8   BANK9  BANK10  BANK1
      +1  BANK12  BANK13  BANK14
  5316 ;;      Params:         0       0       0       0       0       0       0       0       0       0       0       0       
      +0       0       0       0
  5317 ;;      Locals:         0       0       0       0       0       0       0       0       0       0       0       0       
      +0       0       0       0
  5318 ;;      Temps:          0       0       0       0       0       0       0       0       0       0       0       0       
      +0       0       0       0
  5319 ;;      Totals:         0       0       0       0       0       0       0       0       0       0       0       0       
      +0       0       0       0
  5320 ;;Total ram usage:        0 bytes
  5321 ;; Hardware stack levels used:    1
  5322 ;; Hardware stack levels required when called:    3
  5323 ;; This function calls:
  5324 ;;		_USBDisableWithLongDelay
  5325 ;;		_USBProtocolResetHandler
  5326 ;; This function is called by:
  5327 ;;		_USBCheckBusStatus
  5328 ;; This function uses a non-reentrant model
  5329 ;;
  5330                           
  5331                           	psect	text32
  5332  000C34                     __ptext32:
  5333                           	opt stack 0
  5334  000C34                     _USBSoftAttach:
  5335                           	opt stack 24
  5336                           
  5337                           ;usb_device.c: 352: if(DeviceIsSoftDetached == 1)
  5338                           
  5339                           ;incstack = 0
  5340  000C34  0439               	decf	_DeviceIsSoftDetached,w,c
  5341  000C36  E102               	bnz	l2683
  5342                           
  5343                           ;usb_device.c: 353: {
  5344                           ;usb_device.c: 354: USBDisableWithLongDelay();
  5345  000C38  EC51  F006         	call	_USBDisableWithLongDelay	;wreg free
  5346  000C3C                     l2683:
  5347                           
  5348                           ;usb_device.c: 355: }
  5349                           ;usb_device.c: 357: UCON = 0;
  5350  000C3C  6A65               	clrf	3941,c	;volatile
  5351                           
  5352                           ;usb_device.c: 358: UCFG = 0x10|0x00|0x04|0x01;
  5353  000C3E  0E15               	movlw	21
  5354  000C40  010F               	movlb	15	; () banked
  5355  000C42  6F39               	movwf	57,b	;volatile
  5356                           
  5357                           ; BSR set to: 15
  5358                           ;usb_device.c: 359: UIE = 0;
  5359  000C44  6B36               	clrf	54,b	;volatile
  5360                           
  5361                           ; BSR set to: 15
  5362                           ;usb_device.c: 360: UCONbits.USBEN = 1;
  5363  000C46  8665               	bsf	3941,3,c	;volatile
  5364                           
  5365                           ; BSR set to: 15
  5366                           ;usb_device.c: 362: USBProtocolResetHandler();
  5367  000C48  EC4D  F005         	call	_USBProtocolResetHandler	;wreg free
  5368                           
  5369                           ;usb_device.c: 363: usb_device_state = 1;
  5370  000C4C  0E01               	movlw	1
  5371  000C4E  6E41               	movwf	_usb_device_state,c
  5372                           
  5373                           ;usb_device.c: 364: DeviceIsSoftDetached = 0;
  5374  000C50  6A39               	clrf	_DeviceIsSoftDetached,c
  5375  000C52  0012               	return		;funcret
  5376  000C54                     __end_of_USBSoftAttach:
  5377                           	opt stack 0
  5378                           stkptr	equ	0xFFC
  5379                           tblptru	equ	0xFF8
  5380                           tblptrh	equ	0xFF7
  5381                           tblptrl	equ	0xFF6
  5382                           tablat	equ	0xFF5
  5383                           prodh	equ	0xFF4
  5384                           prodl	equ	0xFF3
  5385                           intcon	equ	0xFF2
  5386                           wreg	equ	0xFE8
  5387                           indf1	equ	0xFE7
  5388                           fsr1h	equ	0xFE2
  5389                           fsr1l	equ	0xFE1
  5390                           indf2	equ	0xFDF
  5391                           postinc2	equ	0xFDE
  5392                           postdec2	equ	0xFDD
  5393                           plusw2	equ	0xFDB
  5394                           fsr2h	equ	0xFDA
  5395                           fsr2l	equ	0xFD9
  5396                           status	equ	0xFD8
  5397                           
  5398 ;; *************** function _USBProtocolResetHandler *****************
  5399 ;; Defined at:
  5400 ;;		line 744 in file "../src/usb_device.c"
  5401 ;; Parameters:    Size  Location     Type
  5402 ;;		None
  5403 ;; Auto vars:     Size  Location     Type
  5404 ;;		None
  5405 ;; Return value:  Size  Location     Type
  5406 ;;		None               void
  5407 ;; Registers used:
  5408 ;;		wreg, fsr2l, fsr2h, status,2, status,0, cstack
  5409 ;; Tracked objects:
  5410 ;;		On entry : 0/F
  5411 ;;		On exit  : 0/0
  5412 ;;		Unchanged: 0/0
  5413 ;; Data sizes:     COMRAM   BANK0   BANK1   BANK2   BANK3   BANK4   BANK5   BANK6   BANK7   BANK8   BANK9  BANK10  BANK1
      +1  BANK12  BANK13  BANK14
  5414 ;;      Params:         0       0       0       0       0       0       0       0       0       0       0       0       
      +0       0       0       0
  5415 ;;      Locals:         0       0       0       0       0       0       0       0       0       0       0       0       
      +0       0       0       0
  5416 ;;      Temps:          0       0       0       0       0       0       0       0       0       0       0       0       
      +0       0       0       0
  5417 ;;      Totals:         0       0       0       0       0       0       0       0       0       0       0       0       
      +0       0       0       0
  5418 ;;Total ram usage:        0 bytes
  5419 ;; Hardware stack levels used:    1
  5420 ;; Hardware stack levels required when called:    2
  5421 ;; This function calls:
  5422 ;;		_ClearWatchdog
  5423 ;;		_LoadBDTandSetUOWN
  5424 ;;		_USBCBInitEP
  5425 ;; This function is called by:
  5426 ;;		_USBSoftAttach
  5427 ;;		_USBDeviceTasks
  5428 ;; This function uses a non-reentrant model
  5429 ;;
  5430                           
  5431                           	psect	text33
  5432  000A9A                     __ptext33:
  5433                           	opt stack 0
  5434  000A9A                     _USBProtocolResetHandler:
  5435                           	opt stack 26
  5436                           
  5437                           ;usb_device.c: 746: usb_device_state = 3;
  5438                           
  5439                           ;incstack = 0
  5440  000A9A  0E03               	movlw	3
  5441  000A9C  6E41               	movwf	_usb_device_state,c
  5442                           
  5443                           ;usb_device.c: 747: UEIE = 0;
  5444  000A9E  010F               	movlb	15	; () banked
  5445  000AA0  6B37               	clrf	55,b	;volatile
  5446                           
  5447                           ; BSR set to: 15
  5448                           ;usb_device.c: 748: UIR = 0;
  5449  000AA2  6A62               	clrf	3938,c	;volatile
  5450                           
  5451                           ;usb_device.c: 749: UIE = 0b01111011;
  5452  000AA4  0E7B               	movlw	123
  5453  000AA6  6F36               	movwf	54,b	;volatile
  5454                           
  5455                           ; BSR set to: 15
  5456                           ;usb_device.c: 750: UADDR = 0x00;
  5457  000AA8  6B38               	clrf	56,b	;volatile
  5458                           
  5459                           ; BSR set to: 15
  5460                           ;usb_device.c: 751: UEP1=0x00;UEP2=0x00;UEP3=0x00; UEP4=0x00;UEP5=0x00;UEP6=0x00;UEP7=0x
      +                          00;;
  5461                           
  5462                           ; BSR set to: 15
  5463                           
  5464                           ; BSR set to: 15
  5465                           
  5466                           ; BSR set to: 15
  5467                           
  5468                           ; BSR set to: 15
  5469                           
  5470                           ; BSR set to: 15
  5471                           
  5472                           ; BSR set to: 15
  5473  000AAA  ECF8  F007         	call	PL14	;call to abstracted procedure
  5474                           
  5475                           ;usb_device.c: 752: UEP0 = 0x06|0x10;
  5476  000AAE  0E16               	movlw	22
  5477  000AB0  6F26               	movwf	38,b	;volatile
  5478                           
  5479                           ; BSR set to: 15
  5480                           ;usb_device.c: 753: UCONbits.PPBRST = 1;
  5481  000AB2  8C65               	bsf	3941,6,c	;volatile
  5482                           
  5483                           ;usb_device.c: 754: while(UIRbits.TRNIF == 1)
  5484  000AB4  D003               	goto	l2487
  5485  000AB6                     l326:
  5486                           
  5487                           ;usb_device.c: 755: {
  5488                           ;usb_device.c: 756: UIRbits.TRNIF = 0;
  5489  000AB6  9662               	bcf	3938,3,c	;volatile
  5490                           
  5491                           ;usb_device.c: 757: ClearWatchdog();
  5492  000AB8  EC70  F006         	call	_ClearWatchdog	;wreg free
  5493  000ABC                     l2487:
  5494  000ABC  B662               	btfsc	3938,3,c	;volatile
  5495  000ABE  D7FB               	goto	l326
  5496                           
  5497                           ;usb_device.c: 758: }
  5498                           ;usb_device.c: 759: UCONbits.PPBRST = 0;
  5499  000AC0  9C65               	bcf	3941,6,c	;volatile
  5500                           
  5501                           ;usb_device.c: 760: UCONbits.PKTDIS = 0;
  5502  000AC2  9865               	bcf	3941,4,c	;volatile
  5503                           
  5504                           ;usb_device.c: 763: TempBDT.Stat._byte = 0x00|0x04;
  5505  000AC4  0E04               	movlw	4
  5506  000AC6  6E19               	movwf	_TempBDT,c
  5507                           
  5508                           ;usb_device.c: 764: LoadBDTandSetUOWN(0);
  5509  000AC8  0E00               	movlw	0
  5510  000ACA  EC08  F005         	call	_LoadBDTandSetUOWN
  5511                           
  5512                           ;usb_device.c: 765: EP0OutOddNeedsArmingNext = 1;
  5513  000ACE  0E01               	movlw	1
  5514  000AD0  6E3A               	movwf	_EP0OutOddNeedsArmingNext,c
  5515                           
  5516                           ;usb_device.c: 766: usb_stat._byte = 0x00;
  5517  000AD2  6A42               	clrf	_usb_stat,c
  5518                           
  5519                           ;usb_device.c: 767: usb_active_cfg = 0;
  5520  000AD4  6A45               	clrf	_usb_active_cfg,c
  5521                           
  5522                           ;usb_device.c: 768: USBCBInitEP(0);
  5523  000AD6  0E00               	movlw	0
  5524  000AD8  EF49  F006         	goto	_USBCBInitEP
  5525  000ADC                     __end_of_USBProtocolResetHandler:
  5526                           	opt stack 0
  5527                           stkptr	equ	0xFFC
  5528                           tblptru	equ	0xFF8
  5529                           tblptrh	equ	0xFF7
  5530                           tblptrl	equ	0xFF6
  5531                           tablat	equ	0xFF5
  5532                           prodh	equ	0xFF4
  5533                           prodl	equ	0xFF3
  5534                           intcon	equ	0xFF2
  5535                           wreg	equ	0xFE8
  5536                           indf1	equ	0xFE7
  5537                           fsr1h	equ	0xFE2
  5538                           fsr1l	equ	0xFE1
  5539                           indf2	equ	0xFDF
  5540                           postinc2	equ	0xFDE
  5541                           postdec2	equ	0xFDD
  5542                           plusw2	equ	0xFDB
  5543                           fsr2h	equ	0xFDA
  5544                           fsr2l	equ	0xFD9
  5545                           status	equ	0xFD8
  5546                           
  5547 ;; *************** function _USBCBInitEP *****************
  5548 ;; Defined at:
  5549 ;;		line 830 in file "../src/main.c"
  5550 ;; Parameters:    Size  Location     Type
  5551 ;;  Configuratio    1    wreg     unsigned char 
  5552 ;; Auto vars:     Size  Location     Type
  5553 ;;  Configuratio    1    0[COMRAM] unsigned char 
  5554 ;; Return value:  Size  Location     Type
  5555 ;;		None               void
  5556 ;; Registers used:
  5557 ;;		wreg, status,2, status,0, cstack
  5558 ;; Tracked objects:
  5559 ;;		On entry : 0/F
  5560 ;;		On exit  : 0/0
  5561 ;;		Unchanged: 0/0
  5562 ;; Data sizes:     COMRAM   BANK0   BANK1   BANK2   BANK3   BANK4   BANK5   BANK6   BANK7   BANK8   BANK9  BANK10  BANK1
      +1  BANK12  BANK13  BANK14
  5563 ;;      Params:         0       0       0       0       0       0       0       0       0       0       0       0       
      +0       0       0       0
  5564 ;;      Locals:         1       0       0       0       0       0       0       0       0       0       0       0       
      +0       0       0       0
  5565 ;;      Temps:          0       0       0       0       0       0       0       0       0       0       0       0       
      +0       0       0       0
  5566 ;;      Totals:         1       0       0       0       0       0       0       0       0       0       0       0       
      +0       0       0       0
  5567 ;;Total ram usage:        1 bytes
  5568 ;; Hardware stack levels used:    1
  5569 ;; Hardware stack levels required when called:    1
  5570 ;; This function calls:
  5571 ;;		_HIDInitEP
  5572 ;;		_UserInit
  5573 ;; This function is called by:
  5574 ;;		_USBProtocolResetHandler
  5575 ;;		_USBStdSetCfgHandler
  5576 ;; This function uses a non-reentrant model
  5577 ;;
  5578                           
  5579                           	psect	text34
  5580  000C92                     __ptext34:
  5581                           	opt stack 0
  5582  000C92                     _USBCBInitEP:
  5583                           	opt stack 26
  5584                           
  5585                           ;incstack = 0
  5586                           ;USBCBInitEP@ConfigurationIndex stored from wreg
  5587  000C92  6E47               	movwf	USBCBInitEP@ConfigurationIndex,c
  5588                           
  5589                           ;main.c: 839: if(ConfigurationIndex == 1)
  5590  000C94  0447               	decf	USBCBInitEP@ConfigurationIndex,w,c
  5591  000C96  A4D8               	btfss	status,2,c
  5592  000C98  0012               	return	
  5593                           
  5594                           ;main.c: 840: {
  5595                           ;main.c: 845: HIDInitEP();
  5596  000C9A  ECD1  F005         	call	_HIDInitEP	;wreg free
  5597                           
  5598                           ; BSR set to: 13
  5599                           ;main.c: 848: UserInit();
  5600  000C9E  EFBC  F005         	goto	_UserInit	;wreg free
  5601  000CA2                     __end_of_USBCBInitEP:
  5602                           	opt stack 0
  5603                           stkptr	equ	0xFFC
  5604                           tblptru	equ	0xFF8
  5605                           tblptrh	equ	0xFF7
  5606                           tblptrl	equ	0xFF6
  5607                           tablat	equ	0xFF5
  5608                           prodh	equ	0xFF4
  5609                           prodl	equ	0xFF3
  5610                           intcon	equ	0xFF2
  5611                           wreg	equ	0xFE8
  5612                           indf1	equ	0xFE7
  5613                           fsr1h	equ	0xFE2
  5614                           fsr1l	equ	0xFE1
  5615                           indf2	equ	0xFDF
  5616                           postinc2	equ	0xFDE
  5617                           postdec2	equ	0xFDD
  5618                           plusw2	equ	0xFDB
  5619                           fsr2h	equ	0xFDA
  5620                           fsr2l	equ	0xFD9
  5621                           status	equ	0xFD8
  5622                           
  5623 ;; *************** function _UserInit *****************
  5624 ;; Defined at:
  5625 ;;		line 237 in file "../src/boot_18fxxjxx.c"
  5626 ;; Parameters:    Size  Location     Type
  5627 ;;		None
  5628 ;; Auto vars:     Size  Location     Type
  5629 ;;		None
  5630 ;; Return value:  Size  Location     Type
  5631 ;;		None               void
  5632 ;; Registers used:
  5633 ;;		wreg, status,2
  5634 ;; Tracked objects:
  5635 ;;		On entry : D/F
  5636 ;;		On exit  : D/D
  5637 ;;		Unchanged: C/0
  5638 ;; Data sizes:     COMRAM   BANK0   BANK1   BANK2   BANK3   BANK4   BANK5   BANK6   BANK7   BANK8   BANK9  BANK10  BANK1
      +1  BANK12  BANK13  BANK14
  5639 ;;      Params:         0       0       0       0       0       0       0       0       0       0       0       0       
      +0       0       0       0
  5640 ;;      Locals:         0       0       0       0       0       0       0       0       0       0       0       0       
      +0       0       0       0
  5641 ;;      Temps:          0       0       0       0       0       0       0       0       0       0       0       0       
      +0       0       0       0
  5642 ;;      Totals:         0       0       0       0       0       0       0       0       0       0       0       0       
      +0       0       0       0
  5643 ;;Total ram usage:        0 bytes
  5644 ;; Hardware stack levels used:    1
  5645 ;; This function calls:
  5646 ;;		Nothing
  5647 ;; This function is called by:
  5648 ;;		_InitializeSystem
  5649 ;;		_USBCBInitEP
  5650 ;; This function uses a non-reentrant model
  5651 ;;
  5652                           
  5653                           	psect	text35
  5654  000B78                     __ptext35:
  5655                           	opt stack 0
  5656  000B78                     _UserInit:
  5657                           	opt stack 0
  5658                           
  5659                           ;boot_18fxxjxx.c: 240: MaxPageToErase = ((((uint32_t)0x01FFF8)/1024) - 1);
  5660                           
  5661                           ;incstack = 0
  5662                           
  5663                           ;boot_18fxxjxx.c: 241: ProgramMemStopAddress = ((((((uint32_t)0x01FFF8)/1024) - 1) + 1) 
      +                          * 1024);
  5664  000B78  D805               	call	PL28	;call to abstracted procedure
  5665  000B7A  D80F               	call	PL42	;call to abstracted procedure
  5666                           
  5667                           ;boot_18fxxjxx.c: 242: BootState = 0x00;
  5668  000B7C  6A37               	clrf	_BootState,c
  5669                           
  5670                           ;boot_18fxxjxx.c: 243: ProgrammedPointer = 0xFFFFFFFF;
  5671  000B7E  D808               	call	PL34	;call to abstracted procedure
  5672                           
  5673                           ;boot_18fxxjxx.c: 244: BufferedDataIndex = 0;
  5674  000B80  6A38               	clrf	_BufferedDataIndex,c
  5675  000B82  0012               	return		;funcret
  5676  000B84                     __end_of_UserInit:
  5677                           	opt stack 0
  5678  000B84                     PL28:
  5679                           	opt stack 23
  5680  000B84  0E7E               	movlw	126
  5681  000B86  6E3B               	movwf	_MaxPageToErase,c
  5682  000B88  6A11               	clrf	_ProgramMemStopAddress,c
  5683  000B8A  0EFC               	movlw	252
  5684  000B8C  6E12               	movwf	_ProgramMemStopAddress+1,c
  5685  000B8E  0CFC               	retlw	252
  5686  000B90                     __end_ofPL28:
  5687                           	opt stack 0
  5688  000B90                     PL34:
  5689                           	opt stack 23
  5690  000B90  6815               	setf	_ProgrammedPointer,c
  5691  000B92  6816               	setf	_ProgrammedPointer+1,c
  5692  000B94  6817               	setf	_ProgrammedPointer+2,c
  5693  000B96  6818               	setf	_ProgrammedPointer+3,c
  5694  000B98  0012               	return	
  5695  000B9A                     __end_ofPL34:
  5696                           	opt stack 0
  5697  000B9A                     PL42:
  5698                           	opt stack 23
  5699  000B9A  0E01               	movlw	1
  5700  000B9C  6E13               	movwf	_ProgramMemStopAddress+2,c
  5701  000B9E  6A14               	clrf	_ProgramMemStopAddress+3,c
  5702  000BA0  0C00               	retlw	0
  5703  000BA2                     __end_ofPL42:
  5704                           	opt stack 0
  5705                           stkptr	equ	0xFFC
  5706                           tblptru	equ	0xFF8
  5707                           tblptrh	equ	0xFF7
  5708                           tblptrl	equ	0xFF6
  5709                           tablat	equ	0xFF5
  5710                           prodh	equ	0xFF4
  5711                           prodl	equ	0xFF3
  5712                           intcon	equ	0xFF2
  5713                           wreg	equ	0xFE8
  5714                           indf1	equ	0xFE7
  5715                           fsr1h	equ	0xFE2
  5716                           fsr1l	equ	0xFE1
  5717                           indf2	equ	0xFDF
  5718                           postinc2	equ	0xFDE
  5719                           postdec2	equ	0xFDD
  5720                           plusw2	equ	0xFDB
  5721                           fsr2h	equ	0xFDA
  5722                           fsr2l	equ	0xFD9
  5723                           status	equ	0xFD8
  5724                           
  5725 ;; *************** function _HIDInitEP *****************
  5726 ;; Defined at:
  5727 ;;		line 171 in file "../src/usb_device_hid.c"
  5728 ;; Parameters:    Size  Location     Type
  5729 ;;		None
  5730 ;; Auto vars:     Size  Location     Type
  5731 ;;		None
  5732 ;; Return value:  Size  Location     Type
  5733 ;;		None               void
  5734 ;; Registers used:
  5735 ;;		wreg, status,2, status,0
  5736 ;; Tracked objects:
  5737 ;;		On entry : 0/F
  5738 ;;		On exit  : F/D
  5739 ;;		Unchanged: 0/0
  5740 ;; Data sizes:     COMRAM   BANK0   BANK1   BANK2   BANK3   BANK4   BANK5   BANK6   BANK7   BANK8   BANK9  BANK10  BANK1
      +1  BANK12  BANK13  BANK14
  5741 ;;      Params:         0       0       0       0       0       0       0       0       0       0       0       0       
      +0       0       0       0
  5742 ;;      Locals:         0       0       0       0       0       0       0       0       0       0       0       0       
      +0       0       0       0
  5743 ;;      Temps:          0       0       0       0       0       0       0       0       0       0       0       0       
      +0       0       0       0
  5744 ;;      Totals:         0       0       0       0       0       0       0       0       0       0       0       0       
      +0       0       0       0
  5745 ;;Total ram usage:        0 bytes
  5746 ;; Hardware stack levels used:    1
  5747 ;; This function calls:
  5748 ;;		Nothing
  5749 ;; This function is called by:
  5750 ;;		_USBCBInitEP
  5751 ;; This function uses a non-reentrant model
  5752 ;;
  5753                           
  5754                           	psect	text36
  5755  000BA2                     __ptext36:
  5756                           	opt stack 0
  5757  000BA2                     _HIDInitEP:
  5758                           	opt stack 26
  5759                           
  5760                           ;usb_device_hid.c: 173: hid_rpt_rx_len =0;
  5761                           
  5762                           ;incstack = 0
  5763  000BA2  6A3F               	clrf	_hid_rpt_rx_len,c
  5764                           
  5765                           ;usb_device_hid.c: 175: UEP1 = 0x0E|0x10;
  5766  000BA4  0E1E               	movlw	30
  5767  000BA6  010F               	movlb	15	; () banked
  5768  000BA8  6F27               	movwf	39,b	;volatile
  5769                           
  5770                           ;usb_device_hid.c: 178: ep1Bo.Cnt = sizeof(hid_report_out);
  5771  000BAA  0E40               	movlw	64
  5772  000BAC  010D               	movlb	13	; () banked
  5773  000BAE  6F0D               	movwf	13,b	;volatile
  5774                           
  5775                           ; BSR set to: 13
  5776                           ;usb_device_hid.c: 179: ep1Bo.ADR = (uint8_t*)&hid_report_out;
  5777  000BB0  0E2C               	movlw	44
  5778  000BB2  6F0E               	movwf	14,b	;volatile
  5779  000BB4  0E0D               	movlw	13
  5780  000BB6  6F0F               	movwf	15,b	;volatile
  5781                           
  5782                           ; BSR set to: 13
  5783                           ;usb_device_hid.c: 180: ep1Bo.Stat._byte = 0x00|0x08;
  5784  000BB8  0E08               	movlw	8
  5785  000BBA  6F0C               	movwf	12,b	;volatile
  5786                           
  5787                           ; BSR set to: 13
  5788                           ;usb_device_hid.c: 181: ep1Bo.Stat._byte |= 0x80;
  5789  000BBC  8F0C               	bsf	12,7,b	;volatile
  5790                           
  5791                           ; BSR set to: 13
  5792                           ;usb_device_hid.c: 194: ep1Bi.ADR = (uint8_t*)&hid_report_in;
  5793  000BBE  0E6C               	movlw	108
  5794  000BC0  6F12               	movwf	18,b	;volatile
  5795  000BC2  0E0D               	movlw	13
  5796  000BC4  6F13               	movwf	19,b	;volatile
  5797                           
  5798                           ; BSR set to: 13
  5799                           ;usb_device_hid.c: 195: ep1Bi.Stat._byte = 0x00|0x40;
  5800  000BC6  0E40               	movlw	64
  5801  000BC8  6F10               	movwf	16,b	;volatile
  5802                           
  5803                           ; BSR set to: 13
  5804  000BCA  0C40               	retlw	64	;funcret
  5805  000BCC                     __end_of_HIDInitEP:
  5806                           	opt stack 0
  5807                           stkptr	equ	0xFFC
  5808                           tblptru	equ	0xFF8
  5809                           tblptrh	equ	0xFF7
  5810                           tblptrl	equ	0xFF6
  5811                           tablat	equ	0xFF5
  5812                           prodh	equ	0xFF4
  5813                           prodl	equ	0xFF3
  5814                           intcon	equ	0xFF2
  5815                           wreg	equ	0xFE8
  5816                           indf1	equ	0xFE7
  5817                           fsr1h	equ	0xFE2
  5818                           fsr1l	equ	0xFE1
  5819                           indf2	equ	0xFDF
  5820                           postinc2	equ	0xFDE
  5821                           postdec2	equ	0xFDD
  5822                           plusw2	equ	0xFDB
  5823                           fsr2h	equ	0xFDA
  5824                           fsr2l	equ	0xFD9
  5825                           status	equ	0xFD8
  5826                           
  5827 ;; *************** function _LoadBDTandSetUOWN *****************
  5828 ;; Defined at:
  5829 ;;		line 1583 in file "../src/usb_device.c"
  5830 ;; Parameters:    Size  Location     Type
  5831 ;;  BDTIndexToLo    1    wreg     unsigned char 
  5832 ;; Auto vars:     Size  Location     Type
  5833 ;;  BDTIndexToLo    1    0[COMRAM] unsigned char 
  5834 ;; Return value:  Size  Location     Type
  5835 ;;		None               void
  5836 ;; Registers used:
  5837 ;;		wreg, fsr2l, fsr2h, status,2, status,0
  5838 ;; Tracked objects:
  5839 ;;		On entry : 0/D
  5840 ;;		On exit  : 0/0
  5841 ;;		Unchanged: 0/0
  5842 ;; Data sizes:     COMRAM   BANK0   BANK1   BANK2   BANK3   BANK4   BANK5   BANK6   BANK7   BANK8   BANK9  BANK10  BANK1
      +1  BANK12  BANK13  BANK14
  5843 ;;      Params:         0       0       0       0       0       0       0       0       0       0       0       0       
      +0       0       0       0
  5844 ;;      Locals:         1       0       0       0       0       0       0       0       0       0       0       0       
      +0       0       0       0
  5845 ;;      Temps:          0       0       0       0       0       0       0       0       0       0       0       0       
      +0       0       0       0
  5846 ;;      Totals:         1       0       0       0       0       0       0       0       0       0       0       0       
      +0       0       0       0
  5847 ;;Total ram usage:        1 bytes
  5848 ;; Hardware stack levels used:    1
  5849 ;; This function calls:
  5850 ;;		Nothing
  5851 ;; This function is called by:
  5852 ;;		_USBProtocolResetHandler
  5853 ;;		_USBCtrlEPServiceComplete
  5854 ;; This function uses a non-reentrant model
  5855 ;;
  5856                           
  5857                           	psect	text37
  5858  000A10                     __ptext37:
  5859                           	opt stack 0
  5860  000A10                     _LoadBDTandSetUOWN:
  5861                           	opt stack 27
  5862                           
  5863                           ; BSR set to: 13
  5864                           ;incstack = 0
  5865                           ;LoadBDTandSetUOWN@BDTIndexToLoad stored from wreg
  5866  000A10  6E47               	movwf	LoadBDTandSetUOWN@BDTIndexToLoad,c
  5867                           
  5868                           ;usb_device.c: 1585: static volatile BDT* pBDTEntry;
  5869                           ;usb_device.c: 1591: TempBDT.Cnt = 8;
  5870  000A12  0E08               	movlw	8
  5871  000A14  6E1A               	movwf	_TempBDT+1,c
  5872                           
  5873                           ;usb_device.c: 1592: TempBDT.ADR = (uint8_t*)&EP0OutOddBuf[0];
  5874  000A16  0E1C               	movlw	28
  5875  000A18  6E1B               	movwf	_TempBDT+2,c
  5876  000A1A  0E0D               	movlw	13
  5877  000A1C  6E1C               	movwf	_TempBDT+3,c
  5878                           
  5879                           ;usb_device.c: 1593: if(BDTIndexToLoad == 0)
  5880  000A1E  5047               	movf	LoadBDTandSetUOWN@BDTIndexToLoad,w,c
  5881  000A20  E106               	bnz	l2367
  5882                           
  5883                           ;usb_device.c: 1594: {
  5884                           ;usb_device.c: 1595: TempBDT.ADR = (uint8_t*)&EP0OutEvenBuf[0];
  5885  000A22  0E14               	movlw	20
  5886  000A24  6E1B               	movwf	_TempBDT+2,c
  5887  000A26  0E0D               	movlw	13
  5888  000A28  6E1C               	movwf	_TempBDT+3,c
  5889                           
  5890                           ;usb_device.c: 1596: pBDTEntry = (volatile BDT*)0xD00;
  5891  000A2A  6A25               	clrf	LoadBDTandSetUOWN@pBDTEntry,c
  5892  000A2C  D003               	goto	L10
  5893  000A2E                     l2367:
  5894                           
  5895                           ;usb_device.c: 1598: else
  5896                           ;usb_device.c: 1599: {
  5897                           ;usb_device.c: 1600: pBDTEntry = (volatile BDT*)(0xD00 + 4);
  5898  000A2E  0E04               	movlw	4
  5899  000A30  6E25               	movwf	LoadBDTandSetUOWN@pBDTEntry,c
  5900  000A32  0E0D               	movlw	13
  5901  000A34                     L10:
  5902  000A34  6E26               	movwf	LoadBDTandSetUOWN@pBDTEntry+1,c
  5903                           
  5904                           ;usb_device.c: 1601: }
  5905                           ;usb_device.c: 1604: *pBDTEntry = TempBDT;
  5906  000A36  D80B               	call	PL36	;call to abstracted procedure
  5907  000A38  C019  FFDE         	movff	_TempBDT,postinc2
  5908  000A3C  C01A  FFDE         	movff	_TempBDT+1,postinc2
  5909  000A40  C01B  FFDE         	movff	_TempBDT+2,postinc2
  5910  000A44  C01C  FFDE         	movff	_TempBDT+3,postinc2
  5911                           
  5912                           ;usb_device.c: 1607: pBDTEntry->Stat.UOWN = 1;
  5913  000A48  D802               	call	PL36	;call to abstracted procedure
  5914  000A4A  8EDF               	bsf	indf2,7,c
  5915  000A4C  0012               	return		;funcret
  5916  000A4E                     __end_of_LoadBDTandSetUOWN:
  5917                           	opt stack 0
  5918  000A4E                     PL36:
  5919                           	opt stack 27
  5920  000A4E  C025  FFD9         	movff	LoadBDTandSetUOWN@pBDTEntry,fsr2l
  5921  000A52  C026  FFDA         	movff	LoadBDTandSetUOWN@pBDTEntry+1,fsr2h
  5922  000A56  0012               	return	
  5923  000A58                     __end_ofPL36:
  5924                           	opt stack 0
  5925                           stkptr	equ	0xFFC
  5926                           tblptru	equ	0xFF8
  5927                           tblptrh	equ	0xFF7
  5928                           tblptrl	equ	0xFF6
  5929                           tablat	equ	0xFF5
  5930                           prodh	equ	0xFF4
  5931                           prodl	equ	0xFF3
  5932                           intcon	equ	0xFF2
  5933                           wreg	equ	0xFE8
  5934                           indf1	equ	0xFE7
  5935                           fsr1h	equ	0xFE2
  5936                           fsr1l	equ	0xFE1
  5937                           indf2	equ	0xFDF
  5938                           postinc2	equ	0xFDE
  5939                           postdec2	equ	0xFDD
  5940                           plusw2	equ	0xFDB
  5941                           fsr2h	equ	0xFDA
  5942                           fsr2l	equ	0xFD9
  5943                           status	equ	0xFD8
  5944                           
  5945 ;; *************** function _USBDisableWithLongDelay *****************
  5946 ;; Defined at:
  5947 ;;		line 1615 in file "../src/usb_device.c"
  5948 ;; Parameters:    Size  Location     Type
  5949 ;;		None
  5950 ;; Auto vars:     Size  Location     Type
  5951 ;;		None
  5952 ;; Return value:  Size  Location     Type
  5953 ;;		None               void
  5954 ;; Registers used:
  5955 ;;		wreg, status,2, status,0, cstack
  5956 ;; Tracked objects:
  5957 ;;		On entry : 0/0
  5958 ;;		On exit  : 0/0
  5959 ;;		Unchanged: 0/0
  5960 ;; Data sizes:     COMRAM   BANK0   BANK1   BANK2   BANK3   BANK4   BANK5   BANK6   BANK7   BANK8   BANK9  BANK10  BANK1
      +1  BANK12  BANK13  BANK14
  5961 ;;      Params:         0       0       0       0       0       0       0       0       0       0       0       0       
      +0       0       0       0
  5962 ;;      Locals:         0       0       0       0       0       0       0       0       0       0       0       0       
      +0       0       0       0
  5963 ;;      Temps:          0       0       0       0       0       0       0       0       0       0       0       0       
      +0       0       0       0
  5964 ;;      Totals:         0       0       0       0       0       0       0       0       0       0       0       0       
      +0       0       0       0
  5965 ;;Total ram usage:        0 bytes
  5966 ;; Hardware stack levels used:    1
  5967 ;; Hardware stack levels required when called:    2
  5968 ;; This function calls:
  5969 ;;		_DelayRoutine
  5970 ;; This function is called by:
  5971 ;;		_USBDeviceInit
  5972 ;;		_USBSoftAttach
  5973 ;;		_ResetDeviceCleanly
  5974 ;; This function uses a non-reentrant model
  5975 ;;
  5976                           
  5977                           	psect	text38
  5978  000CA2                     __ptext38:
  5979                           	opt stack 0
  5980  000CA2                     _USBDisableWithLongDelay:
  5981                           	opt stack 24
  5982                           
  5983                           ;usb_device.c: 1617: UCONbits.SUSPND = 0;
  5984                           
  5985                           ;incstack = 0
  5986  000CA2  9265               	bcf	3941,1,c	;volatile
  5987                           
  5988                           ;usb_device.c: 1618: UCON = 0x00;
  5989  000CA4  6A65               	clrf	3941,c	;volatile
  5990                           
  5991                           ;usb_device.c: 1619: DelayRoutine(0xFFFF);
  5992  000CA6  6848               	setf	DelayRoutine@DelayAmount+1,c
  5993  000CA8  6847               	setf	DelayRoutine@DelayAmount,c
  5994  000CAA  EC3F  F006         	call	_DelayRoutine	;wreg free
  5995                           
  5996                           ;usb_device.c: 1620: usb_device_state = 0;
  5997  000CAE  6A41               	clrf	_usb_device_state,c
  5998  000CB0  0012               	return		;funcret
  5999  000CB2                     __end_of_USBDisableWithLongDelay:
  6000                           	opt stack 0
  6001                           stkptr	equ	0xFFC
  6002                           tblptru	equ	0xFF8
  6003                           tblptrh	equ	0xFF7
  6004                           tblptrl	equ	0xFF6
  6005                           tablat	equ	0xFF5
  6006                           prodh	equ	0xFF4
  6007                           prodl	equ	0xFF3
  6008                           intcon	equ	0xFF2
  6009                           wreg	equ	0xFE8
  6010                           indf1	equ	0xFE7
  6011                           fsr1h	equ	0xFE2
  6012                           fsr1l	equ	0xFE1
  6013                           indf2	equ	0xFDF
  6014                           postinc2	equ	0xFDE
  6015                           postdec2	equ	0xFDD
  6016                           plusw2	equ	0xFDB
  6017                           fsr2h	equ	0xFDA
  6018                           fsr2l	equ	0xFD9
  6019                           status	equ	0xFD8
  6020                           
  6021 ;; *************** function _DelayRoutine *****************
  6022 ;; Defined at:
  6023 ;;		line 1625 in file "../src/usb_device.c"
  6024 ;; Parameters:    Size  Location     Type
  6025 ;;  DelayAmount     2    0[COMRAM] unsigned int 
  6026 ;; Auto vars:     Size  Location     Type
  6027 ;;		None
  6028 ;; Return value:  Size  Location     Type
  6029 ;;		None               void
  6030 ;; Registers used:
  6031 ;;		wreg, status,2, status,0, cstack
  6032 ;; Tracked objects:
  6033 ;;		On entry : 0/F
  6034 ;;		On exit  : 0/0
  6035 ;;		Unchanged: 0/0
  6036 ;; Data sizes:     COMRAM   BANK0   BANK1   BANK2   BANK3   BANK4   BANK5   BANK6   BANK7   BANK8   BANK9  BANK10  BANK1
      +1  BANK12  BANK13  BANK14
  6037 ;;      Params:         2       0       0       0       0       0       0       0       0       0       0       0       
      +0       0       0       0
  6038 ;;      Locals:         0       0       0       0       0       0       0       0       0       0       0       0       
      +0       0       0       0
  6039 ;;      Temps:          0       0       0       0       0       0       0       0       0       0       0       0       
      +0       0       0       0
  6040 ;;      Totals:         2       0       0       0       0       0       0       0       0       0       0       0       
      +0       0       0       0
  6041 ;;Total ram usage:        2 bytes
  6042 ;; Hardware stack levels used:    1
  6043 ;; Hardware stack levels required when called:    1
  6044 ;; This function calls:
  6045 ;;		_ClearWatchdog
  6046 ;; This function is called by:
  6047 ;;		_InitializeSystem
  6048 ;;		_USBCBWakeFromSuspend
  6049 ;;		_USBDisableWithLongDelay
  6050 ;; This function uses a non-reentrant model
  6051 ;;
  6052                           
  6053                           	psect	text39
  6054  000C7E                     __ptext39:
  6055                           	opt stack 0
  6056  000C7E                     _DelayRoutine:
  6057                           	opt stack 25
  6058                           
  6059                           ;usb_device.c: 1627: while(DelayAmount)
  6060                           
  6061                           ;incstack = 0
  6062  000C7E  D005               	goto	l2353
  6063  000C80                     l2349:
  6064                           
  6065                           ;usb_device.c: 1628: {
  6066                           ;usb_device.c: 1629: ClearWatchdog();
  6067  000C80  EC70  F006         	call	_ClearWatchdog	;wreg free
  6068                           
  6069                           ;usb_device.c: 1630: DelayAmount--;
  6070  000C84  0647               	decf	DelayRoutine@DelayAmount,f,c
  6071  000C86  A0D8               	btfss	status,0,c
  6072  000C88  0648               	decf	DelayRoutine@DelayAmount+1,f,c
  6073  000C8A                     l2353:
  6074  000C8A  5047               	movf	DelayRoutine@DelayAmount,w,c
  6075  000C8C  1048               	iorwf	DelayRoutine@DelayAmount+1,w,c
  6076  000C8E  E1F8               	bnz	l2349
  6077  000C90  0012               	return		;funcret
  6078  000C92                     __end_of_DelayRoutine:
  6079                           	opt stack 0
  6080                           stkptr	equ	0xFFC
  6081                           tblptru	equ	0xFF8
  6082                           tblptrh	equ	0xFF7
  6083                           tblptrl	equ	0xFF6
  6084                           tablat	equ	0xFF5
  6085                           prodh	equ	0xFF4
  6086                           prodl	equ	0xFF3
  6087                           intcon	equ	0xFF2
  6088                           wreg	equ	0xFE8
  6089                           indf1	equ	0xFE7
  6090                           fsr1h	equ	0xFE2
  6091                           fsr1l	equ	0xFE1
  6092                           indf2	equ	0xFDF
  6093                           postinc2	equ	0xFDE
  6094                           postdec2	equ	0xFDD
  6095                           plusw2	equ	0xFDB
  6096                           fsr2h	equ	0xFDA
  6097                           fsr2l	equ	0xFD9
  6098                           status	equ	0xFD8
  6099                           
  6100 ;; *************** function _ClearWatchdog *****************
  6101 ;; Defined at:
  6102 ;;		line 1642 in file "../src/usb_device.c"
  6103 ;; Parameters:    Size  Location     Type
  6104 ;;		None
  6105 ;; Auto vars:     Size  Location     Type
  6106 ;;		None
  6107 ;; Return value:  Size  Location     Type
  6108 ;;		None               void
  6109 ;; Registers used:
  6110 ;;		None
  6111 ;; Tracked objects:
  6112 ;;		On entry : 0/0
  6113 ;;		On exit  : 0/0
  6114 ;;		Unchanged: 0/0
  6115 ;; Data sizes:     COMRAM   BANK0   BANK1   BANK2   BANK3   BANK4   BANK5   BANK6   BANK7   BANK8   BANK9  BANK10  BANK1
      +1  BANK12  BANK13  BANK14
  6116 ;;      Params:         0       0       0       0       0       0       0       0       0       0       0       0       
      +0       0       0       0
  6117 ;;      Locals:         0       0       0       0       0       0       0       0       0       0       0       0       
      +0       0       0       0
  6118 ;;      Temps:          0       0       0       0       0       0       0       0       0       0       0       0       
      +0       0       0       0
  6119 ;;      Totals:         0       0       0       0       0       0       0       0       0       0       0       0       
      +0       0       0       0
  6120 ;;Total ram usage:        0 bytes
  6121 ;; Hardware stack levels used:    1
  6122 ;; This function calls:
  6123 ;;		Nothing
  6124 ;; This function is called by:
  6125 ;;		_USBProtocolResetHandler
  6126 ;;		_DelayRoutine
  6127 ;;		_ProcessIO
  6128 ;;		_SignFlash
  6129 ;; This function uses a non-reentrant model
  6130 ;;
  6131                           
  6132                           	psect	text40
  6133  000CE0                     __ptext40:
  6134                           	opt stack 0
  6135  000CE0                     _ClearWatchdog:
  6136                           	opt stack 25
  6137                           
  6138                           ;incstack = 0
  6139  000CE0  0004               	clrwdt		;# 
  6140  000CE2  0012               	return		;funcret
  6141  000CE4                     __end_of_ClearWatchdog:
  6142                           	opt stack 0
  6143                           stkptr	equ	0xFFC
  6144                           tblptru	equ	0xFF8
  6145                           tblptrh	equ	0xFF7
  6146                           tblptrl	equ	0xFF6
  6147                           tablat	equ	0xFF5
  6148                           prodh	equ	0xFF4
  6149                           prodl	equ	0xFF3
  6150                           intcon	equ	0xFF2
  6151                           wreg	equ	0xFE8
  6152                           indf1	equ	0xFE7
  6153                           fsr1h	equ	0xFE2
  6154                           fsr1l	equ	0xFE1
  6155                           indf2	equ	0xFDF
  6156                           postinc2	equ	0xFDE
  6157                           postdec2	equ	0xFDD
  6158                           plusw2	equ	0xFDB
  6159                           fsr2h	equ	0xFDA
  6160                           fsr2l	equ	0xFD9
  6161                           status	equ	0xFD8
  6162                           
  6163 ;; *************** function _BlinkUSBStatus *****************
  6164 ;; Defined at:
  6165 ;;		line 611 in file "../src/main.c"
  6166 ;; Parameters:    Size  Location     Type
  6167 ;;		None
  6168 ;; Auto vars:     Size  Location     Type
  6169 ;;		None
  6170 ;; Return value:  Size  Location     Type
  6171 ;;		None               void
  6172 ;; Registers used:
  6173 ;;		wreg, status,2, status,0
  6174 ;; Tracked objects:
  6175 ;;		On entry : 0/F
  6176 ;;		On exit  : 0/0
  6177 ;;		Unchanged: 0/0
  6178 ;; Data sizes:     COMRAM   BANK0   BANK1   BANK2   BANK3   BANK4   BANK5   BANK6   BANK7   BANK8   BANK9  BANK10  BANK1
      +1  BANK12  BANK13  BANK14
  6179 ;;      Params:         0       0       0       0       0       0       0       0       0       0       0       0       
      +0       0       0       0
  6180 ;;      Locals:         0       0       0       0       0       0       0       0       0       0       0       0       
      +0       0       0       0
  6181 ;;      Temps:          1       0       0       0       0       0       0       0       0       0       0       0       
      +0       0       0       0
  6182 ;;      Totals:         1       0       0       0       0       0       0       0       0       0       0       0       
      +0       0       0       0
  6183 ;;Total ram usage:        1 bytes
  6184 ;; Hardware stack levels used:    1
  6185 ;; This function calls:
  6186 ;;		Nothing
  6187 ;; This function is called by:
  6188 ;;		_BootMain
  6189 ;; This function uses a non-reentrant model
  6190 ;;
  6191                           
  6192                           	psect	text41
  6193  000ADC                     __ptext41:
  6194                           	opt stack 0
  6195  000ADC                     _BlinkUSBStatus:
  6196                           	opt stack 29
  6197                           
  6198                           ;main.c: 614: static unsigned int led_count = 0;
  6199                           ;main.c: 616: led_count--;
  6200                           
  6201                           ;incstack = 0
  6202  000ADC  0623               	decf	BlinkUSBStatus@led_count,f,c
  6203  000ADE  A0D8               	btfss	status,0,c
  6204  000AE0  0624               	decf	BlinkUSBStatus@led_count+1,f,c
  6205                           
  6206                           ;main.c: 617: if(led_count == 0)
  6207  000AE2  5023               	movf	BlinkUSBStatus@led_count,w,c
  6208  000AE4  1024               	iorwf	BlinkUSBStatus@led_count+1,w,c
  6209  000AE6  A4D8               	btfss	status,2,c
  6210  000AE8  0012               	return	
  6211                           
  6212                           ;main.c: 618: {
  6213                           ;main.c: 619: led_count = 0x4E00;
  6214  000AEA  0E4E               	movlw	78
  6215  000AEC  6E24               	movwf	BlinkUSBStatus@led_count+1,c
  6216  000AEE  6A23               	clrf	BlinkUSBStatus@led_count,c
  6217                           
  6218                           ;main.c: 620: if(usb_device_state < 6)
  6219  000AF0  0E06               	movlw	6
  6220  000AF2  6041               	cpfslt	_usb_device_state,c
  6221  000AF4  D002               	goto	l2119
  6222                           
  6223                           ;main.c: 621: {
  6224                           ;main.c: 622: LATCbits.LATC2 = 1;
  6225  000AF6  848B               	bsf	3979,2,c	;volatile
  6226                           
  6227                           ;main.c: 623: }
  6228  000AF8  0C06               	retlw	6
  6229  000AFA                     l2119:
  6230                           
  6231                           ;main.c: 624: else
  6232                           ;main.c: 625: {
  6233                           ;main.c: 626: LATCbits.LATC2 = !LATCbits.LATC2;
  6234  000AFA  B48B               	btfsc	3979,2,c	;volatile
  6235  000AFC  D003               	goto	u940
  6236  000AFE  6A47               	clrf	??_BlinkUSBStatus& (0+255),c
  6237  000B00  2A47               	incf	??_BlinkUSBStatus& (0+255),f,c
  6238  000B02  D001               	goto	u958
  6239  000B04                     u940:
  6240  000B04  6A47               	clrf	??_BlinkUSBStatus& (0+255),c
  6241  000B06                     u958:
  6242  000B06  4647               	rlncf	??_BlinkUSBStatus,f,c
  6243  000B08  4647               	rlncf	??_BlinkUSBStatus,f,c
  6244  000B0A  508B               	movf	3979,w,c	;volatile
  6245  000B0C  1847               	xorwf	??_BlinkUSBStatus,w,c
  6246  000B0E  0BFB               	andlw	-5
  6247  000B10  1847               	xorwf	??_BlinkUSBStatus,w,c
  6248  000B12  6E8B               	movwf	3979,c	;volatile
  6249  000B14  0012               	return		;funcret
  6250  000B16                     __end_of_BlinkUSBStatus:
  6251                           	opt stack 0
  6252                           stkptr	equ	0xFFC
  6253                           tblptru	equ	0xFF8
  6254                           tblptrh	equ	0xFF7
  6255                           tblptrl	equ	0xFF6
  6256                           tablat	equ	0xFF5
  6257                           prodh	equ	0xFF4
  6258                           prodl	equ	0xFF3
  6259                           intcon	equ	0xFF2
  6260                           wreg	equ	0xFE8
  6261                           indf1	equ	0xFE7
  6262                           fsr1h	equ	0xFE2
  6263                           fsr1l	equ	0xFE1
  6264                           indf2	equ	0xFDF
  6265                           postinc2	equ	0xFDE
  6266                           postdec2	equ	0xFDD
  6267                           plusw2	equ	0xFDB
  6268                           fsr2h	equ	0xFDA
  6269                           fsr2l	equ	0xFD9
  6270                           status	equ	0xFD8
  6271                           stkptr	equ	0xFFC
  6272                           tblptru	equ	0xFF8
  6273                           tblptrh	equ	0xFF7
  6274                           tblptrl	equ	0xFF6
  6275                           tablat	equ	0xFF5
  6276                           prodh	equ	0xFF4
  6277                           prodl	equ	0xFF3
  6278                           intcon	equ	0xFF2
  6279                           wreg	equ	0xFE8
  6280                           indf1	equ	0xFE7
  6281                           fsr1h	equ	0xFE2
  6282                           fsr1l	equ	0xFE1
  6283                           indf2	equ	0xFDF
  6284                           postinc2	equ	0xFDE
  6285                           postdec2	equ	0xFDD
  6286                           plusw2	equ	0xFDB
  6287                           fsr2h	equ	0xFDA
  6288                           fsr2l	equ	0xFD9
  6289                           status	equ	0xFD8
  6290                           
  6291                           	psect	rparam
  6292  0000                     stkptr	equ	0xFFC
  6293                           tblptru	equ	0xFF8
  6294                           tblptrh	equ	0xFF7
  6295                           tblptrl	equ	0xFF6
  6296                           tablat	equ	0xFF5
  6297                           prodh	equ	0xFF4
  6298                           prodl	equ	0xFF3
  6299                           intcon	equ	0xFF2
  6300                           wreg	equ	0xFE8
  6301                           indf1	equ	0xFE7
  6302                           fsr1h	equ	0xFE2
  6303                           fsr1l	equ	0xFE1
  6304                           indf2	equ	0xFDF
  6305                           postinc2	equ	0xFDE
  6306                           postdec2	equ	0xFDD
  6307                           plusw2	equ	0xFDB
  6308                           fsr2h	equ	0xFDA
  6309                           fsr2l	equ	0xFD9
  6310                           status	equ	0xFD8
  6311                           stkptr	equ	0xFFC
  6312                           tblptru	equ	0xFF8
  6313                           tblptrh	equ	0xFF7
  6314                           tblptrl	equ	0xFF6
  6315                           tablat	equ	0xFF5
  6316                           prodh	equ	0xFF4
  6317                           prodl	equ	0xFF3
  6318                           intcon	equ	0xFF2
  6319                           wreg	equ	0xFE8
  6320                           indf1	equ	0xFE7
  6321                           fsr1h	equ	0xFE2
  6322                           fsr1l	equ	0xFE1
  6323                           indf2	equ	0xFDF
  6324                           postinc2	equ	0xFDE
  6325                           postdec2	equ	0xFDD
  6326                           plusw2	equ	0xFDB
  6327                           fsr2h	equ	0xFDA
  6328                           fsr2l	equ	0xFD9
  6329                           status	equ	0xFD8


Data Sizes:
    Strings     0
    Constant    185
    Data        0
    BSS         1224
    Persistent  0
    Stack       0

Auto Spaces:
    Space          Size  Autos    Used
    COMRAM           95     13      83
    BANK0           160      0     130
    BANK1           256      0       0
    BANK2           256      0       0
    BANK3           256      0       0
    BANK4           256      0       0
    BANK5           256      0       0
    BANK6           256      0       0
    BANK7           256      0       0
    BANK8           256      0       0
    BANK9           256      0       0
    BANK10          256      0       0
    BANK11          256      0       0
    BANK12          256      0       0
    BANK13           84      0       0
    BANK14          176      0       0

Pointer List with Targets:

    ep0BoEven.ADR	PTR unsigned char  size(2) Largest target is 0
		 -> hid_report_in(BIGRAMh[64]), hid_report_out(BIGRAMh[64]), EP0OutEvenBuf(ABS[8]), EP0OutOddBuf(BIGRAMh[8]), 
		 -> CtrlTrfData(BIGRAMh[8]), 

    ep0BoOdd.ADR	PTR unsigned char  size(2) Largest target is 0
		 -> hid_report_in(BIGRAMh[64]), hid_report_out(BIGRAMh[64]), EP0OutEvenBuf(ABS[8]), EP0OutOddBuf(BIGRAMh[8]), 
		 -> CtrlTrfData(BIGRAMh[8]), 

    SignFlash@pROM	PTR  unsigned char  size(3) Largest target is 131063
		 -> ROM(CODE[131063]), 

    HIDRxReport@buffer	PTR unsigned char  size(1) Largest target is 65
		 -> PacketFromPC(BANK0[65]), 

    HIDTxReport@buffer	PTR unsigned char  size(1) Largest target is 65
		 -> PacketToPC(BANK0[65]), 

    ep1Bi.ADR	PTR unsigned char  size(2) Largest target is 64
		 -> hid_report_in(BIGRAMh[64]), hid_report_out(BIGRAMh[64]), EP0OutEvenBuf(ABS[8]), EP0OutOddBuf(BIGRAMh[8]), 
		 -> CtrlTrfData(BIGRAMh[8]), 

    ep1Bo.ADR	PTR unsigned char  size(2) Largest target is 64
		 -> hid_report_in(BIGRAMh[64]), hid_report_out(BIGRAMh[64]), EP0OutEvenBuf(ABS[8]), EP0OutOddBuf(BIGRAMh[8]), 
		 -> CtrlTrfData(BIGRAMh[8]), 

    LoadBDTandSetUOWN@pBDTEntry	PTR volatile struct _BDT size(2) Largest target is 3759
		 -> NULL(NULL[0]), RAM(DATA[3759]), 

    TempBDT.ADR	PTR unsigned char  size(2) Largest target is 64
		 -> hid_report_in(BIGRAMh[64]), hid_report_out(BIGRAMh[64]), EP0OutEvenBuf(ABS[8]), EP0OutOddBuf(BIGRAMh[8]), 
		 -> CtrlTrfData(BIGRAMh[8]), 

    ep0Bi.ADR	PTR unsigned char  size(2) Largest target is 64
		 -> hid_report_in(BIGRAMh[64]), hid_report_out(BIGRAMh[64]), EP0OutEvenBuf(ABS[8]), EP0OutOddBuf(BIGRAMh[8]), 
		 -> CtrlTrfData(BIGRAMh[8]), 

    USBDeviceTasks@pBDTEntry.ADR	PTR unsigned char  size(2) Largest target is 64
		 -> hid_report_in(BIGRAMh[64]), hid_report_out(BIGRAMh[64]), EP0OutEvenBuf(ABS[8]), EP0OutOddBuf(BIGRAMh[8]), 
		 -> CtrlTrfData(BIGRAMh[8]), 

    USBDeviceTasks@pBDTEntry	PTR volatile struct _BDT size(2) Largest target is 5
		 -> NULL(NULL[0]), ep0BoOdd(ABS[4]), ep0BoEven(BIGRAMl[4]), 

    ep1Bi...ADR	PTR unsigned char  size(2) Largest target is 64
		 -> hid_report_in(BIGRAMh[64]), hid_report_out(BIGRAMh[64]), EP0OutEvenBuf(ABS[8]), EP0OutOddBuf(BIGRAMh[8]), 
		 -> CtrlTrfData(BIGRAMh[8]), 

    ep1Bo...ADR	PTR unsigned char  size(2) Largest target is 64
		 -> hid_report_in(BIGRAMh[64]), hid_report_out(BIGRAMh[64]), EP0OutEvenBuf(ABS[8]), EP0OutOddBuf(BIGRAMh[8]), 
		 -> CtrlTrfData(BIGRAMh[8]), 

    ep0Bi...ADR	PTR unsigned char  size(2) Largest target is 64
		 -> hid_report_in(BIGRAMh[64]), hid_report_out(BIGRAMh[64]), EP0OutEvenBuf(ABS[8]), EP0OutOddBuf(BIGRAMh[8]), 
		 -> CtrlTrfData(BIGRAMh[8]), 

    ep0BoOdd...ADR	PTR unsigned char  size(2) Largest target is 64
		 -> hid_report_in(BIGRAMh[64]), hid_report_out(BIGRAMh[64]), EP0OutEvenBuf(ABS[8]), EP0OutOddBuf(BIGRAMh[8]), 
		 -> CtrlTrfData(BIGRAMh[8]), 

    ep0BoEven...ADR	PTR unsigned char  size(2) Largest target is 64
		 -> hid_report_in(BIGRAMh[64]), hid_report_out(BIGRAMh[64]), EP0OutEvenBuf(ABS[8]), EP0OutOddBuf(BIGRAMh[8]), 
		 -> CtrlTrfData(BIGRAMh[8]), 

    S841$ADR	PTR unsigned char  size(2) Largest target is 64
		 -> hid_report_in(BIGRAMh[64]), hid_report_out(BIGRAMh[64]), EP0OutEvenBuf(ABS[8]), EP0OutOddBuf(BIGRAMh[8]), 
		 -> CtrlTrfData(BIGRAMh[8]), 

    TempBDT...ADR	PTR unsigned char  size(2) Largest target is 64
		 -> hid_report_in(BIGRAMh[64]), hid_report_out(BIGRAMh[64]), EP0OutEvenBuf(ABS[8]), EP0OutOddBuf(BIGRAMh[8]), 
		 -> CtrlTrfData(BIGRAMh[8]), 

    pDst.wRom	PTR const unsigned short  size(2) Largest target is 0

    pDst.bRom	PTR const unsigned char  size(2) Largest target is 0

    pDst.wRam	PTR unsigned int  size(2) Largest target is 0

    pDst.bRam	PTR unsigned char  size(2) Largest target is 0

    S688_POINTER$wRom	PTR const unsigned short  size(2) Largest target is 0

    pSrc.wRom	PTR const unsigned short  size(2) Largest target is 0

    S688_POINTER$bRom	PTR const unsigned char  size(2) Largest target is 0

    pSrc.bRom	PTR const unsigned char  size(2) Largest target is 0

    S688_POINTER$wRam	PTR unsigned int  size(2) Largest target is 0

    pSrc.wRam	PTR unsigned int  size(2) Largest target is 0

    S688_POINTER$bRam	PTR unsigned char  size(2) Largest target is 0

    pSrc.bRam	PTR unsigned char  size(2) Largest target is 0

    USB_SD_Ptr	const PTR const unsigned char [3] size(1) Largest target is 52
		 -> sd002(CODE[38]), sd001(CODE[52]), sd000(CODE[4]), 


Critical Paths under _main in COMRAM

    _BootMain->_ProcessIO
    _ProcessIO->_SignFlash
    _WriteFlashSubBlock->_UnlockAndActivate
    _USBCBWakeFromSuspend->_DelayRoutine
    _USBCtrlTrfSetupHandler->_USBCheckStdRequest
    _USBCtrlEPServiceComplete->_LoadBDTandSetUOWN
    _USBCheckStdRequest->_USBStdFeatureReqHandler
    _USBCheckStdRequest->_USBStdGetStatusHandler
    _USBStdSetCfgHandler->_USBCBInitEP
    _SignFlash->_EraseFlashPage
    _EraseFlashPage->_UnlockAndActivate
    _InitializeSystem->_DelayRoutine
    _USBProtocolResetHandler->_LoadBDTandSetUOWN
    _USBProtocolResetHandler->_USBCBInitEP
    _USBDisableWithLongDelay->_DelayRoutine

Critical Paths under _main in BANK0

    None.

Critical Paths under _main in BANK1

    None.

Critical Paths under _main in BANK2

    None.

Critical Paths under _main in BANK3

    None.

Critical Paths under _main in BANK4

    None.

Critical Paths under _main in BANK5

    None.

Critical Paths under _main in BANK6

    None.

Critical Paths under _main in BANK7

    None.

Critical Paths under _main in BANK8

    None.

Critical Paths under _main in BANK9

    None.

Critical Paths under _main in BANK10

    None.

Critical Paths under _main in BANK11

    None.

Critical Paths under _main in BANK12

    None.

Critical Paths under _main in BANK13

    None.

Critical Paths under _main in BANK14

    None.

Call Graph Tables:

 ---------------------------------------------------------------------------------
 (Depth) Function   	        Calls       Base Space   Used Autos Params    Refs
 ---------------------------------------------------------------------------------
 (0) _main                                                 0     0      0    3980
                           _BootMain
 ---------------------------------------------------------------------------------
 (1) _BootMain                                             0     0      0    3980
                     _BlinkUSBStatus
                   _InitializeSystem
                    _LowVoltageCheck
                          _ProcessIO
                     _USBDeviceTasks
 ---------------------------------------------------------------------------------
 (2) _ProcessIO                                            2     2      0    2354
                                             11 COMRAM     2     2      0
                      _ClearWatchdog
                     _EraseFlashPage
                        _HIDRxReport
                        _HIDTxReport
                 _ResetDeviceCleanly
                          _SignFlash
                     _USBDeviceTasks
                 _WriteFlashSubBlock
 ---------------------------------------------------------------------------------
 (3) _WriteFlashSubBlock                                   6     6      0      22
                                              1 COMRAM     4     4      0
                  _UnlockAndActivate
 ---------------------------------------------------------------------------------
 (2) _USBDeviceTasks                                       2     2      0     712
                                              3 COMRAM     2     2      0
                  _USBCheckBusStatus
                _USBCtrlTrfInHandler
             _USBCtrlTrfSetupHandler
            _USBProtocolResetHandler
                         _USBSuspend
                 _USBWakeFromSuspend
 ---------------------------------------------------------------------------------
 (3) _USBWakeFromSuspend                                   0     0      0     290
               _USBCBWakeFromSuspend
 ---------------------------------------------------------------------------------
 (4) _USBCBWakeFromSuspend                                 0     0      0     290
                       _DelayRoutine
 ---------------------------------------------------------------------------------
 (3) _USBSuspend                                           0     0      0       0
                       _USBCBSuspend
 ---------------------------------------------------------------------------------
 (4) _USBCBSuspend                                         0     0      0       0
 ---------------------------------------------------------------------------------
 (3) _USBCtrlTrfSetupHandler                               0     0      0      44
                 _USBCBCheckOtherReq
                 _USBCheckStdRequest
           _USBCtrlEPServiceComplete
 ---------------------------------------------------------------------------------
 (4) _USBCtrlEPServiceComplete                             0     0      0      22
                  _LoadBDTandSetUOWN
                _USBCtrlTrfTxService
 ---------------------------------------------------------------------------------
 (4) _USBCheckStdRequest                                   1     1      0      22
                                              2 COMRAM     1     1      0
            _USBStdFeatureReqHandler
                _USBStdGetDscHandler
             _USBStdGetStatusHandler
                _USBStdSetCfgHandler
 ---------------------------------------------------------------------------------
 (5) _USBStdSetCfgHandler                                  0     0      0      22
                        _USBCBInitEP
 ---------------------------------------------------------------------------------
 (5) _USBStdGetStatusHandler                               2     2      0       0
                                              0 COMRAM     2     2      0
 ---------------------------------------------------------------------------------
 (5) _USBStdGetDscHandler                                  1     1      0       0
                                              0 COMRAM     1     1      0
 ---------------------------------------------------------------------------------
 (5) _USBStdFeatureReqHandler                              2     2      0       0
                                              0 COMRAM     2     2      0
 ---------------------------------------------------------------------------------
 (4) _USBCBCheckOtherReq                                   0     0      0       0
                 _USBCheckHIDRequest
 ---------------------------------------------------------------------------------
 (5) _USBCheckHIDRequest                                   0     0      0       0
                _HIDGetReportHandler
                _HIDSetReportHandler
 ---------------------------------------------------------------------------------
 (6) _HIDSetReportHandler                                  0     0      0       0
 ---------------------------------------------------------------------------------
 (6) _HIDGetReportHandler                                  0     0      0       0
 ---------------------------------------------------------------------------------
 (3) _USBCtrlTrfInHandler                                  0     0      0       0
                _USBCtrlTrfTxService
 ---------------------------------------------------------------------------------
 (5) _USBCtrlTrfTxService                                  0     0      0       0
 ---------------------------------------------------------------------------------
 (3) _SignFlash                                            4     4      0     361
                                              7 COMRAM     4     4      0
                      _ClearWatchdog
                     _EraseFlashPage
                  _UnlockAndActivate
 ---------------------------------------------------------------------------------
 (4) _EraseFlashPage                                       6     4      2     245
                                              1 COMRAM     6     4      2
                  _UnlockAndActivate
 ---------------------------------------------------------------------------------
 (4) _UnlockAndActivate                                    1     1      0      22
                                              0 COMRAM     1     1      0
                    _LowVoltageCheck
 ---------------------------------------------------------------------------------
 (5) _LowVoltageCheck                                      0     0      0       0
 ---------------------------------------------------------------------------------
 (3) _ResetDeviceCleanly                                   0     0      0     290
            _USBDisableWithLongDelay
 ---------------------------------------------------------------------------------
 (3) _HIDTxReport                                          4     3      1     532
                                              0 COMRAM     4     3      1
 ---------------------------------------------------------------------------------
 (3) _HIDRxReport                                          3     2      1     192
                                              0 COMRAM     3     2      1
 ---------------------------------------------------------------------------------
 (2) _InitializeSystem                                     0     0      0     914
                       _DelayRoutine
                      _USBDeviceInit
                           _UserInit
 ---------------------------------------------------------------------------------
 (3) _USBDeviceInit                                        0     0      0     624
                  _USBCheckBusStatus
            _USBDisableWithLongDelay
 ---------------------------------------------------------------------------------
 (3) _USBCheckBusStatus                                    0     0      0     334
                      _USBSoftAttach
 ---------------------------------------------------------------------------------
 (4) _USBSoftAttach                                        0     0      0     334
            _USBDisableWithLongDelay
            _USBProtocolResetHandler
 ---------------------------------------------------------------------------------
 (3) _USBProtocolResetHandler                              0     0      0      44
                      _ClearWatchdog
                  _LoadBDTandSetUOWN
                        _USBCBInitEP
 ---------------------------------------------------------------------------------
 (4) _USBCBInitEP                                          1     1      0      22
                                              0 COMRAM     1     1      0
                          _HIDInitEP
                           _UserInit
 ---------------------------------------------------------------------------------
 (5) _UserInit                                             0     0      0       0
 ---------------------------------------------------------------------------------
 (5) _HIDInitEP                                            0     0      0       0
 ---------------------------------------------------------------------------------
 (4) _LoadBDTandSetUOWN                                    1     1      0      22
                                              0 COMRAM     1     1      0
 ---------------------------------------------------------------------------------
 (5) _USBDisableWithLongDelay                              0     0      0     290
                       _DelayRoutine
 ---------------------------------------------------------------------------------
 (5) _DelayRoutine                                         2     0      2     290
                                              0 COMRAM     2     0      2
                      _ClearWatchdog
 ---------------------------------------------------------------------------------
 (6) _ClearWatchdog                                        0     0      0       0
 ---------------------------------------------------------------------------------
 (2) _BlinkUSBStatus                                       1     1      0       0
                                              0 COMRAM     1     1      0
 ---------------------------------------------------------------------------------
 Estimated maximum stack depth 6
 ---------------------------------------------------------------------------------

 Call Graph Graphs:

 _main (ROOT)
   _BootMain
     _BlinkUSBStatus
     _InitializeSystem
       _DelayRoutine
         _ClearWatchdog
       _USBDeviceInit
         _USBCheckBusStatus
           _USBSoftAttach
             _USBDisableWithLongDelay
               _DelayRoutine
                 _ClearWatchdog
             _USBProtocolResetHandler
               _ClearWatchdog
               _LoadBDTandSetUOWN
               _USBCBInitEP
                 _HIDInitEP
                 _UserInit
         _USBDisableWithLongDelay
           _DelayRoutine
             _ClearWatchdog
       _UserInit
     _LowVoltageCheck
     _ProcessIO
       _ClearWatchdog
       _EraseFlashPage
         _UnlockAndActivate
           _LowVoltageCheck
       _HIDRxReport
       _HIDTxReport
       _ResetDeviceCleanly
         _USBDisableWithLongDelay
           _DelayRoutine
             _ClearWatchdog
       _SignFlash
         _ClearWatchdog
         _EraseFlashPage
           _UnlockAndActivate
             _LowVoltageCheck
         _UnlockAndActivate
           _LowVoltageCheck
       _USBDeviceTasks
         _USBCheckBusStatus
           _USBSoftAttach
             _USBDisableWithLongDelay
               _DelayRoutine
                 _ClearWatchdog
             _USBProtocolResetHandler
               _ClearWatchdog
               _LoadBDTandSetUOWN
               _USBCBInitEP
                 _HIDInitEP
                 _UserInit
         _USBCtrlTrfInHandler
           _USBCtrlTrfTxService
         _USBCtrlTrfSetupHandler
           _USBCBCheckOtherReq
             _USBCheckHIDRequest
               _HIDGetReportHandler
               _HIDSetReportHandler
           _USBCheckStdRequest
             _USBStdFeatureReqHandler
             _USBStdGetDscHandler
             _USBStdGetStatusHandler
             _USBStdSetCfgHandler
               _USBCBInitEP
                 _HIDInitEP
                 _UserInit
           _USBCtrlEPServiceComplete
             _LoadBDTandSetUOWN
             _USBCtrlTrfTxService
         _USBProtocolResetHandler
           _ClearWatchdog
           _LoadBDTandSetUOWN
           _USBCBInitEP
             _HIDInitEP
             _UserInit
         _USBSuspend
           _USBCBSuspend
         _USBWakeFromSuspend
           _USBCBWakeFromSuspend
             _DelayRoutine
               _ClearWatchdog
       _WriteFlashSubBlock
         _UnlockAndActivate
           _LowVoltageCheck
     _USBDeviceTasks
       _USBCheckBusStatus
         _USBSoftAttach
           _USBDisableWithLongDelay
             _DelayRoutine
               _ClearWatchdog
           _USBProtocolResetHandler
             _ClearWatchdog
             _LoadBDTandSetUOWN
             _USBCBInitEP
               _HIDInitEP
               _UserInit
       _USBCtrlTrfInHandler
         _USBCtrlTrfTxService
       _USBCtrlTrfSetupHandler
         _USBCBCheckOtherReq
           _USBCheckHIDRequest
             _HIDGetReportHandler
             _HIDSetReportHandler
         _USBCheckStdRequest
           _USBStdFeatureReqHandler
           _USBStdGetDscHandler
           _USBStdGetStatusHandler
           _USBStdSetCfgHandler
             _USBCBInitEP
               _HIDInitEP
               _UserInit
         _USBCtrlEPServiceComplete
           _LoadBDTandSetUOWN
           _USBCtrlTrfTxService
       _USBProtocolResetHandler
         _ClearWatchdog
         _LoadBDTandSetUOWN
         _USBCBInitEP
           _HIDInitEP
           _UserInit
       _USBSuspend
         _USBCBSuspend
       _USBWakeFromSuspend
         _USBCBWakeFromSuspend
           _DelayRoutine
             _ClearWatchdog

 Address spaces:
Name               Size   Autos  Total    Cost      Usage
BITCOMRAM           5F      0       0       0        0.0%
NULL                 0      0       0       0        0.0%
CODE                 0      0       0       0        0.0%
COMRAM              5F      D      53       1       87.4%
STACK                0      0       0       2        0.0%
DATA                 0      0     4D5       3        0.0%
BITBANK0            A0      0       0       4        0.0%
BANK0               A0      0      82       5       81.3%
BITBANK1           100      0       0       6        0.0%
BANK1              100      0       0       7        0.0%
ABS                  0      0      D5       8        0.0%
BITBANK2           100      0       0       9        0.0%
BANK2              100      0       0      10        0.0%
BITBANK3           100      0       0      11        0.0%
BANK3              100      0       0      12        0.0%
BITBANK4           100      0       0      13        0.0%
BANK4              100      0       0      14        0.0%
BITBANK5           100      0       0      15        0.0%
BANK5              100      0       0      16        0.0%
BITBANK6           100      0       0      17        0.0%
BANK6              100      0       0      18        0.0%
BITBANK7           100      0       0      19        0.0%
BANK7              100      0       0      20        0.0%
BITBANK8           100      0       0      21        0.0%
BANK8              100      0       0      22        0.0%
BITBANK9           100      0       0      23        0.0%
BANK9              100      0       0      24        0.0%
BITBANK10          100      0       0      25        0.0%
BANK10             100      0       0      26        0.0%
BITBANK11          100      0       0      27        0.0%
BANK11             100      0       0      28        0.0%
BITBANK12          100      0       0      29        0.0%
BANK12             100      0       0      30        0.0%
BITBANK13           54      0       0      31        0.0%
BANK13              54      0       0      32        0.0%
BITBANK14           B0      0       0      33        0.0%
BANK14              B0      0       0      34        0.0%
BIGRAMh            104      0       0      35        0.0%
BIGRAMl            CFF      0     400      36       30.8%
BITSFR_2             0      0       0      40        0.0%
SFR_2                0      0       0      40        0.0%
BITSFR_1             0      0       0      40        0.0%
SFR_1                0      0       0      40        0.0%
BITSFR               0      0       0      40        0.0%
SFR                  0      0       0      40        0.0%


Microchip Technology PIC18 Macro Assembler V1.35 build -356382666 
Symbol Table                                                                                   Tue Nov 10 13:35:00 2015

            __end_of_ClearWatchdog 0CE4    __end_of_USBDisableWithLongDelay 0CB2  
                     _usb_alt_intf 0046                         _USB_SD_Ptr 0F01  
                     ?_HIDRxReport 0047                 ?_LoadBDTandSetUOWN 0047  
                               PL2 0582                                 PL4 043C  
                               PL6 06BA                                 PL8 08AA  
                   _BlinkUSBStatus 0ADC                       ?_HIDTxReport 0047  
                               l67 0038                                 l86 0B28  
                               l88 0B36                                 l99 0C5A  
                    _USBDeviceInit 0CCE                 _USBCheckHIDRequest 039E  
                     __CFG_CP0$OFF 000000                                PL10 06C8  
                              PL20 06D4                                PL12 02C6  
                              PL30 0598                                PL22 0A06  
                              PL14 0FF0                                PL40 0A90  
                              PL32 075C                                PL24 0448  
                              PL16 04F0                                PL42 0B9A  
                              PL34 0B90                                PL26 058C  
                              PL18 0386                                PL44 02D6  
                              PL36 0A4E                                PL28 0B84  
                              PL46 0B42                                PL38 0394  
                              PL48 0CB8                                l102 0C64  
                              l400 07DA                                l320 0C76  
                              l331 0B58                                l340 0A82  
                              l500 03E8                                l309 037A  
                              l326 0AB6                                l502 03D0  
      __end_of_USBStdGetDscHandler 07DE                                l319 0C78  
                              l432 0568                                l282 0CC6  
                              l291 02E8                                l533 08D0  
                              l429 0516                                l365 05C8  
                              l297 0306                                l641 01F4  
                              l298 0308                                l680 0BEC  
                              l677 0BDE                                _UIE 000F36  
                              u940 0B04                                u958 0B06  
                              _UIR 000F62                ??_LoadBDTandSetUOWN 0047  
                       _USBSuspend 0BF4    EraseFlashPage@TablePointerValue 0009  
             USBStdSetCfgHandler@i 0034                                wreg 000FE8  
                   _USBDeviceTasks 02DE                ?_USBCheckHIDRequest 0047  
           ??_USBCBWakeFromSuspend 0049                               l3001 08D4  
                             l3005 08EA                               l3021 0852  
                             l2119 0AFA                               l2401 03B6  
                             l3051 045E                               l3043 08A0  
                             l3131 0074                               l3205 01CA  
                             l2511 0660                               l2407 03C4  
                             l3223 020A                               l2353 0C8A  
                             l3081 04D6                               l3065 04AA  
                             l2417 03DC                               l3233 0222  
                             l3161 0104                               l3137 0094  
                             l3313 09FE                               l3305 09D4  
                             l2515 0668                               l2435 0400  
                             l2427 03F6                               l2419 03EA  
                             l3155 00F0                               l3307 09D8  
                             l2349 0C80                               l2525 0682  
                             l2533 0698                               l2453 041C  
                             l2605 0FEA                               l2701 06EC  
                             l3229 021C                               l3181 0166  
                             l3165 010E                               l3157 00F4  
                             l2367 0A2E                               l3087 04E8  
                             l2535 069E                               l2543 06B4  
                             l2447 0412                               l2439 040A  
                             l2631 0838                               l3167 0116  
                             l3175 012E                               l2385 0B34  
                             l2393 03A8                               l2617 07EE  
                             l2609 07E4                               l3281 028E  
                             l3185 0184                               l3177 0146  
                             l2387 0B38                               l2563 0792  
                             l2555 077C                               l2571 07CC  
                             l2619 07F4                               l2707 06F6  
                             l3195 01B4                               l2805 0BE2  
                             l2397 03AE                               l2549 076E  
                             l2629 082A                               l2733 071A  
                             l3197 01B8                               l3285 0294  
                             l2487 0ABC                               l2727 070E  
                             l2719 0702                               l3199 01C0  
                             l2649 0518                               l2593 0FC6  
                             l2683 0C3C                               l2667 0574  
                             l2773 0608                               l2749 05BC  
                             l2871 0A6E                               l2759 05E2  
                             l2847 0B62                               l2785 0628  
                             l2937 0320                               l2891 0988  
                             l2779 061A                               l2981 0926  
                             l2789 0632                               l2965 037C  
                             l2949 033E                               l2983 092A  
                             l2959 036C                               l2987 0944  
               __CFG_WPFP$PAGE_127 000000              ??_HIDSetReportHandler 0047  
                             u1310 0696                               u2008 0904  
                             u1330 06B2                               u2220 09FA  
                             u1317 0694                               u1337 06B0  
                             u1370 07C6                               u2090 0092  
                             u1377 07C2                               u1940 095E  
                             u1775 0996                               u1990 0902  
                             u1958 0960              ??_USBCtrlTrfTxService 0047  
                             _UCFG 000F39                               _UEP0 000F26  
                             _UEP1 000F27                               _UEP2 000F28  
                             _UEP3 000F29                               _UEP4 000F2A  
                             _UEP5 000F2B                               _UEP6 000F2C  
                             _UEP7 000F2D                               _UEIE 000F37  
                             _UCON 000F65                 __size_of_HIDInitEP 002A  
                             _pDst 001D                               _pSrc 0020  
                             _main 09C8             __size_of_USBSoftAttach 0020  
                             fsr1h 000FE2                               fsr2h 000FDA  
                             indf1 000FE7                               fsr1l 000FE1  
                             indf2 000FDF                               fsr2l 000FD9  
           __CFG_DSWDTOSC$T1OSCREF 000000                               prodh 000FF4  
                             prodl 000FF3          __end_of_LoadBDTandSetUOWN 0A4E  
                             start 0000            BlinkUSBStatus@led_count 0023  
                    __CFG_IESO$OFF 000000                 _USBCBCheckOtherReq 0004  
             ??_USBCheckHIDRequest 0047         __end_of_USBCheckStdRequest 075C  
                     ___param_bank 000010          ??_USBStdFeatureReqHandler 0047  
           __end_of_BlinkUSBStatus 0B16           ??_USBStdGetStatusHandler 0047  
                   ?_USBDeviceInit 0047                ?_USBCBCheckOtherReq 0047  
                    __CFG_PLLDIV$2 000000                              _CFG01 0F38  
                            ?_main 0047  __size_of_USBCtrlEPServiceComplete 00A2  
       LoadBDTandSetUOWN@pBDTEntry 0025             __end_of_USBDeviceTasks 0386  
        ?_USBCtrlEPServiceComplete 0047                              _UADDR 000F38  
                            _USTAT 000F64                  HIDRxReport@buffer 0049  
                   __CFG_FCMEN$OFF 000000                              _ep0Bi 000D08  
                            _ep1Bi 000D10                              _ep1Bo 000D0C  
                            _sd000 0FB6                              _sd001 0F04  
                            _sd002 0F61               ??_USBCBCheckOtherReq 0047  
                 _usb_device_state 0041                       HIDTxReport@i 004A  
                            tablat 000FF5                  USBSuspend@UIESave 0035  
                            plusw2 000FDB                              status 000FD8  
       __size_of_UnlockAndActivate 0028                  _BufferedDataIndex 0038  
                       _PacketToPC 00A1       __size_of_USBStdSetCfgHandler 0034  
                 __end_of_BootMain 004C                    __initialization 0CDA  
                  ?_BlinkUSBStatus 0047                       __end_of_main 0A06  
                       SignFlash@i 0029              _ProgramMemStopAddress 0011  
                __end_of_HIDInitEP 0BCC                      _USBSoftAttach 0C34  
                           ??_main 0054          __size_of_InitializeSystem 0020  
                    __activetblptr 000003                    ?_USBDeviceTasks 0047  
                      ?_USBSuspend 0047                   __end_of_UserInit 0B84  
                    SignFlash@pROM 004F                             _EECON1 000FA6  
                           _EECON2 000FA7                             _ANCON0 000F48  
                           _ANCON1 000F49   __size_of_USBDisableWithLongDelay 0010  
                   __CFG_WDTEN$OFF 000000                             _INTCON 000FF2  
                           _TABLAT 000FF5              __size_of_DelayRoutine 0014  
                           _OSCCON 000FD3                     __CFG_WPCFG$OFF 000000  
                           _STKPTR 000FFC                     __CFG_WPDIS$OFF 000000  
       __size_of_LoadBDTandSetUOWN 003E                     __CFG_XINST$OFF 000000  
                  USBDeviceTasks@i 0033                    ??_USBDeviceInit 0049  
                     ?_USBCBInitEP 0047                 __size_of_SignFlash 009E  
                           _wCount 002F    __size_of_USBStdGetStatusHandler 0070  
                   ?_USBSoftAttach 0047                    __CFG_CLKOEC$OFF 000000  
     __size_of_HIDGetReportHandler 0002         __end_of_WriteFlashSubBlock 08AA  
             __size_of_HIDRxReport 0060                         ProcessIO@i 0027  
             __size_of_HIDTxReport 005C                 __size_of_ProcessIO 027A  
                     _DelayRoutine 0C7E                       __mediumconst 0000  
                           tblptrh 000FF7                             tblptrl 000FF6  
                           tblptru 000FF8               _DeviceIsSoftDetached 0039  
      __size_of_ResetDeviceCleanly 000C                        _CtrlTrfData 000D24  
             __CFG_LS48MHZ$SYS48X8 000000                         __accesstop 0060  
          __end_of__initialization 0CDA                       __pbssBIGRAMl 00E2  
                    __end_of_CFG01 0F61                      ___rparam_used 000001  
                      _bTRNIFCount 003C         UnlockAndActivate@UnlockKey 0047  
             __CFG_WPEND$PAGE_WPFP 000000                __size_of_USBSuspend 0020  
                   __pcstackCOMRAM 0047                      __end_of_sd000 0FBA  
                    __end_of_sd001 0F38                      __end_of_sd002 0F87  
                  _active_protocol 0043        __end_of_USBCtrlTrfInHandler 0A90  
                  __CFG_DSWDTPS$G2 000000                         __end_ofPL2 058C  
                       __end_ofPL4 0448                         __end_ofPL6 06C8  
                       __end_ofPL8 08BC   USBCtrlTrfTxService@bytes_to_send 0032  
         ??_USBCtrlTrfSetupHandler 004A                          ?_BootMain 0047  
           _USBStdGetStatusHandler 07DE                  __end_of_SignFlash 04F0  
                       __pbssBANK0 0060                WriteFlashSubBlock@i 0036  
      __size_of_USBWakeFromSuspend 0014                       _EP0OutOddBuf 000D1C  
                __end_of_ProcessIO 02C6   __end_of_USBCtrlEPServiceComplete 0646  
         ?_USBProtocolResetHandler 0047            DelayRoutine@DelayAmount 0047  
                  ??_USBSoftAttach 0049                          ?_UserInit 0047  
         __size_of_LowVoltageCheck 002C                         _device_dsc 0FA4  
          USBDeviceTasks@pBDTEntry 002B                   _InitializeSystem 0C14  
               _USBCheckStdRequest 06E2                 __CFG_OSC$INTOSCPLL 000000  
      __end_of_HIDSetReportHandler 0CE6        __end_of_USBCtrlTrfTxService 06BA  
              _USBStdSetCfgHandler 0FBC                            _TBLPTRH 000FF7  
                          _TBLPTRL 000FF6                            _TBLPTRU 000FF8  
                  __CFG_WDTPS$1024 000000                         ??_BootMain 0054  
              ?_USBCheckStdRequest 0047       __size_of_USBStdGetDscHandler 0078  
           __size_of_ClearWatchdog 0004            _USBDisableWithLongDelay 0CA2  
                          _UIEbits 000F36      __size_of_USBCBWakeFromSuspend 0006  
                          _UIRbits 000F62                   __CFG_CFGPLLEN$ON 000000  
  _FlashSignatureWord_absconstaddr 001006                     HIDRxReport@len 0047  
                 ??_BlinkUSBStatus 0047                            __Hparam 0000  
                          _TempBDT 0019               ?_USBStdSetCfgHandler 0047  
      __size_of_USBCheckHIDRequest 009E                            __Lparam 0000  
                __end_of_hid_rpt01 0FA4               ??_USBCheckStdRequest 0049  
    USBCBInitEP@ConfigurationIndex 0047                   ??_USBDeviceTasks 004A  
                       ??_UserInit 0047                       __psmallconst 0F00  
                  __CFG_STVREN$OFF 000000                            __pcinit 0CDA  
                          __ramtop 0F00               __size_of_USBCBInitEP 0010  
                          __ptext0 09C8                            __ptext2 004C  
                          __ptext3 084E                            __ptext4 02DE  
                          __ptext5 0C6A                            __ptext6 0CB2  
                          __ptext7 0BF4                            __ptext8 0C54  
                          __ptext9 0B4A            __size_of_EraseFlashPage 0050  
                 __p_BootMain_text 0030                       ??_USBSuspend 0047  
                        _HIDInitEP 0BA2                     _ctrl_trf_state 003E  
                    ?_USBCBSuspend 0047    __size_of_USBCtrlTrfSetupHandler 002E  
             end_of_initialization 0CDA        __size_of_USBCBCheckOtherReq 0004  
               __end_of_USB_SD_Ptr 0F04                _HIDGetReportHandler 0CE6  
  __end_of_USBProtocolResetHandler 0ADC                     HIDTxReport@len 0047  
         ?_USBStdFeatureReqHandler 0047              ??_USBStdSetCfgHandler 0048  
               __end_of_USBSuspend 0C14                            postdec2 000FDD  
                    _ClearWatchdog 0CE0                            postinc2 000FDE  
         _USBCtrlEPServiceComplete 05A4               ?_HIDGetReportHandler 0047  
                        _PORTBbits 000F81                   __CFG_DSBOREN$OFF 000000  
                       ?_HIDInitEP 0047                   __CFG_CPUDIV$OSC1 000000  
                ??_LowVoltageCheck 0047          ??_USBDisableWithLongDelay 0049  
                        _TRISCbits 000F94                     ??_USBCBSuspend 0047  
                     _PacketFromPC 0060    LoadBDTandSetUOWN@BDTIndexToLoad 0047  
               _WriteFlashSubBlock 084E             _ctrl_trf_session_owner 003D  
                        _USTATbits 000F64                   __CFG_IOL1WAY$OFF 000000  
              ?_WriteFlashSubBlock 0047                   _short_pkt_status 0040  
              __CFG_MSSP7B_EN$MSK7 000000                     ?_ClearWatchdog 0047  
           _USBCtrlTrfSetupHandler 0B4A                      ??_HIDRxReport 0048  
                    ??_HIDTxReport 0048              __end_of_USBDeviceInit 0CDA  
            ??_HIDGetReportHandler 0047                          _BootState 0037  
                 __CFG_DSWDTEN$OFF 000000               ??_WriteFlashSubBlock 0048  
       __end_of_ResetDeviceCleanly 0018                        __end_ofPL10 06D4  
                      __end_ofPL20 06E2                        __end_ofPL12 02D6  
                      __end_ofPL30 05A4                        __end_ofPL22 0A10  
                      __end_ofPL14 1000                        __end_ofPL40 0A9A  
                      __end_ofPL32 0766                        __end_ofPL24 0452  
                      __end_ofPL16 04FE                        __end_ofPL42 0BA2  
                      __end_ofPL34 0B9A                        __end_ofPL26 0598  
                      __end_ofPL18 0394                        __end_ofPL44 02DE  
                      __end_ofPL36 0A58                        __end_ofPL28 0B90  
                      __end_ofPL46 0B4A                        __end_ofPL38 039E  
                      __end_ofPL48 0CC0                start_initialization 0CDA  
          ?_USBStdGetStatusHandler 0047         __end_of_FlashSignatureWord 1008  
  __end_of_USBStdFeatureReqHandler 0582                  __size_of_BootMain 001C  
               _uint_delay_counter 002D           __end_of_InitializeSystem 0C34  
                        _SignFlash 0452                          _ep0BoEven 000D00  
              _USBStdGetDscHandler 0766                          _ProcessIO 004C  
                __CFG_ADCSEL$BIT12 000000                     _EraseFlashPage 0978  
                __size_of_UserInit 000C                __end_of_HIDRxReport 091C  
   __end_of_USBStdGetStatusHandler 084E   __size_of_USBProtocolResetHandler 0042  
              __end_of_HIDTxReport 0978                  _USBCheckBusStatus 0CC0  
                      ??_HIDInitEP 0047                        __pbssCOMRAM 0001  
     __size_of_USBCtrlTrfInHandler 0038                   _BootMain_absaddr 000030  
               ?_USBCheckBusStatus 0047                  HIDTxReport@buffer 0049  
             ?_USBStdGetDscHandler 0047         __end_of_USBWakeFromSuspend 0C7E  
              ??_USBCheckBusStatus 0049                      _EP0OutEvenBuf 000D14  
                       ?_SignFlash 0047                    ??_ClearWatchdog 0047  
             __end_of_USBCBSuspend 0C6A       __end_of_USBCBWakeFromSuspend 0CB8  
                       ?_ProcessIO 0047             __end_of_EraseFlashPage 09C8  
                        _hid_rpt01 0F87              __end_of_USBSoftAttach 0C54  
                        _idle_rate 0044          __end_of_USBCheckBusStatus 0CCE  
     EraseFlashPage@PageNumToErase 0048                        __smallconst 0F00  
             __CFG_RTCOSC$T1OSCREF 000000              ??_USBStdGetDscHandler 0047  
     __size_of_HIDSetReportHandler 0002       __size_of_USBCtrlTrfTxService 0074  
                         _LATCbits 000F8B         __end_of_USBCheckHIDRequest 043C  
       ??_USBCtrlEPServiceComplete 0048                           _PIE2bits 000FA0  
                         _PIR2bits 000FA1                           _RCONbits 000FD0  
                    ??_USBCBInitEP 0047        __size_of_USBCheckStdRequest 007A  
                      _HIDRxReport 08BC                    _LowVoltageCheck 0B16  
                         _UCONbits 000F65                    ?_EraseFlashPage 0048  
                      _HIDTxReport 091C   __size_of_USBStdFeatureReqHandler 0084  
                 __CFG_SOSCSEL$LOW 000000                      ?_DelayRoutine 0047  
       __end_of_USBCBCheckOtherReq 0008                           _BootMain 0030  
      __end_of_USBStdSetCfgHandler 0FF0                     _hid_report_out 000D2C  
           USBCBSuspend@OSCCONSave 0031                 __end_of_device_dsc 0FB6  
                      ??_SignFlash 004E                         _EECON1bits 000FA6  
          ?_USBCtrlTrfSetupHandler 0047                         _ANCON1bits 000F49  
                         __Hrparam 0000                           __Lrparam 0000  
        WriteFlashSubBlock@Address 000D                           _ep0BoOdd 000D04  
                         _SetupPkt 0001                     _MaxPageToErase 003B  
                      ??_ProcessIO 0052                           _UserInit 0B78  
          __size_of_BlinkUSBStatus 003A           _EP0OutOddNeedsArmingNext 003A  
       __size_of_USBCheckBusStatus 000E                     _hid_rpt_rx_len 003F  
          _USBProtocolResetHandler 0A9A                     ??_DelayRoutine 0049  
              __end_of_USBCBInitEP 0CA2            __size_of_USBDeviceTasks 00A8  
                         __ptext10 05A4                           __ptext11 06E2  
                         __ptext20 0A58                           __ptext12 0FBC  
                         __ptext21 0646                           __ptext13 07DE  
                         __ptext30 0CCE                           __ptext22 0452  
                         __ptext14 0766                           __ptext31 0CC0  
                         __ptext23 0978                           __ptext15 04FE  
                         __ptext40 0CE0                           __ptext32 0C34  
                         __ptext24 0BCC                           __ptext16 0004  
                         __ptext41 0ADC                           __ptext33 0A9A  
                         __ptext25 0B16                           __ptext17 039E  
                         __ptext34 0C92                           __ptext26 000C  
                         __ptext18 0CE4                           __ptext35 0B78  
                         __ptext27 091C                           __ptext19 0CE6  
                         __ptext36 0BA2                           __ptext28 08BC  
                         __ptext37 0A10                           __ptext29 0C14  
                         __ptext38 0CA2                           __ptext39 0C7E  
             _USBCBWakeFromSuspend 0CB2                 _ResetDeviceCleanly 000C  
   __end_of_USBCtrlTrfSetupHandler 0B78                      __size_of_main 003E  
            __size_of_USBCBSuspend 0016            __end_of_LowVoltageCheck 0B42  
                ?_InitializeSystem 0047        __end_of_HIDGetReportHandler 0CE8  
              _USBCtrlTrfInHandler 0A58                 ??_InitializeSystem 0049  
              ?_ResetDeviceCleanly 0047                 _FlashSignatureWord 1006  
                         _usb_stat 0042        __p_FlashSignatureWord_const 1006  
                _ProgrammedPointer 0015           ?_USBDisableWithLongDelay 0047  
                    _hid_report_in 000D6C        __size_of_WriteFlashSubBlock 005C  
                      _OSCTUNEbits 000F9B                         _INTCONbits 000FF2  
             ?_USBCtrlTrfInHandler 0047               ??_ResetDeviceCleanly 0049  
                     _USBCBSuspend 0C54              ?_USBCBWakeFromSuspend 0047  
           __size_of_USBDeviceInit 000C                  _ProgrammingBuffer 00E2  
                _UnlockAndActivate 0BCC                 ?_UnlockAndActivate 0047  
                      _USBCBInitEP 0C92                 _USBWakeFromSuspend 0C6A  
        ??_USBProtocolResetHandler 0048            _USBStdFeatureReqHandler 04FE  
              _HIDSetReportHandler 0CE4                _USBCtrlTrfTxService 0646  
              ??_UnlockAndActivate 0047                ?_USBWakeFromSuspend 0047  
            ??_USBCtrlTrfInHandler 0047                         _WDTCONbits 000FC0  
             ?_HIDSetReportHandler 0047               ?_USBCtrlTrfTxService 0047  
             ??_USBWakeFromSuspend 0049          __end_of_UnlockAndActivate 0BF4  
                 ?_LowVoltageCheck 0047               __end_of_DelayRoutine 0C92  
                 ??_EraseFlashPage 004A                     _usb_active_cfg 0045  
                _LoadBDTandSetUOWN 0A10  
