

Microchip Technology PIC18 LITE Macro Assembler V1.34 build -361300703 
                                                                                               Thu Jul 09 22:26:55 2015

Microchip Technology Omniscient Code Generator (Lite mode) build 201502162209
     1                           	processor	18F47J53
     2                           	fnconf	rparam,??,?,0
     3                           	opt	pw 120
     4                           	opt	lm
     5                           	psect	smallconst,global,reloc=2,class=SMALLCONST,delta=1
     6                           	psect	cinit,global,reloc=2,class=CODE,delta=1
     7                           	psect	bssCOMRAM,global,class=COMRAM,space=1,delta=1
     8                           	psect	bssBANK0,global,class=BANK0,space=1,delta=1
     9                           	psect	bssBANK1,global,class=BANK1,space=1,delta=1
    10                           	psect	cstackBANK0,global,class=BANK0,space=1,delta=1
    11                           	psect	cstackCOMRAM,global,class=COMRAM,space=1,delta=1
    12                           	psect	text0,global,reloc=2,class=CODE,delta=1
    13                           	psect	text1,global,reloc=2,class=CODE,delta=1
    14                           	psect	text2,global,reloc=2,class=CODE,delta=1
    15                           	psect	text3,global,reloc=2,class=CODE,delta=1
    16                           	psect	text4,global,reloc=2,class=CODE,delta=1
    17                           	psect	text5,global,reloc=2,class=CODE,delta=1
    18                           	psect	text6,global,reloc=2,class=CODE,delta=1
    19                           	psect	text7,global,reloc=2,class=CODE,delta=1
    20                           	psect	text8,global,reloc=2,class=CODE,delta=1
    21                           	psect	text9,global,reloc=2,class=CODE,delta=1
    22                           	psect	text10,global,reloc=2,class=CODE,delta=1
    23                           	psect	text11,global,reloc=2,class=CODE,delta=1
    24                           	psect	text12,global,reloc=2,class=CODE,delta=1
    25                           	psect	text13,global,reloc=2,class=CODE,delta=1
    26                           	psect	intcode,global,reloc=2,class=CODE,delta=1
    27                           	psect	text15,global,reloc=2,class=CODE,delta=1
    28                           	psect	text16,global,reloc=2,class=CODE,delta=1
    29                           	psect	text17,global,reloc=2,class=CODE,delta=1
    30                           	psect	text18,global,reloc=2,class=CODE,delta=1
    31                           	psect	text19,global,reloc=2,class=CODE,delta=1
    32                           	psect	text20,global,reloc=2,class=CODE,delta=1
    33                           	psect	text21,global,reloc=2,class=CODE,delta=1
    34                           	psect	text22,global,reloc=2,class=CODE,delta=1
    35                           	psect	text23,global,reloc=2,class=CODE,delta=1
    36                           	psect	text24,global,reloc=2,class=CODE,delta=1
    37                           	psect	text25,global,reloc=2,class=CODE,delta=1
    38                           	psect	text26,global,reloc=2,class=CODE,delta=1
    39                           	psect	text27,global,reloc=2,class=CODE,delta=1
    40                           	psect	text28,global,reloc=2,class=CODE,delta=1
    41                           	psect	text29,global,reloc=2,class=CODE,delta=1
    42                           	psect	text30,global,reloc=2,class=CODE,delta=1
    43                           	psect	text31,global,reloc=2,class=CODE,delta=1
    44                           	psect	text32,global,reloc=2,class=CODE,delta=1
    45                           	psect	text33,global,reloc=2,class=CODE,delta=1
    46                           	psect	text34,global,reloc=2,class=CODE,delta=1
    47                           	psect	text35,global,reloc=2,class=CODE,delta=1
    48                           	psect	text36,global,reloc=2,class=CODE,delta=1
    49                           	psect	text37,global,reloc=2,class=CODE,delta=1
    50                           	psect	text38,global,reloc=2,class=CODE,delta=1
    51                           	psect	text39,global,reloc=2,class=CODE,delta=1
    52                           	psect	text40,global,reloc=2,class=CODE,delta=1
    53                           	psect	text41,global,reloc=2,class=CODE,delta=1
    54                           	psect	text42,global,reloc=2,class=CODE,delta=1
    55                           	psect	text43,global,reloc=2,class=CODE,delta=1
    56                           	psect	text44,global,reloc=2,class=CODE,delta=1
    57                           	psect	text45,global,reloc=2,class=CODE,delta=1
    58                           	psect	text46,global,reloc=2,class=CODE,delta=1
    59                           	psect	text47,global,reloc=2,class=CODE,delta=1
    60                           	psect	intsave_regs,global,class=BIGRAM,space=1,delta=1
    61                           	psect	text48,global,reloc=2,class=CODE,delta=1
    62                           	psect	rparam,global,class=COMRAM,space=1,delta=1
    63                           	dabs	1,0xD00,48,_BDT
    64                           	dabs	1,0xD38,8,_CtrlTrfData
    65                           	dabs	1,0xD30,8,_SetupPkt
    66  0000                     
    67                           	psect	smallconst
    68  000F00                     __psmallconst:
    69                           	opt stack 0
    70  000F00  00                 	db	0
    71  000F01                     _USB_SD_Ptr:
    72                           	opt stack 0
    73  000F01  C6                 	db	low _sd000
    74  000F02  0F                 	db	high _sd000
    75  000F03  4C                 	db	low _sd001
    76  000F04  0F                 	db	high _sd001
    77  000F05  80                 	db	low _sd002
    78  000F06  0F                 	db	high _sd002
    79  000F07                     __end_of_USB_SD_Ptr:
    80                           	opt stack 0
    81  000F07                     _USB_CD_Ptr:
    82                           	opt stack 0
    83  000F07  09                 	db	low _configDescriptor1
    84  000F08  0F                 	db	high _configDescriptor1
    85  000F09                     __end_of_USB_CD_Ptr:
    86                           	opt stack 0
    87  000F09                     _configDescriptor1:
    88                           	opt stack 0
    89  000F09  09                 	db	9
    90  000F0A  02                 	db	2
    91  000F0B  43                 	db	67
    92  000F0C  00                 	db	0
    93  000F0D  02                 	db	2
    94  000F0E  01                 	db	1
    95  000F0F  00                 	db	0
    96  000F10  C0                 	db	192
    97  000F11  32                 	db	50
    98  000F12  09                 	db	9
    99  000F13  04                 	db	4
   100  000F14  00                 	db	0
   101  000F15  00                 	db	0
   102  000F16  01                 	db	1
   103  000F17  02                 	db	2
   104  000F18  02                 	db	2
   105  000F19  01                 	db	1
   106  000F1A  00                 	db	0
   107  000F1B  05                 	db	5
   108  000F1C  24                 	db	36
   109  000F1D  00                 	db	0
   110  000F1E  10                 	db	16
   111  000F1F  01                 	db	1
   112  000F20  04                 	db	4
   113  000F21  24                 	db	36
   114  000F22  02                 	db	2
   115  000F23  02                 	db	2
   116  000F24  05                 	db	5
   117  000F25  24                 	db	36
   118  000F26  06                 	db	6
   119  000F27  00                 	db	0
   120  000F28  01                 	db	1
   121  000F29  05                 	db	5
   122  000F2A  24                 	db	36
   123  000F2B  01                 	db	1
   124  000F2C  00                 	db	0
   125  000F2D  01                 	db	1
   126  000F2E  07                 	db	7
   127  000F2F  05                 	db	5
   128  000F30  81                 	db	129
   129  000F31  03                 	db	3
   130  000F32  08                 	db	8
   131  000F33  00                 	db	0
   132  000F34  02                 	db	2
   133  000F35  09                 	db	9
   134  000F36  04                 	db	4
   135  000F37  01                 	db	1
   136  000F38  00                 	db	0
   137  000F39  02                 	db	2
   138  000F3A  0A                 	db	10
   139  000F3B  00                 	db	0
   140  000F3C  00                 	db	0
   141  000F3D  00                 	db	0
   142  000F3E  07                 	db	7
   143  000F3F  05                 	db	5
   144  000F40  02                 	db	2
   145  000F41  02                 	db	2
   146  000F42  40                 	db	64
   147  000F43  00                 	db	0
   148  000F44  00                 	db	0
   149  000F45  07                 	db	7
   150  000F46  05                 	db	5
   151  000F47  82                 	db	130
   152  000F48  02                 	db	2
   153  000F49  40                 	db	64
   154  000F4A  00                 	db	0
   155  000F4B  00                 	db	0
   156  000F4C                     __end_of_configDescriptor1:
   157                           	opt stack 0
   158  000F4C                     _sd001:
   159                           	opt stack 0
   160  000F4C  34                 	db	52
   161  000F4D  03                 	db	3
   162  000F4E  004D               	dw	77
   163  000F50  0069               	dw	105
   164  000F52  0063               	dw	99
   165  000F54  0072               	dw	114
   166  000F56  006F               	dw	111
   167  000F58  0063               	dw	99
   168  000F5A  0068               	dw	104
   169  000F5C  0069               	dw	105
   170  000F5E  0070               	dw	112
   171  000F60  0020               	dw	32
   172  000F62  0054               	dw	84
   173  000F64  0065               	dw	101
   174  000F66  0063               	dw	99
   175  000F68  0068               	dw	104
   176  000F6A  006E               	dw	110
   177  000F6C  006F               	dw	111
   178  000F6E  006C               	dw	108
   179  000F70  006F               	dw	111
   180  000F72  0067               	dw	103
   181  000F74  0079               	dw	121
   182  000F76  0020               	dw	32
   183  000F78  0049               	dw	73
   184  000F7A  006E               	dw	110
   185  000F7C  0063               	dw	99
   186  000F7E  002E               	dw	46
   187  000F80                     __end_of_sd001:
   188                           	opt stack 0
   189  000F80                     _sd002:
   190                           	opt stack 0
   191  000F80  34                 	db	52
   192  000F81  03                 	db	3
   193  000F82  0043               	dw	67
   194  000F84  0044               	dw	68
   195  000F86  0043               	dw	67
   196  000F88  0020               	dw	32
   197  000F8A  0052               	dw	82
   198  000F8C  0053               	dw	83
   199  000F8E  002D               	dw	45
   200  000F90  0032               	dw	50
   201  000F92  0033               	dw	51
   202  000F94  0032               	dw	50
   203  000F96  0020               	dw	32
   204  000F98  0045               	dw	69
   205  000F9A  006D               	dw	109
   206  000F9C  0075               	dw	117
   207  000F9E  006C               	dw	108
   208  000FA0  0061               	dw	97
   209  000FA2  0074               	dw	116
   210  000FA4  0069               	dw	105
   211  000FA6  006F               	dw	111
   212  000FA8  006E               	dw	110
   213  000FAA  0020               	dw	32
   214  000FAC  0044               	dw	68
   215  000FAE  0065               	dw	101
   216  000FB0  006D               	dw	109
   217  000FB2  006F               	dw	111
   218  000FB4                     __end_of_sd002:
   219                           	opt stack 0
   220  000FB4                     _device_dsc:
   221                           	opt stack 0
   222  000FB4  12                 	db	18
   223  000FB5  01                 	db	1
   224  000FB6  0200               	dw	512
   225  000FB8  02                 	db	2
   226  000FB9  00                 	db	0
   227  000FBA  00                 	db	0
   228  000FBB  08                 	db	8
   229  000FBC  04D8               	dw	1240
   230  000FBE  000A               	dw	10
   231  000FC0  0100               	dw	256
   232  000FC2  01                 	db	1
   233  000FC3  02                 	db	2
   234  000FC4  00                 	db	0
   235  000FC5  01                 	db	1
   236  000FC6                     __end_of_device_dsc:
   237                           	opt stack 0
   238  000FC6                     _sd000:
   239                           	opt stack 0
   240  000FC6  04                 	db	4
   241  000FC7  03                 	db	3
   242  000FC8  0409               	dw	1033
   243  000FCA                     __end_of_sd000:
   244                           	opt stack 0
   245  0000                     _ANCON0bits	set	3912
   246  0000                     _ANCON1bits	set	3913
   247  0000                     _UADDR	set	3896
   248  0000                     _UCFG	set	3897
   249  0000                     _UEIE	set	3895
   250  0000                     _UEP0bits	set	3878
   251  0000                     _UIE	set	3894
   252  0000                     _UIEbits	set	3894
   253  0000                     _UEP0	set	3878
   254  0000                     _UEP1	set	3879
   255  0000                     _ADCON0	set	4034
   256  0000                     _ADCON0bits	set	4034
   257  0000                     _ADCON1	set	4033
   258  0000                     _ADRESH	set	4036
   259  0000                     _ADRESL	set	4035
   260  0000                     _BAUDCON	set	3966
   261  0000                     _INTCONbits	set	4082
   262  0000                     _IPR2bits	set	4002
   263  0000                     _LATBbits	set	3978
   264  0000                     _LATEbits	set	3981
   265  0000                     _OSCCON	set	4051
   266  0000                     _OSCTUNEbits	set	3995
   267  0000                     _PIE2bits	set	4000
   268  0000                     _PIR1bits	set	3998
   269  0000                     _PIR2bits	set	4001
   270  0000                     _PORTBbits	set	3969
   271  0000                     _RCONbits	set	4048
   272  0000                     _RCREG	set	4015
   273  0000                     _RCSTA	set	4012
   274  0000                     _RCSTAbits	set	4012
   275  0000                     _SPBRG	set	4016
   276  0000                     _SPBRGH	set	3967
   277  0000                     _TRISAbits	set	3986
   278  0000                     _TRISBbits	set	3987
   279  0000                     _TRISCbits	set	3988
   280  0000                     _TRISEbits	set	3990
   281  0000                     _TXREG	set	4014
   282  0000                     _TXSTA	set	4013
   283  0000                     _TXSTAbits	set	4013
   284  0000                     _UCON	set	3941
   285  0000                     _UCONbits	set	3941
   286  0000                     _UEIR	set	3939
   287  0000                     _UIR	set	3938
   288  0000                     _UIRbits	set	3938
   289  0000                     _USTAT	set	3940
   290                           
   291                           ; #config settings
   292  000FCA  00                 	db	0	; dummy byte at the end
   293  0000                     
   294                           	psect	cinit
   295  002BE2                     __pcinit:
   296                           	opt stack 0
   297  002BE2                     start_initialization:
   298                           	opt stack 0
   299  002BE2                     __initialization:
   300                           	opt stack 0
   301                           
   302                           ; Clear objects allocated to BANK1 (192 bytes)
   303  002BE2  EE01  F000         	lfsr	0,__pbssBANK1
   304  002BE6  0EC0               	movlw	192
   305  002BE8                     clear_0:
   306  002BE8  6AEE               	clrf	postinc0,c
   307  002BEA  06E8               	decf	wreg,f,c
   308  002BEC  E1FD               	bnz	clear_0
   309                           
   310                           ; Clear objects allocated to BANK0 (127 bytes)
   311  002BEE  EE00  F060         	lfsr	0,__pbssBANK0
   312  002BF2  0E7F               	movlw	127
   313  002BF4                     clear_1:
   314  002BF4  6AEE               	clrf	postinc0,c
   315  002BF6  06E8               	decf	wreg,f,c
   316  002BF8  E1FD               	bnz	clear_1
   317                           
   318                           ; Clear objects allocated to COMRAM (45 bytes)
   319  002BFA  EE00  F033         	lfsr	0,__pbssCOMRAM
   320  002BFE  0E2D               	movlw	45
   321  002C00                     clear_2:
   322  002C00  6AEE               	clrf	postinc0,c
   323  002C02  06E8               	decf	wreg,f,c
   324  002C04  E1FD               	bnz	clear_2
   325  002C06                     end_of_initialization:
   326                           	opt stack 0
   327  002C06                     __end_of__initialization:
   328                           	opt stack 0
   329  002C06  0100               	movlb	0
   330  002C08  EF06  F016         	goto	_main	;jump to C main() function
   331                           postinc0	equ	0xFEE
   332                           wreg	equ	0xFE8
   333                           
   334                           	psect	bssCOMRAM
   335  000033                     __pbssCOMRAM:
   336                           	opt stack 0
   337  000033                     _outPipes:
   338                           	opt stack 0
   339  000033                     	ds	9
   340  00003C                     _pBDTEntryIn:
   341                           	opt stack 0
   342  00003C                     	ds	6
   343  000042                     APP_LEDUpdateUSBStatus@ledCount:
   344                           	opt stack 0
   345  000042                     	ds	2
   346  000044                     _pBDTEntryEP0OutCurrent:
   347                           	opt stack 0
   348  000044                     	ds	2
   349  000046                     _pBDTEntryEP0OutNext:
   350                           	opt stack 0
   351  000046                     	ds	2
   352  000048                     _BothEP0OutUOWNsSet:
   353                           	opt stack 0
   354  000048                     	ds	1
   355  000049                     _LastRS232Out:
   356                           	opt stack 0
   357  000049                     	ds	1
   358  00004A                     _NextUSBOut:
   359                           	opt stack 0
   360  00004A                     	ds	1
   361  00004B                     _RS232_Out_Data_Rdy:
   362                           	opt stack 0
   363  00004B                     	ds	1
   364  00004C                     _RS232cp:
   365                           	opt stack 0
   366  00004C                     	ds	1
   367  00004D                     _RemoteWakeup:
   368                           	opt stack 0
   369  00004D                     	ds	1
   370  00004E                     _USBDeferINDataStagePackets:
   371                           	opt stack 0
   372  00004E                     	ds	1
   373  00004F                     _USBDeferStatusStagePacket:
   374                           	opt stack 0
   375  00004F                     	ds	1
   376  000050                     _USBDeviceState:
   377                           	opt stack 0
   378  000050                     	ds	1
   379  000051                     _USBStatusStageEnabledFlag1:
   380                           	opt stack 0
   381  000051                     	ds	1
   382  000052                     _USBStatusStageEnabledFlag2:
   383                           	opt stack 0
   384  000052                     	ds	1
   385  000053                     _USBStatusStageTimeoutCounter:
   386                           	opt stack 0
   387  000053                     	ds	1
   388  000054                     _cdc_trf_state:
   389                           	opt stack 0
   390  000054                     	ds	1
   391  000055                     _controlTransferState:
   392                           	opt stack 0
   393  000055                     	ds	1
   394  000056                     _endpoint_number:
   395                           	opt stack 0
   396  000056                     	ds	1
   397  000057                     _shortPacketStatus:
   398                           	opt stack 0
   399  000057                     	ds	1
   400  000058                     _inPipes:
   401                           	opt stack 0
   402  000058                     	ds	6
   403  00005E                     _USBActiveConfiguration:
   404                           	opt stack 0
   405  00005E                     	ds	1
   406  00005F                     _USTATcopy:
   407                           	opt stack 0
   408  00005F                     	ds	1
   409                           postinc0	equ	0xFEE
   410                           wreg	equ	0xFE8
   411                           
   412                           	psect	bssBANK0
   413  000060                     __pbssBANK0:
   414                           	opt stack 0
   415  000060                     _pBDTEntryOut:
   416                           	opt stack 0
   417  000060                     	ds	6
   418  000066                     _BaudRateGen:
   419                           	opt stack 0
   420  000066                     	ds	4
   421  00006A                     _ep_data_in:
   422                           	opt stack 0
   423  00006A                     	ds	3
   424  00006D                     _ep_data_out:
   425                           	opt stack 0
   426  00006D                     	ds	3
   427  000070                     _pCDCDst:
   428                           	opt stack 0
   429  000070                     	ds	3
   430  000073                     _pCDCSrc:
   431                           	opt stack 0
   432  000073                     	ds	3
   433  000076                     _CDCDataInHandle:
   434                           	opt stack 0
   435  000076                     	ds	2
   436  000078                     _CDCDataOutHandle:
   437                           	opt stack 0
   438  000078                     	ds	2
   439  00007A                     _lastTransmission:
   440                           	opt stack 0
   441  00007A                     	ds	2
   442  00007C                     _pDst:
   443                           	opt stack 0
   444  00007C                     	ds	2
   445  00007E                     _USBBusIsSuspended:
   446                           	opt stack 0
   447  00007E                     	ds	1
   448  00007F                     _USBDeferOUTDataStagePackets:
   449                           	opt stack 0
   450  00007F                     	ds	1
   451  000080                     _cdc_mem_type:
   452                           	opt stack 0
   453  000080                     	ds	1
   454  000081                     _cdc_rx_len:
   455                           	opt stack 0
   456  000081                     	ds	1
   457  000082                     _cdc_tx_len:
   458                           	opt stack 0
   459  000082                     	ds	1
   460  000083                     _control_signal_bitmap:
   461                           	opt stack 0
   462  000083                     	ds	1
   463  000084                     _cdc_data_rx:
   464                           	opt stack 0
   465  000084                     	ds	64
   466  0000C4                     _cdc_notice:
   467                           	opt stack 0
   468  0000C4                     	ds	10
   469  0000CE                     _dummy_encapsulated_cmd_response:
   470                           	opt stack 0
   471  0000CE                     	ds	8
   472  0000D6                     _line_coding:
   473                           	opt stack 0
   474  0000D6                     	ds	7
   475  0000DD                     _USBAlternateInterface:
   476                           	opt stack 0
   477  0000DD                     	ds	2
   478                           postinc0	equ	0xFEE
   479                           wreg	equ	0xFE8
   480                           
   481                           	psect	bssBANK1
   482  000100                     __pbssBANK1:
   483                           	opt stack 0
   484  000100                     _RS232_Out_Data:
   485                           	opt stack 0
   486  000100                     	ds	64
   487  000140                     _USB_Out_Buffer:
   488                           	opt stack 0
   489  000140                     	ds	64
   490  000180                     _cdc_data_tx:
   491                           	opt stack 0
   492  000180                     	ds	64
   493                           postinc0	equ	0xFEE
   494                           wreg	equ	0xFE8
   495                           
   496                           	psect	cstackBANK0
   497  0000DF                     __pcstackBANK0:
   498                           	opt stack 0
   499  0000DF                     USBTransferOnePacket@ep:
   500                           	opt stack 0
   501  0000DF                     SYSTEM_Initialize@pll_startup_counter:
   502                           	opt stack 0
   503  0000DF                     memset@p1:
   504                           	opt stack 0
   505                           
   506                           ; 2 bytes @ 0x0
   507  0000DF                     	ds	1
   508  0000E0                     USBTransferOnePacket@handle:
   509                           	opt stack 0
   510                           
   511                           ; 2 bytes @ 0x1
   512  0000E0                     	ds	1
   513  0000E1                     SYSTEM_Initialize@pll_startup_counter_79:
   514                           	opt stack 0
   515  0000E1                     memset@c:
   516                           	opt stack 0
   517                           
   518                           ; 2 bytes @ 0x2
   519  0000E1                     	ds	1
   520  0000E2                     getsUSBUSART@buffer:
   521                           	opt stack 0
   522  0000E2                     _CDCTxService$3194:
   523                           	opt stack 0
   524                           
   525                           ; 2 bytes @ 0x3
   526  0000E2                     	ds	1
   527  0000E3                     SYSTEM_Initialize@state:
   528                           	opt stack 0
   529  0000E3                     memset@n:
   530                           	opt stack 0
   531                           
   532                           ; 2 bytes @ 0x4
   533  0000E3                     	ds	1
   534  0000E4                     getsUSBUSART@len:
   535                           	opt stack 0
   536  0000E4                     CDCTxService@i:
   537                           	opt stack 0
   538                           
   539                           ; 1 bytes @ 0x5
   540  0000E4                     	ds	1
   541  0000E5                     CDCTxService@byte_to_send:
   542                           	opt stack 0
   543  0000E5                     _getsUSBUSART$3146:
   544                           	opt stack 0
   545                           
   546                           ; 2 bytes @ 0x6
   547  0000E5                     	ds	2
   548                           postinc0	equ	0xFEE
   549                           wreg	equ	0xFE8
   550                           
   551                           	psect	cstackCOMRAM
   552  000001                     __pcstackCOMRAM:
   553                           	opt stack 0
   554  000001                     ??_USBStdGetDscHandler:
   555  000001                     ??_USBStdGetStatusHandler:
   556  000001                     ?i2_USBTransferOnePacket:
   557                           	opt stack 0
   558  000001                     ?___lldiv:
   559                           	opt stack 0
   560  000001                     LED_On@led:
   561                           	opt stack 0
   562  000001                     LED_Off@led:
   563                           	opt stack 0
   564  000001                     USART_Initialize@c:
   565                           	opt stack 0
   566  000001                     USBConfigureEndpoint@direction:
   567                           	opt stack 0
   568  000001                     USBCtrlTrfTxService@byteToSend:
   569                           	opt stack 0
   570  000001                     i2USBTransferOnePacket@dir:
   571                           	opt stack 0
   572  000001                     i2memset@p1:
   573                           	opt stack 0
   574  000001                     ___lldiv@dividend:
   575                           	opt stack 0
   576                           
   577                           ; 4 bytes @ 0x0
   578  000001                     	ds	1
   579  000002                     ??_USBConfigureEndpoint:
   580  000002                     USBStdGetStatusHandler@p:
   581                           	opt stack 0
   582  000002                     i2USBTransferOnePacket@data:
   583                           	opt stack 0
   584                           
   585                           ; 2 bytes @ 0x1
   586  000002                     	ds	1
   587  000003                     i2memset@c:
   588                           	opt stack 0
   589                           
   590                           ; 2 bytes @ 0x2
   591  000003                     	ds	1
   592  000004                     i2USBTransferOnePacket@len:
   593                           	opt stack 0
   594                           
   595                           ; 1 bytes @ 0x3
   596  000004                     	ds	1
   597  000005                     i2USBTransferOnePacket@ep:
   598                           	opt stack 0
   599  000005                     i2memset@n:
   600                           	opt stack 0
   601  000005                     ___lldiv@divisor:
   602                           	opt stack 0
   603                           
   604                           ; 4 bytes @ 0x4
   605  000005                     	ds	1
   606  000006                     USBConfigureEndpoint@EPNum:
   607                           	opt stack 0
   608  000006                     i2USBTransferOnePacket@handle:
   609                           	opt stack 0
   610                           
   611                           ; 2 bytes @ 0x5
   612  000006                     	ds	1
   613  000007                     USBConfigureEndpoint@handle:
   614                           	opt stack 0
   615  000007                     i2memset@p:
   616                           	opt stack 0
   617                           
   618                           ; 2 bytes @ 0x6
   619  000007                     	ds	2
   620  000009                     USBEnableEndpoint@options:
   621                           	opt stack 0
   622  000009                     i2USBDeviceInit@i:
   623                           	opt stack 0
   624  000009                     ___lldiv@quotient:
   625                           	opt stack 0
   626                           
   627                           ; 4 bytes @ 0x8
   628  000009                     	ds	1
   629  00000A                     USBEnableEndpoint@p:
   630                           	opt stack 0
   631                           
   632                           ; 2 bytes @ 0x9
   633  00000A                     	ds	2
   634  00000C                     USBEnableEndpoint@ep:
   635                           	opt stack 0
   636                           
   637                           ; 1 bytes @ 0xB
   638  00000C                     	ds	1
   639  00000D                     APP_DeviceCDCEmulatorInitialize@i:
   640                           	opt stack 0
   641  00000D                     ___lldiv@counter:
   642                           	opt stack 0
   643                           
   644                           ; 1 bytes @ 0xC
   645  00000D                     	ds	1
   646  00000E                     USER_USB_CALLBACK_EVENT_HANDLER@event:
   647                           	opt stack 0
   648  00000E                     USART_mySetLineCodingHandler@dwBaud:
   649                           	opt stack 0
   650                           
   651                           ; 4 bytes @ 0xD
   652  00000E                     	ds	2
   653  000010                     USER_USB_CALLBACK_EVENT_HANDLER@pdata:
   654                           	opt stack 0
   655                           
   656                           ; 2 bytes @ 0xF
   657  000010                     	ds	2
   658  000012                     USBCtrlTrfRxService@i:
   659                           	opt stack 0
   660  000012                     USBCtrlTrfInHandler@lastDTS:
   661                           	opt stack 0
   662  000012                     USER_USB_CALLBACK_EVENT_HANDLER@size:
   663                           	opt stack 0
   664                           
   665                           ; 2 bytes @ 0x11
   666  000012                     	ds	1
   667  000013                     USBCtrlTrfRxService@byteToRead:
   668                           	opt stack 0
   669                           
   670                           ; 1 bytes @ 0x12
   671  000013                     	ds	1
   672  000014                     ??_USER_USB_CALLBACK_EVENT_HANDLER:
   673                           
   674                           ; 0 bytes @ 0x13
   675  000014                     	ds	2
   676  000016                     ??_USBStdFeatureReqHandler:
   677  000016                     USBStdSetCfgHandler@i:
   678                           	opt stack 0
   679                           
   680                           ; 1 bytes @ 0x15
   681  000016                     	ds	1
   682  000017                     USBStdFeatureReqHandler@pUEP:
   683                           	opt stack 0
   684                           
   685                           ; 2 bytes @ 0x16
   686  000017                     	ds	2
   687  000019                     USBStdFeatureReqHandler@current_ep_data:
   688                           	opt stack 0
   689                           
   690                           ; 1 bytes @ 0x18
   691  000019                     	ds	1
   692  00001A                     USBStdFeatureReqHandler@p:
   693                           	opt stack 0
   694                           
   695                           ; 2 bytes @ 0x19
   696  00001A                     	ds	2
   697  00001C                     ??_USBCtrlEPService:
   698  00001C                     
   699                           ; 0 bytes @ 0x1B
   700  00001C                     	ds	2
   701  00001E                     USBCtrlEPService@setup_cnt:
   702                           	opt stack 0
   703                           
   704                           ; 1 bytes @ 0x1D
   705  00001E                     	ds	1
   706  00001F                     USBDeviceTasks@i:
   707                           	opt stack 0
   708                           
   709                           ; 1 bytes @ 0x1E
   710  00001F                     	ds	1
   711  000020                     ??_SYS_InterruptHigh:
   712                           
   713                           ; 0 bytes @ 0x1F
   714  000020                     	ds	14
   715  00002E                     ?_USBTransferOnePacket:
   716                           	opt stack 0
   717  00002E                     BUTTON_Enable@button:
   718                           	opt stack 0
   719  00002E                     LED_Enable@led:
   720                           	opt stack 0
   721  00002E                     USART_putcUSART@c:
   722                           	opt stack 0
   723  00002E                     USART_getcUSART@c:
   724                           	opt stack 0
   725  00002E                     USBTransferOnePacket@dir:
   726                           	opt stack 0
   727  00002E                     putUSBUSART@data:
   728                           	opt stack 0
   729  00002E                     memset@p:
   730                           	opt stack 0
   731                           
   732                           ; 2 bytes @ 0x2D
   733  00002E                     	ds	1
   734  00002F                     USBTransferOnePacket@data:
   735                           	opt stack 0
   736                           
   737                           ; 2 bytes @ 0x2E
   738  00002F                     	ds	1
   739  000030                     USBDeviceInit@i:
   740                           	opt stack 0
   741  000030                     putUSBUSART@length:
   742                           	opt stack 0
   743                           
   744                           ; 1 bytes @ 0x2F
   745  000030                     	ds	1
   746  000031                     USBTransferOnePacket@len:
   747                           	opt stack 0
   748                           
   749                           ; 1 bytes @ 0x30
   750  000031                     	ds	1
   751  000032                     ??_getsUSBUSART:
   752  000032                     ??_CDCTxService:
   753  000032                     
   754                           ; 0 bytes @ 0x31
   755  000032                     	ds	1
   756  000033                     postinc0	equ	0xFEE
   757                           wreg	equ	0xFE8
   758                           
   759                           ; 0 bytes @ 0x32
   760 ;;
   761 ;;Main: autosize = 0, tempsize = 0, incstack = 0, save=0
   762 ;;
   763 ;; *************** function _main *****************
   764 ;; Defined at:
   765 ;;		line 49 in file "../src/main.c"
   766 ;; Parameters:    Size  Location     Type
   767 ;;		None
   768 ;; Auto vars:     Size  Location     Type
   769 ;;		None
   770 ;; Return value:  Size  Location     Type
   771 ;;		None               void
   772 ;; Registers used:
   773 ;;		wreg, fsr1l, fsr1h, fsr2l, fsr2h, status,2, status,0, prodl, prodh, cstack
   774 ;; Tracked objects:
   775 ;;		On entry : 0/0
   776 ;;		On exit  : 0/0
   777 ;;		Unchanged: 0/0
   778 ;; Data sizes:     COMRAM   BANK0   BANK1   BANK2   BANK3   BANK4   BANK5   BANK6   BANK7   BANK8   BANK9  BANK10  BANK1
      +1  BANK12  BANK13  BANK14
   779 ;;      Params:         0       0       0       0       0       0       0       0       0       0       0       0       
      +0       0       0       0
   780 ;;      Locals:         0       0       0       0       0       0       0       0       0       0       0       0       
      +0       0       0       0
   781 ;;      Temps:          0       0       0       0       0       0       0       0       0       0       0       0       
      +0       0       0       0
   782 ;;      Totals:         0       0       0       0       0       0       0       0       0       0       0       0       
      +0       0       0       0
   783 ;;Total ram usage:        0 bytes
   784 ;; Hardware stack levels required when called:   14
   785 ;; This function calls:
   786 ;;		_APP_DeviceCDCEmulatorTasks
   787 ;;		_SYSTEM_Initialize
   788 ;;		_USBDeviceAttach
   789 ;;		_USBDeviceInit
   790 ;; This function is called by:
   791 ;;		Startup code after reset
   792 ;; This function uses a non-reentrant model
   793 ;;
   794                           
   795                           	psect	text0
   796  002C0C                     __ptext0:
   797                           	opt stack 0
   798  002C0C                     _main:
   799                           	opt stack 17
   800                           
   801                           ;main.c: 51: SYSTEM_Initialize(SYSTEM_STATE_USB_START);
   802                           
   803                           ;incstack = 0
   804  002C0C  0E00               	movlw	0
   805  002C0E  ECEE  F013         	call	_SYSTEM_Initialize
   806                           
   807                           ;main.c: 53: USBDeviceInit();
   808  002C12  EC9F  F00A         	call	_USBDeviceInit	;wreg free
   809                           
   810                           ;main.c: 54: USBDeviceAttach();
   811  002C16  EC73  F015         	call	_USBDeviceAttach	;wreg free
   812  002C1A  D000               	goto	l4316
   813  002C1C                     l4316:
   814                           
   815                           ;main.c: 57: {
   816                           ;main.c: 58: ;
   817                           ;main.c: 80: if( USBDeviceState < CONFIGURED_STATE )
   818  002C1C  0E20               	movlw	32
   819  002C1E  6050               	cpfslt	_USBDeviceState,c	;volatile
   820  002C20  D001               	goto	l141
   821                           
   822                           ;main.c: 81: {
   823                           ;main.c: 83: continue;
   824  002C22  D7FC               	goto	l4316
   825  002C24                     l141:
   826                           
   827                           ;main.c: 84: }
   828                           ;main.c: 90: if( UCONbits.SUSPND== 1 )
   829  002C24  B265               	btfsc	3941,1,c	;volatile
   830  002C26  D7FA               	goto	l4316
   831  002C28  D001               	goto	l4322
   832                           
   833                           ;main.c: 91: {
   834                           ;main.c: 93: continue;
   835  002C2A  D7F8               	goto	l4316
   836  002C2C                     l4322:
   837                           
   838                           ;main.c: 94: }
   839                           ;main.c: 97: APP_DeviceCDCEmulatorTasks();
   840  002C2C  ECCF  F00F         	call	_APP_DeviceCDCEmulatorTasks	;wreg free
   841  002C30  D7F5               	goto	l4316
   842  002C32  EF3F  F000         	goto	start
   843  002C36                     __end_of_main:
   844                           	opt stack 0
   845                           postinc0	equ	0xFEE
   846                           wreg	equ	0xFE8
   847                           
   848 ;; *************** function _USBDeviceInit *****************
   849 ;; Defined at:
   850 ;;		line 298 in file "../../../../../../framework/usb/src/usb_device.c"
   851 ;; Parameters:    Size  Location     Type
   852 ;;		None
   853 ;; Auto vars:     Size  Location     Type
   854 ;;  i               1   47[COMRAM] unsigned char 
   855 ;; Return value:  Size  Location     Type
   856 ;;		None               void
   857 ;; Registers used:
   858 ;;		wreg, fsr2l, fsr2h, status,2, status,0, prodl, prodh, cstack
   859 ;; Tracked objects:
   860 ;;		On entry : 0/0
   861 ;;		On exit  : 0/0
   862 ;;		Unchanged: 0/0
   863 ;; Data sizes:     COMRAM   BANK0   BANK1   BANK2   BANK3   BANK4   BANK5   BANK6   BANK7   BANK8   BANK9  BANK10  BANK1
      +1  BANK12  BANK13  BANK14
   864 ;;      Params:         0       0       0       0       0       0       0       0       0       0       0       0       
      +0       0       0       0
   865 ;;      Locals:         1       0       0       0       0       0       0       0       0       0       0       0       
      +0       0       0       0
   866 ;;      Temps:          0       0       0       0       0       0       0       0       0       0       0       0       
      +0       0       0       0
   867 ;;      Totals:         1       0       0       0       0       0       0       0       0       0       0       0       
      +0       0       0       0
   868 ;;Total ram usage:        1 bytes
   869 ;; Hardware stack levels used:    1
   870 ;; Hardware stack levels required when called:   12
   871 ;; This function calls:
   872 ;;		_memset
   873 ;; This function is called by:
   874 ;;		_main
   875 ;; This function uses a non-reentrant model
   876 ;;
   877                           
   878                           	psect	text1
   879  00153E                     __ptext1:
   880                           	opt stack 0
   881  00153E                     _USBDeviceInit:
   882                           	opt stack 18
   883                           
   884                           ;usb_device.c: 300: uint8_t i;
   885                           ;usb_device.c: 302: {PIE2bits.USBIE = 0;};
   886                           
   887                           ;incstack = 0
   888  00153E  98A0               	bcf	4000,4,c	;volatile
   889                           
   890                           ;usb_device.c: 305: {UEIR = 0;};
   891  001540  0E00               	movlw	0
   892  001542  6E63               	movwf	3939,c	;volatile
   893                           
   894                           ;usb_device.c: 308: {UIR = 0;};
   895  001544  0E00               	movlw	0
   896  001546  6E62               	movwf	3938,c	;volatile
   897                           
   898                           ;usb_device.c: 311: UEP0 = 0;
   899  001548  0E00               	movlw	0
   900  00154A  010F               	movlb	15	; () banked
   901  00154C  6F26               	movwf	38,b	;volatile
   902                           
   903                           ; BSR set to: 15
   904                           ;usb_device.c: 313: memset((void*)&UEP1,0x00,(2));;
   905  00154E  0E27               	movlw	39
   906  001550  0100               	movlb	0	; () banked
   907  001552  6FDF               	movwf	memset@p1& (0+255),b
   908  001554  0E0F               	movlw	15
   909  001556  0100               	movlb	0	; () banked
   910  001558  6FE0               	movwf	(memset@p1+1)& (0+255),b
   911  00155A  0E00               	movlw	0
   912  00155C  0100               	movlb	0	; () banked
   913  00155E  6FE2               	movwf	(memset@c+1)& (0+255),b
   914  001560  0E00               	movlw	0
   915  001562  6FE1               	movwf	memset@c& (0+255),b
   916  001564  0E00               	movlw	0
   917  001566  0100               	movlb	0	; () banked
   918  001568  6FE4               	movwf	(memset@n+1)& (0+255),b
   919  00156A  0E02               	movlw	2
   920  00156C  6FE3               	movwf	memset@n& (0+255),b
   921  00156E  EC90  F015         	call	_memset	;wreg free
   922                           
   923                           ;usb_device.c: 315: { UCFG = 0x10 | 0x00 | 0x04 | 0x02; UEIE = 0x9F; UIE = 0x39 | 0x40 |
      +                           0x02; };
   924  001572  0E16               	movlw	22
   925  001574  010F               	movlb	15	; () banked
   926  001576  6F39               	movwf	57,b	;volatile
   927                           
   928                           ; BSR set to: 15
   929  001578  0E9F               	movlw	159
   930  00157A  010F               	movlb	15	; () banked
   931  00157C  6F37               	movwf	55,b	;volatile
   932                           
   933                           ; BSR set to: 15
   934  00157E  0E7B               	movlw	123
   935  001580  010F               	movlb	15	; () banked
   936  001582  6F36               	movwf	54,b	;volatile
   937                           
   938                           ; BSR set to: 15
   939                           ;usb_device.c: 318: ;
   940                           ;usb_device.c: 321: ;
   941                           ;usb_device.c: 324: for(i=0;i<(sizeof(BDT)/sizeof(BDT_ENTRY));i++)
   942  001584  0E00               	movlw	0
   943  001586  6E30               	movwf	USBDeviceInit@i,c
   944  001588  D00E               	goto	l4262
   945                           
   946                           ; BSR set to: 15
   947                           
   948                           ; BSR set to: 15
   949  00158A  D010               	goto	l451
   950  00158C                     l4258:
   951                           
   952                           ;usb_device.c: 325: {
   953                           ;usb_device.c: 326: BDT[i].Val = 0x00;
   954  00158C  5030               	movf	USBDeviceInit@i,w,c
   955  00158E  0D04               	mullw	4
   956  001590  0E00               	movlw	0
   957  001592  24F3               	addwf	prodl,w,c
   958  001594  6ED9               	movwf	fsr2l,c
   959  001596  0E0D               	movlw	13
   960  001598  20F4               	addwfc	prodh,w,c
   961  00159A  6EDA               	movwf	fsr2h,c
   962  00159C  6ADE               	clrf	postinc2,c
   963  00159E  6ADE               	clrf	postinc2,c
   964  0015A0  6ADE               	clrf	postinc2,c
   965  0015A2  6ADD               	clrf	postdec2,c
   966  0015A4  2A30               	incf	USBDeviceInit@i,f,c
   967  0015A6                     l4262:
   968  0015A6  0E0B               	movlw	11
   969  0015A8  6430               	cpfsgt	USBDeviceInit@i,c
   970  0015AA  D7F0               	goto	l4258
   971  0015AC                     l451:
   972                           
   973                           ;usb_device.c: 327: }
   974                           ;usb_device.c: 330: UCONbits.PPBRST = 1;
   975  0015AC  8C65               	bsf	3941,6,c	;volatile
   976                           
   977                           ;usb_device.c: 333: UADDR = 0x00;
   978  0015AE  0E00               	movlw	0
   979  0015B0  010F               	movlb	15	; () banked
   980  0015B2  6F38               	movwf	56,b	;volatile
   981                           
   982                           ; BSR set to: 15
   983                           ;usb_device.c: 336: UCONbits.PKTDIS = 0;
   984  0015B4  9865               	bcf	3941,4,c	;volatile
   985                           
   986                           ; BSR set to: 15
   987                           ;usb_device.c: 339: UCONbits.PPBRST = 0;
   988  0015B6  9C65               	bcf	3941,6,c	;volatile
   989                           
   990                           ;usb_device.c: 342: while(UIRbits.TRNIF == 1)
   991  0015B8  D00A               	goto	l4278
   992  0015BA                     l4270:
   993                           
   994                           ;usb_device.c: 343: {
   995                           ;usb_device.c: 344: (UIR &= 0xF7);
   996  0015BA  9662               	bcf	3938,3,c	;volatile
   997                           
   998                           ;usb_device.c: 346: inPipes[0].info.Val = 0;
   999  0015BC  0E00               	movlw	0
  1000  0015BE  6E5B               	movwf	_inPipes+3,c	;volatile
  1001                           
  1002                           ;usb_device.c: 347: outPipes[0].info.Val = 0;
  1003  0015C0  0E00               	movlw	0
  1004  0015C2  6E36               	movwf	_outPipes+3,c	;volatile
  1005                           
  1006                           ;usb_device.c: 348: outPipes[0].wCount.Val = 0;
  1007  0015C4  0E00               	movlw	0
  1008  0015C6  6E38               	movwf	_outPipes+5,c	;volatile
  1009  0015C8  0E00               	movlw	0
  1010  0015CA  6E37               	movwf	_outPipes+4,c	;volatile
  1011  0015CC  D000               	goto	l4278
  1012  0015CE                     l4278:
  1013  0015CE  B662               	btfsc	3938,3,c	;volatile
  1014  0015D0  D7F4               	goto	l4270
  1015                           
  1016                           ;usb_device.c: 349: }
  1017                           ;usb_device.c: 353: USBStatusStageEnabledFlag1 = 1;
  1018  0015D2  0E01               	movlw	1
  1019  0015D4  6E51               	movwf	_USBStatusStageEnabledFlag1,c	;volatile
  1020                           
  1021                           ;usb_device.c: 354: USBStatusStageEnabledFlag2 = 1;
  1022  0015D6  0E01               	movlw	1
  1023  0015D8  6E52               	movwf	_USBStatusStageEnabledFlag2,c	;volatile
  1024                           
  1025                           ;usb_device.c: 356: USBDeferINDataStagePackets = 0;
  1026  0015DA  0E00               	movlw	0
  1027  0015DC  6E4E               	movwf	_USBDeferINDataStagePackets,c	;volatile
  1028                           
  1029                           ;usb_device.c: 357: USBDeferOUTDataStagePackets = 0;
  1030  0015DE  0E00               	movlw	0
  1031  0015E0  0100               	movlb	0	; () banked
  1032  0015E2  6F7F               	movwf	_USBDeferOUTDataStagePackets& (0+255),b	;volatile
  1033                           
  1034                           ;usb_device.c: 358: USBBusIsSuspended = 0;
  1035  0015E4  0E00               	movlw	0
  1036  0015E6  0100               	movlb	0	; () banked
  1037  0015E8  6F7E               	movwf	_USBBusIsSuspended& (0+255),b	;volatile
  1038                           
  1039                           ;usb_device.c: 362: for(i = 0; i < (uint8_t)(2+1u); i++)
  1040  0015EA  0E00               	movlw	0
  1041  0015EC  6E30               	movwf	USBDeviceInit@i,c
  1042  0015EE                     l4282:
  1043                           
  1044                           ; BSR set to: 0
  1045  0015EE  0E02               	movlw	2
  1046  0015F0  6430               	cpfsgt	USBDeviceInit@i,c
  1047  0015F2  D001               	goto	l4286
  1048                           
  1049                           ; BSR set to: 0
  1050  0015F4  D02E               	goto	l4292
  1051  0015F6                     l4286:
  1052                           
  1053                           ;usb_device.c: 363: {
  1054                           ;usb_device.c: 364: pBDTEntryIn[i] = 0u;
  1055  0015F6  5030               	movf	USBDeviceInit@i,w,c
  1056  0015F8  0D02               	mullw	2
  1057  0015FA  0E3C               	movlw	low _pBDTEntryIn
  1058  0015FC  24F3               	addwf	prodl,w,c
  1059  0015FE  6ED9               	movwf	fsr2l,c
  1060  001600  0E00               	movlw	high _pBDTEntryIn
  1061  001602  20F4               	addwfc	prodh,w,c
  1062  001604  6EDA               	movwf	fsr2h,c
  1063  001606  0E00               	movlw	0
  1064  001608  6EDE               	movwf	postinc2,c
  1065  00160A  0E00               	movlw	0
  1066  00160C  6EDD               	movwf	postdec2,c
  1067                           
  1068                           ;usb_device.c: 365: pBDTEntryOut[i] = 0u;
  1069  00160E  5030               	movf	USBDeviceInit@i,w,c
  1070  001610  0D02               	mullw	2
  1071  001612  0E60               	movlw	low _pBDTEntryOut
  1072  001614  24F3               	addwf	prodl,w,c
  1073  001616  6ED9               	movwf	fsr2l,c
  1074  001618  0E00               	movlw	high _pBDTEntryOut
  1075  00161A  20F4               	addwfc	prodh,w,c
  1076  00161C  6EDA               	movwf	fsr2h,c
  1077  00161E  0E00               	movlw	0
  1078  001620  6EDE               	movwf	postinc2,c
  1079  001622  0E00               	movlw	0
  1080  001624  6EDD               	movwf	postdec2,c
  1081                           
  1082                           ;usb_device.c: 366: ep_data_in[i].Val = 0u;
  1083  001626  5030               	movf	USBDeviceInit@i,w,c
  1084  001628  0D01               	mullw	1
  1085  00162A  0E6A               	movlw	low _ep_data_in
  1086  00162C  24F3               	addwf	prodl,w,c
  1087  00162E  6ED9               	movwf	fsr2l,c
  1088  001630  0E00               	movlw	high _ep_data_in
  1089  001632  20F4               	addwfc	prodh,w,c
  1090  001634  6EDA               	movwf	fsr2h,c
  1091  001636  0E00               	movlw	0
  1092  001638  6EDF               	movwf	indf2,c
  1093                           
  1094                           ;usb_device.c: 367: ep_data_out[i].Val = 0u;
  1095  00163A  5030               	movf	USBDeviceInit@i,w,c
  1096  00163C  0D01               	mullw	1
  1097  00163E  0E6D               	movlw	low _ep_data_out
  1098  001640  24F3               	addwf	prodl,w,c
  1099  001642  6ED9               	movwf	fsr2l,c
  1100  001644  0E00               	movlw	high _ep_data_out
  1101  001646  20F4               	addwfc	prodh,w,c
  1102  001648  6EDA               	movwf	fsr2h,c
  1103  00164A  0E00               	movlw	0
  1104  00164C  6EDF               	movwf	indf2,c
  1105  00164E  2A30               	incf	USBDeviceInit@i,f,c
  1106  001650  D7CE               	goto	l4282
  1107  001652                     l4292:
  1108                           
  1109                           ;usb_device.c: 368: }
  1110                           ;usb_device.c: 371: pBDTEntryIn[0] = (volatile BDT_ENTRY*)&BDT[2];
  1111  001652  0E08               	movlw	8
  1112  001654  6E3C               	movwf	_pBDTEntryIn,c
  1113  001656  0E0D               	movlw	13
  1114  001658  6E3D               	movwf	_pBDTEntryIn+1,c
  1115                           
  1116                           ;usb_device.c: 373: UEP0 = 0x06|0x10;
  1117  00165A  0E16               	movlw	22
  1118  00165C  010F               	movlb	15	; () banked
  1119  00165E  6F26               	movwf	38,b	;volatile
  1120                           
  1121                           ; BSR set to: 15
  1122                           ;usb_device.c: 375: BDT[0].ADR = ((uint16_t)(&SetupPkt));
  1123  001660  0E0D               	movlw	13
  1124  001662  010D               	movlb	13	; () banked
  1125  001664  6F03               	movwf	3,b	;volatile
  1126  001666  0E30               	movlw	48
  1127  001668  6F02               	movwf	2,b	;volatile
  1128                           
  1129                           ; BSR set to: 13
  1130                           ;usb_device.c: 376: BDT[0].CNT = 8;
  1131  00166A  0E08               	movlw	8
  1132  00166C  010D               	movlb	13	; () banked
  1133  00166E  6F01               	movwf	1,b	;volatile
  1134                           
  1135                           ; BSR set to: 13
  1136                           ;usb_device.c: 377: BDT[0].STAT.Val = 0x00|0x04;
  1137  001670  0E04               	movlw	4
  1138  001672  010D               	movlb	13	; () banked
  1139  001674  6F00               	movwf	0,b	;volatile
  1140                           
  1141                           ; BSR set to: 13
  1142                           ;usb_device.c: 378: BDT[0].STAT.Val |= 0x80;
  1143  001676  010D               	movlb	13	; () banked
  1144  001678  8F00               	bsf	0,7,b	;volatile
  1145                           
  1146                           ; BSR set to: 13
  1147                           ;usb_device.c: 381: USBActiveConfiguration = 0;
  1148  00167A  0E00               	movlw	0
  1149  00167C  6E5E               	movwf	_USBActiveConfiguration,c	;volatile
  1150                           
  1151                           ; BSR set to: 13
  1152                           ;usb_device.c: 384: USBDeviceState = DETACHED_STATE;
  1153  00167E  0E00               	movlw	0
  1154  001680  6E50               	movwf	_USBDeviceState,c	;volatile
  1155                           
  1156                           ; BSR set to: 13
  1157  001682  0012               	return		;funcret
  1158  001684                     __end_of_USBDeviceInit:
  1159                           	opt stack 0
  1160                           prodh	equ	0xFF4
  1161                           prodl	equ	0xFF3
  1162                           postinc0	equ	0xFEE
  1163                           wreg	equ	0xFE8
  1164                           indf2	equ	0xFDF
  1165                           postinc2	equ	0xFDE
  1166                           postdec2	equ	0xFDD
  1167                           fsr2h	equ	0xFDA
  1168                           fsr2l	equ	0xFD9
  1169                           
  1170 ;; *************** function _memset *****************
  1171 ;; Defined at:
  1172 ;;		line 8 in file "C:\Program Files (x86)\Microchip\xc8\v1.34\sources\common\memset.c"
  1173 ;; Parameters:    Size  Location     Type
  1174 ;;  p1              2    0[BANK0 ] PTR void 
  1175 ;;		 -> USBAlternateInterface(2), BDT(48), UEP1(1), 
  1176 ;;  c               2    2[BANK0 ] int 
  1177 ;;  n               2    4[BANK0 ] unsigned int 
  1178 ;; Auto vars:     Size  Location     Type
  1179 ;;  p               2   45[COMRAM] PTR unsigned char 
  1180 ;;		 -> USBAlternateInterface(2), BDT(48), UEP1(1), 
  1181 ;; Return value:  Size  Location     Type
  1182 ;;                  2    0[BANK0 ] PTR void 
  1183 ;; Registers used:
  1184 ;;		wreg, fsr2l, fsr2h, status,2, status,0
  1185 ;; Tracked objects:
  1186 ;;		On entry : 0/0
  1187 ;;		On exit  : 0/0
  1188 ;;		Unchanged: 0/0
  1189 ;; Data sizes:     COMRAM   BANK0   BANK1   BANK2   BANK3   BANK4   BANK5   BANK6   BANK7   BANK8   BANK9  BANK10  BANK1
      +1  BANK12  BANK13  BANK14
  1190 ;;      Params:         0       6       0       0       0       0       0       0       0       0       0       0       
      +0       0       0       0
  1191 ;;      Locals:         2       0       0       0       0       0       0       0       0       0       0       0       
      +0       0       0       0
  1192 ;;      Temps:          0       0       0       0       0       0       0       0       0       0       0       0       
      +0       0       0       0
  1193 ;;      Totals:         2       6       0       0       0       0       0       0       0       0       0       0       
      +0       0       0       0
  1194 ;;Total ram usage:        8 bytes
  1195 ;; Hardware stack levels used:    1
  1196 ;; Hardware stack levels required when called:   11
  1197 ;; This function calls:
  1198 ;;		Nothing
  1199 ;; This function is called by:
  1200 ;;		_USBDeviceInit
  1201 ;; This function uses a non-reentrant model
  1202 ;;
  1203                           
  1204                           	psect	text2
  1205  002B20                     __ptext2:
  1206                           	opt stack 0
  1207  002B20                     _memset:
  1208                           	opt stack 18
  1209                           
  1210                           ; BSR set to: 13
  1211                           ;incstack = 0
  1212  002B20  C0DF  F02E         	movff	memset@p1,memset@p
  1213  002B24  C0E0  F02F         	movff	memset@p1+1,memset@p+1
  1214  002B28  D009               	goto	l3932
  1215  002B2A                     l3928:
  1216  002B2A  C02E  FFD9         	movff	memset@p,fsr2l
  1217  002B2E  C02F  FFDA         	movff	memset@p+1,fsr2h
  1218  002B32  C0E1  FFDF         	movff	memset@c,indf2
  1219  002B36  4A2E               	infsnz	memset@p,f,c
  1220  002B38  2A2F               	incf	memset@p+1,f,c
  1221  002B3A  D000               	goto	l3932
  1222  002B3C                     l3932:
  1223  002B3C  0100               	movlb	0	; () banked
  1224  002B3E  07E3               	decf	memset@n& (0+255),f,b
  1225  002B40  A0D8               	btfss	status,0,c
  1226  002B42  07E4               	decf	(memset@n+1)& (0+255),f,b
  1227  002B44  0100               	movlb	0	; () banked
  1228  002B46  29E3               	incf	memset@n& (0+255),w,b
  1229  002B48  E1F0               	bnz	l3928
  1230  002B4A  0100               	movlb	0	; () banked
  1231  002B4C  29E4               	incf	(memset@n+1)& (0+255),w,b
  1232  002B4E  A4D8               	btfss	status,2,c
  1233  002B50  D7EC               	goto	l3928
  1234                           
  1235                           ; BSR set to: 0
  1236                           
  1237                           ; BSR set to: 0
  1238                           ;	Return value of _memset is never used
  1239  002B52  0012               	return		;funcret
  1240  002B54                     __end_of_memset:
  1241                           	opt stack 0
  1242                           prodh	equ	0xFF4
  1243                           prodl	equ	0xFF3
  1244                           postinc0	equ	0xFEE
  1245                           wreg	equ	0xFE8
  1246                           indf2	equ	0xFDF
  1247                           postinc2	equ	0xFDE
  1248                           postdec2	equ	0xFDD
  1249                           fsr2h	equ	0xFDA
  1250                           fsr2l	equ	0xFD9
  1251                           status	equ	0xFD8
  1252                           
  1253 ;; *************** function _USBDeviceAttach *****************
  1254 ;; Defined at:
  1255 ;;		line 1352 in file "../../../../../../framework/usb/src/usb_device.c"
  1256 ;; Parameters:    Size  Location     Type
  1257 ;;		None
  1258 ;; Auto vars:     Size  Location     Type
  1259 ;;		None
  1260 ;; Return value:  Size  Location     Type
  1261 ;;		None               void
  1262 ;; Registers used:
  1263 ;;		wreg, status,2
  1264 ;; Tracked objects:
  1265 ;;		On entry : 0/0
  1266 ;;		On exit  : 0/0
  1267 ;;		Unchanged: 0/0
  1268 ;; Data sizes:     COMRAM   BANK0   BANK1   BANK2   BANK3   BANK4   BANK5   BANK6   BANK7   BANK8   BANK9  BANK10  BANK1
      +1  BANK12  BANK13  BANK14
  1269 ;;      Params:         0       0       0       0       0       0       0       0       0       0       0       0       
      +0       0       0       0
  1270 ;;      Locals:         0       0       0       0       0       0       0       0       0       0       0       0       
      +0       0       0       0
  1271 ;;      Temps:          0       0       0       0       0       0       0       0       0       0       0       0       
      +0       0       0       0
  1272 ;;      Totals:         0       0       0       0       0       0       0       0       0       0       0       0       
      +0       0       0       0
  1273 ;;Total ram usage:        0 bytes
  1274 ;; Hardware stack levels used:    1
  1275 ;; Hardware stack levels required when called:   11
  1276 ;; This function calls:
  1277 ;;		Nothing
  1278 ;; This function is called by:
  1279 ;;		_main
  1280 ;; This function uses a non-reentrant model
  1281 ;;
  1282                           
  1283                           	psect	text3
  1284  002AE6                     __ptext3:
  1285                           	opt stack 0
  1286  002AE6                     _USBDeviceAttach:
  1287                           	opt stack 19
  1288                           
  1289                           ;usb_device.c: 1356: {
  1290                           ;usb_device.c: 1357: if(1 == 1)
  1291                           
  1292                           ; BSR set to: 0
  1293                           ;incstack = 0
  1294  002AE6  5050               	movf	_USBDeviceState,w,c	;volatile
  1295  002AE8  A4D8               	btfss	status,2,c
  1296  002AEA  0012               	return	
  1297                           
  1298                           ;usb_device.c: 1358: {
  1299                           ;usb_device.c: 1360: UCON = 0;
  1300  002AEC  0E00               	movlw	0
  1301  002AEE  6E65               	movwf	3941,c	;volatile
  1302                           
  1303                           ;usb_device.c: 1363: UIE = 0;
  1304  002AF0  0E00               	movlw	0
  1305  002AF2  010F               	movlb	15	; () banked
  1306  002AF4  6F36               	movwf	54,b	;volatile
  1307                           
  1308                           ;usb_device.c: 1367: { UCFG = 0x10 | 0x00 | 0x04 | 0x02; UEIE = 0x9F; UIE = 0x39 | 0x40 
      +                          | 0x02; };
  1309  002AF6  0E16               	movlw	22
  1310  002AF8  010F               	movlb	15	; () banked
  1311  002AFA  6F39               	movwf	57,b	;volatile
  1312  002AFC  0E9F               	movlw	159
  1313  002AFE  010F               	movlb	15	; () banked
  1314  002B00  6F37               	movwf	55,b	;volatile
  1315  002B02  0E7B               	movlw	123
  1316  002B04  010F               	movlb	15	; () banked
  1317  002B06  6F36               	movwf	54,b	;volatile
  1318                           
  1319                           ; BSR set to: 15
  1320                           ;usb_device.c: 1369: {RCONbits.IPEN = 1;IPR2bits.USBIP = 1;PIE2bits.USBIE = 1;INTCONbits
      +                          .GIEH = 1;};
  1321  002B08  8ED0               	bsf	4048,7,c	;volatile
  1322                           
  1323                           ; BSR set to: 15
  1324  002B0A  88A2               	bsf	4002,4,c	;volatile
  1325                           
  1326                           ; BSR set to: 15
  1327  002B0C  88A0               	bsf	4000,4,c	;volatile
  1328                           
  1329                           ; BSR set to: 15
  1330  002B0E  8EF2               	bsf	intcon,7,c	;volatile
  1331                           
  1332                           ;usb_device.c: 1372: while(!UCONbits.USBEN){UCONbits.USBEN = 1;}
  1333  002B10  D001               	goto	l512
  1334  002B12                     l513:
  1335  002B12  8665               	bsf	3941,3,c	;volatile
  1336  002B14                     l512:
  1337  002B14  A665               	btfss	3941,3,c	;volatile
  1338  002B16  D7FD               	goto	l513
  1339                           
  1340                           ;usb_device.c: 1375: USBDeviceState = ATTACHED_STATE;
  1341  002B18  0E01               	movlw	1
  1342  002B1A  6E50               	movwf	_USBDeviceState,c	;volatile
  1343  002B1C  0012               	return	
  1344  002B1E  0012               	return		;funcret
  1345  002B20                     __end_of_USBDeviceAttach:
  1346                           	opt stack 0
  1347                           prodh	equ	0xFF4
  1348                           prodl	equ	0xFF3
  1349                           intcon	equ	0xFF2
  1350                           postinc0	equ	0xFEE
  1351                           wreg	equ	0xFE8
  1352                           indf2	equ	0xFDF
  1353                           postinc2	equ	0xFDE
  1354                           postdec2	equ	0xFDD
  1355                           fsr2h	equ	0xFDA
  1356                           fsr2l	equ	0xFD9
  1357                           status	equ	0xFD8
  1358                           
  1359 ;; *************** function _SYSTEM_Initialize *****************
  1360 ;; Defined at:
  1361 ;;		line 63 in file "../src/system_config/pic18f47j53_pim/system.c"
  1362 ;; Parameters:    Size  Location     Type
  1363 ;;  state           1    wreg     enum E10583
  1364 ;; Auto vars:     Size  Location     Type
  1365 ;;  state           1    4[BANK0 ] enum E10583
  1366 ;;  pll_startup_    2    2[BANK0 ] unsigned int 
  1367 ;;  pll_startup_    2    0[BANK0 ] unsigned int 
  1368 ;; Return value:  Size  Location     Type
  1369 ;;		None               void
  1370 ;; Registers used:
  1371 ;;		wreg, status,2, status,0, cstack
  1372 ;; Tracked objects:
  1373 ;;		On entry : 0/0
  1374 ;;		On exit  : 0/0
  1375 ;;		Unchanged: 0/0
  1376 ;; Data sizes:     COMRAM   BANK0   BANK1   BANK2   BANK3   BANK4   BANK5   BANK6   BANK7   BANK8   BANK9  BANK10  BANK1
      +1  BANK12  BANK13  BANK14
  1377 ;;      Params:         0       0       0       0       0       0       0       0       0       0       0       0       
      +0       0       0       0
  1378 ;;      Locals:         0       5       0       0       0       0       0       0       0       0       0       0       
      +0       0       0       0
  1379 ;;      Temps:          0       0       0       0       0       0       0       0       0       0       0       0       
      +0       0       0       0
  1380 ;;      Totals:         0       5       0       0       0       0       0       0       0       0       0       0       
      +0       0       0       0
  1381 ;;Total ram usage:        5 bytes
  1382 ;; Hardware stack levels used:    1
  1383 ;; Hardware stack levels required when called:   12
  1384 ;; This function calls:
  1385 ;;		_BUTTON_Enable
  1386 ;;		_LED_Enable
  1387 ;; This function is called by:
  1388 ;;		_main
  1389 ;; This function uses a non-reentrant model
  1390 ;;
  1391                           
  1392                           	psect	text4
  1393  0027DC                     __ptext4:
  1394                           	opt stack 0
  1395  0027DC                     _SYSTEM_Initialize:
  1396                           	opt stack 18
  1397                           
  1398                           ;incstack = 0
  1399                           ;SYSTEM_Initialize@state stored from wreg
  1400  0027DC  0100               	movlb	0	; () banked
  1401  0027DE  6FE3               	movwf	SYSTEM_Initialize@state& (0+255),b
  1402                           
  1403                           ; BSR set to: 0
  1404                           ;system.c: 65: switch(state)
  1405  0027E0  D02E               	goto	l4088
  1406  0027E2                     l4074:
  1407                           
  1408                           ; BSR set to: 0
  1409                           ;system.c: 74: {
  1410                           ;system.c: 75: unsigned int pll_startup_counter = 600;
  1411  0027E2  0E02               	movlw	2
  1412  0027E4  0100               	movlb	0	; () banked
  1413  0027E6  6FE0               	movwf	(SYSTEM_Initialize@pll_startup_counter+1)& (0+255),b
  1414  0027E8  0E58               	movlw	88
  1415  0027EA  6FDF               	movwf	SYSTEM_Initialize@pll_startup_counter& (0+255),b
  1416                           
  1417                           ; BSR set to: 0
  1418                           ;system.c: 76: OSCTUNEbits.PLLEN = 1;
  1419  0027EC  8C9B               	bsf	3995,6,c	;volatile
  1420                           
  1421                           ; BSR set to: 0
  1422                           
  1423                           ;system.c: 77: while(pll_startup_counter--);
  1424  0027EE  D000               	goto	l4078
  1425  0027F0                     l4078:
  1426                           
  1427                           ; BSR set to: 0
  1428  0027F0  0100               	movlb	0	; () banked
  1429  0027F2  07DF               	decf	SYSTEM_Initialize@pll_startup_counter& (0+255),f,b
  1430  0027F4  A0D8               	btfss	status,0,c
  1431  0027F6  07E0               	decf	(SYSTEM_Initialize@pll_startup_counter+1)& (0+255),f,b
  1432  0027F8  0100               	movlb	0	; () banked
  1433  0027FA  29DF               	incf	SYSTEM_Initialize@pll_startup_counter& (0+255),w,b
  1434  0027FC  E1F9               	bnz	l4078
  1435  0027FE  0100               	movlb	0	; () banked
  1436  002800  29E0               	incf	(SYSTEM_Initialize@pll_startup_counter+1)& (0+255),w,b
  1437  002802  A4D8               	btfss	status,2,c
  1438  002804  D7F5               	goto	l4078
  1439                           
  1440                           ; BSR set to: 0
  1441                           ;system.c: 78: }
  1442                           ;system.c: 81: LED_Enable(LED_D1);
  1443                           
  1444                           ; BSR set to: 0
  1445  002806  0E01               	movlw	1
  1446  002808  EC1B  F016         	call	_LED_Enable
  1447                           
  1448                           ;system.c: 82: BUTTON_Enable(BUTTON_S2);
  1449  00280C  0E01               	movlw	1
  1450  00280E  EC63  F016         	call	_BUTTON_Enable
  1451                           
  1452                           ;system.c: 85: break;
  1453                           
  1454                           ;system.c: 84: case SYSTEM_STATE_USB_SUSPEND:
  1455                           
  1456                           ;system.c: 83: break;
  1457  002812  0012               	return	
  1458  002814                     l4082:
  1459                           
  1460                           ;system.c: 88: OSCCON = 0x70;
  1461  002814  0E70               	movlw	112
  1462  002816  6ED3               	movwf	4051,c	;volatile
  1463                           
  1464                           ;system.c: 94: {
  1465                           ;system.c: 95: unsigned int pll_startup_counter = 800;
  1466  002818  0E03               	movlw	3
  1467  00281A  0100               	movlb	0	; () banked
  1468  00281C  6FE2               	movwf	(SYSTEM_Initialize@pll_startup_counter_79+1)& (0+255),b
  1469  00281E  0E20               	movlw	32
  1470  002820  6FE1               	movwf	SYSTEM_Initialize@pll_startup_counter_79& (0+255),b
  1471                           
  1472                           ; BSR set to: 0
  1473                           
  1474                           ;system.c: 96: while(pll_startup_counter--);
  1475  002822  D000               	goto	l4084
  1476  002824                     l4084:
  1477                           
  1478                           ; BSR set to: 0
  1479  002824  0100               	movlb	0	; () banked
  1480  002826  07E1               	decf	SYSTEM_Initialize@pll_startup_counter_79& (0+255),f,b
  1481  002828  A0D8               	btfss	status,0,c
  1482  00282A  07E2               	decf	(SYSTEM_Initialize@pll_startup_counter_79+1)& (0+255),f,b
  1483  00282C  0100               	movlb	0	; () banked
  1484  00282E  29E1               	incf	SYSTEM_Initialize@pll_startup_counter_79& (0+255),w,b
  1485  002830  E1F9               	bnz	l4084
  1486  002832  0100               	movlb	0	; () banked
  1487  002834  29E2               	incf	(SYSTEM_Initialize@pll_startup_counter_79+1)& (0+255),w,b
  1488  002836  B4D8               	btfsc	status,2,c
  1489  002838  0012               	return	
  1490  00283A  D7F4               	goto	l4084
  1491                           
  1492                           ; BSR set to: 0
  1493                           ;system.c: 99: }
  1494                           
  1495                           ; BSR set to: 0
  1496                           ;system.c: 97: }
  1497                           ;system.c: 98: break;
  1498  00283C  0012               	return	
  1499  00283E                     l4088:
  1500                           
  1501                           ; BSR set to: 0
  1502  00283E  0100               	movlb	0	; () banked
  1503  002840  51E3               	movf	SYSTEM_Initialize@state& (0+255),w,b
  1504                           
  1505                           ; Switch size 1, requested type "space"
  1506                           ; Number of cases is 3, Range of values is 0 to 2
  1507                           ; switch strategies available:
  1508                           ; Name         Instructions Cycles
  1509                           ; simple_byte           10     6 (average)
  1510                           ;	Chosen strategy is simple_byte
  1511  002842  0A00               	xorlw	0	; case 0
  1512  002844  B4D8               	btfsc	status,2,c
  1513  002846  D7CD               	goto	l4074
  1514  002848  0A01               	xorlw	1	; case 1
  1515  00284A  B4D8               	btfsc	status,2,c
  1516  00284C  0012               	return	
  1517  00284E  0A03               	xorlw	3	; case 2
  1518  002850  A4D8               	btfss	status,2,c
  1519  002852  0012               	return	
  1520  002854  D7DF               	goto	l4082
  1521                           
  1522                           ; BSR set to: 0
  1523  002856  0012               	return		;funcret
  1524  002858                     __end_of_SYSTEM_Initialize:
  1525                           	opt stack 0
  1526                           prodh	equ	0xFF4
  1527                           prodl	equ	0xFF3
  1528                           intcon	equ	0xFF2
  1529                           postinc0	equ	0xFEE
  1530                           wreg	equ	0xFE8
  1531                           indf2	equ	0xFDF
  1532                           postinc2	equ	0xFDE
  1533                           postdec2	equ	0xFDD
  1534                           fsr2h	equ	0xFDA
  1535                           fsr2l	equ	0xFD9
  1536                           status	equ	0xFD8
  1537                           
  1538 ;; *************** function _LED_Enable *****************
  1539 ;; Defined at:
  1540 ;;		line 186 in file "../../../../../../bsp/pic18f47j53_pim/leds.c"
  1541 ;; Parameters:    Size  Location     Type
  1542 ;;  led             1    wreg     enum E2
  1543 ;; Auto vars:     Size  Location     Type
  1544 ;;  led             1   45[COMRAM] enum E2
  1545 ;; Return value:  Size  Location     Type
  1546 ;;		None               void
  1547 ;; Registers used:
  1548 ;;		wreg, status,2, status,0
  1549 ;; Tracked objects:
  1550 ;;		On entry : 0/0
  1551 ;;		On exit  : 0/0
  1552 ;;		Unchanged: 0/0
  1553 ;; Data sizes:     COMRAM   BANK0   BANK1   BANK2   BANK3   BANK4   BANK5   BANK6   BANK7   BANK8   BANK9  BANK10  BANK1
      +1  BANK12  BANK13  BANK14
  1554 ;;      Params:         0       0       0       0       0       0       0       0       0       0       0       0       
      +0       0       0       0
  1555 ;;      Locals:         1       0       0       0       0       0       0       0       0       0       0       0       
      +0       0       0       0
  1556 ;;      Temps:          0       0       0       0       0       0       0       0       0       0       0       0       
      +0       0       0       0
  1557 ;;      Totals:         1       0       0       0       0       0       0       0       0       0       0       0       
      +0       0       0       0
  1558 ;;Total ram usage:        1 bytes
  1559 ;; Hardware stack levels used:    1
  1560 ;; Hardware stack levels required when called:   11
  1561 ;; This function calls:
  1562 ;;		Nothing
  1563 ;; This function is called by:
  1564 ;;		_SYSTEM_Initialize
  1565 ;; This function uses a non-reentrant model
  1566 ;;
  1567                           
  1568                           	psect	text5
  1569  002C36                     __ptext5:
  1570                           	opt stack 0
  1571  002C36                     _LED_Enable:
  1572                           	opt stack 18
  1573                           
  1574                           ;incstack = 0
  1575                           ;LED_Enable@led stored from wreg
  1576  002C36  6E2E               	movwf	LED_Enable@led,c
  1577                           
  1578                           ;leds.c: 188: switch(led)
  1579  002C38  D004               	goto	l3796
  1580  002C3A                     l279:
  1581                           
  1582                           ;leds.c: 191: TRISEbits.TRISE0 = 0;
  1583  002C3A  9096               	bcf	3990,0,c	;volatile
  1584                           
  1585                           ;leds.c: 192: break;
  1586  002C3C  0012               	return	
  1587  002C3E                     l281:
  1588                           
  1589                           ;leds.c: 195: TRISEbits.TRISE1 = 0;
  1590  002C3E  9296               	bcf	3990,1,c	;volatile
  1591                           
  1592                           ;leds.c: 200: }
  1593                           
  1594                           ;leds.c: 199: break;
  1595                           
  1596                           ;leds.c: 198: case LED_NONE:
  1597                           
  1598                           ;leds.c: 196: break;
  1599  002C40  0012               	return	
  1600  002C42                     l3796:
  1601  002C42  502E               	movf	LED_Enable@led,w,c
  1602                           
  1603                           ; Switch size 1, requested type "space"
  1604                           ; Number of cases is 3, Range of values is 0 to 2
  1605                           ; switch strategies available:
  1606                           ; Name         Instructions Cycles
  1607                           ; simple_byte           10     6 (average)
  1608                           ;	Chosen strategy is simple_byte
  1609  002C44  0A00               	xorlw	0	; case 0
  1610  002C46  B4D8               	btfsc	status,2,c
  1611  002C48  0012               	return	
  1612  002C4A  0A01               	xorlw	1	; case 1
  1613  002C4C  B4D8               	btfsc	status,2,c
  1614  002C4E  D7F5               	goto	l279
  1615  002C50  0A03               	xorlw	3	; case 2
  1616  002C52  A4D8               	btfss	status,2,c
  1617  002C54  0012               	return	
  1618  002C56  D7F3               	goto	l281
  1619  002C58  0012               	return		;funcret
  1620  002C5A                     __end_of_LED_Enable:
  1621                           	opt stack 0
  1622                           prodh	equ	0xFF4
  1623                           prodl	equ	0xFF3
  1624                           intcon	equ	0xFF2
  1625                           postinc0	equ	0xFEE
  1626                           wreg	equ	0xFE8
  1627                           indf2	equ	0xFDF
  1628                           postinc2	equ	0xFDE
  1629                           postdec2	equ	0xFDD
  1630                           fsr2h	equ	0xFDA
  1631                           fsr2l	equ	0xFD9
  1632                           status	equ	0xFD8
  1633                           
  1634 ;; *************** function _BUTTON_Enable *****************
  1635 ;; Defined at:
  1636 ;;		line 88 in file "../../../../../../bsp/pic18f47j53_pim/buttons.c"
  1637 ;; Parameters:    Size  Location     Type
  1638 ;;  button          1    wreg     enum E10554
  1639 ;; Auto vars:     Size  Location     Type
  1640 ;;  button          1   45[COMRAM] enum E10554
  1641 ;; Return value:  Size  Location     Type
  1642 ;;		None               void
  1643 ;; Registers used:
  1644 ;;		wreg, status,2, status,0
  1645 ;; Tracked objects:
  1646 ;;		On entry : 0/0
  1647 ;;		On exit  : 0/0
  1648 ;;		Unchanged: 0/0
  1649 ;; Data sizes:     COMRAM   BANK0   BANK1   BANK2   BANK3   BANK4   BANK5   BANK6   BANK7   BANK8   BANK9  BANK10  BANK1
      +1  BANK12  BANK13  BANK14
  1650 ;;      Params:         0       0       0       0       0       0       0       0       0       0       0       0       
      +0       0       0       0
  1651 ;;      Locals:         1       0       0       0       0       0       0       0       0       0       0       0       
      +0       0       0       0
  1652 ;;      Temps:          0       0       0       0       0       0       0       0       0       0       0       0       
      +0       0       0       0
  1653 ;;      Totals:         1       0       0       0       0       0       0       0       0       0       0       0       
      +0       0       0       0
  1654 ;;Total ram usage:        1 bytes
  1655 ;; Hardware stack levels used:    1
  1656 ;; Hardware stack levels required when called:   11
  1657 ;; This function calls:
  1658 ;;		Nothing
  1659 ;; This function is called by:
  1660 ;;		_SYSTEM_Initialize
  1661 ;; This function uses a non-reentrant model
  1662 ;;
  1663                           
  1664                           	psect	text6
  1665  002CC6                     __ptext6:
  1666                           	opt stack 0
  1667  002CC6                     _BUTTON_Enable:
  1668                           	opt stack 18
  1669                           
  1670                           ;incstack = 0
  1671                           ;BUTTON_Enable@button stored from wreg
  1672  002CC6  6E2E               	movwf	BUTTON_Enable@button,c
  1673                           
  1674                           ;buttons.c: 90: switch(button)
  1675  002CC8  D004               	goto	l3802
  1676  002CCA                     l236:
  1677                           
  1678                           ;buttons.c: 93: TRISBbits.TRISB2 = 1;
  1679  002CCA  8493               	bsf	3987,2,c	;volatile
  1680                           
  1681                           ;buttons.c: 94: ANCON1bits.PCFG8 = 1;
  1682  002CCC  010F               	movlb	15	; () banked
  1683  002CCE  8149               	bsf	73,0,b	;volatile
  1684                           
  1685                           ; BSR set to: 15
  1686                           ;buttons.c: 99: }
  1687                           
  1688                           ; BSR set to: 15
  1689                           ;buttons.c: 98: break;
  1690                           
  1691                           ;buttons.c: 97: case BUTTON_NONE:
  1692                           
  1693                           ;buttons.c: 95: break;
  1694  002CD0  0012               	return	
  1695  002CD2                     l3802:
  1696  002CD2  502E               	movf	BUTTON_Enable@button,w,c
  1697                           
  1698                           ; Switch size 1, requested type "space"
  1699                           ; Number of cases is 2, Range of values is 0 to 1
  1700                           ; switch strategies available:
  1701                           ; Name         Instructions Cycles
  1702                           ; simple_byte            7     4 (average)
  1703                           ;	Chosen strategy is simple_byte
  1704  002CD4  0A00               	xorlw	0	; case 0
  1705  002CD6  B4D8               	btfsc	status,2,c
  1706  002CD8  0012               	return	
  1707  002CDA  0A01               	xorlw	1	; case 1
  1708  002CDC  A4D8               	btfss	status,2,c
  1709  002CDE  0012               	return	
  1710  002CE0  D7F4               	goto	l236
  1711  002CE2  0012               	return		;funcret
  1712  002CE4                     __end_of_BUTTON_Enable:
  1713                           	opt stack 0
  1714                           prodh	equ	0xFF4
  1715                           prodl	equ	0xFF3
  1716                           intcon	equ	0xFF2
  1717                           postinc0	equ	0xFEE
  1718                           wreg	equ	0xFE8
  1719                           indf2	equ	0xFDF
  1720                           postinc2	equ	0xFDE
  1721                           postdec2	equ	0xFDD
  1722                           fsr2h	equ	0xFDA
  1723                           fsr2l	equ	0xFD9
  1724                           status	equ	0xFD8
  1725                           
  1726 ;; *************** function _APP_DeviceCDCEmulatorTasks *****************
  1727 ;; Defined at:
  1728 ;;		line 106 in file "../src/app_device_cdc_basic.c"
  1729 ;; Parameters:    Size  Location     Type
  1730 ;;		None
  1731 ;; Auto vars:     Size  Location     Type
  1732 ;;		None
  1733 ;; Return value:  Size  Location     Type
  1734 ;;		None               void
  1735 ;; Registers used:
  1736 ;;		wreg, fsr1l, fsr1h, fsr2l, fsr2h, status,2, status,0, prodl, prodh, cstack
  1737 ;; Tracked objects:
  1738 ;;		On entry : 0/0
  1739 ;;		On exit  : 0/0
  1740 ;;		Unchanged: 0/0
  1741 ;; Data sizes:     COMRAM   BANK0   BANK1   BANK2   BANK3   BANK4   BANK5   BANK6   BANK7   BANK8   BANK9  BANK10  BANK1
      +1  BANK12  BANK13  BANK14
  1742 ;;      Params:         0       0       0       0       0       0       0       0       0       0       0       0       
      +0       0       0       0
  1743 ;;      Locals:         0       0       0       0       0       0       0       0       0       0       0       0       
      +0       0       0       0
  1744 ;;      Temps:          0       0       0       0       0       0       0       0       0       0       0       0       
      +0       0       0       0
  1745 ;;      Totals:         0       0       0       0       0       0       0       0       0       0       0       0       
      +0       0       0       0
  1746 ;;Total ram usage:        0 bytes
  1747 ;; Hardware stack levels used:    1
  1748 ;; Hardware stack levels required when called:   13
  1749 ;; This function calls:
  1750 ;;		_CDCTxService
  1751 ;;		_USART_getcUSART
  1752 ;;		_USART_putcUSART
  1753 ;;		_getsUSBUSART
  1754 ;;		_putUSBUSART
  1755 ;; This function is called by:
  1756 ;;		_main
  1757 ;; This function uses a non-reentrant model
  1758 ;;
  1759                           
  1760                           	psect	text7
  1761  001F9E                     __ptext7:
  1762                           	opt stack 0
  1763  001F9E                     _APP_DeviceCDCEmulatorTasks:
  1764                           	opt stack 17
  1765                           
  1766                           ;app_device_cdc_basic.c: 109: if((USBDeviceState < CONFIGURED_STATE)||(UCONbits.SUSPND==
      +                          1)) return;
  1767                           
  1768                           ;incstack = 0
  1769  001F9E  0E1F               	movlw	31
  1770  001FA0  6450               	cpfsgt	_USBDeviceState,c	;volatile
  1771  001FA2  0012               	return	
  1772  001FA4  B265               	btfsc	3941,1,c	;volatile
  1773  001FA6  0012               	return	
  1774  001FA8  D001               	goto	l4196
  1775  001FAA  0012               	return	
  1776  001FAC                     l4196:
  1777                           
  1778                           ;app_device_cdc_basic.c: 111: if (RS232_Out_Data_Rdy == 0)
  1779  001FAC  504B               	movf	_RS232_Out_Data_Rdy,w,c
  1780  001FAE  A4D8               	btfss	status,2,c
  1781  001FB0  D014               	goto	l83
  1782                           
  1783                           ;app_device_cdc_basic.c: 112: {
  1784                           ;app_device_cdc_basic.c: 113: LastRS232Out = getsUSBUSART(RS232_Out_Data,64);
  1785  001FB2  0E00               	movlw	low _RS232_Out_Data
  1786  001FB4  0100               	movlb	0	; () banked
  1787  001FB6  6FE2               	movwf	getsUSBUSART@buffer& (0+255),b
  1788  001FB8  0E01               	movlw	high _RS232_Out_Data
  1789  001FBA  0100               	movlb	0	; () banked
  1790  001FBC  6FE3               	movwf	(getsUSBUSART@buffer+1)& (0+255),b
  1791  001FBE  0E40               	movlw	64
  1792  001FC0  0100               	movlb	0	; () banked
  1793  001FC2  6FE4               	movwf	getsUSBUSART@len& (0+255),b
  1794  001FC4  EC0B  F00E         	call	_getsUSBUSART	;wreg free
  1795  001FC8  6E49               	movwf	_LastRS232Out,c
  1796                           
  1797                           ;app_device_cdc_basic.c: 114: if(LastRS232Out > 0)
  1798  001FCA  5049               	movf	_LastRS232Out,w,c
  1799  001FCC  B4D8               	btfsc	status,2,c
  1800  001FCE  D005               	goto	l83
  1801                           
  1802                           ;app_device_cdc_basic.c: 115: {
  1803                           ;app_device_cdc_basic.c: 116: RS232_Out_Data_Rdy = 1;
  1804  001FD0  0E01               	movlw	1
  1805  001FD2  6E4B               	movwf	_RS232_Out_Data_Rdy,c
  1806                           
  1807                           ;app_device_cdc_basic.c: 117: RS232cp = 0;
  1808  001FD4  0E00               	movlw	0
  1809  001FD6  6E4C               	movwf	_RS232cp,c
  1810  001FD8  D000               	goto	l83
  1811  001FDA                     l83:
  1812                           
  1813                           ;app_device_cdc_basic.c: 118: }
  1814                           ;app_device_cdc_basic.c: 119: }
  1815                           ;app_device_cdc_basic.c: 123: if(RS232_Out_Data_Rdy && TXSTAbits.TRMT)
  1816  001FDA  504B               	movf	_RS232_Out_Data_Rdy,w,c
  1817  001FDC  A4D8               	btfss	status,2,c
  1818  001FDE  A2AD               	btfss	4013,1,c	;volatile
  1819  001FE0  D015               	goto	l4216
  1820                           
  1821                           ;app_device_cdc_basic.c: 124: {
  1822                           ;app_device_cdc_basic.c: 128: if(PORTBbits.RB1 == 0)
  1823  001FE2  B281               	btfsc	3969,1,c	;volatile
  1824  001FE4  D013               	goto	l4216
  1825                           
  1826                           ;app_device_cdc_basic.c: 129: {
  1827                           ;app_device_cdc_basic.c: 130: USART_putcUSART(RS232_Out_Data[RS232cp]);
  1828  001FE6  504C               	movf	_RS232cp,w,c
  1829  001FE8  0D01               	mullw	1
  1830  001FEA  0E00               	movlw	low _RS232_Out_Data
  1831  001FEC  24F3               	addwf	prodl,w,c
  1832  001FEE  6ED9               	movwf	fsr2l,c
  1833  001FF0  0E01               	movlw	high _RS232_Out_Data
  1834  001FF2  20F4               	addwfc	prodh,w,c
  1835  001FF4  6EDA               	movwf	fsr2h,c
  1836  001FF6  50DF               	movf	indf2,w,c
  1837  001FF8  EC8A  F016         	call	_USART_putcUSART
  1838                           
  1839                           ;app_device_cdc_basic.c: 131: ++RS232cp;
  1840  001FFC  2A4C               	incf	_RS232cp,f,c
  1841                           
  1842                           ;app_device_cdc_basic.c: 132: if (RS232cp == LastRS232Out)
  1843  001FFE  5049               	movf	_LastRS232Out,w,c
  1844  002000  184C               	xorwf	_RS232cp,w,c
  1845  002002  A4D8               	btfss	status,2,c
  1846  002004  D003               	goto	l4216
  1847                           
  1848                           ;app_device_cdc_basic.c: 133: RS232_Out_Data_Rdy = 0;
  1849  002006  0E00               	movlw	0
  1850  002008  6E4B               	movwf	_RS232_Out_Data_Rdy,c
  1851  00200A  D000               	goto	l4216
  1852  00200C                     l4216:
  1853                           
  1854                           ;app_device_cdc_basic.c: 134: }
  1855                           ;app_device_cdc_basic.c: 142: }
  1856                           ;app_device_cdc_basic.c: 146: if(PIR1bits.RCIF && (NextUSBOut < (64 - 1)))
  1857  00200C  AA9E               	btfss	3998,5,c	;volatile
  1858  00200E  D01A               	goto	l4226
  1859  002010  0E3F               	movlw	63
  1860  002012  604A               	cpfslt	_NextUSBOut,c
  1861  002014  D017               	goto	l4226
  1862                           
  1863                           ;app_device_cdc_basic.c: 147: {
  1864                           ;app_device_cdc_basic.c: 148: USB_Out_Buffer[NextUSBOut] = USART_getcUSART();
  1865  002016  504A               	movf	_NextUSBOut,w,c
  1866  002018  0D01               	mullw	1
  1867  00201A  0E40               	movlw	low _USB_Out_Buffer
  1868  00201C  24F3               	addwf	prodl,w,c
  1869  00201E  6ED9               	movwf	fsr2l,c
  1870  002020  0E01               	movlw	high _USB_Out_Buffer
  1871  002022  20F4               	addwfc	prodh,w,c
  1872  002024  6EDA               	movwf	fsr2h,c
  1873  002026  EC72  F016         	call	_USART_getcUSART	;wreg free
  1874  00202A  6EDF               	movwf	indf2,c
  1875                           
  1876                           ;app_device_cdc_basic.c: 149: ++NextUSBOut;
  1877  00202C  2A4A               	incf	_NextUSBOut,f,c
  1878                           
  1879                           ;app_device_cdc_basic.c: 150: USB_Out_Buffer[NextUSBOut] = 0;
  1880  00202E  504A               	movf	_NextUSBOut,w,c
  1881  002030  0D01               	mullw	1
  1882  002032  0E40               	movlw	low _USB_Out_Buffer
  1883  002034  24F3               	addwf	prodl,w,c
  1884  002036  6ED9               	movwf	fsr2l,c
  1885  002038  0E01               	movlw	high _USB_Out_Buffer
  1886  00203A  20F4               	addwfc	prodh,w,c
  1887  00203C  6EDA               	movwf	fsr2h,c
  1888  00203E  0E00               	movlw	0
  1889  002040  6EDF               	movwf	indf2,c
  1890  002042  D000               	goto	l4226
  1891  002044                     l4226:
  1892                           
  1893                           ;app_device_cdc_basic.c: 151: }
  1894                           ;app_device_cdc_basic.c: 157: if(NextUSBOut <= (64 - 5u))
  1895  002044  0E3C               	movlw	60
  1896  002046  604A               	cpfslt	_NextUSBOut,c
  1897  002048  D002               	goto	l89
  1898                           
  1899                           ;app_device_cdc_basic.c: 158: {
  1900                           ;app_device_cdc_basic.c: 159: LATBbits.LATB2 = 0;
  1901  00204A  948A               	bcf	3978,2,c	;volatile
  1902                           
  1903                           ;app_device_cdc_basic.c: 160: }
  1904  00204C  D002               	goto	l4230
  1905  00204E                     l89:
  1906                           
  1907                           ;app_device_cdc_basic.c: 161: else
  1908                           ;app_device_cdc_basic.c: 162: {
  1909                           ;app_device_cdc_basic.c: 163: LATBbits.LATB2 = (0 ^ 1);
  1910  00204E  848A               	bsf	3978,2,c	;volatile
  1911  002050  D000               	goto	l4230
  1912  002052                     l4230:
  1913                           
  1914                           ;app_device_cdc_basic.c: 164: }
  1915                           ;app_device_cdc_basic.c: 170: if(((cdc_trf_state == 0)) && (NextUSBOut > 0))
  1916  002052  5054               	movf	_cdc_trf_state,w,c
  1917  002054  A4D8               	btfss	status,2,c
  1918  002056  D00E               	goto	l4238
  1919  002058  504A               	movf	_NextUSBOut,w,c
  1920  00205A  B4D8               	btfsc	status,2,c
  1921  00205C  D00B               	goto	l4238
  1922                           
  1923                           ;app_device_cdc_basic.c: 171: {
  1924                           ;app_device_cdc_basic.c: 172: putUSBUSART(&USB_Out_Buffer[0], NextUSBOut);
  1925  00205E  0E40               	movlw	low _USB_Out_Buffer
  1926  002060  6E2E               	movwf	putUSBUSART@data,c
  1927  002062  0E01               	movlw	high _USB_Out_Buffer
  1928  002064  6E2F               	movwf	putUSBUSART@data+1,c
  1929  002066  C04A  F030         	movff	_NextUSBOut,putUSBUSART@length
  1930  00206A  EC2D  F016         	call	_putUSBUSART	;wreg free
  1931                           
  1932                           ;app_device_cdc_basic.c: 173: NextUSBOut = 0;
  1933  00206E  0E00               	movlw	0
  1934  002070  6E4A               	movwf	_NextUSBOut,c
  1935  002072  D000               	goto	l4238
  1936  002074                     l4238:
  1937                           
  1938                           ;app_device_cdc_basic.c: 174: }
  1939                           ;app_device_cdc_basic.c: 176: CDCTxService();
  1940  002074  EC2F  F009         	call	_CDCTxService	;wreg free
  1941  002078  0012               	return		;funcret
  1942  00207A                     __end_of_APP_DeviceCDCEmulatorTasks:
  1943                           	opt stack 0
  1944                           prodh	equ	0xFF4
  1945                           prodl	equ	0xFF3
  1946                           intcon	equ	0xFF2
  1947                           postinc0	equ	0xFEE
  1948                           wreg	equ	0xFE8
  1949                           indf2	equ	0xFDF
  1950                           postinc2	equ	0xFDE
  1951                           postdec2	equ	0xFDD
  1952                           fsr2h	equ	0xFDA
  1953                           fsr2l	equ	0xFD9
  1954                           status	equ	0xFD8
  1955                           
  1956 ;; *************** function _putUSBUSART *****************
  1957 ;; Defined at:
  1958 ;;		line 613 in file "../../../../../../framework/usb/src/usb_device_cdc.c"
  1959 ;; Parameters:    Size  Location     Type
  1960 ;;  data            2   45[COMRAM] PTR unsigned char 
  1961 ;;		 -> USB_Out_Buffer(64), 
  1962 ;;  length          1   47[COMRAM] unsigned char 
  1963 ;; Auto vars:     Size  Location     Type
  1964 ;;		None
  1965 ;; Return value:  Size  Location     Type
  1966 ;;		None               void
  1967 ;; Registers used:
  1968 ;;		wreg, status,2, status,0
  1969 ;; Tracked objects:
  1970 ;;		On entry : 0/0
  1971 ;;		On exit  : 0/0
  1972 ;;		Unchanged: 0/0
  1973 ;; Data sizes:     COMRAM   BANK0   BANK1   BANK2   BANK3   BANK4   BANK5   BANK6   BANK7   BANK8   BANK9  BANK10  BANK1
      +1  BANK12  BANK13  BANK14
  1974 ;;      Params:         3       0       0       0       0       0       0       0       0       0       0       0       
      +0       0       0       0
  1975 ;;      Locals:         0       0       0       0       0       0       0       0       0       0       0       0       
      +0       0       0       0
  1976 ;;      Temps:          0       0       0       0       0       0       0       0       0       0       0       0       
      +0       0       0       0
  1977 ;;      Totals:         3       0       0       0       0       0       0       0       0       0       0       0       
      +0       0       0       0
  1978 ;;Total ram usage:        3 bytes
  1979 ;; Hardware stack levels used:    1
  1980 ;; Hardware stack levels required when called:   11
  1981 ;; This function calls:
  1982 ;;		Nothing
  1983 ;; This function is called by:
  1984 ;;		_APP_DeviceCDCEmulatorTasks
  1985 ;; This function uses a non-reentrant model
  1986 ;;
  1987                           
  1988                           	psect	text8
  1989  002C5A                     __ptext8:
  1990                           	opt stack 0
  1991  002C5A                     _putUSBUSART:
  1992                           	opt stack 18
  1993                           
  1994                           ;usb_device_cdc.c: 638: {PIE2bits.USBIE = 0;};
  1995                           
  1996                           ;incstack = 0
  1997  002C5A  98A0               	bcf	4000,4,c	;volatile
  1998                           
  1999                           ;usb_device_cdc.c: 639: if(cdc_trf_state == 0)
  2000  002C5C  5054               	movf	_cdc_trf_state,w,c
  2001  002C5E  A4D8               	btfss	status,2,c
  2002  002C60  D00C               	goto	l3854
  2003                           
  2004                           ;usb_device_cdc.c: 640: {
  2005                           ;usb_device_cdc.c: 641: { pCDCSrc.bRam = (uint8_t*)data; cdc_tx_len = length; cdc_mem_ty
      +                          pe = 0x01; cdc_trf_state = 1; };
  2006  002C62  C02E  F073         	movff	putUSBUSART@data,_pCDCSrc
  2007  002C66  C02F  F074         	movff	putUSBUSART@data+1,_pCDCSrc+1
  2008  002C6A  C030  F082         	movff	putUSBUSART@length,_cdc_tx_len
  2009  002C6E  0E01               	movlw	1
  2010  002C70  0100               	movlb	0	; () banked
  2011  002C72  6F80               	movwf	_cdc_mem_type& (0+255),b
  2012                           
  2013                           ; BSR set to: 0
  2014  002C74  0E01               	movlw	1
  2015  002C76  6E54               	movwf	_cdc_trf_state,c
  2016  002C78  D000               	goto	l3854
  2017  002C7A                     l3854:
  2018                           
  2019                           ;usb_device_cdc.c: 642: }
  2020                           ;usb_device_cdc.c: 643: {PIE2bits.USBIE = 1;};
  2021  002C7A  88A0               	bsf	4000,4,c	;volatile
  2022  002C7C  0012               	return		;funcret
  2023  002C7E                     __end_of_putUSBUSART:
  2024                           	opt stack 0
  2025                           prodh	equ	0xFF4
  2026                           prodl	equ	0xFF3
  2027                           intcon	equ	0xFF2
  2028                           postinc0	equ	0xFEE
  2029                           wreg	equ	0xFE8
  2030                           indf2	equ	0xFDF
  2031                           postinc2	equ	0xFDE
  2032                           postdec2	equ	0xFDD
  2033                           fsr2h	equ	0xFDA
  2034                           fsr2l	equ	0xFD9
  2035                           status	equ	0xFD8
  2036                           
  2037 ;; *************** function _getsUSBUSART *****************
  2038 ;; Defined at:
  2039 ;;		line 542 in file "../../../../../../framework/usb/src/usb_device_cdc.c"
  2040 ;; Parameters:    Size  Location     Type
  2041 ;;  buffer          2    3[BANK0 ] PTR unsigned char 
  2042 ;;		 -> RS232_Out_Data(64), 
  2043 ;;  len             1    5[BANK0 ] unsigned char 
  2044 ;; Auto vars:     Size  Location     Type
  2045 ;;		None
  2046 ;; Return value:  Size  Location     Type
  2047 ;;                  1    wreg      unsigned char 
  2048 ;; Registers used:
  2049 ;;		wreg, fsr1l, fsr1h, fsr2l, fsr2h, status,2, status,0, prodl, prodh, cstack
  2050 ;; Tracked objects:
  2051 ;;		On entry : 0/0
  2052 ;;		On exit  : 0/0
  2053 ;;		Unchanged: 0/0
  2054 ;; Data sizes:     COMRAM   BANK0   BANK1   BANK2   BANK3   BANK4   BANK5   BANK6   BANK7   BANK8   BANK9  BANK10  BANK1
      +1  BANK12  BANK13  BANK14
  2055 ;;      Params:         0       3       0       0       0       0       0       0       0       0       0       0       
      +0       0       0       0
  2056 ;;      Locals:         0       2       0       0       0       0       0       0       0       0       0       0       
      +0       0       0       0
  2057 ;;      Temps:          1       0       0       0       0       0       0       0       0       0       0       0       
      +0       0       0       0
  2058 ;;      Totals:         1       5       0       0       0       0       0       0       0       0       0       0       
      +0       0       0       0
  2059 ;;Total ram usage:        6 bytes
  2060 ;; Hardware stack levels used:    1
  2061 ;; Hardware stack levels required when called:   12
  2062 ;; This function calls:
  2063 ;;		_USBTransferOnePacket
  2064 ;; This function is called by:
  2065 ;;		_APP_DeviceCDCEmulatorTasks
  2066 ;; This function uses a non-reentrant model
  2067 ;;
  2068                           
  2069                           	psect	text9
  2070  001C16                     __ptext9:
  2071                           	opt stack 0
  2072  001C16                     _getsUSBUSART:
  2073                           	opt stack 17
  2074                           
  2075                           ;usb_device_cdc.c: 544: cdc_rx_len = 0;
  2076                           
  2077                           ;incstack = 0
  2078  001C16  0E00               	movlw	0
  2079  001C18  0100               	movlb	0	; () banked
  2080  001C1A  6F81               	movwf	_cdc_rx_len& (0+255),b
  2081                           
  2082                           ; BSR set to: 0
  2083                           ;usb_device_cdc.c: 546: if(!(CDCDataOutHandle==0?0:((volatile BDT_ENTRY*)CDCDataOutHandl
      +                          e)->STAT.UOWN))
  2084  001C1C  0100               	movlb	0	; () banked
  2085  001C1E  5178               	movf	_CDCDataOutHandle& (0+255),w,b
  2086  001C20  0100               	movlb	0	; () banked
  2087  001C22  1179               	iorwf	(_CDCDataOutHandle+1)& (0+255),w,b
  2088  001C24  B4D8               	btfsc	status,2,c
  2089  001C26  D010               	goto	l3810
  2090                           
  2091                           ; BSR set to: 0
  2092  001C28  C078  FFD9         	movff	_CDCDataOutHandle,fsr2l
  2093  001C2C  C079  FFDA         	movff	_CDCDataOutHandle+1,fsr2h
  2094  001C30  0100               	movlb	0	; () banked
  2095  001C32  AEDF               	btfss	indf2,7,c
  2096  001C34  D003               	goto	u2920
  2097  001C36  6A32               	clrf	??_getsUSBUSART& (0+255),c
  2098  001C38  2A32               	incf	??_getsUSBUSART& (0+255),f,c
  2099  001C3A  D001               	goto	u2928
  2100  001C3C                     u2920:
  2101  001C3C  6A32               	clrf	??_getsUSBUSART& (0+255),c
  2102  001C3E                     u2928:
  2103  001C3E  5032               	movf	??_getsUSBUSART,w,c
  2104  001C40  0100               	movlb	0	; () banked
  2105  001C42  6FE5               	movwf	_getsUSBUSART$3146& (0+255),b
  2106  001C44  6BE6               	clrf	(_getsUSBUSART$3146+1)& (0+255),b
  2107  001C46  D006               	goto	l3812
  2108  001C48                     l3810:
  2109                           
  2110                           ; BSR set to: 0
  2111  001C48  0E00               	movlw	0
  2112  001C4A  0100               	movlb	0	; () banked
  2113  001C4C  6FE6               	movwf	(_getsUSBUSART$3146+1)& (0+255),b
  2114  001C4E  0E00               	movlw	0
  2115  001C50  6FE5               	movwf	_getsUSBUSART$3146& (0+255),b
  2116  001C52  D000               	goto	l3812
  2117  001C54                     l3812:
  2118                           
  2119                           ; BSR set to: 0
  2120  001C54  0100               	movlb	0	; () banked
  2121  001C56  51E5               	movf	_getsUSBUSART$3146& (0+255),w,b
  2122  001C58  0100               	movlb	0	; () banked
  2123  001C5A  11E6               	iorwf	(_getsUSBUSART$3146+1)& (0+255),w,b
  2124  001C5C  A4D8               	btfss	status,2,c
  2125  001C5E  D04A               	goto	l3828
  2126                           
  2127                           ; BSR set to: 0
  2128                           ;usb_device_cdc.c: 547: {
  2129                           ;usb_device_cdc.c: 552: if(len > (((volatile BDT_ENTRY*)CDCDataOutHandle)->CNT))
  2130  001C60  0100               	movlb	0	; () banked
  2131  001C62  EE20 F001          	lfsr	2,1
  2132  001C66  5178               	movf	_CDCDataOutHandle& (0+255),w,b
  2133  001C68  26D9               	addwf	fsr2l,f,c
  2134  001C6A  5179               	movf	(_CDCDataOutHandle+1)& (0+255),w,b
  2135  001C6C  22DA               	addwfc	fsr2h,f,c
  2136  001C6E  0100               	movlb	0	; () banked
  2137  001C70  51E4               	movf	getsUSBUSART@len& (0+255),w,b
  2138  001C72  5CDE               	subwf	postinc2,w,c
  2139  001C74  B0D8               	btfsc	status,0,c
  2140  001C76  D00B               	goto	l3818
  2141                           
  2142                           ; BSR set to: 0
  2143                           ;usb_device_cdc.c: 553: len = (((volatile BDT_ENTRY*)CDCDataOutHandle)->CNT);
  2144  001C78  0100               	movlb	0	; () banked
  2145  001C7A  EE20 F001          	lfsr	2,1
  2146  001C7E  5178               	movf	_CDCDataOutHandle& (0+255),w,b
  2147  001C80  26D9               	addwf	fsr2l,f,c
  2148  001C82  5179               	movf	(_CDCDataOutHandle+1)& (0+255),w,b
  2149  001C84  22DA               	addwfc	fsr2h,f,c
  2150  001C86  50DF               	movf	indf2,w,c
  2151  001C88  0100               	movlb	0	; () banked
  2152  001C8A  6FE4               	movwf	getsUSBUSART@len& (0+255),b
  2153  001C8C  D000               	goto	l3818
  2154  001C8E                     l3818:
  2155                           
  2156                           ; BSR set to: 0
  2157                           ;usb_device_cdc.c: 558: for(cdc_rx_len = 0; cdc_rx_len < len; cdc_rx_len++)
  2158  001C8E  0E00               	movlw	0
  2159  001C90  0100               	movlb	0	; () banked
  2160  001C92  6F81               	movwf	_cdc_rx_len& (0+255),b
  2161  001C94  D019               	goto	l3824
  2162  001C96                     l3820:
  2163                           
  2164                           ; BSR set to: 0
  2165                           ;usb_device_cdc.c: 559: buffer[cdc_rx_len] = cdc_data_rx[cdc_rx_len];
  2166  001C96  0100               	movlb	0	; () banked
  2167  001C98  5181               	movf	_cdc_rx_len& (0+255),w,b
  2168  001C9A  0D01               	mullw	1
  2169  001C9C  0E84               	movlw	low _cdc_data_rx
  2170  001C9E  24F3               	addwf	prodl,w,c
  2171  001CA0  6ED9               	movwf	fsr2l,c
  2172  001CA2  0E00               	movlw	high _cdc_data_rx
  2173  001CA4  20F4               	addwfc	prodh,w,c
  2174  001CA6  6EDA               	movwf	fsr2h,c
  2175  001CA8  0100               	movlb	0	; () banked
  2176  001CAA  5181               	movf	_cdc_rx_len& (0+255),w,b
  2177  001CAC  0D01               	mullw	1
  2178  001CAE  50F3               	movf	prodl,w,c
  2179  001CB0  0100               	movlb	0	; () banked
  2180  001CB2  25E2               	addwf	getsUSBUSART@buffer& (0+255),w,b
  2181  001CB4  6EE1               	movwf	fsr1l,c
  2182  001CB6  50F4               	movf	prodh,w,c
  2183  001CB8  0100               	movlb	0	; () banked
  2184  001CBA  21E3               	addwfc	(getsUSBUSART@buffer+1)& (0+255),w,b
  2185  001CBC  6EE2               	movwf	fsr1h,c
  2186  001CBE  CFDF FFE7          	movff	indf2,indf1
  2187                           
  2188                           ; BSR set to: 0
  2189  001CC2  0100               	movlb	0	; () banked
  2190  001CC4  2B81               	incf	_cdc_rx_len& (0+255),f,b
  2191  001CC6  D000               	goto	l3824
  2192  001CC8                     l3824:
  2193                           
  2194                           ; BSR set to: 0
  2195  001CC8  0100               	movlb	0	; () banked
  2196  001CCA  51E4               	movf	getsUSBUSART@len& (0+255),w,b
  2197  001CCC  0100               	movlb	0	; () banked
  2198  001CCE  5D81               	subwf	_cdc_rx_len& (0+255),w,b
  2199  001CD0  A0D8               	btfss	status,0,c
  2200  001CD2  D7E1               	goto	l3820
  2201                           
  2202                           ; BSR set to: 0
  2203                           ;usb_device_cdc.c: 565: CDCDataOutHandle = USBTransferOnePacket(2,0,(uint8_t*)&cdc_data_
      +                          rx,sizeof(cdc_data_rx));
  2204                           
  2205                           ; BSR set to: 0
  2206  001CD4  0E00               	movlw	0
  2207  001CD6  6E2E               	movwf	USBTransferOnePacket@dir,c
  2208  001CD8  0E84               	movlw	low _cdc_data_rx
  2209  001CDA  6E2F               	movwf	USBTransferOnePacket@data,c
  2210  001CDC  0E00               	movlw	high _cdc_data_rx
  2211  001CDE  6E30               	movwf	USBTransferOnePacket@data+1,c
  2212  001CE0  0E40               	movlw	64
  2213  001CE2  6E31               	movwf	USBTransferOnePacket@len,c
  2214  001CE4  0E02               	movlw	2
  2215  001CE6  EC3D  F010         	call	_USBTransferOnePacket
  2216  001CEA  C02E  F078         	movff	?_USBTransferOnePacket,_CDCDataOutHandle
  2217  001CEE  C02F  F079         	movff	?_USBTransferOnePacket+1,_CDCDataOutHandle+1
  2218  001CF2  D000               	goto	l3828
  2219  001CF4                     l3828:
  2220                           
  2221                           ;usb_device_cdc.c: 567: }
  2222                           ;usb_device_cdc.c: 569: return cdc_rx_len;
  2223  001CF4  0100               	movlb	0	; () banked
  2224  001CF6  5181               	movf	_cdc_rx_len& (0+255),w,b
  2225  001CF8  0012               	return	
  2226                           
  2227                           ; BSR set to: 0
  2228                           
  2229                           ; BSR set to: 0
  2230  001CFA  0012               	return		;funcret
  2231  001CFC                     __end_of_getsUSBUSART:
  2232                           	opt stack 0
  2233                           prodh	equ	0xFF4
  2234                           prodl	equ	0xFF3
  2235                           intcon	equ	0xFF2
  2236                           postinc0	equ	0xFEE
  2237                           wreg	equ	0xFE8
  2238                           indf1	equ	0xFE7
  2239                           fsr1h	equ	0xFE2
  2240                           fsr1l	equ	0xFE1
  2241                           indf2	equ	0xFDF
  2242                           postinc2	equ	0xFDE
  2243                           postdec2	equ	0xFDD
  2244                           fsr2h	equ	0xFDA
  2245                           fsr2l	equ	0xFD9
  2246                           status	equ	0xFD8
  2247                           
  2248 ;; *************** function _USART_putcUSART *****************
  2249 ;; Defined at:
  2250 ;;		line 78 in file "../../../../../../bsp/pic18f47j53_pim/usart.c"
  2251 ;; Parameters:    Size  Location     Type
  2252 ;;  c               1    wreg     unsigned char 
  2253 ;; Auto vars:     Size  Location     Type
  2254 ;;  c               1   45[COMRAM] unsigned char 
  2255 ;; Return value:  Size  Location     Type
  2256 ;;		None               void
  2257 ;; Registers used:
  2258 ;;		wreg
  2259 ;; Tracked objects:
  2260 ;;		On entry : 0/0
  2261 ;;		On exit  : 0/0
  2262 ;;		Unchanged: 0/0
  2263 ;; Data sizes:     COMRAM   BANK0   BANK1   BANK2   BANK3   BANK4   BANK5   BANK6   BANK7   BANK8   BANK9  BANK10  BANK1
      +1  BANK12  BANK13  BANK14
  2264 ;;      Params:         0       0       0       0       0       0       0       0       0       0       0       0       
      +0       0       0       0
  2265 ;;      Locals:         1       0       0       0       0       0       0       0       0       0       0       0       
      +0       0       0       0
  2266 ;;      Temps:          0       0       0       0       0       0       0       0       0       0       0       0       
      +0       0       0       0
  2267 ;;      Totals:         1       0       0       0       0       0       0       0       0       0       0       0       
      +0       0       0       0
  2268 ;;Total ram usage:        1 bytes
  2269 ;; Hardware stack levels used:    1
  2270 ;; Hardware stack levels required when called:   11
  2271 ;; This function calls:
  2272 ;;		Nothing
  2273 ;; This function is called by:
  2274 ;;		_APP_DeviceCDCEmulatorTasks
  2275 ;; This function uses a non-reentrant model
  2276 ;;
  2277                           
  2278                           	psect	text10
  2279  002D14                     __ptext10:
  2280                           	opt stack 0
  2281  002D14                     _USART_putcUSART:
  2282                           	opt stack 18
  2283                           
  2284                           ; BSR set to: 0
  2285                           ;incstack = 0
  2286                           ;USART_putcUSART@c stored from wreg
  2287  002D14  6E2E               	movwf	USART_putcUSART@c,c
  2288                           
  2289                           ;usart.c: 80: TXREG = c;
  2290  002D16  C02E  FFAE         	movff	USART_putcUSART@c,4014	;volatile
  2291  002D1A  0012               	return		;funcret
  2292  002D1C                     __end_of_USART_putcUSART:
  2293                           	opt stack 0
  2294                           prodh	equ	0xFF4
  2295                           prodl	equ	0xFF3
  2296                           intcon	equ	0xFF2
  2297                           postinc0	equ	0xFEE
  2298                           wreg	equ	0xFE8
  2299                           indf1	equ	0xFE7
  2300                           fsr1h	equ	0xFE2
  2301                           fsr1l	equ	0xFE1
  2302                           indf2	equ	0xFDF
  2303                           postinc2	equ	0xFDE
  2304                           postdec2	equ	0xFDD
  2305                           fsr2h	equ	0xFDA
  2306                           fsr2l	equ	0xFD9
  2307                           status	equ	0xFD8
  2308                           
  2309 ;; *************** function _USART_getcUSART *****************
  2310 ;; Defined at:
  2311 ;;		line 158 in file "../../../../../../bsp/pic18f47j53_pim/usart.c"
  2312 ;; Parameters:    Size  Location     Type
  2313 ;;		None
  2314 ;; Auto vars:     Size  Location     Type
  2315 ;;  c               1   45[COMRAM] unsigned char 
  2316 ;; Return value:  Size  Location     Type
  2317 ;;                  1    wreg      unsigned char 
  2318 ;; Registers used:
  2319 ;;		wreg, status,2
  2320 ;; Tracked objects:
  2321 ;;		On entry : 0/0
  2322 ;;		On exit  : 0/0
  2323 ;;		Unchanged: 0/0
  2324 ;; Data sizes:     COMRAM   BANK0   BANK1   BANK2   BANK3   BANK4   BANK5   BANK6   BANK7   BANK8   BANK9  BANK10  BANK1
      +1  BANK12  BANK13  BANK14
  2325 ;;      Params:         0       0       0       0       0       0       0       0       0       0       0       0       
      +0       0       0       0
  2326 ;;      Locals:         1       0       0       0       0       0       0       0       0       0       0       0       
      +0       0       0       0
  2327 ;;      Temps:          0       0       0       0       0       0       0       0       0       0       0       0       
      +0       0       0       0
  2328 ;;      Totals:         1       0       0       0       0       0       0       0       0       0       0       0       
      +0       0       0       0
  2329 ;;Total ram usage:        1 bytes
  2330 ;; Hardware stack levels used:    1
  2331 ;; Hardware stack levels required when called:   11
  2332 ;; This function calls:
  2333 ;;		Nothing
  2334 ;; This function is called by:
  2335 ;;		_APP_DeviceCDCEmulatorTasks
  2336 ;; This function uses a non-reentrant model
  2337 ;;
  2338                           
  2339                           	psect	text11
  2340  002CE4                     __ptext11:
  2341                           	opt stack 0
  2342  002CE4                     _USART_getcUSART:
  2343                           	opt stack 18
  2344                           
  2345                           ;usart.c: 160: char c;
  2346                           ;usart.c: 162: if (RCSTAbits.OERR)
  2347                           
  2348                           ;incstack = 0
  2349  002CE4  A2AC               	btfss	4012,1,c	;volatile
  2350  002CE6  D005               	goto	l317
  2351                           
  2352                           ;usart.c: 163: {
  2353                           ;usart.c: 164: RCSTAbits.CREN = 0;
  2354  002CE8  98AC               	bcf	4012,4,c	;volatile
  2355                           
  2356                           ;usart.c: 165: c = RCREG;
  2357  002CEA  CFAF F02E          	movff	4015,USART_getcUSART@c	;volatile
  2358                           
  2359                           ;usart.c: 166: RCSTAbits.CREN = 1;
  2360  002CEE  88AC               	bsf	4012,4,c	;volatile
  2361                           
  2362                           ;usart.c: 167: }
  2363  002CF0  D003               	goto	l3838
  2364  002CF2                     l317:
  2365                           
  2366                           ;usart.c: 168: else
  2367                           ;usart.c: 169: {
  2368                           ;usart.c: 170: c = RCREG;
  2369  002CF2  CFAF F02E          	movff	4015,USART_getcUSART@c	;volatile
  2370  002CF6  D000               	goto	l3838
  2371  002CF8                     l3838:
  2372                           
  2373                           ;usart.c: 171: }
  2374                           ;usart.c: 176: return c;
  2375  002CF8  502E               	movf	USART_getcUSART@c,w,c
  2376  002CFA  0012               	return	
  2377  002CFC  0012               	return		;funcret
  2378  002CFE                     __end_of_USART_getcUSART:
  2379                           	opt stack 0
  2380                           prodh	equ	0xFF4
  2381                           prodl	equ	0xFF3
  2382                           intcon	equ	0xFF2
  2383                           postinc0	equ	0xFEE
  2384                           wreg	equ	0xFE8
  2385                           indf1	equ	0xFE7
  2386                           fsr1h	equ	0xFE2
  2387                           fsr1l	equ	0xFE1
  2388                           indf2	equ	0xFDF
  2389                           postinc2	equ	0xFDE
  2390                           postdec2	equ	0xFDD
  2391                           fsr2h	equ	0xFDA
  2392                           fsr2l	equ	0xFD9
  2393                           status	equ	0xFD8
  2394                           
  2395 ;; *************** function _CDCTxService *****************
  2396 ;; Defined at:
  2397 ;;		line 893 in file "../../../../../../framework/usb/src/usb_device_cdc.c"
  2398 ;; Parameters:    Size  Location     Type
  2399 ;;		None
  2400 ;; Auto vars:     Size  Location     Type
  2401 ;;  byte_to_send    1    6[BANK0 ] unsigned char 
  2402 ;;  i               1    5[BANK0 ] unsigned char 
  2403 ;; Return value:  Size  Location     Type
  2404 ;;		None               void
  2405 ;; Registers used:
  2406 ;;		wreg, fsr1l, fsr1h, fsr2l, fsr2h, status,2, status,0, prodl, prodh, cstack
  2407 ;; Tracked objects:
  2408 ;;		On entry : 0/0
  2409 ;;		On exit  : 0/0
  2410 ;;		Unchanged: 0/0
  2411 ;; Data sizes:     COMRAM   BANK0   BANK1   BANK2   BANK3   BANK4   BANK5   BANK6   BANK7   BANK8   BANK9  BANK10  BANK1
      +1  BANK12  BANK13  BANK14
  2412 ;;      Params:         0       0       0       0       0       0       0       0       0       0       0       0       
      +0       0       0       0
  2413 ;;      Locals:         0       4       0       0       0       0       0       0       0       0       0       0       
      +0       0       0       0
  2414 ;;      Temps:          1       0       0       0       0       0       0       0       0       0       0       0       
      +0       0       0       0
  2415 ;;      Totals:         1       4       0       0       0       0       0       0       0       0       0       0       
      +0       0       0       0
  2416 ;;Total ram usage:        5 bytes
  2417 ;; Hardware stack levels used:    1
  2418 ;; Hardware stack levels required when called:   12
  2419 ;; This function calls:
  2420 ;;		_USBTransferOnePacket
  2421 ;; This function is called by:
  2422 ;;		_APP_DeviceCDCEmulatorTasks
  2423 ;; This function uses a non-reentrant model
  2424 ;;
  2425                           
  2426                           	psect	text12
  2427  00125E                     __ptext12:
  2428                           	opt stack 0
  2429  00125E                     _CDCTxService:
  2430                           	opt stack 17
  2431                           
  2432                           ;usb_device_cdc.c: 895: uint8_t byte_to_send;
  2433                           ;usb_device_cdc.c: 896: uint8_t i;
  2434                           ;usb_device_cdc.c: 898: {PIE2bits.USBIE = 0;};
  2435                           
  2436                           ;incstack = 0
  2437  00125E  98A0               	bcf	4000,4,c	;volatile
  2438                           
  2439                           ;usb_device_cdc.c: 900: {};
  2440                           ;usb_device_cdc.c: 902: if((CDCDataInHandle==0?0:((volatile BDT_ENTRY*)CDCDataInHandle)-
      +                          >STAT.UOWN))
  2441  001260  0100               	movlb	0	; () banked
  2442  001262  5176               	movf	_CDCDataInHandle& (0+255),w,b
  2443  001264  0100               	movlb	0	; () banked
  2444  001266  1177               	iorwf	(_CDCDataInHandle+1)& (0+255),w,b
  2445  001268  B4D8               	btfsc	status,2,c
  2446  00126A  D010               	goto	l3862
  2447                           
  2448                           ; BSR set to: 0
  2449  00126C  C076  FFD9         	movff	_CDCDataInHandle,fsr2l
  2450  001270  C077  FFDA         	movff	_CDCDataInHandle+1,fsr2h
  2451  001274  0100               	movlb	0	; () banked
  2452  001276  AEDF               	btfss	indf2,7,c
  2453  001278  D003               	goto	u2990
  2454  00127A  6A32               	clrf	??_CDCTxService& (0+255),c
  2455  00127C  2A32               	incf	??_CDCTxService& (0+255),f,c
  2456  00127E  D001               	goto	u2998
  2457  001280                     u2990:
  2458  001280  6A32               	clrf	??_CDCTxService& (0+255),c
  2459  001282                     u2998:
  2460  001282  5032               	movf	??_CDCTxService,w,c
  2461  001284  0100               	movlb	0	; () banked
  2462  001286  6FE2               	movwf	_CDCTxService$3194& (0+255),b
  2463  001288  6BE3               	clrf	(_CDCTxService$3194+1)& (0+255),b
  2464  00128A  D006               	goto	l3864
  2465  00128C                     l3862:
  2466                           
  2467                           ; BSR set to: 0
  2468  00128C  0E00               	movlw	0
  2469  00128E  0100               	movlb	0	; () banked
  2470  001290  6FE3               	movwf	(_CDCTxService$3194+1)& (0+255),b
  2471  001292  0E00               	movlw	0
  2472  001294  6FE2               	movwf	_CDCTxService$3194& (0+255),b
  2473  001296  D000               	goto	l3864
  2474  001298                     l3864:
  2475                           
  2476                           ; BSR set to: 0
  2477  001298  0100               	movlb	0	; () banked
  2478  00129A  51E2               	movf	_CDCTxService$3194& (0+255),w,b
  2479  00129C  0100               	movlb	0	; () banked
  2480  00129E  11E3               	iorwf	(_CDCTxService$3194+1)& (0+255),w,b
  2481  0012A0  B4D8               	btfsc	status,2,c
  2482  0012A2  D002               	goto	l3868
  2483                           
  2484                           ; BSR set to: 0
  2485                           ;usb_device_cdc.c: 903: {
  2486                           ;usb_device_cdc.c: 904: {PIE2bits.USBIE = 1;};
  2487  0012A4  88A0               	bsf	4000,4,c	;volatile
  2488                           
  2489                           ;usb_device_cdc.c: 905: return;
  2490  0012A6  0012               	return	
  2491  0012A8                     l3868:
  2492                           
  2493                           ; BSR set to: 0
  2494                           ;usb_device_cdc.c: 906: }
  2495                           ;usb_device_cdc.c: 913: if(cdc_trf_state == 3)
  2496  0012A8  0E03               	movlw	3
  2497  0012AA  1854               	xorwf	_cdc_trf_state,w,c
  2498  0012AC  A4D8               	btfss	status,2,c
  2499  0012AE  D002               	goto	l813
  2500                           
  2501                           ; BSR set to: 0
  2502                           ;usb_device_cdc.c: 914: cdc_trf_state = 0;
  2503  0012B0  0E00               	movlw	0
  2504  0012B2  6E54               	movwf	_cdc_trf_state,c
  2505  0012B4                     l813:
  2506                           
  2507                           ; BSR set to: 0
  2508                           ;usb_device_cdc.c: 919: if(cdc_trf_state == 0)
  2509  0012B4  5054               	movf	_cdc_trf_state,w,c
  2510  0012B6  A4D8               	btfss	status,2,c
  2511  0012B8  D002               	goto	l3874
  2512                           
  2513                           ; BSR set to: 0
  2514                           ;usb_device_cdc.c: 920: {
  2515                           ;usb_device_cdc.c: 921: {PIE2bits.USBIE = 1;};
  2516  0012BA  88A0               	bsf	4000,4,c	;volatile
  2517                           
  2518                           ;usb_device_cdc.c: 922: return;
  2519  0012BC  0012               	return	
  2520  0012BE                     l3874:
  2521                           
  2522                           ; BSR set to: 0
  2523                           ;usb_device_cdc.c: 923: }
  2524                           ;usb_device_cdc.c: 928: if(cdc_trf_state == 2)
  2525  0012BE  0E02               	movlw	2
  2526  0012C0  1854               	xorwf	_cdc_trf_state,w,c
  2527  0012C2  A4D8               	btfss	status,2,c
  2528  0012C4  D012               	goto	l3880
  2529                           
  2530                           ; BSR set to: 0
  2531                           ;usb_device_cdc.c: 929: {
  2532                           ;usb_device_cdc.c: 930: CDCDataInHandle = USBTransferOnePacket(2,1,(0),0);
  2533  0012C6  0E01               	movlw	1
  2534  0012C8  6E2E               	movwf	USBTransferOnePacket@dir,c
  2535  0012CA  0E00               	movlw	0
  2536  0012CC  6E2F               	movwf	USBTransferOnePacket@data,c
  2537  0012CE  0E00               	movlw	0
  2538  0012D0  6E30               	movwf	USBTransferOnePacket@data+1,c
  2539  0012D2  0E00               	movlw	0
  2540  0012D4  6E31               	movwf	USBTransferOnePacket@len,c
  2541  0012D6  0E02               	movlw	2
  2542  0012D8  EC3D  F010         	call	_USBTransferOnePacket
  2543  0012DC  C02E  F076         	movff	?_USBTransferOnePacket,_CDCDataInHandle
  2544  0012E0  C02F  F077         	movff	?_USBTransferOnePacket+1,_CDCDataInHandle+1
  2545                           
  2546                           ;usb_device_cdc.c: 932: cdc_trf_state = 3;
  2547  0012E4  0E03               	movlw	3
  2548  0012E6  6E54               	movwf	_cdc_trf_state,c
  2549                           
  2550                           ;usb_device_cdc.c: 933: }
  2551  0012E8  D076               	goto	l3924
  2552  0012EA                     l3880:
  2553                           
  2554                           ;usb_device_cdc.c: 934: else if(cdc_trf_state == 1)
  2555  0012EA  0454               	decf	_cdc_trf_state,w,c
  2556  0012EC  A4D8               	btfss	status,2,c
  2557  0012EE  D073               	goto	l3924
  2558                           
  2559                           ;usb_device_cdc.c: 935: {
  2560                           ;usb_device_cdc.c: 939: if(cdc_tx_len > sizeof(cdc_data_tx))
  2561  0012F0  0E40               	movlw	64
  2562  0012F2  0100               	movlb	0	; () banked
  2563  0012F4  6582               	cpfsgt	_cdc_tx_len& (0+255),b
  2564  0012F6  D004               	goto	l818
  2565                           
  2566                           ; BSR set to: 0
  2567                           ;usb_device_cdc.c: 940: byte_to_send = sizeof(cdc_data_tx);
  2568  0012F8  0E40               	movlw	64
  2569  0012FA  0100               	movlb	0	; () banked
  2570  0012FC  6FE5               	movwf	CDCTxService@byte_to_send& (0+255),b
  2571  0012FE  D003               	goto	l3886
  2572  001300                     l818:
  2573                           
  2574                           ; BSR set to: 0
  2575                           ;usb_device_cdc.c: 941: else
  2576                           ;usb_device_cdc.c: 942: byte_to_send = cdc_tx_len;
  2577  001300  C082  F0E5         	movff	_cdc_tx_len,CDCTxService@byte_to_send
  2578  001304  D000               	goto	l3886
  2579  001306                     l3886:
  2580                           
  2581                           ; BSR set to: 0
  2582                           ;usb_device_cdc.c: 947: cdc_tx_len = cdc_tx_len - byte_to_send;
  2583  001306  0100               	movlb	0	; () banked
  2584  001308  51E5               	movf	CDCTxService@byte_to_send& (0+255),w,b
  2585  00130A  0800               	sublw	0
  2586  00130C  0100               	movlb	0	; () banked
  2587  00130E  2582               	addwf	_cdc_tx_len& (0+255),w,b
  2588  001310  0100               	movlb	0	; () banked
  2589  001312  6F82               	movwf	_cdc_tx_len& (0+255),b
  2590                           
  2591                           ;usb_device_cdc.c: 949: pCDCDst.bRam = (uint8_t*)&cdc_data_tx;
  2592  001314  0E80               	movlw	low _cdc_data_tx
  2593  001316  0100               	movlb	0	; () banked
  2594  001318  6F70               	movwf	_pCDCDst& (0+255),b
  2595  00131A  0E01               	movlw	high _cdc_data_tx
  2596  00131C  0100               	movlb	0	; () banked
  2597  00131E  6F71               	movwf	(_pCDCDst+1)& (0+255),b
  2598                           
  2599                           ; BSR set to: 0
  2600                           ;usb_device_cdc.c: 951: i = byte_to_send;
  2601  001320  C0E5  F0E4         	movff	CDCTxService@byte_to_send,CDCTxService@i
  2602                           
  2603                           ; BSR set to: 0
  2604                           ;usb_device_cdc.c: 952: if(cdc_mem_type == 0x00)
  2605  001324  0100               	movlb	0	; () banked
  2606  001326  5180               	movf	_cdc_mem_type& (0+255),w,b
  2607  001328  B4D8               	btfsc	status,2,c
  2608  00132A  D015               	goto	l3902
  2609  00132C  D02F               	goto	l3912
  2610                           
  2611                           ; BSR set to: 0
  2612                           ;usb_device_cdc.c: 953: {
  2613                           ;usb_device_cdc.c: 954: while(i)
  2614  00132E  D013               	goto	l3902
  2615  001330                     l3894:
  2616                           
  2617                           ; BSR set to: 0
  2618                           ;usb_device_cdc.c: 955: {
  2619                           ;usb_device_cdc.c: 956: *pCDCDst.bRam = *pCDCSrc.bRom;
  2620  001330  C073  FFD9         	movff	_pCDCSrc,fsr2l
  2621  001334  C074  FFDA         	movff	_pCDCSrc+1,fsr2h
  2622  001338  C070  FFE1         	movff	_pCDCDst,fsr1l
  2623  00133C  C071  FFE2         	movff	_pCDCDst+1,fsr1h
  2624  001340  CFDF FFE7          	movff	indf2,indf1
  2625                           
  2626                           ; BSR set to: 0
  2627                           ;usb_device_cdc.c: 957: pCDCDst.bRam++;
  2628  001344  0100               	movlb	0	; () banked
  2629  001346  4B70               	infsnz	_pCDCDst& (0+255),f,b
  2630  001348  2B71               	incf	(_pCDCDst+1)& (0+255),f,b
  2631                           
  2632                           ; BSR set to: 0
  2633                           ;usb_device_cdc.c: 958: pCDCSrc.bRom++;
  2634  00134A  0100               	movlb	0	; () banked
  2635  00134C  4B73               	infsnz	_pCDCSrc& (0+255),f,b
  2636  00134E  2B74               	incf	(_pCDCSrc+1)& (0+255),f,b
  2637                           
  2638                           ; BSR set to: 0
  2639                           ;usb_device_cdc.c: 959: i--;
  2640  001350  0100               	movlb	0	; () banked
  2641  001352  07E4               	decf	CDCTxService@i& (0+255),f,b
  2642  001354  D000               	goto	l3902
  2643  001356                     l3902:
  2644                           
  2645                           ; BSR set to: 0
  2646  001356  0100               	movlb	0	; () banked
  2647  001358  51E4               	movf	CDCTxService@i& (0+255),w,b
  2648  00135A  0100               	movlb	0	; () banked
  2649  00135C  B4D8               	btfsc	status,2,c
  2650  00135E  D01D               	goto	l3914
  2651  001360  D7E7               	goto	l3894
  2652                           
  2653                           ; BSR set to: 0
  2654                           ;usb_device_cdc.c: 960: }
  2655                           ;usb_device_cdc.c: 961: }
  2656  001362  D01B               	goto	l3914
  2657                           
  2658                           ; BSR set to: 0
  2659                           ;usb_device_cdc.c: 962: else
  2660                           ;usb_device_cdc.c: 963: {
  2661                           ;usb_device_cdc.c: 964: while(i)
  2662  001364  D013               	goto	l3912
  2663  001366                     l3904:
  2664                           
  2665                           ; BSR set to: 0
  2666                           ;usb_device_cdc.c: 965: {
  2667                           ;usb_device_cdc.c: 966: *pCDCDst.bRam = *pCDCSrc.bRam;
  2668  001366  C073  FFD9         	movff	_pCDCSrc,fsr2l
  2669  00136A  C074  FFDA         	movff	_pCDCSrc+1,fsr2h
  2670  00136E  C070  FFE1         	movff	_pCDCDst,fsr1l
  2671  001372  C071  FFE2         	movff	_pCDCDst+1,fsr1h
  2672  001376  CFDF FFE7          	movff	indf2,indf1
  2673                           
  2674                           ; BSR set to: 0
  2675                           ;usb_device_cdc.c: 967: pCDCDst.bRam++;
  2676  00137A  0100               	movlb	0	; () banked
  2677  00137C  4B70               	infsnz	_pCDCDst& (0+255),f,b
  2678  00137E  2B71               	incf	(_pCDCDst+1)& (0+255),f,b
  2679                           
  2680                           ; BSR set to: 0
  2681                           ;usb_device_cdc.c: 968: pCDCSrc.bRam++;
  2682  001380  0100               	movlb	0	; () banked
  2683  001382  4B73               	infsnz	_pCDCSrc& (0+255),f,b
  2684  001384  2B74               	incf	(_pCDCSrc+1)& (0+255),f,b
  2685                           
  2686                           ; BSR set to: 0
  2687                           ;usb_device_cdc.c: 969: i--;
  2688  001386  0100               	movlb	0	; () banked
  2689  001388  07E4               	decf	CDCTxService@i& (0+255),f,b
  2690  00138A  D000               	goto	l3912
  2691  00138C                     l3912:
  2692                           
  2693                           ; BSR set to: 0
  2694  00138C  0100               	movlb	0	; () banked
  2695  00138E  51E4               	movf	CDCTxService@i& (0+255),w,b
  2696  001390  0100               	movlb	0	; () banked
  2697  001392  B4D8               	btfsc	status,2,c
  2698  001394  D002               	goto	l3914
  2699  001396  D7E7               	goto	l3904
  2700                           
  2701                           ; BSR set to: 0
  2702  001398  D000               	goto	l3914
  2703  00139A                     l3914:
  2704                           
  2705                           ; BSR set to: 0
  2706                           ;usb_device_cdc.c: 970: }
  2707                           ;usb_device_cdc.c: 971: }
  2708                           ;usb_device_cdc.c: 977: if(cdc_tx_len == 0)
  2709  00139A  0100               	movlb	0	; () banked
  2710  00139C  5182               	movf	_cdc_tx_len& (0+255),w,b
  2711  00139E  A4D8               	btfss	status,2,c
  2712  0013A0  D00A               	goto	l3922
  2713                           
  2714                           ; BSR set to: 0
  2715                           ;usb_device_cdc.c: 978: {
  2716                           ;usb_device_cdc.c: 979: if(byte_to_send == 64)
  2717  0013A2  0E40               	movlw	64
  2718  0013A4  0100               	movlb	0	; () banked
  2719  0013A6  19E5               	xorwf	CDCTxService@byte_to_send& (0+255),w,b
  2720  0013A8  A4D8               	btfss	status,2,c
  2721  0013AA  D002               	goto	l3920
  2722                           
  2723                           ; BSR set to: 0
  2724                           ;usb_device_cdc.c: 980: cdc_trf_state = 2;
  2725  0013AC  0E02               	movlw	2
  2726  0013AE  D001               	goto	L1
  2727  0013B0                     l3920:
  2728                           
  2729                           ; BSR set to: 0
  2730                           ;usb_device_cdc.c: 981: else
  2731                           ;usb_device_cdc.c: 982: cdc_trf_state = 3;
  2732  0013B0  0E03               	movlw	3
  2733  0013B2                     L1:
  2734  0013B2  6E54               	movwf	_cdc_trf_state,c
  2735                           
  2736                           ; BSR set to: 0
  2737  0013B4  D000               	goto	l3922
  2738  0013B6                     l3922:
  2739                           
  2740                           ; BSR set to: 0
  2741                           ;usb_device_cdc.c: 983: }
  2742                           ;usb_device_cdc.c: 984: CDCDataInHandle = USBTransferOnePacket(2,1,(uint8_t*)&cdc_data_t
      +                          x,byte_to_send);
  2743  0013B6  0E01               	movlw	1
  2744  0013B8  6E2E               	movwf	USBTransferOnePacket@dir,c
  2745  0013BA  0E80               	movlw	low _cdc_data_tx
  2746  0013BC  6E2F               	movwf	USBTransferOnePacket@data,c
  2747  0013BE  0E01               	movlw	high _cdc_data_tx
  2748  0013C0  6E30               	movwf	USBTransferOnePacket@data+1,c
  2749  0013C2  C0E5  F031         	movff	CDCTxService@byte_to_send,USBTransferOnePacket@len
  2750  0013C6  0E02               	movlw	2
  2751  0013C8  EC3D  F010         	call	_USBTransferOnePacket
  2752  0013CC  C02E  F076         	movff	?_USBTransferOnePacket,_CDCDataInHandle
  2753  0013D0  C02F  F077         	movff	?_USBTransferOnePacket+1,_CDCDataInHandle+1
  2754  0013D4  D000               	goto	l3924
  2755  0013D6                     l3924:
  2756                           
  2757                           ;usb_device_cdc.c: 986: }
  2758                           ;usb_device_cdc.c: 988: {PIE2bits.USBIE = 1;};
  2759  0013D6  88A0               	bsf	4000,4,c	;volatile
  2760  0013D8  0012               	return		;funcret
  2761  0013DA                     __end_of_CDCTxService:
  2762                           	opt stack 0
  2763                           prodh	equ	0xFF4
  2764                           prodl	equ	0xFF3
  2765                           intcon	equ	0xFF2
  2766                           postinc0	equ	0xFEE
  2767                           wreg	equ	0xFE8
  2768                           indf1	equ	0xFE7
  2769                           fsr1h	equ	0xFE2
  2770                           fsr1l	equ	0xFE1
  2771                           indf2	equ	0xFDF
  2772                           postinc2	equ	0xFDE
  2773                           postdec2	equ	0xFDD
  2774                           fsr2h	equ	0xFDA
  2775                           fsr2l	equ	0xFD9
  2776                           status	equ	0xFD8
  2777                           
  2778 ;; *************** function _USBTransferOnePacket *****************
  2779 ;; Defined at:
  2780 ;;		line 995 in file "../../../../../../framework/usb/src/usb_device.c"
  2781 ;; Parameters:    Size  Location     Type
  2782 ;;  ep              1    wreg     unsigned char 
  2783 ;;  dir             1   45[COMRAM] unsigned char 
  2784 ;;  data            2   46[COMRAM] PTR unsigned char 
  2785 ;;		 -> cdc_data_tx(64), cdc_data_rx(64), NULL(0), 
  2786 ;;  len             1   48[COMRAM] unsigned char 
  2787 ;; Auto vars:     Size  Location     Type
  2788 ;;  ep              1    0[BANK0 ] unsigned char 
  2789 ;;  handle          2    1[BANK0 ] PTR volatile struct __BD
  2790 ;;		 -> BDT(48), NULL(0), 
  2791 ;; Return value:  Size  Location     Type
  2792 ;;                  2   45[COMRAM] PTR void 
  2793 ;; Registers used:
  2794 ;;		wreg, fsr2l, fsr2h, status,2, status,0, prodl, prodh
  2795 ;; Tracked objects:
  2796 ;;		On entry : 0/0
  2797 ;;		On exit  : 0/0
  2798 ;;		Unchanged: 0/0
  2799 ;; Data sizes:     COMRAM   BANK0   BANK1   BANK2   BANK3   BANK4   BANK5   BANK6   BANK7   BANK8   BANK9  BANK10  BANK1
      +1  BANK12  BANK13  BANK14
  2800 ;;      Params:         4       0       0       0       0       0       0       0       0       0       0       0       
      +0       0       0       0
  2801 ;;      Locals:         0       3       0       0       0       0       0       0       0       0       0       0       
      +0       0       0       0
  2802 ;;      Temps:          0       0       0       0       0       0       0       0       0       0       0       0       
      +0       0       0       0
  2803 ;;      Totals:         4       3       0       0       0       0       0       0       0       0       0       0       
      +0       0       0       0
  2804 ;;Total ram usage:        7 bytes
  2805 ;; Hardware stack levels used:    1
  2806 ;; Hardware stack levels required when called:   11
  2807 ;; This function calls:
  2808 ;;		Nothing
  2809 ;; This function is called by:
  2810 ;;		_getsUSBUSART
  2811 ;;		_CDCTxService
  2812 ;;		_USBCDCEventHandler
  2813 ;; This function uses a non-reentrant model
  2814 ;;
  2815                           
  2816                           	psect	text13
  2817  00207A                     __ptext13:
  2818                           	opt stack 0
  2819  00207A                     _USBTransferOnePacket:
  2820                           	opt stack 17
  2821                           
  2822                           ;incstack = 0
  2823                           ;USBTransferOnePacket@ep stored from wreg
  2824  00207A  0100               	movlb	0	; () banked
  2825  00207C  6FDF               	movwf	USBTransferOnePacket@ep& (0+255),b
  2826                           
  2827                           ; BSR set to: 0
  2828                           ;usb_device.c: 997: volatile BDT_ENTRY* handle;
  2829                           ;usb_device.c: 1000: if(dir != 0)
  2830  00207E  502E               	movf	USBTransferOnePacket@dir,w,c
  2831  002080  B4D8               	btfsc	status,2,c
  2832  002082  D008               	goto	l3682
  2833                           
  2834                           ; BSR set to: 0
  2835                           ;usb_device.c: 1001: {
  2836                           ;usb_device.c: 1003: handle = pBDTEntryIn[ep];
  2837  002084  0100               	movlb	0	; () banked
  2838  002086  51DF               	movf	USBTransferOnePacket@ep& (0+255),w,b
  2839  002088  0D02               	mullw	2
  2840  00208A  0E3C               	movlw	low _pBDTEntryIn
  2841  00208C  24F3               	addwf	prodl,w,c
  2842  00208E  6ED9               	movwf	fsr2l,c
  2843  002090  0E00               	movlw	high _pBDTEntryIn
  2844  002092  D007               	goto	L2
  2845  002094                     l3682:
  2846                           
  2847                           ; BSR set to: 0
  2848                           ;usb_device.c: 1005: else
  2849                           ;usb_device.c: 1006: {
  2850                           ;usb_device.c: 1008: handle = pBDTEntryOut[ep];
  2851  002094  0100               	movlb	0	; () banked
  2852  002096  51DF               	movf	USBTransferOnePacket@ep& (0+255),w,b
  2853  002098  0D02               	mullw	2
  2854  00209A  0E60               	movlw	low _pBDTEntryOut
  2855  00209C  24F3               	addwf	prodl,w,c
  2856  00209E  6ED9               	movwf	fsr2l,c
  2857  0020A0  0E00               	movlw	high _pBDTEntryOut
  2858  0020A2                     L2:
  2859  0020A2  20F4               	addwfc	prodh,w,c
  2860  0020A4  6EDA               	movwf	fsr2h,c
  2861  0020A6  CFDE F0E0          	movff	postinc2,USBTransferOnePacket@handle
  2862  0020AA  CFDD F0E1          	movff	postdec2,USBTransferOnePacket@handle+1
  2863  0020AE  D000               	goto	l3684
  2864  0020B0                     l3684:
  2865                           
  2866                           ; BSR set to: 0
  2867                           ;usb_device.c: 1009: }
  2868                           ;usb_device.c: 1013: if(handle == 0)
  2869  0020B0  0100               	movlb	0	; () banked
  2870  0020B2  51E0               	movf	USBTransferOnePacket@handle& (0+255),w,b
  2871  0020B4  0100               	movlb	0	; () banked
  2872  0020B6  11E1               	iorwf	(USBTransferOnePacket@handle+1)& (0+255),w,b
  2873  0020B8  A4D8               	btfss	status,2,c
  2874  0020BA  D005               	goto	l3690
  2875                           
  2876                           ; BSR set to: 0
  2877                           ;usb_device.c: 1014: {
  2878                           ;usb_device.c: 1015: return 0;
  2879  0020BC  0E00               	movlw	0
  2880  0020BE  6E2E               	movwf	?_USBTransferOnePacket,c
  2881  0020C0  0E00               	movlw	0
  2882  0020C2  6E2F               	movwf	?_USBTransferOnePacket+1,c
  2883                           
  2884                           ; BSR set to: 0
  2885  0020C4  0012               	return	
  2886  0020C6                     l3690:
  2887                           
  2888                           ; BSR set to: 0
  2889                           ;usb_device.c: 1016: }
  2890                           ;usb_device.c: 1029: handle->ADR = ((uint16_t)(data));
  2891  0020C6  0100               	movlb	0	; () banked
  2892  0020C8  EE20 F002          	lfsr	2,2
  2893  0020CC  51E0               	movf	USBTransferOnePacket@handle& (0+255),w,b
  2894  0020CE  26D9               	addwf	fsr2l,f,c
  2895  0020D0  51E1               	movf	(USBTransferOnePacket@handle+1)& (0+255),w,b
  2896  0020D2  22DA               	addwfc	fsr2h,f,c
  2897  0020D4  C02F  FFDE         	movff	USBTransferOnePacket@data,postinc2
  2898  0020D8  C030  FFDD         	movff	USBTransferOnePacket@data+1,postdec2
  2899                           
  2900                           ;usb_device.c: 1030: handle->CNT = len;
  2901  0020DC  0100               	movlb	0	; () banked
  2902  0020DE  EE20 F001          	lfsr	2,1
  2903  0020E2  51E0               	movf	USBTransferOnePacket@handle& (0+255),w,b
  2904  0020E4  26D9               	addwf	fsr2l,f,c
  2905  0020E6  51E1               	movf	(USBTransferOnePacket@handle+1)& (0+255),w,b
  2906  0020E8  22DA               	addwfc	fsr2h,f,c
  2907  0020EA  C031  FFDF         	movff	USBTransferOnePacket@len,indf2
  2908                           
  2909                           ; BSR set to: 0
  2910                           ;usb_device.c: 1031: handle->STAT.Val &= 0x40;
  2911  0020EE  C0E0  FFD9         	movff	USBTransferOnePacket@handle,fsr2l
  2912  0020F2  C0E1  FFDA         	movff	USBTransferOnePacket@handle+1,fsr2h
  2913  0020F6  0E40               	movlw	64
  2914  0020F8  16DF               	andwf	indf2,f,c
  2915                           
  2916                           ; BSR set to: 0
  2917                           ;usb_device.c: 1032: handle->STAT.Val |= (0x08 & 0x08);
  2918  0020FA  C0E0  FFD9         	movff	USBTransferOnePacket@handle,fsr2l
  2919  0020FE  C0E1  FFDA         	movff	USBTransferOnePacket@handle+1,fsr2h
  2920  002102  0E00               	movlw	0
  2921  002104  86DB               	bsf	plusw2,3,c
  2922                           
  2923                           ; BSR set to: 0
  2924                           ;usb_device.c: 1033: handle->STAT.Val |= 0x80;
  2925  002106  C0E0  FFD9         	movff	USBTransferOnePacket@handle,fsr2l
  2926  00210A  C0E1  FFDA         	movff	USBTransferOnePacket@handle+1,fsr2h
  2927  00210E  0E00               	movlw	0
  2928  002110  8EDB               	bsf	plusw2,7,c
  2929                           
  2930                           ; BSR set to: 0
  2931                           ;usb_device.c: 1036: if(dir != 0)
  2932  002112  502E               	movf	USBTransferOnePacket@dir,w,c
  2933  002114  B4D8               	btfsc	status,2,c
  2934  002116  D008               	goto	l3702
  2935                           
  2936                           ; BSR set to: 0
  2937                           ;usb_device.c: 1037: {
  2938                           ;usb_device.c: 1039: {((uint8_t_VAL*)&pBDTEntryIn[ep])->Val ^= 0x0004;};
  2939  002118  0100               	movlb	0	; () banked
  2940  00211A  51DF               	movf	USBTransferOnePacket@ep& (0+255),w,b
  2941  00211C  0D02               	mullw	2
  2942  00211E  0E3C               	movlw	low _pBDTEntryIn
  2943  002120  24F3               	addwf	prodl,w,c
  2944  002122  6ED9               	movwf	fsr2l,c
  2945  002124  0E00               	movlw	high _pBDTEntryIn
  2946  002126  D007               	goto	L3
  2947  002128                     l3702:
  2948                           
  2949                           ; BSR set to: 0
  2950                           ;usb_device.c: 1041: else
  2951                           ;usb_device.c: 1042: {
  2952                           ;usb_device.c: 1044: {((uint8_t_VAL*)&pBDTEntryOut[ep])->Val ^= 0x0004;};
  2953  002128  0100               	movlb	0	; () banked
  2954  00212A  51DF               	movf	USBTransferOnePacket@ep& (0+255),w,b
  2955  00212C  0D02               	mullw	2
  2956  00212E  0E60               	movlw	low _pBDTEntryOut
  2957  002130  24F3               	addwf	prodl,w,c
  2958  002132  6ED9               	movwf	fsr2l,c
  2959  002134  0E00               	movlw	high _pBDTEntryOut
  2960  002136                     L3:
  2961  002136  20F4               	addwfc	prodh,w,c
  2962  002138  6EDA               	movwf	fsr2h,c
  2963  00213A  0E04               	movlw	4
  2964  00213C  1ADF               	xorwf	indf2,f,c
  2965  00213E  D000               	goto	l3704
  2966  002140                     l3704:
  2967                           
  2968                           ; BSR set to: 0
  2969                           ;usb_device.c: 1045: }
  2970                           ;usb_device.c: 1046: return (void*)handle;
  2971  002140  C0E0  F02E         	movff	USBTransferOnePacket@handle,?_USBTransferOnePacket
  2972  002144  C0E1  F02F         	movff	USBTransferOnePacket@handle+1,?_USBTransferOnePacket+1
  2973  002148  0012               	return	
  2974                           
  2975                           ; BSR set to: 0
  2976                           
  2977                           ; BSR set to: 0
  2978  00214A  0012               	return		;funcret
  2979  00214C                     __end_of_USBTransferOnePacket:
  2980                           	opt stack 0
  2981                           prodh	equ	0xFF4
  2982                           prodl	equ	0xFF3
  2983                           intcon	equ	0xFF2
  2984                           postinc0	equ	0xFEE
  2985                           wreg	equ	0xFE8
  2986                           indf1	equ	0xFE7
  2987                           fsr1h	equ	0xFE2
  2988                           fsr1l	equ	0xFE1
  2989                           indf2	equ	0xFDF
  2990                           postinc2	equ	0xFDE
  2991                           postdec2	equ	0xFDD
  2992                           plusw2	equ	0xFDB
  2993                           fsr2h	equ	0xFDA
  2994                           fsr2l	equ	0xFD9
  2995                           status	equ	0xFD8
  2996                           
  2997 ;; *************** function _SYS_InterruptHigh *****************
  2998 ;; Defined at:
  2999 ;;		line 105 in file "../src/system_config/pic18f47j53_pim/system.c"
  3000 ;; Parameters:    Size  Location     Type
  3001 ;;		None
  3002 ;; Auto vars:     Size  Location     Type
  3003 ;;		None
  3004 ;; Return value:  Size  Location     Type
  3005 ;;		None               void
  3006 ;; Registers used:
  3007 ;;		wreg, fsr0l, fsr0h, fsr1l, fsr1h, fsr2l, fsr2h, status,2, status,0, pclat, tosl, tblptrl, tblptrh, tblptru, prodl, p
      +rodh, cstack
  3008 ;; Tracked objects:
  3009 ;;		On entry : 0/0
  3010 ;;		On exit  : 0/0
  3011 ;;		Unchanged: 0/0
  3012 ;; Data sizes:     COMRAM   BANK0   BANK1   BANK2   BANK3   BANK4   BANK5   BANK6   BANK7   BANK8   BANK9  BANK10  BANK1
      +1  BANK12  BANK13  BANK14
  3013 ;;      Params:         0       0       0       0       0       0       0       0       0       0       0       0       
      +0       0       0       0
  3014 ;;      Locals:         0       0       0       0       0       0       0       0       0       0       0       0       
      +0       0       0       0
  3015 ;;      Temps:         14       0       0       0       0       0       0       0       0       0       0       0       
      +0       0       0       0
  3016 ;;      Totals:        14       0       0       0       0       0       0       0       0       0       0       0       
      +0       0       0       0
  3017 ;;Total ram usage:       14 bytes
  3018 ;; Hardware stack levels used:    1
  3019 ;; Hardware stack levels required when called:   10
  3020 ;; This function calls:
  3021 ;;		_USBDeviceTasks
  3022 ;; This function is called by:
  3023 ;;		Interrupt level 2
  3024 ;; This function uses a non-reentrant model
  3025 ;;
  3026                           
  3027                           	psect	intcode
  3028  000008                     __pintcode:
  3029                           	opt stack 0
  3030  000008                     _SYS_InterruptHigh:
  3031                           	opt stack 17
  3032                           
  3033                           ; BSR set to: 0
  3034                           ;incstack = 0
  3035  000008  CFFA F020          	movff	pclath,??_SYS_InterruptHigh
  3036  00000C  CFFB F021          	movff	pclatu,??_SYS_InterruptHigh+1
  3037  000010  CFE9 F022          	movff	fsr0l,??_SYS_InterruptHigh+2
  3038  000014  CFEA F023          	movff	fsr0h,??_SYS_InterruptHigh+3
  3039  000018  CFE1 F024          	movff	fsr1l,??_SYS_InterruptHigh+4
  3040  00001C  CFE2 F025          	movff	fsr1h,??_SYS_InterruptHigh+5
  3041  000020  CFD9 F026          	movff	fsr2l,??_SYS_InterruptHigh+6
  3042  000024  CFDA F027          	movff	fsr2h,??_SYS_InterruptHigh+7
  3043  000028  CFF3 F028          	movff	prodl,??_SYS_InterruptHigh+8
  3044  00002C  CFF4 F029          	movff	prodh,??_SYS_InterruptHigh+9
  3045  000030  CFF6 F02A          	movff	tblptrl,??_SYS_InterruptHigh+10
  3046  000034  CFF7 F02B          	movff	tblptrh,??_SYS_InterruptHigh+11
  3047  000038  CFF8 F02C          	movff	tblptru,??_SYS_InterruptHigh+12
  3048  00003C  CFF5 F02D          	movff	tablat,??_SYS_InterruptHigh+13
  3049                           
  3050                           ;system.c: 108: USBDeviceTasks();
  3051  000040  ECED  F009         	call	_USBDeviceTasks	;wreg free
  3052  000044  C02D  FFF5         	movff	??_SYS_InterruptHigh+13,tablat
  3053  000048  C02C  FFF8         	movff	??_SYS_InterruptHigh+12,tblptru
  3054  00004C  C02B  FFF7         	movff	??_SYS_InterruptHigh+11,tblptrh
  3055  000050  C02A  FFF6         	movff	??_SYS_InterruptHigh+10,tblptrl
  3056  000054  C029  FFF4         	movff	??_SYS_InterruptHigh+9,prodh
  3057  000058  C028  FFF3         	movff	??_SYS_InterruptHigh+8,prodl
  3058  00005C  C027  FFDA         	movff	??_SYS_InterruptHigh+7,fsr2h
  3059  000060  C026  FFD9         	movff	??_SYS_InterruptHigh+6,fsr2l
  3060  000064  C025  FFE2         	movff	??_SYS_InterruptHigh+5,fsr1h
  3061  000068  C024  FFE1         	movff	??_SYS_InterruptHigh+4,fsr1l
  3062  00006C  C023  FFEA         	movff	??_SYS_InterruptHigh+3,fsr0h
  3063  000070  C022  FFE9         	movff	??_SYS_InterruptHigh+2,fsr0l
  3064  000074  C021  FFFB         	movff	??_SYS_InterruptHigh+1,pclatu
  3065  000078  C020  FFFA         	movff	??_SYS_InterruptHigh,pclath
  3066  00007C  0011               	retfie		f
  3067  00007E                     __end_of_SYS_InterruptHigh:
  3068                           	opt stack 0
  3069                           pclatu	equ	0xFFB
  3070                           pclath	equ	0xFFA
  3071                           tblptru	equ	0xFF8
  3072                           tblptrh	equ	0xFF7
  3073                           tblptrl	equ	0xFF6
  3074                           tablat	equ	0xFF5
  3075                           prodh	equ	0xFF4
  3076                           prodl	equ	0xFF3
  3077                           intcon	equ	0xFF2
  3078                           postinc0	equ	0xFEE
  3079                           fsr0h	equ	0xFEA
  3080                           fsr0l	equ	0xFE9
  3081                           wreg	equ	0xFE8
  3082                           indf1	equ	0xFE7
  3083                           fsr1h	equ	0xFE2
  3084                           fsr1l	equ	0xFE1
  3085                           indf2	equ	0xFDF
  3086                           postinc2	equ	0xFDE
  3087                           postdec2	equ	0xFDD
  3088                           plusw2	equ	0xFDB
  3089                           fsr2h	equ	0xFDA
  3090                           fsr2l	equ	0xFD9
  3091                           status	equ	0xFD8
  3092                           
  3093 ;; *************** function _USBDeviceTasks *****************
  3094 ;; Defined at:
  3095 ;;		line 489 in file "../../../../../../framework/usb/src/usb_device.c"
  3096 ;; Parameters:    Size  Location     Type
  3097 ;;		None
  3098 ;; Auto vars:     Size  Location     Type
  3099 ;;  i               1   30[COMRAM] unsigned char 
  3100 ;; Return value:  Size  Location     Type
  3101 ;;		None               void
  3102 ;; Registers used:
  3103 ;;		wreg, fsr0l, fsr0h, fsr1l, fsr1h, fsr2l, fsr2h, status,2, status,0, pclat, tosl, tblptrl, tblptrh, tblptru, prodl, p
      +rodh, cstack
  3104 ;; Tracked objects:
  3105 ;;		On entry : 0/0
  3106 ;;		On exit  : 0/0
  3107 ;;		Unchanged: 0/0
  3108 ;; Data sizes:     COMRAM   BANK0   BANK1   BANK2   BANK3   BANK4   BANK5   BANK6   BANK7   BANK8   BANK9  BANK10  BANK1
      +1  BANK12  BANK13  BANK14
  3109 ;;      Params:         0       0       0       0       0       0       0       0       0       0       0       0       
      +0       0       0       0
  3110 ;;      Locals:         1       0       0       0       0       0       0       0       0       0       0       0       
      +0       0       0       0
  3111 ;;      Temps:          0       0       0       0       0       0       0       0       0       0       0       0       
      +0       0       0       0
  3112 ;;      Totals:         1       0       0       0       0       0       0       0       0       0       0       0       
      +0       0       0       0
  3113 ;;Total ram usage:        1 bytes
  3114 ;; Hardware stack levels used:    1
  3115 ;; Hardware stack levels required when called:    9
  3116 ;; This function calls:
  3117 ;;		_USBCtrlEPAllowStatusStage
  3118 ;;		_USBCtrlEPService
  3119 ;;		_USBStallHandler
  3120 ;;		_USBSuspend
  3121 ;;		_USBWakeFromSuspend
  3122 ;;		_USER_USB_CALLBACK_EVENT_HANDLER
  3123 ;;		i2_USBDeviceInit
  3124 ;; This function is called by:
  3125 ;;		_SYS_InterruptHigh
  3126 ;; This function uses a non-reentrant model
  3127 ;;
  3128                           
  3129                           	psect	text15
  3130  0013DA                     __ptext15:
  3131                           	opt stack 0
  3132  0013DA                     _USBDeviceTasks:
  3133                           	opt stack 17
  3134                           
  3135                           ;usb_device.c: 491: uint8_t i;
  3136                           ;usb_device.c: 602: if(USBDeviceState == ATTACHED_STATE)
  3137                           
  3138                           ;incstack = 0
  3139  0013DA  0450               	decf	_USBDeviceState,w,c	;volatile
  3140  0013DC  B4D8               	btfsc	status,2,c
  3141                           
  3142                           ;usb_device.c: 603: {
  3143                           ;usb_device.c: 613: if(!UCONbits.SE0)
  3144  0013DE  BA65               	btfsc	3941,5,c	;volatile
  3145  0013E0  D009               	goto	i2l4100
  3146                           
  3147                           ;usb_device.c: 614: {
  3148                           ;usb_device.c: 615: {UIR = 0;};
  3149  0013E2  0E00               	movlw	0
  3150  0013E4  6E62               	movwf	3938,c	;volatile
  3151                           
  3152                           ;usb_device.c: 619: UIEbits.URSTIE = 1;
  3153  0013E6  010F               	movlb	15	; () banked
  3154  0013E8  8136               	bsf	54,0,b	;volatile
  3155                           
  3156                           ; BSR set to: 15
  3157                           ;usb_device.c: 620: UIEbits.IDLEIE = 1;
  3158  0013EA  010F               	movlb	15	; () banked
  3159  0013EC  8936               	bsf	54,4,b	;volatile
  3160                           
  3161                           ;usb_device.c: 621: USBDeviceState = POWERED_STATE;
  3162  0013EE  0E02               	movlw	2
  3163  0013F0  6E50               	movwf	_USBDeviceState,c	;volatile
  3164                           
  3165                           ; BSR set to: 15
  3166  0013F2  D000               	goto	i2l4100
  3167  0013F4                     i2l4100:
  3168                           
  3169                           ;usb_device.c: 622: }
  3170                           ;usb_device.c: 623: }
  3171                           ;usb_device.c: 639: if(UIRbits.ACTVIF && UIEbits.ACTVIE)
  3172  0013F4  A462               	btfss	3938,2,c	;volatile
  3173  0013F6  D007               	goto	i2l4108
  3174  0013F8  010F               	movlb	15	; () banked
  3175  0013FA  A536               	btfss	54,2,b	;volatile
  3176  0013FC  D004               	goto	i2l4108
  3177                           
  3178                           ; BSR set to: 15
  3179                           ;usb_device.c: 640: {
  3180                           ;usb_device.c: 641: (UIR &= 0xFB);
  3181  0013FE  9462               	bcf	3938,2,c	;volatile
  3182                           
  3183                           ; BSR set to: 15
  3184                           ;usb_device.c: 645: USBWakeFromSuspend();
  3185  001400  ECAA  F015         	call	_USBWakeFromSuspend	;wreg free
  3186  001404  D000               	goto	i2l4108
  3187  001406                     i2l4108:
  3188                           
  3189                           ;usb_device.c: 647: }
  3190                           ;usb_device.c: 652: if(UCONbits.SUSPND==1)
  3191  001406  A265               	btfss	3941,1,c	;volatile
  3192  001408  D002               	goto	i2l463
  3193                           
  3194                           ;usb_device.c: 653: {
  3195                           ;usb_device.c: 654: {PIR2bits.USBIF = 0;};
  3196  00140A  98A1               	bcf	4001,4,c	;volatile
  3197                           
  3198                           ;usb_device.c: 655: return;
  3199  00140C  0012               	return	
  3200  00140E                     i2l463:
  3201                           
  3202                           ;usb_device.c: 656: }
  3203                           ;usb_device.c: 668: if(UIRbits.URSTIF && UIEbits.URSTIE)
  3204  00140E  A062               	btfss	3938,0,c	;volatile
  3205  001410  D00A               	goto	i2l4122
  3206  001412  010F               	movlb	15	; () banked
  3207  001414  A136               	btfss	54,0,b	;volatile
  3208  001416  D007               	goto	i2l4122
  3209                           
  3210                           ; BSR set to: 15
  3211                           ;usb_device.c: 669: {
  3212                           ;usb_device.c: 670: USBDeviceInit();
  3213  001418  EC42  F00B         	call	i2_USBDeviceInit	;wreg free
  3214                           
  3215                           ;usb_device.c: 674: {PIE2bits.USBIE = 1;};
  3216  00141C  88A0               	bsf	4000,4,c	;volatile
  3217                           
  3218                           ;usb_device.c: 676: USBDeviceState = DEFAULT_STATE;
  3219  00141E  0E04               	movlw	4
  3220  001420  6E50               	movwf	_USBDeviceState,c	;volatile
  3221                           
  3222                           ;usb_device.c: 686: (UIR &= 0xFE);
  3223  001422  9062               	bcf	3938,0,c	;volatile
  3224  001424  D000               	goto	i2l4122
  3225  001426                     i2l4122:
  3226                           
  3227                           ;usb_device.c: 687: }
  3228                           ;usb_device.c: 692: if(UIRbits.IDLEIF && UIEbits.IDLEIE)
  3229  001426  A862               	btfss	3938,4,c	;volatile
  3230  001428  D007               	goto	i2l4130
  3231  00142A  010F               	movlb	15	; () banked
  3232  00142C  A936               	btfss	54,4,b	;volatile
  3233  00142E  D004               	goto	i2l4130
  3234                           
  3235                           ; BSR set to: 15
  3236                           ;usb_device.c: 693: {
  3237                           ;usb_device.c: 698: USBSuspend();
  3238  001430  ECDB  F015         	call	_USBSuspend	;wreg free
  3239                           
  3240                           ;usb_device.c: 701: (UIR &= 0xEF);
  3241  001434  9862               	bcf	3938,4,c	;volatile
  3242  001436  D000               	goto	i2l4130
  3243  001438                     i2l4130:
  3244                           
  3245                           ;usb_device.c: 702: }
  3246                           ;usb_device.c: 704: if(UIRbits.SOFIF)
  3247  001438  AC62               	btfss	3938,6,c	;volatile
  3248  00143A  D01E               	goto	i2l4146
  3249                           
  3250                           ;usb_device.c: 705: {
  3251                           ;usb_device.c: 706: if(UIEbits.SOFIE)
  3252  00143C  010F               	movlb	15	; () banked
  3253  00143E  AD36               	btfss	54,6,b	;volatile
  3254  001440  D00F               	goto	i2l4136
  3255                           
  3256                           ; BSR set to: 15
  3257                           ;usb_device.c: 707: {
  3258                           ;usb_device.c: 708: USER_USB_CALLBACK_EVENT_HANDLER(EVENT_SOF,0,1);
  3259  001442  0E00               	movlw	0
  3260  001444  6E0F               	movwf	USER_USB_CALLBACK_EVENT_HANDLER@event+1,c
  3261  001446  0E73               	movlw	115
  3262  001448  6E0E               	movwf	USER_USB_CALLBACK_EVENT_HANDLER@event,c
  3263  00144A  0E00               	movlw	0
  3264  00144C  6E10               	movwf	USER_USB_CALLBACK_EVENT_HANDLER@pdata,c
  3265  00144E  0E00               	movlw	0
  3266  001450  6E11               	movwf	USER_USB_CALLBACK_EVENT_HANDLER@pdata+1,c
  3267  001452  0E00               	movlw	0
  3268  001454  6E13               	movwf	USER_USB_CALLBACK_EVENT_HANDLER@size+1,c
  3269  001456  0E01               	movlw	1
  3270  001458  6E12               	movwf	USER_USB_CALLBACK_EVENT_HANDLER@size,c
  3271  00145A  EC2C  F014         	call	_USER_USB_CALLBACK_EVENT_HANDLER	;wreg free
  3272  00145E  D000               	goto	i2l4136
  3273  001460                     i2l4136:
  3274                           
  3275                           ;usb_device.c: 709: }
  3276                           ;usb_device.c: 710: (UIR &= 0xBF);
  3277  001460  9C62               	bcf	3938,6,c	;volatile
  3278                           
  3279                           ;usb_device.c: 735: if(USBStatusStageTimeoutCounter != 0u)
  3280  001462  5053               	movf	_USBStatusStageTimeoutCounter,w,c	;volatile
  3281  001464  B4D8               	btfsc	status,2,c
  3282  001466  D002               	goto	i2l4142
  3283                           
  3284                           ;usb_device.c: 736: {
  3285                           ;usb_device.c: 737: USBStatusStageTimeoutCounter--;
  3286  001468  0653               	decf	_USBStatusStageTimeoutCounter,f,c	;volatile
  3287  00146A  D000               	goto	i2l4142
  3288  00146C                     i2l4142:
  3289                           
  3290                           ;usb_device.c: 738: }
  3291                           ;usb_device.c: 744: if(USBStatusStageTimeoutCounter == 0)
  3292  00146C  5053               	movf	_USBStatusStageTimeoutCounter,w,c	;volatile
  3293  00146E  A4D8               	btfss	status,2,c
  3294  001470  D003               	goto	i2l4146
  3295                           
  3296                           ;usb_device.c: 745: {
  3297                           ;usb_device.c: 746: USBCtrlEPAllowStatusStage();
  3298  001472  EC0E  F011         	call	_USBCtrlEPAllowStatusStage	;wreg free
  3299  001476  D000               	goto	i2l4146
  3300  001478                     i2l4146:
  3301                           
  3302                           ;usb_device.c: 747: }
  3303                           ;usb_device.c: 749: }
  3304                           ;usb_device.c: 751: if(UIRbits.STALLIF && UIEbits.STALLIE)
  3305  001478  AA62               	btfss	3938,5,c	;volatile
  3306  00147A  D006               	goto	i2l4152
  3307  00147C  010F               	movlb	15	; () banked
  3308  00147E  AB36               	btfss	54,5,b	;volatile
  3309  001480  D003               	goto	i2l4152
  3310                           
  3311                           ; BSR set to: 15
  3312                           ;usb_device.c: 752: {
  3313                           ;usb_device.c: 753: USBStallHandler();
  3314  001482  EC2F  F015         	call	_USBStallHandler	;wreg free
  3315  001486  D000               	goto	i2l4152
  3316  001488                     i2l4152:
  3317                           
  3318                           ;usb_device.c: 754: }
  3319                           ;usb_device.c: 756: if(UIRbits.UERRIF && UIEbits.UERRIE)
  3320  001488  A262               	btfss	3938,1,c	;volatile
  3321  00148A  D013               	goto	i2l4160
  3322  00148C  010F               	movlb	15	; () banked
  3323  00148E  A336               	btfss	54,1,b	;volatile
  3324  001490  D010               	goto	i2l4160
  3325                           
  3326                           ; BSR set to: 15
  3327                           ;usb_device.c: 757: {
  3328                           ;usb_device.c: 758: USER_USB_CALLBACK_EVENT_HANDLER(EVENT_BUS_ERROR,0,1);
  3329  001492  0E7F               	movlw	127
  3330  001494  6E0F               	movwf	USER_USB_CALLBACK_EVENT_HANDLER@event+1,c
  3331  001496  680E               	setf	USER_USB_CALLBACK_EVENT_HANDLER@event,c
  3332  001498  0E00               	movlw	0
  3333  00149A  6E10               	movwf	USER_USB_CALLBACK_EVENT_HANDLER@pdata,c
  3334  00149C  0E00               	movlw	0
  3335  00149E  6E11               	movwf	USER_USB_CALLBACK_EVENT_HANDLER@pdata+1,c
  3336  0014A0  0E00               	movlw	0
  3337  0014A2  6E13               	movwf	USER_USB_CALLBACK_EVENT_HANDLER@size+1,c
  3338  0014A4  0E01               	movlw	1
  3339  0014A6  6E12               	movwf	USER_USB_CALLBACK_EVENT_HANDLER@size,c
  3340  0014A8  EC2C  F014         	call	_USER_USB_CALLBACK_EVENT_HANDLER	;wreg free
  3341                           
  3342                           ;usb_device.c: 759: {UEIR = 0;};
  3343  0014AC  0E00               	movlw	0
  3344  0014AE  6E63               	movwf	3939,c	;volatile
  3345  0014B0  D000               	goto	i2l4160
  3346  0014B2                     i2l4160:
  3347                           
  3348                           ;usb_device.c: 767: }
  3349                           ;usb_device.c: 774: if(USBDeviceState < DEFAULT_STATE)
  3350  0014B2  0E04               	movlw	4
  3351  0014B4  6050               	cpfslt	_USBDeviceState,c	;volatile
  3352  0014B6  D002               	goto	i2l473
  3353                           
  3354                           ;usb_device.c: 775: {
  3355                           ;usb_device.c: 776: {PIR2bits.USBIF = 0;};
  3356  0014B8  98A1               	bcf	4001,4,c	;volatile
  3357                           
  3358                           ;usb_device.c: 777: return;
  3359  0014BA  0012               	return	
  3360  0014BC                     i2l473:
  3361                           
  3362                           ;usb_device.c: 778: }
  3363                           ;usb_device.c: 783: if(UIEbits.TRNIE)
  3364  0014BC  010F               	movlb	15	; () banked
  3365  0014BE  A736               	btfss	54,3,b	;volatile
  3366  0014C0  D03C               	goto	i2l474
  3367                           
  3368                           ; BSR set to: 15
  3369                           ;usb_device.c: 784: {
  3370                           ;usb_device.c: 785: for(i = 0; i < 4u; i++)
  3371  0014C2  0E00               	movlw	0
  3372  0014C4  6E1F               	movwf	USBDeviceTasks@i,c
  3373  0014C6                     i2l4166:
  3374                           
  3375                           ; BSR set to: 15
  3376  0014C6  0E03               	movlw	3
  3377  0014C8  641F               	cpfsgt	USBDeviceTasks@i,c
  3378  0014CA  D001               	goto	i2l475
  3379                           
  3380                           ; BSR set to: 15
  3381  0014CC  D036               	goto	i2l474
  3382  0014CE                     i2l475:
  3383                           
  3384                           ;usb_device.c: 786: {
  3385                           ;usb_device.c: 787: if(UIRbits.TRNIF)
  3386  0014CE  A662               	btfss	3938,3,c	;volatile
  3387  0014D0  D034               	goto	i2l474
  3388                           
  3389                           ;usb_device.c: 788: {
  3390                           ;usb_device.c: 790: USTATcopy.Val = USTAT;
  3391  0014D2  CF64 F05F          	movff	3940,_USTATcopy	;volatile
  3392                           
  3393                           ;usb_device.c: 791: endpoint_number = USTATcopy.endpoint_number;
  3394  0014D6  305F               	rrcf	_USTATcopy,w,c	;volatile
  3395  0014D8  32E8               	rrcf	wreg,f,c
  3396  0014DA  32E8               	rrcf	wreg,f,c
  3397  0014DC  0B0F               	andlw	15
  3398  0014DE  6E56               	movwf	_endpoint_number,c	;volatile
  3399                           
  3400                           ;usb_device.c: 793: (UIR &= 0xF7);
  3401  0014E0  9662               	bcf	3938,3,c	;volatile
  3402                           
  3403                           ;usb_device.c: 798: if(USTATcopy.direction == 0)
  3404  0014E2  B45F               	btfsc	_USTATcopy,2,c	;volatile
  3405  0014E4  D007               	goto	i2l4180
  3406                           
  3407                           ;usb_device.c: 799: {
  3408                           ;usb_device.c: 800: ep_data_out[endpoint_number].bits.ping_pong_state ^= 1;
  3409  0014E6  5056               	movf	_endpoint_number,w,c	;volatile
  3410  0014E8  0D01               	mullw	1
  3411  0014EA  0E6D               	movlw	low _ep_data_out
  3412  0014EC  24F3               	addwf	prodl,w,c
  3413  0014EE  6ED9               	movwf	fsr2l,c
  3414  0014F0  0E00               	movlw	high _ep_data_out
  3415  0014F2  D006               	goto	L4
  3416  0014F4                     i2l4180:
  3417                           
  3418                           ;usb_device.c: 802: else
  3419                           ;usb_device.c: 803: {
  3420                           ;usb_device.c: 804: ep_data_in[endpoint_number].bits.ping_pong_state ^= 1;
  3421  0014F4  5056               	movf	_endpoint_number,w,c	;volatile
  3422  0014F6  0D01               	mullw	1
  3423  0014F8  0E6A               	movlw	low _ep_data_in
  3424  0014FA  24F3               	addwf	prodl,w,c
  3425  0014FC  6ED9               	movwf	fsr2l,c
  3426  0014FE  0E00               	movlw	high _ep_data_in
  3427  001500                     L4:
  3428  001500  20F4               	addwfc	prodh,w,c
  3429  001502  6EDA               	movwf	fsr2h,c
  3430  001504  0100               	movlb	0	; () banked
  3431  001506  70DF               	btg	indf2,0,c
  3432  001508  D000               	goto	i2l4182
  3433  00150A                     i2l4182:
  3434                           
  3435                           ; BSR set to: 0
  3436                           ;usb_device.c: 805: }
  3437                           ;usb_device.c: 810: if(endpoint_number == 0)
  3438  00150A  5056               	movf	_endpoint_number,w,c	;volatile
  3439  00150C  A4D8               	btfss	status,2,c
  3440  00150E  D003               	goto	i2l4186
  3441                           
  3442                           ; BSR set to: 0
  3443                           ;usb_device.c: 811: {
  3444                           ;usb_device.c: 812: USBCtrlEPService();
  3445  001510  ECA6  F010         	call	_USBCtrlEPService	;wreg free
  3446                           
  3447                           ;usb_device.c: 813: }
  3448  001514  D010               	goto	i2l4188
  3449  001516                     i2l4186:
  3450                           
  3451                           ;usb_device.c: 814: else
  3452                           ;usb_device.c: 815: {
  3453                           ;usb_device.c: 816: USER_USB_CALLBACK_EVENT_HANDLER(EVENT_TRANSFER,(uint8_t*)&USTATcopy.
      +                          Val,0);
  3454  001516  0E00               	movlw	0
  3455  001518  6E0F               	movwf	USER_USB_CALLBACK_EVENT_HANDLER@event+1,c
  3456  00151A  0E72               	movlw	114
  3457  00151C  6E0E               	movwf	USER_USB_CALLBACK_EVENT_HANDLER@event,c
  3458  00151E  0E5F               	movlw	low _USTATcopy
  3459  001520  6E10               	movwf	USER_USB_CALLBACK_EVENT_HANDLER@pdata,c
  3460  001522  0E00               	movlw	high _USTATcopy
  3461  001524  6E11               	movwf	USER_USB_CALLBACK_EVENT_HANDLER@pdata+1,c
  3462  001526  0E00               	movlw	0
  3463  001528  6E13               	movwf	USER_USB_CALLBACK_EVENT_HANDLER@size+1,c
  3464  00152A  0E00               	movlw	0
  3465  00152C  6E12               	movwf	USER_USB_CALLBACK_EVENT_HANDLER@size,c
  3466  00152E  EC2C  F014         	call	_USER_USB_CALLBACK_EVENT_HANDLER	;wreg free
  3467                           
  3468                           ;usb_device.c: 817: }
  3469                           ;usb_device.c: 818: }
  3470  001532  D001               	goto	i2l4188
  3471                           
  3472                           ;usb_device.c: 819: else
  3473                           ;usb_device.c: 820: {
  3474                           ;usb_device.c: 821: break;
  3475  001534  D002               	goto	i2l474
  3476  001536                     i2l4188:
  3477  001536  2A1F               	incf	USBDeviceTasks@i,f,c
  3478  001538  D7C6               	goto	i2l4166
  3479  00153A                     i2l474:
  3480                           
  3481                           ;usb_device.c: 822: }
  3482                           ;usb_device.c: 823: }
  3483                           ;usb_device.c: 824: }
  3484                           ;usb_device.c: 826: {PIR2bits.USBIF = 0;};
  3485  00153A  98A1               	bcf	4001,4,c	;volatile
  3486  00153C  0012               	return		;funcret
  3487  00153E                     __end_of_USBDeviceTasks:
  3488                           	opt stack 0
  3489                           pclatu	equ	0xFFB
  3490                           pclath	equ	0xFFA
  3491                           tblptru	equ	0xFF8
  3492                           tblptrh	equ	0xFF7
  3493                           tblptrl	equ	0xFF6
  3494                           tablat	equ	0xFF5
  3495                           prodh	equ	0xFF4
  3496                           prodl	equ	0xFF3
  3497                           intcon	equ	0xFF2
  3498                           postinc0	equ	0xFEE
  3499                           fsr0h	equ	0xFEA
  3500                           fsr0l	equ	0xFE9
  3501                           wreg	equ	0xFE8
  3502                           indf1	equ	0xFE7
  3503                           fsr1h	equ	0xFE2
  3504                           fsr1l	equ	0xFE1
  3505                           indf2	equ	0xFDF
  3506                           postinc2	equ	0xFDE
  3507                           postdec2	equ	0xFDD
  3508                           plusw2	equ	0xFDB
  3509                           fsr2h	equ	0xFDA
  3510                           fsr2l	equ	0xFD9
  3511                           status	equ	0xFD8
  3512                           
  3513 ;; *************** function i2_USBDeviceInit *****************
  3514 ;; Defined at:
  3515 ;;		line 298 in file "../../../../../../framework/usb/src/usb_device.c"
  3516 ;; Parameters:    Size  Location     Type
  3517 ;;		None
  3518 ;; Auto vars:     Size  Location     Type
  3519 ;;  USBDeviceIni    1    8[COMRAM] unsigned char 
  3520 ;; Return value:  Size  Location     Type
  3521 ;;		None               void
  3522 ;; Registers used:
  3523 ;;		wreg, fsr2l, fsr2h, status,2, status,0, prodl, prodh, cstack
  3524 ;; Tracked objects:
  3525 ;;		On entry : 0/0
  3526 ;;		On exit  : 0/0
  3527 ;;		Unchanged: 0/0
  3528 ;; Data sizes:     COMRAM   BANK0   BANK1   BANK2   BANK3   BANK4   BANK5   BANK6   BANK7   BANK8   BANK9  BANK10  BANK1
      +1  BANK12  BANK13  BANK14
  3529 ;;      Params:         0       0       0       0       0       0       0       0       0       0       0       0       
      +0       0       0       0
  3530 ;;      Locals:         1       0       0       0       0       0       0       0       0       0       0       0       
      +0       0       0       0
  3531 ;;      Temps:          0       0       0       0       0       0       0       0       0       0       0       0       
      +0       0       0       0
  3532 ;;      Totals:         1       0       0       0       0       0       0       0       0       0       0       0       
      +0       0       0       0
  3533 ;;Total ram usage:        1 bytes
  3534 ;; Hardware stack levels used:    1
  3535 ;; Hardware stack levels required when called:    1
  3536 ;; This function calls:
  3537 ;;		i2_memset
  3538 ;; This function is called by:
  3539 ;;		_USBDeviceTasks
  3540 ;; This function uses a non-reentrant model
  3541 ;;
  3542                           
  3543                           	psect	text16
  3544  001684                     __ptext16:
  3545                           	opt stack 0
  3546  001684                     i2_USBDeviceInit:
  3547                           	opt stack 24
  3548                           
  3549                           ;usb_device.c: 300: uint8_t i;
  3550                           ;usb_device.c: 302: {PIE2bits.USBIE = 0;};
  3551                           
  3552                           ;incstack = 0
  3553  001684  98A0               	bcf	4000,4,c	;volatile
  3554                           
  3555                           ;usb_device.c: 305: {UEIR = 0;};
  3556  001686  0E00               	movlw	0
  3557  001688  6E63               	movwf	3939,c	;volatile
  3558                           
  3559                           ;usb_device.c: 308: {UIR = 0;};
  3560  00168A  0E00               	movlw	0
  3561  00168C  6E62               	movwf	3938,c	;volatile
  3562                           
  3563                           ;usb_device.c: 311: UEP0 = 0;
  3564  00168E  0E00               	movlw	0
  3565  001690  010F               	movlb	15	; () banked
  3566  001692  6F26               	movwf	38,b	;volatile
  3567                           
  3568                           ; BSR set to: 15
  3569                           ;usb_device.c: 313: memset((void*)&UEP1,0x00,(2));;
  3570  001694  0E27               	movlw	39
  3571  001696  6E01               	movwf	i2memset@p1,c
  3572  001698  0E0F               	movlw	15
  3573  00169A  6E02               	movwf	i2memset@p1+1,c
  3574  00169C  0E00               	movlw	0
  3575  00169E  6E04               	movwf	i2memset@c+1,c
  3576  0016A0  0E00               	movlw	0
  3577  0016A2  6E03               	movwf	i2memset@c,c
  3578  0016A4  0E00               	movlw	0
  3579  0016A6  6E06               	movwf	i2memset@n+1,c
  3580  0016A8  0E02               	movlw	2
  3581  0016AA  6E05               	movwf	i2memset@n,c
  3582  0016AC  ECC4  F015         	call	i2_memset	;wreg free
  3583                           
  3584                           ;usb_device.c: 315: { UCFG = 0x10 | 0x00 | 0x04 | 0x02; UEIE = 0x9F; UIE = 0x39 | 0x40 |
      +                           0x02; };
  3585  0016B0  0E16               	movlw	22
  3586  0016B2  010F               	movlb	15	; () banked
  3587  0016B4  6F39               	movwf	57,b	;volatile
  3588                           
  3589                           ; BSR set to: 15
  3590  0016B6  0E9F               	movlw	159
  3591  0016B8  010F               	movlb	15	; () banked
  3592  0016BA  6F37               	movwf	55,b	;volatile
  3593                           
  3594                           ; BSR set to: 15
  3595  0016BC  0E7B               	movlw	123
  3596  0016BE  010F               	movlb	15	; () banked
  3597  0016C0  6F36               	movwf	54,b	;volatile
  3598                           
  3599                           ; BSR set to: 15
  3600                           ;usb_device.c: 318: ;
  3601                           ;usb_device.c: 321: ;
  3602                           ;usb_device.c: 324: for(i=0;i<(sizeof(BDT)/sizeof(BDT_ENTRY));i++)
  3603  0016C2  0E00               	movlw	0
  3604  0016C4  6E09               	movwf	i2USBDeviceInit@i,c
  3605  0016C6  D00E               	goto	i2l4026
  3606                           
  3607                           ; BSR set to: 15
  3608                           
  3609                           ; BSR set to: 15
  3610  0016C8  D010               	goto	i2l451
  3611  0016CA                     i2l4022:
  3612                           
  3613                           ;usb_device.c: 325: {
  3614                           ;usb_device.c: 326: BDT[i].Val = 0x00;
  3615  0016CA  5009               	movf	i2USBDeviceInit@i,w,c
  3616  0016CC  0D04               	mullw	4
  3617  0016CE  0E00               	movlw	0
  3618  0016D0  24F3               	addwf	prodl,w,c
  3619  0016D2  6ED9               	movwf	fsr2l,c
  3620  0016D4  0E0D               	movlw	13
  3621  0016D6  20F4               	addwfc	prodh,w,c
  3622  0016D8  6EDA               	movwf	fsr2h,c
  3623  0016DA  6ADE               	clrf	postinc2,c
  3624  0016DC  6ADE               	clrf	postinc2,c
  3625  0016DE  6ADE               	clrf	postinc2,c
  3626  0016E0  6ADD               	clrf	postdec2,c
  3627  0016E2  2A09               	incf	i2USBDeviceInit@i,f,c
  3628  0016E4                     i2l4026:
  3629  0016E4  0E0B               	movlw	11
  3630  0016E6  6409               	cpfsgt	i2USBDeviceInit@i,c
  3631  0016E8  D7F0               	goto	i2l4022
  3632  0016EA                     i2l451:
  3633                           
  3634                           ;usb_device.c: 327: }
  3635                           ;usb_device.c: 330: UCONbits.PPBRST = 1;
  3636  0016EA  8C65               	bsf	3941,6,c	;volatile
  3637                           
  3638                           ;usb_device.c: 333: UADDR = 0x00;
  3639  0016EC  0E00               	movlw	0
  3640  0016EE  010F               	movlb	15	; () banked
  3641  0016F0  6F38               	movwf	56,b	;volatile
  3642                           
  3643                           ; BSR set to: 15
  3644                           ;usb_device.c: 336: UCONbits.PKTDIS = 0;
  3645  0016F2  9865               	bcf	3941,4,c	;volatile
  3646                           
  3647                           ; BSR set to: 15
  3648                           ;usb_device.c: 339: UCONbits.PPBRST = 0;
  3649  0016F4  9C65               	bcf	3941,6,c	;volatile
  3650                           
  3651                           ;usb_device.c: 342: while(UIRbits.TRNIF == 1)
  3652  0016F6  D00A               	goto	i2l4042
  3653  0016F8                     i2l4034:
  3654                           
  3655                           ;usb_device.c: 343: {
  3656                           ;usb_device.c: 344: (UIR &= 0xF7);
  3657  0016F8  9662               	bcf	3938,3,c	;volatile
  3658                           
  3659                           ;usb_device.c: 346: inPipes[0].info.Val = 0;
  3660  0016FA  0E00               	movlw	0
  3661  0016FC  6E5B               	movwf	_inPipes+3,c	;volatile
  3662                           
  3663                           ;usb_device.c: 347: outPipes[0].info.Val = 0;
  3664  0016FE  0E00               	movlw	0
  3665  001700  6E36               	movwf	_outPipes+3,c	;volatile
  3666                           
  3667                           ;usb_device.c: 348: outPipes[0].wCount.Val = 0;
  3668  001702  0E00               	movlw	0
  3669  001704  6E38               	movwf	_outPipes+5,c	;volatile
  3670  001706  0E00               	movlw	0
  3671  001708  6E37               	movwf	_outPipes+4,c	;volatile
  3672  00170A  D000               	goto	i2l4042
  3673  00170C                     i2l4042:
  3674  00170C  B662               	btfsc	3938,3,c	;volatile
  3675  00170E  D7F4               	goto	i2l4034
  3676                           
  3677                           ;usb_device.c: 349: }
  3678                           ;usb_device.c: 353: USBStatusStageEnabledFlag1 = 1;
  3679  001710  0E01               	movlw	1
  3680  001712  6E51               	movwf	_USBStatusStageEnabledFlag1,c	;volatile
  3681                           
  3682                           ;usb_device.c: 354: USBStatusStageEnabledFlag2 = 1;
  3683  001714  0E01               	movlw	1
  3684  001716  6E52               	movwf	_USBStatusStageEnabledFlag2,c	;volatile
  3685                           
  3686                           ;usb_device.c: 356: USBDeferINDataStagePackets = 0;
  3687  001718  0E00               	movlw	0
  3688  00171A  6E4E               	movwf	_USBDeferINDataStagePackets,c	;volatile
  3689                           
  3690                           ;usb_device.c: 357: USBDeferOUTDataStagePackets = 0;
  3691  00171C  0E00               	movlw	0
  3692  00171E  0100               	movlb	0	; () banked
  3693  001720  6F7F               	movwf	_USBDeferOUTDataStagePackets& (0+255),b	;volatile
  3694                           
  3695                           ;usb_device.c: 358: USBBusIsSuspended = 0;
  3696  001722  0E00               	movlw	0
  3697  001724  0100               	movlb	0	; () banked
  3698  001726  6F7E               	movwf	_USBBusIsSuspended& (0+255),b	;volatile
  3699                           
  3700                           ;usb_device.c: 362: for(i = 0; i < (uint8_t)(2+1u); i++)
  3701  001728  0E00               	movlw	0
  3702  00172A  6E09               	movwf	i2USBDeviceInit@i,c
  3703  00172C                     i2l4046:
  3704                           
  3705                           ; BSR set to: 0
  3706  00172C  0E02               	movlw	2
  3707  00172E  6409               	cpfsgt	i2USBDeviceInit@i,c
  3708  001730  D001               	goto	i2l4050
  3709                           
  3710                           ; BSR set to: 0
  3711  001732  D02E               	goto	i2l4056
  3712  001734                     i2l4050:
  3713                           
  3714                           ;usb_device.c: 363: {
  3715                           ;usb_device.c: 364: pBDTEntryIn[i] = 0u;
  3716  001734  5009               	movf	i2USBDeviceInit@i,w,c
  3717  001736  0D02               	mullw	2
  3718  001738  0E3C               	movlw	low _pBDTEntryIn
  3719  00173A  24F3               	addwf	prodl,w,c
  3720  00173C  6ED9               	movwf	fsr2l,c
  3721  00173E  0E00               	movlw	high _pBDTEntryIn
  3722  001740  20F4               	addwfc	prodh,w,c
  3723  001742  6EDA               	movwf	fsr2h,c
  3724  001744  0E00               	movlw	0
  3725  001746  6EDE               	movwf	postinc2,c
  3726  001748  0E00               	movlw	0
  3727  00174A  6EDD               	movwf	postdec2,c
  3728                           
  3729                           ;usb_device.c: 365: pBDTEntryOut[i] = 0u;
  3730  00174C  5009               	movf	i2USBDeviceInit@i,w,c
  3731  00174E  0D02               	mullw	2
  3732  001750  0E60               	movlw	low _pBDTEntryOut
  3733  001752  24F3               	addwf	prodl,w,c
  3734  001754  6ED9               	movwf	fsr2l,c
  3735  001756  0E00               	movlw	high _pBDTEntryOut
  3736  001758  20F4               	addwfc	prodh,w,c
  3737  00175A  6EDA               	movwf	fsr2h,c
  3738  00175C  0E00               	movlw	0
  3739  00175E  6EDE               	movwf	postinc2,c
  3740  001760  0E00               	movlw	0
  3741  001762  6EDD               	movwf	postdec2,c
  3742                           
  3743                           ;usb_device.c: 366: ep_data_in[i].Val = 0u;
  3744  001764  5009               	movf	i2USBDeviceInit@i,w,c
  3745  001766  0D01               	mullw	1
  3746  001768  0E6A               	movlw	low _ep_data_in
  3747  00176A  24F3               	addwf	prodl,w,c
  3748  00176C  6ED9               	movwf	fsr2l,c
  3749  00176E  0E00               	movlw	high _ep_data_in
  3750  001770  20F4               	addwfc	prodh,w,c
  3751  001772  6EDA               	movwf	fsr2h,c
  3752  001774  0E00               	movlw	0
  3753  001776  6EDF               	movwf	indf2,c
  3754                           
  3755                           ;usb_device.c: 367: ep_data_out[i].Val = 0u;
  3756  001778  5009               	movf	i2USBDeviceInit@i,w,c
  3757  00177A  0D01               	mullw	1
  3758  00177C  0E6D               	movlw	low _ep_data_out
  3759  00177E  24F3               	addwf	prodl,w,c
  3760  001780  6ED9               	movwf	fsr2l,c
  3761  001782  0E00               	movlw	high _ep_data_out
  3762  001784  20F4               	addwfc	prodh,w,c
  3763  001786  6EDA               	movwf	fsr2h,c
  3764  001788  0E00               	movlw	0
  3765  00178A  6EDF               	movwf	indf2,c
  3766  00178C  2A09               	incf	i2USBDeviceInit@i,f,c
  3767  00178E  D7CE               	goto	i2l4046
  3768  001790                     i2l4056:
  3769                           
  3770                           ;usb_device.c: 368: }
  3771                           ;usb_device.c: 371: pBDTEntryIn[0] = (volatile BDT_ENTRY*)&BDT[2];
  3772  001790  0E08               	movlw	8
  3773  001792  6E3C               	movwf	_pBDTEntryIn,c
  3774  001794  0E0D               	movlw	13
  3775  001796  6E3D               	movwf	_pBDTEntryIn+1,c
  3776                           
  3777                           ;usb_device.c: 373: UEP0 = 0x06|0x10;
  3778  001798  0E16               	movlw	22
  3779  00179A  010F               	movlb	15	; () banked
  3780  00179C  6F26               	movwf	38,b	;volatile
  3781                           
  3782                           ; BSR set to: 15
  3783                           ;usb_device.c: 375: BDT[0].ADR = ((uint16_t)(&SetupPkt));
  3784  00179E  0E0D               	movlw	13
  3785  0017A0  010D               	movlb	13	; () banked
  3786  0017A2  6F03               	movwf	3,b	;volatile
  3787  0017A4  0E30               	movlw	48
  3788  0017A6  6F02               	movwf	2,b	;volatile
  3789                           
  3790                           ; BSR set to: 13
  3791                           ;usb_device.c: 376: BDT[0].CNT = 8;
  3792  0017A8  0E08               	movlw	8
  3793  0017AA  010D               	movlb	13	; () banked
  3794  0017AC  6F01               	movwf	1,b	;volatile
  3795                           
  3796                           ; BSR set to: 13
  3797                           ;usb_device.c: 377: BDT[0].STAT.Val = 0x00|0x04;
  3798  0017AE  0E04               	movlw	4
  3799  0017B0  010D               	movlb	13	; () banked
  3800  0017B2  6F00               	movwf	0,b	;volatile
  3801                           
  3802                           ; BSR set to: 13
  3803                           ;usb_device.c: 378: BDT[0].STAT.Val |= 0x80;
  3804  0017B4  010D               	movlb	13	; () banked
  3805  0017B6  8F00               	bsf	0,7,b	;volatile
  3806                           
  3807                           ; BSR set to: 13
  3808                           ;usb_device.c: 381: USBActiveConfiguration = 0;
  3809  0017B8  0E00               	movlw	0
  3810  0017BA  6E5E               	movwf	_USBActiveConfiguration,c	;volatile
  3811                           
  3812                           ; BSR set to: 13
  3813                           ;usb_device.c: 384: USBDeviceState = DETACHED_STATE;
  3814  0017BC  0E00               	movlw	0
  3815  0017BE  6E50               	movwf	_USBDeviceState,c	;volatile
  3816                           
  3817                           ; BSR set to: 13
  3818  0017C0  0012               	return		;funcret
  3819  0017C2                     __end_ofi2_USBDeviceInit:
  3820                           	opt stack 0
  3821                           pclatu	equ	0xFFB
  3822                           pclath	equ	0xFFA
  3823                           tblptru	equ	0xFF8
  3824                           tblptrh	equ	0xFF7
  3825                           tblptrl	equ	0xFF6
  3826                           tablat	equ	0xFF5
  3827                           prodh	equ	0xFF4
  3828                           prodl	equ	0xFF3
  3829                           intcon	equ	0xFF2
  3830                           postinc0	equ	0xFEE
  3831                           fsr0h	equ	0xFEA
  3832                           fsr0l	equ	0xFE9
  3833                           wreg	equ	0xFE8
  3834                           indf1	equ	0xFE7
  3835                           fsr1h	equ	0xFE2
  3836                           fsr1l	equ	0xFE1
  3837                           indf2	equ	0xFDF
  3838                           postinc2	equ	0xFDE
  3839                           postdec2	equ	0xFDD
  3840                           plusw2	equ	0xFDB
  3841                           fsr2h	equ	0xFDA
  3842                           fsr2l	equ	0xFD9
  3843                           status	equ	0xFD8
  3844                           
  3845 ;; *************** function _USBWakeFromSuspend *****************
  3846 ;; Defined at:
  3847 ;;		line 2302 in file "../../../../../../framework/usb/src/usb_device.c"
  3848 ;; Parameters:    Size  Location     Type
  3849 ;;		None
  3850 ;; Auto vars:     Size  Location     Type
  3851 ;;		None
  3852 ;; Return value:  Size  Location     Type
  3853 ;;		None               void
  3854 ;; Registers used:
  3855 ;;		wreg, fsr2l, fsr2h, status,2, status,0, prodl, prodh, cstack
  3856 ;; Tracked objects:
  3857 ;;		On entry : 0/0
  3858 ;;		On exit  : 0/0
  3859 ;;		Unchanged: 0/0
  3860 ;; Data sizes:     COMRAM   BANK0   BANK1   BANK2   BANK3   BANK4   BANK5   BANK6   BANK7   BANK8   BANK9  BANK10  BANK1
      +1  BANK12  BANK13  BANK14
  3861 ;;      Params:         0       0       0       0       0       0       0       0       0       0       0       0       
      +0       0       0       0
  3862 ;;      Locals:         0       0       0       0       0       0       0       0       0       0       0       0       
      +0       0       0       0
  3863 ;;      Temps:          0       0       0       0       0       0       0       0       0       0       0       0       
      +0       0       0       0
  3864 ;;      Totals:         0       0       0       0       0       0       0       0       0       0       0       0       
      +0       0       0       0
  3865 ;;Total ram usage:        0 bytes
  3866 ;; Hardware stack levels used:    1
  3867 ;; Hardware stack levels required when called:    5
  3868 ;; This function calls:
  3869 ;;		_USER_USB_CALLBACK_EVENT_HANDLER
  3870 ;; This function is called by:
  3871 ;;		_USBDeviceTasks
  3872 ;; This function uses a non-reentrant model
  3873 ;;
  3874                           
  3875                           	psect	text17
  3876  002B54                     __ptext17:
  3877                           	opt stack 0
  3878  002B54                     _USBWakeFromSuspend:
  3879                           	opt stack 20
  3880                           
  3881                           ;usb_device.c: 2304: USBBusIsSuspended = 0;
  3882                           
  3883                           ; BSR set to: 13
  3884                           ;incstack = 0
  3885  002B54  0E00               	movlw	0
  3886  002B56  0100               	movlb	0	; () banked
  3887  002B58  6F7E               	movwf	_USBBusIsSuspended& (0+255),b	;volatile
  3888                           
  3889                           ; BSR set to: 0
  3890                           ;usb_device.c: 2310: USER_USB_CALLBACK_EVENT_HANDLER(EVENT_RESUME,0,0);
  3891  002B5A  0E00               	movlw	0
  3892  002B5C  6E0F               	movwf	USER_USB_CALLBACK_EVENT_HANDLER@event+1,c
  3893  002B5E  0E74               	movlw	116
  3894  002B60  6E0E               	movwf	USER_USB_CALLBACK_EVENT_HANDLER@event,c
  3895  002B62  0E00               	movlw	0
  3896  002B64  6E10               	movwf	USER_USB_CALLBACK_EVENT_HANDLER@pdata,c
  3897  002B66  0E00               	movlw	0
  3898  002B68  6E11               	movwf	USER_USB_CALLBACK_EVENT_HANDLER@pdata+1,c
  3899  002B6A  0E00               	movlw	0
  3900  002B6C  6E13               	movwf	USER_USB_CALLBACK_EVENT_HANDLER@size+1,c
  3901  002B6E  0E00               	movlw	0
  3902  002B70  6E12               	movwf	USER_USB_CALLBACK_EVENT_HANDLER@size,c
  3903  002B72  EC2C  F014         	call	_USER_USB_CALLBACK_EVENT_HANDLER	;wreg free
  3904                           
  3905                           ;usb_device.c: 2317: UCONbits.SUSPND = 0;
  3906  002B76  9265               	bcf	3941,1,c	;volatile
  3907                           
  3908                           ;usb_device.c: 2322: UIEbits.ACTVIE = 0;
  3909  002B78  010F               	movlb	15	; () banked
  3910  002B7A  9536               	bcf	54,2,b	;volatile
  3911                           
  3912                           ;usb_device.c: 2340: while(UIRbits.ACTVIF)
  3913  002B7C  D002               	goto	i2l3944
  3914  002B7E                     i2l3942:
  3915                           
  3916                           ;usb_device.c: 2342: {
  3917                           ;usb_device.c: 2343: (UIR &= 0xFB);
  3918  002B7E  9462               	bcf	3938,2,c	;volatile
  3919  002B80  D000               	goto	i2l3944
  3920  002B82                     i2l3944:
  3921  002B82  B462               	btfsc	3938,2,c	;volatile
  3922  002B84  D7FC               	goto	i2l3942
  3923  002B86  0012               	return		;funcret
  3924  002B88                     __end_of_USBWakeFromSuspend:
  3925                           	opt stack 0
  3926                           pclatu	equ	0xFFB
  3927                           pclath	equ	0xFFA
  3928                           tblptru	equ	0xFF8
  3929                           tblptrh	equ	0xFF7
  3930                           tblptrl	equ	0xFF6
  3931                           tablat	equ	0xFF5
  3932                           prodh	equ	0xFF4
  3933                           prodl	equ	0xFF3
  3934                           intcon	equ	0xFF2
  3935                           postinc0	equ	0xFEE
  3936                           fsr0h	equ	0xFEA
  3937                           fsr0l	equ	0xFE9
  3938                           wreg	equ	0xFE8
  3939                           indf1	equ	0xFE7
  3940                           fsr1h	equ	0xFE2
  3941                           fsr1l	equ	0xFE1
  3942                           indf2	equ	0xFDF
  3943                           postinc2	equ	0xFDE
  3944                           postdec2	equ	0xFDD
  3945                           plusw2	equ	0xFDB
  3946                           fsr2h	equ	0xFDA
  3947                           fsr2l	equ	0xFD9
  3948                           status	equ	0xFD8
  3949                           
  3950 ;; *************** function _USBSuspend *****************
  3951 ;; Defined at:
  3952 ;;		line 2245 in file "../../../../../../framework/usb/src/usb_device.c"
  3953 ;; Parameters:    Size  Location     Type
  3954 ;;		None
  3955 ;; Auto vars:     Size  Location     Type
  3956 ;;		None
  3957 ;; Return value:  Size  Location     Type
  3958 ;;		None               void
  3959 ;; Registers used:
  3960 ;;		wreg, fsr2l, fsr2h, status,2, status,0, prodl, prodh, cstack
  3961 ;; Tracked objects:
  3962 ;;		On entry : 0/0
  3963 ;;		On exit  : 0/0
  3964 ;;		Unchanged: 0/0
  3965 ;; Data sizes:     COMRAM   BANK0   BANK1   BANK2   BANK3   BANK4   BANK5   BANK6   BANK7   BANK8   BANK9  BANK10  BANK1
      +1  BANK12  BANK13  BANK14
  3966 ;;      Params:         0       0       0       0       0       0       0       0       0       0       0       0       
      +0       0       0       0
  3967 ;;      Locals:         0       0       0       0       0       0       0       0       0       0       0       0       
      +0       0       0       0
  3968 ;;      Temps:          0       0       0       0       0       0       0       0       0       0       0       0       
      +0       0       0       0
  3969 ;;      Totals:         0       0       0       0       0       0       0       0       0       0       0       0       
      +0       0       0       0
  3970 ;;Total ram usage:        0 bytes
  3971 ;; Hardware stack levels used:    1
  3972 ;; Hardware stack levels required when called:    5
  3973 ;; This function calls:
  3974 ;;		_USER_USB_CALLBACK_EVENT_HANDLER
  3975 ;; This function is called by:
  3976 ;;		_USBDeviceTasks
  3977 ;; This function uses a non-reentrant model
  3978 ;;
  3979                           
  3980                           	psect	text18
  3981  002BB6                     __ptext18:
  3982                           	opt stack 0
  3983  002BB6                     _USBSuspend:
  3984                           	opt stack 20
  3985                           
  3986                           ;usb_device.c: 2270: UIEbits.ACTVIE = 1;
  3987                           
  3988                           ;incstack = 0
  3989  002BB6  010F               	movlb	15	; () banked
  3990  002BB8  8536               	bsf	54,2,b	;volatile
  3991                           
  3992                           ; BSR set to: 15
  3993                           ;usb_device.c: 2271: (UIR &= 0xEF);
  3994  002BBA  9862               	bcf	3938,4,c	;volatile
  3995                           
  3996                           ; BSR set to: 15
  3997                           ;usb_device.c: 2274: UCONbits.SUSPND = 1;
  3998  002BBC  8265               	bsf	3941,1,c	;volatile
  3999                           
  4000                           ; BSR set to: 15
  4001                           ;usb_device.c: 2277: USBBusIsSuspended = 1;
  4002  002BBE  0E01               	movlw	1
  4003  002BC0  0100               	movlb	0	; () banked
  4004  002BC2  6F7E               	movwf	_USBBusIsSuspended& (0+255),b	;volatile
  4005                           
  4006                           ; BSR set to: 0
  4007                           ;usb_device.c: 2284: USER_USB_CALLBACK_EVENT_HANDLER(EVENT_SUSPEND,0,0);
  4008  002BC4  0E00               	movlw	0
  4009  002BC6  6E0F               	movwf	USER_USB_CALLBACK_EVENT_HANDLER@event+1,c
  4010  002BC8  0E75               	movlw	117
  4011  002BCA  6E0E               	movwf	USER_USB_CALLBACK_EVENT_HANDLER@event,c
  4012  002BCC  0E00               	movlw	0
  4013  002BCE  6E10               	movwf	USER_USB_CALLBACK_EVENT_HANDLER@pdata,c
  4014  002BD0  0E00               	movlw	0
  4015  002BD2  6E11               	movwf	USER_USB_CALLBACK_EVENT_HANDLER@pdata+1,c
  4016  002BD4  0E00               	movlw	0
  4017  002BD6  6E13               	movwf	USER_USB_CALLBACK_EVENT_HANDLER@size+1,c
  4018  002BD8  0E00               	movlw	0
  4019  002BDA  6E12               	movwf	USER_USB_CALLBACK_EVENT_HANDLER@size,c
  4020  002BDC  EC2C  F014         	call	_USER_USB_CALLBACK_EVENT_HANDLER	;wreg free
  4021  002BE0  0012               	return		;funcret
  4022  002BE2                     __end_of_USBSuspend:
  4023                           	opt stack 0
  4024                           pclatu	equ	0xFFB
  4025                           pclath	equ	0xFFA
  4026                           tblptru	equ	0xFF8
  4027                           tblptrh	equ	0xFF7
  4028                           tblptrl	equ	0xFF6
  4029                           tablat	equ	0xFF5
  4030                           prodh	equ	0xFF4
  4031                           prodl	equ	0xFF3
  4032                           intcon	equ	0xFF2
  4033                           postinc0	equ	0xFEE
  4034                           fsr0h	equ	0xFEA
  4035                           fsr0l	equ	0xFE9
  4036                           wreg	equ	0xFE8
  4037                           indf1	equ	0xFE7
  4038                           fsr1h	equ	0xFE2
  4039                           fsr1l	equ	0xFE1
  4040                           indf2	equ	0xFDF
  4041                           postinc2	equ	0xFDE
  4042                           postdec2	equ	0xFDD
  4043                           plusw2	equ	0xFDB
  4044                           fsr2h	equ	0xFDA
  4045                           fsr2l	equ	0xFD9
  4046                           status	equ	0xFD8
  4047                           
  4048 ;; *************** function _USBStallHandler *****************
  4049 ;; Defined at:
  4050 ;;		line 2202 in file "../../../../../../framework/usb/src/usb_device.c"
  4051 ;; Parameters:    Size  Location     Type
  4052 ;;		None
  4053 ;; Auto vars:     Size  Location     Type
  4054 ;;		None
  4055 ;; Return value:  Size  Location     Type
  4056 ;;		None               void
  4057 ;; Registers used:
  4058 ;;		wreg, fsr2l, fsr2h, status,2, status,0
  4059 ;; Tracked objects:
  4060 ;;		On entry : 0/0
  4061 ;;		On exit  : 0/0
  4062 ;;		Unchanged: 0/0
  4063 ;; Data sizes:     COMRAM   BANK0   BANK1   BANK2   BANK3   BANK4   BANK5   BANK6   BANK7   BANK8   BANK9  BANK10  BANK1
      +1  BANK12  BANK13  BANK14
  4064 ;;      Params:         0       0       0       0       0       0       0       0       0       0       0       0       
      +0       0       0       0
  4065 ;;      Locals:         0       0       0       0       0       0       0       0       0       0       0       0       
      +0       0       0       0
  4066 ;;      Temps:          1       0       0       0       0       0       0       0       0       0       0       0       
      +0       0       0       0
  4067 ;;      Totals:         1       0       0       0       0       0       0       0       0       0       0       0       
      +0       0       0       0
  4068 ;;Total ram usage:        1 bytes
  4069 ;; Hardware stack levels used:    1
  4070 ;; This function calls:
  4071 ;;		Nothing
  4072 ;; This function is called by:
  4073 ;;		_USBDeviceTasks
  4074 ;; This function uses a non-reentrant model
  4075 ;;
  4076                           
  4077                           	psect	text19
  4078  002A5E                     __ptext19:
  4079                           	opt stack 0
  4080  002A5E                     _USBStallHandler:
  4081                           	opt stack 25
  4082                           
  4083                           ;usb_device.c: 2214: if(UEP0bits.EPSTALL == 1)
  4084                           
  4085                           ;incstack = 0
  4086  002A5E  010F               	movlb	15	; () banked
  4087  002A60  A126               	btfss	38,0,b	;volatile
  4088  002A62  D01F               	goto	i2l613
  4089                           
  4090                           ; BSR set to: 15
  4091                           ;usb_device.c: 2215: {
  4092                           ;usb_device.c: 2217: if((pBDTEntryEP0OutCurrent->STAT.Val == 0x80) && (pBDTEntryIn[0]->S
      +                          TAT.Val == (0x80|0x04)))
  4093  002A64  C044  FFD9         	movff	_pBDTEntryEP0OutCurrent,fsr2l
  4094  002A68  C045  FFDA         	movff	_pBDTEntryEP0OutCurrent+1,fsr2h
  4095  002A6C  0E80               	movlw	128
  4096  002A6E  18DE               	xorwf	postinc2,w,c
  4097  002A70  A4D8               	btfss	status,2,c
  4098  002A72  D015               	goto	i2l3966
  4099                           
  4100                           ; BSR set to: 15
  4101  002A74  C03C  FFD9         	movff	_pBDTEntryIn,fsr2l
  4102  002A78  C03D  FFDA         	movff	_pBDTEntryIn+1,fsr2h
  4103  002A7C  0E84               	movlw	132
  4104  002A7E  18DE               	xorwf	postinc2,w,c
  4105  002A80  A4D8               	btfss	status,2,c
  4106  002A82  D00D               	goto	i2l3966
  4107                           
  4108                           ; BSR set to: 15
  4109                           ;usb_device.c: 2218: {
  4110                           ;usb_device.c: 2220: pBDTEntryEP0OutCurrent->STAT.Val = 0x00|(0x08 & 0x08)|0x04;
  4111  002A84  C044  FFD9         	movff	_pBDTEntryEP0OutCurrent,fsr2l
  4112  002A88  C045  FFDA         	movff	_pBDTEntryEP0OutCurrent+1,fsr2h
  4113  002A8C  0E0C               	movlw	12
  4114  002A8E  6EDF               	movwf	indf2,c
  4115                           
  4116                           ; BSR set to: 15
  4117                           ;usb_device.c: 2221: pBDTEntryEP0OutCurrent->STAT.Val |= 0x80;
  4118  002A90  C044  FFD9         	movff	_pBDTEntryEP0OutCurrent,fsr2l
  4119  002A94  C045  FFDA         	movff	_pBDTEntryEP0OutCurrent+1,fsr2h
  4120  002A98  0E00               	movlw	0
  4121  002A9A  8EDB               	bsf	plusw2,7,c
  4122  002A9C  D000               	goto	i2l3966
  4123  002A9E                     i2l3966:
  4124                           
  4125                           ; BSR set to: 15
  4126                           ;usb_device.c: 2222: }
  4127                           ;usb_device.c: 2223: UEP0bits.EPSTALL = 0;
  4128  002A9E  010F               	movlb	15	; () banked
  4129  002AA0  9126               	bcf	38,0,b	;volatile
  4130  002AA2                     i2l613:
  4131                           
  4132                           ; BSR set to: 15
  4133                           ;usb_device.c: 2224: }
  4134                           ;usb_device.c: 2226: (UIR &= 0xDF);
  4135  002AA2  9A62               	bcf	3938,5,c	;volatile
  4136                           
  4137                           ; BSR set to: 15
  4138  002AA4  0012               	return		;funcret
  4139  002AA6                     __end_of_USBStallHandler:
  4140                           	opt stack 0
  4141                           pclatu	equ	0xFFB
  4142                           pclath	equ	0xFFA
  4143                           tblptru	equ	0xFF8
  4144                           tblptrh	equ	0xFF7
  4145                           tblptrl	equ	0xFF6
  4146                           tablat	equ	0xFF5
  4147                           prodh	equ	0xFF4
  4148                           prodl	equ	0xFF3
  4149                           intcon	equ	0xFF2
  4150                           postinc0	equ	0xFEE
  4151                           fsr0h	equ	0xFEA
  4152                           fsr0l	equ	0xFE9
  4153                           wreg	equ	0xFE8
  4154                           indf1	equ	0xFE7
  4155                           fsr1h	equ	0xFE2
  4156                           fsr1l	equ	0xFE1
  4157                           indf2	equ	0xFDF
  4158                           postinc2	equ	0xFDE
  4159                           postdec2	equ	0xFDD
  4160                           plusw2	equ	0xFDB
  4161                           fsr2h	equ	0xFDA
  4162                           fsr2l	equ	0xFD9
  4163                           status	equ	0xFD8
  4164                           
  4165 ;; *************** function _USBCtrlEPService *****************
  4166 ;; Defined at:
  4167 ;;		line 2369 in file "../../../../../../framework/usb/src/usb_device.c"
  4168 ;; Parameters:    Size  Location     Type
  4169 ;;		None
  4170 ;; Auto vars:     Size  Location     Type
  4171 ;;  setup_cnt       1   29[COMRAM] unsigned char 
  4172 ;; Return value:  Size  Location     Type
  4173 ;;		None               void
  4174 ;; Registers used:
  4175 ;;		wreg, fsr0l, fsr0h, fsr1l, fsr1h, fsr2l, fsr2h, status,2, status,0, pclat, tosl, tblptrl, tblptrh, tblptru, prodl, p
      +rodh, cstack
  4176 ;; Tracked objects:
  4177 ;;		On entry : 0/0
  4178 ;;		On exit  : 0/0
  4179 ;;		Unchanged: 0/0
  4180 ;; Data sizes:     COMRAM   BANK0   BANK1   BANK2   BANK3   BANK4   BANK5   BANK6   BANK7   BANK8   BANK9  BANK10  BANK1
      +1  BANK12  BANK13  BANK14
  4181 ;;      Params:         0       0       0       0       0       0       0       0       0       0       0       0       
      +0       0       0       0
  4182 ;;      Locals:         1       0       0       0       0       0       0       0       0       0       0       0       
      +0       0       0       0
  4183 ;;      Temps:          2       0       0       0       0       0       0       0       0       0       0       0       
      +0       0       0       0
  4184 ;;      Totals:         3       0       0       0       0       0       0       0       0       0       0       0       
      +0       0       0       0
  4185 ;;Total ram usage:        3 bytes
  4186 ;; Hardware stack levels used:    1
  4187 ;; Hardware stack levels required when called:    8
  4188 ;; This function calls:
  4189 ;;		_USBCtrlTrfInHandler
  4190 ;;		_USBCtrlTrfOutHandler
  4191 ;;		_USBCtrlTrfSetupHandler
  4192 ;; This function is called by:
  4193 ;;		_USBDeviceTasks
  4194 ;; This function uses a non-reentrant model
  4195 ;;
  4196                           
  4197                           	psect	text20
  4198  00214C                     __ptext20:
  4199                           	opt stack 0
  4200  00214C                     _USBCtrlEPService:
  4201                           	opt stack 17
  4202                           
  4203                           ;usb_device.c: 2375: USBStatusStageTimeoutCounter = (uint8_t)45;
  4204                           
  4205                           ; BSR set to: 15
  4206                           ;incstack = 0
  4207  00214C  0E2D               	movlw	45
  4208  00214E  6E53               	movwf	_USBStatusStageTimeoutCounter,c	;volatile
  4209                           
  4210                           ;usb_device.c: 2379: if((USTATcopy.Val & ~0x02) == 0x00)
  4211  002150  C05F  F01C         	movff	_USTATcopy,??_USBCtrlEPService	;volatile
  4212  002154  0EFD               	movlw	253
  4213  002156  161C               	andwf	??_USBCtrlEPService,f,c
  4214  002158  A4D8               	btfss	status,2,c
  4215  00215A  D057               	goto	i2l4000
  4216                           
  4217                           ;usb_device.c: 2380: {
  4218                           ;usb_device.c: 2383: pBDTEntryEP0OutCurrent = (volatile BDT_ENTRY*)&BDT[(USTATcopy.Val &
      +                           0x7E)>>1];
  4219  00215C  C05F  F01C         	movff	_USTATcopy,??_USBCtrlEPService	;volatile
  4220  002160  90D8               	bcf	status,0,c
  4221  002162  321C               	rrcf	??_USBCtrlEPService,f,c
  4222  002164  0E3F               	movlw	63
  4223  002166  161C               	andwf	??_USBCtrlEPService,f,c
  4224  002168  501C               	movf	??_USBCtrlEPService,w,c
  4225  00216A  0D04               	mullw	4
  4226  00216C  0E00               	movlw	0
  4227  00216E  24F3               	addwf	prodl,w,c
  4228  002170  6E44               	movwf	_pBDTEntryEP0OutCurrent,c
  4229  002172  0E0D               	movlw	13
  4230  002174  20F4               	addwfc	prodh,w,c
  4231  002176  6E45               	movwf	_pBDTEntryEP0OutCurrent+1,c
  4232                           
  4233                           ;usb_device.c: 2391: pBDTEntryEP0OutNext = pBDTEntryEP0OutCurrent;
  4234  002178  C044  F046         	movff	_pBDTEntryEP0OutCurrent,_pBDTEntryEP0OutNext
  4235  00217C  C045  F047         	movff	_pBDTEntryEP0OutCurrent+1,_pBDTEntryEP0OutNext+1
  4236                           
  4237                           ;usb_device.c: 2393: ((uint8_t_VAL*)&pBDTEntryEP0OutNext)->Val ^= 0x0004;
  4238  002180  0E04               	movlw	4
  4239  002182  1A46               	xorwf	_pBDTEntryEP0OutNext,f,c
  4240                           
  4241                           ;usb_device.c: 2396: if(pBDTEntryEP0OutCurrent->STAT.PID == 0xD)
  4242  002184  C044  FFD9         	movff	_pBDTEntryEP0OutCurrent,fsr2l
  4243  002188  C045  FFDA         	movff	_pBDTEntryEP0OutCurrent+1,fsr2h
  4244  00218C  30DF               	rrcf	indf2,w,c
  4245  00218E  32E8               	rrcf	wreg,f,c
  4246  002190  0B0F               	andlw	15
  4247  002192  0A0D               	xorlw	13
  4248  002194  A4D8               	btfss	status,2,c
  4249  002196  D036               	goto	i2l3998
  4250                           
  4251                           ;usb_device.c: 2397: {
  4252                           ;usb_device.c: 2398: unsigned char setup_cnt;
  4253                           ;usb_device.c: 2404: for(setup_cnt = 0; setup_cnt < 8u; setup_cnt++)
  4254  002198  0E00               	movlw	0
  4255  00219A  6E1E               	movwf	USBCtrlEPService@setup_cnt,c
  4256  00219C                     i2l3982:
  4257  00219C  0E07               	movlw	7
  4258  00219E  641E               	cpfsgt	USBCtrlEPService@setup_cnt,c
  4259  0021A0  D001               	goto	i2l3986
  4260  0021A2  D023               	goto	i2l3994
  4261  0021A4                     i2l3986:
  4262                           
  4263                           ;usb_device.c: 2405: {
  4264                           ;usb_device.c: 2406: *(uint8_t*)((uint8_t*)&SetupPkt + setup_cnt) = *(uint8_t*)((void *)
      +                          (pBDTEntryEP0OutCurrent->ADR));
  4265  0021A4  EE20 F002          	lfsr	2,2
  4266  0021A8  5044               	movf	_pBDTEntryEP0OutCurrent,w,c
  4267  0021AA  26D9               	addwf	fsr2l,f,c
  4268  0021AC  5045               	movf	_pBDTEntryEP0OutCurrent+1,w,c
  4269  0021AE  22DA               	addwfc	fsr2h,f,c
  4270  0021B0  CFDE F01C          	movff	postinc2,??_USBCtrlEPService
  4271  0021B4  CFDD F01D          	movff	postdec2,??_USBCtrlEPService+1
  4272  0021B8  C01C  FFD9         	movff	??_USBCtrlEPService,fsr2l
  4273  0021BC  C01D  FFDA         	movff	??_USBCtrlEPService+1,fsr2h
  4274  0021C0  501E               	movf	USBCtrlEPService@setup_cnt,w,c
  4275  0021C2  0D01               	mullw	1
  4276  0021C4  0E30               	movlw	48
  4277  0021C6  24F3               	addwf	prodl,w,c
  4278  0021C8  6EE1               	movwf	fsr1l,c
  4279  0021CA  0E0D               	movlw	13
  4280  0021CC  20F4               	addwfc	prodh,w,c
  4281  0021CE  6EE2               	movwf	fsr1h,c
  4282  0021D0  CFDF FFE7          	movff	indf2,indf1
  4283                           
  4284                           ;usb_device.c: 2407: pBDTEntryEP0OutCurrent->ADR++;
  4285  0021D4  EE20 F002          	lfsr	2,2
  4286  0021D8  5044               	movf	_pBDTEntryEP0OutCurrent,w,c
  4287  0021DA  26D9               	addwf	fsr2l,f,c
  4288  0021DC  5045               	movf	_pBDTEntryEP0OutCurrent+1,w,c
  4289  0021DE  22DA               	addwfc	fsr2h,f,c
  4290  0021E0  2ADE               	incf	postinc2,f,c
  4291  0021E2  0E00               	movlw	0
  4292  0021E4  22DD               	addwfc	postdec2,f,c
  4293  0021E6  2A1E               	incf	USBCtrlEPService@setup_cnt,f,c
  4294  0021E8  D7D9               	goto	i2l3982
  4295  0021EA                     i2l3994:
  4296                           
  4297                           ;usb_device.c: 2408: }
  4298                           ;usb_device.c: 2409: pBDTEntryEP0OutCurrent->ADR = ((uint16_t)(&SetupPkt));
  4299  0021EA  EE20 F002          	lfsr	2,2
  4300  0021EE  5044               	movf	_pBDTEntryEP0OutCurrent,w,c
  4301  0021F0  26D9               	addwf	fsr2l,f,c
  4302  0021F2  5045               	movf	_pBDTEntryEP0OutCurrent+1,w,c
  4303  0021F4  22DA               	addwfc	fsr2h,f,c
  4304  0021F6  0E30               	movlw	48
  4305  0021F8  6EDE               	movwf	postinc2,c
  4306  0021FA  0E0D               	movlw	13
  4307  0021FC  6EDD               	movwf	postdec2,c
  4308                           
  4309                           ;usb_device.c: 2412: USBCtrlTrfSetupHandler();
  4310  0021FE  EC6A  F013         	call	_USBCtrlTrfSetupHandler	;wreg free
  4311                           
  4312                           ;usb_device.c: 2413: }
  4313  002202  0012               	return	
  4314  002204                     i2l3998:
  4315                           
  4316                           ;usb_device.c: 2414: else
  4317                           ;usb_device.c: 2415: {
  4318                           ;usb_device.c: 2417: USBCtrlTrfOutHandler();
  4319  002204  ECD3  F014         	call	_USBCtrlTrfOutHandler	;wreg free
  4320                           
  4321                           ;usb_device.c: 2418: }
  4322                           ;usb_device.c: 2419: }
  4323  002208  0012               	return	
  4324  00220A                     i2l4000:
  4325                           
  4326                           ;usb_device.c: 2420: else if((USTATcopy.Val & ~0x02) == 0x04)
  4327  00220A  505F               	movf	_USTATcopy,w,c	;volatile
  4328  00220C  0BFD               	andlw	253
  4329  00220E  0A04               	xorlw	4
  4330  002210  A4D8               	btfss	status,2,c
  4331  002212  0012               	return	
  4332                           
  4333                           ;usb_device.c: 2421: {
  4334                           ;usb_device.c: 2424: USBCtrlTrfInHandler();
  4335  002214  EC97  F00D         	call	_USBCtrlTrfInHandler	;wreg free
  4336  002218  0012               	return	
  4337  00221A  0012               	return		;funcret
  4338  00221C                     __end_of_USBCtrlEPService:
  4339                           	opt stack 0
  4340                           pclatu	equ	0xFFB
  4341                           pclath	equ	0xFFA
  4342                           tblptru	equ	0xFF8
  4343                           tblptrh	equ	0xFF7
  4344                           tblptrl	equ	0xFF6
  4345                           tablat	equ	0xFF5
  4346                           prodh	equ	0xFF4
  4347                           prodl	equ	0xFF3
  4348                           intcon	equ	0xFF2
  4349                           postinc0	equ	0xFEE
  4350                           fsr0h	equ	0xFEA
  4351                           fsr0l	equ	0xFE9
  4352                           wreg	equ	0xFE8
  4353                           indf1	equ	0xFE7
  4354                           fsr1h	equ	0xFE2
  4355                           fsr1l	equ	0xFE1
  4356                           indf2	equ	0xFDF
  4357                           postinc2	equ	0xFDE
  4358                           postdec2	equ	0xFDD
  4359                           plusw2	equ	0xFDB
  4360                           fsr2h	equ	0xFDA
  4361                           fsr2l	equ	0xFD9
  4362                           status	equ	0xFD8
  4363                           
  4364 ;; *************** function _USBCtrlTrfSetupHandler *****************
  4365 ;; Defined at:
  4366 ;;		line 2469 in file "../../../../../../framework/usb/src/usb_device.c"
  4367 ;; Parameters:    Size  Location     Type
  4368 ;;		None
  4369 ;; Auto vars:     Size  Location     Type
  4370 ;;		None
  4371 ;; Return value:  Size  Location     Type
  4372 ;;		None               void
  4373 ;; Registers used:
  4374 ;;		wreg, fsr0l, fsr0h, fsr2l, fsr2h, status,2, status,0, tblptrl, tblptrh, tblptru, prodl, prodh, cstack
  4375 ;; Tracked objects:
  4376 ;;		On entry : 0/0
  4377 ;;		On exit  : 0/0
  4378 ;;		Unchanged: 0/0
  4379 ;; Data sizes:     COMRAM   BANK0   BANK1   BANK2   BANK3   BANK4   BANK5   BANK6   BANK7   BANK8   BANK9  BANK10  BANK1
      +1  BANK12  BANK13  BANK14
  4380 ;;      Params:         0       0       0       0       0       0       0       0       0       0       0       0       
      +0       0       0       0
  4381 ;;      Locals:         0       0       0       0       0       0       0       0       0       0       0       0       
      +0       0       0       0
  4382 ;;      Temps:          0       0       0       0       0       0       0       0       0       0       0       0       
      +0       0       0       0
  4383 ;;      Totals:         0       0       0       0       0       0       0       0       0       0       0       0       
      +0       0       0       0
  4384 ;;Total ram usage:        0 bytes
  4385 ;; Hardware stack levels used:    1
  4386 ;; Hardware stack levels required when called:    7
  4387 ;; This function calls:
  4388 ;;		_USBCheckStdRequest
  4389 ;;		_USBCtrlEPServiceComplete
  4390 ;;		_USER_USB_CALLBACK_EVENT_HANDLER
  4391 ;; This function is called by:
  4392 ;;		_USBCtrlEPService
  4393 ;; This function uses a non-reentrant model
  4394 ;;
  4395                           
  4396                           	psect	text21
  4397  0026D4                     __ptext21:
  4398                           	opt stack 0
  4399  0026D4                     _USBCtrlTrfSetupHandler:
  4400                           	opt stack 17
  4401                           
  4402                           ;usb_device.c: 2474: shortPacketStatus = 0;
  4403                           
  4404                           ;incstack = 0
  4405  0026D4  0E00               	movlw	0
  4406  0026D6  6E57               	movwf	_shortPacketStatus,c	;volatile
  4407                           
  4408                           ;usb_device.c: 2475: USBDeferStatusStagePacket = 0;
  4409  0026D8  0E00               	movlw	0
  4410  0026DA  6E4F               	movwf	_USBDeferStatusStagePacket,c	;volatile
  4411                           
  4412                           ;usb_device.c: 2476: USBDeferINDataStagePackets = 0;
  4413  0026DC  0E00               	movlw	0
  4414  0026DE  6E4E               	movwf	_USBDeferINDataStagePackets,c	;volatile
  4415                           
  4416                           ;usb_device.c: 2477: USBDeferOUTDataStagePackets = 0;
  4417  0026E0  0E00               	movlw	0
  4418  0026E2  0100               	movlb	0	; () banked
  4419  0026E4  6F7F               	movwf	_USBDeferOUTDataStagePackets& (0+255),b	;volatile
  4420                           
  4421                           ;usb_device.c: 2478: BothEP0OutUOWNsSet = 0;
  4422  0026E6  0E00               	movlw	0
  4423  0026E8  6E48               	movwf	_BothEP0OutUOWNsSet,c	;volatile
  4424                           
  4425                           ;usb_device.c: 2479: controlTransferState = 0;
  4426  0026EA  0E00               	movlw	0
  4427  0026EC  6E55               	movwf	_controlTransferState,c	;volatile
  4428                           
  4429                           ; BSR set to: 0
  4430                           ;usb_device.c: 2488: pBDTEntryIn[0]->STAT.Val &= ~(0x80);
  4431  0026EE  C03C  FFD9         	movff	_pBDTEntryIn,fsr2l
  4432  0026F2  C03D  FFDA         	movff	_pBDTEntryIn+1,fsr2h
  4433  0026F6  0E7F               	movlw	127
  4434  0026F8  16DF               	andwf	indf2,f,c
  4435                           
  4436                           ; BSR set to: 0
  4437                           ;usb_device.c: 2489: ((uint8_t_VAL*)&pBDTEntryIn[0])->Val ^= 0x0004;
  4438  0026FA  0E04               	movlw	4
  4439  0026FC  1A3C               	xorwf	_pBDTEntryIn,f,c
  4440                           
  4441                           ; BSR set to: 0
  4442                           ;usb_device.c: 2490: pBDTEntryIn[0]->STAT.Val &= ~(0x80);
  4443  0026FE  C03C  FFD9         	movff	_pBDTEntryIn,fsr2l
  4444  002702  C03D  FFDA         	movff	_pBDTEntryIn+1,fsr2h
  4445  002706  0E7F               	movlw	127
  4446  002708  16DF               	andwf	indf2,f,c
  4447                           
  4448                           ; BSR set to: 0
  4449                           ;usb_device.c: 2491: ((uint8_t_VAL*)&pBDTEntryIn[0])->Val ^= 0x0004;
  4450  00270A  0E04               	movlw	4
  4451  00270C  1A3C               	xorwf	_pBDTEntryIn,f,c
  4452                           
  4453                           ; BSR set to: 0
  4454                           ;usb_device.c: 2492: pBDTEntryEP0OutNext->STAT.Val &= ~(0x80);
  4455  00270E  C046  FFD9         	movff	_pBDTEntryEP0OutNext,fsr2l
  4456  002712  C047  FFDA         	movff	_pBDTEntryEP0OutNext+1,fsr2h
  4457  002716  0E7F               	movlw	127
  4458  002718  16DF               	andwf	indf2,f,c
  4459                           
  4460                           ; BSR set to: 0
  4461                           ;usb_device.c: 2494: inPipes[0].info.Val = 0;
  4462  00271A  0E00               	movlw	0
  4463  00271C  6E5B               	movwf	_inPipes+3,c	;volatile
  4464                           
  4465                           ; BSR set to: 0
  4466                           ;usb_device.c: 2495: inPipes[0].wCount.Val = 0;
  4467  00271E  0E00               	movlw	0
  4468  002720  6E5D               	movwf	_inPipes+5,c	;volatile
  4469  002722  0E00               	movlw	0
  4470  002724  6E5C               	movwf	_inPipes+4,c	;volatile
  4471                           
  4472                           ; BSR set to: 0
  4473                           ;usb_device.c: 2496: outPipes[0].info.Val = 0;
  4474  002726  0E00               	movlw	0
  4475  002728  6E36               	movwf	_outPipes+3,c	;volatile
  4476                           
  4477                           ; BSR set to: 0
  4478                           ;usb_device.c: 2497: outPipes[0].wCount.Val = 0;
  4479  00272A  0E00               	movlw	0
  4480  00272C  6E38               	movwf	_outPipes+5,c	;volatile
  4481  00272E  0E00               	movlw	0
  4482  002730  6E37               	movwf	_outPipes+4,c	;volatile
  4483                           
  4484                           ; BSR set to: 0
  4485                           ;usb_device.c: 2503: USBCheckStdRequest();
  4486  002732  EC7E  F00E         	call	_USBCheckStdRequest	;wreg free
  4487                           
  4488                           ;usb_device.c: 2504: USER_USB_CALLBACK_EVENT_HANDLER(EVENT_EP0_REQUEST,0,0);
  4489  002736  0E00               	movlw	0
  4490  002738  6E0F               	movwf	USER_USB_CALLBACK_EVENT_HANDLER@event+1,c
  4491  00273A  0E03               	movlw	3
  4492  00273C  6E0E               	movwf	USER_USB_CALLBACK_EVENT_HANDLER@event,c
  4493  00273E  0E00               	movlw	0
  4494  002740  6E10               	movwf	USER_USB_CALLBACK_EVENT_HANDLER@pdata,c
  4495  002742  0E00               	movlw	0
  4496  002744  6E11               	movwf	USER_USB_CALLBACK_EVENT_HANDLER@pdata+1,c
  4497  002746  0E00               	movlw	0
  4498  002748  6E13               	movwf	USER_USB_CALLBACK_EVENT_HANDLER@size+1,c
  4499  00274A  0E00               	movlw	0
  4500  00274C  6E12               	movwf	USER_USB_CALLBACK_EVENT_HANDLER@size,c
  4501  00274E  EC2C  F014         	call	_USER_USB_CALLBACK_EVENT_HANDLER	;wreg free
  4502                           
  4503                           ;usb_device.c: 2517: USBCtrlEPServiceComplete();
  4504  002752  EC19  F00D         	call	_USBCtrlEPServiceComplete	;wreg free
  4505  002756  0012               	return		;funcret
  4506  002758                     __end_of_USBCtrlTrfSetupHandler:
  4507                           	opt stack 0
  4508                           pclatu	equ	0xFFB
  4509                           pclath	equ	0xFFA
  4510                           tblptru	equ	0xFF8
  4511                           tblptrh	equ	0xFF7
  4512                           tblptrl	equ	0xFF6
  4513                           tablat	equ	0xFF5
  4514                           prodh	equ	0xFF4
  4515                           prodl	equ	0xFF3
  4516                           intcon	equ	0xFF2
  4517                           postinc0	equ	0xFEE
  4518                           fsr0h	equ	0xFEA
  4519                           fsr0l	equ	0xFE9
  4520                           wreg	equ	0xFE8
  4521                           indf1	equ	0xFE7
  4522                           fsr1h	equ	0xFE2
  4523                           fsr1l	equ	0xFE1
  4524                           indf2	equ	0xFDF
  4525                           postinc2	equ	0xFDE
  4526                           postdec2	equ	0xFDD
  4527                           plusw2	equ	0xFDB
  4528                           fsr2h	equ	0xFDA
  4529                           fsr2l	equ	0xFD9
  4530                           status	equ	0xFD8
  4531                           
  4532 ;; *************** function _USBCtrlEPServiceComplete *****************
  4533 ;; Defined at:
  4534 ;;		line 1616 in file "../../../../../../framework/usb/src/usb_device.c"
  4535 ;; Parameters:    Size  Location     Type
  4536 ;;		None
  4537 ;; Auto vars:     Size  Location     Type
  4538 ;;		None
  4539 ;; Return value:  Size  Location     Type
  4540 ;;		None               void
  4541 ;; Registers used:
  4542 ;;		wreg, fsr0l, fsr0h, fsr2l, fsr2h, status,2, status,0, tblptrl, tblptrh, tblptru, cstack
  4543 ;; Tracked objects:
  4544 ;;		On entry : 0/0
  4545 ;;		On exit  : 0/0
  4546 ;;		Unchanged: 0/0
  4547 ;; Data sizes:     COMRAM   BANK0   BANK1   BANK2   BANK3   BANK4   BANK5   BANK6   BANK7   BANK8   BANK9  BANK10  BANK1
      +1  BANK12  BANK13  BANK14
  4548 ;;      Params:         0       0       0       0       0       0       0       0       0       0       0       0       
      +0       0       0       0
  4549 ;;      Locals:         0       0       0       0       0       0       0       0       0       0       0       0       
      +0       0       0       0
  4550 ;;      Temps:          0       0       0       0       0       0       0       0       0       0       0       0       
      +0       0       0       0
  4551 ;;      Totals:         0       0       0       0       0       0       0       0       0       0       0       0       
      +0       0       0       0
  4552 ;;Total ram usage:        0 bytes
  4553 ;; Hardware stack levels used:    1
  4554 ;; Hardware stack levels required when called:    2
  4555 ;; This function calls:
  4556 ;;		_USBCtrlEPAllowDataStage
  4557 ;;		_USBCtrlEPAllowStatusStage
  4558 ;; This function is called by:
  4559 ;;		_USBCtrlTrfSetupHandler
  4560 ;; This function uses a non-reentrant model
  4561 ;;
  4562                           
  4563                           	psect	text22
  4564  001A32                     __ptext22:
  4565                           	opt stack 0
  4566  001A32                     _USBCtrlEPServiceComplete:
  4567                           	opt stack 21
  4568                           
  4569                           ;usb_device.c: 1622: UCONbits.PKTDIS = 0;
  4570                           
  4571                           ;incstack = 0
  4572  001A32  9865               	bcf	3941,4,c	;volatile
  4573                           
  4574                           ;usb_device.c: 1628: if(inPipes[0].info.bits.busy == 0)
  4575  001A34  BE5B               	btfsc	_inPipes+3,7,c	;volatile
  4576  001A36  D03B               	goto	i2l537
  4577                           
  4578                           ;usb_device.c: 1629: {
  4579                           ;usb_device.c: 1630: if(outPipes[0].info.bits.busy == 1)
  4580  001A38  AE36               	btfss	_outPipes+3,7,c	;volatile
  4581  001A3A  D00E               	goto	i2l3554
  4582                           
  4583                           ;usb_device.c: 1631: {
  4584                           ;usb_device.c: 1632: controlTransferState = 2;
  4585  001A3C  0E02               	movlw	2
  4586  001A3E  6E55               	movwf	_controlTransferState,c	;volatile
  4587                           
  4588                           ;usb_device.c: 1643: if(USBDeferOUTDataStagePackets == 0)
  4589  001A40  0100               	movlb	0	; () banked
  4590  001A42  517F               	movf	_USBDeferOUTDataStagePackets& (0+255),w,b	;volatile
  4591  001A44  A4D8               	btfss	status,2,c
  4592  001A46  D003               	goto	i2l3550
  4593                           
  4594                           ; BSR set to: 0
  4595                           ;usb_device.c: 1644: {
  4596                           ;usb_device.c: 1645: USBCtrlEPAllowDataStage();
  4597  001A48  EC8A  F012         	call	_USBCtrlEPAllowDataStage	;wreg free
  4598  001A4C  D000               	goto	i2l3550
  4599  001A4E                     i2l3550:
  4600                           
  4601                           ;usb_device.c: 1646: }
  4602                           ;usb_device.c: 1650: USBStatusStageEnabledFlag2 = 0;
  4603  001A4E  0E00               	movlw	0
  4604  001A50  6E52               	movwf	_USBStatusStageEnabledFlag2,c	;volatile
  4605                           
  4606                           ;usb_device.c: 1651: USBStatusStageEnabledFlag1 = 0;
  4607  001A52  0E00               	movlw	0
  4608  001A54  6E51               	movwf	_USBStatusStageEnabledFlag1,c	;volatile
  4609                           
  4610                           ;usb_device.c: 1652: }
  4611  001A56  0012               	return	
  4612  001A58                     i2l3554:
  4613                           
  4614                           ;usb_device.c: 1653: else
  4615                           ;usb_device.c: 1654: {
  4616                           ;usb_device.c: 1659: pBDTEntryEP0OutNext->CNT = 8;
  4617  001A58  EE20 F001          	lfsr	2,1
  4618  001A5C  5046               	movf	_pBDTEntryEP0OutNext,w,c
  4619  001A5E  26D9               	addwf	fsr2l,f,c
  4620  001A60  5047               	movf	_pBDTEntryEP0OutNext+1,w,c
  4621  001A62  22DA               	addwfc	fsr2h,f,c
  4622  001A64  0E08               	movlw	8
  4623  001A66  6EDF               	movwf	indf2,c
  4624                           
  4625                           ;usb_device.c: 1660: pBDTEntryEP0OutNext->ADR = ((uint16_t)(&SetupPkt));
  4626  001A68  EE20 F002          	lfsr	2,2
  4627  001A6C  5046               	movf	_pBDTEntryEP0OutNext,w,c
  4628  001A6E  26D9               	addwf	fsr2l,f,c
  4629  001A70  5047               	movf	_pBDTEntryEP0OutNext+1,w,c
  4630  001A72  22DA               	addwfc	fsr2h,f,c
  4631  001A74  0E30               	movlw	48
  4632  001A76  6EDE               	movwf	postinc2,c
  4633  001A78  0E0D               	movlw	13
  4634  001A7A  6EDD               	movwf	postdec2,c
  4635                           
  4636                           ;usb_device.c: 1661: pBDTEntryEP0OutNext->STAT.Val = 0x00|(0x08 & 0x08)|0x04;
  4637  001A7C  C046  FFD9         	movff	_pBDTEntryEP0OutNext,fsr2l
  4638  001A80  C047  FFDA         	movff	_pBDTEntryEP0OutNext+1,fsr2h
  4639  001A84  0E0C               	movlw	12
  4640  001A86  6EDF               	movwf	indf2,c
  4641                           
  4642                           ;usb_device.c: 1662: pBDTEntryEP0OutNext->STAT.Val |= 0x80;
  4643  001A88  C046  FFD9         	movff	_pBDTEntryEP0OutNext,fsr2l
  4644  001A8C  C047  FFDA         	movff	_pBDTEntryEP0OutNext+1,fsr2h
  4645  001A90  0E00               	movlw	0
  4646  001A92  8EDB               	bsf	plusw2,7,c
  4647                           
  4648                           ;usb_device.c: 1663: pBDTEntryIn[0]->STAT.Val = 0x04;
  4649  001A94  C03C  FFD9         	movff	_pBDTEntryIn,fsr2l
  4650  001A98  C03D  FFDA         	movff	_pBDTEntryIn+1,fsr2h
  4651  001A9C  0E04               	movlw	4
  4652  001A9E  6EDF               	movwf	indf2,c
  4653                           
  4654                           ;usb_device.c: 1664: pBDTEntryIn[0]->STAT.Val |= 0x80;
  4655  001AA0  C03C  FFD9         	movff	_pBDTEntryIn,fsr2l
  4656  001AA4  C03D  FFDA         	movff	_pBDTEntryIn+1,fsr2h
  4657  001AA8  0E00               	movlw	0
  4658  001AAA  8EDB               	bsf	plusw2,7,c
  4659                           
  4660                           ;usb_device.c: 1665: }
  4661                           ;usb_device.c: 1666: }
  4662  001AAC  0012               	return	
  4663  001AAE                     i2l537:
  4664                           
  4665                           ;usb_device.c: 1667: else
  4666                           ;usb_device.c: 1668: {
  4667                           ;usb_device.c: 1669: if(SetupPkt.DataDir == (0x80>>7))
  4668  001AAE  010D               	movlb	13	; () banked
  4669  001AB0  AF30               	btfss	48,7,b	;volatile
  4670  001AB2  D012               	goto	i2l3574
  4671                           
  4672                           ; BSR set to: 13
  4673                           ;usb_device.c: 1670: {
  4674                           ;usb_device.c: 1671: controlTransferState = 1;
  4675  001AB4  0E01               	movlw	1
  4676  001AB6  6E55               	movwf	_controlTransferState,c	;volatile
  4677                           
  4678                           ;usb_device.c: 1685: if(USBDeferINDataStagePackets == 0)
  4679  001AB8  504E               	movf	_USBDeferINDataStagePackets,w,c	;volatile
  4680  001ABA  A4D8               	btfss	status,2,c
  4681  001ABC  D003               	goto	i2l3566
  4682                           
  4683                           ; BSR set to: 13
  4684                           ;usb_device.c: 1686: {
  4685                           ;usb_device.c: 1687: USBCtrlEPAllowDataStage();
  4686  001ABE  EC8A  F012         	call	_USBCtrlEPAllowDataStage	;wreg free
  4687  001AC2  D000               	goto	i2l3566
  4688  001AC4                     i2l3566:
  4689                           
  4690                           ;usb_device.c: 1688: }
  4691                           ;usb_device.c: 1710: USBStatusStageEnabledFlag2 = 0;
  4692  001AC4  0E00               	movlw	0
  4693  001AC6  6E52               	movwf	_USBStatusStageEnabledFlag2,c	;volatile
  4694                           
  4695                           ;usb_device.c: 1711: USBStatusStageEnabledFlag1 = 0;
  4696  001AC8  0E00               	movlw	0
  4697  001ACA  6E51               	movwf	_USBStatusStageEnabledFlag1,c	;volatile
  4698                           
  4699                           ;usb_device.c: 1712: if(USBDeferStatusStagePacket == 0)
  4700  001ACC  504F               	movf	_USBDeferStatusStagePacket,w,c	;volatile
  4701  001ACE  A4D8               	btfss	status,2,c
  4702  001AD0  0012               	return	
  4703                           
  4704                           ;usb_device.c: 1713: {
  4705                           ;usb_device.c: 1714: USBCtrlEPAllowStatusStage();
  4706  001AD2  EC0E  F011         	call	_USBCtrlEPAllowStatusStage	;wreg free
  4707                           
  4708                           ;usb_device.c: 1715: }
  4709                           ;usb_device.c: 1716: }
  4710  001AD6  0012               	return	
  4711  001AD8                     i2l3574:
  4712                           
  4713                           ;usb_device.c: 1717: else
  4714                           ;usb_device.c: 1718: {
  4715                           ;usb_device.c: 1729: controlTransferState = 2;
  4716  001AD8  0E02               	movlw	2
  4717  001ADA  6E55               	movwf	_controlTransferState,c	;volatile
  4718                           
  4719                           ;usb_device.c: 1732: pBDTEntryEP0OutNext->CNT = 8;
  4720  001ADC  EE20 F001          	lfsr	2,1
  4721  001AE0  5046               	movf	_pBDTEntryEP0OutNext,w,c
  4722  001AE2  26D9               	addwf	fsr2l,f,c
  4723  001AE4  5047               	movf	_pBDTEntryEP0OutNext+1,w,c
  4724  001AE6  22DA               	addwfc	fsr2h,f,c
  4725  001AE8  0E08               	movlw	8
  4726  001AEA  6EDF               	movwf	indf2,c
  4727                           
  4728                           ;usb_device.c: 1733: pBDTEntryEP0OutNext->ADR = ((uint16_t)(&SetupPkt));
  4729  001AEC  EE20 F002          	lfsr	2,2
  4730  001AF0  5046               	movf	_pBDTEntryEP0OutNext,w,c
  4731  001AF2  26D9               	addwf	fsr2l,f,c
  4732  001AF4  5047               	movf	_pBDTEntryEP0OutNext+1,w,c
  4733  001AF6  22DA               	addwfc	fsr2h,f,c
  4734  001AF8  0E30               	movlw	48
  4735  001AFA  6EDE               	movwf	postinc2,c
  4736  001AFC  0E0D               	movlw	13
  4737  001AFE  6EDD               	movwf	postdec2,c
  4738                           
  4739                           ;usb_device.c: 1734: pBDTEntryEP0OutNext->STAT.Val = 0x04;
  4740  001B00  C046  FFD9         	movff	_pBDTEntryEP0OutNext,fsr2l
  4741  001B04  C047  FFDA         	movff	_pBDTEntryEP0OutNext+1,fsr2h
  4742  001B08  0E04               	movlw	4
  4743  001B0A  6EDF               	movwf	indf2,c
  4744                           
  4745                           ;usb_device.c: 1735: pBDTEntryEP0OutNext->STAT.Val |= 0x80;
  4746  001B0C  C046  FFD9         	movff	_pBDTEntryEP0OutNext,fsr2l
  4747  001B10  C047  FFDA         	movff	_pBDTEntryEP0OutNext+1,fsr2h
  4748  001B14  0E00               	movlw	0
  4749  001B16  8EDB               	bsf	plusw2,7,c
  4750                           
  4751                           ;usb_device.c: 1738: USBStatusStageEnabledFlag2 = 0;
  4752  001B18  0E00               	movlw	0
  4753  001B1A  6E52               	movwf	_USBStatusStageEnabledFlag2,c	;volatile
  4754                           
  4755                           ;usb_device.c: 1739: USBStatusStageEnabledFlag1 = 0;
  4756  001B1C  0E00               	movlw	0
  4757  001B1E  6E51               	movwf	_USBStatusStageEnabledFlag1,c	;volatile
  4758                           
  4759                           ;usb_device.c: 1740: if(USBDeferStatusStagePacket == 0)
  4760  001B20  504F               	movf	_USBDeferStatusStagePacket,w,c	;volatile
  4761  001B22  A4D8               	btfss	status,2,c
  4762  001B24  0012               	return	
  4763                           
  4764                           ;usb_device.c: 1741: {
  4765                           ;usb_device.c: 1742: USBCtrlEPAllowStatusStage();
  4766  001B26  EC0E  F011         	call	_USBCtrlEPAllowStatusStage	;wreg free
  4767  001B2A  0012               	return	
  4768  001B2C  0012               	return		;funcret
  4769  001B2E                     __end_of_USBCtrlEPServiceComplete:
  4770                           	opt stack 0
  4771                           pclatu	equ	0xFFB
  4772                           pclath	equ	0xFFA
  4773                           tblptru	equ	0xFF8
  4774                           tblptrh	equ	0xFF7
  4775                           tblptrl	equ	0xFF6
  4776                           tablat	equ	0xFF5
  4777                           prodh	equ	0xFF4
  4778                           prodl	equ	0xFF3
  4779                           intcon	equ	0xFF2
  4780                           postinc0	equ	0xFEE
  4781                           fsr0h	equ	0xFEA
  4782                           fsr0l	equ	0xFE9
  4783                           wreg	equ	0xFE8
  4784                           indf1	equ	0xFE7
  4785                           fsr1h	equ	0xFE2
  4786                           fsr1l	equ	0xFE1
  4787                           indf2	equ	0xFDF
  4788                           postinc2	equ	0xFDE
  4789                           postdec2	equ	0xFDD
  4790                           plusw2	equ	0xFDB
  4791                           fsr2h	equ	0xFDA
  4792                           fsr2l	equ	0xFD9
  4793                           status	equ	0xFD8
  4794                           
  4795 ;; *************** function _USBCtrlEPAllowDataStage *****************
  4796 ;; Defined at:
  4797 ;;		line 1488 in file "../../../../../../framework/usb/src/usb_device.c"
  4798 ;; Parameters:    Size  Location     Type
  4799 ;;		None
  4800 ;; Auto vars:     Size  Location     Type
  4801 ;;		None
  4802 ;; Return value:  Size  Location     Type
  4803 ;;		None               void
  4804 ;; Registers used:
  4805 ;;		wreg, fsr0l, fsr0h, fsr2l, fsr2h, status,2, status,0, tblptrl, tblptrh, tblptru, cstack
  4806 ;; Tracked objects:
  4807 ;;		On entry : 0/0
  4808 ;;		On exit  : 0/0
  4809 ;;		Unchanged: 0/0
  4810 ;; Data sizes:     COMRAM   BANK0   BANK1   BANK2   BANK3   BANK4   BANK5   BANK6   BANK7   BANK8   BANK9  BANK10  BANK1
      +1  BANK12  BANK13  BANK14
  4811 ;;      Params:         0       0       0       0       0       0       0       0       0       0       0       0       
      +0       0       0       0
  4812 ;;      Locals:         0       0       0       0       0       0       0       0       0       0       0       0       
      +0       0       0       0
  4813 ;;      Temps:          0       0       0       0       0       0       0       0       0       0       0       0       
      +0       0       0       0
  4814 ;;      Totals:         0       0       0       0       0       0       0       0       0       0       0       0       
      +0       0       0       0
  4815 ;;Total ram usage:        0 bytes
  4816 ;; Hardware stack levels used:    1
  4817 ;; Hardware stack levels required when called:    1
  4818 ;; This function calls:
  4819 ;;		_USBCtrlTrfTxService
  4820 ;; This function is called by:
  4821 ;;		_USBCtrlEPServiceComplete
  4822 ;; This function uses a non-reentrant model
  4823 ;;
  4824                           
  4825                           	psect	text23
  4826  002514                     __ptext23:
  4827                           	opt stack 0
  4828  002514                     _USBCtrlEPAllowDataStage:
  4829                           	opt stack 21
  4830                           
  4831                           ;usb_device.c: 1490: USBDeferINDataStagePackets = 0;
  4832                           
  4833                           ;incstack = 0
  4834  002514  0E00               	movlw	0
  4835  002516  6E4E               	movwf	_USBDeferINDataStagePackets,c	;volatile
  4836                           
  4837                           ;usb_device.c: 1491: USBDeferOUTDataStagePackets = 0;
  4838  002518  0E00               	movlw	0
  4839  00251A  0100               	movlb	0	; () banked
  4840  00251C  6F7F               	movwf	_USBDeferOUTDataStagePackets& (0+255),b	;volatile
  4841                           
  4842                           ; BSR set to: 0
  4843                           ;usb_device.c: 1493: if(controlTransferState == 2)
  4844  00251E  0E02               	movlw	2
  4845  002520  1855               	xorwf	_controlTransferState,w,c	;volatile
  4846  002522  A4D8               	btfss	status,2,c
  4847  002524  D01F               	goto	i2l3348
  4848                           
  4849                           ; BSR set to: 0
  4850                           ;usb_device.c: 1494: {
  4851                           ;usb_device.c: 1496: pBDTEntryEP0OutNext->CNT = 8;
  4852  002526  EE20 F001          	lfsr	2,1
  4853  00252A  5046               	movf	_pBDTEntryEP0OutNext,w,c
  4854  00252C  26D9               	addwf	fsr2l,f,c
  4855  00252E  5047               	movf	_pBDTEntryEP0OutNext+1,w,c
  4856  002530  22DA               	addwfc	fsr2h,f,c
  4857  002532  0E08               	movlw	8
  4858  002534  6EDF               	movwf	indf2,c
  4859                           
  4860                           ;usb_device.c: 1497: pBDTEntryEP0OutNext->ADR = ((uint16_t)(&CtrlTrfData));
  4861  002536  EE20 F002          	lfsr	2,2
  4862  00253A  5046               	movf	_pBDTEntryEP0OutNext,w,c
  4863  00253C  26D9               	addwf	fsr2l,f,c
  4864  00253E  5047               	movf	_pBDTEntryEP0OutNext+1,w,c
  4865  002540  22DA               	addwfc	fsr2h,f,c
  4866  002542  0E38               	movlw	56
  4867  002544  6EDE               	movwf	postinc2,c
  4868  002546  0E0D               	movlw	13
  4869  002548  6EDD               	movwf	postdec2,c
  4870                           
  4871                           ; BSR set to: 0
  4872                           ;usb_device.c: 1498: pBDTEntryEP0OutNext->STAT.Val = 0x40|(0x08 & 0x08);
  4873  00254A  C046  FFD9         	movff	_pBDTEntryEP0OutNext,fsr2l
  4874  00254E  C047  FFDA         	movff	_pBDTEntryEP0OutNext+1,fsr2h
  4875  002552  0E48               	movlw	72
  4876  002554  6EDF               	movwf	indf2,c
  4877                           
  4878                           ; BSR set to: 0
  4879                           ;usb_device.c: 1499: pBDTEntryEP0OutNext->STAT.Val |= 0x80;
  4880  002556  C046  FFD9         	movff	_pBDTEntryEP0OutNext,fsr2l
  4881  00255A  C047  FFDA         	movff	_pBDTEntryEP0OutNext+1,fsr2h
  4882  00255E  0E00               	movlw	0
  4883  002560  8EDB               	bsf	plusw2,7,c
  4884                           
  4885                           ;usb_device.c: 1500: }
  4886  002562  0012               	return	
  4887  002564                     i2l3348:
  4888                           
  4889                           ; BSR set to: 0
  4890                           ;usb_device.c: 1501: else
  4891                           ;usb_device.c: 1502: {
  4892                           ;usb_device.c: 1505: if(SetupPkt.wLength < inPipes[0].wCount.Val)
  4893  002564  505C               	movf	_inPipes+4,w,c	;volatile
  4894  002566  010D               	movlb	13	; () banked
  4895  002568  5D36               	subwf	54,w,b	;volatile
  4896  00256A  505D               	movf	_inPipes+5,w,c	;volatile
  4897  00256C  010D               	movlb	13	; () banked
  4898  00256E  5937               	subwfb	55,w,b	;volatile
  4899  002570  B0D8               	btfsc	status,0,c
  4900  002572  D005               	goto	i2l3352
  4901                           
  4902                           ; BSR set to: 13
  4903                           ;usb_device.c: 1506: {
  4904                           ;usb_device.c: 1507: inPipes[0].wCount.Val = SetupPkt.wLength;
  4905  002574  CD36 F05C          	movff	3382,_inPipes+4	;volatile
  4906  002578  CD37 F05D          	movff	3383,_inPipes+5	;volatile
  4907  00257C  D000               	goto	i2l3352
  4908  00257E                     i2l3352:
  4909                           
  4910                           ; BSR set to: 13
  4911                           ;usb_device.c: 1508: }
  4912                           ;usb_device.c: 1509: USBCtrlTrfTxService();
  4913  00257E  ECEF  F00E         	call	_USBCtrlTrfTxService	;wreg free
  4914                           
  4915                           ;usb_device.c: 1514: pBDTEntryIn[0]->ADR = ((uint16_t)(&CtrlTrfData));
  4916  002582  EE20 F002          	lfsr	2,2
  4917  002586  503C               	movf	_pBDTEntryIn,w,c
  4918  002588  26D9               	addwf	fsr2l,f,c
  4919  00258A  503D               	movf	_pBDTEntryIn+1,w,c
  4920  00258C  22DA               	addwfc	fsr2h,f,c
  4921  00258E  0E38               	movlw	56
  4922  002590  6EDE               	movwf	postinc2,c
  4923  002592  0E0D               	movlw	13
  4924  002594  6EDD               	movwf	postdec2,c
  4925                           
  4926                           ;usb_device.c: 1515: pBDTEntryIn[0]->STAT.Val = 0x40|(0x08 & 0x08);
  4927  002596  C03C  FFD9         	movff	_pBDTEntryIn,fsr2l
  4928  00259A  C03D  FFDA         	movff	_pBDTEntryIn+1,fsr2h
  4929  00259E  0E48               	movlw	72
  4930  0025A0  6EDF               	movwf	indf2,c
  4931                           
  4932                           ;usb_device.c: 1516: pBDTEntryIn[0]->STAT.Val |= 0x80;
  4933  0025A2  C03C  FFD9         	movff	_pBDTEntryIn,fsr2l
  4934  0025A6  C03D  FFDA         	movff	_pBDTEntryIn+1,fsr2h
  4935  0025AA  0E00               	movlw	0
  4936  0025AC  8EDB               	bsf	plusw2,7,c
  4937  0025AE  0012               	return	
  4938  0025B0  0012               	return		;funcret
  4939  0025B2                     __end_of_USBCtrlEPAllowDataStage:
  4940                           	opt stack 0
  4941                           pclatu	equ	0xFFB
  4942                           pclath	equ	0xFFA
  4943                           tblptru	equ	0xFF8
  4944                           tblptrh	equ	0xFF7
  4945                           tblptrl	equ	0xFF6
  4946                           tablat	equ	0xFF5
  4947                           prodh	equ	0xFF4
  4948                           prodl	equ	0xFF3
  4949                           intcon	equ	0xFF2
  4950                           postinc0	equ	0xFEE
  4951                           fsr0h	equ	0xFEA
  4952                           fsr0l	equ	0xFE9
  4953                           wreg	equ	0xFE8
  4954                           indf1	equ	0xFE7
  4955                           fsr1h	equ	0xFE2
  4956                           fsr1l	equ	0xFE1
  4957                           indf2	equ	0xFDF
  4958                           postinc2	equ	0xFDE
  4959                           postdec2	equ	0xFDD
  4960                           plusw2	equ	0xFDB
  4961                           fsr2h	equ	0xFDA
  4962                           fsr2l	equ	0xFD9
  4963                           status	equ	0xFD8
  4964                           
  4965 ;; *************** function _USBCheckStdRequest *****************
  4966 ;; Defined at:
  4967 ;;		line 2689 in file "../../../../../../framework/usb/src/usb_device.c"
  4968 ;; Parameters:    Size  Location     Type
  4969 ;;		None
  4970 ;; Auto vars:     Size  Location     Type
  4971 ;;		None
  4972 ;; Return value:  Size  Location     Type
  4973 ;;		None               void
  4974 ;; Registers used:
  4975 ;;		wreg, fsr0l, fsr0h, fsr2l, fsr2h, status,2, status,0, tblptrl, tblptrh, tblptru, prodl, prodh, cstack
  4976 ;; Tracked objects:
  4977 ;;		On entry : 0/0
  4978 ;;		On exit  : 0/0
  4979 ;;		Unchanged: 0/0
  4980 ;; Data sizes:     COMRAM   BANK0   BANK1   BANK2   BANK3   BANK4   BANK5   BANK6   BANK7   BANK8   BANK9  BANK10  BANK1
      +1  BANK12  BANK13  BANK14
  4981 ;;      Params:         0       0       0       0       0       0       0       0       0       0       0       0       
      +0       0       0       0
  4982 ;;      Locals:         0       0       0       0       0       0       0       0       0       0       0       0       
      +0       0       0       0
  4983 ;;      Temps:          0       0       0       0       0       0       0       0       0       0       0       0       
      +0       0       0       0
  4984 ;;      Totals:         0       0       0       0       0       0       0       0       0       0       0       0       
      +0       0       0       0
  4985 ;;Total ram usage:        0 bytes
  4986 ;; Hardware stack levels used:    1
  4987 ;; Hardware stack levels required when called:    6
  4988 ;; This function calls:
  4989 ;;		_USBStdFeatureReqHandler
  4990 ;;		_USBStdGetDscHandler
  4991 ;;		_USBStdGetStatusHandler
  4992 ;;		_USBStdSetCfgHandler
  4993 ;;		_USER_USB_CALLBACK_EVENT_HANDLER
  4994 ;; This function is called by:
  4995 ;;		_USBCtrlTrfSetupHandler
  4996 ;; This function uses a non-reentrant model
  4997 ;;
  4998                           
  4999                           	psect	text24
  5000  001CFC                     __ptext24:
  5001                           	opt stack 0
  5002  001CFC                     _USBCheckStdRequest:
  5003                           	opt stack 17
  5004                           
  5005                           ;usb_device.c: 2691: if(SetupPkt.RequestType != (0x00>>5)) return;
  5006                           
  5007                           ;incstack = 0
  5008  001CFC  010D               	movlb	13	; () banked
  5009  001CFE  3930               	swapf	48,w,b	;volatile
  5010  001D00  32E8               	rrcf	wreg,f,c
  5011  001D02  0B03               	andlw	3
  5012  001D04  0900               	iorlw	0
  5013  001D06  A4D8               	btfss	status,2,c
  5014  001D08  0012               	return	
  5015  001D0A  D046               	goto	i2l3676
  5016                           
  5017                           ; BSR set to: 13
  5018  001D0C  0012               	return	
  5019                           
  5020                           ; BSR set to: 13
  5021                           ;usb_device.c: 2693: switch(SetupPkt.bRequest)
  5022  001D0E  D044               	goto	i2l3676
  5023  001D10                     i2l664:
  5024                           
  5025                           ; BSR set to: 13
  5026                           ;usb_device.c: 2696: inPipes[0].info.bits.busy = 1;
  5027  001D10  8E5B               	bsf	_inPipes+3,7,c	;volatile
  5028                           
  5029                           ; BSR set to: 13
  5030                           ;usb_device.c: 2697: USBDeviceState = ADR_PENDING_STATE;
  5031  001D12  0E08               	movlw	8
  5032  001D14  6E50               	movwf	_USBDeviceState,c	;volatile
  5033                           
  5034                           ;usb_device.c: 2699: break;
  5035  001D16  0012               	return	
  5036  001D18                     i2l3646:
  5037                           
  5038                           ; BSR set to: 13
  5039                           ;usb_device.c: 2701: USBStdGetDscHandler();
  5040  001D18  EC7E  F00C         	call	_USBStdGetDscHandler	;wreg free
  5041                           
  5042                           ;usb_device.c: 2702: break;
  5043  001D1C  0012               	return	
  5044  001D1E                     i2l3648:
  5045                           
  5046                           ;usb_device.c: 2704: USBStdSetCfgHandler();
  5047  001D1E  EC60  F00F         	call	_USBStdSetCfgHandler	;wreg free
  5048                           
  5049                           ;usb_device.c: 2705: break;
  5050  001D22  0012               	return	
  5051  001D24                     i2l3650:
  5052                           
  5053                           ;usb_device.c: 2707: inPipes[0].pSrc.bRam = (uint8_t*)&USBActiveConfiguration;
  5054  001D24  0E5E               	movlw	low _USBActiveConfiguration
  5055  001D26  6E58               	movwf	_inPipes,c	;volatile
  5056  001D28  0E00               	movlw	high _USBActiveConfiguration
  5057  001D2A  6E59               	movwf	_inPipes+1,c	;volatile
  5058                           
  5059                           ;usb_device.c: 2708: inPipes[0].info.bits.ctrl_trf_mem = 0x01;
  5060  001D2C  805B               	bsf	_inPipes+3,0,c	;volatile
  5061                           
  5062                           ;usb_device.c: 2709: inPipes[0].wCount.v[0] = 1;
  5063  001D2E  0E01               	movlw	1
  5064  001D30  6E5C               	movwf	_inPipes+4,c	;volatile
  5065                           
  5066                           ;usb_device.c: 2710: inPipes[0].info.bits.busy = 1;
  5067  001D32  8E5B               	bsf	_inPipes+3,7,c	;volatile
  5068                           
  5069                           ;usb_device.c: 2711: break;
  5070  001D34  0012               	return	
  5071  001D36                     i2l3658:
  5072                           
  5073                           ;usb_device.c: 2713: USBStdGetStatusHandler();
  5074  001D36  EC2F  F012         	call	_USBStdGetStatusHandler	;wreg free
  5075                           
  5076                           ;usb_device.c: 2714: break;
  5077  001D3A  0012               	return	
  5078                           
  5079                           ;usb_device.c: 2715: case 1:
  5080  001D3C  D000               	goto	i2l3660
  5081  001D3E                     i2l3660:
  5082                           
  5083                           ;usb_device.c: 2716: case 3:
  5084                           ;usb_device.c: 2717: USBStdFeatureReqHandler();
  5085  001D3E  ECE6  F007         	call	_USBStdFeatureReqHandler	;wreg free
  5086                           
  5087                           ;usb_device.c: 2718: break;
  5088  001D42  0012               	return	
  5089  001D44                     i2l3662:
  5090                           
  5091                           ;usb_device.c: 2720: inPipes[0].pSrc.bRam = (uint8_t*)&USBAlternateInterface[SetupPkt.bI
      +                          ntfID];
  5092  001D44  010D               	movlb	13	; () banked
  5093  001D46  5134               	movf	52,w,b	;volatile
  5094  001D48  0D01               	mullw	1
  5095  001D4A  0EDD               	movlw	low _USBAlternateInterface
  5096  001D4C  24F3               	addwf	prodl,w,c
  5097  001D4E  6E58               	movwf	_inPipes,c	;volatile
  5098  001D50  0E00               	movlw	high _USBAlternateInterface
  5099  001D52  20F4               	addwfc	prodh,w,c
  5100  001D54  6E59               	movwf	_inPipes+1,c	;volatile
  5101                           
  5102                           ; BSR set to: 13
  5103                           ;usb_device.c: 2721: inPipes[0].info.bits.ctrl_trf_mem = 0x01;
  5104  001D56  805B               	bsf	_inPipes+3,0,c	;volatile
  5105                           
  5106                           ; BSR set to: 13
  5107                           ;usb_device.c: 2722: inPipes[0].wCount.v[0] = 1;
  5108  001D58  0E01               	movlw	1
  5109  001D5A  6E5C               	movwf	_inPipes+4,c	;volatile
  5110                           
  5111                           ; BSR set to: 13
  5112                           ;usb_device.c: 2723: inPipes[0].info.bits.busy = 1;
  5113  001D5C  8E5B               	bsf	_inPipes+3,7,c	;volatile
  5114                           
  5115                           ;usb_device.c: 2724: break;
  5116  001D5E  0012               	return	
  5117  001D60                     i2l673:
  5118                           
  5119                           ; BSR set to: 13
  5120                           ;usb_device.c: 2726: inPipes[0].info.bits.busy = 1;
  5121  001D60  8E5B               	bsf	_inPipes+3,7,c	;volatile
  5122                           
  5123                           ; BSR set to: 13
  5124                           ;usb_device.c: 2727: USBAlternateInterface[SetupPkt.bIntfID] = SetupPkt.bAltID;
  5125  001D62  010D               	movlb	13	; () banked
  5126  001D64  5134               	movf	52,w,b	;volatile
  5127  001D66  0D01               	mullw	1
  5128  001D68  0EDD               	movlw	low _USBAlternateInterface
  5129  001D6A  24F3               	addwf	prodl,w,c
  5130  001D6C  6ED9               	movwf	fsr2l,c
  5131  001D6E  0E00               	movlw	high _USBAlternateInterface
  5132  001D70  20F4               	addwfc	prodh,w,c
  5133  001D72  6EDA               	movwf	fsr2h,c
  5134  001D74  CD32 FFDF          	movff	3378,indf2	;volatile
  5135                           
  5136                           ;usb_device.c: 2728: break;
  5137  001D78  0012               	return	
  5138  001D7A                     i2l3672:
  5139                           
  5140                           ; BSR set to: 13
  5141                           ;usb_device.c: 2730: USER_USB_CALLBACK_EVENT_HANDLER(EVENT_SET_DESCRIPTOR,0,0);
  5142  001D7A  0E00               	movlw	0
  5143  001D7C  6E0F               	movwf	USER_USB_CALLBACK_EVENT_HANDLER@event+1,c
  5144  001D7E  0E02               	movlw	2
  5145  001D80  6E0E               	movwf	USER_USB_CALLBACK_EVENT_HANDLER@event,c
  5146  001D82  0E00               	movlw	0
  5147  001D84  6E10               	movwf	USER_USB_CALLBACK_EVENT_HANDLER@pdata,c
  5148  001D86  0E00               	movlw	0
  5149  001D88  6E11               	movwf	USER_USB_CALLBACK_EVENT_HANDLER@pdata+1,c
  5150  001D8A  0E00               	movlw	0
  5151  001D8C  6E13               	movwf	USER_USB_CALLBACK_EVENT_HANDLER@size+1,c
  5152  001D8E  0E00               	movlw	0
  5153  001D90  6E12               	movwf	USER_USB_CALLBACK_EVENT_HANDLER@size,c
  5154  001D92  EC2C  F014         	call	_USER_USB_CALLBACK_EVENT_HANDLER	;wreg free
  5155                           
  5156                           ;usb_device.c: 2735: }
  5157                           
  5158                           ;usb_device.c: 2734: break;
  5159                           
  5160                           ;usb_device.c: 2733: default:
  5161                           
  5162                           ;usb_device.c: 2732: case 12:
  5163                           
  5164                           ;usb_device.c: 2731: break;
  5165  001D96  0012               	return	
  5166  001D98                     i2l3676:
  5167  001D98  010D               	movlb	13	; () banked
  5168  001D9A  5131               	movf	49,w,b	;volatile
  5169                           
  5170                           ; Switch size 1, requested type "space"
  5171                           ; Number of cases is 11, Range of values is 0 to 12
  5172                           ; switch strategies available:
  5173                           ; Name         Instructions Cycles
  5174                           ; simple_byte           34    18 (average)
  5175                           ;	Chosen strategy is simple_byte
  5176  001D9C  0A00               	xorlw	0	; case 0
  5177  001D9E  B4D8               	btfsc	status,2,c
  5178  001DA0  D7CA               	goto	i2l3658
  5179  001DA2  0A01               	xorlw	1	; case 1
  5180  001DA4  B4D8               	btfsc	status,2,c
  5181  001DA6  D7CB               	goto	i2l3660
  5182  001DA8  0A02               	xorlw	2	; case 3
  5183  001DAA  B4D8               	btfsc	status,2,c
  5184  001DAC  D7C8               	goto	i2l3660
  5185  001DAE  0A06               	xorlw	6	; case 5
  5186  001DB0  B4D8               	btfsc	status,2,c
  5187  001DB2  D7AE               	goto	i2l664
  5188  001DB4  0A03               	xorlw	3	; case 6
  5189  001DB6  B4D8               	btfsc	status,2,c
  5190  001DB8  D7AF               	goto	i2l3646
  5191  001DBA  0A01               	xorlw	1	; case 7
  5192  001DBC  B4D8               	btfsc	status,2,c
  5193  001DBE  D7DD               	goto	i2l3672
  5194  001DC0  0A0F               	xorlw	15	; case 8
  5195  001DC2  B4D8               	btfsc	status,2,c
  5196  001DC4  D7AF               	goto	i2l3650
  5197  001DC6  0A01               	xorlw	1	; case 9
  5198  001DC8  B4D8               	btfsc	status,2,c
  5199  001DCA  D7A9               	goto	i2l3648
  5200  001DCC  0A03               	xorlw	3	; case 10
  5201  001DCE  B4D8               	btfsc	status,2,c
  5202  001DD0  D7B9               	goto	i2l3662
  5203  001DD2  0A01               	xorlw	1	; case 11
  5204  001DD4  B4D8               	btfsc	status,2,c
  5205  001DD6  D7C4               	goto	i2l673
  5206  001DD8  0A07               	xorlw	7	; case 12
  5207  001DDA  0012               	return	
  5208                           
  5209                           ; BSR set to: 13
  5210  001DDC  0012               	return		;funcret
  5211  001DDE                     __end_of_USBCheckStdRequest:
  5212                           	opt stack 0
  5213                           pclatu	equ	0xFFB
  5214                           pclath	equ	0xFFA
  5215                           tblptru	equ	0xFF8
  5216                           tblptrh	equ	0xFF7
  5217                           tblptrl	equ	0xFF6
  5218                           tablat	equ	0xFF5
  5219                           prodh	equ	0xFF4
  5220                           prodl	equ	0xFF3
  5221                           intcon	equ	0xFF2
  5222                           postinc0	equ	0xFEE
  5223                           fsr0h	equ	0xFEA
  5224                           fsr0l	equ	0xFE9
  5225                           wreg	equ	0xFE8
  5226                           indf1	equ	0xFE7
  5227                           fsr1h	equ	0xFE2
  5228                           fsr1l	equ	0xFE1
  5229                           indf2	equ	0xFDF
  5230                           postinc2	equ	0xFDE
  5231                           postdec2	equ	0xFDD
  5232                           plusw2	equ	0xFDB
  5233                           fsr2h	equ	0xFDA
  5234                           fsr2l	equ	0xFD9
  5235                           status	equ	0xFD8
  5236                           
  5237 ;; *************** function _USBStdSetCfgHandler *****************
  5238 ;; Defined at:
  5239 ;;		line 1968 in file "../../../../../../framework/usb/src/usb_device.c"
  5240 ;; Parameters:    Size  Location     Type
  5241 ;;		None
  5242 ;; Auto vars:     Size  Location     Type
  5243 ;;  i               1   21[COMRAM] unsigned char 
  5244 ;; Return value:  Size  Location     Type
  5245 ;;		None               void
  5246 ;; Registers used:
  5247 ;;		wreg, fsr2l, fsr2h, status,2, status,0, prodl, prodh, cstack
  5248 ;; Tracked objects:
  5249 ;;		On entry : 0/0
  5250 ;;		On exit  : 0/0
  5251 ;;		Unchanged: 0/0
  5252 ;; Data sizes:     COMRAM   BANK0   BANK1   BANK2   BANK3   BANK4   BANK5   BANK6   BANK7   BANK8   BANK9  BANK10  BANK1
      +1  BANK12  BANK13  BANK14
  5253 ;;      Params:         0       0       0       0       0       0       0       0       0       0       0       0       
      +0       0       0       0
  5254 ;;      Locals:         1       0       0       0       0       0       0       0       0       0       0       0       
      +0       0       0       0
  5255 ;;      Temps:          0       0       0       0       0       0       0       0       0       0       0       0       
      +0       0       0       0
  5256 ;;      Totals:         1       0       0       0       0       0       0       0       0       0       0       0       
      +0       0       0       0
  5257 ;;Total ram usage:        1 bytes
  5258 ;; Hardware stack levels used:    1
  5259 ;; Hardware stack levels required when called:    5
  5260 ;; This function calls:
  5261 ;;		_USER_USB_CALLBACK_EVENT_HANDLER
  5262 ;;		i2_memset
  5263 ;; This function is called by:
  5264 ;;		_USBCheckStdRequest
  5265 ;; This function uses a non-reentrant model
  5266 ;;
  5267                           
  5268                           	psect	text25
  5269  001EC0                     __ptext25:
  5270                           	opt stack 0
  5271  001EC0                     _USBStdSetCfgHandler:
  5272                           	opt stack 17
  5273                           
  5274                           ;usb_device.c: 1970: uint8_t i;
  5275                           ;usb_device.c: 1973: inPipes[0].info.bits.busy = 1;
  5276                           
  5277                           ;incstack = 0
  5278  001EC0  8E5B               	bsf	_inPipes+3,7,c	;volatile
  5279                           
  5280                           ;usb_device.c: 1976: memset((void*)&UEP1,0x00,(2));;
  5281  001EC2  0E27               	movlw	39
  5282  001EC4  6E01               	movwf	i2memset@p1,c
  5283  001EC6  0E0F               	movlw	15
  5284  001EC8  6E02               	movwf	i2memset@p1+1,c
  5285  001ECA  0E00               	movlw	0
  5286  001ECC  6E04               	movwf	i2memset@c+1,c
  5287  001ECE  0E00               	movlw	0
  5288  001ED0  6E03               	movwf	i2memset@c,c
  5289  001ED2  0E00               	movlw	0
  5290  001ED4  6E06               	movwf	i2memset@n+1,c
  5291  001ED6  0E02               	movlw	2
  5292  001ED8  6E05               	movwf	i2memset@n,c
  5293  001EDA  ECC4  F015         	call	i2_memset	;wreg free
  5294                           
  5295                           ;usb_device.c: 1979: memset((void*)&BDT[0], 0x00, sizeof(BDT));
  5296  001EDE  0E00               	movlw	0
  5297  001EE0  6E01               	movwf	i2memset@p1,c
  5298  001EE2  0E0D               	movlw	13
  5299  001EE4  6E02               	movwf	i2memset@p1+1,c
  5300  001EE6  0E00               	movlw	0
  5301  001EE8  6E04               	movwf	i2memset@c+1,c
  5302  001EEA  0E00               	movlw	0
  5303  001EEC  6E03               	movwf	i2memset@c,c
  5304  001EEE  0E00               	movlw	0
  5305  001EF0  6E06               	movwf	i2memset@n+1,c
  5306  001EF2  0E30               	movlw	48
  5307  001EF4  6E05               	movwf	i2memset@n,c
  5308  001EF6  ECC4  F015         	call	i2_memset	;wreg free
  5309                           
  5310                           ;usb_device.c: 1982: UCONbits.PPBRST = 1;
  5311  001EFA  8C65               	bsf	3941,6,c	;volatile
  5312                           
  5313                           ;usb_device.c: 1987: for(i = 0; i < (uint8_t)(2+1u); i++)
  5314  001EFC  0E00               	movlw	0
  5315  001EFE  6E16               	movwf	USBStdSetCfgHandler@i,c
  5316  001F00                     i2l3368:
  5317  001F00  0E02               	movlw	2
  5318  001F02  6416               	cpfsgt	USBStdSetCfgHandler@i,c
  5319  001F04  D001               	goto	i2l3372
  5320  001F06  D016               	goto	i2l3378
  5321  001F08                     i2l3372:
  5322                           
  5323                           ;usb_device.c: 1988: {
  5324                           ;usb_device.c: 1989: ep_data_in[i].Val = 0u;
  5325  001F08  5016               	movf	USBStdSetCfgHandler@i,w,c
  5326  001F0A  0D01               	mullw	1
  5327  001F0C  0E6A               	movlw	low _ep_data_in
  5328  001F0E  24F3               	addwf	prodl,w,c
  5329  001F10  6ED9               	movwf	fsr2l,c
  5330  001F12  0E00               	movlw	high _ep_data_in
  5331  001F14  20F4               	addwfc	prodh,w,c
  5332  001F16  6EDA               	movwf	fsr2h,c
  5333  001F18  0E00               	movlw	0
  5334  001F1A  6EDF               	movwf	indf2,c
  5335                           
  5336                           ;usb_device.c: 1990: ep_data_out[i].Val = 0u;
  5337  001F1C  5016               	movf	USBStdSetCfgHandler@i,w,c
  5338  001F1E  0D01               	mullw	1
  5339  001F20  0E6D               	movlw	low _ep_data_out
  5340  001F22  24F3               	addwf	prodl,w,c
  5341  001F24  6ED9               	movwf	fsr2l,c
  5342  001F26  0E00               	movlw	high _ep_data_out
  5343  001F28  20F4               	addwfc	prodh,w,c
  5344  001F2A  6EDA               	movwf	fsr2h,c
  5345  001F2C  0E00               	movlw	0
  5346  001F2E  6EDF               	movwf	indf2,c
  5347  001F30  2A16               	incf	USBStdSetCfgHandler@i,f,c
  5348  001F32  D7E6               	goto	i2l3368
  5349  001F34                     i2l3378:
  5350                           
  5351                           ;usb_device.c: 1991: }
  5352                           ;usb_device.c: 1994: memset((void*)&USBAlternateInterface,0x00,2);
  5353  001F34  0EDD               	movlw	low _USBAlternateInterface
  5354  001F36  6E01               	movwf	i2memset@p1,c
  5355  001F38  0E00               	movlw	high _USBAlternateInterface
  5356  001F3A  6E02               	movwf	i2memset@p1+1,c
  5357  001F3C  0E00               	movlw	0
  5358  001F3E  6E04               	movwf	i2memset@c+1,c
  5359  001F40  0E00               	movlw	0
  5360  001F42  6E03               	movwf	i2memset@c,c
  5361  001F44  0E00               	movlw	0
  5362  001F46  6E06               	movwf	i2memset@n+1,c
  5363  001F48  0E02               	movlw	2
  5364  001F4A  6E05               	movwf	i2memset@n,c
  5365  001F4C  ECC4  F015         	call	i2_memset	;wreg free
  5366                           
  5367                           ;usb_device.c: 1997: UCONbits.PPBRST = 0;
  5368  001F50  9C65               	bcf	3941,6,c	;volatile
  5369                           
  5370                           ;usb_device.c: 1999: pBDTEntryIn[0] = (volatile BDT_ENTRY*)&BDT[2];
  5371  001F52  0E08               	movlw	8
  5372  001F54  6E3C               	movwf	_pBDTEntryIn,c
  5373  001F56  0E0D               	movlw	13
  5374  001F58  6E3D               	movwf	_pBDTEntryIn+1,c
  5375                           
  5376                           ;usb_device.c: 2002: pBDTEntryEP0OutCurrent = (volatile BDT_ENTRY*)&BDT[0];
  5377  001F5A  0E00               	movlw	0
  5378  001F5C  6E44               	movwf	_pBDTEntryEP0OutCurrent,c
  5379  001F5E  0E0D               	movlw	13
  5380  001F60  6E45               	movwf	_pBDTEntryEP0OutCurrent+1,c
  5381                           
  5382                           ;usb_device.c: 2003: pBDTEntryEP0OutNext = pBDTEntryEP0OutCurrent;
  5383  001F62  C044  F046         	movff	_pBDTEntryEP0OutCurrent,_pBDTEntryEP0OutNext
  5384  001F66  C045  F047         	movff	_pBDTEntryEP0OutCurrent+1,_pBDTEntryEP0OutNext+1
  5385                           
  5386                           ;usb_device.c: 2006: USBActiveConfiguration = SetupPkt.bConfigurationValue;
  5387  001F6A  CD32 F05E          	movff	3378,_USBActiveConfiguration	;volatile
  5388                           
  5389                           ;usb_device.c: 2009: if(USBActiveConfiguration == 0)
  5390  001F6E  505E               	movf	_USBActiveConfiguration,w,c	;volatile
  5391  001F70  A4D8               	btfss	status,2,c
  5392  001F72  D003               	goto	i2l3394
  5393                           
  5394                           ;usb_device.c: 2010: {
  5395                           ;usb_device.c: 2012: USBDeviceState = ADDRESS_STATE;
  5396  001F74  0E10               	movlw	16
  5397  001F76  6E50               	movwf	_USBDeviceState,c	;volatile
  5398                           
  5399                           ;usb_device.c: 2013: }
  5400  001F78  0012               	return	
  5401  001F7A                     i2l3394:
  5402                           
  5403                           ;usb_device.c: 2014: else
  5404                           ;usb_device.c: 2015: {
  5405                           ;usb_device.c: 2017: USER_USB_CALLBACK_EVENT_HANDLER(EVENT_CONFIGURED,(void*)&USBActiveC
      +                          onfiguration,1);
  5406  001F7A  0E00               	movlw	0
  5407  001F7C  6E0F               	movwf	USER_USB_CALLBACK_EVENT_HANDLER@event+1,c
  5408  001F7E  0E01               	movlw	1
  5409  001F80  6E0E               	movwf	USER_USB_CALLBACK_EVENT_HANDLER@event,c
  5410  001F82  0E5E               	movlw	low _USBActiveConfiguration
  5411  001F84  6E10               	movwf	USER_USB_CALLBACK_EVENT_HANDLER@pdata,c
  5412  001F86  0E00               	movlw	high _USBActiveConfiguration
  5413  001F88  6E11               	movwf	USER_USB_CALLBACK_EVENT_HANDLER@pdata+1,c
  5414  001F8A  0E00               	movlw	0
  5415  001F8C  6E13               	movwf	USER_USB_CALLBACK_EVENT_HANDLER@size+1,c
  5416  001F8E  0E01               	movlw	1
  5417  001F90  6E12               	movwf	USER_USB_CALLBACK_EVENT_HANDLER@size,c
  5418  001F92  EC2C  F014         	call	_USER_USB_CALLBACK_EVENT_HANDLER	;wreg free
  5419                           
  5420                           ;usb_device.c: 2022: USBDeviceState = CONFIGURED_STATE;
  5421  001F96  0E20               	movlw	32
  5422  001F98  6E50               	movwf	_USBDeviceState,c	;volatile
  5423  001F9A  0012               	return	
  5424  001F9C  0012               	return		;funcret
  5425  001F9E                     __end_of_USBStdSetCfgHandler:
  5426                           	opt stack 0
  5427                           pclatu	equ	0xFFB
  5428                           pclath	equ	0xFFA
  5429                           tblptru	equ	0xFF8
  5430                           tblptrh	equ	0xFF7
  5431                           tblptrl	equ	0xFF6
  5432                           tablat	equ	0xFF5
  5433                           prodh	equ	0xFF4
  5434                           prodl	equ	0xFF3
  5435                           intcon	equ	0xFF2
  5436                           postinc0	equ	0xFEE
  5437                           fsr0h	equ	0xFEA
  5438                           fsr0l	equ	0xFE9
  5439                           wreg	equ	0xFE8
  5440                           indf1	equ	0xFE7
  5441                           fsr1h	equ	0xFE2
  5442                           fsr1l	equ	0xFE1
  5443                           indf2	equ	0xFDF
  5444                           postinc2	equ	0xFDE
  5445                           postdec2	equ	0xFDD
  5446                           plusw2	equ	0xFDB
  5447                           fsr2h	equ	0xFDA
  5448                           fsr2l	equ	0xFD9
  5449                           status	equ	0xFD8
  5450                           
  5451 ;; *************** function i2_memset *****************
  5452 ;; Defined at:
  5453 ;;		line 8 in file "C:\Program Files (x86)\Microchip\xc8\v1.34\sources\common\memset.c"
  5454 ;; Parameters:    Size  Location     Type
  5455 ;;  p1              2    0[COMRAM] PTR void 
  5456 ;;		 -> USBAlternateInterface(2), BDT(48), UEP1(1), 
  5457 ;;  c               2    2[COMRAM] int 
  5458 ;;  n               2    4[COMRAM] unsigned int 
  5459 ;; Auto vars:     Size  Location     Type
  5460 ;;  memset          2    6[COMRAM] PTR unsigned char 
  5461 ;;		 -> USBAlternateInterface(2), BDT(48), UEP1(1), 
  5462 ;; Return value:  Size  Location     Type
  5463 ;;                  2    0[COMRAM] PTR void 
  5464 ;; Registers used:
  5465 ;;		wreg, fsr2l, fsr2h, status,2, status,0
  5466 ;; Tracked objects:
  5467 ;;		On entry : 0/0
  5468 ;;		On exit  : 0/0
  5469 ;;		Unchanged: 0/0
  5470 ;; Data sizes:     COMRAM   BANK0   BANK1   BANK2   BANK3   BANK4   BANK5   BANK6   BANK7   BANK8   BANK9  BANK10  BANK1
      +1  BANK12  BANK13  BANK14
  5471 ;;      Params:         6       0       0       0       0       0       0       0       0       0       0       0       
      +0       0       0       0
  5472 ;;      Locals:         2       0       0       0       0       0       0       0       0       0       0       0       
      +0       0       0       0
  5473 ;;      Temps:          0       0       0       0       0       0       0       0       0       0       0       0       
      +0       0       0       0
  5474 ;;      Totals:         8       0       0       0       0       0       0       0       0       0       0       0       
      +0       0       0       0
  5475 ;;Total ram usage:        8 bytes
  5476 ;; Hardware stack levels used:    1
  5477 ;; This function calls:
  5478 ;;		Nothing
  5479 ;; This function is called by:
  5480 ;;		_USBStdSetCfgHandler
  5481 ;;		i2_USBDeviceInit
  5482 ;; This function uses a non-reentrant model
  5483 ;;
  5484                           
  5485                           	psect	text26
  5486  002B88                     __ptext26:
  5487                           	opt stack 0
  5488  002B88                     i2_memset:
  5489                           	opt stack 24
  5490                           
  5491                           ;incstack = 0
  5492  002B88  C001  F007         	movff	i2memset@p1,i2memset@p
  5493  002B8C  C002  F008         	movff	i2memset@p1+1,i2memset@p+1
  5494  002B90  D009               	goto	i2l3292
  5495  002B92                     i2l3288:
  5496  002B92  C007  FFD9         	movff	i2memset@p,fsr2l
  5497  002B96  C008  FFDA         	movff	i2memset@p+1,fsr2h
  5498  002B9A  C003  FFDF         	movff	i2memset@c,indf2
  5499  002B9E  4A07               	infsnz	i2memset@p,f,c
  5500  002BA0  2A08               	incf	i2memset@p+1,f,c
  5501  002BA2  D000               	goto	i2l3292
  5502  002BA4                     i2l3292:
  5503  002BA4  0605               	decf	i2memset@n,f,c
  5504  002BA6  A0D8               	btfss	status,0,c
  5505  002BA8  0606               	decf	i2memset@n+1,f,c
  5506  002BAA  2805               	incf	i2memset@n,w,c
  5507  002BAC  E1F2               	bnz	i2l3288
  5508  002BAE  2806               	incf	i2memset@n+1,w,c
  5509  002BB0  A4D8               	btfss	status,2,c
  5510  002BB2  D7EF               	goto	i2l3288
  5511                           
  5512                           ;	Return value of i2_memset is never used
  5513  002BB4  0012               	return		;funcret
  5514  002BB6                     __end_ofi2_memset:
  5515                           	opt stack 0
  5516                           pclatu	equ	0xFFB
  5517                           pclath	equ	0xFFA
  5518                           tblptru	equ	0xFF8
  5519                           tblptrh	equ	0xFF7
  5520                           tblptrl	equ	0xFF6
  5521                           tablat	equ	0xFF5
  5522                           prodh	equ	0xFF4
  5523                           prodl	equ	0xFF3
  5524                           intcon	equ	0xFF2
  5525                           postinc0	equ	0xFEE
  5526                           fsr0h	equ	0xFEA
  5527                           fsr0l	equ	0xFE9
  5528                           wreg	equ	0xFE8
  5529                           indf1	equ	0xFE7
  5530                           fsr1h	equ	0xFE2
  5531                           fsr1l	equ	0xFE1
  5532                           indf2	equ	0xFDF
  5533                           postinc2	equ	0xFDE
  5534                           postdec2	equ	0xFDD
  5535                           plusw2	equ	0xFDB
  5536                           fsr2h	equ	0xFDA
  5537                           fsr2l	equ	0xFD9
  5538                           status	equ	0xFD8
  5539                           
  5540 ;; *************** function _USBStdGetStatusHandler *****************
  5541 ;; Defined at:
  5542 ;;		line 2129 in file "../../../../../../framework/usb/src/usb_device.c"
  5543 ;; Parameters:    Size  Location     Type
  5544 ;;		None
  5545 ;; Auto vars:     Size  Location     Type
  5546 ;;  p               2    1[COMRAM] PTR struct __BDT
  5547 ;;		 -> BDT(48), NULL(0), 
  5548 ;; Return value:  Size  Location     Type
  5549 ;;		None               void
  5550 ;; Registers used:
  5551 ;;		wreg, fsr2l, fsr2h, status,2, status,0, prodl, prodh
  5552 ;; Tracked objects:
  5553 ;;		On entry : 0/0
  5554 ;;		On exit  : 0/0
  5555 ;;		Unchanged: 0/0
  5556 ;; Data sizes:     COMRAM   BANK0   BANK1   BANK2   BANK3   BANK4   BANK5   BANK6   BANK7   BANK8   BANK9  BANK10  BANK1
      +1  BANK12  BANK13  BANK14
  5557 ;;      Params:         0       0       0       0       0       0       0       0       0       0       0       0       
      +0       0       0       0
  5558 ;;      Locals:         2       0       0       0       0       0       0       0       0       0       0       0       
      +0       0       0       0
  5559 ;;      Temps:          1       0       0       0       0       0       0       0       0       0       0       0       
      +0       0       0       0
  5560 ;;      Totals:         3       0       0       0       0       0       0       0       0       0       0       0       
      +0       0       0       0
  5561 ;;Total ram usage:        3 bytes
  5562 ;; Hardware stack levels used:    1
  5563 ;; This function calls:
  5564 ;;		Nothing
  5565 ;; This function is called by:
  5566 ;;		_USBCheckStdRequest
  5567 ;; This function uses a non-reentrant model
  5568 ;;
  5569                           
  5570                           	psect	text27
  5571  00245E                     __ptext27:
  5572                           	opt stack 0
  5573  00245E                     _USBStdGetStatusHandler:
  5574                           	opt stack 22
  5575                           
  5576                           ;usb_device.c: 2131: CtrlTrfData[0] = 0;
  5577                           
  5578                           ;incstack = 0
  5579  00245E  0E00               	movlw	0
  5580  002460  010D               	movlb	13	; () banked
  5581  002462  6F38               	movwf	56,b	;volatile
  5582                           
  5583                           ;usb_device.c: 2132: CtrlTrfData[1] = 0;
  5584  002464  0E00               	movlw	0
  5585  002466  010D               	movlb	13	; () banked
  5586  002468  6F39               	movwf	57,b	;volatile
  5587                           
  5588                           ;usb_device.c: 2134: switch(SetupPkt.Recipient)
  5589  00246A  D03D               	goto	i2l3450
  5590  00246C                     i2l600:
  5591                           
  5592                           ; BSR set to: 13
  5593                           ;usb_device.c: 2137: inPipes[0].info.bits.busy = 1;
  5594  00246C  8E5B               	bsf	_inPipes+3,7,c	;volatile
  5595                           
  5596                           ;usb_device.c: 2142: if(0 == 1)
  5597  00246E  D003               	goto	i2l3434
  5598                           
  5599                           ; BSR set to: 13
  5600                           ;usb_device.c: 2143: {
  5601                           ;usb_device.c: 2144: CtrlTrfData[0]|=0x01;
  5602  002470  010D               	movlb	13	; () banked
  5603  002472  8138               	bsf	56,0,b	;volatile
  5604  002474  D000               	goto	i2l3434
  5605  002476                     i2l3434:
  5606                           
  5607                           ; BSR set to: 13
  5608                           ;usb_device.c: 2145: }
  5609                           ;usb_device.c: 2147: if(RemoteWakeup == 1)
  5610  002476  044D               	decf	_RemoteWakeup,w,c	;volatile
  5611  002478  A4D8               	btfss	status,2,c
  5612  00247A  D041               	goto	i2l603
  5613                           
  5614                           ; BSR set to: 13
  5615                           ;usb_device.c: 2148: {
  5616                           ;usb_device.c: 2149: CtrlTrfData[0]|=0x02;
  5617  00247C  010D               	movlb	13	; () banked
  5618  00247E  8338               	bsf	56,1,b	;volatile
  5619                           
  5620                           ; BSR set to: 13
  5621                           ;usb_device.c: 2150: }
  5622                           ;usb_device.c: 2151: break;
  5623  002480  D03E               	goto	i2l603
  5624  002482                     i2l604:
  5625                           
  5626                           ; BSR set to: 13
  5627                           ;usb_device.c: 2153: inPipes[0].info.bits.busy = 1;
  5628  002482  8E5B               	bsf	_inPipes+3,7,c	;volatile
  5629                           
  5630                           ;usb_device.c: 2154: break;
  5631  002484  D03C               	goto	i2l603
  5632  002486                     i2l605:
  5633                           
  5634                           ; BSR set to: 13
  5635                           ;usb_device.c: 2156: inPipes[0].info.bits.busy = 1;
  5636  002486  8E5B               	bsf	_inPipes+3,7,c	;volatile
  5637                           
  5638                           ;usb_device.c: 2160: {
  5639                           ;usb_device.c: 2161: BDT_ENTRY *p;
  5640                           ;usb_device.c: 2163: if(SetupPkt.EPDir == 0)
  5641  002488  010D               	movlb	13	; () banked
  5642  00248A  BF34               	btfsc	52,7,b	;volatile
  5643  00248C  D00B               	goto	i2l3440
  5644                           
  5645                           ; BSR set to: 13
  5646                           ;usb_device.c: 2164: {
  5647                           ;usb_device.c: 2165: p = (BDT_ENTRY*)pBDTEntryOut[SetupPkt.EPNum];
  5648  00248E  010D               	movlb	13	; () banked
  5649  002490  5134               	movf	52,w,b	;volatile
  5650  002492  0B0F               	andlw	15
  5651  002494  6E01               	movwf	??_USBStdGetStatusHandler& (0+255),c
  5652  002496  5001               	movf	??_USBStdGetStatusHandler,w,c
  5653  002498  0D02               	mullw	2
  5654  00249A  0E60               	movlw	low _pBDTEntryOut
  5655  00249C  24F3               	addwf	prodl,w,c
  5656  00249E  6ED9               	movwf	fsr2l,c
  5657  0024A0  0E00               	movlw	high _pBDTEntryOut
  5658  0024A2  D00A               	goto	L5
  5659  0024A4                     i2l3440:
  5660                           
  5661                           ; BSR set to: 13
  5662                           ;usb_device.c: 2167: else
  5663                           ;usb_device.c: 2168: {
  5664                           ;usb_device.c: 2169: p = (BDT_ENTRY*)pBDTEntryIn[SetupPkt.EPNum];
  5665  0024A4  010D               	movlb	13	; () banked
  5666  0024A6  5134               	movf	52,w,b	;volatile
  5667  0024A8  0B0F               	andlw	15
  5668  0024AA  6E01               	movwf	??_USBStdGetStatusHandler& (0+255),c
  5669  0024AC  5001               	movf	??_USBStdGetStatusHandler,w,c
  5670  0024AE  0D02               	mullw	2
  5671  0024B0  0E3C               	movlw	low _pBDTEntryIn
  5672  0024B2  24F3               	addwf	prodl,w,c
  5673  0024B4  6ED9               	movwf	fsr2l,c
  5674  0024B6  0E00               	movlw	high _pBDTEntryIn
  5675  0024B8                     L5:
  5676  0024B8  20F4               	addwfc	prodh,w,c
  5677  0024BA  6EDA               	movwf	fsr2h,c
  5678  0024BC  CFDE F002          	movff	postinc2,USBStdGetStatusHandler@p
  5679  0024C0  CFDD F003          	movff	postdec2,USBStdGetStatusHandler@p+1
  5680  0024C4  D000               	goto	i2l3442
  5681  0024C6                     i2l3442:
  5682                           
  5683                           ; BSR set to: 13
  5684                           ;usb_device.c: 2170: }
  5685                           ;usb_device.c: 2172: if((p->STAT.UOWN == 1) && (p->STAT.BSTALL == 1))
  5686  0024C6  C002  FFD9         	movff	USBStdGetStatusHandler@p,fsr2l
  5687  0024CA  C003  FFDA         	movff	USBStdGetStatusHandler@p+1,fsr2h
  5688  0024CE  AEDF               	btfss	indf2,7,c
  5689  0024D0  D016               	goto	i2l603
  5690                           
  5691                           ; BSR set to: 13
  5692  0024D2  C002  FFD9         	movff	USBStdGetStatusHandler@p,fsr2l
  5693  0024D6  C003  FFDA         	movff	USBStdGetStatusHandler@p+1,fsr2h
  5694  0024DA  A4DF               	btfss	indf2,2,c
  5695  0024DC  D010               	goto	i2l603
  5696                           
  5697                           ; BSR set to: 13
  5698                           ;usb_device.c: 2173: CtrlTrfData[0]=0x01;
  5699  0024DE  0E01               	movlw	1
  5700  0024E0  010D               	movlb	13	; () banked
  5701  0024E2  6F38               	movwf	56,b	;volatile
  5702                           
  5703                           ; BSR set to: 13
  5704                           ;usb_device.c: 2175: }
  5705                           ;usb_device.c: 2176: }
  5706                           
  5707                           ; BSR set to: 13
  5708                           ;usb_device.c: 2174: break;
  5709  0024E4  D00C               	goto	i2l603
  5710  0024E6                     i2l3450:
  5711                           
  5712                           ; BSR set to: 13
  5713  0024E6  010D               	movlb	13	; () banked
  5714  0024E8  5130               	movf	48,w,b	;volatile
  5715  0024EA  0B1F               	andlw	31
  5716                           
  5717                           ; Switch size 1, requested type "space"
  5718                           ; Number of cases is 3, Range of values is 0 to 2
  5719                           ; switch strategies available:
  5720                           ; Name         Instructions Cycles
  5721                           ; simple_byte           10     6 (average)
  5722                           ;	Chosen strategy is simple_byte
  5723  0024EC  0A00               	xorlw	0	; case 0
  5724  0024EE  B4D8               	btfsc	status,2,c
  5725  0024F0  D7BD               	goto	i2l600
  5726  0024F2  0A01               	xorlw	1	; case 1
  5727  0024F4  B4D8               	btfsc	status,2,c
  5728  0024F6  D7C5               	goto	i2l604
  5729  0024F8  0A03               	xorlw	3	; case 2
  5730  0024FA  B4D8               	btfsc	status,2,c
  5731  0024FC  D7C4               	goto	i2l605
  5732  0024FE                     i2l603:
  5733                           
  5734                           ; BSR set to: 13
  5735                           ;usb_device.c: 2178: if(inPipes[0].info.bits.busy == 1)
  5736  0024FE  AE5B               	btfss	_inPipes+3,7,c	;volatile
  5737  002500  0012               	return	
  5738                           
  5739                           ; BSR set to: 13
  5740                           ;usb_device.c: 2179: {
  5741                           ;usb_device.c: 2180: inPipes[0].pSrc.bRam = (uint8_t*)&CtrlTrfData;
  5742  002502  0E38               	movlw	56
  5743  002504  6E58               	movwf	_inPipes,c	;volatile
  5744  002506  0E0D               	movlw	13
  5745  002508  6E59               	movwf	_inPipes+1,c	;volatile
  5746                           
  5747                           ; BSR set to: 13
  5748                           ;usb_device.c: 2181: inPipes[0].info.bits.ctrl_trf_mem = 0x01;
  5749  00250A  805B               	bsf	_inPipes+3,0,c	;volatile
  5750                           
  5751                           ; BSR set to: 13
  5752                           ;usb_device.c: 2182: inPipes[0].wCount.v[0] = 2;
  5753  00250C  0E02               	movlw	2
  5754  00250E  6E5C               	movwf	_inPipes+4,c	;volatile
  5755  002510  0012               	return	
  5756                           
  5757                           ; BSR set to: 13
  5758                           
  5759                           ; BSR set to: 13
  5760  002512  0012               	return		;funcret
  5761  002514                     __end_of_USBStdGetStatusHandler:
  5762                           	opt stack 0
  5763                           pclatu	equ	0xFFB
  5764                           pclath	equ	0xFFA
  5765                           tblptru	equ	0xFF8
  5766                           tblptrh	equ	0xFF7
  5767                           tblptrl	equ	0xFF6
  5768                           tablat	equ	0xFF5
  5769                           prodh	equ	0xFF4
  5770                           prodl	equ	0xFF3
  5771                           intcon	equ	0xFF2
  5772                           postinc0	equ	0xFEE
  5773                           fsr0h	equ	0xFEA
  5774                           fsr0l	equ	0xFE9
  5775                           wreg	equ	0xFE8
  5776                           indf1	equ	0xFE7
  5777                           fsr1h	equ	0xFE2
  5778                           fsr1l	equ	0xFE1
  5779                           indf2	equ	0xFDF
  5780                           postinc2	equ	0xFDE
  5781                           postdec2	equ	0xFDD
  5782                           plusw2	equ	0xFDB
  5783                           fsr2h	equ	0xFDA
  5784                           fsr2l	equ	0xFD9
  5785                           status	equ	0xFD8
  5786                           
  5787 ;; *************** function _USBStdGetDscHandler *****************
  5788 ;; Defined at:
  5789 ;;		line 2043 in file "../../../../../../framework/usb/src/usb_device.c"
  5790 ;; Parameters:    Size  Location     Type
  5791 ;;		None
  5792 ;; Auto vars:     Size  Location     Type
  5793 ;;		None
  5794 ;; Return value:  Size  Location     Type
  5795 ;;		None               void
  5796 ;; Registers used:
  5797 ;;		wreg, fsr0l, fsr0h, status,2, status,0, tblptrl, tblptrh, tblptru, prodl, prodh
  5798 ;; Tracked objects:
  5799 ;;		On entry : 0/0
  5800 ;;		On exit  : 0/0
  5801 ;;		Unchanged: 0/0
  5802 ;; Data sizes:     COMRAM   BANK0   BANK1   BANK2   BANK3   BANK4   BANK5   BANK6   BANK7   BANK8   BANK9  BANK10  BANK1
      +1  BANK12  BANK13  BANK14
  5803 ;;      Params:         0       0       0       0       0       0       0       0       0       0       0       0       
      +0       0       0       0
  5804 ;;      Locals:         0       0       0       0       0       0       0       0       0       0       0       0       
      +0       0       0       0
  5805 ;;      Temps:          2       0       0       0       0       0       0       0       0       0       0       0       
      +0       0       0       0
  5806 ;;      Totals:         2       0       0       0       0       0       0       0       0       0       0       0       
      +0       0       0       0
  5807 ;;Total ram usage:        2 bytes
  5808 ;; Hardware stack levels used:    1
  5809 ;; This function calls:
  5810 ;;		Nothing
  5811 ;; This function is called by:
  5812 ;;		_USBCheckStdRequest
  5813 ;; This function uses a non-reentrant model
  5814 ;;
  5815                           
  5816                           	psect	text28
  5817  0018FC                     __ptext28:
  5818                           	opt stack 0
  5819  0018FC                     _USBStdGetDscHandler:
  5820                           	opt stack 22
  5821                           
  5822                           ;usb_device.c: 2045: if(SetupPkt.bmRequestType == 0x80)
  5823                           
  5824                           ; BSR set to: 13
  5825                           ;incstack = 0
  5826  0018FC  0E80               	movlw	128
  5827  0018FE  010D               	movlb	13	; () banked
  5828  001900  1930               	xorwf	48,w,b	;volatile
  5829  001902  A4D8               	btfss	status,2,c
  5830  001904  0012               	return	
  5831                           
  5832                           ; BSR set to: 13
  5833                           ;usb_device.c: 2046: {
  5834                           ;usb_device.c: 2047: inPipes[0].info.Val = 0x00 | 0x80 | 0x40;
  5835  001906  0EC0               	movlw	192
  5836  001908  6E5B               	movwf	_inPipes+3,c	;volatile
  5837                           
  5838                           ;usb_device.c: 2049: switch(SetupPkt.bDescriptorType)
  5839  00190A  D085               	goto	i2l3428
  5840  00190C                     i2l3402:
  5841                           
  5842                           ; BSR set to: 13
  5843                           ;usb_device.c: 2055: inPipes[0].pSrc.bRom = (const uint8_t*)&device_dsc;
  5844  00190C  0EB4               	movlw	low _device_dsc
  5845  00190E  6E58               	movwf	_inPipes,c	;volatile
  5846  001910  0E0F               	movlw	high _device_dsc
  5847  001912  6E59               	movwf	_inPipes+1,c	;volatile
  5848                           
  5849                           ; BSR set to: 13
  5850                           ;usb_device.c: 2057: inPipes[0].wCount.Val = sizeof(device_dsc);
  5851  001914  0E00               	movlw	0
  5852  001916  6E5D               	movwf	_inPipes+5,c	;volatile
  5853  001918  0E12               	movlw	18
  5854  00191A  6E5C               	movwf	_inPipes+4,c	;volatile
  5855                           
  5856                           ;usb_device.c: 2058: break;
  5857  00191C  0012               	return	
  5858  00191E                     i2l3406:
  5859                           
  5860                           ; BSR set to: 13
  5861                           ;usb_device.c: 2063: if(SetupPkt.bDscIndex < 1)
  5862  00191E  010D               	movlb	13	; () banked
  5863  001920  5132               	movf	50,w,b	;volatile
  5864  001922  A4D8               	btfss	status,2,c
  5865  001924  D043               	goto	i2l3414
  5866                           
  5867                           ; BSR set to: 13
  5868                           ;usb_device.c: 2064: {
  5869                           ;usb_device.c: 2068: inPipes[0].pSrc.bRom = *(USB_CD_Ptr+SetupPkt.bDscIndex);
  5870  001926  010D               	movlb	13	; () banked
  5871  001928  5132               	movf	50,w,b	;volatile
  5872  00192A  0D02               	mullw	2
  5873  00192C  0E07               	movlw	low _USB_CD_Ptr
  5874  00192E  24F3               	addwf	prodl,w,c
  5875  001930  6EF6               	movwf	tblptrl,c
  5876  001932  0E0F               	movlw	high _USB_CD_Ptr
  5877  001934  20F4               	addwfc	prodh,w,c
  5878  001936  6EF7               	movwf	tblptrh,c
  5879  001938                     	if	1	;There are 3 active tblptr bytes
  5880  001938  6AF8               	clrf	tblptru,c
  5881  00193A  0E00               	movlw	low (__mediumconst shr (0+16))
  5882  00193C  22F8               	addwfc	tblptru,f,c
  5883  00193E                     	endif
  5884  00193E  0009               	tblrd		*+
  5885  001940  CFF5 F058          	movff	tablat,_inPipes	;volatile
  5886  001944  000A               	tblrd		*-
  5887  001946  CFF5 F059          	movff	tablat,_inPipes+1	;volatile
  5888                           
  5889                           ; BSR set to: 13
  5890                           ;usb_device.c: 2074: inPipes[0].wCount.byte.LB = *(inPipes[0].pSrc.bRom+2);
  5891  00194A  0E02               	movlw	2
  5892  00194C  2458               	addwf	_inPipes,w,c	;volatile
  5893  00194E  6E01               	movwf	??_USBStdGetDscHandler& (0+255),c
  5894  001950  0E00               	movlw	0
  5895  001952  2059               	addwfc	_inPipes+1,w,c	;volatile
  5896  001954  6E02               	movwf	(??_USBStdGetDscHandler+1)& (0+255),c
  5897  001956  C001  FFF6         	movff	??_USBStdGetDscHandler,tblptrl
  5898  00195A  C002  FFF7         	movff	??_USBStdGetDscHandler+1,tblptrh
  5899  00195E  0E00               	movlw	low (__smallconst shr (0+16))
  5900  001960  6EF8               	movwf	tblptru,c
  5901  001962  0E0E               	movlw	(high __ramtop+-1)
  5902  001964  64F7               	cpfsgt	tblptrh,c
  5903  001966  D003               	bra	i2u236_47
  5904  001968  0008               	tblrd		*
  5905  00196A  50F5               	movf	tablat,w,c
  5906  00196C  D005               	bra	i2u236_40
  5907  00196E                     i2u236_47:
  5908  00196E  CFF6 FFE9          	movff	tblptrl,fsr0l
  5909  001972  CFF7 FFEA          	movff	tblptrh,fsr0h
  5910  001976  50EF               	movf	indf0,w,c
  5911  001978                     i2u236_40:
  5912  001978  6E5C               	movwf	_inPipes+4,c	;volatile
  5913                           
  5914                           ;usb_device.c: 2075: inPipes[0].wCount.byte.HB = *(inPipes[0].pSrc.bRom+3);
  5915  00197A  0E03               	movlw	3
  5916  00197C  2458               	addwf	_inPipes,w,c	;volatile
  5917  00197E  6E01               	movwf	??_USBStdGetDscHandler& (0+255),c
  5918  001980  0E00               	movlw	0
  5919  001982  2059               	addwfc	_inPipes+1,w,c	;volatile
  5920  001984  6E02               	movwf	(??_USBStdGetDscHandler+1)& (0+255),c
  5921  001986  C001  FFF6         	movff	??_USBStdGetDscHandler,tblptrl
  5922  00198A  C002  FFF7         	movff	??_USBStdGetDscHandler+1,tblptrh
  5923  00198E  0E00               	movlw	low (__smallconst shr (0+16))
  5924  001990  6EF8               	movwf	tblptru,c
  5925  001992  0E0E               	movlw	(high __ramtop+-1)
  5926  001994  64F7               	cpfsgt	tblptrh,c
  5927  001996  D003               	bra	i2u237_47
  5928  001998  0008               	tblrd		*
  5929  00199A  50F5               	movf	tablat,w,c
  5930  00199C  D005               	bra	i2u237_40
  5931  00199E                     i2u237_47:
  5932  00199E  CFF6 FFE9          	movff	tblptrl,fsr0l
  5933  0019A2  CFF7 FFEA          	movff	tblptrh,fsr0h
  5934  0019A6  50EF               	movf	indf0,w,c
  5935  0019A8                     i2u237_40:
  5936  0019A8  6E5D               	movwf	_inPipes+5,c	;volatile
  5937                           
  5938                           ;usb_device.c: 2076: }
  5939  0019AA  0012               	return	
  5940  0019AC                     i2l3414:
  5941                           
  5942                           ;usb_device.c: 2077: else
  5943                           ;usb_device.c: 2078: {
  5944                           ;usb_device.c: 2079: inPipes[0].info.Val = 0;
  5945  0019AC  0E00               	movlw	0
  5946  0019AE  6E5B               	movwf	_inPipes+3,c	;volatile
  5947                           
  5948                           ;usb_device.c: 2080: }
  5949                           ;usb_device.c: 2081: break;
  5950  0019B0  0012               	return	
  5951  0019B2                     i2l3416:
  5952                           
  5953                           ;usb_device.c: 2086: if(SetupPkt.bDscIndex<3)
  5954  0019B2  0E03               	movlw	3
  5955  0019B4  010D               	movlb	13	; () banked
  5956  0019B6  6132               	cpfslt	50,b	;volatile
  5957  0019B8  D028               	goto	i2l3422
  5958                           
  5959                           ; BSR set to: 13
  5960                           ;usb_device.c: 2087: {
  5961                           ;usb_device.c: 2089: inPipes[0].pSrc.bRom = *(USB_SD_Ptr+SetupPkt.bDscIndex);
  5962  0019BA  010D               	movlb	13	; () banked
  5963  0019BC  5132               	movf	50,w,b	;volatile
  5964  0019BE  0D02               	mullw	2
  5965  0019C0  0E01               	movlw	low _USB_SD_Ptr
  5966  0019C2  24F3               	addwf	prodl,w,c
  5967  0019C4  6EF6               	movwf	tblptrl,c
  5968  0019C6  0E0F               	movlw	high _USB_SD_Ptr
  5969  0019C8  20F4               	addwfc	prodh,w,c
  5970  0019CA  6EF7               	movwf	tblptrh,c
  5971  0019CC                     	if	1	;There are 3 active tblptr bytes
  5972  0019CC  6AF8               	clrf	tblptru,c
  5973  0019CE  0E00               	movlw	low (__mediumconst shr (0+16))
  5974  0019D0  22F8               	addwfc	tblptru,f,c
  5975  0019D2                     	endif
  5976  0019D2  0009               	tblrd		*+
  5977  0019D4  CFF5 F058          	movff	tablat,_inPipes	;volatile
  5978  0019D8  000A               	tblrd		*-
  5979  0019DA  CFF5 F059          	movff	tablat,_inPipes+1	;volatile
  5980                           
  5981                           ; BSR set to: 13
  5982                           ;usb_device.c: 2091: inPipes[0].wCount.Val = *inPipes[0].pSrc.bRom;
  5983  0019DE  C058  FFF6         	movff	_inPipes,tblptrl	;volatile
  5984  0019E2  C059  FFF7         	movff	_inPipes+1,tblptrh	;volatile
  5985  0019E6  0E00               	movlw	low (__smallconst shr (0+16))
  5986  0019E8  6EF8               	movwf	tblptru,c
  5987  0019EA  0E0E               	movlw	(high __ramtop+-1)
  5988  0019EC  64F7               	cpfsgt	tblptrh,c
  5989  0019EE  D003               	bra	i2u239_47
  5990  0019F0  0008               	tblrd		*
  5991  0019F2  50F5               	movf	tablat,w,c
  5992  0019F4  D005               	bra	i2u239_40
  5993  0019F6                     i2u239_47:
  5994  0019F6  CFF6 FFE9          	movff	tblptrl,fsr0l
  5995  0019FA  CFF7 FFEA          	movff	tblptrh,fsr0h
  5996  0019FE  50EF               	movf	indf0,w,c
  5997  001A00                     i2u239_40:
  5998  001A00  6E01               	movwf	??_USBStdGetDscHandler& (0+255),c
  5999  001A02  5001               	movf	??_USBStdGetDscHandler,w,c
  6000  001A04  6E5C               	movwf	_inPipes+4,c	;volatile
  6001  001A06  6A5D               	clrf	_inPipes+5,c	;volatile
  6002                           
  6003                           ;usb_device.c: 2092: }
  6004  001A08  0012               	return	
  6005  001A0A                     i2l3422:
  6006                           
  6007                           ;usb_device.c: 2102: else
  6008                           ;usb_device.c: 2103: {
  6009                           ;usb_device.c: 2104: inPipes[0].info.Val = 0;
  6010  001A0A  0E00               	movlw	0
  6011  001A0C  6E5B               	movwf	_inPipes+3,c	;volatile
  6012                           
  6013                           ;usb_device.c: 2105: }
  6014                           ;usb_device.c: 2106: break;
  6015  001A0E  0012               	return	
  6016  001A10                     i2l3424:
  6017                           
  6018                           ;usb_device.c: 2108: inPipes[0].info.Val = 0;
  6019  001A10  0E00               	movlw	0
  6020  001A12  6E5B               	movwf	_inPipes+3,c	;volatile
  6021                           
  6022                           ;usb_device.c: 2110: }
  6023                           
  6024                           ;usb_device.c: 2109: break;
  6025  001A14  0012               	return	
  6026  001A16                     i2l3428:
  6027  001A16  010D               	movlb	13	; () banked
  6028  001A18  5133               	movf	51,w,b	;volatile
  6029                           
  6030                           ; Switch size 1, requested type "space"
  6031                           ; Number of cases is 3, Range of values is 1 to 3
  6032                           ; switch strategies available:
  6033                           ; Name         Instructions Cycles
  6034                           ; simple_byte           10     6 (average)
  6035                           ;	Chosen strategy is simple_byte
  6036  001A1A  0A01               	xorlw	1	; case 1
  6037  001A1C  B4D8               	btfsc	status,2,c
  6038  001A1E  D776               	goto	i2l3402
  6039  001A20  0A03               	xorlw	3	; case 2
  6040  001A22  B4D8               	btfsc	status,2,c
  6041  001A24  D77C               	goto	i2l3406
  6042  001A26  0A01               	xorlw	1	; case 3
  6043  001A28  B4D8               	btfsc	status,2,c
  6044  001A2A  D7C3               	goto	i2l3416
  6045  001A2C  D7F1               	goto	i2l3424
  6046                           
  6047                           ; BSR set to: 13
  6048  001A2E  0012               	return	
  6049                           
  6050                           ; BSR set to: 13
  6051  001A30  0012               	return		;funcret
  6052  001A32                     __end_of_USBStdGetDscHandler:
  6053                           	opt stack 0
  6054                           pclatu	equ	0xFFB
  6055                           pclath	equ	0xFFA
  6056                           tblptru	equ	0xFF8
  6057                           tblptrh	equ	0xFF7
  6058                           tblptrl	equ	0xFF6
  6059                           tablat	equ	0xFF5
  6060                           prodh	equ	0xFF4
  6061                           prodl	equ	0xFF3
  6062                           intcon	equ	0xFF2
  6063                           indf0	equ	0xFEF
  6064                           postinc0	equ	0xFEE
  6065                           fsr0h	equ	0xFEA
  6066                           fsr0l	equ	0xFE9
  6067                           wreg	equ	0xFE8
  6068                           indf1	equ	0xFE7
  6069                           fsr1h	equ	0xFE2
  6070                           fsr1l	equ	0xFE1
  6071                           indf2	equ	0xFDF
  6072                           postinc2	equ	0xFDE
  6073                           postdec2	equ	0xFDD
  6074                           plusw2	equ	0xFDB
  6075                           fsr2h	equ	0xFDA
  6076                           fsr2l	equ	0xFD9
  6077                           status	equ	0xFD8
  6078                           
  6079 ;; *************** function _USBStdFeatureReqHandler *****************
  6080 ;; Defined at:
  6081 ;;		line 2757 in file "../../../../../../framework/usb/src/usb_device.c"
  6082 ;; Parameters:    Size  Location     Type
  6083 ;;		None
  6084 ;; Auto vars:     Size  Location     Type
  6085 ;;  p               2   25[COMRAM] PTR struct __BDT
  6086 ;;		 -> BDT(48), NULL(0), 
  6087 ;;  pUEP            2   22[COMRAM] PTR unsigned char 
  6088 ;;		 -> UEP0(1), 
  6089 ;;  current_ep_d    1   24[COMRAM] struct .
  6090 ;; Return value:  Size  Location     Type
  6091 ;;		None               void
  6092 ;; Registers used:
  6093 ;;		wreg, fsr2l, fsr2h, status,2, status,0, prodl, prodh, cstack
  6094 ;; Tracked objects:
  6095 ;;		On entry : 0/0
  6096 ;;		On exit  : 0/0
  6097 ;;		Unchanged: 0/0
  6098 ;; Data sizes:     COMRAM   BANK0   BANK1   BANK2   BANK3   BANK4   BANK5   BANK6   BANK7   BANK8   BANK9  BANK10  BANK1
      +1  BANK12  BANK13  BANK14
  6099 ;;      Params:         0       0       0       0       0       0       0       0       0       0       0       0       
      +0       0       0       0
  6100 ;;      Locals:         5       0       0       0       0       0       0       0       0       0       0       0       
      +0       0       0       0
  6101 ;;      Temps:          1       0       0       0       0       0       0       0       0       0       0       0       
      +0       0       0       0
  6102 ;;      Totals:         6       0       0       0       0       0       0       0       0       0       0       0       
      +0       0       0       0
  6103 ;;Total ram usage:        6 bytes
  6104 ;; Hardware stack levels used:    1
  6105 ;; Hardware stack levels required when called:    5
  6106 ;; This function calls:
  6107 ;;		_USER_USB_CALLBACK_EVENT_HANDLER
  6108 ;; This function is called by:
  6109 ;;		_USBCheckStdRequest
  6110 ;; This function uses a non-reentrant model
  6111 ;;
  6112                           
  6113                           	psect	text29
  6114  000FCC                     __ptext29:
  6115                           	opt stack 0
  6116  000FCC                     _USBStdFeatureReqHandler:
  6117                           	opt stack 17
  6118                           
  6119                           ;usb_device.c: 2759: BDT_ENTRY *p;
  6120                           ;usb_device.c: 2760: EP_STATUS current_ep_data;
  6121                           ;usb_device.c: 2764: unsigned char* pUEP;
  6122                           ;usb_device.c: 2802: if((SetupPkt.bFeature == 1)&&
  6123                           ;usb_device.c: 2803: (SetupPkt.Recipient == (0x00)))
  6124                           
  6125                           ;incstack = 0
  6126  000FCC  010D               	movlb	13	; () banked
  6127  000FCE  0532               	decf	50,w,b	;volatile
  6128  000FD0  A4D8               	btfss	status,2,c
  6129  000FD2  D011               	goto	i2l679
  6130                           
  6131                           ; BSR set to: 13
  6132  000FD4  010D               	movlb	13	; () banked
  6133  000FD6  5130               	movf	48,w,b	;volatile
  6134  000FD8  0B1F               	andlw	31
  6135  000FDA  0900               	iorlw	0
  6136  000FDC  A4D8               	btfss	status,2,c
  6137  000FDE  D00B               	goto	i2l679
  6138                           
  6139                           ; BSR set to: 13
  6140                           ;usb_device.c: 2804: {
  6141                           ;usb_device.c: 2805: inPipes[0].info.bits.busy = 1;
  6142  000FE0  8E5B               	bsf	_inPipes+3,7,c	;volatile
  6143                           
  6144                           ; BSR set to: 13
  6145                           ;usb_device.c: 2806: if(SetupPkt.bRequest == 3)
  6146  000FE2  0E03               	movlw	3
  6147  000FE4  010D               	movlb	13	; () banked
  6148  000FE6  1931               	xorwf	49,w,b	;volatile
  6149  000FE8  A4D8               	btfss	status,2,c
  6150  000FEA  D002               	goto	i2l3468
  6151                           
  6152                           ; BSR set to: 13
  6153                           ;usb_device.c: 2807: RemoteWakeup = 1;
  6154  000FEC  0E01               	movlw	1
  6155  000FEE  D001               	goto	L6
  6156  000FF0                     i2l3468:
  6157                           
  6158                           ; BSR set to: 13
  6159                           ;usb_device.c: 2808: else
  6160                           ;usb_device.c: 2809: RemoteWakeup = 0;
  6161  000FF0  0E00               	movlw	0
  6162  000FF2                     L6:
  6163  000FF2  6E4D               	movwf	_RemoteWakeup,c	;volatile
  6164  000FF4  D000               	goto	i2l679
  6165  000FF6                     i2l679:
  6166                           
  6167                           ; BSR set to: 13
  6168                           ;usb_device.c: 2810: }
  6169                           ;usb_device.c: 2813: if((SetupPkt.bFeature == 0)&&
  6170                           ;usb_device.c: 2814: (SetupPkt.Recipient == (0x02))&&
  6171                           ;usb_device.c: 2815: (SetupPkt.EPNum != 0) && (SetupPkt.EPNum <= 2)&&
  6172                           ;usb_device.c: 2816: (USBDeviceState == CONFIGURED_STATE))
  6173  000FF6  010D               	movlb	13	; () banked
  6174  000FF8  5132               	movf	50,w,b	;volatile
  6175  000FFA  A4D8               	btfss	status,2,c
  6176  000FFC  0012               	return	
  6177                           
  6178                           ; BSR set to: 13
  6179  000FFE  010D               	movlb	13	; () banked
  6180  001000  5130               	movf	48,w,b	;volatile
  6181  001002  0B1F               	andlw	31
  6182  001004  0A02               	xorlw	2
  6183  001006  A4D8               	btfss	status,2,c
  6184  001008  0012               	return	
  6185                           
  6186                           ; BSR set to: 13
  6187  00100A  010D               	movlb	13	; () banked
  6188  00100C  5134               	movf	52,w,b	;volatile
  6189  00100E  0B0F               	andlw	15
  6190  001010  0900               	iorlw	0
  6191  001012  B4D8               	btfsc	status,2,c
  6192  001014  0012               	return	
  6193                           
  6194                           ; BSR set to: 13
  6195  001016  010D               	movlb	13	; () banked
  6196  001018  5134               	movf	52,w,b	;volatile
  6197  00101A  0B0F               	andlw	15
  6198  00101C  6E16               	movwf	??_USBStdFeatureReqHandler& (0+255),c
  6199  00101E  0E03               	movlw	3
  6200  001020  6016               	cpfslt	??_USBStdFeatureReqHandler,c
  6201  001022  0012               	return	
  6202                           
  6203                           ; BSR set to: 13
  6204  001024  0E20               	movlw	32
  6205  001026  1850               	xorwf	_USBDeviceState,w,c	;volatile
  6206  001028  A4D8               	btfss	status,2,c
  6207  00102A  0012               	return	
  6208                           
  6209                           ; BSR set to: 13
  6210                           ;usb_device.c: 2817: {
  6211                           ;usb_device.c: 2820: inPipes[0].info.bits.busy = 1;
  6212  00102C  8E5B               	bsf	_inPipes+3,7,c	;volatile
  6213                           
  6214                           ;usb_device.c: 2823: if(SetupPkt.EPDir == 0)
  6215  00102E  010D               	movlb	13	; () banked
  6216  001030  BF34               	btfsc	52,7,b	;volatile
  6217  001032  D01B               	goto	i2l3482
  6218                           
  6219                           ; BSR set to: 13
  6220                           ;usb_device.c: 2824: {
  6221                           ;usb_device.c: 2825: p = (BDT_ENTRY*)pBDTEntryOut[SetupPkt.EPNum];
  6222  001034  010D               	movlb	13	; () banked
  6223  001036  5134               	movf	52,w,b	;volatile
  6224  001038  0B0F               	andlw	15
  6225  00103A  6E16               	movwf	??_USBStdFeatureReqHandler& (0+255),c
  6226  00103C  5016               	movf	??_USBStdFeatureReqHandler,w,c
  6227  00103E  0D02               	mullw	2
  6228  001040  0E60               	movlw	low _pBDTEntryOut
  6229  001042  24F3               	addwf	prodl,w,c
  6230  001044  6ED9               	movwf	fsr2l,c
  6231  001046  0E00               	movlw	high _pBDTEntryOut
  6232  001048  20F4               	addwfc	prodh,w,c
  6233  00104A  6EDA               	movwf	fsr2h,c
  6234  00104C  CFDE F01A          	movff	postinc2,USBStdFeatureReqHandler@p
  6235  001050  CFDD F01B          	movff	postdec2,USBStdFeatureReqHandler@p+1
  6236                           
  6237                           ;usb_device.c: 2826: current_ep_data.Val = ep_data_out[SetupPkt.EPNum].Val;
  6238  001054  010D               	movlb	13	; () banked
  6239  001056  5134               	movf	52,w,b	;volatile
  6240  001058  0B0F               	andlw	15
  6241  00105A  6E16               	movwf	??_USBStdFeatureReqHandler& (0+255),c
  6242  00105C  5016               	movf	??_USBStdFeatureReqHandler,w,c
  6243  00105E  0D01               	mullw	1
  6244  001060  0E6D               	movlw	low _ep_data_out
  6245  001062  24F3               	addwf	prodl,w,c
  6246  001064  6ED9               	movwf	fsr2l,c
  6247  001066  0E00               	movlw	high _ep_data_out
  6248  001068  D01A               	goto	L7
  6249  00106A                     i2l3482:
  6250                           
  6251                           ; BSR set to: 13
  6252                           ;usb_device.c: 2828: else
  6253                           ;usb_device.c: 2829: {
  6254                           ;usb_device.c: 2830: p = (BDT_ENTRY*)pBDTEntryIn[SetupPkt.EPNum];
  6255  00106A  010D               	movlb	13	; () banked
  6256  00106C  5134               	movf	52,w,b	;volatile
  6257  00106E  0B0F               	andlw	15
  6258  001070  6E16               	movwf	??_USBStdFeatureReqHandler& (0+255),c
  6259  001072  5016               	movf	??_USBStdFeatureReqHandler,w,c
  6260  001074  0D02               	mullw	2
  6261  001076  0E3C               	movlw	low _pBDTEntryIn
  6262  001078  24F3               	addwf	prodl,w,c
  6263  00107A  6ED9               	movwf	fsr2l,c
  6264  00107C  0E00               	movlw	high _pBDTEntryIn
  6265  00107E  20F4               	addwfc	prodh,w,c
  6266  001080  6EDA               	movwf	fsr2h,c
  6267  001082  CFDE F01A          	movff	postinc2,USBStdFeatureReqHandler@p
  6268  001086  CFDD F01B          	movff	postdec2,USBStdFeatureReqHandler@p+1
  6269                           
  6270                           ;usb_device.c: 2831: current_ep_data.Val = ep_data_in[SetupPkt.EPNum].Val;
  6271  00108A  010D               	movlb	13	; () banked
  6272  00108C  5134               	movf	52,w,b	;volatile
  6273  00108E  0B0F               	andlw	15
  6274  001090  6E16               	movwf	??_USBStdFeatureReqHandler& (0+255),c
  6275  001092  5016               	movf	??_USBStdFeatureReqHandler,w,c
  6276  001094  0D01               	mullw	1
  6277  001096  0E6A               	movlw	low _ep_data_in
  6278  001098  24F3               	addwf	prodl,w,c
  6279  00109A  6ED9               	movwf	fsr2l,c
  6280  00109C  0E00               	movlw	high _ep_data_in
  6281  00109E                     L7:
  6282  00109E  20F4               	addwfc	prodh,w,c
  6283  0010A0  6EDA               	movwf	fsr2h,c
  6284  0010A2  50DF               	movf	indf2,w,c
  6285  0010A4  6E19               	movwf	USBStdFeatureReqHandler@current_ep_data,c
  6286  0010A6  D000               	goto	i2l3484
  6287  0010A8                     i2l3484:
  6288                           
  6289                           ; BSR set to: 13
  6290                           ;usb_device.c: 2832: }
  6291                           ;usb_device.c: 2838: if(current_ep_data.bits.ping_pong_state == 0)
  6292  0010A8  B019               	btfsc	USBStdFeatureReqHandler@current_ep_data,0,c
  6293  0010AA  D002               	goto	i2l3488
  6294                           
  6295                           ; BSR set to: 13
  6296                           ;usb_device.c: 2839: {
  6297                           ;usb_device.c: 2840: {((uint8_t_VAL*)&p)->Val &= ~0x0004;};
  6298  0010AC  941A               	bcf	USBStdFeatureReqHandler@p,2,c
  6299                           
  6300                           ;usb_device.c: 2841: }
  6301  0010AE  D002               	goto	i2l3490
  6302  0010B0                     i2l3488:
  6303                           
  6304                           ; BSR set to: 13
  6305                           ;usb_device.c: 2842: else
  6306                           ;usb_device.c: 2843: {
  6307                           ;usb_device.c: 2844: {((uint8_t_VAL*)&p)->Val |= 0x0004;};
  6308  0010B0  841A               	bsf	USBStdFeatureReqHandler@p,2,c
  6309  0010B2  D000               	goto	i2l3490
  6310  0010B4                     i2l3490:
  6311                           
  6312                           ; BSR set to: 13
  6313                           ;usb_device.c: 2845: }
  6314                           ;usb_device.c: 2850: if(SetupPkt.EPDir == 0)
  6315  0010B4  010D               	movlb	13	; () banked
  6316  0010B6  BF34               	btfsc	52,7,b	;volatile
  6317  0010B8  D00B               	goto	i2l3494
  6318                           
  6319                           ; BSR set to: 13
  6320                           ;usb_device.c: 2851: {
  6321                           ;usb_device.c: 2852: pBDTEntryOut[SetupPkt.EPNum] = (volatile BDT_ENTRY *)p;
  6322  0010BA  010D               	movlb	13	; () banked
  6323  0010BC  5134               	movf	52,w,b	;volatile
  6324  0010BE  0B0F               	andlw	15
  6325  0010C0  6E16               	movwf	??_USBStdFeatureReqHandler& (0+255),c
  6326  0010C2  5016               	movf	??_USBStdFeatureReqHandler,w,c
  6327  0010C4  0D02               	mullw	2
  6328  0010C6  0E60               	movlw	low _pBDTEntryOut
  6329  0010C8  24F3               	addwf	prodl,w,c
  6330  0010CA  6ED9               	movwf	fsr2l,c
  6331  0010CC  0E00               	movlw	high _pBDTEntryOut
  6332  0010CE  D00A               	goto	L8
  6333  0010D0                     i2l3494:
  6334                           
  6335                           ; BSR set to: 13
  6336                           ;usb_device.c: 2854: else
  6337                           ;usb_device.c: 2855: {
  6338                           ;usb_device.c: 2856: pBDTEntryIn[SetupPkt.EPNum] = (volatile BDT_ENTRY *)p;
  6339  0010D0  010D               	movlb	13	; () banked
  6340  0010D2  5134               	movf	52,w,b	;volatile
  6341  0010D4  0B0F               	andlw	15
  6342  0010D6  6E16               	movwf	??_USBStdFeatureReqHandler& (0+255),c
  6343  0010D8  5016               	movf	??_USBStdFeatureReqHandler,w,c
  6344  0010DA  0D02               	mullw	2
  6345  0010DC  0E3C               	movlw	low _pBDTEntryIn
  6346  0010DE  24F3               	addwf	prodl,w,c
  6347  0010E0  6ED9               	movwf	fsr2l,c
  6348  0010E2  0E00               	movlw	high _pBDTEntryIn
  6349  0010E4                     L8:
  6350  0010E4  20F4               	addwfc	prodh,w,c
  6351  0010E6  6EDA               	movwf	fsr2h,c
  6352  0010E8  C01A  FFDE         	movff	USBStdFeatureReqHandler@p,postinc2
  6353  0010EC  C01B  FFDD         	movff	USBStdFeatureReqHandler@p+1,postdec2
  6354  0010F0  D000               	goto	i2l3496
  6355  0010F2                     i2l3496:
  6356                           
  6357                           ; BSR set to: 13
  6358                           ;usb_device.c: 2857: }
  6359                           ;usb_device.c: 2860: if(SetupPkt.bRequest == 3)
  6360  0010F2  0E03               	movlw	3
  6361  0010F4  010D               	movlb	13	; () banked
  6362  0010F6  1931               	xorwf	49,w,b	;volatile
  6363  0010F8  A4D8               	btfss	status,2,c
  6364  0010FA  D030               	goto	i2l3510
  6365                           
  6366                           ; BSR set to: 13
  6367                           ;usb_device.c: 2861: {
  6368                           ;usb_device.c: 2862: if(p->STAT.UOWN == 1)
  6369  0010FC  C01A  FFD9         	movff	USBStdFeatureReqHandler@p,fsr2l
  6370  001100  C01B  FFDA         	movff	USBStdFeatureReqHandler@p+1,fsr2h
  6371  001104  AEDF               	btfss	indf2,7,c
  6372  001106  D01D               	goto	i2l3506
  6373                           
  6374                           ; BSR set to: 13
  6375                           ;usb_device.c: 2863: {
  6376                           ;usb_device.c: 2866: if(SetupPkt.EPDir == 0)
  6377  001108  010D               	movlb	13	; () banked
  6378  00110A  BF34               	btfsc	52,7,b	;volatile
  6379  00110C  D00B               	goto	i2l3504
  6380                           
  6381                           ; BSR set to: 13
  6382                           ;usb_device.c: 2867: {
  6383                           ;usb_device.c: 2868: ep_data_out[SetupPkt.EPNum].bits.transfer_terminated = 1;
  6384  00110E  010D               	movlb	13	; () banked
  6385  001110  5134               	movf	52,w,b	;volatile
  6386  001112  0B0F               	andlw	15
  6387  001114  6E16               	movwf	??_USBStdFeatureReqHandler& (0+255),c
  6388  001116  5016               	movf	??_USBStdFeatureReqHandler,w,c
  6389  001118  0D01               	mullw	1
  6390  00111A  0E6D               	movlw	low _ep_data_out
  6391  00111C  24F3               	addwf	prodl,w,c
  6392  00111E  6ED9               	movwf	fsr2l,c
  6393  001120  0E00               	movlw	high _ep_data_out
  6394  001122  D00A               	goto	L9
  6395  001124                     i2l3504:
  6396                           
  6397                           ;usb_device.c: 2870: else
  6398                           ;usb_device.c: 2871: {
  6399                           ;usb_device.c: 2872: ep_data_in[SetupPkt.EPNum].bits.transfer_terminated = 1;
  6400  001124  010D               	movlb	13	; () banked
  6401  001126  5134               	movf	52,w,b	;volatile
  6402  001128  0B0F               	andlw	15
  6403  00112A  6E16               	movwf	??_USBStdFeatureReqHandler& (0+255),c
  6404  00112C  5016               	movf	??_USBStdFeatureReqHandler,w,c
  6405  00112E  0D01               	mullw	1
  6406  001130  0E6A               	movlw	low _ep_data_in
  6407  001132  24F3               	addwf	prodl,w,c
  6408  001134  6ED9               	movwf	fsr2l,c
  6409  001136  0E00               	movlw	high _ep_data_in
  6410  001138                     L9:
  6411  001138  20F4               	addwfc	prodh,w,c
  6412  00113A  6EDA               	movwf	fsr2h,c
  6413  00113C  0100               	movlb	0	; () banked
  6414  00113E  82DF               	bsf	indf2,1,c
  6415                           
  6416                           ; BSR set to: 0
  6417  001140  D000               	goto	i2l3506
  6418  001142                     i2l3506:
  6419                           
  6420                           ;usb_device.c: 2873: }
  6421                           ;usb_device.c: 2874: }
  6422                           ;usb_device.c: 2877: p->STAT.Val |= 0x04;
  6423  001142  C01A  FFD9         	movff	USBStdFeatureReqHandler@p,fsr2l
  6424  001146  C01B  FFDA         	movff	USBStdFeatureReqHandler@p+1,fsr2h
  6425  00114A  0E00               	movlw	0
  6426  00114C  84DB               	bsf	plusw2,2,c
  6427                           
  6428                           ;usb_device.c: 2878: p->STAT.Val |= 0x80;
  6429  00114E  C01A  FFD9         	movff	USBStdFeatureReqHandler@p,fsr2l
  6430  001152  C01B  FFDA         	movff	USBStdFeatureReqHandler@p+1,fsr2h
  6431  001156  0E00               	movlw	0
  6432  001158  8EDB               	bsf	plusw2,7,c
  6433                           
  6434                           ;usb_device.c: 2879: }
  6435  00115A  0012               	return	
  6436  00115C                     i2l3510:
  6437                           
  6438                           ;usb_device.c: 2880: else
  6439                           ;usb_device.c: 2881: {
  6440                           ;usb_device.c: 2885: {((uint8_t_VAL*)&p)->Val ^= 0x0004;};
  6441  00115C  0E04               	movlw	4
  6442  00115E  1A1A               	xorwf	USBStdFeatureReqHandler@p,f,c
  6443                           
  6444                           ;usb_device.c: 2887: if(p->STAT.UOWN == 1)
  6445  001160  C01A  FFD9         	movff	USBStdFeatureReqHandler@p,fsr2l
  6446  001164  C01B  FFDA         	movff	USBStdFeatureReqHandler@p+1,fsr2h
  6447  001168  AEDF               	btfss	indf2,7,c
  6448  00116A  D01B               	goto	i2l3520
  6449                           
  6450                           ;usb_device.c: 2888: {
  6451                           ;usb_device.c: 2891: p->STAT.Val &= (~0x80);
  6452  00116C  C01A  FFD9         	movff	USBStdFeatureReqHandler@p,fsr2l
  6453  001170  C01B  FFDA         	movff	USBStdFeatureReqHandler@p+1,fsr2h
  6454  001174  0E7F               	movlw	127
  6455  001176  16DF               	andwf	indf2,f,c
  6456                           
  6457                           ;usb_device.c: 2892: p->STAT.Val |= 0x40;
  6458  001178  C01A  FFD9         	movff	USBStdFeatureReqHandler@p,fsr2l
  6459  00117C  C01B  FFDA         	movff	USBStdFeatureReqHandler@p+1,fsr2h
  6460  001180  0E00               	movlw	0
  6461  001182  8CDB               	bsf	plusw2,6,c
  6462                           
  6463                           ;usb_device.c: 2893: USER_USB_CALLBACK_EVENT_HANDLER(EVENT_TRANSFER_TERMINATED,p,sizeof(
      +                          p));
  6464  001184  0E00               	movlw	0
  6465  001186  6E0F               	movwf	USER_USB_CALLBACK_EVENT_HANDLER@event+1,c
  6466  001188  0E05               	movlw	5
  6467  00118A  6E0E               	movwf	USER_USB_CALLBACK_EVENT_HANDLER@event,c
  6468  00118C  C01A  F010         	movff	USBStdFeatureReqHandler@p,USER_USB_CALLBACK_EVENT_HANDLER@pdata
  6469  001190  C01B  F011         	movff	USBStdFeatureReqHandler@p+1,USER_USB_CALLBACK_EVENT_HANDLER@pdata+1
  6470  001194  0E00               	movlw	0
  6471  001196  6E13               	movwf	USER_USB_CALLBACK_EVENT_HANDLER@size+1,c
  6472  001198  0E02               	movlw	2
  6473  00119A  6E12               	movwf	USER_USB_CALLBACK_EVENT_HANDLER@size,c
  6474  00119C  EC2C  F014         	call	_USER_USB_CALLBACK_EVENT_HANDLER	;wreg free
  6475                           
  6476                           ;usb_device.c: 2894: }
  6477  0011A0  D007               	goto	i2l3522
  6478  0011A2                     i2l3520:
  6479                           
  6480                           ;usb_device.c: 2895: else
  6481                           ;usb_device.c: 2896: {
  6482                           ;usb_device.c: 2898: p->STAT.Val |= 0x40;
  6483  0011A2  C01A  FFD9         	movff	USBStdFeatureReqHandler@p,fsr2l
  6484  0011A6  C01B  FFDA         	movff	USBStdFeatureReqHandler@p+1,fsr2h
  6485  0011AA  0E00               	movlw	0
  6486  0011AC  8CDB               	bsf	plusw2,6,c
  6487  0011AE  D000               	goto	i2l3522
  6488  0011B0                     i2l3522:
  6489                           
  6490                           ;usb_device.c: 2899: }
  6491                           ;usb_device.c: 2903: {((uint8_t_VAL*)&p)->Val ^= 0x0004;};
  6492  0011B0  0E04               	movlw	4
  6493  0011B2  1A1A               	xorwf	USBStdFeatureReqHandler@p,f,c
  6494                           
  6495                           ;usb_device.c: 2909: if((current_ep_data.bits.transfer_terminated != 0) || (p->STAT.UOWN
      +                           == 1))
  6496  0011B4  B219               	btfsc	USBStdFeatureReqHandler@current_ep_data,1,c
  6497  0011B6  D006               	goto	i2l698
  6498  0011B8  C01A  FFD9         	movff	USBStdFeatureReqHandler@p,fsr2l
  6499  0011BC  C01B  FFDA         	movff	USBStdFeatureReqHandler@p+1,fsr2h
  6500  0011C0  AEDF               	btfss	indf2,7,c
  6501  0011C2  D032               	goto	i2l3536
  6502  0011C4                     i2l698:
  6503                           
  6504                           ;usb_device.c: 2910: {
  6505                           ;usb_device.c: 2911: if(SetupPkt.EPDir == 0)
  6506  0011C4  010D               	movlb	13	; () banked
  6507  0011C6  BF34               	btfsc	52,7,b	;volatile
  6508  0011C8  D00B               	goto	i2l3530
  6509                           
  6510                           ; BSR set to: 13
  6511                           ;usb_device.c: 2912: {
  6512                           ;usb_device.c: 2913: ep_data_out[SetupPkt.EPNum].bits.transfer_terminated = 0;
  6513  0011CA  010D               	movlb	13	; () banked
  6514  0011CC  5134               	movf	52,w,b	;volatile
  6515  0011CE  0B0F               	andlw	15
  6516  0011D0  6E16               	movwf	??_USBStdFeatureReqHandler& (0+255),c
  6517  0011D2  5016               	movf	??_USBStdFeatureReqHandler,w,c
  6518  0011D4  0D01               	mullw	1
  6519  0011D6  0E6D               	movlw	low _ep_data_out
  6520  0011D8  24F3               	addwf	prodl,w,c
  6521  0011DA  6ED9               	movwf	fsr2l,c
  6522  0011DC  0E00               	movlw	high _ep_data_out
  6523  0011DE  D00A               	goto	L10
  6524  0011E0                     i2l3530:
  6525                           
  6526                           ;usb_device.c: 2915: else
  6527                           ;usb_device.c: 2916: {
  6528                           ;usb_device.c: 2917: ep_data_in[SetupPkt.EPNum].bits.transfer_terminated = 0;
  6529  0011E0  010D               	movlb	13	; () banked
  6530  0011E2  5134               	movf	52,w,b	;volatile
  6531  0011E4  0B0F               	andlw	15
  6532  0011E6  6E16               	movwf	??_USBStdFeatureReqHandler& (0+255),c
  6533  0011E8  5016               	movf	??_USBStdFeatureReqHandler,w,c
  6534  0011EA  0D01               	mullw	1
  6535  0011EC  0E6A               	movlw	low _ep_data_in
  6536  0011EE  24F3               	addwf	prodl,w,c
  6537  0011F0  6ED9               	movwf	fsr2l,c
  6538  0011F2  0E00               	movlw	high _ep_data_in
  6539  0011F4                     L10:
  6540  0011F4  20F4               	addwfc	prodh,w,c
  6541  0011F6  6EDA               	movwf	fsr2h,c
  6542  0011F8  0100               	movlb	0	; () banked
  6543  0011FA  92DF               	bcf	indf2,1,c
  6544  0011FC  D000               	goto	i2l3532
  6545  0011FE                     i2l3532:
  6546                           
  6547                           ; BSR set to: 0
  6548                           ;usb_device.c: 2918: }
  6549                           ;usb_device.c: 2920: p->STAT.Val &= ~(0x80 | 0x40 | 0x04);
  6550  0011FE  C01A  FFD9         	movff	USBStdFeatureReqHandler@p,fsr2l
  6551  001202  C01B  FFDA         	movff	USBStdFeatureReqHandler@p+1,fsr2h
  6552  001206  0E3B               	movlw	59
  6553  001208  16DF               	andwf	indf2,f,c
  6554                           
  6555                           ; BSR set to: 0
  6556                           ;usb_device.c: 2923: USER_USB_CALLBACK_EVENT_HANDLER(EVENT_TRANSFER_TERMINATED,p,sizeof(
      +                          p));
  6557  00120A  0E00               	movlw	0
  6558  00120C  6E0F               	movwf	USER_USB_CALLBACK_EVENT_HANDLER@event+1,c
  6559  00120E  0E05               	movlw	5
  6560  001210  6E0E               	movwf	USER_USB_CALLBACK_EVENT_HANDLER@event,c
  6561  001212  C01A  F010         	movff	USBStdFeatureReqHandler@p,USER_USB_CALLBACK_EVENT_HANDLER@pdata
  6562  001216  C01B  F011         	movff	USBStdFeatureReqHandler@p+1,USER_USB_CALLBACK_EVENT_HANDLER@pdata+1
  6563  00121A  0E00               	movlw	0
  6564  00121C  6E13               	movwf	USER_USB_CALLBACK_EVENT_HANDLER@size+1,c
  6565  00121E  0E02               	movlw	2
  6566  001220  6E12               	movwf	USER_USB_CALLBACK_EVENT_HANDLER@size,c
  6567  001222  EC2C  F014         	call	_USER_USB_CALLBACK_EVENT_HANDLER	;wreg free
  6568                           
  6569                           ;usb_device.c: 2924: }
  6570  001226  D007               	goto	i2l3538
  6571  001228                     i2l3536:
  6572                           
  6573                           ;usb_device.c: 2925: else
  6574                           ;usb_device.c: 2926: {
  6575                           ;usb_device.c: 2928: p->STAT.Val &= ~(0x80 | 0x40 | 0x04);
  6576  001228  C01A  FFD9         	movff	USBStdFeatureReqHandler@p,fsr2l
  6577  00122C  C01B  FFDA         	movff	USBStdFeatureReqHandler@p+1,fsr2h
  6578  001230  0E3B               	movlw	59
  6579  001232  16DF               	andwf	indf2,f,c
  6580  001234  D000               	goto	i2l3538
  6581  001236                     i2l3538:
  6582                           
  6583                           ;usb_device.c: 2929: }
  6584                           ;usb_device.c: 2976: pUEP = (unsigned char*)(&UEP0+SetupPkt.EPNum);
  6585  001236  010D               	movlb	13	; () banked
  6586  001238  5134               	movf	52,w,b	;volatile
  6587  00123A  0B0F               	andlw	15
  6588  00123C  6E16               	movwf	??_USBStdFeatureReqHandler& (0+255),c
  6589  00123E  5016               	movf	??_USBStdFeatureReqHandler,w,c
  6590  001240  0D01               	mullw	1
  6591  001242  0E26               	movlw	38
  6592  001244  24F3               	addwf	prodl,w,c
  6593  001246  6E17               	movwf	USBStdFeatureReqHandler@pUEP,c
  6594  001248  0E0F               	movlw	15
  6595  00124A  20F4               	addwfc	prodh,w,c
  6596  00124C  6E18               	movwf	USBStdFeatureReqHandler@pUEP+1,c
  6597                           
  6598                           ; BSR set to: 13
  6599                           ;usb_device.c: 2980: *pUEP &= ~0x0001;
  6600  00124E  C017  FFD9         	movff	USBStdFeatureReqHandler@pUEP,fsr2l
  6601  001252  C018  FFDA         	movff	USBStdFeatureReqHandler@pUEP+1,fsr2h
  6602  001256  0EFE               	movlw	254
  6603  001258  16DF               	andwf	indf2,f,c
  6604                           
  6605                           ; BSR set to: 13
  6606  00125A  0012               	return	
  6607                           
  6608                           ; BSR set to: 13
  6609  00125C  0012               	return		;funcret
  6610  00125E                     __end_of_USBStdFeatureReqHandler:
  6611                           	opt stack 0
  6612                           pclatu	equ	0xFFB
  6613                           pclath	equ	0xFFA
  6614                           tblptru	equ	0xFF8
  6615                           tblptrh	equ	0xFF7
  6616                           tblptrl	equ	0xFF6
  6617                           tablat	equ	0xFF5
  6618                           prodh	equ	0xFF4
  6619                           prodl	equ	0xFF3
  6620                           intcon	equ	0xFF2
  6621                           indf0	equ	0xFEF
  6622                           postinc0	equ	0xFEE
  6623                           fsr0h	equ	0xFEA
  6624                           fsr0l	equ	0xFE9
  6625                           wreg	equ	0xFE8
  6626                           indf1	equ	0xFE7
  6627                           fsr1h	equ	0xFE2
  6628                           fsr1l	equ	0xFE1
  6629                           indf2	equ	0xFDF
  6630                           postinc2	equ	0xFDE
  6631                           postdec2	equ	0xFDD
  6632                           plusw2	equ	0xFDB
  6633                           fsr2h	equ	0xFDA
  6634                           fsr2l	equ	0xFD9
  6635                           status	equ	0xFD8
  6636                           
  6637 ;; *************** function _USER_USB_CALLBACK_EVENT_HANDLER *****************
  6638 ;; Defined at:
  6639 ;;		line 105 in file "../src/main.c"
  6640 ;; Parameters:    Size  Location     Type
  6641 ;;  event           2   13[COMRAM] enum E10600
  6642 ;;  pdata           2   15[COMRAM] PTR void 
  6643 ;;		 -> USTATcopy(1), USBActiveConfiguration(1), BDT(48), NULL(0), 
  6644 ;;  size            2   17[COMRAM] unsigned int 
  6645 ;; Auto vars:     Size  Location     Type
  6646 ;;		None
  6647 ;; Return value:  Size  Location     Type
  6648 ;;                  1    wreg      unsigned char 
  6649 ;; Registers used:
  6650 ;;		wreg, fsr2l, fsr2h, status,2, status,0, prodl, prodh, cstack
  6651 ;; Tracked objects:
  6652 ;;		On entry : 0/0
  6653 ;;		On exit  : 0/0
  6654 ;;		Unchanged: 0/0
  6655 ;; Data sizes:     COMRAM   BANK0   BANK1   BANK2   BANK3   BANK4   BANK5   BANK6   BANK7   BANK8   BANK9  BANK10  BANK1
      +1  BANK12  BANK13  BANK14
  6656 ;;      Params:         6       0       0       0       0       0       0       0       0       0       0       0       
      +0       0       0       0
  6657 ;;      Locals:         0       0       0       0       0       0       0       0       0       0       0       0       
      +0       0       0       0
  6658 ;;      Temps:          2       0       0       0       0       0       0       0       0       0       0       0       
      +0       0       0       0
  6659 ;;      Totals:         8       0       0       0       0       0       0       0       0       0       0       0       
      +0       0       0       0
  6660 ;;Total ram usage:        8 bytes
  6661 ;; Hardware stack levels used:    1
  6662 ;; Hardware stack levels required when called:    4
  6663 ;; This function calls:
  6664 ;;		_APP_DeviceCDCEmulatorInitialize
  6665 ;;		_APP_LEDUpdateUSBStatus
  6666 ;;		_USBCheckCDCRequest
  6667 ;; This function is called by:
  6668 ;;		_USBDeviceTasks
  6669 ;;		_USBStdSetCfgHandler
  6670 ;;		_USBSuspend
  6671 ;;		_USBWakeFromSuspend
  6672 ;;		_USBCtrlTrfSetupHandler
  6673 ;;		_USBCheckStdRequest
  6674 ;;		_USBStdFeatureReqHandler
  6675 ;; This function uses a non-reentrant model
  6676 ;;
  6677                           
  6678                           	psect	text30
  6679  002858                     __ptext30:
  6680                           	opt stack 0
  6681  002858                     _USER_USB_CALLBACK_EVENT_HANDLER:
  6682                           	opt stack 21
  6683                           
  6684                           ;main.c: 107: switch( (int) event )
  6685                           
  6686                           ;incstack = 0
  6687  002858  D010               	goto	i2l3210
  6688                           
  6689                           ;main.c: 110: break;
  6690                           
  6691                           ;main.c: 108: {
  6692                           ;main.c: 109: case EVENT_TRANSFER:
  6693  00285A  0012               	return	
  6694  00285C                     i2l3198:
  6695                           
  6696                           ;main.c: 115: APP_LEDUpdateUSBStatus();
  6697  00285C  ECAC  F013         	call	_APP_LEDUpdateUSBStatus	;wreg free
  6698                           
  6699                           ;main.c: 116: break;
  6700  002860  0012               	return	
  6701  002862                     i2l3200:
  6702                           
  6703                           ;main.c: 120: APP_LEDUpdateUSBStatus();
  6704  002862  ECAC  F013         	call	_APP_LEDUpdateUSBStatus	;wreg free
  6705                           
  6706                           ;main.c: 121: break;
  6707  002866  0012               	return	
  6708  002868                     i2l3202:
  6709                           
  6710                           ;main.c: 125: APP_LEDUpdateUSBStatus();
  6711  002868  ECAC  F013         	call	_APP_LEDUpdateUSBStatus	;wreg free
  6712                           
  6713                           ;main.c: 126: break;
  6714  00286C  0012               	return	
  6715  00286E                     i2l3204:
  6716                           
  6717                           ;main.c: 131: APP_DeviceCDCEmulatorInitialize();
  6718  00286E  ECA0  F014         	call	_APP_DeviceCDCEmulatorInitialize	;wreg free
  6719                           
  6720                           ;main.c: 135: break;
  6721                           
  6722                           ;main.c: 134: case EVENT_SET_DESCRIPTOR:
  6723                           
  6724                           ;main.c: 132: break;
  6725  002872  0012               	return	
  6726  002874                     i2l3206:
  6727                           
  6728                           ;main.c: 140: USBCheckCDCRequest();
  6729  002874  ECD0  F011         	call	_USBCheckCDCRequest	;wreg free
  6730                           
  6731                           ;main.c: 151: }
  6732                           
  6733                           ;main.c: 150: break;
  6734                           
  6735                           ;main.c: 149: default:
  6736                           
  6737                           ;main.c: 147: break;
  6738                           
  6739                           ;main.c: 146: case EVENT_TRANSFER_TERMINATED:
  6740                           
  6741                           ;main.c: 144: break;
  6742                           
  6743                           ;main.c: 143: case EVENT_BUS_ERROR:
  6744                           
  6745                           ;main.c: 141: break;
  6746  002878  0012               	return	
  6747  00287A                     i2l3210:
  6748  00287A  C00E  F014         	movff	USER_USB_CALLBACK_EVENT_HANDLER@event,??_USER_USB_CALLBACK_EVENT_HANDLER
  6749  00287E  C00F  F015         	movff	USER_USB_CALLBACK_EVENT_HANDLER@event+1,??_USER_USB_CALLBACK_EVENT_HANDLER+1
  6750                           
  6751                           ; Switch on 2 bytes has been partitioned into a top level switch of size 1, and 2 sub-sw
      +                          itches
  6752                           ; Switch size 1, requested type "space"
  6753                           ; Number of cases is 2, Range of values is 0 to 127
  6754                           ; switch strategies available:
  6755                           ; Name         Instructions Cycles
  6756                           ; simple_byte            7     4 (average)
  6757                           ;	Chosen strategy is simple_byte
  6758  002882  5015               	movf	??_USER_USB_CALLBACK_EVENT_HANDLER+1,w,c
  6759  002884  0A00               	xorlw	0	; case 0
  6760  002886  B4D8               	btfsc	status,2,c
  6761  002888  D004               	goto	i2l4438
  6762  00288A  0A7F               	xorlw	127	; case 127
  6763  00288C  A4D8               	btfss	status,2,c
  6764  00288E  0012               	return	
  6765  002890  D01A               	goto	i2l4440
  6766  002892                     i2l4438:
  6767                           
  6768                           ; Switch size 1, requested type "space"
  6769                           ; Number of cases is 8, Range of values is 1 to 117
  6770                           ; switch strategies available:
  6771                           ; Name         Instructions Cycles
  6772                           ; simple_byte           25    13 (average)
  6773                           ;	Chosen strategy is simple_byte
  6774  002892  5014               	movf	??_USER_USB_CALLBACK_EVENT_HANDLER,w,c
  6775  002894  0A01               	xorlw	1	; case 1
  6776  002896  B4D8               	btfsc	status,2,c
  6777  002898  D7EA               	goto	i2l3204
  6778  00289A  0A03               	xorlw	3	; case 2
  6779  00289C  B4D8               	btfsc	status,2,c
  6780  00289E  0012               	return	
  6781  0028A0  0A01               	xorlw	1	; case 3
  6782  0028A2  B4D8               	btfsc	status,2,c
  6783  0028A4  D7E7               	goto	i2l3206
  6784  0028A6  0A06               	xorlw	6	; case 5
  6785  0028A8  B4D8               	btfsc	status,2,c
  6786  0028AA  0012               	return	
  6787  0028AC  0A77               	xorlw	119	; case 114
  6788  0028AE  B4D8               	btfsc	status,2,c
  6789  0028B0  0012               	return	
  6790  0028B2  0A01               	xorlw	1	; case 115
  6791  0028B4  B4D8               	btfsc	status,2,c
  6792  0028B6  D7D2               	goto	i2l3198
  6793  0028B8  0A07               	xorlw	7	; case 116
  6794  0028BA  B4D8               	btfsc	status,2,c
  6795  0028BC  D7D5               	goto	i2l3202
  6796  0028BE  0A01               	xorlw	1	; case 117
  6797  0028C0  A4D8               	btfss	status,2,c
  6798  0028C2  0012               	return	
  6799  0028C4  D7CE               	goto	i2l3200
  6800  0028C6                     i2l4440:
  6801                           
  6802                           ; Switch size 1, requested type "space"
  6803                           ; Number of cases is 1, Range of values is 255 to 255
  6804                           ; switch strategies available:
  6805                           ; Name         Instructions Cycles
  6806                           ; simple_byte            4     3 (average)
  6807                           ;	Chosen strategy is simple_byte
  6808  0028C6  5014               	movf	??_USER_USB_CALLBACK_EVENT_HANDLER,w,c
  6809  0028C8  0AFF               	xorlw	255	; case 255
  6810  0028CA  0012               	return	
  6811                           
  6812                           ;main.c: 152: return 1;
  6813                           ;	Return value of _USER_USB_CALLBACK_EVENT_HANDLER is never used
  6814  0028CC  0012               	return		;funcret
  6815  0028CE                     __end_of_USER_USB_CALLBACK_EVENT_HANDLER:
  6816                           	opt stack 0
  6817                           pclatu	equ	0xFFB
  6818                           pclath	equ	0xFFA
  6819                           tblptru	equ	0xFF8
  6820                           tblptrh	equ	0xFF7
  6821                           tblptrl	equ	0xFF6
  6822                           tablat	equ	0xFF5
  6823                           prodh	equ	0xFF4
  6824                           prodl	equ	0xFF3
  6825                           intcon	equ	0xFF2
  6826                           indf0	equ	0xFEF
  6827                           postinc0	equ	0xFEE
  6828                           fsr0h	equ	0xFEA
  6829                           fsr0l	equ	0xFE9
  6830                           wreg	equ	0xFE8
  6831                           indf1	equ	0xFE7
  6832                           fsr1h	equ	0xFE2
  6833                           fsr1l	equ	0xFE1
  6834                           indf2	equ	0xFDF
  6835                           postinc2	equ	0xFDE
  6836                           postdec2	equ	0xFDD
  6837                           plusw2	equ	0xFDB
  6838                           fsr2h	equ	0xFDA
  6839                           fsr2l	equ	0xFD9
  6840                           status	equ	0xFD8
  6841                           
  6842 ;; *************** function _USBCheckCDCRequest *****************
  6843 ;; Defined at:
  6844 ;;		line 204 in file "../../../../../../framework/usb/src/usb_device_cdc.c"
  6845 ;; Parameters:    Size  Location     Type
  6846 ;;		None
  6847 ;; Auto vars:     Size  Location     Type
  6848 ;;		None
  6849 ;; Return value:  Size  Location     Type
  6850 ;;		None               void
  6851 ;; Registers used:
  6852 ;;		wreg, status,2, status,0
  6853 ;; Tracked objects:
  6854 ;;		On entry : 0/0
  6855 ;;		On exit  : 0/0
  6856 ;;		Unchanged: 0/0
  6857 ;; Data sizes:     COMRAM   BANK0   BANK1   BANK2   BANK3   BANK4   BANK5   BANK6   BANK7   BANK8   BANK9  BANK10  BANK1
      +1  BANK12  BANK13  BANK14
  6858 ;;      Params:         0       0       0       0       0       0       0       0       0       0       0       0       
      +0       0       0       0
  6859 ;;      Locals:         0       0       0       0       0       0       0       0       0       0       0       0       
      +0       0       0       0
  6860 ;;      Temps:          0       0       0       0       0       0       0       0       0       0       0       0       
      +0       0       0       0
  6861 ;;      Totals:         0       0       0       0       0       0       0       0       0       0       0       0       
      +0       0       0       0
  6862 ;;Total ram usage:        0 bytes
  6863 ;; Hardware stack levels used:    1
  6864 ;; This function calls:
  6865 ;;		Nothing
  6866 ;; This function is called by:
  6867 ;;		_USER_USB_CALLBACK_EVENT_HANDLER
  6868 ;; This function uses a non-reentrant model
  6869 ;;
  6870                           
  6871                           	psect	text31
  6872  0023A0                     __ptext31:
  6873                           	opt stack 0
  6874  0023A0                     _USBCheckCDCRequest:
  6875                           	opt stack 24
  6876                           
  6877                           ;usb_device_cdc.c: 209: if(SetupPkt.Recipient != (0x01)) return;
  6878                           
  6879                           ;incstack = 0
  6880  0023A0  010D               	movlb	13	; () banked
  6881  0023A2  5130               	movf	48,w,b	;volatile
  6882  0023A4  0B1F               	andlw	31
  6883  0023A6  06E8               	decf	wreg,f,c
  6884  0023A8  A4D8               	btfss	status,2,c
  6885  0023AA  0012               	return	
  6886  0023AC  D001               	goto	i2l3160
  6887                           
  6888                           ; BSR set to: 13
  6889  0023AE  0012               	return	
  6890  0023B0                     i2l3160:
  6891                           
  6892                           ; BSR set to: 13
  6893                           ;usb_device_cdc.c: 214: if(SetupPkt.RequestType != (0x20>>5)) return;
  6894  0023B0  010D               	movlb	13	; () banked
  6895  0023B2  3930               	swapf	48,w,b	;volatile
  6896  0023B4  32E8               	rrcf	wreg,f,c
  6897  0023B6  0B03               	andlw	3
  6898  0023B8  06E8               	decf	wreg,f,c
  6899  0023BA  A4D8               	btfss	status,2,c
  6900  0023BC  0012               	return	
  6901  0023BE  D001               	goto	i2l3164
  6902                           
  6903                           ; BSR set to: 13
  6904  0023C0  0012               	return	
  6905  0023C2                     i2l3164:
  6906                           
  6907                           ; BSR set to: 13
  6908                           ;usb_device_cdc.c: 220: if((SetupPkt.bIntfID != 0x0)&&
  6909                           ;usb_device_cdc.c: 221: (SetupPkt.bIntfID != 0x01)) return;
  6910  0023C2  010D               	movlb	13	; () banked
  6911  0023C4  5134               	movf	52,w,b	;volatile
  6912  0023C6  B4D8               	btfsc	status,2,c
  6913  0023C8  D037               	goto	i2l3194
  6914                           
  6915                           ; BSR set to: 13
  6916  0023CA  010D               	movlb	13	; () banked
  6917  0023CC  0534               	decf	52,w,b	;volatile
  6918  0023CE  A4D8               	btfss	status,2,c
  6919  0023D0  0012               	return	
  6920  0023D2  D032               	goto	i2l3194
  6921                           
  6922                           ; BSR set to: 13
  6923  0023D4  0012               	return	
  6924                           
  6925                           ; BSR set to: 13
  6926                           ;usb_device_cdc.c: 223: switch(SetupPkt.bRequest)
  6927  0023D6  D030               	goto	i2l3194
  6928  0023D8                     i2l3170:
  6929                           
  6930                           ; BSR set to: 13
  6931                           ;usb_device_cdc.c: 228: inPipes[0].pSrc.bRam = (uint8_t*)&dummy_encapsulated_cmd_respons
      +                          e;
  6932  0023D8  0ECE               	movlw	low _dummy_encapsulated_cmd_response
  6933  0023DA  6E58               	movwf	_inPipes,c	;volatile
  6934  0023DC  0E00               	movlw	high _dummy_encapsulated_cmd_response
  6935  0023DE  6E59               	movwf	_inPipes+1,c	;volatile
  6936                           
  6937                           ; BSR set to: 13
  6938                           ;usb_device_cdc.c: 229: inPipes[0].wCount.Val = 0x08;
  6939  0023E0  0E00               	movlw	0
  6940  0023E2  6E5D               	movwf	_inPipes+5,c	;volatile
  6941  0023E4  0E08               	movlw	8
  6942  0023E6  6E5C               	movwf	_inPipes+4,c	;volatile
  6943                           
  6944                           ; BSR set to: 13
  6945                           ;usb_device_cdc.c: 230: inPipes[0].info.bits.ctrl_trf_mem = 0x01;
  6946  0023E8  805B               	bsf	_inPipes+3,0,c	;volatile
  6947                           
  6948                           ; BSR set to: 13
  6949                           ;usb_device_cdc.c: 231: inPipes[0].info.bits.busy = 1;
  6950  0023EA  8E5B               	bsf	_inPipes+3,7,c	;volatile
  6951                           
  6952                           ;usb_device_cdc.c: 232: break;
  6953  0023EC  0012               	return	
  6954  0023EE                     i2l3178:
  6955                           
  6956                           ; BSR set to: 13
  6957                           ;usb_device_cdc.c: 235: inPipes[0].pSrc.bRam = (uint8_t*)&dummy_encapsulated_cmd_respons
      +                          e;
  6958  0023EE  0ECE               	movlw	low _dummy_encapsulated_cmd_response
  6959  0023F0  6E58               	movwf	_inPipes,c	;volatile
  6960  0023F2  0E00               	movlw	high _dummy_encapsulated_cmd_response
  6961  0023F4  6E59               	movwf	_inPipes+1,c	;volatile
  6962                           
  6963                           ; BSR set to: 13
  6964                           ;usb_device_cdc.c: 236: inPipes[0].info.bits.busy = 1;
  6965  0023F6  8E5B               	bsf	_inPipes+3,7,c	;volatile
  6966                           
  6967                           ;usb_device_cdc.c: 237: break;
  6968  0023F8  0012               	return	
  6969  0023FA                     i2l759:
  6970                           
  6971                           ; BSR set to: 13
  6972                           ;usb_device_cdc.c: 242: outPipes[0].wCount.Val = SetupPkt.wLength;
  6973  0023FA  CD36 F037          	movff	3382,_outPipes+4	;volatile
  6974  0023FE  CD37 F038          	movff	3383,_outPipes+5	;volatile
  6975                           
  6976                           ; BSR set to: 13
  6977                           ;usb_device_cdc.c: 243: outPipes[0].pDst.bRam = (uint8_t*)&cdc_notice.SetLineCoding._byt
      +                          e[0];
  6978  002402  0EC4               	movlw	low _cdc_notice
  6979  002404  6E33               	movwf	_outPipes,c	;volatile
  6980  002406  0E00               	movlw	high _cdc_notice
  6981  002408  6E34               	movwf	_outPipes+1,c	;volatile
  6982                           
  6983                           ;usb_device_cdc.c: 244: outPipes[0].pFunc = &USART_mySetLineCodingHandler;
  6984  00240A  0E04               	movlw	low _USART_mySetLineCodingHandler
  6985  00240C  6E39               	movwf	_outPipes+6,c	;volatile
  6986  00240E  0E2A               	movlw	high _USART_mySetLineCodingHandler
  6987  002410  6E3A               	movwf	_outPipes+7,c	;volatile
  6988  002412  0E00               	movlw	low (_USART_mySetLineCodingHandler shr (0+16))
  6989  002414  6E3B               	movwf	_outPipes+8,c	;volatile
  6990                           
  6991                           ; BSR set to: 13
  6992                           ;usb_device_cdc.c: 245: outPipes[0].info.bits.busy = 1;
  6993  002416  8E36               	bsf	_outPipes+3,7,c	;volatile
  6994                           
  6995                           ;usb_device_cdc.c: 246: break;
  6996  002418  0012               	return	
  6997  00241A                     i2l3186:
  6998                           
  6999                           ; BSR set to: 13
  7000                           ;usb_device_cdc.c: 249: { inPipes[0].pSrc.bRam = (uint8_t*)&line_coding; inPipes[0].wCou
      +                          nt.Val = 0x07; inPipes[0].info.Val = 0x40 | 0x80 | 0x01; };
  7001  00241A  0ED6               	movlw	low _line_coding
  7002  00241C  6E58               	movwf	_inPipes,c	;volatile
  7003  00241E  0E00               	movlw	high _line_coding
  7004  002420  6E59               	movwf	_inPipes+1,c	;volatile
  7005                           
  7006                           ; BSR set to: 13
  7007  002422  0E00               	movlw	0
  7008  002424  6E5D               	movwf	_inPipes+5,c	;volatile
  7009  002426  0E07               	movlw	7
  7010  002428  6E5C               	movwf	_inPipes+4,c	;volatile
  7011                           
  7012                           ; BSR set to: 13
  7013  00242A  0EC1               	movlw	193
  7014  00242C  6E5B               	movwf	_inPipes+3,c	;volatile
  7015                           
  7016                           ;usb_device_cdc.c: 253: break;
  7017  00242E  0012               	return	
  7018  002430                     i2l761:
  7019                           
  7020                           ; BSR set to: 13
  7021                           ;usb_device_cdc.c: 256: control_signal_bitmap._byte = (uint8_t)SetupPkt.wValue;
  7022  002430  CD32 F083          	movff	3378,_control_signal_bitmap	;volatile
  7023                           
  7024                           ;usb_device_cdc.c: 288: inPipes[0].info.bits.busy = 1;
  7025  002434  8E5B               	bsf	_inPipes+3,7,c	;volatile
  7026                           
  7027                           ; BSR set to: 13
  7028                           ;usb_device_cdc.c: 315: }
  7029                           
  7030                           ; BSR set to: 13
  7031                           ;usb_device_cdc.c: 314: break;
  7032                           
  7033                           ;usb_device_cdc.c: 313: default:
  7034                           
  7035                           ;usb_device_cdc.c: 289: break;
  7036  002436  0012               	return	
  7037  002438                     i2l3194:
  7038                           
  7039                           ; BSR set to: 13
  7040  002438  010D               	movlb	13	; () banked
  7041  00243A  5131               	movf	49,w,b	;volatile
  7042                           
  7043                           ; Switch size 1, requested type "space"
  7044                           ; Number of cases is 5, Range of values is 0 to 34
  7045                           ; switch strategies available:
  7046                           ; Name         Instructions Cycles
  7047                           ; simple_byte           16     9 (average)
  7048                           ;	Chosen strategy is simple_byte
  7049  00243C  0A00               	xorlw	0	; case 0
  7050  00243E  B4D8               	btfsc	status,2,c
  7051  002440  D7CB               	goto	i2l3170
  7052  002442  0A01               	xorlw	1	; case 1
  7053  002444  B4D8               	btfsc	status,2,c
  7054  002446  D7D3               	goto	i2l3178
  7055  002448  0A21               	xorlw	33	; case 32
  7056  00244A  B4D8               	btfsc	status,2,c
  7057  00244C  D7D6               	goto	i2l759
  7058  00244E  0A01               	xorlw	1	; case 33
  7059  002450  B4D8               	btfsc	status,2,c
  7060  002452  D7E3               	goto	i2l3186
  7061  002454  0A03               	xorlw	3	; case 34
  7062  002456  A4D8               	btfss	status,2,c
  7063  002458  0012               	return	
  7064  00245A  D7EA               	goto	i2l761
  7065                           
  7066                           ; BSR set to: 13
  7067                           
  7068                           ; BSR set to: 13
  7069  00245C  0012               	return		;funcret
  7070  00245E                     __end_of_USBCheckCDCRequest:
  7071                           	opt stack 0
  7072                           pclatu	equ	0xFFB
  7073                           pclath	equ	0xFFA
  7074                           tblptru	equ	0xFF8
  7075                           tblptrh	equ	0xFF7
  7076                           tblptrl	equ	0xFF6
  7077                           tablat	equ	0xFF5
  7078                           prodh	equ	0xFF4
  7079                           prodl	equ	0xFF3
  7080                           intcon	equ	0xFF2
  7081                           indf0	equ	0xFEF
  7082                           postinc0	equ	0xFEE
  7083                           fsr0h	equ	0xFEA
  7084                           fsr0l	equ	0xFE9
  7085                           wreg	equ	0xFE8
  7086                           indf1	equ	0xFE7
  7087                           fsr1h	equ	0xFE2
  7088                           fsr1l	equ	0xFE1
  7089                           indf2	equ	0xFDF
  7090                           postinc2	equ	0xFDE
  7091                           postdec2	equ	0xFDD
  7092                           plusw2	equ	0xFDB
  7093                           fsr2h	equ	0xFDA
  7094                           fsr2l	equ	0xFD9
  7095                           status	equ	0xFD8
  7096                           
  7097 ;; *************** function _APP_LEDUpdateUSBStatus *****************
  7098 ;; Defined at:
  7099 ;;		line 75 in file "../src/app_led_usb_status.c"
  7100 ;; Parameters:    Size  Location     Type
  7101 ;;		None
  7102 ;; Auto vars:     Size  Location     Type
  7103 ;;		None
  7104 ;; Return value:  Size  Location     Type
  7105 ;;		None               void
  7106 ;; Registers used:
  7107 ;;		wreg, status,2, status,0, cstack
  7108 ;; Tracked objects:
  7109 ;;		On entry : 0/0
  7110 ;;		On exit  : 0/0
  7111 ;;		Unchanged: 0/0
  7112 ;; Data sizes:     COMRAM   BANK0   BANK1   BANK2   BANK3   BANK4   BANK5   BANK6   BANK7   BANK8   BANK9  BANK10  BANK1
      +1  BANK12  BANK13  BANK14
  7113 ;;      Params:         0       0       0       0       0       0       0       0       0       0       0       0       
      +0       0       0       0
  7114 ;;      Locals:         0       0       0       0       0       0       0       0       0       0       0       0       
      +0       0       0       0
  7115 ;;      Temps:          0       0       0       0       0       0       0       0       0       0       0       0       
      +0       0       0       0
  7116 ;;      Totals:         0       0       0       0       0       0       0       0       0       0       0       0       
      +0       0       0       0
  7117 ;;Total ram usage:        0 bytes
  7118 ;; Hardware stack levels used:    1
  7119 ;; Hardware stack levels required when called:    1
  7120 ;; This function calls:
  7121 ;;		_LED_Off
  7122 ;;		_LED_On
  7123 ;; This function is called by:
  7124 ;;		_USER_USB_CALLBACK_EVENT_HANDLER
  7125 ;; This function uses a non-reentrant model
  7126 ;;
  7127                           
  7128                           	psect	text32
  7129  002758                     __ptext32:
  7130                           	opt stack 0
  7131  002758                     _APP_LEDUpdateUSBStatus:
  7132                           	opt stack 23
  7133                           
  7134                           ;app_led_usb_status.c: 77: static uint16_t ledCount = 0;
  7135                           ;app_led_usb_status.c: 79: if(UCONbits.SUSPND == 1)
  7136                           
  7137                           ; BSR set to: 13
  7138                           ;incstack = 0
  7139  002758  A265               	btfss	3941,1,c	;volatile
  7140  00275A  D038               	goto	i2l3152
  7141                           
  7142                           ;app_led_usb_status.c: 80: {
  7143                           ;app_led_usb_status.c: 81: LED_Off(LED_D1);
  7144  00275C  0E01               	movlw	1
  7145  00275E  EC51  F016         	call	_LED_Off
  7146                           
  7147                           ;app_led_usb_status.c: 82: return;
  7148  002762  0012               	return	
  7149                           
  7150                           ;app_led_usb_status.c: 83: }
  7151                           ;app_led_usb_status.c: 85: switch(USBDeviceState)
  7152  002764  D033               	goto	i2l3152
  7153  002766                     i2l3126:
  7154                           
  7155                           ;app_led_usb_status.c: 90: if(ledCount == 1)
  7156  002766  0442               	decf	APP_LEDUpdateUSBStatus@ledCount,w,c
  7157  002768  1043               	iorwf	APP_LEDUpdateUSBStatus@ledCount+1,w,c
  7158  00276A  A4D8               	btfss	status,2,c
  7159  00276C  D004               	goto	i2l3130
  7160                           
  7161                           ;app_led_usb_status.c: 91: {
  7162                           ;app_led_usb_status.c: 92: LED_On(LED_D1);
  7163  00276E  0E01               	movlw	1
  7164  002770  EC3F  F016         	call	_LED_On
  7165                           
  7166                           ;app_led_usb_status.c: 93: }
  7167  002774  D030               	goto	i2l3154
  7168  002776                     i2l3130:
  7169                           
  7170                           ;app_led_usb_status.c: 94: else if(ledCount == 75)
  7171  002776  0E4B               	movlw	75
  7172  002778  1842               	xorwf	APP_LEDUpdateUSBStatus@ledCount,w,c
  7173  00277A  1043               	iorwf	APP_LEDUpdateUSBStatus@ledCount+1,w,c
  7174  00277C  A4D8               	btfss	status,2,c
  7175  00277E  D004               	goto	i2l3134
  7176                           
  7177                           ;app_led_usb_status.c: 95: {
  7178                           ;app_led_usb_status.c: 96: LED_Off(LED_D1);
  7179  002780  0E01               	movlw	1
  7180  002782  EC51  F016         	call	_LED_Off
  7181                           
  7182                           ;app_led_usb_status.c: 97: }
  7183  002786  D027               	goto	i2l3154
  7184  002788                     i2l3134:
  7185                           
  7186                           ;app_led_usb_status.c: 98: else if(ledCount > 150)
  7187  002788  5043               	movf	APP_LEDUpdateUSBStatus@ledCount+1,w,c
  7188  00278A  E104               	bnz	i2u205_40
  7189  00278C  0E97               	movlw	151
  7190  00278E  5C42               	subwf	APP_LEDUpdateUSBStatus@ledCount,w,c
  7191  002790  A0D8               	btfss	status,0,c
  7192  002792  D021               	goto	i2l3154
  7193  002794                     i2u205_40:
  7194                           
  7195                           ;app_led_usb_status.c: 99: {
  7196                           ;app_led_usb_status.c: 100: ledCount = 0;
  7197  002794  0E00               	movlw	0
  7198  002796  6E43               	movwf	APP_LEDUpdateUSBStatus@ledCount+1,c
  7199  002798  0E00               	movlw	0
  7200  00279A  6E42               	movwf	APP_LEDUpdateUSBStatus@ledCount,c
  7201                           
  7202                           ;app_led_usb_status.c: 101: }
  7203                           ;app_led_usb_status.c: 102: break;
  7204  00279C  D01C               	goto	i2l3154
  7205  00279E                     i2l3138:
  7206                           
  7207                           ;app_led_usb_status.c: 107: if(ledCount == 1)
  7208  00279E  0442               	decf	APP_LEDUpdateUSBStatus@ledCount,w,c
  7209  0027A0  1043               	iorwf	APP_LEDUpdateUSBStatus@ledCount+1,w,c
  7210  0027A2  A4D8               	btfss	status,2,c
  7211  0027A4  D004               	goto	i2l3142
  7212                           
  7213                           ;app_led_usb_status.c: 108: {
  7214                           ;app_led_usb_status.c: 109: LED_On(LED_D1);
  7215  0027A6  0E01               	movlw	1
  7216  0027A8  EC3F  F016         	call	_LED_On
  7217                           
  7218                           ;app_led_usb_status.c: 110: }
  7219  0027AC  D014               	goto	i2l3154
  7220  0027AE                     i2l3142:
  7221                           
  7222                           ;app_led_usb_status.c: 111: else if(ledCount == 50)
  7223  0027AE  0E32               	movlw	50
  7224  0027B0  1842               	xorwf	APP_LEDUpdateUSBStatus@ledCount,w,c
  7225  0027B2  1043               	iorwf	APP_LEDUpdateUSBStatus@ledCount+1,w,c
  7226  0027B4  A4D8               	btfss	status,2,c
  7227  0027B6  D004               	goto	i2l3146
  7228                           
  7229                           ;app_led_usb_status.c: 112: {
  7230                           ;app_led_usb_status.c: 113: LED_Off(LED_D1);
  7231  0027B8  0E01               	movlw	1
  7232  0027BA  EC51  F016         	call	_LED_Off
  7233                           
  7234                           ;app_led_usb_status.c: 114: }
  7235  0027BE  D00B               	goto	i2l3154
  7236  0027C0                     i2l3146:
  7237                           
  7238                           ;app_led_usb_status.c: 115: else if(ledCount > 950)
  7239  0027C0  0EB7               	movlw	183
  7240  0027C2  5C42               	subwf	APP_LEDUpdateUSBStatus@ledCount,w,c
  7241  0027C4  0E03               	movlw	3
  7242  0027C6  5843               	subwfb	APP_LEDUpdateUSBStatus@ledCount+1,w,c
  7243  0027C8  D7E3               	goto	L11
  7244                           
  7245                           ;app_led_usb_status.c: 120: }
  7246                           
  7247                           ;app_led_usb_status.c: 118: }
  7248                           ;app_led_usb_status.c: 119: break;
  7249                           
  7250                           ;app_led_usb_status.c: 116: {
  7251                           ;app_led_usb_status.c: 117: ledCount = 0;
  7252  0027CA  D005               	goto	i2l3154
  7253  0027CC                     i2l3152:
  7254  0027CC  5050               	movf	_USBDeviceState,w,c	;volatile
  7255                           
  7256                           ; Switch size 1, requested type "space"
  7257                           ; Number of cases is 1, Range of values is 32 to 32
  7258                           ; switch strategies available:
  7259                           ; Name         Instructions Cycles
  7260                           ; simple_byte            4     3 (average)
  7261                           ;	Chosen strategy is simple_byte
  7262  0027CE  0A20               	xorlw	32	; case 32
  7263  0027D0  B4D8               	btfsc	status,2,c
  7264  0027D2  D7C9               	goto	i2l3126
  7265  0027D4  D7E4               	goto	i2l3138
  7266  0027D6                     i2l3154:
  7267                           
  7268                           ;app_led_usb_status.c: 123: ledCount++;
  7269  0027D6  4A42               	infsnz	APP_LEDUpdateUSBStatus@ledCount,f,c
  7270  0027D8  2A43               	incf	APP_LEDUpdateUSBStatus@ledCount+1,f,c
  7271  0027DA  0012               	return		;funcret
  7272  0027DC                     __end_of_APP_LEDUpdateUSBStatus:
  7273                           	opt stack 0
  7274                           pclatu	equ	0xFFB
  7275                           pclath	equ	0xFFA
  7276                           tblptru	equ	0xFF8
  7277                           tblptrh	equ	0xFF7
  7278                           tblptrl	equ	0xFF6
  7279                           tablat	equ	0xFF5
  7280                           prodh	equ	0xFF4
  7281                           prodl	equ	0xFF3
  7282                           intcon	equ	0xFF2
  7283                           indf0	equ	0xFEF
  7284                           postinc0	equ	0xFEE
  7285                           fsr0h	equ	0xFEA
  7286                           fsr0l	equ	0xFE9
  7287                           wreg	equ	0xFE8
  7288                           indf1	equ	0xFE7
  7289                           fsr1h	equ	0xFE2
  7290                           fsr1l	equ	0xFE1
  7291                           indf2	equ	0xFDF
  7292                           postinc2	equ	0xFDE
  7293                           postdec2	equ	0xFDD
  7294                           plusw2	equ	0xFDB
  7295                           fsr2h	equ	0xFDA
  7296                           fsr2l	equ	0xFD9
  7297                           status	equ	0xFD8
  7298                           
  7299 ;; *************** function _LED_On *****************
  7300 ;; Defined at:
  7301 ;;		line 55 in file "../../../../../../bsp/pic18f47j53_pim/leds.c"
  7302 ;; Parameters:    Size  Location     Type
  7303 ;;  led             1    wreg     enum E2
  7304 ;; Auto vars:     Size  Location     Type
  7305 ;;  led             1    0[COMRAM] enum E2
  7306 ;; Return value:  Size  Location     Type
  7307 ;;		None               void
  7308 ;; Registers used:
  7309 ;;		wreg, status,2, status,0
  7310 ;; Tracked objects:
  7311 ;;		On entry : 0/0
  7312 ;;		On exit  : 0/0
  7313 ;;		Unchanged: 0/0
  7314 ;; Data sizes:     COMRAM   BANK0   BANK1   BANK2   BANK3   BANK4   BANK5   BANK6   BANK7   BANK8   BANK9  BANK10  BANK1
      +1  BANK12  BANK13  BANK14
  7315 ;;      Params:         0       0       0       0       0       0       0       0       0       0       0       0       
      +0       0       0       0
  7316 ;;      Locals:         1       0       0       0       0       0       0       0       0       0       0       0       
      +0       0       0       0
  7317 ;;      Temps:          0       0       0       0       0       0       0       0       0       0       0       0       
      +0       0       0       0
  7318 ;;      Totals:         1       0       0       0       0       0       0       0       0       0       0       0       
      +0       0       0       0
  7319 ;;Total ram usage:        1 bytes
  7320 ;; Hardware stack levels used:    1
  7321 ;; This function calls:
  7322 ;;		Nothing
  7323 ;; This function is called by:
  7324 ;;		_APP_LEDUpdateUSBStatus
  7325 ;; This function uses a non-reentrant model
  7326 ;;
  7327                           
  7328                           	psect	text33
  7329  002C7E                     __ptext33:
  7330                           	opt stack 0
  7331  002C7E                     _LED_On:
  7332                           	opt stack 23
  7333                           
  7334                           ;incstack = 0
  7335                           ;LED_On@led stored from wreg
  7336  002C7E  6E01               	movwf	LED_On@led,c
  7337                           
  7338                           ;leds.c: 57: switch(led)
  7339  002C80  D004               	goto	i2l3090
  7340  002C82                     i2l247:
  7341                           
  7342                           ;leds.c: 60: LATEbits.LATE0 = 1;
  7343  002C82  808D               	bsf	3981,0,c	;volatile
  7344                           
  7345                           ;leds.c: 61: break;
  7346  002C84  0012               	return	
  7347  002C86                     i2l249:
  7348                           
  7349                           ;leds.c: 64: LATEbits.LATE1 = 1;
  7350  002C86  828D               	bsf	3981,1,c	;volatile
  7351                           
  7352                           ;leds.c: 69: }
  7353                           
  7354                           ;leds.c: 68: break;
  7355                           
  7356                           ;leds.c: 67: case LED_NONE:
  7357                           
  7358                           ;leds.c: 65: break;
  7359  002C88  0012               	return	
  7360  002C8A                     i2l3090:
  7361  002C8A  5001               	movf	LED_On@led,w,c
  7362                           
  7363                           ; Switch size 1, requested type "space"
  7364                           ; Number of cases is 3, Range of values is 0 to 2
  7365                           ; switch strategies available:
  7366                           ; Name         Instructions Cycles
  7367                           ; simple_byte           10     6 (average)
  7368                           ;	Chosen strategy is simple_byte
  7369  002C8C  0A00               	xorlw	0	; case 0
  7370  002C8E  B4D8               	btfsc	status,2,c
  7371  002C90  0012               	return	
  7372  002C92  0A01               	xorlw	1	; case 1
  7373  002C94  B4D8               	btfsc	status,2,c
  7374  002C96  D7F5               	goto	i2l247
  7375  002C98  0A03               	xorlw	3	; case 2
  7376  002C9A  A4D8               	btfss	status,2,c
  7377  002C9C  0012               	return	
  7378  002C9E  D7F3               	goto	i2l249
  7379  002CA0  0012               	return		;funcret
  7380  002CA2                     __end_of_LED_On:
  7381                           	opt stack 0
  7382                           pclatu	equ	0xFFB
  7383                           pclath	equ	0xFFA
  7384                           tblptru	equ	0xFF8
  7385                           tblptrh	equ	0xFF7
  7386                           tblptrl	equ	0xFF6
  7387                           tablat	equ	0xFF5
  7388                           prodh	equ	0xFF4
  7389                           prodl	equ	0xFF3
  7390                           intcon	equ	0xFF2
  7391                           indf0	equ	0xFEF
  7392                           postinc0	equ	0xFEE
  7393                           fsr0h	equ	0xFEA
  7394                           fsr0l	equ	0xFE9
  7395                           wreg	equ	0xFE8
  7396                           indf1	equ	0xFE7
  7397                           fsr1h	equ	0xFE2
  7398                           fsr1l	equ	0xFE1
  7399                           indf2	equ	0xFDF
  7400                           postinc2	equ	0xFDE
  7401                           postdec2	equ	0xFDD
  7402                           plusw2	equ	0xFDB
  7403                           fsr2h	equ	0xFDA
  7404                           fsr2l	equ	0xFD9
  7405                           status	equ	0xFD8
  7406                           
  7407 ;; *************** function _LED_Off *****************
  7408 ;; Defined at:
  7409 ;;		line 88 in file "../../../../../../bsp/pic18f47j53_pim/leds.c"
  7410 ;; Parameters:    Size  Location     Type
  7411 ;;  led             1    wreg     enum E2
  7412 ;; Auto vars:     Size  Location     Type
  7413 ;;  led             1    0[COMRAM] enum E2
  7414 ;; Return value:  Size  Location     Type
  7415 ;;		None               void
  7416 ;; Registers used:
  7417 ;;		wreg, status,2, status,0
  7418 ;; Tracked objects:
  7419 ;;		On entry : 0/0
  7420 ;;		On exit  : 0/0
  7421 ;;		Unchanged: 0/0
  7422 ;; Data sizes:     COMRAM   BANK0   BANK1   BANK2   BANK3   BANK4   BANK5   BANK6   BANK7   BANK8   BANK9  BANK10  BANK1
      +1  BANK12  BANK13  BANK14
  7423 ;;      Params:         0       0       0       0       0       0       0       0       0       0       0       0       
      +0       0       0       0
  7424 ;;      Locals:         1       0       0       0       0       0       0       0       0       0       0       0       
      +0       0       0       0
  7425 ;;      Temps:          0       0       0       0       0       0       0       0       0       0       0       0       
      +0       0       0       0
  7426 ;;      Totals:         1       0       0       0       0       0       0       0       0       0       0       0       
      +0       0       0       0
  7427 ;;Total ram usage:        1 bytes
  7428 ;; Hardware stack levels used:    1
  7429 ;; This function calls:
  7430 ;;		Nothing
  7431 ;; This function is called by:
  7432 ;;		_APP_LEDUpdateUSBStatus
  7433 ;; This function uses a non-reentrant model
  7434 ;;
  7435                           
  7436                           	psect	text34
  7437  002CA2                     __ptext34:
  7438                           	opt stack 0
  7439  002CA2                     _LED_Off:
  7440                           	opt stack 23
  7441                           
  7442                           ;incstack = 0
  7443                           ;LED_Off@led stored from wreg
  7444  002CA2  6E01               	movwf	LED_Off@led,c
  7445                           
  7446                           ;leds.c: 90: switch(led)
  7447  002CA4  D004               	goto	i2l3084
  7448  002CA6                     i2l255:
  7449                           
  7450                           ;leds.c: 93: LATEbits.LATE0 = 0;
  7451  002CA6  908D               	bcf	3981,0,c	;volatile
  7452                           
  7453                           ;leds.c: 94: break;
  7454  002CA8  0012               	return	
  7455  002CAA                     i2l257:
  7456                           
  7457                           ;leds.c: 97: LATEbits.LATE1 = 0;
  7458  002CAA  928D               	bcf	3981,1,c	;volatile
  7459                           
  7460                           ;leds.c: 102: }
  7461                           
  7462                           ;leds.c: 101: break;
  7463                           
  7464                           ;leds.c: 100: case LED_NONE:
  7465                           
  7466                           ;leds.c: 98: break;
  7467  002CAC  0012               	return	
  7468  002CAE                     i2l3084:
  7469  002CAE  5001               	movf	LED_Off@led,w,c
  7470                           
  7471                           ; Switch size 1, requested type "space"
  7472                           ; Number of cases is 3, Range of values is 0 to 2
  7473                           ; switch strategies available:
  7474                           ; Name         Instructions Cycles
  7475                           ; simple_byte           10     6 (average)
  7476                           ;	Chosen strategy is simple_byte
  7477  002CB0  0A00               	xorlw	0	; case 0
  7478  002CB2  B4D8               	btfsc	status,2,c
  7479  002CB4  0012               	return	
  7480  002CB6  0A01               	xorlw	1	; case 1
  7481  002CB8  B4D8               	btfsc	status,2,c
  7482  002CBA  D7F5               	goto	i2l255
  7483  002CBC  0A03               	xorlw	3	; case 2
  7484  002CBE  A4D8               	btfss	status,2,c
  7485  002CC0  0012               	return	
  7486  002CC2  D7F3               	goto	i2l257
  7487  002CC4  0012               	return		;funcret
  7488  002CC6                     __end_of_LED_Off:
  7489                           	opt stack 0
  7490                           pclatu	equ	0xFFB
  7491                           pclath	equ	0xFFA
  7492                           tblptru	equ	0xFF8
  7493                           tblptrh	equ	0xFF7
  7494                           tblptrl	equ	0xFF6
  7495                           tablat	equ	0xFF5
  7496                           prodh	equ	0xFF4
  7497                           prodl	equ	0xFF3
  7498                           intcon	equ	0xFF2
  7499                           indf0	equ	0xFEF
  7500                           postinc0	equ	0xFEE
  7501                           fsr0h	equ	0xFEA
  7502                           fsr0l	equ	0xFE9
  7503                           wreg	equ	0xFE8
  7504                           indf1	equ	0xFE7
  7505                           fsr1h	equ	0xFE2
  7506                           fsr1l	equ	0xFE1
  7507                           indf2	equ	0xFDF
  7508                           postinc2	equ	0xFDE
  7509                           postdec2	equ	0xFDD
  7510                           plusw2	equ	0xFDB
  7511                           fsr2h	equ	0xFDA
  7512                           fsr2l	equ	0xFD9
  7513                           status	equ	0xFD8
  7514                           
  7515 ;; *************** function _APP_DeviceCDCEmulatorInitialize *****************
  7516 ;; Defined at:
  7517 ;;		line 64 in file "../src/app_device_cdc_basic.c"
  7518 ;; Parameters:    Size  Location     Type
  7519 ;;		None
  7520 ;; Auto vars:     Size  Location     Type
  7521 ;;  i               1   12[COMRAM] unsigned char 
  7522 ;; Return value:  Size  Location     Type
  7523 ;;		None               void
  7524 ;; Registers used:
  7525 ;;		wreg, fsr2l, fsr2h, status,2, status,0, prodl, prodh, cstack
  7526 ;; Tracked objects:
  7527 ;;		On entry : 0/0
  7528 ;;		On exit  : 0/0
  7529 ;;		Unchanged: 0/0
  7530 ;; Data sizes:     COMRAM   BANK0   BANK1   BANK2   BANK3   BANK4   BANK5   BANK6   BANK7   BANK8   BANK9  BANK10  BANK1
      +1  BANK12  BANK13  BANK14
  7531 ;;      Params:         0       0       0       0       0       0       0       0       0       0       0       0       
      +0       0       0       0
  7532 ;;      Locals:         1       0       0       0       0       0       0       0       0       0       0       0       
      +0       0       0       0
  7533 ;;      Temps:          0       0       0       0       0       0       0       0       0       0       0       0       
      +0       0       0       0
  7534 ;;      Totals:         1       0       0       0       0       0       0       0       0       0       0       0       
      +0       0       0       0
  7535 ;;Total ram usage:        1 bytes
  7536 ;; Hardware stack levels used:    1
  7537 ;; Hardware stack levels required when called:    3
  7538 ;; This function calls:
  7539 ;;		_CDCInitEP
  7540 ;;		_USART_Initialize
  7541 ;; This function is called by:
  7542 ;;		_USER_USB_CALLBACK_EVENT_HANDLER
  7543 ;; This function uses a non-reentrant model
  7544 ;;
  7545                           
  7546                           	psect	text35
  7547  002940                     __ptext35:
  7548                           	opt stack 0
  7549  002940                     _APP_DeviceCDCEmulatorInitialize:
  7550                           	opt stack 21
  7551                           
  7552                           ;app_device_cdc_basic.c: 66: CDCInitEP();
  7553                           
  7554                           ;incstack = 0
  7555  002940  EC67  F014         	call	_CDCInitEP	;wreg free
  7556                           
  7557                           ;app_device_cdc_basic.c: 69: line_coding.bCharFormat = 0;
  7558  002944  0E00               	movlw	0
  7559  002946  0100               	movlb	0	; () banked
  7560  002948  6FDA               	movwf	(_line_coding+4)& (0+255),b
  7561                           
  7562                           ; BSR set to: 0
  7563                           ;app_device_cdc_basic.c: 70: line_coding.bDataBits = 8;
  7564  00294A  0E08               	movlw	8
  7565  00294C  0100               	movlb	0	; () banked
  7566  00294E  6FDC               	movwf	(_line_coding+6)& (0+255),b
  7567                           
  7568                           ; BSR set to: 0
  7569                           ;app_device_cdc_basic.c: 71: line_coding.bParityType = 0;
  7570  002950  0E00               	movlw	0
  7571  002952  0100               	movlb	0	; () banked
  7572  002954  6FDB               	movwf	(_line_coding+5)& (0+255),b
  7573                           
  7574                           ; BSR set to: 0
  7575                           ;app_device_cdc_basic.c: 72: line_coding.dwDTERate = 19200;
  7576  002956  0E00               	movlw	0
  7577  002958  0100               	movlb	0	; () banked
  7578  00295A  6FD6               	movwf	_line_coding& (0+255),b
  7579  00295C  0E4B               	movlw	75
  7580  00295E  6FD7               	movwf	(_line_coding+1)& (0+255),b
  7581  002960  0E00               	movlw	0
  7582  002962  6FD8               	movwf	(_line_coding+2)& (0+255),b
  7583  002964  0E00               	movlw	0
  7584  002966  6FD9               	movwf	(_line_coding+3)& (0+255),b
  7585                           
  7586                           ; BSR set to: 0
  7587                           ;app_device_cdc_basic.c: 74: unsigned char i;
  7588                           ;app_device_cdc_basic.c: 75: USART_Initialize();
  7589  002968  EC7F  F016         	call	_USART_Initialize	;wreg free
  7590                           
  7591                           ;app_device_cdc_basic.c: 78: for (i=0; i<sizeof(USB_Out_Buffer); i++)
  7592  00296C  0E00               	movlw	0
  7593  00296E  6E0D               	movwf	APP_DeviceCDCEmulatorInitialize@i,c
  7594  002970                     i2l3106:
  7595  002970  0E3F               	movlw	63
  7596  002972  640D               	cpfsgt	APP_DeviceCDCEmulatorInitialize@i,c
  7597  002974  D001               	goto	i2l3110
  7598  002976  D00C               	goto	i2l3116
  7599  002978                     i2l3110:
  7600                           
  7601                           ;app_device_cdc_basic.c: 79: {
  7602                           ;app_device_cdc_basic.c: 80: USB_Out_Buffer[i] = 0;
  7603  002978  500D               	movf	APP_DeviceCDCEmulatorInitialize@i,w,c
  7604  00297A  0D01               	mullw	1
  7605  00297C  0E40               	movlw	low _USB_Out_Buffer
  7606  00297E  24F3               	addwf	prodl,w,c
  7607  002980  6ED9               	movwf	fsr2l,c
  7608  002982  0E01               	movlw	high _USB_Out_Buffer
  7609  002984  20F4               	addwfc	prodh,w,c
  7610  002986  6EDA               	movwf	fsr2h,c
  7611  002988  0E00               	movlw	0
  7612  00298A  6EDF               	movwf	indf2,c
  7613  00298C  2A0D               	incf	APP_DeviceCDCEmulatorInitialize@i,f,c
  7614  00298E  D7F0               	goto	i2l3106
  7615  002990                     i2l3116:
  7616                           
  7617                           ;app_device_cdc_basic.c: 81: }
  7618                           ;app_device_cdc_basic.c: 83: NextUSBOut = 0;
  7619  002990  0E00               	movlw	0
  7620  002992  6E4A               	movwf	_NextUSBOut,c
  7621                           
  7622                           ;app_device_cdc_basic.c: 84: LastRS232Out = 0;
  7623  002994  0E00               	movlw	0
  7624  002996  6E49               	movwf	_LastRS232Out,c
  7625                           
  7626                           ;app_device_cdc_basic.c: 85: lastTransmission = 0;
  7627  002998  0E00               	movlw	0
  7628  00299A  0100               	movlb	0	; () banked
  7629  00299C  6F7A               	movwf	_lastTransmission& (0+255),b
  7630  00299E  0E00               	movlw	0
  7631  0029A0  0100               	movlb	0	; () banked
  7632  0029A2  6F7B               	movwf	(_lastTransmission+1)& (0+255),b
  7633                           
  7634                           ; BSR set to: 0
  7635  0029A4  0012               	return		;funcret
  7636  0029A6                     __end_of_APP_DeviceCDCEmulatorInitialize:
  7637                           	opt stack 0
  7638                           pclatu	equ	0xFFB
  7639                           pclath	equ	0xFFA
  7640                           tblptru	equ	0xFF8
  7641                           tblptrh	equ	0xFF7
  7642                           tblptrl	equ	0xFF6
  7643                           tablat	equ	0xFF5
  7644                           prodh	equ	0xFF4
  7645                           prodl	equ	0xFF3
  7646                           intcon	equ	0xFF2
  7647                           indf0	equ	0xFEF
  7648                           postinc0	equ	0xFEE
  7649                           fsr0h	equ	0xFEA
  7650                           fsr0l	equ	0xFE9
  7651                           wreg	equ	0xFE8
  7652                           indf1	equ	0xFE7
  7653                           fsr1h	equ	0xFE2
  7654                           fsr1l	equ	0xFE1
  7655                           indf2	equ	0xFDF
  7656                           postinc2	equ	0xFDE
  7657                           postdec2	equ	0xFDD
  7658                           plusw2	equ	0xFDB
  7659                           fsr2h	equ	0xFDA
  7660                           fsr2l	equ	0xFD9
  7661                           status	equ	0xFD8
  7662                           
  7663 ;; *************** function _CDCInitEP *****************
  7664 ;; Defined at:
  7665 ;;		line 351 in file "../../../../../../framework/usb/src/usb_device_cdc.c"
  7666 ;; Parameters:    Size  Location     Type
  7667 ;;		None
  7668 ;; Auto vars:     Size  Location     Type
  7669 ;;		None
  7670 ;; Return value:  Size  Location     Type
  7671 ;;		None               void
  7672 ;; Registers used:
  7673 ;;		wreg, fsr2l, fsr2h, status,2, status,0, prodl, prodh, cstack
  7674 ;; Tracked objects:
  7675 ;;		On entry : 0/0
  7676 ;;		On exit  : 0/0
  7677 ;;		Unchanged: 0/0
  7678 ;; Data sizes:     COMRAM   BANK0   BANK1   BANK2   BANK3   BANK4   BANK5   BANK6   BANK7   BANK8   BANK9  BANK10  BANK1
      +1  BANK12  BANK13  BANK14
  7679 ;;      Params:         0       0       0       0       0       0       0       0       0       0       0       0       
      +0       0       0       0
  7680 ;;      Locals:         0       0       0       0       0       0       0       0       0       0       0       0       
      +0       0       0       0
  7681 ;;      Temps:          0       0       0       0       0       0       0       0       0       0       0       0       
      +0       0       0       0
  7682 ;;      Totals:         0       0       0       0       0       0       0       0       0       0       0       0       
      +0       0       0       0
  7683 ;;Total ram usage:        0 bytes
  7684 ;; Hardware stack levels used:    1
  7685 ;; Hardware stack levels required when called:    2
  7686 ;; This function calls:
  7687 ;;		_USBEnableEndpoint
  7688 ;;		i2_USBTransferOnePacket
  7689 ;; This function is called by:
  7690 ;;		_APP_DeviceCDCEmulatorInitialize
  7691 ;; This function uses a non-reentrant model
  7692 ;;
  7693                           
  7694                           	psect	text36
  7695  0028CE                     __ptext36:
  7696                           	opt stack 0
  7697  0028CE                     _CDCInitEP:
  7698                           	opt stack 21
  7699                           
  7700                           ;usb_device_cdc.c: 354: line_coding.dwDTERate = 19200;
  7701                           
  7702                           ; BSR set to: 0
  7703                           ;incstack = 0
  7704  0028CE  0E00               	movlw	0
  7705  0028D0  0100               	movlb	0	; () banked
  7706  0028D2  6FD6               	movwf	_line_coding& (0+255),b
  7707  0028D4  0E4B               	movlw	75
  7708  0028D6  6FD7               	movwf	(_line_coding+1)& (0+255),b
  7709  0028D8  0E00               	movlw	0
  7710  0028DA  6FD8               	movwf	(_line_coding+2)& (0+255),b
  7711  0028DC  0E00               	movlw	0
  7712  0028DE  6FD9               	movwf	(_line_coding+3)& (0+255),b
  7713                           
  7714                           ;usb_device_cdc.c: 355: line_coding.bCharFormat = 0x00;
  7715  0028E0  0E00               	movlw	0
  7716  0028E2  0100               	movlb	0	; () banked
  7717  0028E4  6FDA               	movwf	(_line_coding+4)& (0+255),b
  7718                           
  7719                           ;usb_device_cdc.c: 356: line_coding.bParityType = 0x00;
  7720  0028E6  0E00               	movlw	0
  7721  0028E8  0100               	movlb	0	; () banked
  7722  0028EA  6FDB               	movwf	(_line_coding+5)& (0+255),b
  7723                           
  7724                           ;usb_device_cdc.c: 357: line_coding.bDataBits = 0x08;
  7725  0028EC  0E08               	movlw	8
  7726  0028EE  0100               	movlb	0	; () banked
  7727  0028F0  6FDC               	movwf	(_line_coding+6)& (0+255),b
  7728                           
  7729                           ;usb_device_cdc.c: 359: cdc_rx_len = 0;
  7730  0028F2  0E00               	movlw	0
  7731  0028F4  0100               	movlb	0	; () banked
  7732  0028F6  6F81               	movwf	_cdc_rx_len& (0+255),b
  7733                           
  7734                           ; BSR set to: 0
  7735                           ;usb_device_cdc.c: 372: USBEnableEndpoint(1,0x02|0x10|0x08);
  7736  0028F8  0E1A               	movlw	26
  7737  0028FA  6E09               	movwf	USBEnableEndpoint@options,c
  7738  0028FC  0E01               	movlw	1
  7739  0028FE  EC53  F015         	call	_USBEnableEndpoint
  7740                           
  7741                           ;usb_device_cdc.c: 373: USBEnableEndpoint(2,0x02|0x04|0x10|0x08);
  7742  002902  0E1E               	movlw	30
  7743  002904  6E09               	movwf	USBEnableEndpoint@options,c
  7744  002906  0E02               	movlw	2
  7745  002908  EC53  F015         	call	_USBEnableEndpoint
  7746                           
  7747                           ;usb_device_cdc.c: 375: CDCDataOutHandle = USBTransferOnePacket(2,0,(uint8_t*)&cdc_data_
      +                          rx,sizeof(cdc_data_rx));
  7748  00290C  0E00               	movlw	0
  7749  00290E  6E01               	movwf	i2USBTransferOnePacket@dir,c
  7750  002910  0E84               	movlw	low _cdc_data_rx
  7751  002912  6E02               	movwf	i2USBTransferOnePacket@data,c
  7752  002914  0E00               	movlw	high _cdc_data_rx
  7753  002916  6E03               	movwf	i2USBTransferOnePacket@data+1,c
  7754  002918  0E40               	movlw	64
  7755  00291A  6E04               	movwf	i2USBTransferOnePacket@len,c
  7756  00291C  0E02               	movlw	2
  7757  00291E  EC70  F011         	call	i2_USBTransferOnePacket
  7758  002922  C001  F078         	movff	?i2_USBTransferOnePacket,_CDCDataOutHandle
  7759  002926  C002  F079         	movff	?i2_USBTransferOnePacket+1,_CDCDataOutHandle+1
  7760                           
  7761                           ;usb_device_cdc.c: 376: CDCDataInHandle = (0);
  7762  00292A  0E00               	movlw	0
  7763  00292C  0100               	movlb	0	; () banked
  7764  00292E  6F76               	movwf	_CDCDataInHandle& (0+255),b
  7765  002930  0E00               	movlw	0
  7766  002932  0100               	movlb	0	; () banked
  7767  002934  6F77               	movwf	(_CDCDataInHandle+1)& (0+255),b
  7768                           
  7769                           ; BSR set to: 0
  7770                           ;usb_device_cdc.c: 399: {TRISBbits.TRISB2 = 0;};
  7771  002936  9493               	bcf	3987,2,c	;volatile
  7772                           
  7773                           ; BSR set to: 0
  7774                           ;usb_device_cdc.c: 400: {TRISBbits.TRISB1 = 1;};
  7775  002938  8293               	bsf	3987,1,c	;volatile
  7776                           
  7777                           ; BSR set to: 0
  7778                           ;usb_device_cdc.c: 403: cdc_trf_state = 0;
  7779  00293A  0E00               	movlw	0
  7780  00293C  6E54               	movwf	_cdc_trf_state,c
  7781                           
  7782                           ; BSR set to: 0
  7783  00293E  0012               	return		;funcret
  7784  002940                     __end_of_CDCInitEP:
  7785                           	opt stack 0
  7786                           pclatu	equ	0xFFB
  7787                           pclath	equ	0xFFA
  7788                           tblptru	equ	0xFF8
  7789                           tblptrh	equ	0xFF7
  7790                           tblptrl	equ	0xFF6
  7791                           tablat	equ	0xFF5
  7792                           prodh	equ	0xFF4
  7793                           prodl	equ	0xFF3
  7794                           intcon	equ	0xFF2
  7795                           indf0	equ	0xFEF
  7796                           postinc0	equ	0xFEE
  7797                           fsr0h	equ	0xFEA
  7798                           fsr0l	equ	0xFE9
  7799                           wreg	equ	0xFE8
  7800                           indf1	equ	0xFE7
  7801                           fsr1h	equ	0xFE2
  7802                           fsr1l	equ	0xFE1
  7803                           indf2	equ	0xFDF
  7804                           postinc2	equ	0xFDE
  7805                           postdec2	equ	0xFDD
  7806                           plusw2	equ	0xFDB
  7807                           fsr2h	equ	0xFDA
  7808                           fsr2l	equ	0xFD9
  7809                           status	equ	0xFD8
  7810                           
  7811 ;; *************** function i2_USBTransferOnePacket *****************
  7812 ;; Defined at:
  7813 ;;		line 995 in file "../../../../../../framework/usb/src/usb_device.c"
  7814 ;; Parameters:    Size  Location     Type
  7815 ;;  ep              1    wreg     unsigned char 
  7816 ;;  dir             1    0[COMRAM] unsigned char 
  7817 ;;  data            2    1[COMRAM] PTR unsigned char 
  7818 ;;		 -> cdc_data_tx(64), cdc_data_rx(64), NULL(0), 
  7819 ;;  len             1    3[COMRAM] unsigned char 
  7820 ;; Auto vars:     Size  Location     Type
  7821 ;;  ep              1    4[COMRAM] unsigned char 
  7822 ;;  USBTransferO    2    5[COMRAM] PTR volatile struct __BD
  7823 ;;		 -> BDT(48), NULL(0), 
  7824 ;; Return value:  Size  Location     Type
  7825 ;;                  2    0[COMRAM] PTR void 
  7826 ;; Registers used:
  7827 ;;		wreg, fsr2l, fsr2h, status,2, status,0, prodl, prodh
  7828 ;; Tracked objects:
  7829 ;;		On entry : 0/0
  7830 ;;		On exit  : 0/0
  7831 ;;		Unchanged: 0/0
  7832 ;; Data sizes:     COMRAM   BANK0   BANK1   BANK2   BANK3   BANK4   BANK5   BANK6   BANK7   BANK8   BANK9  BANK10  BANK1
      +1  BANK12  BANK13  BANK14
  7833 ;;      Params:         4       0       0       0       0       0       0       0       0       0       0       0       
      +0       0       0       0
  7834 ;;      Locals:         3       0       0       0       0       0       0       0       0       0       0       0       
      +0       0       0       0
  7835 ;;      Temps:          0       0       0       0       0       0       0       0       0       0       0       0       
      +0       0       0       0
  7836 ;;      Totals:         7       0       0       0       0       0       0       0       0       0       0       0       
      +0       0       0       0
  7837 ;;Total ram usage:        7 bytes
  7838 ;; Hardware stack levels used:    1
  7839 ;; This function calls:
  7840 ;;		Nothing
  7841 ;; This function is called by:
  7842 ;;		_CDCInitEP
  7843 ;; This function uses a non-reentrant model
  7844 ;;
  7845                           
  7846                           	psect	text37
  7847  0022E0                     __ptext37:
  7848                           	opt stack 0
  7849  0022E0                     i2_USBTransferOnePacket:
  7850                           	opt stack 22
  7851                           
  7852                           ; BSR set to: 0
  7853                           ;incstack = 0
  7854                           ;i2USBTransferOnePacket@ep stored from wreg
  7855  0022E0  6E05               	movwf	i2USBTransferOnePacket@ep,c
  7856                           
  7857                           ;usb_device.c: 997: volatile BDT_ENTRY* handle;
  7858                           ;usb_device.c: 1000: if(dir != 0)
  7859  0022E2  5001               	movf	i2USBTransferOnePacket@dir,w,c
  7860  0022E4  B4D8               	btfsc	status,2,c
  7861  0022E6  D007               	goto	i2l3032
  7862                           
  7863                           ;usb_device.c: 1001: {
  7864                           ;usb_device.c: 1003: handle = pBDTEntryIn[ep];
  7865  0022E8  5005               	movf	i2USBTransferOnePacket@ep,w,c
  7866  0022EA  0D02               	mullw	2
  7867  0022EC  0E3C               	movlw	low _pBDTEntryIn
  7868  0022EE  24F3               	addwf	prodl,w,c
  7869  0022F0  6ED9               	movwf	fsr2l,c
  7870  0022F2  0E00               	movlw	high _pBDTEntryIn
  7871  0022F4  D006               	goto	L12
  7872  0022F6                     i2l3032:
  7873                           
  7874                           ;usb_device.c: 1005: else
  7875                           ;usb_device.c: 1006: {
  7876                           ;usb_device.c: 1008: handle = pBDTEntryOut[ep];
  7877  0022F6  5005               	movf	i2USBTransferOnePacket@ep,w,c
  7878  0022F8  0D02               	mullw	2
  7879  0022FA  0E60               	movlw	low _pBDTEntryOut
  7880  0022FC  24F3               	addwf	prodl,w,c
  7881  0022FE  6ED9               	movwf	fsr2l,c
  7882  002300  0E00               	movlw	high _pBDTEntryOut
  7883  002302                     L12:
  7884  002302  20F4               	addwfc	prodh,w,c
  7885  002304  6EDA               	movwf	fsr2h,c
  7886  002306  CFDE F006          	movff	postinc2,i2USBTransferOnePacket@handle
  7887  00230A  CFDD F007          	movff	postdec2,i2USBTransferOnePacket@handle+1
  7888  00230E  D000               	goto	i2l3034
  7889  002310                     i2l3034:
  7890                           
  7891                           ;usb_device.c: 1009: }
  7892                           ;usb_device.c: 1013: if(handle == 0)
  7893  002310  5006               	movf	i2USBTransferOnePacket@handle,w,c
  7894  002312  1007               	iorwf	i2USBTransferOnePacket@handle+1,w,c
  7895  002314  A4D8               	btfss	status,2,c
  7896  002316  D005               	goto	i2l3040
  7897                           
  7898                           ;usb_device.c: 1014: {
  7899                           ;usb_device.c: 1015: return 0;
  7900  002318  0E00               	movlw	0
  7901  00231A  6E01               	movwf	?i2_USBTransferOnePacket,c
  7902  00231C  0E00               	movlw	0
  7903  00231E  6E02               	movwf	?i2_USBTransferOnePacket+1,c
  7904  002320  0012               	return	
  7905  002322                     i2l3040:
  7906                           
  7907                           ;usb_device.c: 1016: }
  7908                           ;usb_device.c: 1029: handle->ADR = ((uint16_t)(data));
  7909  002322  EE20 F002          	lfsr	2,2
  7910  002326  5006               	movf	i2USBTransferOnePacket@handle,w,c
  7911  002328  26D9               	addwf	fsr2l,f,c
  7912  00232A  5007               	movf	i2USBTransferOnePacket@handle+1,w,c
  7913  00232C  22DA               	addwfc	fsr2h,f,c
  7914  00232E  C002  FFDE         	movff	i2USBTransferOnePacket@data,postinc2
  7915  002332  C003  FFDD         	movff	i2USBTransferOnePacket@data+1,postdec2
  7916                           
  7917                           ;usb_device.c: 1030: handle->CNT = len;
  7918  002336  EE20 F001          	lfsr	2,1
  7919  00233A  5006               	movf	i2USBTransferOnePacket@handle,w,c
  7920  00233C  26D9               	addwf	fsr2l,f,c
  7921  00233E  5007               	movf	i2USBTransferOnePacket@handle+1,w,c
  7922  002340  22DA               	addwfc	fsr2h,f,c
  7923  002342  C004  FFDF         	movff	i2USBTransferOnePacket@len,indf2
  7924                           
  7925                           ;usb_device.c: 1031: handle->STAT.Val &= 0x40;
  7926  002346  C006  FFD9         	movff	i2USBTransferOnePacket@handle,fsr2l
  7927  00234A  C007  FFDA         	movff	i2USBTransferOnePacket@handle+1,fsr2h
  7928  00234E  0E40               	movlw	64
  7929  002350  16DF               	andwf	indf2,f,c
  7930                           
  7931                           ;usb_device.c: 1032: handle->STAT.Val |= (0x08 & 0x08);
  7932  002352  C006  FFD9         	movff	i2USBTransferOnePacket@handle,fsr2l
  7933  002356  C007  FFDA         	movff	i2USBTransferOnePacket@handle+1,fsr2h
  7934  00235A  0E00               	movlw	0
  7935  00235C  86DB               	bsf	plusw2,3,c
  7936                           
  7937                           ;usb_device.c: 1033: handle->STAT.Val |= 0x80;
  7938  00235E  C006  FFD9         	movff	i2USBTransferOnePacket@handle,fsr2l
  7939  002362  C007  FFDA         	movff	i2USBTransferOnePacket@handle+1,fsr2h
  7940  002366  0E00               	movlw	0
  7941  002368  8EDB               	bsf	plusw2,7,c
  7942                           
  7943                           ;usb_device.c: 1036: if(dir != 0)
  7944  00236A  5001               	movf	i2USBTransferOnePacket@dir,w,c
  7945  00236C  B4D8               	btfsc	status,2,c
  7946  00236E  D007               	goto	i2l3052
  7947                           
  7948                           ;usb_device.c: 1037: {
  7949                           ;usb_device.c: 1039: {((uint8_t_VAL*)&pBDTEntryIn[ep])->Val ^= 0x0004;};
  7950  002370  5005               	movf	i2USBTransferOnePacket@ep,w,c
  7951  002372  0D02               	mullw	2
  7952  002374  0E3C               	movlw	low _pBDTEntryIn
  7953  002376  24F3               	addwf	prodl,w,c
  7954  002378  6ED9               	movwf	fsr2l,c
  7955  00237A  0E00               	movlw	high _pBDTEntryIn
  7956  00237C  D006               	goto	L13
  7957  00237E                     i2l3052:
  7958                           
  7959                           ;usb_device.c: 1041: else
  7960                           ;usb_device.c: 1042: {
  7961                           ;usb_device.c: 1044: {((uint8_t_VAL*)&pBDTEntryOut[ep])->Val ^= 0x0004;};
  7962  00237E  5005               	movf	i2USBTransferOnePacket@ep,w,c
  7963  002380  0D02               	mullw	2
  7964  002382  0E60               	movlw	low _pBDTEntryOut
  7965  002384  24F3               	addwf	prodl,w,c
  7966  002386  6ED9               	movwf	fsr2l,c
  7967  002388  0E00               	movlw	high _pBDTEntryOut
  7968  00238A                     L13:
  7969  00238A  20F4               	addwfc	prodh,w,c
  7970  00238C  6EDA               	movwf	fsr2h,c
  7971  00238E  0E04               	movlw	4
  7972  002390  1ADF               	xorwf	indf2,f,c
  7973  002392  D000               	goto	i2l3054
  7974  002394                     i2l3054:
  7975                           
  7976                           ;usb_device.c: 1045: }
  7977                           ;usb_device.c: 1046: return (void*)handle;
  7978  002394  C006  F001         	movff	i2USBTransferOnePacket@handle,?i2_USBTransferOnePacket
  7979  002398  C007  F002         	movff	i2USBTransferOnePacket@handle+1,?i2_USBTransferOnePacket+1
  7980  00239C  0012               	return	
  7981  00239E  0012               	return		;funcret
  7982  0023A0                     __end_ofi2_USBTransferOnePacket:
  7983                           	opt stack 0
  7984                           pclatu	equ	0xFFB
  7985                           pclath	equ	0xFFA
  7986                           tblptru	equ	0xFF8
  7987                           tblptrh	equ	0xFF7
  7988                           tblptrl	equ	0xFF6
  7989                           tablat	equ	0xFF5
  7990                           prodh	equ	0xFF4
  7991                           prodl	equ	0xFF3
  7992                           intcon	equ	0xFF2
  7993                           indf0	equ	0xFEF
  7994                           postinc0	equ	0xFEE
  7995                           fsr0h	equ	0xFEA
  7996                           fsr0l	equ	0xFE9
  7997                           wreg	equ	0xFE8
  7998                           indf1	equ	0xFE7
  7999                           fsr1h	equ	0xFE2
  8000                           fsr1l	equ	0xFE1
  8001                           indf2	equ	0xFDF
  8002                           postinc2	equ	0xFDE
  8003                           postdec2	equ	0xFDD
  8004                           plusw2	equ	0xFDB
  8005                           fsr2h	equ	0xFDA
  8006                           fsr2l	equ	0xFD9
  8007                           status	equ	0xFD8
  8008                           
  8009 ;; *************** function _USBEnableEndpoint *****************
  8010 ;; Defined at:
  8011 ;;		line 878 in file "../../../../../../framework/usb/src/usb_device.c"
  8012 ;; Parameters:    Size  Location     Type
  8013 ;;  ep              1    wreg     unsigned char 
  8014 ;;  options         1    8[COMRAM] unsigned char 
  8015 ;; Auto vars:     Size  Location     Type
  8016 ;;  ep              1   11[COMRAM] unsigned char 
  8017 ;;  p               2    9[COMRAM] PTR unsigned char 
  8018 ;;		 -> UEP0(1), 
  8019 ;; Return value:  Size  Location     Type
  8020 ;;		None               void
  8021 ;; Registers used:
  8022 ;;		wreg, fsr2l, fsr2h, status,2, status,0, prodl, prodh, cstack
  8023 ;; Tracked objects:
  8024 ;;		On entry : 0/0
  8025 ;;		On exit  : 0/0
  8026 ;;		Unchanged: 0/0
  8027 ;; Data sizes:     COMRAM   BANK0   BANK1   BANK2   BANK3   BANK4   BANK5   BANK6   BANK7   BANK8   BANK9  BANK10  BANK1
      +1  BANK12  BANK13  BANK14
  8028 ;;      Params:         1       0       0       0       0       0       0       0       0       0       0       0       
      +0       0       0       0
  8029 ;;      Locals:         3       0       0       0       0       0       0       0       0       0       0       0       
      +0       0       0       0
  8030 ;;      Temps:          0       0       0       0       0       0       0       0       0       0       0       0       
      +0       0       0       0
  8031 ;;      Totals:         4       0       0       0       0       0       0       0       0       0       0       0       
      +0       0       0       0
  8032 ;;Total ram usage:        4 bytes
  8033 ;; Hardware stack levels used:    1
  8034 ;; Hardware stack levels required when called:    1
  8035 ;; This function calls:
  8036 ;;		_USBConfigureEndpoint
  8037 ;; This function is called by:
  8038 ;;		_CDCInitEP
  8039 ;; This function uses a non-reentrant model
  8040 ;;
  8041                           
  8042                           	psect	text38
  8043  002AA6                     __ptext38:
  8044                           	opt stack 0
  8045  002AA6                     _USBEnableEndpoint:
  8046                           	opt stack 21
  8047                           
  8048                           ;incstack = 0
  8049                           ;USBEnableEndpoint@ep stored from wreg
  8050  002AA6  6E0C               	movwf	USBEnableEndpoint@ep,c
  8051                           
  8052                           ;usb_device.c: 880: unsigned char* p;
  8053                           ;usb_device.c: 884: if(options & 0x04)
  8054  002AA8  A409               	btfss	USBEnableEndpoint@options,2,c
  8055  002AAA  D006               	goto	i2l3020
  8056                           
  8057                           ;usb_device.c: 885: {
  8058                           ;usb_device.c: 886: USBConfigureEndpoint(ep, 0);
  8059  002AAC  0E00               	movlw	0
  8060  002AAE  6E01               	movwf	USBConfigureEndpoint@direction,c
  8061  002AB0  500C               	movf	USBEnableEndpoint@ep,w,c
  8062  002AB2  ECD9  F012         	call	_USBConfigureEndpoint
  8063  002AB6  D000               	goto	i2l3020
  8064  002AB8                     i2l3020:
  8065                           
  8066                           ;usb_device.c: 887: }
  8067                           ;usb_device.c: 888: if(options & 0x02)
  8068  002AB8  A209               	btfss	USBEnableEndpoint@options,1,c
  8069  002ABA  D006               	goto	i2l3024
  8070                           
  8071                           ;usb_device.c: 889: {
  8072                           ;usb_device.c: 890: USBConfigureEndpoint(ep, 1);
  8073  002ABC  0E01               	movlw	1
  8074  002ABE  6E01               	movwf	USBConfigureEndpoint@direction,c
  8075  002AC0  500C               	movf	USBEnableEndpoint@ep,w,c
  8076  002AC2  ECD9  F012         	call	_USBConfigureEndpoint
  8077  002AC6  D000               	goto	i2l3024
  8078  002AC8                     i2l3024:
  8079                           
  8080                           ;usb_device.c: 891: }
  8081                           ;usb_device.c: 899: p = (unsigned char*)(&UEP0+ep);
  8082  002AC8  500C               	movf	USBEnableEndpoint@ep,w,c
  8083  002ACA  0D01               	mullw	1
  8084  002ACC  0E26               	movlw	38
  8085  002ACE  24F3               	addwf	prodl,w,c
  8086  002AD0  6E0A               	movwf	USBEnableEndpoint@p,c
  8087  002AD2  0E0F               	movlw	15
  8088  002AD4  20F4               	addwfc	prodh,w,c
  8089  002AD6  6E0B               	movwf	USBEnableEndpoint@p+1,c
  8090                           
  8091                           ;usb_device.c: 901: *p = options;
  8092  002AD8  C00A  FFD9         	movff	USBEnableEndpoint@p,fsr2l
  8093  002ADC  C00B  FFDA         	movff	USBEnableEndpoint@p+1,fsr2h
  8094  002AE0  C009  FFDF         	movff	USBEnableEndpoint@options,indf2
  8095  002AE4  0012               	return		;funcret
  8096  002AE6                     __end_of_USBEnableEndpoint:
  8097                           	opt stack 0
  8098                           pclatu	equ	0xFFB
  8099                           pclath	equ	0xFFA
  8100                           tblptru	equ	0xFF8
  8101                           tblptrh	equ	0xFF7
  8102                           tblptrl	equ	0xFF6
  8103                           tablat	equ	0xFF5
  8104                           prodh	equ	0xFF4
  8105                           prodl	equ	0xFF3
  8106                           intcon	equ	0xFF2
  8107                           indf0	equ	0xFEF
  8108                           postinc0	equ	0xFEE
  8109                           fsr0h	equ	0xFEA
  8110                           fsr0l	equ	0xFE9
  8111                           wreg	equ	0xFE8
  8112                           indf1	equ	0xFE7
  8113                           fsr1h	equ	0xFE2
  8114                           fsr1l	equ	0xFE1
  8115                           indf2	equ	0xFDF
  8116                           postinc2	equ	0xFDE
  8117                           postdec2	equ	0xFDD
  8118                           plusw2	equ	0xFDB
  8119                           fsr2h	equ	0xFDA
  8120                           fsr2l	equ	0xFD9
  8121                           status	equ	0xFD8
  8122                           
  8123 ;; *************** function _USBConfigureEndpoint *****************
  8124 ;; Defined at:
  8125 ;;		line 1543 in file "../../../../../../framework/usb/src/usb_device.c"
  8126 ;; Parameters:    Size  Location     Type
  8127 ;;  EPNum           1    wreg     unsigned char 
  8128 ;;  direction       1    0[COMRAM] unsigned char 
  8129 ;; Auto vars:     Size  Location     Type
  8130 ;;  EPNum           1    5[COMRAM] unsigned char 
  8131 ;;  handle          2    6[COMRAM] PTR volatile struct __BD
  8132 ;;		 -> BDT(48), 
  8133 ;; Return value:  Size  Location     Type
  8134 ;;		None               void
  8135 ;; Registers used:
  8136 ;;		wreg, fsr2l, fsr2h, status,2, status,0, prodl, prodh
  8137 ;; Tracked objects:
  8138 ;;		On entry : 0/0
  8139 ;;		On exit  : 0/0
  8140 ;;		Unchanged: 0/0
  8141 ;; Data sizes:     COMRAM   BANK0   BANK1   BANK2   BANK3   BANK4   BANK5   BANK6   BANK7   BANK8   BANK9  BANK10  BANK1
      +1  BANK12  BANK13  BANK14
  8142 ;;      Params:         1       0       0       0       0       0       0       0       0       0       0       0       
      +0       0       0       0
  8143 ;;      Locals:         3       0       0       0       0       0       0       0       0       0       0       0       
      +0       0       0       0
  8144 ;;      Temps:          4       0       0       0       0       0       0       0       0       0       0       0       
      +0       0       0       0
  8145 ;;      Totals:         8       0       0       0       0       0       0       0       0       0       0       0       
      +0       0       0       0
  8146 ;;Total ram usage:        8 bytes
  8147 ;; Hardware stack levels used:    1
  8148 ;; This function calls:
  8149 ;;		Nothing
  8150 ;; This function is called by:
  8151 ;;		_USBEnableEndpoint
  8152 ;; This function uses a non-reentrant model
  8153 ;;
  8154                           
  8155                           	psect	text39
  8156  0025B2                     __ptext39:
  8157                           	opt stack 0
  8158  0025B2                     _USBConfigureEndpoint:
  8159                           	opt stack 21
  8160                           
  8161                           ;incstack = 0
  8162                           ;USBConfigureEndpoint@EPNum stored from wreg
  8163  0025B2  6E06               	movwf	USBConfigureEndpoint@EPNum,c
  8164                           
  8165                           ;usb_device.c: 1545: volatile BDT_ENTRY* handle;
  8166                           ;usb_device.c: 1549: handle = (volatile BDT_ENTRY*)&BDT[0];
  8167  0025B4  0E00               	movlw	0
  8168  0025B6  6E07               	movwf	USBConfigureEndpoint@handle,c
  8169  0025B8  0E0D               	movlw	13
  8170  0025BA  6E08               	movwf	USBConfigureEndpoint@handle+1,c
  8171                           
  8172                           ;usb_device.c: 1550: handle += (4*EPNum+2*direction+0u);
  8173  0025BC  5001               	movf	USBConfigureEndpoint@direction,w,c
  8174  0025BE  6E02               	movwf	??_USBConfigureEndpoint& (0+255),c
  8175  0025C0  6A03               	clrf	(??_USBConfigureEndpoint+1)& (0+255),c
  8176  0025C2  90D8               	bcf	status,0,c
  8177  0025C4  3602               	rlcf	??_USBConfigureEndpoint,f,c
  8178  0025C6  3603               	rlcf	??_USBConfigureEndpoint+1,f,c
  8179  0025C8  5006               	movf	USBConfigureEndpoint@EPNum,w,c
  8180  0025CA  6E04               	movwf	(??_USBConfigureEndpoint+2)& (0+255),c
  8181  0025CC  6A05               	clrf	(??_USBConfigureEndpoint+3)& (0+255),c
  8182  0025CE  90D8               	bcf	status,0,c
  8183  0025D0  3604               	rlcf	??_USBConfigureEndpoint+2,f,c
  8184  0025D2  3605               	rlcf	??_USBConfigureEndpoint+3,f,c
  8185  0025D4  90D8               	bcf	status,0,c
  8186  0025D6  3604               	rlcf	??_USBConfigureEndpoint+2,f,c
  8187  0025D8  3605               	rlcf	??_USBConfigureEndpoint+3,f,c
  8188  0025DA  5002               	movf	??_USBConfigureEndpoint,w,c
  8189  0025DC  2604               	addwf	??_USBConfigureEndpoint+2,f,c
  8190  0025DE  5003               	movf	??_USBConfigureEndpoint+1,w,c
  8191  0025E0  2205               	addwfc	??_USBConfigureEndpoint+3,f,c
  8192  0025E2  90D8               	bcf	status,0,c
  8193  0025E4  3604               	rlcf	??_USBConfigureEndpoint+2,f,c
  8194  0025E6  3605               	rlcf	??_USBConfigureEndpoint+3,f,c
  8195  0025E8  90D8               	bcf	status,0,c
  8196  0025EA  3604               	rlcf	??_USBConfigureEndpoint+2,f,c
  8197  0025EC  3605               	rlcf	??_USBConfigureEndpoint+3,f,c
  8198  0025EE  5004               	movf	??_USBConfigureEndpoint+2,w,c
  8199  0025F0  2607               	addwf	USBConfigureEndpoint@handle,f,c
  8200  0025F2  5005               	movf	??_USBConfigureEndpoint+3,w,c
  8201  0025F4  2208               	addwfc	USBConfigureEndpoint@handle+1,f,c
  8202                           
  8203                           ;usb_device.c: 1552: handle->STAT.UOWN = 0;
  8204  0025F6  C007  FFD9         	movff	USBConfigureEndpoint@handle,fsr2l
  8205  0025FA  C008  FFDA         	movff	USBConfigureEndpoint@handle+1,fsr2h
  8206  0025FE  9EDF               	bcf	indf2,7,c
  8207                           
  8208                           ;usb_device.c: 1557: if(direction == 0)
  8209  002600  5001               	movf	USBConfigureEndpoint@direction,w,c
  8210  002602  A4D8               	btfss	status,2,c
  8211  002604  D007               	goto	i2l3010
  8212                           
  8213                           ;usb_device.c: 1558: {
  8214                           ;usb_device.c: 1559: pBDTEntryOut[EPNum] = handle;
  8215  002606  5006               	movf	USBConfigureEndpoint@EPNum,w,c
  8216  002608  0D02               	mullw	2
  8217  00260A  0E60               	movlw	low _pBDTEntryOut
  8218  00260C  24F3               	addwf	prodl,w,c
  8219  00260E  6ED9               	movwf	fsr2l,c
  8220  002610  0E00               	movlw	high _pBDTEntryOut
  8221  002612  D006               	goto	L14
  8222  002614                     i2l3010:
  8223                           
  8224                           ;usb_device.c: 1561: else
  8225                           ;usb_device.c: 1562: {
  8226                           ;usb_device.c: 1563: pBDTEntryIn[EPNum] = handle;
  8227  002614  5006               	movf	USBConfigureEndpoint@EPNum,w,c
  8228  002616  0D02               	mullw	2
  8229  002618  0E3C               	movlw	low _pBDTEntryIn
  8230  00261A  24F3               	addwf	prodl,w,c
  8231  00261C  6ED9               	movwf	fsr2l,c
  8232  00261E  0E00               	movlw	high _pBDTEntryIn
  8233  002620                     L14:
  8234  002620  20F4               	addwfc	prodh,w,c
  8235  002622  6EDA               	movwf	fsr2h,c
  8236  002624  C007  FFDE         	movff	USBConfigureEndpoint@handle,postinc2
  8237  002628  C008  FFDD         	movff	USBConfigureEndpoint@handle+1,postdec2
  8238  00262C  D000               	goto	i2l3012
  8239  00262E                     i2l3012:
  8240                           
  8241                           ;usb_device.c: 1564: }
  8242                           ;usb_device.c: 1567: handle->STAT.DTS = 0;
  8243  00262E  C007  FFD9         	movff	USBConfigureEndpoint@handle,fsr2l
  8244  002632  C008  FFDA         	movff	USBConfigureEndpoint@handle+1,fsr2h
  8245  002636  9CDF               	bcf	indf2,6,c
  8246                           
  8247                           ;usb_device.c: 1568: (handle+1)->STAT.DTS = 1;
  8248  002638  EE20 F004          	lfsr	2,4
  8249  00263C  5007               	movf	USBConfigureEndpoint@handle,w,c
  8250  00263E  26D9               	addwf	fsr2l,f,c
  8251  002640  5008               	movf	USBConfigureEndpoint@handle+1,w,c
  8252  002642  22DA               	addwfc	fsr2h,f,c
  8253  002644  8CDF               	bsf	indf2,6,c
  8254  002646  0012               	return		;funcret
  8255  002648                     __end_of_USBConfigureEndpoint:
  8256                           	opt stack 0
  8257                           pclatu	equ	0xFFB
  8258                           pclath	equ	0xFFA
  8259                           tblptru	equ	0xFF8
  8260                           tblptrh	equ	0xFF7
  8261                           tblptrl	equ	0xFF6
  8262                           tablat	equ	0xFF5
  8263                           prodh	equ	0xFF4
  8264                           prodl	equ	0xFF3
  8265                           intcon	equ	0xFF2
  8266                           indf0	equ	0xFEF
  8267                           postinc0	equ	0xFEE
  8268                           fsr0h	equ	0xFEA
  8269                           fsr0l	equ	0xFE9
  8270                           wreg	equ	0xFE8
  8271                           indf1	equ	0xFE7
  8272                           fsr1h	equ	0xFE2
  8273                           fsr1l	equ	0xFE1
  8274                           indf2	equ	0xFDF
  8275                           postinc2	equ	0xFDE
  8276                           postdec2	equ	0xFDD
  8277                           plusw2	equ	0xFDB
  8278                           fsr2h	equ	0xFDA
  8279                           fsr2l	equ	0xFD9
  8280                           status	equ	0xFD8
  8281                           
  8282 ;; *************** function _USBCtrlTrfOutHandler *****************
  8283 ;; Defined at:
  8284 ;;		line 2541 in file "../../../../../../framework/usb/src/usb_device.c"
  8285 ;; Parameters:    Size  Location     Type
  8286 ;;		None
  8287 ;; Auto vars:     Size  Location     Type
  8288 ;;		None
  8289 ;; Return value:  Size  Location     Type
  8290 ;;		None               void
  8291 ;; Registers used:
  8292 ;;		wreg, fsr1l, fsr1h, fsr2l, fsr2h, status,2, status,0, pclat, tosl, prodl, prodh, cstack
  8293 ;; Tracked objects:
  8294 ;;		On entry : 0/0
  8295 ;;		On exit  : 0/0
  8296 ;;		Unchanged: 0/0
  8297 ;; Data sizes:     COMRAM   BANK0   BANK1   BANK2   BANK3   BANK4   BANK5   BANK6   BANK7   BANK8   BANK9  BANK10  BANK1
      +1  BANK12  BANK13  BANK14
  8298 ;;      Params:         0       0       0       0       0       0       0       0       0       0       0       0       
      +0       0       0       0
  8299 ;;      Locals:         0       0       0       0       0       0       0       0       0       0       0       0       
      +0       0       0       0
  8300 ;;      Temps:          0       0       0       0       0       0       0       0       0       0       0       0       
      +0       0       0       0
  8301 ;;      Totals:         0       0       0       0       0       0       0       0       0       0       0       0       
      +0       0       0       0
  8302 ;;Total ram usage:        0 bytes
  8303 ;; Hardware stack levels used:    1
  8304 ;; Hardware stack levels required when called:    3
  8305 ;; This function calls:
  8306 ;;		_USBCtrlTrfRxService
  8307 ;; This function is called by:
  8308 ;;		_USBCtrlEPService
  8309 ;; This function uses a non-reentrant model
  8310 ;;
  8311                           
  8312                           	psect	text40
  8313  0029A6                     __ptext40:
  8314                           	opt stack 0
  8315  0029A6                     _USBCtrlTrfOutHandler:
  8316                           	opt stack 21
  8317                           
  8318                           ;usb_device.c: 2543: if(controlTransferState == 2)
  8319                           
  8320                           ;incstack = 0
  8321  0029A6  0E02               	movlw	2
  8322  0029A8  1855               	xorwf	_controlTransferState,w,c	;volatile
  8323  0029AA  A4D8               	btfss	status,2,c
  8324  0029AC  D003               	goto	i2l3738
  8325                           
  8326                           ;usb_device.c: 2544: {
  8327                           ;usb_device.c: 2545: USBCtrlTrfRxService();
  8328  0029AE  ECE1  F00B         	call	_USBCtrlTrfRxService	;wreg free
  8329                           
  8330                           ;usb_device.c: 2546: }
  8331  0029B2  0012               	return	
  8332  0029B4                     i2l3738:
  8333                           
  8334                           ;usb_device.c: 2547: else
  8335                           ;usb_device.c: 2548: {
  8336                           ;usb_device.c: 2551: controlTransferState = 0;
  8337  0029B4  0E00               	movlw	0
  8338  0029B6  6E55               	movwf	_controlTransferState,c	;volatile
  8339                           
  8340                           ;usb_device.c: 2558: if(BothEP0OutUOWNsSet == 0)
  8341  0029B8  5048               	movf	_BothEP0OutUOWNsSet,w,c	;volatile
  8342  0029BA  A4D8               	btfss	status,2,c
  8343  0029BC  D01F               	goto	i2l3746
  8344                           
  8345                           ;usb_device.c: 2559: {
  8346                           ;usb_device.c: 2560: pBDTEntryEP0OutNext->CNT = 8;
  8347  0029BE  EE20 F001          	lfsr	2,1
  8348  0029C2  5046               	movf	_pBDTEntryEP0OutNext,w,c
  8349  0029C4  26D9               	addwf	fsr2l,f,c
  8350  0029C6  5047               	movf	_pBDTEntryEP0OutNext+1,w,c
  8351  0029C8  22DA               	addwfc	fsr2h,f,c
  8352  0029CA  0E08               	movlw	8
  8353  0029CC  6EDF               	movwf	indf2,c
  8354                           
  8355                           ;usb_device.c: 2561: pBDTEntryEP0OutNext->ADR = ((uint16_t)(&SetupPkt));
  8356  0029CE  EE20 F002          	lfsr	2,2
  8357  0029D2  5046               	movf	_pBDTEntryEP0OutNext,w,c
  8358  0029D4  26D9               	addwf	fsr2l,f,c
  8359  0029D6  5047               	movf	_pBDTEntryEP0OutNext+1,w,c
  8360  0029D8  22DA               	addwfc	fsr2h,f,c
  8361  0029DA  0E30               	movlw	48
  8362  0029DC  6EDE               	movwf	postinc2,c
  8363  0029DE  0E0D               	movlw	13
  8364  0029E0  6EDD               	movwf	postdec2,c
  8365                           
  8366                           ;usb_device.c: 2562: pBDTEntryEP0OutNext->STAT.Val = 0x00|(0x08 & 0x08)|0x04;
  8367  0029E2  C046  FFD9         	movff	_pBDTEntryEP0OutNext,fsr2l
  8368  0029E6  C047  FFDA         	movff	_pBDTEntryEP0OutNext+1,fsr2h
  8369  0029EA  0E0C               	movlw	12
  8370  0029EC  6EDF               	movwf	indf2,c
  8371                           
  8372                           ;usb_device.c: 2563: pBDTEntryEP0OutNext->STAT.Val |= 0x80;
  8373  0029EE  C046  FFD9         	movff	_pBDTEntryEP0OutNext,fsr2l
  8374  0029F2  C047  FFDA         	movff	_pBDTEntryEP0OutNext+1,fsr2h
  8375  0029F6  0E00               	movlw	0
  8376  0029F8  8EDB               	bsf	plusw2,7,c
  8377                           
  8378                           ;usb_device.c: 2564: }
  8379  0029FA  0012               	return	
  8380  0029FC                     i2l3746:
  8381                           
  8382                           ;usb_device.c: 2565: else
  8383                           ;usb_device.c: 2566: {
  8384                           ;usb_device.c: 2567: BothEP0OutUOWNsSet = 0;
  8385  0029FC  0E00               	movlw	0
  8386  0029FE  6E48               	movwf	_BothEP0OutUOWNsSet,c	;volatile
  8387  002A00  0012               	return	
  8388  002A02  0012               	return		;funcret
  8389  002A04                     __end_of_USBCtrlTrfOutHandler:
  8390                           	opt stack 0
  8391                           pclatu	equ	0xFFB
  8392                           pclath	equ	0xFFA
  8393                           tblptru	equ	0xFF8
  8394                           tblptrh	equ	0xFF7
  8395                           tblptrl	equ	0xFF6
  8396                           tablat	equ	0xFF5
  8397                           prodh	equ	0xFF4
  8398                           prodl	equ	0xFF3
  8399                           intcon	equ	0xFF2
  8400                           indf0	equ	0xFEF
  8401                           postinc0	equ	0xFEE
  8402                           fsr0h	equ	0xFEA
  8403                           fsr0l	equ	0xFE9
  8404                           wreg	equ	0xFE8
  8405                           indf1	equ	0xFE7
  8406                           fsr1h	equ	0xFE2
  8407                           fsr1l	equ	0xFE1
  8408                           indf2	equ	0xFDF
  8409                           postinc2	equ	0xFDE
  8410                           postdec2	equ	0xFDD
  8411                           plusw2	equ	0xFDB
  8412                           fsr2h	equ	0xFDA
  8413                           fsr2l	equ	0xFD9
  8414                           status	equ	0xFD8
  8415                           
  8416 ;; *************** function _USBCtrlTrfRxService *****************
  8417 ;; Defined at:
  8418 ;;		line 1852 in file "../../../../../../framework/usb/src/usb_device.c"
  8419 ;; Parameters:    Size  Location     Type
  8420 ;;		None
  8421 ;; Auto vars:     Size  Location     Type
  8422 ;;  byteToRead      1   18[COMRAM] unsigned char 
  8423 ;;  i               1   17[COMRAM] unsigned char 
  8424 ;; Return value:  Size  Location     Type
  8425 ;;		None               void
  8426 ;; Registers used:
  8427 ;;		wreg, fsr1l, fsr1h, fsr2l, fsr2h, status,2, status,0, pclat, tosl, prodl, prodh, cstack
  8428 ;; Tracked objects:
  8429 ;;		On entry : 0/0
  8430 ;;		On exit  : 0/0
  8431 ;;		Unchanged: 0/0
  8432 ;; Data sizes:     COMRAM   BANK0   BANK1   BANK2   BANK3   BANK4   BANK5   BANK6   BANK7   BANK8   BANK9  BANK10  BANK1
      +1  BANK12  BANK13  BANK14
  8433 ;;      Params:         0       0       0       0       0       0       0       0       0       0       0       0       
      +0       0       0       0
  8434 ;;      Locals:         2       0       0       0       0       0       0       0       0       0       0       0       
      +0       0       0       0
  8435 ;;      Temps:          0       0       0       0       0       0       0       0       0       0       0       0       
      +0       0       0       0
  8436 ;;      Totals:         2       0       0       0       0       0       0       0       0       0       0       0       
      +0       0       0       0
  8437 ;;Total ram usage:        2 bytes
  8438 ;; Hardware stack levels used:    1
  8439 ;; Hardware stack levels required when called:    2
  8440 ;; This function calls:
  8441 ;;		_USART_mySetLineCodingHandler
  8442 ;;		_USBCtrlEPAllowStatusStage
  8443 ;; This function is called by:
  8444 ;;		_USBCtrlTrfOutHandler
  8445 ;; This function uses a non-reentrant model
  8446 ;;
  8447                           
  8448                           	psect	text41
  8449  0017C2                     __ptext41:
  8450                           	opt stack 0
  8451  0017C2                     _USBCtrlTrfRxService:
  8452                           	opt stack 21
  8453                           
  8454                           ;usb_device.c: 1854: uint8_t byteToRead;
  8455                           ;usb_device.c: 1855: uint8_t i;
  8456                           ;usb_device.c: 1859: byteToRead = pBDTEntryEP0OutCurrent->CNT;
  8457                           
  8458                           ;incstack = 0
  8459  0017C2  EE20 F001          	lfsr	2,1
  8460  0017C6  5044               	movf	_pBDTEntryEP0OutCurrent,w,c
  8461  0017C8  26D9               	addwf	fsr2l,f,c
  8462  0017CA  5045               	movf	_pBDTEntryEP0OutCurrent+1,w,c
  8463  0017CC  22DA               	addwfc	fsr2h,f,c
  8464  0017CE  50DF               	movf	indf2,w,c
  8465  0017D0  6E13               	movwf	USBCtrlTrfRxService@byteToRead,c
  8466                           
  8467                           ;usb_device.c: 1865: if(byteToRead > outPipes[0].wCount.Val)
  8468  0017D2  5013               	movf	USBCtrlTrfRxService@byteToRead,w,c
  8469  0017D4  5C37               	subwf	_outPipes+4,w,c	;volatile
  8470  0017D6  0E00               	movlw	0
  8471  0017D8  5838               	subwfb	_outPipes+5,w,c	;volatile
  8472  0017DA  B0D8               	btfsc	status,0,c
  8473  0017DC  D003               	goto	i2l3598
  8474                           
  8475                           ;usb_device.c: 1866: {
  8476                           ;usb_device.c: 1867: byteToRead = outPipes[0].wCount.Val;
  8477  0017DE  C037  F013         	movff	_outPipes+4,USBCtrlTrfRxService@byteToRead	;volatile
  8478  0017E2  D000               	goto	i2l3598
  8479  0017E4                     i2l3598:
  8480                           
  8481                           ;usb_device.c: 1868: }
  8482                           ;usb_device.c: 1870: outPipes[0].wCount.Val -= byteToRead;
  8483  0017E4  5013               	movf	USBCtrlTrfRxService@byteToRead,w,c
  8484  0017E6  5E37               	subwf	_outPipes+4,f,c	;volatile
  8485  0017E8  0E00               	movlw	0
  8486  0017EA  5A38               	subwfb	_outPipes+5,f,c	;volatile
  8487                           
  8488                           ;usb_device.c: 1874: for(i=0;i<byteToRead;i++)
  8489  0017EC  0E00               	movlw	0
  8490  0017EE  6E12               	movwf	USBCtrlTrfRxService@i,c
  8491  0017F0  D012               	goto	i2l3608
  8492  0017F2                     i2l3602:
  8493                           
  8494                           ;usb_device.c: 1875: {
  8495                           ;usb_device.c: 1876: *outPipes[0].pDst.bRam++ = CtrlTrfData[i];
  8496  0017F2  5012               	movf	USBCtrlTrfRxService@i,w,c
  8497  0017F4  0D01               	mullw	1
  8498  0017F6  0E38               	movlw	56
  8499  0017F8  24F3               	addwf	prodl,w,c
  8500  0017FA  6ED9               	movwf	fsr2l,c
  8501  0017FC  0E0D               	movlw	13
  8502  0017FE  20F4               	addwfc	prodh,w,c
  8503  001800  6EDA               	movwf	fsr2h,c
  8504  001802  C033  FFE1         	movff	_outPipes,fsr1l	;volatile
  8505  001806  C034  FFE2         	movff	_outPipes+1,fsr1h	;volatile
  8506  00180A  CFDF FFE7          	movff	indf2,indf1
  8507  00180E  4A33               	infsnz	_outPipes,f,c	;volatile
  8508  001810  2A34               	incf	_outPipes+1,f,c	;volatile
  8509  001812  2A12               	incf	USBCtrlTrfRxService@i,f,c
  8510  001814  D000               	goto	i2l3608
  8511  001816                     i2l3608:
  8512  001816  5013               	movf	USBCtrlTrfRxService@byteToRead,w,c
  8513  001818  5C12               	subwf	USBCtrlTrfRxService@i,w,c
  8514  00181A  A0D8               	btfss	status,0,c
  8515  00181C  D7EA               	goto	i2l3602
  8516                           
  8517                           ;usb_device.c: 1877: }
  8518                           ;usb_device.c: 1881: if(outPipes[0].wCount.Val > 0)
  8519  00181E  5037               	movf	_outPipes+4,w,c	;volatile
  8520  001820  1038               	iorwf	_outPipes+5,w,c	;volatile
  8521  001822  B4D8               	btfsc	status,2,c
  8522  001824  D032               	goto	i2l3624
  8523                           
  8524                           ;usb_device.c: 1882: {
  8525                           ;usb_device.c: 1883: pBDTEntryEP0OutNext->CNT = 8;
  8526  001826  EE20 F001          	lfsr	2,1
  8527  00182A  5046               	movf	_pBDTEntryEP0OutNext,w,c
  8528  00182C  26D9               	addwf	fsr2l,f,c
  8529  00182E  5047               	movf	_pBDTEntryEP0OutNext+1,w,c
  8530  001830  22DA               	addwfc	fsr2h,f,c
  8531  001832  0E08               	movlw	8
  8532  001834  6EDF               	movwf	indf2,c
  8533                           
  8534                           ;usb_device.c: 1884: pBDTEntryEP0OutNext->ADR = ((uint16_t)(&CtrlTrfData));
  8535  001836  EE20 F002          	lfsr	2,2
  8536  00183A  5046               	movf	_pBDTEntryEP0OutNext,w,c
  8537  00183C  26D9               	addwf	fsr2l,f,c
  8538  00183E  5047               	movf	_pBDTEntryEP0OutNext+1,w,c
  8539  001840  22DA               	addwfc	fsr2h,f,c
  8540  001842  0E38               	movlw	56
  8541  001844  6EDE               	movwf	postinc2,c
  8542  001846  0E0D               	movlw	13
  8543  001848  6EDD               	movwf	postdec2,c
  8544                           
  8545                           ;usb_device.c: 1885: if(pBDTEntryEP0OutCurrent->STAT.DTS == 0)
  8546  00184A  C044  FFD9         	movff	_pBDTEntryEP0OutCurrent,fsr2l
  8547  00184E  C045  FFDA         	movff	_pBDTEntryEP0OutCurrent+1,fsr2h
  8548  001852  BCDF               	btfsc	indf2,6,c
  8549  001854  D00D               	goto	i2l3620
  8550                           
  8551                           ;usb_device.c: 1886: {
  8552                           ;usb_device.c: 1887: pBDTEntryEP0OutNext->STAT.Val = 0x40|(0x08 & 0x08);
  8553  001856  C046  FFD9         	movff	_pBDTEntryEP0OutNext,fsr2l
  8554  00185A  C047  FFDA         	movff	_pBDTEntryEP0OutNext+1,fsr2h
  8555  00185E  0E48               	movlw	72
  8556  001860  6EDF               	movwf	indf2,c
  8557                           
  8558                           ;usb_device.c: 1888: pBDTEntryEP0OutNext->STAT.Val |= 0x80;
  8559  001862  C046  FFD9         	movff	_pBDTEntryEP0OutNext,fsr2l
  8560  001866  C047  FFDA         	movff	_pBDTEntryEP0OutNext+1,fsr2h
  8561  00186A  0E00               	movlw	0
  8562  00186C  8EDB               	bsf	plusw2,7,c
  8563                           
  8564                           ;usb_device.c: 1889: }
  8565  00186E  0012               	return	
  8566  001870                     i2l3620:
  8567                           
  8568                           ;usb_device.c: 1890: else
  8569                           ;usb_device.c: 1891: {
  8570                           ;usb_device.c: 1892: pBDTEntryEP0OutNext->STAT.Val = 0x00|(0x08 & 0x08);
  8571  001870  C046  FFD9         	movff	_pBDTEntryEP0OutNext,fsr2l
  8572  001874  C047  FFDA         	movff	_pBDTEntryEP0OutNext+1,fsr2h
  8573  001878  0E08               	movlw	8
  8574  00187A  6EDF               	movwf	indf2,c
  8575                           
  8576                           ;usb_device.c: 1893: pBDTEntryEP0OutNext->STAT.Val |= 0x80;
  8577  00187C  C046  FFD9         	movff	_pBDTEntryEP0OutNext,fsr2l
  8578  001880  C047  FFDA         	movff	_pBDTEntryEP0OutNext+1,fsr2h
  8579  001884  0E00               	movlw	0
  8580  001886  8EDB               	bsf	plusw2,7,c
  8581                           
  8582                           ;usb_device.c: 1894: }
  8583                           ;usb_device.c: 1895: }
  8584  001888  0012               	return	
  8585  00188A                     i2l3624:
  8586                           
  8587                           ;usb_device.c: 1896: else
  8588                           ;usb_device.c: 1897: {
  8589                           ;usb_device.c: 1901: pBDTEntryEP0OutNext->CNT = 8;
  8590  00188A  EE20 F001          	lfsr	2,1
  8591  00188E  5046               	movf	_pBDTEntryEP0OutNext,w,c
  8592  001890  26D9               	addwf	fsr2l,f,c
  8593  001892  5047               	movf	_pBDTEntryEP0OutNext+1,w,c
  8594  001894  22DA               	addwfc	fsr2h,f,c
  8595  001896  0E08               	movlw	8
  8596  001898  6EDF               	movwf	indf2,c
  8597                           
  8598                           ;usb_device.c: 1902: pBDTEntryEP0OutNext->ADR = ((uint16_t)(&SetupPkt));
  8599  00189A  EE20 F002          	lfsr	2,2
  8600  00189E  5046               	movf	_pBDTEntryEP0OutNext,w,c
  8601  0018A0  26D9               	addwf	fsr2l,f,c
  8602  0018A2  5047               	movf	_pBDTEntryEP0OutNext+1,w,c
  8603  0018A4  22DA               	addwfc	fsr2h,f,c
  8604  0018A6  0E30               	movlw	48
  8605  0018A8  6EDE               	movwf	postinc2,c
  8606  0018AA  0E0D               	movlw	13
  8607  0018AC  6EDD               	movwf	postdec2,c
  8608                           
  8609                           ;usb_device.c: 1906: pBDTEntryEP0OutNext->STAT.Val = 0x04;
  8610  0018AE  C046  FFD9         	movff	_pBDTEntryEP0OutNext,fsr2l
  8611  0018B2  C047  FFDA         	movff	_pBDTEntryEP0OutNext+1,fsr2h
  8612  0018B6  0E04               	movlw	4
  8613  0018B8  6EDF               	movwf	indf2,c
  8614                           
  8615                           ;usb_device.c: 1907: pBDTEntryEP0OutNext->STAT.Val |= 0x80;
  8616  0018BA  C046  FFD9         	movff	_pBDTEntryEP0OutNext,fsr2l
  8617  0018BE  C047  FFDA         	movff	_pBDTEntryEP0OutNext+1,fsr2h
  8618  0018C2  0E00               	movlw	0
  8619  0018C4  8EDB               	bsf	plusw2,7,c
  8620                           
  8621                           ;usb_device.c: 1914: if(outPipes[0].pFunc != (0))
  8622  0018C6  5039               	movf	_outPipes+6,w,c	;volatile
  8623  0018C8  103A               	iorwf	_outPipes+7,w,c	;volatile
  8624  0018CA  103B               	iorwf	_outPipes+8,w,c	;volatile
  8625  0018CC  B4D8               	btfsc	status,2,c
  8626  0018CE  D00E               	goto	i2l3634
  8627                           
  8628                           ;usb_device.c: 1915: {
  8629                           ;usb_device.c: 1921: outPipes[0].pFunc();
  8630  0018D0  EE20  F039         	lfsr	2,_outPipes+6	;volatile
  8631  0018D4  D801               	call	i2u275_48
  8632  0018D6  D00A               	goto	i2l3634
  8633  0018D8                     i2u275_48:
  8634  0018D8  0005               	push	
  8635  0018DA  6EFA               	movwf	pclath,c
  8636  0018DC  50DE               	movf	postinc2,w,c
  8637  0018DE  6EFD               	movwf	tosl,c
  8638  0018E0  50DE               	movf	postinc2,w,c
  8639  0018E2  6EFE               	movwf	tosh,c
  8640  0018E4  50DE               	movf	postinc2,w,c
  8641  0018E6  6EFF               	movwf	tosu,c
  8642  0018E8  50FA               	movf	pclath,w,c
  8643  0018EA  0012               	return		;indir
  8644  0018EC                     i2l3634:
  8645                           
  8646                           ;usb_device.c: 1926: }
  8647                           ;usb_device.c: 1927: outPipes[0].info.bits.busy = 0;
  8648  0018EC  9E36               	bcf	_outPipes+3,7,c	;volatile
  8649                           
  8650                           ;usb_device.c: 1941: if(USBDeferStatusStagePacket == 0)
  8651  0018EE  504F               	movf	_USBDeferStatusStagePacket,w,c	;volatile
  8652  0018F0  A4D8               	btfss	status,2,c
  8653  0018F2  0012               	return	
  8654                           
  8655                           ;usb_device.c: 1942: {
  8656                           ;usb_device.c: 1943: USBCtrlEPAllowStatusStage();
  8657  0018F4  EC0E  F011         	call	_USBCtrlEPAllowStatusStage	;wreg free
  8658  0018F8  0012               	return	
  8659  0018FA  0012               	return		;funcret
  8660  0018FC                     __end_of_USBCtrlTrfRxService:
  8661                           	opt stack 0
  8662                           tosu	equ	0xFFF
  8663                           tosh	equ	0xFFE
  8664                           tosl	equ	0xFFD
  8665                           pclatu	equ	0xFFB
  8666                           pclath	equ	0xFFA
  8667                           tblptru	equ	0xFF8
  8668                           tblptrh	equ	0xFF7
  8669                           tblptrl	equ	0xFF6
  8670                           tablat	equ	0xFF5
  8671                           prodh	equ	0xFF4
  8672                           prodl	equ	0xFF3
  8673                           intcon	equ	0xFF2
  8674                           indf0	equ	0xFEF
  8675                           postinc0	equ	0xFEE
  8676                           fsr0h	equ	0xFEA
  8677                           fsr0l	equ	0xFE9
  8678                           wreg	equ	0xFE8
  8679                           indf1	equ	0xFE7
  8680                           fsr1h	equ	0xFE2
  8681                           fsr1l	equ	0xFE1
  8682                           indf2	equ	0xFDF
  8683                           postinc2	equ	0xFDE
  8684                           postdec2	equ	0xFDD
  8685                           plusw2	equ	0xFDB
  8686                           fsr2h	equ	0xFDA
  8687                           fsr2l	equ	0xFD9
  8688                           status	equ	0xFD8
  8689                           
  8690 ;; *************** function _USBCtrlEPAllowStatusStage *****************
  8691 ;; Defined at:
  8692 ;;		line 1416 in file "../../../../../../framework/usb/src/usb_device.c"
  8693 ;; Parameters:    Size  Location     Type
  8694 ;;		None
  8695 ;; Auto vars:     Size  Location     Type
  8696 ;;		None
  8697 ;; Return value:  Size  Location     Type
  8698 ;;		None               void
  8699 ;; Registers used:
  8700 ;;		wreg, fsr2l, fsr2h, status,2, status,0
  8701 ;; Tracked objects:
  8702 ;;		On entry : 0/0
  8703 ;;		On exit  : 0/0
  8704 ;;		Unchanged: 0/0
  8705 ;; Data sizes:     COMRAM   BANK0   BANK1   BANK2   BANK3   BANK4   BANK5   BANK6   BANK7   BANK8   BANK9  BANK10  BANK1
      +1  BANK12  BANK13  BANK14
  8706 ;;      Params:         0       0       0       0       0       0       0       0       0       0       0       0       
      +0       0       0       0
  8707 ;;      Locals:         0       0       0       0       0       0       0       0       0       0       0       0       
      +0       0       0       0
  8708 ;;      Temps:          0       0       0       0       0       0       0       0       0       0       0       0       
      +0       0       0       0
  8709 ;;      Totals:         0       0       0       0       0       0       0       0       0       0       0       0       
      +0       0       0       0
  8710 ;;Total ram usage:        0 bytes
  8711 ;; Hardware stack levels used:    1
  8712 ;; This function calls:
  8713 ;;		Nothing
  8714 ;; This function is called by:
  8715 ;;		_USBDeviceTasks
  8716 ;;		_USBCtrlEPServiceComplete
  8717 ;;		_USBCtrlTrfRxService
  8718 ;; This function uses a non-reentrant model
  8719 ;;
  8720                           
  8721                           	psect	text42
  8722  00221C                     __ptext42:
  8723                           	opt stack 0
  8724  00221C                     _USBCtrlEPAllowStatusStage:
  8725                           	opt stack 22
  8726                           
  8727                           ;usb_device.c: 1423: if(USBStatusStageEnabledFlag1 == 0)
  8728                           
  8729                           ;incstack = 0
  8730  00221C  5051               	movf	_USBStatusStageEnabledFlag1,w,c	;volatile
  8731  00221E  A4D8               	btfss	status,2,c
  8732  002220  0012               	return	
  8733                           
  8734                           ;usb_device.c: 1424: {
  8735                           ;usb_device.c: 1425: USBStatusStageEnabledFlag1 = 1;
  8736  002222  0E01               	movlw	1
  8737  002224  6E51               	movwf	_USBStatusStageEnabledFlag1,c	;volatile
  8738                           
  8739                           ;usb_device.c: 1426: if(USBStatusStageEnabledFlag2 == 0)
  8740  002226  5052               	movf	_USBStatusStageEnabledFlag2,w,c	;volatile
  8741  002228  A4D8               	btfss	status,2,c
  8742  00222A  0012               	return	
  8743                           
  8744                           ;usb_device.c: 1427: {
  8745                           ;usb_device.c: 1428: USBStatusStageEnabledFlag2 = 1;
  8746  00222C  0E01               	movlw	1
  8747  00222E  6E52               	movwf	_USBStatusStageEnabledFlag2,c	;volatile
  8748                           
  8749                           ;usb_device.c: 1432: if(controlTransferState == 2)
  8750  002230  0E02               	movlw	2
  8751  002232  1855               	xorwf	_controlTransferState,w,c	;volatile
  8752  002234  A4D8               	btfss	status,2,c
  8753  002236  D015               	goto	i2l3318
  8754                           
  8755                           ;usb_device.c: 1433: {
  8756                           ;usb_device.c: 1434: pBDTEntryIn[0]->CNT = 0;
  8757  002238  EE20 F001          	lfsr	2,1
  8758  00223C  503C               	movf	_pBDTEntryIn,w,c
  8759  00223E  26D9               	addwf	fsr2l,f,c
  8760  002240  503D               	movf	_pBDTEntryIn+1,w,c
  8761  002242  22DA               	addwfc	fsr2h,f,c
  8762  002244  0E00               	movlw	0
  8763  002246  6EDF               	movwf	indf2,c
  8764                           
  8765                           ;usb_device.c: 1435: pBDTEntryIn[0]->STAT.Val = 0x40|(0x08 & 0x08);
  8766  002248  C03C  FFD9         	movff	_pBDTEntryIn,fsr2l
  8767  00224C  C03D  FFDA         	movff	_pBDTEntryIn+1,fsr2h
  8768  002250  0E48               	movlw	72
  8769  002252  6EDF               	movwf	indf2,c
  8770                           
  8771                           ;usb_device.c: 1436: pBDTEntryIn[0]->STAT.Val |= 0x80;
  8772  002254  C03C  FFD9         	movff	_pBDTEntryIn,fsr2l
  8773  002258  C03D  FFDA         	movff	_pBDTEntryIn+1,fsr2h
  8774  00225C  0E00               	movlw	0
  8775  00225E  8EDB               	bsf	plusw2,7,c
  8776                           
  8777                           ;usb_device.c: 1437: }
  8778  002260  0012               	return	
  8779  002262                     i2l3318:
  8780                           
  8781                           ;usb_device.c: 1438: else if(controlTransferState == 1)
  8782  002262  0455               	decf	_controlTransferState,w,c	;volatile
  8783  002264  A4D8               	btfss	status,2,c
  8784  002266  0012               	return	
  8785                           
  8786                           ;usb_device.c: 1439: {
  8787                           ;usb_device.c: 1440: BothEP0OutUOWNsSet = 0;
  8788  002268  0E00               	movlw	0
  8789  00226A  6E48               	movwf	_BothEP0OutUOWNsSet,c	;volatile
  8790                           
  8791                           ;usb_device.c: 1445: pBDTEntryEP0OutCurrent->CNT = 8;
  8792  00226C  EE20 F001          	lfsr	2,1
  8793  002270  5044               	movf	_pBDTEntryEP0OutCurrent,w,c
  8794  002272  26D9               	addwf	fsr2l,f,c
  8795  002274  5045               	movf	_pBDTEntryEP0OutCurrent+1,w,c
  8796  002276  22DA               	addwfc	fsr2h,f,c
  8797  002278  0E08               	movlw	8
  8798  00227A  6EDF               	movwf	indf2,c
  8799                           
  8800                           ;usb_device.c: 1446: pBDTEntryEP0OutCurrent->ADR = ((uint16_t)(&SetupPkt));
  8801  00227C  EE20 F002          	lfsr	2,2
  8802  002280  5044               	movf	_pBDTEntryEP0OutCurrent,w,c
  8803  002282  26D9               	addwf	fsr2l,f,c
  8804  002284  5045               	movf	_pBDTEntryEP0OutCurrent+1,w,c
  8805  002286  22DA               	addwfc	fsr2h,f,c
  8806  002288  0E30               	movlw	48
  8807  00228A  6EDE               	movwf	postinc2,c
  8808  00228C  0E0D               	movlw	13
  8809  00228E  6EDD               	movwf	postdec2,c
  8810                           
  8811                           ;usb_device.c: 1447: pBDTEntryEP0OutCurrent->STAT.Val = 0x04;
  8812  002290  C044  FFD9         	movff	_pBDTEntryEP0OutCurrent,fsr2l
  8813  002294  C045  FFDA         	movff	_pBDTEntryEP0OutCurrent+1,fsr2h
  8814  002298  0E04               	movlw	4
  8815  00229A  6EDF               	movwf	indf2,c
  8816                           
  8817                           ;usb_device.c: 1448: pBDTEntryEP0OutCurrent->STAT.Val |= 0x80;
  8818  00229C  C044  FFD9         	movff	_pBDTEntryEP0OutCurrent,fsr2l
  8819  0022A0  C045  FFDA         	movff	_pBDTEntryEP0OutCurrent+1,fsr2h
  8820  0022A4  0E00               	movlw	0
  8821  0022A6  8EDB               	bsf	plusw2,7,c
  8822                           
  8823                           ;usb_device.c: 1449: BothEP0OutUOWNsSet = 1;
  8824  0022A8  0E01               	movlw	1
  8825  0022AA  6E48               	movwf	_BothEP0OutUOWNsSet,c	;volatile
  8826                           
  8827                           ;usb_device.c: 1453: pBDTEntryEP0OutNext->CNT = 8;
  8828  0022AC  EE20 F001          	lfsr	2,1
  8829  0022B0  5046               	movf	_pBDTEntryEP0OutNext,w,c
  8830  0022B2  26D9               	addwf	fsr2l,f,c
  8831  0022B4  5047               	movf	_pBDTEntryEP0OutNext+1,w,c
  8832  0022B6  22DA               	addwfc	fsr2h,f,c
  8833  0022B8  0E08               	movlw	8
  8834  0022BA  6EDF               	movwf	indf2,c
  8835                           
  8836                           ;usb_device.c: 1454: pBDTEntryEP0OutNext->ADR = ((uint16_t)(&SetupPkt));
  8837  0022BC  EE20 F002          	lfsr	2,2
  8838  0022C0  5046               	movf	_pBDTEntryEP0OutNext,w,c
  8839  0022C2  26D9               	addwf	fsr2l,f,c
  8840  0022C4  5047               	movf	_pBDTEntryEP0OutNext+1,w,c
  8841  0022C6  22DA               	addwfc	fsr2h,f,c
  8842  0022C8  0E30               	movlw	48
  8843  0022CA  6EDE               	movwf	postinc2,c
  8844  0022CC  0E0D               	movlw	13
  8845  0022CE  6EDD               	movwf	postdec2,c
  8846                           
  8847                           ;usb_device.c: 1455: pBDTEntryEP0OutNext->STAT.Val = 0x80;
  8848  0022D0  C046  FFD9         	movff	_pBDTEntryEP0OutNext,fsr2l
  8849  0022D4  C047  FFDA         	movff	_pBDTEntryEP0OutNext+1,fsr2h
  8850  0022D8  0E80               	movlw	128
  8851  0022DA  6EDF               	movwf	indf2,c
  8852  0022DC  0012               	return	
  8853  0022DE  0012               	return		;funcret
  8854  0022E0                     __end_of_USBCtrlEPAllowStatusStage:
  8855                           	opt stack 0
  8856                           tosu	equ	0xFFF
  8857                           tosh	equ	0xFFE
  8858                           tosl	equ	0xFFD
  8859                           pclatu	equ	0xFFB
  8860                           pclath	equ	0xFFA
  8861                           tblptru	equ	0xFF8
  8862                           tblptrh	equ	0xFF7
  8863                           tblptrl	equ	0xFF6
  8864                           tablat	equ	0xFF5
  8865                           prodh	equ	0xFF4
  8866                           prodl	equ	0xFF3
  8867                           intcon	equ	0xFF2
  8868                           indf0	equ	0xFEF
  8869                           postinc0	equ	0xFEE
  8870                           fsr0h	equ	0xFEA
  8871                           fsr0l	equ	0xFE9
  8872                           wreg	equ	0xFE8
  8873                           indf1	equ	0xFE7
  8874                           fsr1h	equ	0xFE2
  8875                           fsr1l	equ	0xFE1
  8876                           indf2	equ	0xFDF
  8877                           postinc2	equ	0xFDE
  8878                           postdec2	equ	0xFDD
  8879                           plusw2	equ	0xFDB
  8880                           fsr2h	equ	0xFDA
  8881                           fsr2l	equ	0xFD9
  8882                           status	equ	0xFD8
  8883                           
  8884 ;; *************** function _USBCtrlTrfInHandler *****************
  8885 ;; Defined at:
  8886 ;;		line 2595 in file "../../../../../../framework/usb/src/usb_device.c"
  8887 ;; Parameters:    Size  Location     Type
  8888 ;;		None
  8889 ;; Auto vars:     Size  Location     Type
  8890 ;;  lastDTS         1   17[COMRAM] unsigned char 
  8891 ;; Return value:  Size  Location     Type
  8892 ;;		None               void
  8893 ;; Registers used:
  8894 ;;		wreg, fsr0l, fsr0h, fsr2l, fsr2h, status,2, status,0, pclat, tosl, tblptrl, tblptrh, tblptru, cstack
  8895 ;; Tracked objects:
  8896 ;;		On entry : 0/0
  8897 ;;		On exit  : 0/0
  8898 ;;		Unchanged: 0/0
  8899 ;; Data sizes:     COMRAM   BANK0   BANK1   BANK2   BANK3   BANK4   BANK5   BANK6   BANK7   BANK8   BANK9  BANK10  BANK1
      +1  BANK12  BANK13  BANK14
  8900 ;;      Params:         0       0       0       0       0       0       0       0       0       0       0       0       
      +0       0       0       0
  8901 ;;      Locals:         1       0       0       0       0       0       0       0       0       0       0       0       
      +0       0       0       0
  8902 ;;      Temps:          0       0       0       0       0       0       0       0       0       0       0       0       
      +0       0       0       0
  8903 ;;      Totals:         1       0       0       0       0       0       0       0       0       0       0       0       
      +0       0       0       0
  8904 ;;Total ram usage:        1 bytes
  8905 ;; Hardware stack levels used:    1
  8906 ;; Hardware stack levels required when called:    2
  8907 ;; This function calls:
  8908 ;;		_USART_mySetLineCodingHandler
  8909 ;;		_USBCtrlTrfTxService
  8910 ;; This function is called by:
  8911 ;;		_USBCtrlEPService
  8912 ;; This function uses a non-reentrant model
  8913 ;;
  8914                           
  8915                           	psect	text43
  8916  001B2E                     __ptext43:
  8917                           	opt stack 0
  8918  001B2E                     _USBCtrlTrfInHandler:
  8919                           	opt stack 22
  8920                           
  8921                           ;usb_device.c: 2597: uint8_t lastDTS;
  8922                           ;usb_device.c: 2599: lastDTS = pBDTEntryIn[0]->STAT.DTS;
  8923                           
  8924                           ;incstack = 0
  8925  001B2E  C03C  FFD9         	movff	_pBDTEntryIn,fsr2l
  8926  001B32  C03D  FFDA         	movff	_pBDTEntryIn+1,fsr2h
  8927  001B36  0E00               	movlw	0
  8928  001B38  BCDF               	btfsc	indf2,6,c
  8929  001B3A  0E01               	movlw	1
  8930  001B3C  6E12               	movwf	USBCtrlTrfInHandler@lastDTS,c
  8931                           
  8932                           ;usb_device.c: 2602: ((uint8_t_VAL*)&pBDTEntryIn[0])->Val ^= 0x0004;
  8933  001B3E  0E04               	movlw	4
  8934  001B40  1A3C               	xorwf	_pBDTEntryIn,f,c
  8935                           
  8936                           ;usb_device.c: 2607: if(USBDeviceState == ADR_PENDING_STATE)
  8937  001B42  0E08               	movlw	8
  8938  001B44  1850               	xorwf	_USBDeviceState,w,c	;volatile
  8939  001B46  A4D8               	btfss	status,2,c
  8940  001B48  D00E               	goto	i2l3762
  8941                           
  8942                           ;usb_device.c: 2608: {
  8943                           ;usb_device.c: 2609: UADDR = (SetupPkt.bDevADR & 0x7F);
  8944  001B4A  010D               	movlb	13	; () banked
  8945  001B4C  5132               	movf	50,w,b	;volatile
  8946  001B4E  0B7F               	andlw	127
  8947  001B50  010F               	movlb	15	; () banked
  8948  001B52  6F38               	movwf	56,b	;volatile
  8949                           
  8950                           ; BSR set to: 15
  8951                           ;usb_device.c: 2610: if(UADDR != 0u)
  8952  001B54  010F               	movlb	15	; () banked
  8953  001B56  5138               	movf	56,w,b	;volatile
  8954  001B58  B4D8               	btfsc	status,2,c
  8955  001B5A  D002               	goto	i2l3760
  8956                           
  8957                           ; BSR set to: 15
  8958                           ;usb_device.c: 2611: {
  8959                           ;usb_device.c: 2612: USBDeviceState=ADDRESS_STATE;
  8960  001B5C  0E10               	movlw	16
  8961  001B5E  D001               	goto	L15
  8962  001B60                     i2l3760:
  8963                           
  8964                           ; BSR set to: 15
  8965                           ;usb_device.c: 2614: else
  8966                           ;usb_device.c: 2615: {
  8967                           ;usb_device.c: 2616: USBDeviceState=DEFAULT_STATE;
  8968  001B60  0E04               	movlw	4
  8969  001B62                     L15:
  8970  001B62  6E50               	movwf	_USBDeviceState,c	;volatile
  8971                           
  8972                           ; BSR set to: 15
  8973  001B64  D000               	goto	i2l3762
  8974  001B66                     i2l3762:
  8975                           
  8976                           ;usb_device.c: 2617: }
  8977                           ;usb_device.c: 2618: }
  8978                           ;usb_device.c: 2621: if(controlTransferState == 1)
  8979  001B66  0455               	decf	_controlTransferState,w,c	;volatile
  8980  001B68  A4D8               	btfss	status,2,c
  8981  001B6A  D03A               	goto	i2l650
  8982                           
  8983                           ;usb_device.c: 2622: {
  8984                           ;usb_device.c: 2623: pBDTEntryIn[0]->ADR = ((uint16_t)(CtrlTrfData));
  8985  001B6C  EE20 F002          	lfsr	2,2
  8986  001B70  503C               	movf	_pBDTEntryIn,w,c
  8987  001B72  26D9               	addwf	fsr2l,f,c
  8988  001B74  503D               	movf	_pBDTEntryIn+1,w,c
  8989  001B76  22DA               	addwfc	fsr2h,f,c
  8990  001B78  0E38               	movlw	56
  8991  001B7A  6EDE               	movwf	postinc2,c
  8992  001B7C  0E0D               	movlw	13
  8993  001B7E  6EDD               	movwf	postdec2,c
  8994                           
  8995                           ;usb_device.c: 2624: USBCtrlTrfTxService();
  8996  001B80  ECEF  F00E         	call	_USBCtrlTrfTxService	;wreg free
  8997                           
  8998                           ;usb_device.c: 2630: if(shortPacketStatus == 2)
  8999  001B84  0E02               	movlw	2
  9000  001B86  1857               	xorwf	_shortPacketStatus,w,c	;volatile
  9001  001B88  A4D8               	btfss	status,2,c
  9002  001B8A  D00D               	goto	i2l3774
  9003                           
  9004                           ;usb_device.c: 2631: {
  9005                           ;usb_device.c: 2634: pBDTEntryIn[0]->STAT.Val = 0x04;
  9006  001B8C  C03C  FFD9         	movff	_pBDTEntryIn,fsr2l
  9007  001B90  C03D  FFDA         	movff	_pBDTEntryIn+1,fsr2h
  9008  001B94  0E04               	movlw	4
  9009  001B96  6EDF               	movwf	indf2,c
  9010                           
  9011                           ;usb_device.c: 2635: pBDTEntryIn[0]->STAT.Val |= 0x80;
  9012  001B98  C03C  FFD9         	movff	_pBDTEntryIn,fsr2l
  9013  001B9C  C03D  FFDA         	movff	_pBDTEntryIn+1,fsr2h
  9014  001BA0  0E00               	movlw	0
  9015  001BA2  8EDB               	bsf	plusw2,7,c
  9016                           
  9017                           ;usb_device.c: 2636: }
  9018  001BA4  0012               	return	
  9019  001BA6                     i2l3774:
  9020                           
  9021                           ;usb_device.c: 2637: else
  9022                           ;usb_device.c: 2638: {
  9023                           ;usb_device.c: 2639: if(lastDTS == 0)
  9024  001BA6  5012               	movf	USBCtrlTrfInHandler@lastDTS,w,c
  9025  001BA8  A4D8               	btfss	status,2,c
  9026  001BAA  D00D               	goto	i2l3780
  9027                           
  9028                           ;usb_device.c: 2640: {
  9029                           ;usb_device.c: 2641: pBDTEntryIn[0]->STAT.Val = 0x40|(0x08 & 0x08);
  9030  001BAC  C03C  FFD9         	movff	_pBDTEntryIn,fsr2l
  9031  001BB0  C03D  FFDA         	movff	_pBDTEntryIn+1,fsr2h
  9032  001BB4  0E48               	movlw	72
  9033  001BB6  6EDF               	movwf	indf2,c
  9034                           
  9035                           ;usb_device.c: 2642: pBDTEntryIn[0]->STAT.Val |= 0x80;
  9036  001BB8  C03C  FFD9         	movff	_pBDTEntryIn,fsr2l
  9037  001BBC  C03D  FFDA         	movff	_pBDTEntryIn+1,fsr2h
  9038  001BC0  0E00               	movlw	0
  9039  001BC2  8EDB               	bsf	plusw2,7,c
  9040                           
  9041                           ;usb_device.c: 2643: }
  9042  001BC4  0012               	return	
  9043  001BC6                     i2l3780:
  9044                           
  9045                           ;usb_device.c: 2644: else
  9046                           ;usb_device.c: 2645: {
  9047                           ;usb_device.c: 2646: pBDTEntryIn[0]->STAT.Val = 0x00|(0x08 & 0x08);
  9048  001BC6  C03C  FFD9         	movff	_pBDTEntryIn,fsr2l
  9049  001BCA  C03D  FFDA         	movff	_pBDTEntryIn+1,fsr2h
  9050  001BCE  0E08               	movlw	8
  9051  001BD0  6EDF               	movwf	indf2,c
  9052                           
  9053                           ;usb_device.c: 2647: pBDTEntryIn[0]->STAT.Val |= 0x80;
  9054  001BD2  C03C  FFD9         	movff	_pBDTEntryIn,fsr2l
  9055  001BD6  C03D  FFDA         	movff	_pBDTEntryIn+1,fsr2h
  9056  001BDA  0E00               	movlw	0
  9057  001BDC  8EDB               	bsf	plusw2,7,c
  9058                           
  9059                           ;usb_device.c: 2648: }
  9060                           ;usb_device.c: 2649: }
  9061                           ;usb_device.c: 2650: }
  9062  001BDE  0012               	return	
  9063  001BE0                     i2l650:
  9064                           
  9065                           ;usb_device.c: 2651: else
  9066                           ;usb_device.c: 2652: {
  9067                           ;usb_device.c: 2656: if(outPipes[0].info.bits.busy == 1)
  9068  001BE0  AE36               	btfss	_outPipes+3,7,c	;volatile
  9069  001BE2  D015               	goto	i2l3790
  9070                           
  9071                           ;usb_device.c: 2657: {
  9072                           ;usb_device.c: 2658: if(outPipes[0].pFunc != (0))
  9073  001BE4  5039               	movf	_outPipes+6,w,c	;volatile
  9074  001BE6  103A               	iorwf	_outPipes+7,w,c	;volatile
  9075  001BE8  103B               	iorwf	_outPipes+8,w,c	;volatile
  9076  001BEA  B4D8               	btfsc	status,2,c
  9077  001BEC  D00E               	goto	i2l3788
  9078                           
  9079                           ;usb_device.c: 2659: {
  9080                           ;usb_device.c: 2660: outPipes[0].pFunc();
  9081  001BEE  EE20  F039         	lfsr	2,_outPipes+6	;volatile
  9082  001BF2  D801               	call	i2u290_48
  9083  001BF4  D00A               	goto	i2l3788
  9084  001BF6                     i2u290_48:
  9085  001BF6  0005               	push	
  9086  001BF8  6EFA               	movwf	pclath,c
  9087  001BFA  50DE               	movf	postinc2,w,c
  9088  001BFC  6EFD               	movwf	tosl,c
  9089  001BFE  50DE               	movf	postinc2,w,c
  9090  001C00  6EFE               	movwf	tosh,c
  9091  001C02  50DE               	movf	postinc2,w,c
  9092  001C04  6EFF               	movwf	tosu,c
  9093  001C06  50FA               	movf	pclath,w,c
  9094  001C08  0012               	return		;indir
  9095  001C0A                     i2l3788:
  9096                           
  9097                           ;usb_device.c: 2661: }
  9098                           ;usb_device.c: 2662: outPipes[0].info.bits.busy = 0;
  9099  001C0A  9E36               	bcf	_outPipes+3,7,c	;volatile
  9100  001C0C  D000               	goto	i2l3790
  9101  001C0E                     i2l3790:
  9102                           
  9103                           ;usb_device.c: 2663: }
  9104                           ;usb_device.c: 2665: controlTransferState = 0;
  9105  001C0E  0E00               	movlw	0
  9106  001C10  6E55               	movwf	_controlTransferState,c	;volatile
  9107  001C12  0012               	return	
  9108  001C14  0012               	return		;funcret
  9109  001C16                     __end_of_USBCtrlTrfInHandler:
  9110                           	opt stack 0
  9111                           tosu	equ	0xFFF
  9112                           tosh	equ	0xFFE
  9113                           tosl	equ	0xFFD
  9114                           pclatu	equ	0xFFB
  9115                           pclath	equ	0xFFA
  9116                           tblptru	equ	0xFF8
  9117                           tblptrh	equ	0xFF7
  9118                           tblptrl	equ	0xFF6
  9119                           tablat	equ	0xFF5
  9120                           prodh	equ	0xFF4
  9121                           prodl	equ	0xFF3
  9122                           intcon	equ	0xFF2
  9123                           indf0	equ	0xFEF
  9124                           postinc0	equ	0xFEE
  9125                           fsr0h	equ	0xFEA
  9126                           fsr0l	equ	0xFE9
  9127                           wreg	equ	0xFE8
  9128                           indf1	equ	0xFE7
  9129                           fsr1h	equ	0xFE2
  9130                           fsr1l	equ	0xFE1
  9131                           indf2	equ	0xFDF
  9132                           postinc2	equ	0xFDE
  9133                           postdec2	equ	0xFDD
  9134                           plusw2	equ	0xFDB
  9135                           fsr2h	equ	0xFDA
  9136                           fsr2l	equ	0xFD9
  9137                           status	equ	0xFD8
  9138                           
  9139 ;; *************** function _USBCtrlTrfTxService *****************
  9140 ;; Defined at:
  9141 ;;		line 1771 in file "../../../../../../framework/usb/src/usb_device.c"
  9142 ;; Parameters:    Size  Location     Type
  9143 ;;		None
  9144 ;; Auto vars:     Size  Location     Type
  9145 ;;  byteToSend      1    0[COMRAM] unsigned char 
  9146 ;; Return value:  Size  Location     Type
  9147 ;;		None               void
  9148 ;; Registers used:
  9149 ;;		wreg, fsr0l, fsr0h, fsr2l, fsr2h, status,2, status,0, tblptrl, tblptrh, tblptru
  9150 ;; Tracked objects:
  9151 ;;		On entry : 0/0
  9152 ;;		On exit  : 0/0
  9153 ;;		Unchanged: 0/0
  9154 ;; Data sizes:     COMRAM   BANK0   BANK1   BANK2   BANK3   BANK4   BANK5   BANK6   BANK7   BANK8   BANK9  BANK10  BANK1
      +1  BANK12  BANK13  BANK14
  9155 ;;      Params:         0       0       0       0       0       0       0       0       0       0       0       0       
      +0       0       0       0
  9156 ;;      Locals:         1       0       0       0       0       0       0       0       0       0       0       0       
      +0       0       0       0
  9157 ;;      Temps:          0       0       0       0       0       0       0       0       0       0       0       0       
      +0       0       0       0
  9158 ;;      Totals:         1       0       0       0       0       0       0       0       0       0       0       0       
      +0       0       0       0
  9159 ;;Total ram usage:        1 bytes
  9160 ;; Hardware stack levels used:    1
  9161 ;; This function calls:
  9162 ;;		Nothing
  9163 ;; This function is called by:
  9164 ;;		_USBCtrlEPAllowDataStage
  9165 ;;		_USBCtrlTrfInHandler
  9166 ;; This function uses a non-reentrant model
  9167 ;;
  9168                           
  9169                           	psect	text44
  9170  001DDE                     __ptext44:
  9171                           	opt stack 0
  9172  001DDE                     _USBCtrlTrfTxService:
  9173                           	opt stack 21
  9174                           
  9175                           ;usb_device.c: 1773: uint8_t byteToSend;
  9176                           ;usb_device.c: 1777: byteToSend = 8;
  9177                           
  9178                           ;incstack = 0
  9179  001DDE  0E08               	movlw	8
  9180  001DE0  6E01               	movwf	USBCtrlTrfTxService@byteToSend,c
  9181                           
  9182                           ;usb_device.c: 1778: if(inPipes[0].wCount.Val < (uint8_t)8)
  9183  001DE2  505D               	movf	_inPipes+5,w,c	;volatile
  9184  001DE4  E111               	bnz	i2l3234
  9185  001DE6  0E08               	movlw	8
  9186  001DE8  5C5C               	subwf	_inPipes+4,w,c	;volatile
  9187  001DEA  B0D8               	btfsc	status,0,c
  9188  001DEC  D00D               	goto	i2l3234
  9189                           
  9190                           ;usb_device.c: 1779: {
  9191                           ;usb_device.c: 1780: byteToSend = inPipes[0].wCount.Val;
  9192  001DEE  C05C  F001         	movff	_inPipes+4,USBCtrlTrfTxService@byteToSend	;volatile
  9193                           
  9194                           ;usb_device.c: 1787: if(shortPacketStatus == 0)
  9195  001DF2  5057               	movf	_shortPacketStatus,w,c	;volatile
  9196  001DF4  A4D8               	btfss	status,2,c
  9197  001DF6  D002               	goto	i2l3230
  9198                           
  9199                           ;usb_device.c: 1788: {
  9200                           ;usb_device.c: 1789: shortPacketStatus = 1;
  9201  001DF8  0E01               	movlw	1
  9202  001DFA  D004               	goto	L16
  9203  001DFC                     i2l3230:
  9204                           
  9205                           ;usb_device.c: 1791: else if(shortPacketStatus == 1)
  9206  001DFC  0457               	decf	_shortPacketStatus,w,c	;volatile
  9207  001DFE  A4D8               	btfss	status,2,c
  9208  001E00  D003               	goto	i2l3234
  9209                           
  9210                           ;usb_device.c: 1792: {
  9211                           ;usb_device.c: 1793: shortPacketStatus = 2;
  9212  001E02  0E02               	movlw	2
  9213  001E04                     L16:
  9214  001E04  6E57               	movwf	_shortPacketStatus,c	;volatile
  9215  001E06  D000               	goto	i2l3234
  9216  001E08                     i2l3234:
  9217                           
  9218                           ;usb_device.c: 1794: }
  9219                           ;usb_device.c: 1795: }
  9220                           ;usb_device.c: 1799: inPipes[0].wCount.Val -= byteToSend;
  9221  001E08  5001               	movf	USBCtrlTrfTxService@byteToSend,w,c
  9222  001E0A  5E5C               	subwf	_inPipes+4,f,c	;volatile
  9223  001E0C  0E00               	movlw	0
  9224  001E0E  5A5D               	subwfb	_inPipes+5,f,c	;volatile
  9225                           
  9226                           ;usb_device.c: 1804: pBDTEntryIn[0]->CNT = byteToSend;
  9227  001E10  EE20 F001          	lfsr	2,1
  9228  001E14  503C               	movf	_pBDTEntryIn,w,c
  9229  001E16  26D9               	addwf	fsr2l,f,c
  9230  001E18  503D               	movf	_pBDTEntryIn+1,w,c
  9231  001E1A  22DA               	addwfc	fsr2h,f,c
  9232  001E1C  C001  FFDF         	movff	USBCtrlTrfTxService@byteToSend,indf2
  9233                           
  9234                           ;usb_device.c: 1808: pDst = (volatile uint8_t*)CtrlTrfData;
  9235  001E20  0E38               	movlw	56
  9236  001E22  0100               	movlb	0	; () banked
  9237  001E24  6F7C               	movwf	_pDst& (0+255),b
  9238  001E26  0E0D               	movlw	13
  9239  001E28  0100               	movlb	0	; () banked
  9240  001E2A  6F7D               	movwf	(_pDst+1)& (0+255),b
  9241                           
  9242                           ; BSR set to: 0
  9243                           ;usb_device.c: 1809: if(inPipes[0].info.bits.ctrl_trf_mem == 0x00)
  9244  001E2C  A05B               	btfss	_inPipes+3,0,c	;volatile
  9245  001E2E  D01F               	goto	i2l3252
  9246  001E30  D041               	goto	i2l3262
  9247                           
  9248                           ; BSR set to: 0
  9249                           ;usb_device.c: 1810: {
  9250                           ;usb_device.c: 1811: while(byteToSend)
  9251  001E32  D01D               	goto	i2l3252
  9252  001E34                     i2l3244:
  9253                           
  9254                           ; BSR set to: 0
  9255                           ;usb_device.c: 1812: {
  9256                           ;usb_device.c: 1813: *pDst++ = *inPipes[0].pSrc.bRom++;
  9257  001E34  C058  FFF6         	movff	_inPipes,tblptrl	;volatile
  9258  001E38  C059  FFF7         	movff	_inPipes+1,tblptrh	;volatile
  9259  001E3C  0E00               	movlw	low (__smallconst shr (0+16))
  9260  001E3E  6EF8               	movwf	tblptru,c
  9261  001E40  C07C  FFD9         	movff	_pDst,fsr2l
  9262  001E44  C07D  FFDA         	movff	_pDst+1,fsr2h
  9263  001E48  0E0E               	movlw	(high __ramtop+-1)
  9264  001E4A  64F7               	cpfsgt	tblptrh,c
  9265  001E4C  D003               	bra	i2u217_47
  9266  001E4E  0008               	tblrd		*
  9267  001E50  50F5               	movf	tablat,w,c
  9268  001E52  D005               	bra	i2u217_40
  9269  001E54                     i2u217_47:
  9270  001E54  CFF6 FFE9          	movff	tblptrl,fsr0l
  9271  001E58  CFF7 FFEA          	movff	tblptrh,fsr0h
  9272  001E5C  50EF               	movf	indf0,w,c
  9273  001E5E                     i2u217_40:
  9274  001E5E  6EDF               	movwf	indf2,c
  9275  001E60  4A58               	infsnz	_inPipes,f,c	;volatile
  9276  001E62  2A59               	incf	_inPipes+1,f,c	;volatile
  9277  001E64  0100               	movlb	0	; () banked
  9278  001E66  4B7C               	infsnz	_pDst& (0+255),f,b
  9279  001E68  2B7D               	incf	(_pDst+1)& (0+255),f,b
  9280                           
  9281                           ; BSR set to: 0
  9282                           ;usb_device.c: 1814: byteToSend--;
  9283  001E6A  0601               	decf	USBCtrlTrfTxService@byteToSend,f,c
  9284  001E6C  D000               	goto	i2l3252
  9285  001E6E                     i2l3252:
  9286                           
  9287                           ; BSR set to: 0
  9288  001E6E  5001               	movf	USBCtrlTrfTxService@byteToSend,w,c
  9289  001E70  B4D8               	btfsc	status,2,c
  9290  001E72  0012               	return	
  9291  001E74  D7DF               	goto	i2l3244
  9292                           
  9293                           ; BSR set to: 0
  9294                           ;usb_device.c: 1815: }
  9295                           ;usb_device.c: 1816: }
  9296  001E76  0012               	return	
  9297                           
  9298                           ; BSR set to: 0
  9299                           ;usb_device.c: 1817: else
  9300                           ;usb_device.c: 1818: {
  9301                           ;usb_device.c: 1819: while(byteToSend)
  9302  001E78  D01D               	goto	i2l3262
  9303  001E7A                     i2l3254:
  9304                           
  9305                           ; BSR set to: 0
  9306                           ;usb_device.c: 1820: {
  9307                           ;usb_device.c: 1821: *pDst++ = *inPipes[0].pSrc.bRam++;
  9308  001E7A  C058  FFF6         	movff	_inPipes,tblptrl	;volatile
  9309  001E7E  C059  FFF7         	movff	_inPipes+1,tblptrh	;volatile
  9310  001E82  0E00               	movlw	low (__smallconst shr (0+16))
  9311  001E84  6EF8               	movwf	tblptru,c
  9312  001E86  C07C  FFD9         	movff	_pDst,fsr2l
  9313  001E8A  C07D  FFDA         	movff	_pDst+1,fsr2h
  9314  001E8E  0E0E               	movlw	(high __ramtop+-1)
  9315  001E90  64F7               	cpfsgt	tblptrh,c
  9316  001E92  D003               	bra	i2u219_47
  9317  001E94  0008               	tblrd		*
  9318  001E96  50F5               	movf	tablat,w,c
  9319  001E98  D005               	bra	i2u219_40
  9320  001E9A                     i2u219_47:
  9321  001E9A  CFF6 FFE9          	movff	tblptrl,fsr0l
  9322  001E9E  CFF7 FFEA          	movff	tblptrh,fsr0h
  9323  001EA2  50EF               	movf	indf0,w,c
  9324  001EA4                     i2u219_40:
  9325  001EA4  6EDF               	movwf	indf2,c
  9326  001EA6  4A58               	infsnz	_inPipes,f,c	;volatile
  9327  001EA8  2A59               	incf	_inPipes+1,f,c	;volatile
  9328  001EAA  0100               	movlb	0	; () banked
  9329  001EAC  4B7C               	infsnz	_pDst& (0+255),f,b
  9330  001EAE  2B7D               	incf	(_pDst+1)& (0+255),f,b
  9331                           
  9332                           ; BSR set to: 0
  9333                           ;usb_device.c: 1822: byteToSend--;
  9334  001EB0  0601               	decf	USBCtrlTrfTxService@byteToSend,f,c
  9335  001EB2  D000               	goto	i2l3262
  9336  001EB4                     i2l3262:
  9337                           
  9338                           ; BSR set to: 0
  9339  001EB4  5001               	movf	USBCtrlTrfTxService@byteToSend,w,c
  9340  001EB6  B4D8               	btfsc	status,2,c
  9341  001EB8  0012               	return	
  9342  001EBA  D7DF               	goto	i2l3254
  9343                           
  9344                           ; BSR set to: 0
  9345  001EBC  0012               	return	
  9346                           
  9347                           ; BSR set to: 0
  9348                           
  9349                           ; BSR set to: 0
  9350  001EBE  0012               	return		;funcret
  9351  001EC0                     __end_of_USBCtrlTrfTxService:
  9352                           	opt stack 0
  9353                           tosu	equ	0xFFF
  9354                           tosh	equ	0xFFE
  9355                           tosl	equ	0xFFD
  9356                           pclatu	equ	0xFFB
  9357                           pclath	equ	0xFFA
  9358                           tblptru	equ	0xFF8
  9359                           tblptrh	equ	0xFF7
  9360                           tblptrl	equ	0xFF6
  9361                           tablat	equ	0xFF5
  9362                           prodh	equ	0xFF4
  9363                           prodl	equ	0xFF3
  9364                           intcon	equ	0xFF2
  9365                           indf0	equ	0xFEF
  9366                           postinc0	equ	0xFEE
  9367                           fsr0h	equ	0xFEA
  9368                           fsr0l	equ	0xFE9
  9369                           wreg	equ	0xFE8
  9370                           indf1	equ	0xFE7
  9371                           fsr1h	equ	0xFE2
  9372                           fsr1l	equ	0xFE1
  9373                           indf2	equ	0xFDF
  9374                           postinc2	equ	0xFDE
  9375                           postdec2	equ	0xFDD
  9376                           plusw2	equ	0xFDB
  9377                           fsr2h	equ	0xFDA
  9378                           fsr2l	equ	0xFD9
  9379                           status	equ	0xFD8
  9380                           
  9381 ;; *************** function _USART_mySetLineCodingHandler *****************
  9382 ;; Defined at:
  9383 ;;		line 104 in file "../../../../../../bsp/pic18f47j53_pim/usart.c"
  9384 ;; Parameters:    Size  Location     Type
  9385 ;;		None
  9386 ;; Auto vars:     Size  Location     Type
  9387 ;;  dwBaud          4   13[COMRAM] unsigned long 
  9388 ;; Return value:  Size  Location     Type
  9389 ;;		None               void
  9390 ;; Registers used:
  9391 ;;		wreg, status,2, status,0, cstack
  9392 ;; Tracked objects:
  9393 ;;		On entry : 0/0
  9394 ;;		On exit  : 0/0
  9395 ;;		Unchanged: 0/0
  9396 ;; Data sizes:     COMRAM   BANK0   BANK1   BANK2   BANK3   BANK4   BANK5   BANK6   BANK7   BANK8   BANK9  BANK10  BANK1
      +1  BANK12  BANK13  BANK14
  9397 ;;      Params:         0       0       0       0       0       0       0       0       0       0       0       0       
      +0       0       0       0
  9398 ;;      Locals:         4       0       0       0       0       0       0       0       0       0       0       0       
      +0       0       0       0
  9399 ;;      Temps:          0       0       0       0       0       0       0       0       0       0       0       0       
      +0       0       0       0
  9400 ;;      Totals:         4       0       0       0       0       0       0       0       0       0       0       0       
      +0       0       0       0
  9401 ;;Total ram usage:        4 bytes
  9402 ;; Hardware stack levels used:    1
  9403 ;; Hardware stack levels required when called:    1
  9404 ;; This function calls:
  9405 ;;		_USART_Initialize
  9406 ;;		___lldiv
  9407 ;; This function is called by:
  9408 ;;		_USBCheckCDCRequest
  9409 ;;		_USBCtrlTrfRxService
  9410 ;;		_USBCtrlTrfInHandler
  9411 ;; This function uses a non-reentrant model
  9412 ;;
  9413                           
  9414                           	psect	text45
  9415  002A04                     __ptext45:
  9416                           	opt stack 0
  9417  002A04                     _USART_mySetLineCodingHandler:
  9418                           	opt stack 21
  9419                           
  9420                           ;usart.c: 128: {line_coding.dwDTERate=cdc_notice.GetLineCoding.dwDTERate;};
  9421                           
  9422                           ; BSR set to: 0
  9423                           ;incstack = 0
  9424  002A04  C0C4  F0D6         	movff	_cdc_notice,_line_coding
  9425  002A08  C0C5  F0D7         	movff	_cdc_notice+1,_line_coding+1
  9426  002A0C  C0C6  F0D8         	movff	_cdc_notice+2,_line_coding+2
  9427  002A10  C0C7  F0D9         	movff	_cdc_notice+3,_line_coding+3
  9428                           
  9429                           ;usart.c: 132: uint32_t dwBaud;
  9430                           ;usart.c: 133: dwBaud = ((48000000/4) / line_coding.dwDTERate) - 1;
  9431  002A14  0E00               	movlw	0
  9432  002A16  6E01               	movwf	___lldiv@dividend,c
  9433  002A18  0E1B               	movlw	27
  9434  002A1A  6E02               	movwf	___lldiv@dividend+1,c
  9435  002A1C  0EB7               	movlw	183
  9436  002A1E  6E03               	movwf	___lldiv@dividend+2,c
  9437  002A20  0E00               	movlw	0
  9438  002A22  6E04               	movwf	___lldiv@dividend+3,c
  9439  002A24  C0D6  F005         	movff	_line_coding,___lldiv@divisor
  9440  002A28  C0D7  F006         	movff	_line_coding+1,___lldiv@divisor+1
  9441  002A2C  C0D8  F007         	movff	_line_coding+2,___lldiv@divisor+2
  9442  002A30  C0D9  F008         	movff	_line_coding+3,___lldiv@divisor+3
  9443  002A34  EC24  F013         	call	___lldiv	;wreg free
  9444  002A38  0EFF               	movlw	255
  9445  002A3A  2401               	addwf	?___lldiv,w,c
  9446  002A3C  6E0E               	movwf	USART_mySetLineCodingHandler@dwBaud,c
  9447  002A3E  0EFF               	movlw	255
  9448  002A40  2002               	addwfc	?___lldiv+1,w,c
  9449  002A42  6E0F               	movwf	USART_mySetLineCodingHandler@dwBaud+1,c
  9450  002A44  0EFF               	movlw	255
  9451  002A46  2003               	addwfc	?___lldiv+2,w,c
  9452  002A48  6E10               	movwf	USART_mySetLineCodingHandler@dwBaud+2,c
  9453  002A4A  0EFF               	movlw	255
  9454  002A4C  2004               	addwfc	?___lldiv+3,w,c
  9455  002A4E  6E11               	movwf	USART_mySetLineCodingHandler@dwBaud+3,c
  9456                           
  9457                           ;usart.c: 134: SPBRG = (uint8_t) dwBaud;
  9458  002A50  C00E  FFB0         	movff	USART_mySetLineCodingHandler@dwBaud,4016	;volatile
  9459                           
  9460                           ;usart.c: 135: SPBRGH = (uint8_t)((uint16_t) (dwBaud >> 8));
  9461  002A54  C00F  FF7F         	movff	USART_mySetLineCodingHandler@dwBaud+1,3967	;volatile
  9462                           
  9463                           ;usart.c: 138: USART_Initialize();
  9464  002A58  EC7F  F016         	call	_USART_Initialize	;wreg free
  9465  002A5C  0012               	return		;funcret
  9466  002A5E                     __end_of_USART_mySetLineCodingHandler:
  9467                           	opt stack 0
  9468                           tosu	equ	0xFFF
  9469                           tosh	equ	0xFFE
  9470                           tosl	equ	0xFFD
  9471                           pclatu	equ	0xFFB
  9472                           pclath	equ	0xFFA
  9473                           tblptru	equ	0xFF8
  9474                           tblptrh	equ	0xFF7
  9475                           tblptrl	equ	0xFF6
  9476                           tablat	equ	0xFF5
  9477                           prodh	equ	0xFF4
  9478                           prodl	equ	0xFF3
  9479                           intcon	equ	0xFF2
  9480                           indf0	equ	0xFEF
  9481                           postinc0	equ	0xFEE
  9482                           fsr0h	equ	0xFEA
  9483                           fsr0l	equ	0xFE9
  9484                           wreg	equ	0xFE8
  9485                           indf1	equ	0xFE7
  9486                           fsr1h	equ	0xFE2
  9487                           fsr1l	equ	0xFE1
  9488                           indf2	equ	0xFDF
  9489                           postinc2	equ	0xFDE
  9490                           postdec2	equ	0xFDD
  9491                           plusw2	equ	0xFDB
  9492                           fsr2h	equ	0xFDA
  9493                           fsr2l	equ	0xFD9
  9494                           status	equ	0xFD8
  9495                           
  9496 ;; *************** function ___lldiv *****************
  9497 ;; Defined at:
  9498 ;;		line 8 in file "C:\Program Files (x86)\Microchip\xc8\v1.34\sources\common\lldiv.c"
  9499 ;; Parameters:    Size  Location     Type
  9500 ;;  dividend        4    0[COMRAM] unsigned long 
  9501 ;;  divisor         4    4[COMRAM] unsigned long 
  9502 ;; Auto vars:     Size  Location     Type
  9503 ;;  quotient        4    8[COMRAM] unsigned long 
  9504 ;;  counter         1   12[COMRAM] unsigned char 
  9505 ;; Return value:  Size  Location     Type
  9506 ;;                  4    0[COMRAM] unsigned long 
  9507 ;; Registers used:
  9508 ;;		wreg, status,2, status,0
  9509 ;; Tracked objects:
  9510 ;;		On entry : 0/0
  9511 ;;		On exit  : 0/0
  9512 ;;		Unchanged: 0/0
  9513 ;; Data sizes:     COMRAM   BANK0   BANK1   BANK2   BANK3   BANK4   BANK5   BANK6   BANK7   BANK8   BANK9  BANK10  BANK1
      +1  BANK12  BANK13  BANK14
  9514 ;;      Params:         8       0       0       0       0       0       0       0       0       0       0       0       
      +0       0       0       0
  9515 ;;      Locals:         5       0       0       0       0       0       0       0       0       0       0       0       
      +0       0       0       0
  9516 ;;      Temps:          0       0       0       0       0       0       0       0       0       0       0       0       
      +0       0       0       0
  9517 ;;      Totals:        13       0       0       0       0       0       0       0       0       0       0       0       
      +0       0       0       0
  9518 ;;Total ram usage:       13 bytes
  9519 ;; Hardware stack levels used:    1
  9520 ;; This function calls:
  9521 ;;		Nothing
  9522 ;; This function is called by:
  9523 ;;		_USART_mySetLineCodingHandler
  9524 ;; This function uses a non-reentrant model
  9525 ;;
  9526                           
  9527                           	psect	text46
  9528  002648                     __ptext46:
  9529                           	opt stack 0
  9530  002648                     ___lldiv:
  9531                           	opt stack 21
  9532                           
  9533                           ;incstack = 0
  9534  002648  0E00               	movlw	0
  9535  00264A  6E09               	movwf	___lldiv@quotient,c
  9536  00264C  0E00               	movlw	0
  9537  00264E  6E0A               	movwf	___lldiv@quotient+1,c
  9538  002650  0E00               	movlw	0
  9539  002652  6E0B               	movwf	___lldiv@quotient+2,c
  9540  002654  0E00               	movlw	0
  9541  002656  6E0C               	movwf	___lldiv@quotient+3,c
  9542  002658  5005               	movf	___lldiv@divisor,w,c
  9543  00265A  1006               	iorwf	___lldiv@divisor+1,w,c
  9544  00265C  1007               	iorwf	___lldiv@divisor+2,w,c
  9545  00265E  1008               	iorwf	___lldiv@divisor+3,w,c
  9546  002660  B4D8               	btfsc	status,2,c
  9547  002662  D02F               	goto	i2l1288
  9548  002664  0E01               	movlw	1
  9549  002666  6E0D               	movwf	___lldiv@counter,c
  9550  002668  D007               	goto	i2l3272
  9551  00266A                     i2l3270:
  9552  00266A  90D8               	bcf	status,0,c
  9553  00266C  3605               	rlcf	___lldiv@divisor,f,c
  9554  00266E  3606               	rlcf	___lldiv@divisor+1,f,c
  9555  002670  3607               	rlcf	___lldiv@divisor+2,f,c
  9556  002672  3608               	rlcf	___lldiv@divisor+3,f,c
  9557  002674  2A0D               	incf	___lldiv@counter,f,c
  9558  002676  D000               	goto	i2l3272
  9559  002678                     i2l3272:
  9560  002678  BE08               	btfsc	___lldiv@divisor+3,7,c
  9561  00267A  D002               	goto	i2l3274
  9562  00267C  D7F6               	goto	i2l3270
  9563  00267E  D000               	goto	i2l3274
  9564  002680                     i2l3274:
  9565  002680  90D8               	bcf	status,0,c
  9566  002682  3609               	rlcf	___lldiv@quotient,f,c
  9567  002684  360A               	rlcf	___lldiv@quotient+1,f,c
  9568  002686  360B               	rlcf	___lldiv@quotient+2,f,c
  9569  002688  360C               	rlcf	___lldiv@quotient+3,f,c
  9570  00268A  5005               	movf	___lldiv@divisor,w,c
  9571  00268C  5C01               	subwf	___lldiv@dividend,w,c
  9572  00268E  5006               	movf	___lldiv@divisor+1,w,c
  9573  002690  5802               	subwfb	___lldiv@dividend+1,w,c
  9574  002692  5007               	movf	___lldiv@divisor+2,w,c
  9575  002694  5803               	subwfb	___lldiv@dividend+2,w,c
  9576  002696  5008               	movf	___lldiv@divisor+3,w,c
  9577  002698  5804               	subwfb	___lldiv@dividend+3,w,c
  9578  00269A  A0D8               	btfss	status,0,c
  9579  00269C  D00A               	goto	i2l3282
  9580  00269E  5005               	movf	___lldiv@divisor,w,c
  9581  0026A0  5E01               	subwf	___lldiv@dividend,f,c
  9582  0026A2  5006               	movf	___lldiv@divisor+1,w,c
  9583  0026A4  5A02               	subwfb	___lldiv@dividend+1,f,c
  9584  0026A6  5007               	movf	___lldiv@divisor+2,w,c
  9585  0026A8  5A03               	subwfb	___lldiv@dividend+2,f,c
  9586  0026AA  5008               	movf	___lldiv@divisor+3,w,c
  9587  0026AC  5A04               	subwfb	___lldiv@dividend+3,f,c
  9588  0026AE  8009               	bsf	___lldiv@quotient,0,c
  9589  0026B0  D000               	goto	i2l3282
  9590  0026B2                     i2l3282:
  9591  0026B2  90D8               	bcf	status,0,c
  9592  0026B4  3208               	rrcf	___lldiv@divisor+3,f,c
  9593  0026B6  3207               	rrcf	___lldiv@divisor+2,f,c
  9594  0026B8  3206               	rrcf	___lldiv@divisor+1,f,c
  9595  0026BA  3205               	rrcf	___lldiv@divisor,f,c
  9596  0026BC  2E0D               	decfsz	___lldiv@counter,f,c
  9597  0026BE  D7E0               	goto	i2l3274
  9598  0026C0  D000               	goto	i2l1288
  9599  0026C2                     i2l1288:
  9600  0026C2  C009  F001         	movff	___lldiv@quotient,?___lldiv
  9601  0026C6  C00A  F002         	movff	___lldiv@quotient+1,?___lldiv+1
  9602  0026CA  C00B  F003         	movff	___lldiv@quotient+2,?___lldiv+2
  9603  0026CE  C00C  F004         	movff	___lldiv@quotient+3,?___lldiv+3
  9604  0026D2  0012               	return		;funcret
  9605  0026D4                     __end_of___lldiv:
  9606                           	opt stack 0
  9607                           tosu	equ	0xFFF
  9608                           tosh	equ	0xFFE
  9609                           tosl	equ	0xFFD
  9610                           pclatu	equ	0xFFB
  9611                           pclath	equ	0xFFA
  9612                           tblptru	equ	0xFF8
  9613                           tblptrh	equ	0xFF7
  9614                           tblptrl	equ	0xFF6
  9615                           tablat	equ	0xFF5
  9616                           prodh	equ	0xFF4
  9617                           prodl	equ	0xFF3
  9618                           intcon	equ	0xFF2
  9619                           indf0	equ	0xFEF
  9620                           postinc0	equ	0xFEE
  9621                           fsr0h	equ	0xFEA
  9622                           fsr0l	equ	0xFE9
  9623                           wreg	equ	0xFE8
  9624                           indf1	equ	0xFE7
  9625                           fsr1h	equ	0xFE2
  9626                           fsr1l	equ	0xFE1
  9627                           indf2	equ	0xFDF
  9628                           postinc2	equ	0xFDE
  9629                           postdec2	equ	0xFDD
  9630                           plusw2	equ	0xFDB
  9631                           fsr2h	equ	0xFDA
  9632                           fsr2l	equ	0xFD9
  9633                           status	equ	0xFD8
  9634                           
  9635 ;; *************** function _USART_Initialize *****************
  9636 ;; Defined at:
  9637 ;;		line 46 in file "../../../../../../bsp/pic18f47j53_pim/usart.c"
  9638 ;; Parameters:    Size  Location     Type
  9639 ;;		None
  9640 ;; Auto vars:     Size  Location     Type
  9641 ;;  c               1    0[COMRAM] unsigned char 
  9642 ;; Return value:  Size  Location     Type
  9643 ;;		None               void
  9644 ;; Registers used:
  9645 ;;		wreg, status,2
  9646 ;; Tracked objects:
  9647 ;;		On entry : 0/0
  9648 ;;		On exit  : 0/0
  9649 ;;		Unchanged: 0/0
  9650 ;; Data sizes:     COMRAM   BANK0   BANK1   BANK2   BANK3   BANK4   BANK5   BANK6   BANK7   BANK8   BANK9  BANK10  BANK1
      +1  BANK12  BANK13  BANK14
  9651 ;;      Params:         0       0       0       0       0       0       0       0       0       0       0       0       
      +0       0       0       0
  9652 ;;      Locals:         1       0       0       0       0       0       0       0       0       0       0       0       
      +0       0       0       0
  9653 ;;      Temps:          0       0       0       0       0       0       0       0       0       0       0       0       
      +0       0       0       0
  9654 ;;      Totals:         1       0       0       0       0       0       0       0       0       0       0       0       
      +0       0       0       0
  9655 ;;Total ram usage:        1 bytes
  9656 ;; Hardware stack levels used:    1
  9657 ;; This function calls:
  9658 ;;		Nothing
  9659 ;; This function is called by:
  9660 ;;		_APP_DeviceCDCEmulatorInitialize
  9661 ;;		_USART_mySetLineCodingHandler
  9662 ;; This function uses a non-reentrant model
  9663 ;;
  9664                           
  9665                           	psect	text47
  9666  002CFE                     __ptext47:
  9667                           	opt stack 0
  9668  002CFE                     _USART_Initialize:
  9669                           	opt stack 23
  9670                           
  9671                           ;usart.c: 48: unsigned char c;
  9672                           ;usart.c: 50: TRISCbits.TRISC7=1;
  9673                           
  9674                           ;incstack = 0
  9675  002CFE  8E94               	bsf	3988,7,c	;volatile
  9676                           
  9677                           ;usart.c: 51: TRISCbits.TRISC6=0;
  9678  002D00  9C94               	bcf	3988,6,c	;volatile
  9679                           
  9680                           ;usart.c: 52: TXSTA = 0x24;
  9681  002D02  0E24               	movlw	36
  9682  002D04  6EAD               	movwf	4013,c	;volatile
  9683                           
  9684                           ;usart.c: 53: RCSTA = 0x90;
  9685  002D06  0E90               	movlw	144
  9686  002D08  6EAC               	movwf	4012,c	;volatile
  9687                           
  9688                           ;usart.c: 56: BAUDCON = 0x08;
  9689  002D0A  0E08               	movlw	8
  9690  002D0C  6E7E               	movwf	3966,c	;volatile
  9691                           
  9692                           ;usart.c: 57: c = RCREG;
  9693  002D0E  CFAF F001          	movff	4015,USART_Initialize@c	;volatile
  9694  002D12  0012               	return		;funcret
  9695  002D14                     __end_of_USART_Initialize:
  9696                           	opt stack 0
  9697                           tosu	equ	0xFFF
  9698                           tosh	equ	0xFFE
  9699                           tosl	equ	0xFFD
  9700                           pclatu	equ	0xFFB
  9701                           pclath	equ	0xFFA
  9702                           tblptru	equ	0xFF8
  9703                           tblptrh	equ	0xFF7
  9704                           tblptrl	equ	0xFF6
  9705                           tablat	equ	0xFF5
  9706                           prodh	equ	0xFF4
  9707                           prodl	equ	0xFF3
  9708                           intcon	equ	0xFF2
  9709                           indf0	equ	0xFEF
  9710                           postinc0	equ	0xFEE
  9711                           fsr0h	equ	0xFEA
  9712                           fsr0l	equ	0xFE9
  9713                           wreg	equ	0xFE8
  9714                           indf1	equ	0xFE7
  9715                           fsr1h	equ	0xFE2
  9716                           fsr1l	equ	0xFE1
  9717                           indf2	equ	0xFDF
  9718                           postinc2	equ	0xFDE
  9719                           postdec2	equ	0xFDD
  9720                           plusw2	equ	0xFDB
  9721                           fsr2h	equ	0xFDA
  9722                           fsr2l	equ	0xFD9
  9723                           status	equ	0xFD8
  9724                           tosu	equ	0xFFF
  9725                           tosh	equ	0xFFE
  9726                           tosl	equ	0xFFD
  9727                           pclatu	equ	0xFFB
  9728                           pclath	equ	0xFFA
  9729                           tblptru	equ	0xFF8
  9730                           tblptrh	equ	0xFF7
  9731                           tblptrl	equ	0xFF6
  9732                           tablat	equ	0xFF5
  9733                           prodh	equ	0xFF4
  9734                           prodl	equ	0xFF3
  9735                           intcon	equ	0xFF2
  9736                           indf0	equ	0xFEF
  9737                           postinc0	equ	0xFEE
  9738                           fsr0h	equ	0xFEA
  9739                           fsr0l	equ	0xFE9
  9740                           wreg	equ	0xFE8
  9741                           indf1	equ	0xFE7
  9742                           fsr1h	equ	0xFE2
  9743                           fsr1l	equ	0xFE1
  9744                           indf2	equ	0xFDF
  9745                           postinc2	equ	0xFDE
  9746                           postdec2	equ	0xFDD
  9747                           plusw2	equ	0xFDB
  9748                           fsr2h	equ	0xFDA
  9749                           fsr2l	equ	0xFD9
  9750                           status	equ	0xFD8
  9751                           
  9752                           	psect	text48
  9753  000000                     __ptext48:
  9754                           	opt stack 0
  9755                           tosu	equ	0xFFF
  9756                           tosh	equ	0xFFE
  9757                           tosl	equ	0xFFD
  9758                           pclatu	equ	0xFFB
  9759                           pclath	equ	0xFFA
  9760                           tblptru	equ	0xFF8
  9761                           tblptrh	equ	0xFF7
  9762                           tblptrl	equ	0xFF6
  9763                           tablat	equ	0xFF5
  9764                           prodh	equ	0xFF4
  9765                           prodl	equ	0xFF3
  9766                           intcon	equ	0xFF2
  9767                           indf0	equ	0xFEF
  9768                           postinc0	equ	0xFEE
  9769                           fsr0h	equ	0xFEA
  9770                           fsr0l	equ	0xFE9
  9771                           wreg	equ	0xFE8
  9772                           indf1	equ	0xFE7
  9773                           fsr1h	equ	0xFE2
  9774                           fsr1l	equ	0xFE1
  9775                           indf2	equ	0xFDF
  9776                           postinc2	equ	0xFDE
  9777                           postdec2	equ	0xFDD
  9778                           plusw2	equ	0xFDB
  9779                           fsr2h	equ	0xFDA
  9780                           fsr2l	equ	0xFD9
  9781                           status	equ	0xFD8
  9782                           
  9783                           	psect	rparam
  9784  0000                     tosu	equ	0xFFF
  9785                           tosh	equ	0xFFE
  9786                           tosl	equ	0xFFD
  9787                           pclatu	equ	0xFFB
  9788                           pclath	equ	0xFFA
  9789                           tblptru	equ	0xFF8
  9790                           tblptrh	equ	0xFF7
  9791                           tblptrl	equ	0xFF6
  9792                           tablat	equ	0xFF5
  9793                           prodh	equ	0xFF4
  9794                           prodl	equ	0xFF3
  9795                           intcon	equ	0xFF2
  9796                           indf0	equ	0xFEF
  9797                           postinc0	equ	0xFEE
  9798                           fsr0h	equ	0xFEA
  9799                           fsr0l	equ	0xFE9
  9800                           wreg	equ	0xFE8
  9801                           indf1	equ	0xFE7
  9802                           fsr1h	equ	0xFE2
  9803                           fsr1l	equ	0xFE1
  9804                           indf2	equ	0xFDF
  9805                           postinc2	equ	0xFDE
  9806                           postdec2	equ	0xFDD
  9807                           plusw2	equ	0xFDB
  9808                           fsr2h	equ	0xFDA
  9809                           fsr2l	equ	0xFD9
  9810                           status	equ	0xFD8


Data Sizes:
    Strings     0
    Constant    201
    Data        0
    BSS         364
    Persistent  0
    Stack       0

Auto Spaces:
    Space          Size  Autos    Used
    COMRAM           95     50      95
    BANK0           160      8     135
    BANK1           256      0     192
    BANK2           256      0       0
    BANK3           256      0       0
    BANK4           256      0       0
    BANK5           256      0       0
    BANK6           256      0       0
    BANK7           256      0       0
    BANK8           256      0       0
    BANK9           256      0       0
    BANK10          256      0       0
    BANK11          256      0       0
    BANK12          256      0       0
    BANK13          192      0       0
    BANK14          176      0       0

Pointer List with Targets:

    USER_USB_CALLBACK_EVENT_HANDLER@pdata	PTR void  size(2) Largest target is 48
		 -> USTATcopy(COMRAM[1]), USBActiveConfiguration(COMRAM[1]), BDT(BIGRAMl[48]), NULL(NULL[0]), 

    memset@p1	PTR void  size(2) Largest target is 48
		 -> USBAlternateInterface(BANK0[2]), BDT(BIGRAMl[48]), UEP1(SFR_1[1]), 

    memset@p	PTR unsigned char  size(2) Largest target is 48
		 -> USBAlternateInterface(BANK0[2]), BDT(BIGRAMl[48]), UEP1(SFR_1[1]), 

    putUSBUSART@data	PTR unsigned char  size(2) Largest target is 64
		 -> USB_Out_Buffer(BANK1[64]), 

    getsUSBUSART@buffer	PTR unsigned char  size(2) Largest target is 64
		 -> RS232_Out_Data(BANK1[64]), 

    CDCDataInHandle	PTR void  size(2) Largest target is 48
		 -> BDT(BIGRAMl[48]), NULL(NULL[0]), 

    CDCDataOutHandle	PTR void  size(2) Largest target is 48
		 -> BDT(BIGRAMl[48]), NULL(NULL[0]), 

    pCDCDst.wRom	PTR const unsigned int  size(2) Largest target is 0

    pCDCDst.bRom	PTR const unsigned char  size(2) Largest target is 0

    pCDCDst.wRam	PTR unsigned int  size(2) Largest target is 0

    pCDCDst.bRam	PTR unsigned char  size(2) Largest target is 0

    S2772_POINTER$wRom	PTR const unsigned int  size(2) Largest target is 0

    pCDCSrc.wRom	PTR const unsigned int  size(2) Largest target is 0

    S2772_POINTER$bRom	PTR const unsigned char  size(2) Largest target is 0

    pCDCSrc.bRom	PTR const unsigned char  size(2) Largest target is 0

    S2772_POINTER$wRam	PTR unsigned int  size(2) Largest target is 0

    pCDCSrc.wRam	PTR unsigned int  size(2) Largest target is 0

    S2772_POINTER$bRam	PTR unsigned char  size(2) Largest target is 0

    pCDCSrc.bRam	PTR unsigned char  size(2) Largest target is 0

    USBStdFeatureReqHandler@pUEP	PTR unsigned char  size(2) Largest target is 1
		 -> UEP0(SFR_1[1]), 

    USBStdFeatureReqHandler@p	PTR struct __BDT size(2) Largest target is 48
		 -> BDT(BIGRAMl[48]), NULL(NULL[0]), 

    USBStdGetStatusHandler@p	PTR struct __BDT size(2) Largest target is 48
		 -> BDT(BIGRAMl[48]), NULL(NULL[0]), 

    pDst	PTR volatile unsigned char  size(2) Largest target is 8
		 -> CtrlTrfData(BIGRAMh[8]), NULL(NULL[0]), 

    USBConfigureEndpoint@handle	PTR volatile struct __BDT size(2) Largest target is 48
		 -> BDT(BIGRAMl[48]), 

    pBDTEntryEP0OutCurrent	PTR volatile struct __BDT size(2) Largest target is 48
		 -> BDT(BIGRAMl[48]), NULL(NULL[0]), 

    pBDTEntryEP0OutNext	PTR volatile struct __BDT size(2) Largest target is 48
		 -> BDT(BIGRAMl[48]), NULL(NULL[0]), 

    USBTransferOnePacket@data	PTR unsigned char  size(2) Largest target is 64
		 -> cdc_data_tx(BANK1[64]), cdc_data_rx(BANK0[64]), NULL(NULL[0]), 

    sp__USBTransferOnePacket	PTR void  size(2) Largest target is 48
		 -> BDT(BIGRAMl[48]), NULL(NULL[0]), 

    USBTransferOnePacket@handle	PTR volatile struct __BDT size(2) Largest target is 48
		 -> BDT(BIGRAMl[48]), NULL(NULL[0]), 

    USBEnableEndpoint@p	PTR unsigned char  size(2) Largest target is 1
		 -> UEP0(SFR_1[1]), 

    pBDTEntryOut	PTR volatile struct __BDT[3] size(2) Largest target is 48
		 -> BDT(BIGRAMl[48]), NULL(NULL[0]), 

    pBDTEntryIn	PTR volatile struct __BDT[3] size(2) Largest target is 48
		 -> BDT(BIGRAMl[48]), NULL(NULL[0]), 

    S1413$pFunc	PTR FTN()void  size(3) Largest target is 0
		 -> USART_mySetLineCodingHandler(), 

    outPipes.pFunc	PTR FTN()void  size(3) Largest target is 0
		 -> USART_mySetLineCodingHandler(), 

    S1403$wRam	PTR unsigned int  size(2) Largest target is 0

    outPipes.pDst.wRam	PTR unsigned int  size(2) Largest target is 0

    S1403$bRam	PTR unsigned char  size(2) Largest target is 0

    outPipes.pDst.bRam	PTR unsigned char  size(2) Largest target is 0

    S1379$wRom	PTR const unsigned int  size(2) Largest target is 0

    inPipes.pSrc.wRom	PTR const unsigned int  size(2) Largest target is 0

    S1379$wRam	PTR unsigned int  size(2) Largest target is 0

    inPipes.pSrc.wRam	PTR unsigned int  size(2) Largest target is 0

    S1379$bRom	PTR const unsigned char  size(2) Largest target is 0

    inPipes.pSrc.bRom	PTR const unsigned char  size(2) Largest target is 0

    S1379$bRam	PTR unsigned char  size(2) Largest target is 0

    inPipes.pSrc.bRam	PTR unsigned char  size(2) Largest target is 0

    sp__memset	PTR void  size(2) Largest target is 48
		 -> USBAlternateInterface(BANK0[2]), BDT(BIGRAMl[48]), UEP1(SFR_1[1]), 

    USB_SD_Ptr	const PTR const unsigned char [3] size(2) Largest target is 52
		 -> sd002(CODE[52]), sd001(CODE[52]), sd000(CODE[4]), 

    USB_CD_Ptr	const PTR const unsigned char [1] size(2) Largest target is 67
		 -> configDescriptor1(CODE[67]), 

    lastTransmission	PTR void  size(2) Largest target is 0
		 -> NULL(NULL[0]), 


Critical Paths under _main in COMRAM

    _USBDeviceInit->_memset
    _SYSTEM_Initialize->_BUTTON_Enable
    _SYSTEM_Initialize->_LED_Enable
    _APP_DeviceCDCEmulatorTasks->_CDCTxService
    _APP_DeviceCDCEmulatorTasks->_getsUSBUSART
    _getsUSBUSART->_USBTransferOnePacket
    _CDCTxService->_USBTransferOnePacket

Critical Paths under _SYS_InterruptHigh in COMRAM

    _SYS_InterruptHigh->_USBDeviceTasks
    _USBDeviceTasks->_USBCtrlEPService
    i2_USBDeviceInit->i2_memset
    _USBWakeFromSuspend->_USER_USB_CALLBACK_EVENT_HANDLER
    _USBSuspend->_USER_USB_CALLBACK_EVENT_HANDLER
    _USBCtrlEPAllowDataStage->_USBCtrlTrfTxService
    _USBCheckStdRequest->_USBStdFeatureReqHandler
    _USBStdSetCfgHandler->_USER_USB_CALLBACK_EVENT_HANDLER
    _USBStdFeatureReqHandler->_USER_USB_CALLBACK_EVENT_HANDLER
    _USER_USB_CALLBACK_EVENT_HANDLER->_APP_DeviceCDCEmulatorInitialize
    _APP_LEDUpdateUSBStatus->_LED_Off
    _APP_LEDUpdateUSBStatus->_LED_On
    _CDCInitEP->_USBEnableEndpoint
    _USBEnableEndpoint->_USBConfigureEndpoint
    _USBCtrlTrfOutHandler->_USBCtrlTrfRxService
    _USBCtrlTrfRxService->_USART_mySetLineCodingHandler
    _USBCtrlTrfInHandler->_USART_mySetLineCodingHandler
    _USART_mySetLineCodingHandler->___lldiv

Critical Paths under _main in BANK0

    _USBDeviceInit->_memset
    _APP_DeviceCDCEmulatorTasks->_getsUSBUSART
    _getsUSBUSART->_USBTransferOnePacket
    _CDCTxService->_USBTransferOnePacket

Critical Paths under _SYS_InterruptHigh in BANK0

    None.

Critical Paths under _main in BANK1

    None.

Critical Paths under _SYS_InterruptHigh in BANK1

    None.

Critical Paths under _main in BANK2

    None.

Critical Paths under _SYS_InterruptHigh in BANK2

    None.

Critical Paths under _main in BANK3

    None.

Critical Paths under _SYS_InterruptHigh in BANK3

    None.

Critical Paths under _main in BANK4

    None.

Critical Paths under _SYS_InterruptHigh in BANK4

    None.

Critical Paths under _main in BANK5

    None.

Critical Paths under _SYS_InterruptHigh in BANK5

    None.

Critical Paths under _main in BANK6

    None.

Critical Paths under _SYS_InterruptHigh in BANK6

    None.

Critical Paths under _main in BANK7

    None.

Critical Paths under _SYS_InterruptHigh in BANK7

    None.

Critical Paths under _main in BANK8

    None.

Critical Paths under _SYS_InterruptHigh in BANK8

    None.

Critical Paths under _main in BANK9

    None.

Critical Paths under _SYS_InterruptHigh in BANK9

    None.

Critical Paths under _main in BANK10

    None.

Critical Paths under _SYS_InterruptHigh in BANK10

    None.

Critical Paths under _main in BANK11

    None.

Critical Paths under _SYS_InterruptHigh in BANK11

    None.

Critical Paths under _main in BANK12

    None.

Critical Paths under _SYS_InterruptHigh in BANK12

    None.

Critical Paths under _main in BANK13

    None.

Critical Paths under _SYS_InterruptHigh in BANK13

    None.

Critical Paths under _main in BANK14

    None.

Critical Paths under _SYS_InterruptHigh in BANK14

    None.

Call Graph Tables:

 ---------------------------------------------------------------------------------
 (Depth) Function   	        Calls       Base Space   Used Autos Params    Refs
 ---------------------------------------------------------------------------------
 (0) _main                                                 0     0      0    5120
         _APP_DeviceCDCEmulatorTasks
                  _SYSTEM_Initialize
                    _USBDeviceAttach
                      _USBDeviceInit
 ---------------------------------------------------------------------------------
 (1) _USBDeviceInit                                        1     1      0    1132
                                             47 COMRAM     1     1      0
                             _memset
 ---------------------------------------------------------------------------------
 (2) _memset                                               8     2      6     930
                                             45 COMRAM     2     2      0
                                              0 BANK0      6     0      6
 ---------------------------------------------------------------------------------
 (1) _USBDeviceAttach                                      0     0      0       0
 ---------------------------------------------------------------------------------
 (1) _SYSTEM_Initialize                                    5     5      0     112
                                              0 BANK0      5     5      0
                      _BUTTON_Enable
                         _LED_Enable
 ---------------------------------------------------------------------------------
 (2) _LED_Enable                                           1     1      0      22
                                             45 COMRAM     1     1      0
 ---------------------------------------------------------------------------------
 (2) _BUTTON_Enable                                        1     1      0      22
                                             45 COMRAM     1     1      0
 ---------------------------------------------------------------------------------
 (1) _APP_DeviceCDCEmulatorTasks                           0     0      0    3876
                       _CDCTxService
                    _USART_getcUSART
                    _USART_putcUSART
                       _getsUSBUSART
                        _putUSBUSART
 ---------------------------------------------------------------------------------
 (2) _putUSBUSART                                          3     0      3     222
                                             45 COMRAM     3     0      3
 ---------------------------------------------------------------------------------
 (2) _getsUSBUSART                                         6     3      3    1858
                                             49 COMRAM     1     1      0
                                              3 BANK0      5     2      3
               _USBTransferOnePacket
 ---------------------------------------------------------------------------------
 (2) _USART_putcUSART                                      1     1      0      22
                                             45 COMRAM     1     1      0
 ---------------------------------------------------------------------------------
 (2) _USART_getcUSART                                      1     1      0      24
                                             45 COMRAM     1     1      0
 ---------------------------------------------------------------------------------
 (2) _CDCTxService                                         5     5      0    1750
                                             49 COMRAM     1     1      0
                                              3 BANK0      4     4      0
               _USBTransferOnePacket
 ---------------------------------------------------------------------------------
 (3) _USBTransferOnePacket                                 7     3      4    1589
                                             45 COMRAM     4     0      4
                                              0 BANK0      3     3      0
 ---------------------------------------------------------------------------------
 Estimated maximum stack depth 3
 ---------------------------------------------------------------------------------
 (Depth) Function   	        Calls       Base Space   Used Autos Params    Refs
 ---------------------------------------------------------------------------------
 (4) _SYS_InterruptHigh                                   14    14      0   30380
                                             31 COMRAM    14    14      0
                     _USBDeviceTasks
 ---------------------------------------------------------------------------------
 (5) _USBDeviceTasks                                       1     1      0   30380
                                             30 COMRAM     1     1      0
          _USBCtrlEPAllowStatusStage
                   _USBCtrlEPService
                    _USBStallHandler
                         _USBSuspend
                 _USBWakeFromSuspend
    _USER_USB_CALLBACK_EVENT_HANDLER
                    i2_USBDeviceInit
 ---------------------------------------------------------------------------------
 (6) i2_USBDeviceInit                                      1     1      0     610
                                              8 COMRAM     1     1      0
                           i2_memset
 ---------------------------------------------------------------------------------
 (6) _USBWakeFromSuspend                                   0     0      0    3948
    _USER_USB_CALLBACK_EVENT_HANDLER
 ---------------------------------------------------------------------------------
 (6) _USBSuspend                                           0     0      0    3948
    _USER_USB_CALLBACK_EVENT_HANDLER
 ---------------------------------------------------------------------------------
 (6) _USBStallHandler                                      1     1      0       0
                                              0 COMRAM     1     1      0
 ---------------------------------------------------------------------------------
 (6) _USBCtrlEPService                                     3     3      0   17880
                                             27 COMRAM     3     3      0
                _USBCtrlTrfInHandler
               _USBCtrlTrfOutHandler
             _USBCtrlTrfSetupHandler
 ---------------------------------------------------------------------------------
 (7) _USBCtrlTrfSetupHandler                               0     0      0   16811
                 _USBCheckStdRequest
           _USBCtrlEPServiceComplete
    _USER_USB_CALLBACK_EVENT_HANDLER
 ---------------------------------------------------------------------------------
 (8) _USBCtrlEPServiceComplete                             0     0      0      92
            _USBCtrlEPAllowDataStage
          _USBCtrlEPAllowStatusStage
 ---------------------------------------------------------------------------------
 (9) _USBCtrlEPAllowDataStage                              0     0      0      92
                _USBCtrlTrfTxService
 ---------------------------------------------------------------------------------
 (8) _USBCheckStdRequest                                   0     0      0   12771
            _USBStdFeatureReqHandler
                _USBStdGetDscHandler
             _USBStdGetStatusHandler
                _USBStdSetCfgHandler
    _USER_USB_CALLBACK_EVENT_HANDLER
 ---------------------------------------------------------------------------------
 (9) _USBStdSetCfgHandler                                  1     1      0    4446
                                             21 COMRAM     1     1      0
    _USER_USB_CALLBACK_EVENT_HANDLER
                           i2_memset
 ---------------------------------------------------------------------------------
 (7) i2_memset                                             8     2      6     408
                                              0 COMRAM     8     2      6
 ---------------------------------------------------------------------------------
 (9) _USBStdGetStatusHandler                               3     3      0      46
                                              0 COMRAM     3     3      0
 ---------------------------------------------------------------------------------
 (9) _USBStdGetDscHandler                                  2     2      0       0
                                              0 COMRAM     2     2      0
 ---------------------------------------------------------------------------------
 (9) _USBStdFeatureReqHandler                              6     6      0    4331
                                             21 COMRAM     6     6      0
    _USER_USB_CALLBACK_EVENT_HANDLER
 ---------------------------------------------------------------------------------
 (6) _USER_USB_CALLBACK_EVENT_HANDLER                      8     2      6    3948
                                             13 COMRAM     8     2      6
    _APP_DeviceCDCEmulatorInitialize
             _APP_LEDUpdateUSBStatus
                 _USBCheckCDCRequest
 ---------------------------------------------------------------------------------
 (7) _USBCheckCDCRequest                                   0     0      0       0
 ---------------------------------------------------------------------------------
 (7) _APP_LEDUpdateUSBStatus                               0     0      0      44
                            _LED_Off
                             _LED_On
 ---------------------------------------------------------------------------------
 (8) _LED_On                                               1     1      0      22
                                              0 COMRAM     1     1      0
 ---------------------------------------------------------------------------------
 (8) _LED_Off                                              1     1      0      22
                                              0 COMRAM     1     1      0
 ---------------------------------------------------------------------------------
 (7) _APP_DeviceCDCEmulatorInitialize                      1     1      0    1212
                                             12 COMRAM     1     1      0
                          _CDCInitEP
                   _USART_Initialize
 ---------------------------------------------------------------------------------
 (8) _CDCInitEP                                            0     0      0    1143
                  _USBEnableEndpoint
             i2_USBTransferOnePacket
 ---------------------------------------------------------------------------------
 (9) i2_USBTransferOnePacket                               7     3      4     410
                                              0 COMRAM     7     3      4
 ---------------------------------------------------------------------------------
 (9) _USBEnableEndpoint                                    4     3      1     733
                                              8 COMRAM     4     3      1
               _USBConfigureEndpoint
 ---------------------------------------------------------------------------------
 (10) _USBConfigureEndpoint                                8     7      1     400
                                              0 COMRAM     8     7      1
 ---------------------------------------------------------------------------------
 (7) _USBCtrlTrfOutHandler                                 0     0      0     500
                _USBCtrlTrfRxService
 ---------------------------------------------------------------------------------
 (8) _USBCtrlTrfRxService                                  2     2      0     500
                                             17 COMRAM     2     2      0
       _USART_mySetLineCodingHandler *
          _USBCtrlEPAllowStatusStage
 ---------------------------------------------------------------------------------
 (9) _USBCtrlEPAllowStatusStage                            0     0      0       0
 ---------------------------------------------------------------------------------
 (7) _USBCtrlTrfInHandler                                  1     1      0     501
                                             17 COMRAM     1     1      0
       _USART_mySetLineCodingHandler *
                _USBCtrlTrfTxService
 ---------------------------------------------------------------------------------
 (10) _USBCtrlTrfTxService                                 1     1      0      92
                                              0 COMRAM     1     1      0
 ---------------------------------------------------------------------------------
 (9) _USART_mySetLineCodingHandler                         4     4      0     386
                                             13 COMRAM     4     4      0
                   _USART_Initialize
                            ___lldiv
 ---------------------------------------------------------------------------------
 (10) ___lldiv                                            13     5      8     340
                                              0 COMRAM    13     5      8
 ---------------------------------------------------------------------------------
 (8) _USART_Initialize                                     1     1      0       1
                                              0 COMRAM     1     1      0
 ---------------------------------------------------------------------------------
 Estimated maximum stack depth 10
 ---------------------------------------------------------------------------------

 Call Graph Graphs:

 _main (ROOT)
   _APP_DeviceCDCEmulatorTasks
     _CDCTxService
       _USBTransferOnePacket
     _USART_getcUSART
     _USART_putcUSART
     _getsUSBUSART
       _USBTransferOnePacket
     _putUSBUSART
   _SYSTEM_Initialize
     _BUTTON_Enable
     _LED_Enable
   _USBDeviceAttach
   _USBDeviceInit
     _memset

 _SYS_InterruptHigh (ROOT)
   _USBDeviceTasks
     _USBCtrlEPAllowStatusStage
     _USBCtrlEPService
       _USBCtrlTrfInHandler
         _USART_mySetLineCodingHandler *
           _USART_Initialize
           ___lldiv
         _USBCtrlTrfTxService *
       _USBCtrlTrfOutHandler
         _USBCtrlTrfRxService
           _USART_mySetLineCodingHandler *
             _USART_Initialize
             ___lldiv
           _USBCtrlEPAllowStatusStage *
       _USBCtrlTrfSetupHandler
         _USBCheckStdRequest
           _USBStdFeatureReqHandler
             _USER_USB_CALLBACK_EVENT_HANDLER
               _APP_DeviceCDCEmulatorInitialize
                 _CDCInitEP
                   _USBEnableEndpoint
                     _USBConfigureEndpoint
                   i2_USBTransferOnePacket
                 _USART_Initialize
               _APP_LEDUpdateUSBStatus
                 _LED_Off
                 _LED_On
               _USBCheckCDCRequest
           _USBStdGetDscHandler
           _USBStdGetStatusHandler
           _USBStdSetCfgHandler
             _USER_USB_CALLBACK_EVENT_HANDLER
               _APP_DeviceCDCEmulatorInitialize
                 _CDCInitEP
                   _USBEnableEndpoint
                     _USBConfigureEndpoint
                   i2_USBTransferOnePacket
                 _USART_Initialize
               _APP_LEDUpdateUSBStatus
                 _LED_Off
                 _LED_On
               _USBCheckCDCRequest
             i2_memset
           _USER_USB_CALLBACK_EVENT_HANDLER
             _APP_DeviceCDCEmulatorInitialize
               _CDCInitEP
                 _USBEnableEndpoint
                   _USBConfigureEndpoint
                 i2_USBTransferOnePacket
               _USART_Initialize
             _APP_LEDUpdateUSBStatus
               _LED_Off
               _LED_On
             _USBCheckCDCRequest
         _USBCtrlEPServiceComplete
           _USBCtrlEPAllowDataStage
             _USBCtrlTrfTxService
           _USBCtrlEPAllowStatusStage
         _USER_USB_CALLBACK_EVENT_HANDLER
           _APP_DeviceCDCEmulatorInitialize
             _CDCInitEP
               _USBEnableEndpoint
                 _USBConfigureEndpoint
               i2_USBTransferOnePacket
             _USART_Initialize
           _APP_LEDUpdateUSBStatus
             _LED_Off
             _LED_On
           _USBCheckCDCRequest
     _USBStallHandler
     _USBSuspend
       _USER_USB_CALLBACK_EVENT_HANDLER
         _APP_DeviceCDCEmulatorInitialize
           _CDCInitEP
             _USBEnableEndpoint
               _USBConfigureEndpoint
             i2_USBTransferOnePacket
           _USART_Initialize
         _APP_LEDUpdateUSBStatus
           _LED_Off
           _LED_On
         _USBCheckCDCRequest
     _USBWakeFromSuspend
       _USER_USB_CALLBACK_EVENT_HANDLER
         _APP_DeviceCDCEmulatorInitialize
           _CDCInitEP
             _USBEnableEndpoint
               _USBConfigureEndpoint
             i2_USBTransferOnePacket
           _USART_Initialize
         _APP_LEDUpdateUSBStatus
           _LED_Off
           _LED_On
         _USBCheckCDCRequest
     _USER_USB_CALLBACK_EVENT_HANDLER
       _APP_DeviceCDCEmulatorInitialize
         _CDCInitEP
           _USBEnableEndpoint
             _USBConfigureEndpoint
           i2_USBTransferOnePacket
         _USART_Initialize
       _APP_LEDUpdateUSBStatus
         _LED_Off
         _LED_On
       _USBCheckCDCRequest
     i2_USBDeviceInit
       i2_memset

 Address spaces:
Name               Size   Autos  Total    Cost      Usage
BIGRAMl            CFF      0       0      36        0.0%
BIGRAMh            170      0       0      35        0.0%
BITBANK12          100      0       0      29        0.0%
BANK12             100      0       0      30        0.0%
BITBANK11          100      0       0      27        0.0%
BANK11             100      0       0      28        0.0%
BITBANK10          100      0       0      25        0.0%
BANK10             100      0       0      26        0.0%
BITBANK9           100      0       0      23        0.0%
BANK9              100      0       0      24        0.0%
BITBANK8           100      0       0      21        0.0%
BANK8              100      0       0      22        0.0%
BITBANK7           100      0       0      19        0.0%
BANK7              100      0       0      20        0.0%
BITBANK6           100      0       0      17        0.0%
BANK6              100      0       0      18        0.0%
BITBANK5           100      0       0      15        0.0%
BANK5              100      0       0      16        0.0%
BITBANK4           100      0       0      13        0.0%
BANK4              100      0       0      14        0.0%
BITBANK3           100      0       0      11        0.0%
BANK3              100      0       0      12        0.0%
BITBANK2           100      0       0       9        0.0%
BANK2              100      0       0      10        0.0%
BITBANK1           100      0       0       6        0.0%
BANK1              100      0      C0       7       75.0%
BITBANK13           C0      0       0      31        0.0%
BANK13              C0      0       0      32        0.0%
BITBANK14           B0      0       0      33        0.0%
BANK14              B0      0       0      34        0.0%
BITBANK0            A0      0       0       4        0.0%
BANK0               A0      8      87       5       84.4%
BITCOMRAM           5F      0       0       0        0.0%
COMRAM              5F     32      5F       1      100.0%
BITSFR_2             0      0       0      40        0.0%
SFR_2                0      0       0      40        0.0%
BITSFR_1             0      0       0      40        0.0%
SFR_1                0      0       0      40        0.0%
BITSFR               0      0       0      40        0.0%
SFR                  0      0       0      40        0.0%
STACK                0      0       0       2        0.0%
NULL                 0      0       0       0        0.0%
ABS                  0      0     1A6       8        0.0%
DATA                 0      0     1A6       3        0.0%
CODE                 0      0       0       0        0.0%


Microchip Technology PIC18 Macro Assembler V1.34 build -361300703 
Symbol Table                                                                                   Thu Jul 09 22:26:55 2015

                              _USB_SD_Ptr 0F01                                        l83 1FDA  
                                      l89 204E                               ?_LED_Enable 0001  
                           _USBDeviceInit 153E                        __size_of_CDCInitEP 0072  
                            __CFG_CP0$OFF 000000      USER_USB_CALLBACK_EVENT_HANDLER@event 000E  
    USER_USB_CALLBACK_EVENT_HANDLER@pdata 0010                  __end_of_USART_Initialize 2D14  
                                     l141 2C24                                       l236 2CCA  
                                     l317 2CF2               __end_of_USBStdGetDscHandler 1A32  
                                     l512 2B14                                       l281 2C3E  
                                     l513 2B12                                       l451 15AC  
                                     l279 2C3A                                       l813 12B4  
                                     l818 1300                                       _BDT 000D00  
                                     _UIE 000F36                                       _UIR 000F62  
                  _APP_LEDUpdateUSBStatus 2758                                _USBSuspend 2BB6  
                    USBStdSetCfgHandler@i 0016                                       prod 000FF3  
                                     tosl 000FFD                                       wreg 000FE8  
                          _USBDeviceTasks 13DA                            _USBDeviceState 0050  
                           _BUTTON_Enable 2CC6                     ??_USBCtrlTrfRxService 0012  
                __size_ofi2_USBDeviceInit 013E                            ??_getsUSBUSART 0032  
                USBEnableEndpoint@options 0009                           __end_of_LED_Off 2CC6  
              USBConfigureEndpoint@handle 0007                                      l4230 2052  
                                    l4216 200C                                      l4226 2044  
                                    l4082 2814                                      l4074 27E2  
                                    l4322 2C2C                                      l4084 2824  
                                    l4316 2C1C                                      l3702 2128  
                                    l4238 2074                                      l4078 27F0  
                                    l4270 15BA                                      l4262 15A6  
                                    l3704 2140                                      l4088 283E  
                                    l3810 1C48                                      l3802 2CD2  
                                    l4282 15EE                                      l4258 158C  
                                    l3820 1C96                                      l3812 1C54  
                                    l4196 1FAC                                      l4292 1652  
                                    l3902 1356                                      l4286 15F6  
                                    l4278 15CE                                      l3920 13B0  
                                    l3904 1366                                      l3912 138C  
                                    l3824 1CC8                                      l3690 20C6  
                                    l3682 2094                                      l3922 13B6  
                                    l3914 139A                                      l3818 1C8E  
                                    l3684 20B0                                      l3924 13D6  
                                    l3828 1CF4                                      l3932 2B3C  
                                    l3862 128C                                      l3838 2CF8  
                                    l3854 2C7A                                      l3880 12EA  
                                    l3864 1298                                      l3928 2B2A  
                                    l3874 12BE                                      l3868 12A8  
                                    l3796 2C42                                      l3894 1330  
                                    l3886 1306                                      u2920 1C3C  
                                    u2928 1C3E                                      u2990 1280  
                                    u2998 1282                     ??_USBCtrlTrfTxService 0001  
                                    _UCFG 000F39                                      _UEP0 000F26  
                                    _UEP1 000F27                                      _UEIE 000F37  
                                    _UEIR 000F63                                      _UCON 000F65  
                         _CDCDataInHandle 0076    USBStdFeatureReqHandler@current_ep_data 0019  
                                    _pDst 007C                                      _main 2C0C  
                ??i2_USBTransferOnePacket 0005                                      fsr0h 000FEA  
                                    fsr1h 000FE2                                      indf0 000FEF  
                                    fsr0l 000FE9                                      fsr2h 000FDA  
                                    indf1 000FE7                               _BaudRateGen 0066  
                                    fsr1l 000FE1                                      indf2 000FDF  
                                    fsr2l 000FD9                           _USBDeviceAttach 2AE6  
                                    pclat 000FFA                                      prodh 000FF4  
                                    prodl 000FF3                                      start 007E  
                           __CFG_IESO$OFF 000000                __end_of_USBCheckStdRequest 1DDE  
                         _USART_putcUSART 2D14                    ??_USBCtrlTrfOutHandler 0014  
                            ___param_bank 000010                 ??_USBStdFeatureReqHandler 0016  
           ?_USART_mySetLineCodingHandler 0001                  ??_USBStdGetStatusHandler 0001  
                          ?_USBDeviceInit 0001                             __CFG_PLLDIV$3 000000  
                                   ?_main 0001         __size_of_USBCtrlEPServiceComplete 00FC  
                         __end_of___lldiv 26D4                    __end_of_USBDeviceTasks 153E  
               ?_USBCtrlEPServiceComplete 0001                                     i2l255 2CA6  
                                   i2l247 2C82                                     i2l600 246C  
                                   i2l257 2CAA                                     i2l249 2C86  
                                   i2l603 24FE                                     i2l451 16EA  
                                   i2l604 2482                                     i2l605 2486  
                                   i2l613 2AA2                                     i2l463 140E  
                                   i2l537 1AAE                                     i2l473 14BC  
                                   i2l650 1BE0                                     i2l474 153A  
                                   i2l475 14CE                                     i2l664 1D10  
                                   i2l761 2430                                     i2l673 1D60  
                                   i2l759 23FA                                     i2l679 0FF6  
                                   i2l698 11C4                                     _UADDR 000F38  
                                   _RCREG 000FAF                                     _RCSTA 000FAC  
                                   _SPBRG 000FB0                                     _USTAT 000F64  
                                   _TXREG 000FAE                                     _TXSTA 000FAD  
      __size_of_USBCtrlEPAllowStatusStage 00C4               ?_APP_DeviceCDCEmulatorTasks 0001  
                          __CFG_FCMEN$OFF 000000                            ?_BUTTON_Enable 0001  
         __end_of_USBCtrlEPAllowDataStage 25B2                                     _sd000 0FC6  
                                   _sd001 0F4C                                     _sd002 0F80  
                              i2memset@p1 0001                   __end_of_USART_getcUSART 2CFE  
                                   pclath 000FFA                                     tablat 000FF5  
                     __size_of_LED_Enable 0024                                     plusw2 000FDB  
                       __end_of_CDCInitEP 2940                                     status 000FD8  
                       __CFG_DSWDTPS$8192 000000                          __end_ofi2_memset 2BB6  
                        USART_getcUSART@c 002E                   __CFG_DSWDTOSC$INTOSCREF 000000  
                         putUSBUSART@data 002E        USART_mySetLineCodingHandler@dwBaud 000E  
            __size_of_USBStdSetCfgHandler 00DE                           __initialization 2BE2  
                            __end_of_main 2C36                     _control_signal_bitmap 0083  
                          __CFG_OSC$HSPLL 000000                 __size_of_USBCtrlEPService 00D0  
                                  ??_main 0033                             __activetblptr 000003  
                         ?_USBDeviceTasks 0001                               ?_USBSuspend 0001  
                               ??_LED_Off 0001                                _NextUSBOut 004A  
                            _cdc_mem_type 0080                   __end_of_USBDeviceAttach 2B20  
                                  _ADCON0 000FC2                                    _ADCON1 000FC1  
                        _CDCDataOutHandle 0078                         _getsUSBUSART$3146 00E5  
                                  _ADRESH 000FC4                                    _ADRESL 000FC3  
                         getsUSBUSART@len 00E4                    SYSTEM_Initialize@state 00E3  
                   __size_of_CDCTxService 017C                                    i2l3010 2614  
                                  i2l3012 262E                                    i2l3020 2AB8  
                                  i2l3110 2978                                    i2l3024 2AC8  
                                  i2l3040 2322                                    i2l3032 22F6  
                                  i2l3200 2862                                    i2l4000 220A  
                                  i2l3034 2310                                    i2l3106 2970  
                                  i2l3130 2776                                    i2l3202 2868  
                                  i2l3210 287A                                    i2l3052 237E  
                                  i2l3116 2990                                    i2l3204 286E  
                                  i2l4100 13F4                                    i2l3230 1DFC  
                                  i2l3054 2394                                    i2l3142 27AE  
                                  i2l3134 2788                                    i2l3126 2766  
                                  i2l3206 2874                                    i2l4022 16CA  
                                  i2l1288 26C2                                    i2l3152 27CC  
                                  i2l3160 23B0                                    _LED_On 2C7E  
                                  i2l3234 1E08                                    i2l3090 2C8A  
                                  i2l3146 27C0                                    i2l3138 279E  
                                  i2l3154 27D6                                    i2l3170 23D8  
                                  i2l3402 190C                                    i2l4050 1734  
                                  i2l4034 16F8                                    i2l4042 170C  
                                  i2l4026 16E4                                    i2l4130 1438  
                                  i2l4122 1426                                    i2l3244 1E34  
                                  i2l3252 1E6E                                    i2l3084 2CAE  
                                  i2l3164 23C2                                    i2l4108 1406  
                                  i2l3270 266A                                    i2l3254 1E7A  
                                  i2l3262 1EB4                                    i2l3318 2262  
                                  i2l3510 115C                                    i2l3422 1A0A  
                                  i2l3414 19AC                                    i2l3406 191E  
                                  i2l4046 172C                                    i2l4142 146C  
                          __CFG_WDTEN$OFF 000000                                    i2l3272 2678  
                                  i2l3520 11A2                                    i2l3504 1124  
                                  i2l3424 1A10                                    i2l3416 19B2  
                                  i2l3440 24A4                                    i2l3352 257E  
                                  i2l4056 1790                                    i2l4160 14B2  
                                  i2l4152 1488                                    i2l4136 1460  
                                  i2l3282 26B2                                    i2l3274 2680  
                                  i2l3602 17F2                                    i2l3186 241A  
                                  i2l3178 23EE                                    i2l3194 2438  
                                  i2l3530 11E0                                    i2l3522 11B0  
                                  i2l3506 1142                                    i2l3442 24C6  
                                  i2l3434 2476                                    i2l3450 24E6  
                                  i2l4146 1478                                    i2l3620 1870  
                                  i2l3532 11FE                                    i2l3428 1A16  
                                  i2l3292 2BA4                                    i2l3372 1F08  
                                  i2l3348 2564                                    i2l4180 14F4  
                                  i2l3198 285C                                    i2l3550 1A4E  
                                  i2l4182 150A                                    i2l4166 14C6  
                                  i2l3624 188A                                    i2l3608 1816  
                                  i2l4440 28C6                                    i2l3536 1228  
                                  i2l3288 2B92                                    i2l3368 1F00  
                                  i2l3634 18EC                                    i2l3538 1236  
                                  i2l3490 10B4                                    i2l3482 106A  
                                  i2l3394 1F7A                                    i2l3378 1F34  
                                  i2l3650 1D24                                    i2l3554 1A58  
                                  i2l4186 1516                                    i2l3484 10A8  
                                  i2l3468 0FF0                                    i2l3660 1D3E  
                                  i2l4188 1536                                    i2l4438 2892  
                                  i2l3494 10D0                                    i2l3662 1D44  
                                  i2l3646 1D18                                    i2l3566 1AC4  
                                  i2l3574 1AD8                                    i2l3760 1B60  
                                  i2l3496 10F2                                    i2l3488 10B0  
                                  i2l3672 1D7A                                    i2l3648 1D1E  
                                  i2l3762 1B66                                    i2l3746 29FC  
                                  i2l3738 29B4                                    i2l3658 1D36  
                                  i2l3780 1BC6                                    i2l3676 1D98  
                                  i2l3790 1C0E                                    i2l3774 1BA6  
                                  i2l3598 17E4                                    i2l3942 2B7E  
                                  i2l3944 2B82                                    i2l3788 1C0A  
                                  i2l3982 219C                                    i2l3966 2A9E  
                                  i2l3994 21EA                                    i2l3986 21A4  
                                  i2l3998 2204                   __end_of_USART_putcUSART 2D1C  
                                  _OSCCON 000FD3                             CDCTxService@i 00E4  
                                  _SPBRGH 000F7F                            __CFG_WPCFG$OFF 000000  
                i2USBTransferOnePacket@ep 0005                         ??i2_USBDeviceInit 0009  
         __size_ofi2_USBTransferOnePacket 00C0                            __CFG_WPDIS$OFF 000000  
                       _shortPacketStatus 0057                            __CFG_XINST$OFF 000000  
                         USBDeviceTasks@i 001F               USBStdFeatureReqHandler@pUEP 0017  
                USBTransferOnePacket@data 002F                USBCtrlTrfInHandler@lastDTS 0012  
                         ??_USBDeviceInit 0030                              ?_putUSBUSART 002E  
                          __CFG_STVREN$ON 000000                                 ??___lldiv 0009  
                    __end_of_getsUSBUSART 1CFC                         _USBEnableEndpoint 2AA6  
         __size_of_USBStdGetStatusHandler 00B6                                    _memset 2B20  
                                  clear_0 2BE8                                    clear_1 2BF4  
                                  clear_2 2C00                        ?_USBEnableEndpoint 0009  
          ??_USART_mySetLineCodingHandler 000E             __size_of_USBTransferOnePacket 00D2  
                         ??_BUTTON_Enable 002E                              _CDCTxService 125E  
                            __mediumconst 0000                                    tblptrh 000FF7  
                                  tblptrl 000FF6                                    tblptru 000FF8  
                     ??_USBEnableEndpoint 000A                            _RS232_Out_Data 0100  
                             _CtrlTrfData 000D38                          ?_USART_getcUSART 0001  
                    _controlTransferState 0055                         _SYSTEM_Initialize 27DC  
                              __accesstop 0060                   __end_of__initialization 2C06  
                      ?_SYSTEM_Initialize 0001                             ___rparam_used 000001  
                __size_of_USBStallHandler 0048                       __size_of_USBSuspend 002C  
                          __pcstackCOMRAM 0001                 __end_of_USBEnableEndpoint 2AE6  
                           __end_of_sd000 0FCA                             __end_of_sd001 0F80  
                           __end_of_sd002 0FB4                       ??_SYSTEM_Initialize 002F  
                               LED_On@led 0001          __size_of_USBCtrlEPAllowDataStage 009E  
                            ??_LED_Enable 002E             __size_of_USBConfigureEndpoint 0096  
             __end_of_USBCtrlTrfInHandler 1C16                   ?_APP_LEDUpdateUSBStatus 0001  
                  i2_USBTransferOnePacket 22E0   __end_of_APP_DeviceCDCEmulatorInitialize 29A6  
__size_of_APP_DeviceCDCEmulatorInitialize 0066         ??_APP_DeviceCDCEmulatorInitialize 000D  
        ?_APP_DeviceCDCEmulatorInitialize 0001           _APP_DeviceCDCEmulatorInitialize 2940  
                       ?_USART_Initialize 0001                         _CDCTxService$3194 00E2  
                              _cdc_notice 00C4                                 ?i2_memset 0001  
                              _cdc_rx_len 0081                                _cdc_tx_len 0082  
                      ??_USART_Initialize 0001                  ??_USBCtrlTrfSetupHandler 001C  
                          _USB_Out_Buffer 0140                          ?_USBDeviceAttach 0001  
               __end_of_SYSTEM_Initialize 2858                    _USBStdGetStatusHandler 245E  
                              __pbssBANK0 0060                                __pbssBANK1 0100  
                                 ?_LED_On 0001                          ?_USART_putcUSART 0001  
                      __end_of_LED_Enable 2C5A               __size_of_USBWakeFromSuspend 0034  
                             _pBDTEntryIn 003C          __end_of_USBCtrlEPServiceComplete 1B2E  
             __size_of_USBCheckCDCRequest 00BE                      USBCtrlTrfRxService@i 0012  
                           LED_Enable@led 002E            __end_of_APP_LEDUpdateUSBStatus 27DC  
                                 _BAUDCON 000F7E                                   ?_memset 00DF  
                              _device_dsc 0FB4                          _USBCtrlEPService 214C  
                              _ep_data_in 006A               __end_of_USBCtrlTrfRxService 18FC  
                      _USBCheckStdRequest 1CFC                         _configDescriptor1 0F09  
                                 _LED_Off 2CA2                                   _RS232cp 004C  
                              ??i2_memset 0007               __end_of_USBCtrlTrfTxService 1EC0  
                     _USBStdSetCfgHandler 1EC0                       ?_USBCheckStdRequest 0001  
            __size_of_USBStdGetDscHandler 0136                                   _UIEbits 000F36  
                                 _UIRbits 000F62                          __CFG_CFGPLLEN$ON 000000  
                         __size_of_LED_On 0024                             _cdc_trf_state 0054  
          APP_LEDUpdateUSBStatus@ledCount 0042                                   _pCDCDst 0070  
                                 _pCDCSrc 0073                     __size_of_getsUSBUSART 00E6  
                                 __Hparam 0000                      ?_USBStdSetCfgHandler 0001  
                               _CDCInitEP 28CE                                   __Lparam 0000  
              __size_of_USBEnableEndpoint 0040                      ??_USBCheckStdRequest 001C  
           __size_of_USBCtrlTrfOutHandler 005E                                   ___lldiv 2648  
                        ??_USBDeviceTasks 001F                         ??_USBStallHandler 0001  
                            __psmallconst 0F00                      __size_of_putUSBUSART 0024  
                                 __pcinit 2BE2                        getsUSBUSART@buffer 00E2  
                         __size_of_memset 0034                 __end_of_configDescriptor1 0F4C  
                                 __ramtop 0F00                          USART_putcUSART@c 002E  
                                 __ptext0 2C0C                                   __ptext1 153E  
                                 __ptext2 2B20                                   __ptext3 2AE6  
                                 __ptext4 27DC                                   __ptext5 2C36  
                                 __ptext6 2CC6                                   __ptext7 1F9E  
                                 __ptext8 2C5A                                   __ptext9 1C16  
                                 _inPipes 0058               _USBDeferOUTDataStagePackets 007F  
                            ??_USBSuspend 0016                              _LastRS232Out 0049  
                         i2_USBDeviceInit 1684                          i2USBDeviceInit@i 0009  
                      __end_of_USB_CD_Ptr 0F09                __size_of_SYSTEM_Initialize 007C  
         __size_of_USBCtrlTrfSetupHandler 0084                      end_of_initialization 2C06  
                            _getsUSBUSART 1C16                        __end_of_USB_SD_Ptr 0F07  
                     _pBDTEntryEP0OutNext 0046                                   memset@c 00E1  
                                 memset@n 00E3                                   memset@p 002E  
         _dummy_encapsulated_cmd_response 00CE                  ?_USBStdFeatureReqHandler 0001  
                   ??_USBStdSetCfgHandler 0016                           ___lldiv@divisor 0005  
                              ?_CDCInitEP 0001                           ___lldiv@counter 000D  
                      __end_of_USBSuspend 2BE2                         USART_Initialize@c 0001  
                 _USBCtrlEPAllowDataStage 2514                                 _RCSTAbits 000FAC  
                                 postdec2 000FDD                                   postinc0 000FEE  
                                 postinc2 000FDE                  _USBCtrlEPServiceComplete 1A32  
              _USBStatusStageEnabledFlag1 0051                _USBStatusStageEnabledFlag2 0052  
                      USBEnableEndpoint@p 000A                                 _PORTBbits 000F81  
                        __CFG_DSBOREN$OFF 000000                          __CFG_CPUDIV$OSC1 000000  
                               _TRISAbits 000F92                                 _TRISBbits 000F93  
                               _TRISCbits 000F94                                 _TRISEbits 000F96  
                      _BothEP0OutUOWNsSet 0048   SYSTEM_Initialize@pll_startup_counter_79 00E1  
               USBConfigureEndpoint@EPNum 0006                ?_USBCtrlEPAllowStatusStage 0001  
     USER_USB_CALLBACK_EVENT_HANDLER@size 0012                                 _USTATcopy 005F  
            __end_of_USBTransferOnePacket 214C                            __end_of_LED_On 2CA2  
                               _TXSTAbits 000FAD                          __CFG_IOL1WAY$OFF 000000  
                       putUSBUSART@length 0030                         __CFG_WPEND$PAGE_0 000000  
                     __CFG_MSSP7B_EN$MSK7 000000                    _USBCtrlTrfSetupHandler 26D4  
                 ?i2_USBTransferOnePacket 0001                     __end_of_USBDeviceInit 1684  
                              LED_Off@led 0001                   __end_ofi2_USBDeviceInit 17C2  
                               i2memset@c 0003                                 i2memset@n 0005  
                               i2memset@p 0007                            __end_of_memset 2B54  
                        __CFG_DSWDTEN$OFF 000000                         _USBBusIsSuspended 007E  
                     start_initialization 2BE2                   ?_USBStdGetStatusHandler 0001  
                   __end_of_BUTTON_Enable 2CE4             USBCtrlTrfRxService@byteToRead 0013  
                             _cdc_data_rx 0084                               _cdc_data_tx 0180  
                       __size_ofi2_memset 002E              __end_of_USBConfigureEndpoint 2648  
         __end_of_USBStdFeatureReqHandler 125E                                  ??_LED_On 0001  
       __end_of_USBCtrlEPAllowStatusStage 22E0                  __end_of_USBCtrlEPService 221C  
               __size_of_USART_Initialize 0016      __end_of_USART_mySetLineCodingHandler 2A5E  
   __size_of_USART_mySetLineCodingHandler 005A              _USART_mySetLineCodingHandler 2A04  
               ??_USBCtrlEPAllowDataStage 0002                               ??_CDCInitEP 000D  
                          USBDeviceInit@i 0030                  __size_of_USART_getcUSART 001A  
                  _pBDTEntryEP0OutCurrent 0044                   USBTransferOnePacket@dir 002E  
                 USBTransferOnePacket@len 0031            __end_ofi2_USBTransferOnePacket 23A0  
                     _USBStdGetDscHandler 18FC                                  ??_memset 002E  
                  _USBActiveConfiguration 005E            __end_of_USBStdGetStatusHandler 2514  
                                ?_LED_Off 0001                               __pbssCOMRAM 0033  
                           __pcstackBANK0 00DF              __size_of_USBCtrlTrfInHandler 00E8  
            ??_APP_DeviceCDCEmulatorTasks 0033                      ?_USBStdGetDscHandler 0001  
              __end_of_USBWakeFromSuspend 2B88                           _USBStallHandler 2A5E  
                        _lastTransmission 007A                              _pBDTEntryOut 0060  
              __end_of_USBCheckCDCRequest 245E                  __size_of_USBDeviceAttach 003A  
                __size_of_USART_putcUSART 0008                                 __pintcode 0008  
                                ?___lldiv 0001       __size_of_APP_DeviceCDCEmulatorTasks 00DC  
                        ?i2_USBDeviceInit 0001                      _USBTransferOnePacket 207A  
                             __smallconst 0F00                      __CFG_RTCOSC$T1OSCREF 000000  
            __end_of_USBCtrlTrfOutHandler 2A04                     ??_USBStdGetDscHandler 0001  
                             _ep_data_out 006D              __size_of_USBCtrlTrfRxService 013A  
           USBConfigureEndpoint@direction 0001              __size_of_USBCtrlTrfTxService 00E2  
                                _LATBbits 000F8A                                  _LATEbits 000F8D  
              ??_USBCtrlEPServiceComplete 0002                                  _IPR2bits 000FA2  
                                _PIE2bits 000FA0                                  i2u205_40 2794  
                                i2u217_40 1E5E                                  i2u217_47 1E54  
                                i2u219_40 1EA4                                  i2u219_47 1E9A  
                                i2u236_40 1978                                  i2u236_47 196E  
                                i2u237_40 19A8                                  i2u237_47 199E  
                                i2u239_40 1A00                                  i2u239_47 19F6  
                                _PIR1bits 000F9E                                  i2u290_48 1BF6  
                                _PIR2bits 000FA1                                  i2u275_48 18D8  
               USBCtrlEPService@setup_cnt 001E                                  _RCONbits 000FD0  
                           ??_putUSBUSART 0031                          __CFG_WDTPS$32768 000000  
                                _UEP0bits 000F26                _USBDeferINDataStagePackets 004E  
             __size_of_USBCheckStdRequest 00E2                                  _UCONbits 000F65  
        APP_DeviceCDCEmulatorInitialize@i 000D                      _USBConfigureEndpoint 25B2  
                       ??_USART_getcUSART 002E          __size_of_USBStdFeatureReqHandler 0292  
                              _ADCON0bits 000FC2                     ?_USBTransferOnePacket 002E  
                       _SYS_InterruptHigh 0008                             ?_CDCTxService 0001  
                        __CFG_WPFP$PAGE_1 000000                              _RemoteWakeup 004D  
                                i2_memset 2B88                          __size_of_LED_Off 0024  
                      ?_SYS_InterruptHigh 0001                        _RS232_Out_Data_Rdy 004B  
                 __end_of_USBStallHandler 2AA6               ??_USBCtrlEPAllowStatusStage 0001  
             __end_of_USBStdSetCfgHandler 1F9E                       ??_SYS_InterruptHigh 0020  
                        _USART_Initialize 2CFE                        __end_of_device_dsc 0FC6  
                ??_APP_LEDUpdateUSBStatus 0002                   ?_USBCtrlTrfSetupHandler 0001  
                              _ANCON0bits 000F48                                _ANCON1bits 000F49  
                 USBStdGetStatusHandler@p 0002                                  __Hrparam 0000  
                                __Lrparam 0000                    USBTransferOnePacket@ep 00DF  
                                _SetupPkt 000D30                     ?_USBConfigureEndpoint 0001  
                       ??_USBDeviceAttach 002E                          __size_of___lldiv 008C  
               __end_of_SYS_InterruptHigh 007E                         ??_USART_putcUSART 002E  
                     __end_of_putUSBUSART 2C7E                               _line_coding 00D6  
                          ??_CDCTxService 0032        __end_of_APP_DeviceCDCEmulatorTasks 207A  
              _APP_DeviceCDCEmulatorTasks 1F9E                   __size_of_USBDeviceTasks 0164  
                                __ptext10 2D14                                  __ptext11 2CE4  
                                __ptext20 214C                                  __ptext12 125E  
                                __ptext21 26D4                                  __ptext13 207A  
                                __ptext30 2858                                  __ptext22 1A32  
                                __ptext31 23A0                                  __ptext23 2514  
                                __ptext15 13DA                                  __ptext40 29A6  
                                __ptext32 2758                                  __ptext24 1CFC  
                                __ptext16 1684                                  __ptext41 17C2  
                                __ptext33 2C7E                                  __ptext25 1EC0  
                                __ptext17 2B54                                  __ptext42 221C  
                                __ptext34 2CA2                                  __ptext26 2B88  
                                __ptext18 2BB6                                  __ptext43 1B2E  
                                __ptext35 2940                                  __ptext27 245E  
                                __ptext19 2A5E                                  __ptext44 1DDE  
                                __ptext36 28CE                                  __ptext28 18FC  
                                __ptext45 2A04                                  __ptext37 22E0  
                                __ptext29 0FCC                                  __ptext46 2648  
                                __ptext38 2AA6                                  __ptext47 2CFE  
                                __ptext39 25B2                                  __ptext48 0000  
          __end_of_USBCtrlTrfSetupHandler 2758                             __size_of_main 002A  
                       ?_USBCtrlEPService 0001                        ??_USBCtrlEPService 001C  
                     _USBCtrlTrfInHandler 1B2E                       BUTTON_Enable@button 002E  
                                _outPipes 0033                      _USBCtrlTrfOutHandler 29A6  
               _USBCtrlEPAllowStatusStage 221C                                _LED_Enable 2C36  
                  ??_USBTransferOnePacket 0032                 _USBDeferStatusStagePacket 004F  
                CDCTxService@byte_to_send 00E5                               _OSCTUNEbits 000F9B  
                              _INTCONbits 000FF2                      ?_USBCtrlTrfInHandler 0001  
           USBCtrlTrfTxService@byteToSend 0001                                  memset@p1 00DF  
                        ?_USBStallHandler 0001                  USBStdFeatureReqHandler@p 001A  
                                intlevel2 0000                    __size_of_USBDeviceInit 0146  
 __end_of_USER_USB_CALLBACK_EVENT_HANDLER 28CE  __size_of_USER_USB_CALLBACK_EVENT_HANDLER 0076  
       ??_USER_USB_CALLBACK_EVENT_HANDLER 0014          ?_USER_USB_CALLBACK_EVENT_HANDLER 000E  
         _USER_USB_CALLBACK_EVENT_HANDLER 2858              i2USBTransferOnePacket@handle 0006  
                        ___lldiv@dividend 0001      SYSTEM_Initialize@pll_startup_counter 00DF  
         __size_of_APP_LEDUpdateUSBStatus 0084                i2USBTransferOnePacket@data 0002  
                  ??_USBConfigureEndpoint 0002                     ?_USBCtrlTrfOutHandler 0001  
                  __size_of_BUTTON_Enable 001E                               _putUSBUSART 2C5A  
                     _USBCtrlTrfRxService 17C2                        _USBWakeFromSuspend 2B54  
                 _USBStdFeatureReqHandler 0FCC                        _USBCheckCDCRequest 23A0  
                     _USBCtrlTrfTxService 1DDE                __size_of_SYS_InterruptHigh 0076  
                     ?_USBWakeFromSuspend 0001                          ___lldiv@quotient 0009  
                   ??_USBCtrlTrfInHandler 0012                     _USBAlternateInterface 00DD  
                     ?_USBCheckCDCRequest 0001                 i2USBTransferOnePacket@dir 0001  
               i2USBTransferOnePacket@len 0004                       USBEnableEndpoint@ep 000C  
                         _endpoint_number 0056                      ?_USBCtrlTrfRxService 0001  
                           ?_getsUSBUSART 00E2                  ?_USBCtrlEPAllowDataStage 0001  
                    ?_USBCtrlTrfTxService 0001              _USBStatusStageTimeoutCounter 0053  
                    ??_USBWakeFromSuspend 0016                USBTransferOnePacket@handle 00E0  
                         _USART_getcUSART 2CE4                      __end_of_CDCTxService 13DA  
                    ??_USBCheckCDCRequest 0001                                _USB_CD_Ptr 0F07  
