

Microchip Technology PIC18 LITE Macro Assembler V1.33 build 59893 
                                                                                               Wed Apr 29 17:38:23 2015

Microchip Technology Omniscient Code Generator (Lite mode) build 59893
     1                           	processor	18F27J53
     2                           	fnconf	rparam,??,?,0
     3                           	opt	pw 120
     4                           	opt	lm
     5                           	psect	idataCOMRAM,global,class=CODE,delta=1
     6                           	psect	smallconst,global,reloc=2,class=SMALLCONST,delta=1
     7                           	psect	cinit,global,reloc=2,class=CODE,delta=1
     8                           	psect	bssCOMRAM,global,class=COMRAM,space=1,delta=1
     9                           	psect	dataCOMRAM,global,class=COMRAM,space=1,delta=1
    10                           	psect	cstackBANK1,global,class=BANK1,space=1,delta=1
    11                           	psect	cstackBANK0,global,class=BANK0,space=1,delta=1
    12                           	psect	cstackCOMRAM,global,class=COMRAM,space=1,delta=1
    13                           	psect	text0,global,reloc=2,class=CODE,delta=1
    14                           	psect	text1,global,reloc=2,class=CODE,delta=1
    15                           	psect	text2,global,reloc=2,class=CODE,delta=1
    16                           	psect	text3,global,reloc=2,class=CODE,delta=1
    17                           	psect	text4,global,reloc=2,class=CODE,delta=1
    18                           	psect	text5,global,reloc=2,class=CODE,delta=1
    19                           	psect	text6,global,reloc=2,class=CODE,delta=1
    20                           	psect	text7,global,reloc=2,class=CODE,delta=1
    21                           	psect	text8,global,reloc=2,class=CODE,delta=1
    22                           	psect	text9,global,reloc=2,class=CODE,delta=1
    23                           	psect	text10,global,reloc=2,class=CODE,delta=1
    24                           	psect	text11,global,reloc=2,class=CODE,delta=1
    25                           	psect	text12,global,reloc=2,class=CODE,delta=1
    26                           	psect	text13,global,reloc=2,class=CODE,delta=1
    27                           	psect	text14,global,reloc=2,class=CODE,delta=1
    28                           	psect	text15,global,reloc=2,class=CODE,delta=1
    29                           	psect	text16,global,reloc=2,class=CODE,delta=1
    30                           	psect	text17,global,reloc=2,class=CODE,delta=1
    31                           	psect	text18,global,reloc=2,class=CODE,delta=1
    32                           	psect	text19,global,reloc=2,class=CODE,delta=1
    33                           	psect	text20,global,reloc=2,class=CODE,delta=1
    34                           	psect	text21,global,reloc=2,class=CODE,delta=1
    35                           	psect	text22,global,reloc=2,class=CODE,delta=1
    36                           	psect	text23,global,reloc=2,class=CODE,delta=1
    37                           	psect	text24,global,reloc=2,class=CODE,delta=1
    38                           	psect	text25,global,reloc=2,class=CODE,delta=1
    39                           	psect	intcode,global,reloc=2,class=CODE,delta=1
    40                           	psect	text27,global,reloc=2,class=CODE,delta=1
    41                           	psect	text28,global,reloc=2,class=CODE,delta=1
    42                           	psect	text29,global,reloc=2,class=CODE,delta=1
    43                           	psect	text30,global,reloc=2,class=CODE,delta=1
    44                           	psect	text31,global,reloc=2,class=CODE,delta=1
    45                           	psect	intsave_regs,global,class=BIGRAM,space=1,delta=1
    46                           	psect	rparam,global,class=COMRAM,space=1,delta=1
    47  0000                     
    48                           	psect	idataCOMRAM
    49  001850                     __pidataCOMRAM:
    50                           	opt stack 0
    51                           
    52                           ;initializer for I2C_LCD_SetCursor@F9822
    53  001850  00                 	db	0
    54  001851  40                 	db	64
    55  0000                     _ADCON0bits	set	4034
    56  0000                     _ADCON1bits	set	4033
    57  0000                     _ADRESH	set	4036
    58  0000                     _ADRESL	set	4035
    59  0000                     _ANCON0	set	3912
    60  0000                     _ANCON1	set	3913
    61  0000                     _BAUDCON1bits	set	3966
    62  0000                     _INTCON2bits	set	4081
    63  0000                     _INTCONbits	set	4082
    64  0000                     _IPR1bits	set	3999
    65  0000                     _IPR2bits	set	4002
    66  0000                     _OSCCONbits	set	4051
    67  0000                     _OSCTUNEbits	set	3995
    68  0000                     _PIE1bits	set	3997
    69  0000                     _PIE2bits	set	4000
    70  0000                     _PIR1bits	set	3998
    71  0000                     _PIR2bits	set	4001
    72  0000                     _RCREG1	set	4015
    73  0000                     _RCSTA1bits	set	4012
    74  0000                     _SPBRG1	set	4016
    75  0000                     _SPBRGH1	set	3967
    76  0000                     _SSP1ADD	set	4040
    77  0000                     _SSP1BUF	set	4041
    78  0000                     _SSP1CON1	set	4038
    79  0000                     _SSP1CON2	set	4037
    80  0000                     _SSP1CON2bits	set	4037
    81  0000                     _SSP1STAT	set	4039
    82  0000                     _T0CONbits	set	4053
    83  0000                     _T1CONbits	set	4045
    84  0000                     _T3CONbits	set	3961
    85  0000                     _TMR1H	set	4047
    86  0000                     _TRISA	set	3986
    87  0000                     _TRISB	set	3987
    88  0000                     _TRISC	set	3988
    89  0000                     _TXREG1	set	4014
    90  0000                     _TXSTA1bits	set	4013
    91  0000                     _UCFGbits	set	3897
    92  0000                     _BCL1IF	set	32011
    93  0000                     _SSP1IF	set	31987
    94                           
    95                           	psect	smallconst
    96  000F00                     __psmallconst:
    97                           	opt stack 0
    98  000F00  00                 	db	0
    99  000F01                     __stringdata:
   100                           	opt stack 0
   101  000F01                     STR_1:
   102  000F01  31                 	db	49	;'1'
   103  000F02  38                 	db	56	;'8'
   104  000F03  46                 	db	70	;'F'
   105  000F04  32                 	db	50	;'2'
   106  000F05  37                 	db	55	;'7'
   107  000F06  4A                 	db	74	;'J'
   108  000F07  35                 	db	53	;'5'
   109  000F08  33                 	db	51	;'3'
   110  000F09  00                 	db	0
   111  000F0A                     STR_2:
   112  000F0A  41                 	db	65	;'A'
   113  000F0B  44                 	db	68	;'D'
   114  000F0C  43                 	db	67	;'C'
   115  000F0D  00                 	db	0
   116  000F0E                     __end_of__stringdata:
   117                           	opt stack 0
   118                           
   119                           ; #config settings
   120  000F0E  00                 	db	0	; dummy byte at the end
   121  0000                     
   122                           	psect	cinit
   123  001660                     __pcinit:
   124                           	opt stack 0
   125  001660                     start_initialization:
   126                           	opt stack 0
   127  001660                     __initialization:
   128                           	opt stack 0
   129                           
   130                           ; Clear objects allocated to COMRAM (11 bytes)
   131  001660  EE00  F02C         	lfsr	0,__pbssCOMRAM
   132  001664  0E0B               	movlw	11
   133  001666                     clear_0:
   134  001666  6AEE               	clrf	postinc0,c
   135  001668  06E8               	decf	wreg,f,c
   136  00166A  E1FD               	bnz	clear_0
   137                           
   138                           ; Initialize objects allocated to COMRAM (2 bytes)
   139                           ; load TBLPTR registers with __pidataCOMRAM
   140  00166C  0E50               	movlw	low __pidataCOMRAM
   141  00166E  6EF6               	movwf	tblptrl,c
   142  001670  0E18               	movlw	high __pidataCOMRAM
   143  001672  6EF7               	movwf	tblptrh,c
   144  001674  0E00               	movlw	low (__pidataCOMRAM shr (0+16))
   145  001676  6EF8               	movwf	tblptru,c
   146  001678  0009               	tblrd		*+	;fetch initializer
   147  00167A  CFF5 F037          	movff	tablat,__pdataCOMRAM
   148  00167E  0009               	tblrd		*+	;fetch initializer
   149  001680  CFF5 F038          	movff	tablat,__pdataCOMRAM+1
   150  001684                     end_of_initialization:
   151                           	opt stack 0
   152  001684                     __end_of__initialization:
   153                           	opt stack 0
   154  001684  0E00               	movlw	low (__Lmediumconst shr (0+16))
   155  001686  6EF8               	movwf	tblptru,c
   156  001688  0100               	movlb	0
   157  00168A  EF88  F007         	goto	_main	;jump to C main() function
   158                           tblptru	equ	0xFF8
   159                           tblptrh	equ	0xFF7
   160                           tblptrl	equ	0xFF6
   161                           tablat	equ	0xFF5
   162                           postinc0	equ	0xFEE
   163                           wreg	equ	0xFE8
   164                           
   165                           	psect	bssCOMRAM
   166  00002C                     __pbssCOMRAM:
   167                           	opt stack 0
   168  00002C                     _d1:
   169                           	opt stack 0
   170  00002C                     	ds	3
   171  00002F                     _sw:
   172                           	opt stack 0
   173  00002F                     	ds	3
   174  000032                     _tx_buf:
   175                           	opt stack 0
   176  000032                     	ds	5
   177                           tblptru	equ	0xFF8
   178                           tblptrh	equ	0xFF7
   179                           tblptrl	equ	0xFF6
   180                           tablat	equ	0xFF5
   181                           postinc0	equ	0xFEE
   182                           wreg	equ	0xFE8
   183                           
   184                           	psect	dataCOMRAM
   185  000037                     __pdataCOMRAM:
   186                           	opt stack 0
   187  000037                     I2C_LCD_SetCursor@F9822:
   188                           	opt stack 0
   189  000037                     	ds	2
   190                           tblptru	equ	0xFF8
   191                           tblptrh	equ	0xFF7
   192                           tblptrl	equ	0xFF6
   193                           tablat	equ	0xFF5
   194                           postinc0	equ	0xFEE
   195                           wreg	equ	0xFE8
   196                           
   197                           	psect	cstackBANK1
   198  000100                     __pcstackBANK1:
   199                           	opt stack 0
   200  000100                     main@txbuf:
   201                           	opt stack 0
   202                           
   203                           ; 200 bytes @ 0x0
   204  000100                     	ds	200
   205                           tblptru	equ	0xFF8
   206                           tblptrh	equ	0xFF7
   207                           tblptrl	equ	0xFF6
   208                           tablat	equ	0xFF5
   209                           postinc0	equ	0xFEE
   210                           wreg	equ	0xFE8
   211                           
   212                           	psect	cstackBANK0
   213  000060                     __pcstackBANK0:
   214                           	opt stack 0
   215  000060                     main@data:
   216                           	opt stack 0
   217                           
   218                           ; 100 bytes @ 0x0
   219  000060                     	ds	100
   220                           tblptru	equ	0xFF8
   221                           tblptrh	equ	0xFF7
   222                           tblptrl	equ	0xFF6
   223                           tablat	equ	0xFF5
   224                           postinc0	equ	0xFEE
   225                           wreg	equ	0xFE8
   226                           
   227                           	psect	cstackCOMRAM
   228  000001                     __pcstackCOMRAM:
   229                           	opt stack 0
   230  000001                     i2ringbuf_num@rb:
   231                           	opt stack 0
   232                           
   233                           ; 2 bytes @ 0x0
   234  000001                     	ds	2
   235  000003                     ??i2_ringbuf_num:
   236                           
   237                           ; 0 bytes @ 0x2
   238  000003                     	ds	2
   239  000005                     ringbuf_pop@rb:
   240                           	opt stack 0
   241  000005                     i2ringbuf_push@rb:
   242                           	opt stack 0
   243                           
   244                           ; 2 bytes @ 0x4
   245  000005                     	ds	2
   246  000007                     ??_ringbuf_pop:
   247  000007                     i2ringbuf_push@asciicode:
   248                           	opt stack 0
   249                           
   250                           ; 1 bytes @ 0x6
   251  000007                     	ds	1
   252  000008                     ??i2_ringbuf_push:
   253                           
   254                           ; 0 bytes @ 0x7
   255  000008                     	ds	2
   256  00000A                     ringbuf_pop@ret:
   257                           	opt stack 0
   258                           
   259                           ; 1 bytes @ 0x9
   260  00000A                     	ds	1
   261  00000B                     
   262                           ; 0 bytes @ 0xA
   263  00000B                     	ds	2
   264  00000D                     i2tx_send@asciicode:
   265                           	opt stack 0
   266                           
   267                           ; 1 bytes @ 0xC
   268  00000D                     	ds	1
   269  00000E                     ??_ISR:
   270                           
   271                           ; 0 bytes @ 0xD
   272  00000E                     	ds	14
   273  00001C                     ISR@ascii:
   274                           	opt stack 0
   275                           
   276                           ; 1 bytes @ 0x1B
   277  00001C                     	ds	1
   278  00001D                     ??_timer0_init:
   279  00001D                     ??_timer3_init:
   280  00001D                     ??_I2C_IdleCheck:
   281  00001D                     ?_ADC:
   282                           	opt stack 0
   283  00001D                     ?___lwdiv:
   284                           	opt stack 0
   285  00001D                     ?___lwmod:
   286                           	opt stack 0
   287  00001D                     timer1_init@clock_select:
   288                           	opt stack 0
   289  00001D                     UART_init@interrupt_ON:
   290                           	opt stack 0
   291  00001D                     ADC_init@p_ref:
   292                           	opt stack 0
   293  00001D                     Delay_ms@ms:
   294                           	opt stack 0
   295  00001D                     ringbuf_init@rb:
   296                           	opt stack 0
   297  00001D                     ringbuf_num@rb:
   298                           	opt stack 0
   299  00001D                     ___lwdiv@dividend:
   300                           	opt stack 0
   301  00001D                     ___lwmod@dividend:
   302                           	opt stack 0
   303                           
   304                           ; 2 bytes @ 0x1C
   305  00001D                     	ds	1
   306  00001E                     ??_timer1_init:
   307  00001E                     timer0_init@prescaler:
   308                           	opt stack 0
   309  00001E                     timer3_init@prescaler:
   310                           	opt stack 0
   311  00001E                     I2C_IdleCheck@mask:
   312                           	opt stack 0
   313                           
   314                           ; 1 bytes @ 0x1D
   315  00001E                     	ds	1
   316  00001F                     ??_Delay_ms:
   317  00001F                     ??_ringbuf_num:
   318  00001F                     ??_ADC:
   319  00001F                     timer1_init@prescaler:
   320                           	opt stack 0
   321  00001F                     I2C_Start@rw:
   322                           	opt stack 0
   323  00001F                     I2C_Send@data:
   324                           	opt stack 0
   325  00001F                     ringbuf_init@internal_buf:
   326                           	opt stack 0
   327  00001F                     ___lwdiv@divisor:
   328                           	opt stack 0
   329  00001F                     ___lwmod@divisor:
   330                           	opt stack 0
   331                           
   332                           ; 2 bytes @ 0x1E
   333  00001F                     	ds	1
   334  000020                     I2C_Start@adrs:
   335                           	opt stack 0
   336                           
   337                           ; 1 bytes @ 0x1F
   338  000020                     	ds	1
   339  000021                     ringbuf_init@bufsize:
   340                           	opt stack 0
   341  000021                     I2C_LCD_Command@c:
   342                           	opt stack 0
   343  000021                     ADC@ch:
   344                           	opt stack 0
   345  000021                     ___lwmod@counter:
   346                           	opt stack 0
   347  000021                     ringbuf_push@rb:
   348                           	opt stack 0
   349  000021                     I2C_LCD_Puts@s:
   350                           	opt stack 0
   351  000021                     ___lwdiv@quotient:
   352                           	opt stack 0
   353                           
   354                           ; 2 bytes @ 0x20
   355  000021                     	ds	1
   356  000022                     I2C_LCD_Command@ans:
   357                           	opt stack 0
   358                           
   359                           ; 1 bytes @ 0x21
   360  000022                     	ds	1
   361  000023                     ??_I2C_LCD_Clear:
   362  000023                     ??_I2C_LCD_Puts:
   363  000023                     ringbuf_push@asciicode:
   364                           	opt stack 0
   365  000023                     I2C_LCD_SetCursor@row:
   366                           	opt stack 0
   367  000023                     ___lwdiv@counter:
   368                           	opt stack 0
   369                           
   370                           ; 1 bytes @ 0x22
   371  000023                     	ds	1
   372  000024                     ??_ringbuf_push:
   373  000024                     utoa@str:
   374                           	opt stack 0
   375  000024                     I2C_LCD_SetCursor@row_offsets:
   376                           	opt stack 0
   377  000024                     I2C_LCD_Puts@ans:
   378                           	opt stack 0
   379                           
   380                           ; 2 bytes @ 0x23
   381  000024                     	ds	2
   382  000026                     I2C_LCD_SetCursor@col:
   383                           	opt stack 0
   384  000026                     utoa@value:
   385                           	opt stack 0
   386                           
   387                           ; 2 bytes @ 0x25
   388  000026                     	ds	2
   389  000028                     utoa@digits:
   390                           	opt stack 0
   391                           
   392                           ; 1 bytes @ 0x27
   393  000028                     	ds	1
   394  000029                     utoa@d:
   395                           	opt stack 0
   396  000029                     tx_send@asciicode:
   397                           	opt stack 0
   398  000029                     tx_sends@asciicode:
   399                           	opt stack 0
   400                           
   401                           ; 2 bytes @ 0x28
   402  000029                     	ds	1
   403  00002A                     utoa@v:
   404                           	opt stack 0
   405                           
   406                           ; 2 bytes @ 0x29
   407  00002A                     	ds	1
   408  00002B                     
   409                           ; 0 bytes @ 0x2A
   410  00002B                     	ds	1
   411  00002C                     tblptru	equ	0xFF8
   412                           tblptrh	equ	0xFF7
   413                           tblptrl	equ	0xFF6
   414                           tablat	equ	0xFF5
   415                           postinc0	equ	0xFEE
   416                           wreg	equ	0xFE8
   417                           
   418                           ; 0 bytes @ 0x2B
   419 ;;
   420 ;;Main: autosize = 0, tempsize = 0, incstack = 0, save=0
   421 ;;
   422 ;; *************** function _main *****************
   423 ;; Defined at:
   424 ;;		line 79 in file "PIC18F27J53-ADC02.c"
   425 ;; Parameters:    Size  Location     Type
   426 ;;		None
   427 ;; Auto vars:     Size  Location     Type
   428 ;;  data          100    0[BANK0 ] unsigned char [100]
   429 ;;  txbuf         200    0[BANK1 ] unsigned char [200]
   430 ;; Return value:  Size  Location     Type
   431 ;;                  2  329[COMRAM] int 
   432 ;; Registers used:
   433 ;;		wreg, fsr2l, fsr2h, status,2, status,0, tblptrl, tblptrh, tblptru, prodl, prodh, cstack
   434 ;; Tracked objects:
   435 ;;		On entry : 0/0
   436 ;;		On exit  : 0/0
   437 ;;		Unchanged: 0/0
   438 ;; Data sizes:     COMRAM   BANK0   BANK1   BANK2   BANK3   BANK4   BANK5   BANK6   BANK7   BANK8   BANK9  BANK10  BANK1
      +1  BANK12  BANK13  BANK14
   439 ;;      Params:         0       0       0       0       0       0       0       0       0       0       0       0       
      +0       0       0       0
   440 ;;      Locals:         0     100     200       0       0       0       0       0       0       0       0       0       
      +0       0       0       0
   441 ;;      Temps:          0       0       0       0       0       0       0       0       0       0       0       0       
      +0       0       0       0
   442 ;;      Totals:         0     100     200       0       0       0       0       0       0       0       0       0       
      +0       0       0       0
   443 ;;Total ram usage:      300 bytes
   444 ;; Hardware stack levels required when called:    9
   445 ;; This function calls:
   446 ;;		_ADC
   447 ;;		_ADC_init
   448 ;;		_Delay_ms
   449 ;;		_I2C_LCD_Clear
   450 ;;		_I2C_LCD_Puts
   451 ;;		_I2C_LCD_SetCursor
   452 ;;		_I2C_LCD_init
   453 ;;		_I2C_init
   454 ;;		_UART_init
   455 ;;		_ringbuf_init
   456 ;;		_timer0_init
   457 ;;		_timer1_init
   458 ;;		_timer3_init
   459 ;;		_tx_send
   460 ;;		_tx_sends
   461 ;;		_utoa
   462 ;; This function is called by:
   463 ;;		Startup code after reset
   464 ;; This function uses a non-reentrant model
   465 ;;
   466                           
   467                           	psect	text0
   468  000F10                     __ptext0:
   469                           	opt stack 0
   470  000F10                     _main:
   471                           	opt stack 22
   472                           
   473                           ;PIC18F27J53-ADC02.c: 80: OSCCONbits.IRCF = 7;
   474                           
   475                           ;incstack = 0
   476  000F10  88D3               	bsf	4051,4,c	;volatile
   477  000F12  8AD3               	bsf	4051,5,c	;volatile
   478  000F14  8CD3               	bsf	4051,6,c	;volatile
   479                           
   480                           ;PIC18F27J53-ADC02.c: 81: OSCTUNEbits.PLLEN = 1;
   481  000F16  8C9B               	bsf	3995,6,c	;volatile
   482                           
   483                           ;PIC18F27J53-ADC02.c: 82: OSCCONbits.SCS = 0;
   484  000F18  0EFC               	movlw	-4
   485  000F1A  16D3               	andwf	4051,f,c	;volatile
   486                           
   487                           ;PIC18F27J53-ADC02.c: 83: TRISA = 0b01000011;
   488  000F1C  0E43               	movlw	67
   489  000F1E  6E92               	movwf	3986,c	;volatile
   490                           
   491                           ;PIC18F27J53-ADC02.c: 84: TRISB = 0b00110000;
   492  000F20  0E30               	movlw	48
   493  000F22  6E93               	movwf	3987,c	;volatile
   494                           
   495                           ;PIC18F27J53-ADC02.c: 85: TRISC = 0b10000010;
   496  000F24  0E82               	movlw	130
   497  000F26  6E94               	movwf	3988,c	;volatile
   498                           
   499                           ;PIC18F27J53-ADC02.c: 86: ANCON0 = 0b11111100;
   500  000F28  0EFC               	movlw	252
   501  000F2A  010F               	movlb	15	; () banked
   502  000F2C  6F48               	movwf	72,b	;volatile
   503                           
   504                           ;PIC18F27J53-ADC02.c: 87: ANCON1 = 0b00011111;
   505  000F2E  0E1F               	movlw	31
   506  000F30  010F               	movlb	15	; () banked
   507  000F32  6F49               	movwf	73,b	;volatile
   508                           
   509                           ; BSR set to: 15
   510                           ;PIC18F27J53-ADC02.c: 88: INTCON2bits.nRBPU = 0;
   511  000F34  9EF1               	bcf	intcon2,7,c	;volatile
   512                           
   513                           ; BSR set to: 15
   514                           ;PIC18F27J53-ADC02.c: 89: UCFGbits.UOEMON = 0;
   515  000F36  010F               	movlb	15	; () banked
   516  000F38  9D39               	bcf	57,6,b	;volatile
   517                           
   518                           ; BSR set to: 15
   519                           ;PIC18F27J53-ADC02.c: 91: timer0_init(8);
   520  000F3A  0E08               	movlw	8
   521  000F3C  EC47  F00B         	call	_timer0_init
   522                           
   523                           ;PIC18F27J53-ADC02.c: 92: timer1_init(0, 0);
   524  000F40  0E00               	movlw	0
   525  000F42  6E1D               	movwf	timer1_init@clock_select,c
   526  000F44  0E00               	movlw	0
   527  000F46  EC81  F00A         	call	_timer1_init
   528                           
   529                           ;PIC18F27J53-ADC02.c: 93: timer3_init(2);
   530  000F4A  0E02               	movlw	2
   531  000F4C  EC9C  F00B         	call	_timer3_init
   532                           
   533                           ;PIC18F27J53-ADC02.c: 94: I2C_init();
   534  000F50  EC1A  F00C         	call	_I2C_init	;wreg free
   535                           
   536                           ;PIC18F27J53-ADC02.c: 95: I2C_LCD_init();
   537  000F54  EC2E  F00A         	call	_I2C_LCD_init	;wreg free
   538                           
   539                           ;PIC18F27J53-ADC02.c: 96: ADC_init(0);
   540  000F58  0E00               	movlw	0
   541  000F5A  ECD4  F00B         	call	_ADC_init
   542                           
   543                           ;PIC18F27J53-ADC02.c: 98: UART_init(1);
   544  000F5E  0E01               	movlw	1
   545  000F60  EC88  F00B         	call	_UART_init
   546                           
   547                           ;PIC18F27J53-ADC02.c: 99: uint8_t txbuf[200];
   548                           ;PIC18F27J53-ADC02.c: 100: ringbuf_init(&tx_buf, txbuf, sizeof (txbuf));
   549  000F64  0E00               	movlw	high _tx_buf
   550  000F66  6E1E               	movwf	ringbuf_init@rb+1,c
   551  000F68  0E32               	movlw	low _tx_buf
   552  000F6A  6E1D               	movwf	ringbuf_init@rb,c
   553  000F6C  0101               	movlb	1	; () banked
   554  000F6E  0E01               	movlw	high main@txbuf
   555  000F70  6E20               	movwf	ringbuf_init@internal_buf+1,c
   556  000F72  0101               	movlb	1	; () banked
   557  000F74  0E00               	movlw	low main@txbuf
   558  000F76  6E1F               	movwf	ringbuf_init@internal_buf,c
   559  000F78  0EC8               	movlw	200
   560  000F7A  6E21               	movwf	ringbuf_init@bufsize,c
   561  000F7C  ECC4  F00A         	call	_ringbuf_init	;wreg free
   562                           
   563                           ;PIC18F27J53-ADC02.c: 102: INTCONbits.GIE = 1;
   564  000F80  8EF2               	bsf	intcon,7,c	;volatile
   565                           
   566                           ;PIC18F27J53-ADC02.c: 104: I2C_LCD_Clear();
   567  000F82  ECE2  F00B         	call	_I2C_LCD_Clear	;wreg free
   568                           
   569                           ;PIC18F27J53-ADC02.c: 105: I2C_LCD_SetCursor(0, 0);
   570  000F86  0E00               	movlw	0
   571  000F88  6E23               	movwf	I2C_LCD_SetCursor@row,c
   572  000F8A  0E00               	movlw	0
   573  000F8C  ECAF  F00B         	call	_I2C_LCD_SetCursor
   574                           
   575                           ;PIC18F27J53-ADC02.c: 106: I2C_LCD_Puts("18F27J53");
   576  000F90  0E0F               	movlw	high STR_1
   577  000F92  6E22               	movwf	I2C_LCD_Puts@s+1,c
   578  000F94  0E01               	movlw	low STR_1
   579  000F96  6E21               	movwf	I2C_LCD_Puts@s,c
   580  000F98  EC34  F009         	call	_I2C_LCD_Puts	;wreg free
   581                           
   582                           ;PIC18F27J53-ADC02.c: 107: I2C_LCD_SetCursor(0, 1);
   583  000F9C  0E01               	movlw	1
   584  000F9E  6E23               	movwf	I2C_LCD_SetCursor@row,c
   585  000FA0  0E00               	movlw	0
   586  000FA2  ECAF  F00B         	call	_I2C_LCD_SetCursor
   587                           
   588                           ;PIC18F27J53-ADC02.c: 108: I2C_LCD_Puts("ADC");
   589  000FA6  0E0F               	movlw	high STR_2
   590  000FA8  6E22               	movwf	I2C_LCD_Puts@s+1,c
   591  000FAA  0E0A               	movlw	low STR_2
   592  000FAC  6E21               	movwf	I2C_LCD_Puts@s,c
   593  000FAE  EC34  F009         	call	_I2C_LCD_Puts	;wreg free
   594  000FB2                     l1515:
   595                           
   596                           ;PIC18F27J53-ADC02.c: 111: I2C_LCD_Clear();
   597  000FB2  ECE2  F00B         	call	_I2C_LCD_Clear	;wreg free
   598                           
   599                           ;PIC18F27J53-ADC02.c: 112: char data[100];
   600                           ;PIC18F27J53-ADC02.c: 113: utoa(data, ADC(0), 4);
   601  000FB6  0100               	movlb	0	; () banked
   602  000FB8  0E00               	movlw	high main@data
   603  000FBA  6E25               	movwf	utoa@str+1,c
   604  000FBC  0100               	movlb	0	; () banked
   605  000FBE  0E60               	movlw	low main@data
   606  000FC0  6E24               	movwf	utoa@str,c
   607  000FC2  0E00               	movlw	0
   608  000FC4  ECE5  F00A         	call	_ADC
   609  000FC8  C01D  F026         	movff	?_ADC,utoa@value
   610  000FCC  C01E  F027         	movff	?_ADC+1,utoa@value+1
   611  000FD0  0E04               	movlw	4
   612  000FD2  6E28               	movwf	utoa@digits,c
   613  000FD4  ECF2  F009         	call	_utoa	;wreg free
   614                           
   615                           ;PIC18F27J53-ADC02.c: 114: tx_sends(data);
   616  000FD8  0100               	movlb	0	; () banked
   617  000FDA  0E00               	movlw	high main@data
   618  000FDC  6E2A               	movwf	tx_sends@asciicode+1,c
   619  000FDE  0100               	movlb	0	; () banked
   620  000FE0  0E60               	movlw	low main@data
   621  000FE2  6E29               	movwf	tx_sends@asciicode,c
   622  000FE4  EC00  F00B         	call	_tx_sends	;wreg free
   623                           
   624                           ;PIC18F27J53-ADC02.c: 115: I2C_LCD_SetCursor(0, 0);
   625  000FE8  0E00               	movlw	0
   626  000FEA  6E23               	movwf	I2C_LCD_SetCursor@row,c
   627  000FEC  0E00               	movlw	0
   628  000FEE  ECAF  F00B         	call	_I2C_LCD_SetCursor
   629                           
   630                           ;PIC18F27J53-ADC02.c: 116: I2C_LCD_Puts(data);
   631  000FF2  0100               	movlb	0	; () banked
   632  000FF4  0E00               	movlw	high main@data
   633  000FF6  6E22               	movwf	I2C_LCD_Puts@s+1,c
   634  000FF8  0100               	movlb	0	; () banked
   635  000FFA  0E60               	movlw	low main@data
   636  000FFC  6E21               	movwf	I2C_LCD_Puts@s,c
   637  000FFE  EC34  F009         	call	_I2C_LCD_Puts	;wreg free
   638                           
   639                           ;PIC18F27J53-ADC02.c: 117: tx_send(' ');
   640  001002  0E20               	movlw	32
   641  001004  ECEE  F00B         	call	_tx_send
   642                           
   643                           ;PIC18F27J53-ADC02.c: 118: utoa(data, ADC(1), 4);
   644  001008  0100               	movlb	0	; () banked
   645  00100A  0E00               	movlw	high main@data
   646  00100C  6E25               	movwf	utoa@str+1,c
   647  00100E  0100               	movlb	0	; () banked
   648  001010  0E60               	movlw	low main@data
   649  001012  6E24               	movwf	utoa@str,c
   650  001014  0E01               	movlw	1
   651  001016  ECE5  F00A         	call	_ADC
   652  00101A  C01D  F026         	movff	?_ADC,utoa@value
   653  00101E  C01E  F027         	movff	?_ADC+1,utoa@value+1
   654  001022  0E04               	movlw	4
   655  001024  6E28               	movwf	utoa@digits,c
   656  001026  ECF2  F009         	call	_utoa	;wreg free
   657                           
   658                           ;PIC18F27J53-ADC02.c: 119: tx_sends(data);
   659  00102A  0100               	movlb	0	; () banked
   660  00102C  0E00               	movlw	high main@data
   661  00102E  6E2A               	movwf	tx_sends@asciicode+1,c
   662  001030  0100               	movlb	0	; () banked
   663  001032  0E60               	movlw	low main@data
   664  001034  6E29               	movwf	tx_sends@asciicode,c
   665  001036  EC00  F00B         	call	_tx_sends	;wreg free
   666                           
   667                           ;PIC18F27J53-ADC02.c: 120: I2C_LCD_SetCursor(0, 1);
   668  00103A  0E01               	movlw	1
   669  00103C  6E23               	movwf	I2C_LCD_SetCursor@row,c
   670  00103E  0E00               	movlw	0
   671  001040  ECAF  F00B         	call	_I2C_LCD_SetCursor
   672                           
   673                           ;PIC18F27J53-ADC02.c: 121: I2C_LCD_Puts(data);
   674  001044  0100               	movlb	0	; () banked
   675  001046  0E00               	movlw	high main@data
   676  001048  6E22               	movwf	I2C_LCD_Puts@s+1,c
   677  00104A  0100               	movlb	0	; () banked
   678  00104C  0E60               	movlw	low main@data
   679  00104E  6E21               	movwf	I2C_LCD_Puts@s,c
   680  001050  EC34  F009         	call	_I2C_LCD_Puts	;wreg free
   681                           
   682                           ;PIC18F27J53-ADC02.c: 122: tx_send('\n');
   683  001054  0E0A               	movlw	10
   684  001056  ECEE  F00B         	call	_tx_send
   685                           
   686                           ;PIC18F27J53-ADC02.c: 123: Delay_ms(100);
   687  00105A  0E00               	movlw	0
   688  00105C  6E1E               	movwf	Delay_ms@ms+1,c
   689  00105E  0E64               	movlw	100
   690  001060  6E1D               	movwf	Delay_ms@ms,c
   691  001062  ECC2  F00B         	call	_Delay_ms	;wreg free
   692  001066  D7A5               	goto	l1515
   693  001068                     __end_of_main:
   694                           	opt stack 0
   695                           tblptru	equ	0xFF8
   696                           tblptrh	equ	0xFF7
   697                           tblptrl	equ	0xFF6
   698                           tablat	equ	0xFF5
   699                           intcon	equ	0xFF2
   700                           intcon2	equ	0xFF1
   701                           postinc0	equ	0xFEE
   702                           wreg	equ	0xFE8
   703                           
   704 ;; *************** function _utoa *****************
   705 ;; Defined at:
   706 ;;		line 127 in file "../My_header\My_hedaer_18F.h"
   707 ;; Parameters:    Size  Location     Type
   708 ;;  str             2   35[COMRAM] PTR unsigned char 
   709 ;;		 -> main@data(100), 
   710 ;;  value           2   37[COMRAM] unsigned int 
   711 ;;  digits          1   39[COMRAM] unsigned char 
   712 ;; Auto vars:     Size  Location     Type
   713 ;;  v               2   41[COMRAM] unsigned int 
   714 ;;  d               1   40[COMRAM] unsigned char 
   715 ;; Return value:  Size  Location     Type
   716 ;;		None               void
   717 ;; Registers used:
   718 ;;		wreg, fsr2l, fsr2h, status,2, status,0, cstack
   719 ;; Tracked objects:
   720 ;;		On entry : 0/0
   721 ;;		On exit  : 0/0
   722 ;;		Unchanged: 0/0
   723 ;; Data sizes:     COMRAM   BANK0   BANK1   BANK2   BANK3   BANK4   BANK5   BANK6   BANK7   BANK8   BANK9  BANK10  BANK1
      +1  BANK12  BANK13  BANK14
   724 ;;      Params:         5       0       0       0       0       0       0       0       0       0       0       0       
      +0       0       0       0
   725 ;;      Locals:         3       0       0       0       0       0       0       0       0       0       0       0       
      +0       0       0       0
   726 ;;      Temps:          0       0       0       0       0       0       0       0       0       0       0       0       
      +0       0       0       0
   727 ;;      Totals:         8       0       0       0       0       0       0       0       0       0       0       0       
      +0       0       0       0
   728 ;;Total ram usage:        8 bytes
   729 ;; Hardware stack levels used:    1
   730 ;; Hardware stack levels required when called:    5
   731 ;; This function calls:
   732 ;;		___lwdiv
   733 ;;		___lwmod
   734 ;; This function is called by:
   735 ;;		_main
   736 ;; This function uses a non-reentrant model
   737 ;;
   738                           
   739                           	psect	text1
   740  0013E4                     __ptext1:
   741                           	opt stack 0
   742  0013E4                     _utoa:
   743                           	opt stack 25
   744                           
   745                           ;My_header\My_hedaer_18F.h: 128: uint16_t v;
   746                           ;My_header\My_hedaer_18F.h: 129: uint8_t d;
   747                           ;My_header\My_hedaer_18F.h: 130: while (digits--) {
   748                           
   749                           ;incstack = 0
   750  0013E4  D030               	goto	l1141
   751  0013E6                     l113:
   752                           
   753                           ;My_header\My_hedaer_18F.h: 131: v = value;
   754  0013E6  C026  F02A         	movff	utoa@value,utoa@v
   755  0013EA  C027  F02B         	movff	utoa@value+1,utoa@v+1
   756                           
   757                           ;My_header\My_hedaer_18F.h: 132: d = digits;
   758  0013EE  C028  F029         	movff	utoa@digits,utoa@d
   759                           
   760                           ;My_header\My_hedaer_18F.h: 133: while (d--) {
   761  0013F2  D00E               	goto	l1133
   762  0013F4                     l1131:
   763                           
   764                           ;My_header\My_hedaer_18F.h: 134: v /= 10;
   765  0013F4  C02A  F01D         	movff	utoa@v,___lwdiv@dividend
   766  0013F8  C02B  F01E         	movff	utoa@v+1,___lwdiv@dividend+1
   767  0013FC  0E00               	movlw	0
   768  0013FE  6E20               	movwf	___lwdiv@divisor+1,c
   769  001400  0E0A               	movlw	10
   770  001402  6E1F               	movwf	___lwdiv@divisor,c
   771  001404  EC58  F00A         	call	___lwdiv	;wreg free
   772  001408  C01D  F02A         	movff	?___lwdiv,utoa@v
   773  00140C  C01E  F02B         	movff	?___lwdiv+1,utoa@v+1
   774  001410                     l1133:
   775  001410  0629               	decf	utoa@d,f,c
   776  001412  2829               	incf	utoa@d& (0+255),w,c
   777  001414  A4D8               	btfss	status,2,c
   778  001416  D7EE               	goto	l1131
   779                           
   780                           ;My_header\My_hedaer_18F.h: 135: }
   781                           ;My_header\My_hedaer_18F.h: 136: v %= 10;
   782  001418  C02A  F01D         	movff	utoa@v,___lwmod@dividend
   783  00141C  C02B  F01E         	movff	utoa@v+1,___lwmod@dividend+1
   784  001420  0E00               	movlw	0
   785  001422  6E20               	movwf	___lwmod@divisor+1,c
   786  001424  0E0A               	movlw	10
   787  001426  6E1F               	movwf	___lwmod@divisor,c
   788  001428  ECA3  F00A         	call	___lwmod	;wreg free
   789  00142C  C01D  F02A         	movff	?___lwmod,utoa@v
   790  001430  C01E  F02B         	movff	?___lwmod+1,utoa@v+1
   791                           
   792                           ;My_header\My_hedaer_18F.h: 137: *str++ = '0' + v;
   793  001434  502A               	movf	utoa@v,w,c
   794  001436  0F30               	addlw	48
   795  001438  C024  FFD9         	movff	utoa@str,fsr2l
   796  00143C  C025  FFDA         	movff	utoa@str+1,fsr2h
   797  001440  6EDF               	movwf	indf2,c
   798  001442  4A24               	infsnz	utoa@str,f,c
   799  001444  2A25               	incf	utoa@str+1,f,c
   800  001446                     l1141:
   801  001446  0628               	decf	utoa@digits,f,c
   802  001448  2828               	incf	utoa@digits& (0+255),w,c
   803  00144A  A4D8               	btfss	status,2,c
   804  00144C  D7CC               	goto	l113
   805                           
   806                           ;My_header\My_hedaer_18F.h: 138: }
   807                           ;My_header\My_hedaer_18F.h: 139: *str = '\0';
   808  00144E  C024  FFD9         	movff	utoa@str,fsr2l
   809  001452  C025  FFDA         	movff	utoa@str+1,fsr2h
   810  001456  0E00               	movlw	0
   811  001458  6EDF               	movwf	indf2,c
   812  00145A  0012               	return	
   813  00145C                     __end_of_utoa:
   814                           	opt stack 0
   815                           tblptru	equ	0xFF8
   816                           tblptrh	equ	0xFF7
   817                           tblptrl	equ	0xFF6
   818                           tablat	equ	0xFF5
   819                           intcon	equ	0xFF2
   820                           intcon2	equ	0xFF1
   821                           postinc0	equ	0xFEE
   822                           wreg	equ	0xFE8
   823                           indf2	equ	0xFDF
   824                           fsr2h	equ	0xFDA
   825                           fsr2l	equ	0xFD9
   826                           status	equ	0xFD8
   827                           
   828 ;; *************** function ___lwmod *****************
   829 ;; Defined at:
   830 ;;		line 8 in file "C:\Program Files (x86)\Microchip\xc8\v1.33\sources\common\lwmod.c"
   831 ;; Parameters:    Size  Location     Type
   832 ;;  dividend        2   28[COMRAM] unsigned int 
   833 ;;  divisor         2   30[COMRAM] unsigned int 
   834 ;; Auto vars:     Size  Location     Type
   835 ;;  counter         1   32[COMRAM] unsigned char 
   836 ;; Return value:  Size  Location     Type
   837 ;;                  2   28[COMRAM] unsigned int 
   838 ;; Registers used:
   839 ;;		wreg, status,2, status,0
   840 ;; Tracked objects:
   841 ;;		On entry : 0/0
   842 ;;		On exit  : 0/0
   843 ;;		Unchanged: 0/0
   844 ;; Data sizes:     COMRAM   BANK0   BANK1   BANK2   BANK3   BANK4   BANK5   BANK6   BANK7   BANK8   BANK9  BANK10  BANK1
      +1  BANK12  BANK13  BANK14
   845 ;;      Params:         4       0       0       0       0       0       0       0       0       0       0       0       
      +0       0       0       0
   846 ;;      Locals:         1       0       0       0       0       0       0       0       0       0       0       0       
      +0       0       0       0
   847 ;;      Temps:          0       0       0       0       0       0       0       0       0       0       0       0       
      +0       0       0       0
   848 ;;      Totals:         5       0       0       0       0       0       0       0       0       0       0       0       
      +0       0       0       0
   849 ;;Total ram usage:        5 bytes
   850 ;; Hardware stack levels used:    1
   851 ;; Hardware stack levels required when called:    4
   852 ;; This function calls:
   853 ;;		Nothing
   854 ;; This function is called by:
   855 ;;		_utoa
   856 ;;		_tx_sendn
   857 ;; This function uses a non-reentrant model
   858 ;;
   859                           
   860                           	psect	text2
   861  001546                     __ptext2:
   862                           	opt stack 0
   863  001546                     ___lwmod:
   864                           	opt stack 25
   865                           
   866                           ;incstack = 0
   867  001546  5020               	movf	___lwmod@divisor+1,w,c
   868  001548  101F               	iorwf	___lwmod@divisor,w,c
   869  00154A  B4D8               	btfsc	status,2,c
   870  00154C  D018               	goto	l858
   871  00154E  0E01               	movlw	1
   872  001550  6E21               	movwf	___lwmod@counter,c
   873  001552  D004               	goto	l1055
   874  001554                     l1053:
   875  001554  90D8               	bcf	status,0,c
   876  001556  361F               	rlcf	___lwmod@divisor,f,c
   877  001558  3620               	rlcf	___lwmod@divisor+1,f,c
   878  00155A  2A21               	incf	___lwmod@counter,f,c
   879  00155C                     l1055:
   880  00155C  AE20               	btfss	___lwmod@divisor+1,7,c
   881  00155E  D7FA               	goto	l1053
   882  001560                     l1057:
   883  001560  501F               	movf	___lwmod@divisor,w,c
   884  001562  5C1D               	subwf	___lwmod@dividend,w,c
   885  001564  5020               	movf	___lwmod@divisor+1,w,c
   886  001566  581E               	subwfb	___lwmod@dividend+1,w,c
   887  001568  A0D8               	btfss	status,0,c
   888  00156A  D004               	goto	l1061
   889  00156C  501F               	movf	___lwmod@divisor,w,c
   890  00156E  5E1D               	subwf	___lwmod@dividend,f,c
   891  001570  5020               	movf	___lwmod@divisor+1,w,c
   892  001572  5A1E               	subwfb	___lwmod@dividend+1,f,c
   893  001574                     l1061:
   894  001574  90D8               	bcf	status,0,c
   895  001576  3220               	rrcf	___lwmod@divisor+1,f,c
   896  001578  321F               	rrcf	___lwmod@divisor,f,c
   897  00157A  2E21               	decfsz	___lwmod@counter,f,c
   898  00157C  D7F1               	goto	l1057
   899  00157E                     l858:
   900  00157E  C01D  F01D         	movff	___lwmod@dividend,?___lwmod
   901  001582  C01E  F01E         	movff	___lwmod@dividend+1,?___lwmod+1
   902  001586  0012               	return	
   903  001588                     __end_of___lwmod:
   904                           	opt stack 0
   905                           tblptru	equ	0xFF8
   906                           tblptrh	equ	0xFF7
   907                           tblptrl	equ	0xFF6
   908                           tablat	equ	0xFF5
   909                           intcon	equ	0xFF2
   910                           intcon2	equ	0xFF1
   911                           postinc0	equ	0xFEE
   912                           wreg	equ	0xFE8
   913                           indf2	equ	0xFDF
   914                           fsr2h	equ	0xFDA
   915                           fsr2l	equ	0xFD9
   916                           status	equ	0xFD8
   917                           
   918 ;; *************** function ___lwdiv *****************
   919 ;; Defined at:
   920 ;;		line 8 in file "C:\Program Files (x86)\Microchip\xc8\v1.33\sources\common\lwdiv.c"
   921 ;; Parameters:    Size  Location     Type
   922 ;;  dividend        2   28[COMRAM] unsigned int 
   923 ;;  divisor         2   30[COMRAM] unsigned int 
   924 ;; Auto vars:     Size  Location     Type
   925 ;;  quotient        2   32[COMRAM] unsigned int 
   926 ;;  counter         1   34[COMRAM] unsigned char 
   927 ;; Return value:  Size  Location     Type
   928 ;;                  2   28[COMRAM] unsigned int 
   929 ;; Registers used:
   930 ;;		wreg, status,2, status,0
   931 ;; Tracked objects:
   932 ;;		On entry : 0/0
   933 ;;		On exit  : 0/0
   934 ;;		Unchanged: 0/0
   935 ;; Data sizes:     COMRAM   BANK0   BANK1   BANK2   BANK3   BANK4   BANK5   BANK6   BANK7   BANK8   BANK9  BANK10  BANK1
      +1  BANK12  BANK13  BANK14
   936 ;;      Params:         4       0       0       0       0       0       0       0       0       0       0       0       
      +0       0       0       0
   937 ;;      Locals:         3       0       0       0       0       0       0       0       0       0       0       0       
      +0       0       0       0
   938 ;;      Temps:          0       0       0       0       0       0       0       0       0       0       0       0       
      +0       0       0       0
   939 ;;      Totals:         7       0       0       0       0       0       0       0       0       0       0       0       
      +0       0       0       0
   940 ;;Total ram usage:        7 bytes
   941 ;; Hardware stack levels used:    1
   942 ;; Hardware stack levels required when called:    4
   943 ;; This function calls:
   944 ;;		Nothing
   945 ;; This function is called by:
   946 ;;		_utoa
   947 ;;		_tx_sendn
   948 ;; This function uses a non-reentrant model
   949 ;;
   950                           
   951                           	psect	text3
   952  0014B0                     __ptext3:
   953                           	opt stack 0
   954  0014B0                     ___lwdiv:
   955                           	opt stack 25
   956                           
   957                           ;incstack = 0
   958  0014B0  0E00               	movlw	0
   959  0014B2  6E22               	movwf	___lwdiv@quotient+1,c
   960  0014B4  0E00               	movlw	0
   961  0014B6  6E21               	movwf	___lwdiv@quotient,c
   962  0014B8  5020               	movf	___lwdiv@divisor+1,w,c
   963  0014BA  101F               	iorwf	___lwdiv@divisor,w,c
   964  0014BC  B4D8               	btfsc	status,2,c
   965  0014BE  D01C               	goto	l848
   966  0014C0  0E01               	movlw	1
   967  0014C2  6E23               	movwf	___lwdiv@counter,c
   968  0014C4  D004               	goto	l1035
   969  0014C6                     l1033:
   970  0014C6  90D8               	bcf	status,0,c
   971  0014C8  361F               	rlcf	___lwdiv@divisor,f,c
   972  0014CA  3620               	rlcf	___lwdiv@divisor+1,f,c
   973  0014CC  2A23               	incf	___lwdiv@counter,f,c
   974  0014CE                     l1035:
   975  0014CE  AE20               	btfss	___lwdiv@divisor+1,7,c
   976  0014D0  D7FA               	goto	l1033
   977  0014D2                     l1037:
   978  0014D2  90D8               	bcf	status,0,c
   979  0014D4  3621               	rlcf	___lwdiv@quotient,f,c
   980  0014D6  3622               	rlcf	___lwdiv@quotient+1,f,c
   981  0014D8  501F               	movf	___lwdiv@divisor,w,c
   982  0014DA  5C1D               	subwf	___lwdiv@dividend,w,c
   983  0014DC  5020               	movf	___lwdiv@divisor+1,w,c
   984  0014DE  581E               	subwfb	___lwdiv@dividend+1,w,c
   985  0014E0  A0D8               	btfss	status,0,c
   986  0014E2  D005               	goto	l1045
   987  0014E4  501F               	movf	___lwdiv@divisor,w,c
   988  0014E6  5E1D               	subwf	___lwdiv@dividend,f,c
   989  0014E8  5020               	movf	___lwdiv@divisor+1,w,c
   990  0014EA  5A1E               	subwfb	___lwdiv@dividend+1,f,c
   991  0014EC  8021               	bsf	___lwdiv@quotient,0,c
   992  0014EE                     l1045:
   993  0014EE  90D8               	bcf	status,0,c
   994  0014F0  3220               	rrcf	___lwdiv@divisor+1,f,c
   995  0014F2  321F               	rrcf	___lwdiv@divisor,f,c
   996  0014F4  2E23               	decfsz	___lwdiv@counter,f,c
   997  0014F6  D7ED               	goto	l1037
   998  0014F8                     l848:
   999  0014F8  C021  F01D         	movff	___lwdiv@quotient,?___lwdiv
  1000  0014FC  C022  F01E         	movff	___lwdiv@quotient+1,?___lwdiv+1
  1001  001500  0012               	return	
  1002  001502                     __end_of___lwdiv:
  1003                           	opt stack 0
  1004                           tblptru	equ	0xFF8
  1005                           tblptrh	equ	0xFF7
  1006                           tblptrl	equ	0xFF6
  1007                           tablat	equ	0xFF5
  1008                           intcon	equ	0xFF2
  1009                           intcon2	equ	0xFF1
  1010                           postinc0	equ	0xFEE
  1011                           wreg	equ	0xFE8
  1012                           indf2	equ	0xFDF
  1013                           fsr2h	equ	0xFDA
  1014                           fsr2l	equ	0xFD9
  1015                           status	equ	0xFD8
  1016                           
  1017 ;; *************** function _tx_sends *****************
  1018 ;; Defined at:
  1019 ;;		line 55 in file "../My_header\My_UART_18F.h"
  1020 ;; Parameters:    Size  Location     Type
  1021 ;;  asciicode       2   40[COMRAM] PTR const unsigned char 
  1022 ;;		 -> main@data(100), 
  1023 ;; Auto vars:     Size  Location     Type
  1024 ;;		None
  1025 ;; Return value:  Size  Location     Type
  1026 ;;		None               void
  1027 ;; Registers used:
  1028 ;;		wreg, fsr2l, fsr2h, status,2, status,0, prodl, prodh, cstack
  1029 ;; Tracked objects:
  1030 ;;		On entry : 0/0
  1031 ;;		On exit  : 0/0
  1032 ;;		Unchanged: 0/0
  1033 ;; Data sizes:     COMRAM   BANK0   BANK1   BANK2   BANK3   BANK4   BANK5   BANK6   BANK7   BANK8   BANK9  BANK10  BANK1
      +1  BANK12  BANK13  BANK14
  1034 ;;      Params:         2       0       0       0       0       0       0       0       0       0       0       0       
      +0       0       0       0
  1035 ;;      Locals:         0       0       0       0       0       0       0       0       0       0       0       0       
      +0       0       0       0
  1036 ;;      Temps:          0       0       0       0       0       0       0       0       0       0       0       0       
      +0       0       0       0
  1037 ;;      Totals:         2       0       0       0       0       0       0       0       0       0       0       0       
      +0       0       0       0
  1038 ;;Total ram usage:        2 bytes
  1039 ;; Hardware stack levels used:    1
  1040 ;; Hardware stack levels required when called:    6
  1041 ;; This function calls:
  1042 ;;		_ringbuf_push
  1043 ;; This function is called by:
  1044 ;;		_main
  1045 ;; This function uses a non-reentrant model
  1046 ;;
  1047                           
  1048                           	psect	text4
  1049  001600                     __ptext4:
  1050                           	opt stack 0
  1051  001600                     _tx_sends:
  1052                           	opt stack 24
  1053                           
  1054                           ;My_header\My_UART_18F.h: 56: while (*asciicode) {
  1055                           
  1056                           ;incstack = 0
  1057  001600  D00E               	goto	l1181
  1058  001602                     l1177:
  1059                           
  1060                           ;My_header\My_UART_18F.h: 57: ringbuf_push(&tx_buf, *asciicode++);
  1061  001602  0E00               	movlw	high _tx_buf
  1062  001604  6E22               	movwf	ringbuf_push@rb+1,c
  1063  001606  0E32               	movlw	low _tx_buf
  1064  001608  6E21               	movwf	ringbuf_push@rb,c
  1065  00160A  C029  FFD9         	movff	tx_sends@asciicode,fsr2l
  1066  00160E  C02A  FFDA         	movff	tx_sends@asciicode+1,fsr2h
  1067  001612  50DF               	movf	indf2,w,c
  1068  001614  6E23               	movwf	ringbuf_push@asciicode,c
  1069  001616  EC34  F008         	call	_ringbuf_push	;wreg free
  1070  00161A  4A29               	infsnz	tx_sends@asciicode,f,c
  1071  00161C  2A2A               	incf	tx_sends@asciicode+1,f,c
  1072  00161E                     l1181:
  1073  00161E  C029  FFD9         	movff	tx_sends@asciicode,fsr2l
  1074  001622  C02A  FFDA         	movff	tx_sends@asciicode+1,fsr2h
  1075  001626  50DF               	movf	indf2,w,c
  1076  001628  A4D8               	btfss	status,2,c
  1077  00162A  D7EB               	goto	l1177
  1078                           
  1079                           ;My_header\My_UART_18F.h: 58: }
  1080                           ;My_header\My_UART_18F.h: 59: PIE1bits.TX1IE = 1;
  1081  00162C  889D               	bsf	3997,4,c	;volatile
  1082  00162E  0012               	return	
  1083  001630                     __end_of_tx_sends:
  1084                           	opt stack 0
  1085                           tblptru	equ	0xFF8
  1086                           tblptrh	equ	0xFF7
  1087                           tblptrl	equ	0xFF6
  1088                           tablat	equ	0xFF5
  1089                           intcon	equ	0xFF2
  1090                           intcon2	equ	0xFF1
  1091                           postinc0	equ	0xFEE
  1092                           wreg	equ	0xFE8
  1093                           indf2	equ	0xFDF
  1094                           fsr2h	equ	0xFDA
  1095                           fsr2l	equ	0xFD9
  1096                           status	equ	0xFD8
  1097                           
  1098 ;; *************** function _tx_send *****************
  1099 ;; Defined at:
  1100 ;;		line 50 in file "../My_header\My_UART_18F.h"
  1101 ;; Parameters:    Size  Location     Type
  1102 ;;  asciicode       1    wreg     unsigned char 
  1103 ;; Auto vars:     Size  Location     Type
  1104 ;;  asciicode       1   40[COMRAM] unsigned char 
  1105 ;; Return value:  Size  Location     Type
  1106 ;;		None               void
  1107 ;; Registers used:
  1108 ;;		wreg, fsr2l, fsr2h, status,2, status,0, prodl, prodh, cstack
  1109 ;; Tracked objects:
  1110 ;;		On entry : 0/0
  1111 ;;		On exit  : 0/0
  1112 ;;		Unchanged: 0/0
  1113 ;; Data sizes:     COMRAM   BANK0   BANK1   BANK2   BANK3   BANK4   BANK5   BANK6   BANK7   BANK8   BANK9  BANK10  BANK1
      +1  BANK12  BANK13  BANK14
  1114 ;;      Params:         0       0       0       0       0       0       0       0       0       0       0       0       
      +0       0       0       0
  1115 ;;      Locals:         1       0       0       0       0       0       0       0       0       0       0       0       
      +0       0       0       0
  1116 ;;      Temps:          0       0       0       0       0       0       0       0       0       0       0       0       
      +0       0       0       0
  1117 ;;      Totals:         1       0       0       0       0       0       0       0       0       0       0       0       
      +0       0       0       0
  1118 ;;Total ram usage:        1 bytes
  1119 ;; Hardware stack levels used:    1
  1120 ;; Hardware stack levels required when called:    6
  1121 ;; This function calls:
  1122 ;;		_ringbuf_push
  1123 ;; This function is called by:
  1124 ;;		_main
  1125 ;;		_tx_sendn
  1126 ;; This function uses a non-reentrant model
  1127 ;;
  1128                           
  1129                           	psect	text5
  1130  0017DC                     __ptext5:
  1131                           	opt stack 0
  1132  0017DC                     _tx_send:
  1133                           	opt stack 24
  1134                           
  1135                           ;incstack = 0
  1136                           ;tx_send@asciicode stored from wreg
  1137  0017DC  6E29               	movwf	tx_send@asciicode,c
  1138                           
  1139                           ;My_header\My_UART_18F.h: 51: ringbuf_push(&tx_buf, asciicode);
  1140  0017DE  0E00               	movlw	high _tx_buf
  1141  0017E0  6E22               	movwf	ringbuf_push@rb+1,c
  1142  0017E2  0E32               	movlw	low _tx_buf
  1143  0017E4  6E21               	movwf	ringbuf_push@rb,c
  1144  0017E6  C029  F023         	movff	tx_send@asciicode,ringbuf_push@asciicode
  1145  0017EA  EC34  F008         	call	_ringbuf_push	;wreg free
  1146                           
  1147                           ;My_header\My_UART_18F.h: 52: PIE1bits.TX1IE = 1;
  1148  0017EE  889D               	bsf	3997,4,c	;volatile
  1149  0017F0  0012               	return	
  1150  0017F2                     __end_of_tx_send:
  1151                           	opt stack 0
  1152                           tblptru	equ	0xFF8
  1153                           tblptrh	equ	0xFF7
  1154                           tblptrl	equ	0xFF6
  1155                           tablat	equ	0xFF5
  1156                           intcon	equ	0xFF2
  1157                           intcon2	equ	0xFF1
  1158                           postinc0	equ	0xFEE
  1159                           wreg	equ	0xFE8
  1160                           indf2	equ	0xFDF
  1161                           fsr2h	equ	0xFDA
  1162                           fsr2l	equ	0xFD9
  1163                           status	equ	0xFD8
  1164                           
  1165 ;; *************** function _ringbuf_push *****************
  1166 ;; Defined at:
  1167 ;;		line 37 in file "../My_header\My_ringbuf.h"
  1168 ;; Parameters:    Size  Location     Type
  1169 ;;  rb              2   32[COMRAM] PTR struct ringbuf
  1170 ;;		 -> tx_buf(5), 
  1171 ;;  asciicode       1   34[COMRAM] unsigned char 
  1172 ;; Auto vars:     Size  Location     Type
  1173 ;;		None
  1174 ;; Return value:  Size  Location     Type
  1175 ;;		None               void
  1176 ;; Registers used:
  1177 ;;		wreg, fsr2l, fsr2h, status,2, status,0, prodl, prodh, cstack
  1178 ;; Tracked objects:
  1179 ;;		On entry : 0/0
  1180 ;;		On exit  : 0/0
  1181 ;;		Unchanged: 0/0
  1182 ;; Data sizes:     COMRAM   BANK0   BANK1   BANK2   BANK3   BANK4   BANK5   BANK6   BANK7   BANK8   BANK9  BANK10  BANK1
      +1  BANK12  BANK13  BANK14
  1183 ;;      Params:         3       0       0       0       0       0       0       0       0       0       0       0       
      +0       0       0       0
  1184 ;;      Locals:         0       0       0       0       0       0       0       0       0       0       0       0       
      +0       0       0       0
  1185 ;;      Temps:          5       0       0       0       0       0       0       0       0       0       0       0       
      +0       0       0       0
  1186 ;;      Totals:         8       0       0       0       0       0       0       0       0       0       0       0       
      +0       0       0       0
  1187 ;;Total ram usage:        8 bytes
  1188 ;; Hardware stack levels used:    1
  1189 ;; Hardware stack levels required when called:    5
  1190 ;; This function calls:
  1191 ;;		_ringbuf_num
  1192 ;; This function is called by:
  1193 ;;		_tx_send
  1194 ;;		_tx_sends
  1195 ;; This function uses a non-reentrant model
  1196 ;;
  1197                           
  1198                           	psect	text6
  1199  001068                     __ptext6:
  1200                           	opt stack 0
  1201  001068                     _ringbuf_push:
  1202                           	opt stack 24
  1203                           
  1204                           ;My_header\My_ringbuf.h: 38: if (ringbuf_num(rb) < rb->size) {
  1205                           
  1206                           ;incstack = 0
  1207  001068  C022  F01E         	movff	ringbuf_push@rb+1,ringbuf_num@rb+1
  1208  00106C  C021  F01D         	movff	ringbuf_push@rb,ringbuf_num@rb
  1209  001070  EC74  F009         	call	_ringbuf_num	;wreg free
  1210  001074  6E24               	movwf	??_ringbuf_push& (0+255),c
  1211  001076  EE20 F002          	lfsr	2,2
  1212  00107A  5021               	movf	ringbuf_push@rb,w,c
  1213  00107C  26D9               	addwf	fsr2l,f,c
  1214  00107E  5022               	movf	ringbuf_push@rb+1,w,c
  1215  001080  22DA               	addwfc	fsr2h,f,c
  1216  001082  50DF               	movf	indf2,w,c
  1217  001084  5C24               	subwf	??_ringbuf_push,w,c
  1218  001086  B0D8               	btfsc	status,0,c
  1219  001088  0012               	return	
  1220                           
  1221                           ;My_header\My_ringbuf.h: 39: rb->buf[rb->head] = asciicode;
  1222  00108A  EE20 F003          	lfsr	2,3
  1223  00108E  5021               	movf	ringbuf_push@rb,w,c
  1224  001090  26D9               	addwf	fsr2l,f,c
  1225  001092  5022               	movf	ringbuf_push@rb+1,w,c
  1226  001094  22DA               	addwfc	fsr2h,f,c
  1227  001096  50DF               	movf	indf2,w,c
  1228  001098  6E24               	movwf	??_ringbuf_push& (0+255),c
  1229  00109A  5024               	movf	??_ringbuf_push,w,c
  1230  00109C  0D01               	mullw	1
  1231  00109E  C021  FFD9         	movff	ringbuf_push@rb,fsr2l
  1232  0010A2  C022  FFDA         	movff	ringbuf_push@rb+1,fsr2h
  1233  0010A6  CFDE F025          	movff	postinc2,??_ringbuf_push+1
  1234  0010AA  CFDD F026          	movff	postdec2,??_ringbuf_push+2
  1235  0010AE  50F3               	movf	prodl,w,c
  1236  0010B0  2425               	addwf	??_ringbuf_push+1,w,c
  1237  0010B2  6ED9               	movwf	fsr2l,c
  1238  0010B4  50F4               	movf	prodh,w,c
  1239  0010B6  2026               	addwfc	??_ringbuf_push+2,w,c
  1240  0010B8  6EDA               	movwf	fsr2h,c
  1241  0010BA  C023  FFDF         	movff	ringbuf_push@asciicode,indf2
  1242                           
  1243                           ;My_header\My_ringbuf.h: 40: if (rb->head + 1 < rb->size) rb->head++;
  1244  0010BE  EE20 F002          	lfsr	2,2
  1245  0010C2  5021               	movf	ringbuf_push@rb,w,c
  1246  0010C4  26D9               	addwf	fsr2l,f,c
  1247  0010C6  5022               	movf	ringbuf_push@rb+1,w,c
  1248  0010C8  22DA               	addwfc	fsr2h,f,c
  1249  0010CA  50DF               	movf	indf2,w,c
  1250  0010CC  6E24               	movwf	??_ringbuf_push& (0+255),c
  1251  0010CE  6A25               	clrf	(??_ringbuf_push+1)& (0+255),c
  1252  0010D0  EE20 F003          	lfsr	2,3
  1253  0010D4  5021               	movf	ringbuf_push@rb,w,c
  1254  0010D6  26D9               	addwf	fsr2l,f,c
  1255  0010D8  5022               	movf	ringbuf_push@rb+1,w,c
  1256  0010DA  22DA               	addwfc	fsr2h,f,c
  1257  0010DC  50DF               	movf	indf2,w,c
  1258  0010DE  6E26               	movwf	(??_ringbuf_push+2)& (0+255),c
  1259  0010E0  6A27               	clrf	(??_ringbuf_push+3)& (0+255),c
  1260  0010E2  0E01               	movlw	1
  1261  0010E4  2626               	addwf	??_ringbuf_push+2,f,c
  1262  0010E6  0E00               	movlw	0
  1263  0010E8  2227               	addwfc	??_ringbuf_push+3,f,c
  1264  0010EA  5027               	movf	??_ringbuf_push+3,w,c
  1265  0010EC  0A80               	xorlw	128
  1266  0010EE  6E28               	movwf	(??_ringbuf_push+4)& (0+255),c
  1267  0010F0  5024               	movf	??_ringbuf_push,w,c
  1268  0010F2  5C26               	subwf	??_ringbuf_push+2,w,c
  1269  0010F4  5025               	movf	??_ringbuf_push+1,w,c
  1270  0010F6  0A80               	xorlw	128
  1271  0010F8  5828               	subwfb	(??_ringbuf_push+4)& (0+255),w,c
  1272  0010FA  B0D8               	btfsc	status,0,c
  1273  0010FC  D008               	goto	l1001
  1274  0010FE  EE20 F003          	lfsr	2,3
  1275  001102  5021               	movf	ringbuf_push@rb,w,c
  1276  001104  26D9               	addwf	fsr2l,f,c
  1277  001106  5022               	movf	ringbuf_push@rb+1,w,c
  1278  001108  22DA               	addwfc	fsr2h,f,c
  1279  00110A  2ADF               	incf	indf2,f,c
  1280  00110C  0012               	return	
  1281  00110E                     l1001:
  1282                           
  1283                           ;My_header\My_ringbuf.h: 41: else rb->head = 0;
  1284  00110E  EE20 F003          	lfsr	2,3
  1285  001112  5021               	movf	ringbuf_push@rb,w,c
  1286  001114  26D9               	addwf	fsr2l,f,c
  1287  001116  5022               	movf	ringbuf_push@rb+1,w,c
  1288  001118  22DA               	addwfc	fsr2h,f,c
  1289  00111A  0E00               	movlw	0
  1290  00111C  6EDF               	movwf	indf2,c
  1291  00111E  0012               	return	
  1292  001120                     __end_of_ringbuf_push:
  1293                           	opt stack 0
  1294                           tblptru	equ	0xFF8
  1295                           tblptrh	equ	0xFF7
  1296                           tblptrl	equ	0xFF6
  1297                           tablat	equ	0xFF5
  1298                           prodh	equ	0xFF4
  1299                           prodl	equ	0xFF3
  1300                           intcon	equ	0xFF2
  1301                           intcon2	equ	0xFF1
  1302                           postinc0	equ	0xFEE
  1303                           wreg	equ	0xFE8
  1304                           indf2	equ	0xFDF
  1305                           postinc2	equ	0xFDE
  1306                           postdec2	equ	0xFDD
  1307                           fsr2h	equ	0xFDA
  1308                           fsr2l	equ	0xFD9
  1309                           status	equ	0xFD8
  1310                           
  1311 ;; *************** function _ringbuf_num *****************
  1312 ;; Defined at:
  1313 ;;		line 29 in file "../My_header\My_ringbuf.h"
  1314 ;; Parameters:    Size  Location     Type
  1315 ;;  rb              2   28[COMRAM] PTR struct ringbuf
  1316 ;;		 -> tx_buf(5), 
  1317 ;; Auto vars:     Size  Location     Type
  1318 ;;		None
  1319 ;; Return value:  Size  Location     Type
  1320 ;;                  1    wreg      unsigned char 
  1321 ;; Registers used:
  1322 ;;		wreg, fsr2l, fsr2h, status,2, status,0
  1323 ;; Tracked objects:
  1324 ;;		On entry : 0/0
  1325 ;;		On exit  : 0/0
  1326 ;;		Unchanged: 0/0
  1327 ;; Data sizes:     COMRAM   BANK0   BANK1   BANK2   BANK3   BANK4   BANK5   BANK6   BANK7   BANK8   BANK9  BANK10  BANK1
      +1  BANK12  BANK13  BANK14
  1328 ;;      Params:         2       0       0       0       0       0       0       0       0       0       0       0       
      +0       0       0       0
  1329 ;;      Locals:         0       0       0       0       0       0       0       0       0       0       0       0       
      +0       0       0       0
  1330 ;;      Temps:          2       0       0       0       0       0       0       0       0       0       0       0       
      +0       0       0       0
  1331 ;;      Totals:         4       0       0       0       0       0       0       0       0       0       0       0       
      +0       0       0       0
  1332 ;;Total ram usage:        4 bytes
  1333 ;; Hardware stack levels used:    1
  1334 ;; Hardware stack levels required when called:    4
  1335 ;; This function calls:
  1336 ;;		Nothing
  1337 ;; This function is called by:
  1338 ;;		_ringbuf_push
  1339 ;;		_ringbuf_backspace
  1340 ;; This function uses a non-reentrant model
  1341 ;;
  1342                           
  1343                           	psect	text7
  1344  0012E8                     __ptext7:
  1345                           	opt stack 0
  1346  0012E8                     _ringbuf_num:
  1347                           	opt stack 24
  1348                           
  1349                           ;My_header\My_ringbuf.h: 30: if (rb->head >= rb->tail) {
  1350                           
  1351                           ;incstack = 0
  1352  0012E8  EE20 F003          	lfsr	2,3
  1353  0012EC  501D               	movf	ringbuf_num@rb,w,c
  1354  0012EE  26D9               	addwf	fsr2l,f,c
  1355  0012F0  501E               	movf	ringbuf_num@rb+1,w,c
  1356  0012F2  22DA               	addwfc	fsr2h,f,c
  1357  0012F4  50DF               	movf	indf2,w,c
  1358  0012F6  6E1F               	movwf	??_ringbuf_num& (0+255),c
  1359  0012F8  EE20 F004          	lfsr	2,4
  1360  0012FC  501D               	movf	ringbuf_num@rb,w,c
  1361  0012FE  26D9               	addwf	fsr2l,f,c
  1362  001300  501E               	movf	ringbuf_num@rb+1,w,c
  1363  001302  22DA               	addwfc	fsr2h,f,c
  1364  001304  50DF               	movf	indf2,w,c
  1365  001306  5C1F               	subwf	??_ringbuf_num,w,c
  1366  001308  A0D8               	btfss	status,0,c
  1367  00130A  D012               	goto	l963
  1368                           
  1369                           ;My_header\My_ringbuf.h: 31: return (rb->head - rb->tail);
  1370  00130C  EE20 F003          	lfsr	2,3
  1371  001310  501D               	movf	ringbuf_num@rb,w,c
  1372  001312  26D9               	addwf	fsr2l,f,c
  1373  001314  501E               	movf	ringbuf_num@rb+1,w,c
  1374  001316  22DA               	addwfc	fsr2h,f,c
  1375  001318  50DF               	movf	indf2,w,c
  1376  00131A  6E1F               	movwf	??_ringbuf_num& (0+255),c
  1377  00131C  EE20 F004          	lfsr	2,4
  1378  001320  501D               	movf	ringbuf_num@rb,w,c
  1379  001322  26D9               	addwf	fsr2l,f,c
  1380  001324  501E               	movf	ringbuf_num@rb+1,w,c
  1381  001326  22DA               	addwfc	fsr2h,f,c
  1382  001328  50DF               	movf	indf2,w,c
  1383  00132A  0800               	sublw	0
  1384  00132C  241F               	addwf	??_ringbuf_num,w,c
  1385  00132E  0012               	return	
  1386  001330                     l963:
  1387                           
  1388                           ;My_header\My_ringbuf.h: 33: return (rb->size + rb->head - rb->tail);
  1389  001330  EE20 F003          	lfsr	2,3
  1390  001334  501D               	movf	ringbuf_num@rb,w,c
  1391  001336  26D9               	addwf	fsr2l,f,c
  1392  001338  501E               	movf	ringbuf_num@rb+1,w,c
  1393  00133A  22DA               	addwfc	fsr2h,f,c
  1394  00133C  50DF               	movf	indf2,w,c
  1395  00133E  6E1F               	movwf	??_ringbuf_num& (0+255),c
  1396  001340  EE20 F002          	lfsr	2,2
  1397  001344  501D               	movf	ringbuf_num@rb,w,c
  1398  001346  26D9               	addwf	fsr2l,f,c
  1399  001348  501E               	movf	ringbuf_num@rb+1,w,c
  1400  00134A  22DA               	addwfc	fsr2h,f,c
  1401  00134C  50DF               	movf	indf2,w,c
  1402  00134E  6E20               	movwf	(??_ringbuf_num+1)& (0+255),c
  1403  001350  EE20 F004          	lfsr	2,4
  1404  001354  501D               	movf	ringbuf_num@rb,w,c
  1405  001356  26D9               	addwf	fsr2l,f,c
  1406  001358  501E               	movf	ringbuf_num@rb+1,w,c
  1407  00135A  22DA               	addwfc	fsr2h,f,c
  1408  00135C  50DF               	movf	indf2,w,c
  1409  00135E  0800               	sublw	0
  1410  001360  2420               	addwf	??_ringbuf_num+1,w,c
  1411  001362  241F               	addwf	??_ringbuf_num,w,c
  1412  001364  0012               	return	
  1413  001366                     __end_of_ringbuf_num:
  1414                           	opt stack 0
  1415                           tblptru	equ	0xFF8
  1416                           tblptrh	equ	0xFF7
  1417                           tblptrl	equ	0xFF6
  1418                           tablat	equ	0xFF5
  1419                           prodh	equ	0xFF4
  1420                           prodl	equ	0xFF3
  1421                           intcon	equ	0xFF2
  1422                           intcon2	equ	0xFF1
  1423                           postinc0	equ	0xFEE
  1424                           wreg	equ	0xFE8
  1425                           indf2	equ	0xFDF
  1426                           postinc2	equ	0xFDE
  1427                           postdec2	equ	0xFDD
  1428                           fsr2h	equ	0xFDA
  1429                           fsr2l	equ	0xFD9
  1430                           status	equ	0xFD8
  1431                           
  1432 ;; *************** function _timer3_init *****************
  1433 ;; Defined at:
  1434 ;;		line 49 in file "../My_header\My_hedaer_18F.h"
  1435 ;; Parameters:    Size  Location     Type
  1436 ;;  prescaler       1    wreg     unsigned char 
  1437 ;; Auto vars:     Size  Location     Type
  1438 ;;  prescaler       1   29[COMRAM] unsigned char 
  1439 ;; Return value:  Size  Location     Type
  1440 ;;		None               void
  1441 ;; Registers used:
  1442 ;;		wreg, status,2, status,0
  1443 ;; Tracked objects:
  1444 ;;		On entry : 0/0
  1445 ;;		On exit  : 0/0
  1446 ;;		Unchanged: 0/0
  1447 ;; Data sizes:     COMRAM   BANK0   BANK1   BANK2   BANK3   BANK4   BANK5   BANK6   BANK7   BANK8   BANK9  BANK10  BANK1
      +1  BANK12  BANK13  BANK14
  1448 ;;      Params:         0       0       0       0       0       0       0       0       0       0       0       0       
      +0       0       0       0
  1449 ;;      Locals:         1       0       0       0       0       0       0       0       0       0       0       0       
      +0       0       0       0
  1450 ;;      Temps:          1       0       0       0       0       0       0       0       0       0       0       0       
      +0       0       0       0
  1451 ;;      Totals:         2       0       0       0       0       0       0       0       0       0       0       0       
      +0       0       0       0
  1452 ;;Total ram usage:        2 bytes
  1453 ;; Hardware stack levels used:    1
  1454 ;; Hardware stack levels required when called:    4
  1455 ;; This function calls:
  1456 ;;		Nothing
  1457 ;; This function is called by:
  1458 ;;		_main
  1459 ;; This function uses a non-reentrant model
  1460 ;;
  1461                           
  1462                           	psect	text8
  1463  001738                     __ptext8:
  1464                           	opt stack 0
  1465  001738                     _timer3_init:
  1466                           	opt stack 26
  1467                           
  1468                           ;incstack = 0
  1469                           ;timer3_init@prescaler stored from wreg
  1470  001738  6E1E               	movwf	timer3_init@prescaler,c
  1471                           
  1472                           ;My_header\My_hedaer_18F.h: 50: T3CONbits.TMR3CS = 0;
  1473  00173A  0E3F               	movlw	-193
  1474  00173C  1679               	andwf	3961,f,c	;volatile
  1475                           
  1476                           ;My_header\My_hedaer_18F.h: 51: T3CONbits.T3OSCEN = 1;
  1477  00173E  8679               	bsf	3961,3,c	;volatile
  1478                           
  1479                           ;My_header\My_hedaer_18F.h: 52: T3CONbits.T3CKPS = prescaler;
  1480  001740  C01E  F01D         	movff	timer3_init@prescaler,??_timer3_init
  1481  001744  3A1D               	swapf	??_timer3_init,f,c
  1482  001746  5079               	movf	3961,w,c	;volatile
  1483  001748  181D               	xorwf	??_timer3_init,w,c
  1484  00174A  0BCF               	andlw	-49
  1485  00174C  181D               	xorwf	??_timer3_init,w,c
  1486  00174E  6E79               	movwf	3961,c	;volatile
  1487                           
  1488                           ;My_header\My_hedaer_18F.h: 53: T3CONbits.RD163 = 0;
  1489  001750  9E79               	bcf	3961,7,c	;volatile
  1490                           
  1491                           ;My_header\My_hedaer_18F.h: 54: T3CONbits.TMR3ON = 1;
  1492  001752  8079               	bsf	3961,0,c	;volatile
  1493                           
  1494                           ;My_header\My_hedaer_18F.h: 55: IPR2bits.TMR3IP = 0;
  1495  001754  92A2               	bcf	4002,1,c	;volatile
  1496                           
  1497                           ;My_header\My_hedaer_18F.h: 56: PIR2bits.TMR3IF = 0;
  1498  001756  92A1               	bcf	4001,1,c	;volatile
  1499                           
  1500                           ;My_header\My_hedaer_18F.h: 57: PIE2bits.TMR3IE = 1;
  1501  001758  82A0               	bsf	4000,1,c	;volatile
  1502                           
  1503                           ;My_header\My_hedaer_18F.h: 58: INTCONbits.PEIE = 1;
  1504  00175A  8CF2               	bsf	intcon,6,c	;volatile
  1505  00175C  0012               	return	
  1506  00175E                     __end_of_timer3_init:
  1507                           	opt stack 0
  1508                           tblptru	equ	0xFF8
  1509                           tblptrh	equ	0xFF7
  1510                           tblptrl	equ	0xFF6
  1511                           tablat	equ	0xFF5
  1512                           prodh	equ	0xFF4
  1513                           prodl	equ	0xFF3
  1514                           intcon	equ	0xFF2
  1515                           intcon2	equ	0xFF1
  1516                           postinc0	equ	0xFEE
  1517                           wreg	equ	0xFE8
  1518                           indf2	equ	0xFDF
  1519                           postinc2	equ	0xFDE
  1520                           postdec2	equ	0xFDD
  1521                           fsr2h	equ	0xFDA
  1522                           fsr2l	equ	0xFD9
  1523                           status	equ	0xFD8
  1524                           
  1525 ;; *************** function _timer1_init *****************
  1526 ;; Defined at:
  1527 ;;		line 34 in file "../My_header\My_hedaer_18F.h"
  1528 ;; Parameters:    Size  Location     Type
  1529 ;;  prescaler       1    wreg     unsigned char 
  1530 ;;  clock_select    1   28[COMRAM] unsigned char 
  1531 ;; Auto vars:     Size  Location     Type
  1532 ;;  prescaler       1   30[COMRAM] unsigned char 
  1533 ;; Return value:  Size  Location     Type
  1534 ;;		None               void
  1535 ;; Registers used:
  1536 ;;		wreg, status,2, status,0
  1537 ;; Tracked objects:
  1538 ;;		On entry : 0/0
  1539 ;;		On exit  : 0/0
  1540 ;;		Unchanged: 0/0
  1541 ;; Data sizes:     COMRAM   BANK0   BANK1   BANK2   BANK3   BANK4   BANK5   BANK6   BANK7   BANK8   BANK9  BANK10  BANK1
      +1  BANK12  BANK13  BANK14
  1542 ;;      Params:         1       0       0       0       0       0       0       0       0       0       0       0       
      +0       0       0       0
  1543 ;;      Locals:         1       0       0       0       0       0       0       0       0       0       0       0       
      +0       0       0       0
  1544 ;;      Temps:          1       0       0       0       0       0       0       0       0       0       0       0       
      +0       0       0       0
  1545 ;;      Totals:         3       0       0       0       0       0       0       0       0       0       0       0       
      +0       0       0       0
  1546 ;;Total ram usage:        3 bytes
  1547 ;; Hardware stack levels used:    1
  1548 ;; Hardware stack levels required when called:    4
  1549 ;; This function calls:
  1550 ;;		Nothing
  1551 ;; This function is called by:
  1552 ;;		_main
  1553 ;; This function uses a non-reentrant model
  1554 ;;
  1555                           
  1556                           	psect	text9
  1557  001502                     __ptext9:
  1558                           	opt stack 0
  1559  001502                     _timer1_init:
  1560                           	opt stack 26
  1561                           
  1562                           ;incstack = 0
  1563                           ;timer1_init@prescaler stored from wreg
  1564  001502  6E1F               	movwf	timer1_init@prescaler,c
  1565                           
  1566                           ;My_header\My_hedaer_18F.h: 35: T1CONbits.TMR1CS = clock_select;
  1567  001504  C01D  F01E         	movff	timer1_init@clock_select,??_timer1_init
  1568  001508  3A1E               	swapf	??_timer1_init,f,c
  1569  00150A  461E               	rlncf	??_timer1_init,f,c
  1570  00150C  461E               	rlncf	??_timer1_init,f,c
  1571  00150E  50CD               	movf	4045,w,c	;volatile
  1572  001510  181E               	xorwf	??_timer1_init,w,c
  1573  001512  0B3F               	andlw	-193
  1574  001514  181E               	xorwf	??_timer1_init,w,c
  1575  001516  6ECD               	movwf	4045,c	;volatile
  1576                           
  1577                           ;My_header\My_hedaer_18F.h: 36: if (clock_select == 2) T1CONbits.T1OSCEN = 1;
  1578  001518  501D               	movf	timer1_init@clock_select,w,c
  1579  00151A  0A02               	xorlw	2
  1580  00151C  A4D8               	btfss	status,2,c
  1581  00151E  D002               	goto	l88
  1582  001520  86CD               	bsf	4045,3,c	;volatile
  1583  001522  D001               	goto	l1095
  1584  001524                     l88:
  1585                           
  1586                           ;My_header\My_hedaer_18F.h: 37: else T1CONbits.T1OSCEN = 0;
  1587  001524  96CD               	bcf	4045,3,c	;volatile
  1588  001526                     l1095:
  1589                           
  1590                           ;My_header\My_hedaer_18F.h: 38: T1CONbits.T1CKPS = prescaler;
  1591  001526  C01F  F01E         	movff	timer1_init@prescaler,??_timer1_init
  1592  00152A  3A1E               	swapf	??_timer1_init,f,c
  1593  00152C  50CD               	movf	4045,w,c	;volatile
  1594  00152E  181E               	xorwf	??_timer1_init,w,c
  1595  001530  0BCF               	andlw	-49
  1596  001532  181E               	xorwf	??_timer1_init,w,c
  1597  001534  6ECD               	movwf	4045,c	;volatile
  1598                           
  1599                           ;My_header\My_hedaer_18F.h: 39: T1CONbits.nT1SYNC = 1;
  1600  001536  84CD               	bsf	4045,2,c	;volatile
  1601                           
  1602                           ;My_header\My_hedaer_18F.h: 40: T1CONbits.RD16 = 0;
  1603  001538  92CD               	bcf	4045,1,c	;volatile
  1604                           
  1605                           ;My_header\My_hedaer_18F.h: 41: T1CONbits.TMR1ON = 1;
  1606  00153A  80CD               	bsf	4045,0,c	;volatile
  1607                           
  1608                           ;My_header\My_hedaer_18F.h: 42: IPR1bits.TMR1IP = 0;
  1609  00153C  909F               	bcf	3999,0,c	;volatile
  1610                           
  1611                           ;My_header\My_hedaer_18F.h: 43: PIR1bits.TMR1IF = 0;
  1612  00153E  909E               	bcf	3998,0,c	;volatile
  1613                           
  1614                           ;My_header\My_hedaer_18F.h: 44: PIE1bits.TMR1IE = 1;
  1615  001540  809D               	bsf	3997,0,c	;volatile
  1616                           
  1617                           ;My_header\My_hedaer_18F.h: 45: INTCONbits.PEIE = 1;
  1618  001542  8CF2               	bsf	intcon,6,c	;volatile
  1619  001544  0012               	return	
  1620  001546                     __end_of_timer1_init:
  1621                           	opt stack 0
  1622                           tblptru	equ	0xFF8
  1623                           tblptrh	equ	0xFF7
  1624                           tblptrl	equ	0xFF6
  1625                           tablat	equ	0xFF5
  1626                           prodh	equ	0xFF4
  1627                           prodl	equ	0xFF3
  1628                           intcon	equ	0xFF2
  1629                           intcon2	equ	0xFF1
  1630                           postinc0	equ	0xFEE
  1631                           wreg	equ	0xFE8
  1632                           indf2	equ	0xFDF
  1633                           postinc2	equ	0xFDE
  1634                           postdec2	equ	0xFDD
  1635                           fsr2h	equ	0xFDA
  1636                           fsr2l	equ	0xFD9
  1637                           status	equ	0xFD8
  1638                           
  1639 ;; *************** function _timer0_init *****************
  1640 ;; Defined at:
  1641 ;;		line 13 in file "../My_header\My_hedaer_18F.h"
  1642 ;; Parameters:    Size  Location     Type
  1643 ;;  prescaler       1    wreg     unsigned char 
  1644 ;; Auto vars:     Size  Location     Type
  1645 ;;  prescaler       1   29[COMRAM] unsigned char 
  1646 ;; Return value:  Size  Location     Type
  1647 ;;		None               void
  1648 ;; Registers used:
  1649 ;;		wreg, status,2, status,0
  1650 ;; Tracked objects:
  1651 ;;		On entry : 0/0
  1652 ;;		On exit  : 0/0
  1653 ;;		Unchanged: 0/0
  1654 ;; Data sizes:     COMRAM   BANK0   BANK1   BANK2   BANK3   BANK4   BANK5   BANK6   BANK7   BANK8   BANK9  BANK10  BANK1
      +1  BANK12  BANK13  BANK14
  1655 ;;      Params:         0       0       0       0       0       0       0       0       0       0       0       0       
      +0       0       0       0
  1656 ;;      Locals:         1       0       0       0       0       0       0       0       0       0       0       0       
      +0       0       0       0
  1657 ;;      Temps:          1       0       0       0       0       0       0       0       0       0       0       0       
      +0       0       0       0
  1658 ;;      Totals:         2       0       0       0       0       0       0       0       0       0       0       0       
      +0       0       0       0
  1659 ;;Total ram usage:        2 bytes
  1660 ;; Hardware stack levels used:    1
  1661 ;; Hardware stack levels required when called:    4
  1662 ;; This function calls:
  1663 ;;		Nothing
  1664 ;; This function is called by:
  1665 ;;		_main
  1666 ;; This function uses a non-reentrant model
  1667 ;;
  1668                           
  1669                           	psect	text10
  1670  00168E                     __ptext10:
  1671                           	opt stack 0
  1672  00168E                     _timer0_init:
  1673                           	opt stack 26
  1674                           
  1675                           ;incstack = 0
  1676                           ;timer0_init@prescaler stored from wreg
  1677  00168E  6E1E               	movwf	timer0_init@prescaler,c
  1678                           
  1679                           ;My_header\My_hedaer_18F.h: 14: T0CONbits.TMR0ON = 1;
  1680  001690  8ED5               	bsf	4053,7,c	;volatile
  1681                           
  1682                           ;My_header\My_hedaer_18F.h: 15: T0CONbits.T08BIT = 1;
  1683  001692  8CD5               	bsf	4053,6,c	;volatile
  1684                           
  1685                           ;My_header\My_hedaer_18F.h: 16: T0CONbits.T0CS = 0;
  1686  001694  9AD5               	bcf	4053,5,c	;volatile
  1687                           
  1688                           ;My_header\My_hedaer_18F.h: 17: if (prescaler == 0) {
  1689  001696  661E               	tstfsz	timer0_init@prescaler,c
  1690  001698  D002               	goto	l83
  1691                           
  1692                           ;My_header\My_hedaer_18F.h: 18: T0CONbits.PSA = 1;
  1693  00169A  86D5               	bsf	4053,3,c	;volatile
  1694                           
  1695                           ;My_header\My_hedaer_18F.h: 19: } else {
  1696  00169C  D00A               	goto	l1083
  1697  00169E                     l83:
  1698                           
  1699                           ;My_header\My_hedaer_18F.h: 20: T0CONbits.PSA = 0;
  1700  00169E  96D5               	bcf	4053,3,c	;volatile
  1701                           
  1702                           ;My_header\My_hedaer_18F.h: 21: T0CONbits.T0PS = prescaler - 1;
  1703  0016A0  C01E  F01D         	movff	timer0_init@prescaler,??_timer0_init
  1704  0016A4  0EFF               	movlw	255
  1705  0016A6  261D               	addwf	??_timer0_init,f,c
  1706  0016A8  50D5               	movf	4053,w,c	;volatile
  1707  0016AA  181D               	xorwf	??_timer0_init,w,c
  1708  0016AC  0BF8               	andlw	-8
  1709  0016AE  181D               	xorwf	??_timer0_init,w,c
  1710  0016B0  6ED5               	movwf	4053,c	;volatile
  1711  0016B2                     l1083:
  1712                           
  1713                           ;My_header\My_hedaer_18F.h: 22: }
  1714                           ;My_header\My_hedaer_18F.h: 23: INTCONbits.T0IE = 1;
  1715  0016B2  8AF2               	bsf	intcon,5,c	;volatile
  1716                           
  1717                           ;My_header\My_hedaer_18F.h: 24: INTCONbits.TMR0IF = 0;
  1718  0016B4  94F2               	bcf	intcon,2,c	;volatile
  1719                           
  1720                           ;My_header\My_hedaer_18F.h: 25: INTCON2bits.TMR0IP = 0;
  1721  0016B6  94F1               	bcf	intcon2,2,c	;volatile
  1722                           
  1723                           ;My_header\My_hedaer_18F.h: 26: INTCONbits.PEIE = 1;
  1724  0016B8  8CF2               	bsf	intcon,6,c	;volatile
  1725  0016BA  0012               	return	
  1726  0016BC                     __end_of_timer0_init:
  1727                           	opt stack 0
  1728                           tblptru	equ	0xFF8
  1729                           tblptrh	equ	0xFF7
  1730                           tblptrl	equ	0xFF6
  1731                           tablat	equ	0xFF5
  1732                           prodh	equ	0xFF4
  1733                           prodl	equ	0xFF3
  1734                           intcon	equ	0xFF2
  1735                           intcon2	equ	0xFF1
  1736                           postinc0	equ	0xFEE
  1737                           wreg	equ	0xFE8
  1738                           indf2	equ	0xFDF
  1739                           postinc2	equ	0xFDE
  1740                           postdec2	equ	0xFDD
  1741                           fsr2h	equ	0xFDA
  1742                           fsr2l	equ	0xFD9
  1743                           status	equ	0xFD8
  1744                           
  1745 ;; *************** function _ringbuf_init *****************
  1746 ;; Defined at:
  1747 ;;		line 22 in file "../My_header\My_ringbuf.h"
  1748 ;; Parameters:    Size  Location     Type
  1749 ;;  rb              2   28[COMRAM] PTR struct ringbuf
  1750 ;;		 -> tx_buf(5), 
  1751 ;;  internal_buf    2   30[COMRAM] PTR unsigned char 
  1752 ;;		 -> main@txbuf(200), 
  1753 ;;  bufsize         1   32[COMRAM] unsigned char 
  1754 ;; Auto vars:     Size  Location     Type
  1755 ;;		None
  1756 ;; Return value:  Size  Location     Type
  1757 ;;		None               void
  1758 ;; Registers used:
  1759 ;;		wreg, fsr2l, fsr2h, status,2, status,0
  1760 ;; Tracked objects:
  1761 ;;		On entry : 0/0
  1762 ;;		On exit  : 0/0
  1763 ;;		Unchanged: 0/0
  1764 ;; Data sizes:     COMRAM   BANK0   BANK1   BANK2   BANK3   BANK4   BANK5   BANK6   BANK7   BANK8   BANK9  BANK10  BANK1
      +1  BANK12  BANK13  BANK14
  1765 ;;      Params:         5       0       0       0       0       0       0       0       0       0       0       0       
      +0       0       0       0
  1766 ;;      Locals:         0       0       0       0       0       0       0       0       0       0       0       0       
      +0       0       0       0
  1767 ;;      Temps:          0       0       0       0       0       0       0       0       0       0       0       0       
      +0       0       0       0
  1768 ;;      Totals:         5       0       0       0       0       0       0       0       0       0       0       0       
      +0       0       0       0
  1769 ;;Total ram usage:        5 bytes
  1770 ;; Hardware stack levels used:    1
  1771 ;; Hardware stack levels required when called:    4
  1772 ;; This function calls:
  1773 ;;		Nothing
  1774 ;; This function is called by:
  1775 ;;		_main
  1776 ;; This function uses a non-reentrant model
  1777 ;;
  1778                           
  1779                           	psect	text11
  1780  001588                     __ptext11:
  1781                           	opt stack 0
  1782  001588                     _ringbuf_init:
  1783                           	opt stack 26
  1784                           
  1785                           ;My_header\My_ringbuf.h: 23: rb->buf = internal_buf;
  1786                           
  1787                           ;incstack = 0
  1788  001588  C01D  FFD9         	movff	ringbuf_init@rb,fsr2l
  1789  00158C  C01E  FFDA         	movff	ringbuf_init@rb+1,fsr2h
  1790  001590  C01F  FFDE         	movff	ringbuf_init@internal_buf,postinc2
  1791  001594  C020  FFDD         	movff	ringbuf_init@internal_buf+1,postdec2
  1792                           
  1793                           ;My_header\My_ringbuf.h: 24: rb->size = bufsize;
  1794  001598  EE20 F002          	lfsr	2,2
  1795  00159C  501D               	movf	ringbuf_init@rb,w,c
  1796  00159E  26D9               	addwf	fsr2l,f,c
  1797  0015A0  501E               	movf	ringbuf_init@rb+1,w,c
  1798  0015A2  22DA               	addwfc	fsr2h,f,c
  1799  0015A4  C021  FFDF         	movff	ringbuf_init@bufsize,indf2
  1800                           
  1801                           ;My_header\My_ringbuf.h: 25: rb->head = 0;
  1802  0015A8  EE20 F003          	lfsr	2,3
  1803  0015AC  501D               	movf	ringbuf_init@rb,w,c
  1804  0015AE  26D9               	addwf	fsr2l,f,c
  1805  0015B0  501E               	movf	ringbuf_init@rb+1,w,c
  1806  0015B2  22DA               	addwfc	fsr2h,f,c
  1807  0015B4  0E00               	movlw	0
  1808  0015B6  6EDF               	movwf	indf2,c
  1809                           
  1810                           ;My_header\My_ringbuf.h: 26: rb->tail = 0;
  1811  0015B8  EE20 F004          	lfsr	2,4
  1812  0015BC  501D               	movf	ringbuf_init@rb,w,c
  1813  0015BE  26D9               	addwf	fsr2l,f,c
  1814  0015C0  501E               	movf	ringbuf_init@rb+1,w,c
  1815  0015C2  22DA               	addwfc	fsr2h,f,c
  1816  0015C4  0E00               	movlw	0
  1817  0015C6  6EDF               	movwf	indf2,c
  1818  0015C8  0012               	return	
  1819  0015CA                     __end_of_ringbuf_init:
  1820                           	opt stack 0
  1821                           tblptru	equ	0xFF8
  1822                           tblptrh	equ	0xFF7
  1823                           tblptrl	equ	0xFF6
  1824                           tablat	equ	0xFF5
  1825                           prodh	equ	0xFF4
  1826                           prodl	equ	0xFF3
  1827                           intcon	equ	0xFF2
  1828                           intcon2	equ	0xFF1
  1829                           postinc0	equ	0xFEE
  1830                           wreg	equ	0xFE8
  1831                           indf2	equ	0xFDF
  1832                           postinc2	equ	0xFDE
  1833                           postdec2	equ	0xFDD
  1834                           fsr2h	equ	0xFDA
  1835                           fsr2l	equ	0xFD9
  1836                           status	equ	0xFD8
  1837                           
  1838 ;; *************** function _UART_init *****************
  1839 ;; Defined at:
  1840 ;;		line 21 in file "../My_header\My_UART_18F.h"
  1841 ;; Parameters:    Size  Location     Type
  1842 ;;  interrupt_ON    1    wreg     unsigned char 
  1843 ;; Auto vars:     Size  Location     Type
  1844 ;;  interrupt_ON    1   28[COMRAM] unsigned char 
  1845 ;; Return value:  Size  Location     Type
  1846 ;;		None               void
  1847 ;; Registers used:
  1848 ;;		wreg, status,2
  1849 ;; Tracked objects:
  1850 ;;		On entry : 0/0
  1851 ;;		On exit  : 0/0
  1852 ;;		Unchanged: 0/0
  1853 ;; Data sizes:     COMRAM   BANK0   BANK1   BANK2   BANK3   BANK4   BANK5   BANK6   BANK7   BANK8   BANK9  BANK10  BANK1
      +1  BANK12  BANK13  BANK14
  1854 ;;      Params:         0       0       0       0       0       0       0       0       0       0       0       0       
      +0       0       0       0
  1855 ;;      Locals:         1       0       0       0       0       0       0       0       0       0       0       0       
      +0       0       0       0
  1856 ;;      Temps:          0       0       0       0       0       0       0       0       0       0       0       0       
      +0       0       0       0
  1857 ;;      Totals:         1       0       0       0       0       0       0       0       0       0       0       0       
      +0       0       0       0
  1858 ;;Total ram usage:        1 bytes
  1859 ;; Hardware stack levels used:    1
  1860 ;; Hardware stack levels required when called:    4
  1861 ;; This function calls:
  1862 ;;		Nothing
  1863 ;; This function is called by:
  1864 ;;		_main
  1865 ;; This function uses a non-reentrant model
  1866 ;;
  1867                           
  1868                           	psect	text12
  1869  001710                     __ptext12:
  1870                           	opt stack 0
  1871  001710                     _UART_init:
  1872                           	opt stack 26
  1873                           
  1874                           ;incstack = 0
  1875                           ;UART_init@interrupt_ON stored from wreg
  1876  001710  6E1D               	movwf	UART_init@interrupt_ON,c
  1877                           
  1878                           ;My_header\My_UART_18F.h: 22: TXSTA1bits.TX9 = 0;
  1879  001712  9CAD               	bcf	4013,6,c	;volatile
  1880                           
  1881                           ;My_header\My_UART_18F.h: 23: TXSTA1bits.TXEN = 1;
  1882  001714  8AAD               	bsf	4013,5,c	;volatile
  1883                           
  1884                           ;My_header\My_UART_18F.h: 24: TXSTA1bits.SYNC = 0;
  1885  001716  98AD               	bcf	4013,4,c	;volatile
  1886                           
  1887                           ;My_header\My_UART_18F.h: 25: TXSTA1bits.BRGH = 0;
  1888  001718  94AD               	bcf	4013,2,c	;volatile
  1889                           
  1890                           ;My_header\My_UART_18F.h: 26: RCSTA1bits.SPEN = 1;
  1891  00171A  8EAC               	bsf	4012,7,c	;volatile
  1892                           
  1893                           ;My_header\My_UART_18F.h: 27: RCSTA1bits.RX9 = 0;
  1894  00171C  9CAC               	bcf	4012,6,c	;volatile
  1895                           
  1896                           ;My_header\My_UART_18F.h: 28: RCSTA1bits.CREN = 1;
  1897  00171E  88AC               	bsf	4012,4,c	;volatile
  1898                           
  1899                           ;My_header\My_UART_18F.h: 29: BAUDCON1bits.BRG16 = 0;
  1900  001720  967E               	bcf	3966,3,c	;volatile
  1901                           
  1902                           ;My_header\My_UART_18F.h: 30: SPBRG1 = 48000000 / 64 / 9600 - 1;
  1903  001722  0E4D               	movlw	77
  1904  001724  6EB0               	movwf	4016,c	;volatile
  1905                           
  1906                           ;My_header\My_UART_18F.h: 31: SPBRGH1 = 0;
  1907  001726  0E00               	movlw	0
  1908  001728  6E7F               	movwf	3967,c	;volatile
  1909                           
  1910                           ;My_header\My_UART_18F.h: 32: if (interrupt_ON) {
  1911  00172A  501D               	movf	UART_init@interrupt_ON,w,c
  1912  00172C  B4D8               	btfsc	status,2,c
  1913  00172E  0012               	return	
  1914                           
  1915                           ;My_header\My_UART_18F.h: 33: IPR1bits.RC1IP = 0;
  1916  001730  9A9F               	bcf	3999,5,c	;volatile
  1917                           
  1918                           ;My_header\My_UART_18F.h: 34: PIE1bits.RC1IE = 1;
  1919  001732  8A9D               	bsf	3997,5,c	;volatile
  1920                           
  1921                           ;My_header\My_UART_18F.h: 35: INTCONbits.PEIE = 1;
  1922  001734  8CF2               	bsf	intcon,6,c	;volatile
  1923  001736  0012               	return	
  1924  001738                     __end_of_UART_init:
  1925                           	opt stack 0
  1926                           tblptru	equ	0xFF8
  1927                           tblptrh	equ	0xFF7
  1928                           tblptrl	equ	0xFF6
  1929                           tablat	equ	0xFF5
  1930                           prodh	equ	0xFF4
  1931                           prodl	equ	0xFF3
  1932                           intcon	equ	0xFF2
  1933                           intcon2	equ	0xFF1
  1934                           postinc0	equ	0xFEE
  1935                           wreg	equ	0xFE8
  1936                           indf2	equ	0xFDF
  1937                           postinc2	equ	0xFDE
  1938                           postdec2	equ	0xFDD
  1939                           fsr2h	equ	0xFDA
  1940                           fsr2l	equ	0xFD9
  1941                           status	equ	0xFD8
  1942                           
  1943 ;; *************** function _I2C_init *****************
  1944 ;; Defined at:
  1945 ;;		line 21 in file "../My_header\My_I2C_18F.h"
  1946 ;; Parameters:    Size  Location     Type
  1947 ;;		None
  1948 ;; Auto vars:     Size  Location     Type
  1949 ;;		None
  1950 ;; Return value:  Size  Location     Type
  1951 ;;		None               void
  1952 ;; Registers used:
  1953 ;;		wreg, status,2
  1954 ;; Tracked objects:
  1955 ;;		On entry : 0/0
  1956 ;;		On exit  : 0/0
  1957 ;;		Unchanged: 0/0
  1958 ;; Data sizes:     COMRAM   BANK0   BANK1   BANK2   BANK3   BANK4   BANK5   BANK6   BANK7   BANK8   BANK9  BANK10  BANK1
      +1  BANK12  BANK13  BANK14
  1959 ;;      Params:         0       0       0       0       0       0       0       0       0       0       0       0       
      +0       0       0       0
  1960 ;;      Locals:         0       0       0       0       0       0       0       0       0       0       0       0       
      +0       0       0       0
  1961 ;;      Temps:          0       0       0       0       0       0       0       0       0       0       0       0       
      +0       0       0       0
  1962 ;;      Totals:         0       0       0       0       0       0       0       0       0       0       0       0       
      +0       0       0       0
  1963 ;;Total ram usage:        0 bytes
  1964 ;; Hardware stack levels used:    1
  1965 ;; Hardware stack levels required when called:    4
  1966 ;; This function calls:
  1967 ;;		Nothing
  1968 ;; This function is called by:
  1969 ;;		_main
  1970 ;; This function uses a non-reentrant model
  1971 ;;
  1972                           
  1973                           	psect	text13
  1974  001834                     __ptext13:
  1975                           	opt stack 0
  1976  001834                     _I2C_init:
  1977                           	opt stack 26
  1978                           
  1979                           ;My_header\My_I2C_18F.h: 22: SSP1STAT = 0b10000000;
  1980                           
  1981                           ;incstack = 0
  1982  001834  0E80               	movlw	128
  1983  001836  6EC7               	movwf	4039,c	;volatile
  1984                           
  1985                           ;My_header\My_I2C_18F.h: 23: SSP1CON1 = 0b00101000;
  1986  001838  0E28               	movlw	40
  1987  00183A  6EC6               	movwf	4038,c	;volatile
  1988                           
  1989                           ;My_header\My_I2C_18F.h: 24: SSP1ADD = 0x13;
  1990  00183C  0E13               	movlw	19
  1991  00183E  6EC8               	movwf	4040,c	;volatile
  1992                           
  1993                           ;My_header\My_I2C_18F.h: 27: SSP1IF = 0;
  1994  001840  969E               	bcf	3998,3,c	;volatile
  1995                           
  1996                           ;My_header\My_I2C_18F.h: 28: BCL1IF = 0;
  1997  001842  96A1               	bcf	4001,3,c	;volatile
  1998  001844  0012               	return	
  1999  001846                     __end_of_I2C_init:
  2000                           	opt stack 0
  2001                           tblptru	equ	0xFF8
  2002                           tblptrh	equ	0xFF7
  2003                           tblptrl	equ	0xFF6
  2004                           tablat	equ	0xFF5
  2005                           prodh	equ	0xFF4
  2006                           prodl	equ	0xFF3
  2007                           intcon	equ	0xFF2
  2008                           intcon2	equ	0xFF1
  2009                           postinc0	equ	0xFEE
  2010                           wreg	equ	0xFE8
  2011                           indf2	equ	0xFDF
  2012                           postinc2	equ	0xFDE
  2013                           postdec2	equ	0xFDD
  2014                           fsr2h	equ	0xFDA
  2015                           fsr2l	equ	0xFD9
  2016                           status	equ	0xFD8
  2017                           
  2018 ;; *************** function _I2C_LCD_init *****************
  2019 ;; Defined at:
  2020 ;;		line 84 in file "../My_header\My_I2C.h"
  2021 ;; Parameters:    Size  Location     Type
  2022 ;;		None
  2023 ;; Auto vars:     Size  Location     Type
  2024 ;;		None
  2025 ;; Return value:  Size  Location     Type
  2026 ;;		None               void
  2027 ;; Registers used:
  2028 ;;		wreg, status,2, status,0, cstack
  2029 ;; Tracked objects:
  2030 ;;		On entry : 0/0
  2031 ;;		On exit  : 0/0
  2032 ;;		Unchanged: 0/0
  2033 ;; Data sizes:     COMRAM   BANK0   BANK1   BANK2   BANK3   BANK4   BANK5   BANK6   BANK7   BANK8   BANK9  BANK10  BANK1
      +1  BANK12  BANK13  BANK14
  2034 ;;      Params:         0       0       0       0       0       0       0       0       0       0       0       0       
      +0       0       0       0
  2035 ;;      Locals:         0       0       0       0       0       0       0       0       0       0       0       0       
      +0       0       0       0
  2036 ;;      Temps:          0       0       0       0       0       0       0       0       0       0       0       0       
      +0       0       0       0
  2037 ;;      Totals:         0       0       0       0       0       0       0       0       0       0       0       0       
      +0       0       0       0
  2038 ;;Total ram usage:        0 bytes
  2039 ;; Hardware stack levels used:    1
  2040 ;; Hardware stack levels required when called:    8
  2041 ;; This function calls:
  2042 ;;		_Delay_ms
  2043 ;;		_I2C_LCD_Clear
  2044 ;;		_I2C_LCD_Command
  2045 ;; This function is called by:
  2046 ;;		_main
  2047 ;; This function uses a non-reentrant model
  2048 ;;
  2049                           
  2050                           	psect	text14
  2051  00145C                     __ptext14:
  2052                           	opt stack 0
  2053  00145C                     _I2C_LCD_init:
  2054                           	opt stack 22
  2055                           
  2056                           ;My_header\My_I2C.h: 85: Delay_ms(40);
  2057                           
  2058                           ;incstack = 0
  2059  00145C  0E00               	movlw	0
  2060  00145E  6E1E               	movwf	Delay_ms@ms+1,c
  2061  001460  0E28               	movlw	40
  2062  001462  6E1D               	movwf	Delay_ms@ms,c
  2063  001464  ECC2  F00B         	call	_Delay_ms	;wreg free
  2064                           
  2065                           ;My_header\My_I2C.h: 86: I2C_LCD_Command(0x38);
  2066  001468  0E38               	movlw	56
  2067  00146A  EC5E  F00B         	call	_I2C_LCD_Command
  2068                           
  2069                           ;My_header\My_I2C.h: 87: I2C_LCD_Command(0x39);
  2070  00146E  0E39               	movlw	57
  2071  001470  EC5E  F00B         	call	_I2C_LCD_Command
  2072                           
  2073                           ;My_header\My_I2C.h: 88: I2C_LCD_Command(0x14);
  2074  001474  0E14               	movlw	20
  2075  001476  EC5E  F00B         	call	_I2C_LCD_Command
  2076                           
  2077                           ;My_header\My_I2C.h: 89: I2C_LCD_Command(0x70);
  2078  00147A  0E70               	movlw	112
  2079  00147C  EC5E  F00B         	call	_I2C_LCD_Command
  2080                           
  2081                           ;My_header\My_I2C.h: 90: I2C_LCD_Command(0x56);
  2082  001480  0E56               	movlw	86
  2083  001482  EC5E  F00B         	call	_I2C_LCD_Command
  2084                           
  2085                           ;My_header\My_I2C.h: 91: I2C_LCD_Command(0x6C);
  2086  001486  0E6C               	movlw	108
  2087  001488  EC5E  F00B         	call	_I2C_LCD_Command
  2088                           
  2089                           ;My_header\My_I2C.h: 92: Delay_ms(200);
  2090  00148C  0E00               	movlw	0
  2091  00148E  6E1E               	movwf	Delay_ms@ms+1,c
  2092  001490  0EC8               	movlw	200
  2093  001492  6E1D               	movwf	Delay_ms@ms,c
  2094  001494  ECC2  F00B         	call	_Delay_ms	;wreg free
  2095                           
  2096                           ;My_header\My_I2C.h: 93: I2C_LCD_Command(0x38);
  2097  001498  0E38               	movlw	56
  2098  00149A  EC5E  F00B         	call	_I2C_LCD_Command
  2099                           
  2100                           ;My_header\My_I2C.h: 94: I2C_LCD_Command(0x0C);
  2101  00149E  0E0C               	movlw	12
  2102  0014A0  EC5E  F00B         	call	_I2C_LCD_Command
  2103                           
  2104                           ;My_header\My_I2C.h: 95: I2C_LCD_Command(0x06);
  2105  0014A4  0E06               	movlw	6
  2106  0014A6  EC5E  F00B         	call	_I2C_LCD_Command
  2107                           
  2108                           ;My_header\My_I2C.h: 96: I2C_LCD_Clear();
  2109  0014AA  ECE2  F00B         	call	_I2C_LCD_Clear	;wreg free
  2110  0014AE  0012               	return	
  2111  0014B0                     __end_of_I2C_LCD_init:
  2112                           	opt stack 0
  2113                           tblptru	equ	0xFF8
  2114                           tblptrh	equ	0xFF7
  2115                           tblptrl	equ	0xFF6
  2116                           tablat	equ	0xFF5
  2117                           prodh	equ	0xFF4
  2118                           prodl	equ	0xFF3
  2119                           intcon	equ	0xFF2
  2120                           intcon2	equ	0xFF1
  2121                           postinc0	equ	0xFEE
  2122                           wreg	equ	0xFE8
  2123                           indf2	equ	0xFDF
  2124                           postinc2	equ	0xFDE
  2125                           postdec2	equ	0xFDD
  2126                           fsr2h	equ	0xFDA
  2127                           fsr2l	equ	0xFD9
  2128                           status	equ	0xFD8
  2129                           
  2130 ;; *************** function _I2C_LCD_Clear *****************
  2131 ;; Defined at:
  2132 ;;		line 27 in file "../My_header\My_I2C.h"
  2133 ;; Parameters:    Size  Location     Type
  2134 ;;		None
  2135 ;; Auto vars:     Size  Location     Type
  2136 ;;		None
  2137 ;; Return value:  Size  Location     Type
  2138 ;;		None               void
  2139 ;; Registers used:
  2140 ;;		wreg, status,2, status,0, cstack
  2141 ;; Tracked objects:
  2142 ;;		On entry : 0/0
  2143 ;;		On exit  : 0/0
  2144 ;;		Unchanged: 0/0
  2145 ;; Data sizes:     COMRAM   BANK0   BANK1   BANK2   BANK3   BANK4   BANK5   BANK6   BANK7   BANK8   BANK9  BANK10  BANK1
      +1  BANK12  BANK13  BANK14
  2146 ;;      Params:         0       0       0       0       0       0       0       0       0       0       0       0       
      +0       0       0       0
  2147 ;;      Locals:         0       0       0       0       0       0       0       0       0       0       0       0       
      +0       0       0       0
  2148 ;;      Temps:          1       0       0       0       0       0       0       0       0       0       0       0       
      +0       0       0       0
  2149 ;;      Totals:         1       0       0       0       0       0       0       0       0       0       0       0       
      +0       0       0       0
  2150 ;;Total ram usage:        1 bytes
  2151 ;; Hardware stack levels used:    1
  2152 ;; Hardware stack levels required when called:    7
  2153 ;; This function calls:
  2154 ;;		_I2C_LCD_Command
  2155 ;; This function is called by:
  2156 ;;		_I2C_LCD_init
  2157 ;;		_main
  2158 ;; This function uses a non-reentrant model
  2159 ;;
  2160                           
  2161                           	psect	text15
  2162  0017C4                     __ptext15:
  2163                           	opt stack 0
  2164  0017C4                     _I2C_LCD_Clear:
  2165                           	opt stack 22
  2166                           
  2167                           ;My_header\My_I2C.h: 28: I2C_LCD_Command(0x01);
  2168                           
  2169                           ;incstack = 0
  2170  0017C4  0E01               	movlw	1
  2171  0017C6  EC5E  F00B         	call	_I2C_LCD_Command
  2172                           
  2173                           ;My_header\My_I2C.h: 29: _delay((unsigned long)((1100)*(48000000/4000000.0)));
  2174  0017CA  0E12               	movlw	18
  2175  0017CC  6E23               	movwf	??_I2C_LCD_Clear& (0+255),c
  2176  0017CE  0E23               	movlw	35
  2177  0017D0                     u867:
  2178  0017D0  2EE8               	decfsz	wreg,f,c
  2179  0017D2  D7FE               	goto	u867
  2180  0017D4  2E23               	decfsz	??_I2C_LCD_Clear& (0+255),f,c
  2181  0017D6  D7FC               	goto	u867
  2182  0017D8  F000               	nop	
  2183  0017DA  0012               	return	
  2184  0017DC                     __end_of_I2C_LCD_Clear:
  2185                           	opt stack 0
  2186                           tblptru	equ	0xFF8
  2187                           tblptrh	equ	0xFF7
  2188                           tblptrl	equ	0xFF6
  2189                           tablat	equ	0xFF5
  2190                           prodh	equ	0xFF4
  2191                           prodl	equ	0xFF3
  2192                           intcon	equ	0xFF2
  2193                           intcon2	equ	0xFF1
  2194                           postinc0	equ	0xFEE
  2195                           wreg	equ	0xFE8
  2196                           indf2	equ	0xFDF
  2197                           postinc2	equ	0xFDE
  2198                           postdec2	equ	0xFDD
  2199                           fsr2h	equ	0xFDA
  2200                           fsr2l	equ	0xFD9
  2201                           status	equ	0xFD8
  2202                           
  2203 ;; *************** function _Delay_ms *****************
  2204 ;; Defined at:
  2205 ;;		line 92 in file "../My_header\My_hedaer_18F.h"
  2206 ;; Parameters:    Size  Location     Type
  2207 ;;  ms              2   28[COMRAM] unsigned int 
  2208 ;; Auto vars:     Size  Location     Type
  2209 ;;		None
  2210 ;; Return value:  Size  Location     Type
  2211 ;;		None               void
  2212 ;; Registers used:
  2213 ;;		wreg, status,2, status,0
  2214 ;; Tracked objects:
  2215 ;;		On entry : 0/0
  2216 ;;		On exit  : 0/0
  2217 ;;		Unchanged: 0/0
  2218 ;; Data sizes:     COMRAM   BANK0   BANK1   BANK2   BANK3   BANK4   BANK5   BANK6   BANK7   BANK8   BANK9  BANK10  BANK1
      +1  BANK12  BANK13  BANK14
  2219 ;;      Params:         2       0       0       0       0       0       0       0       0       0       0       0       
      +0       0       0       0
  2220 ;;      Locals:         0       0       0       0       0       0       0       0       0       0       0       0       
      +0       0       0       0
  2221 ;;      Temps:          1       0       0       0       0       0       0       0       0       0       0       0       
      +0       0       0       0
  2222 ;;      Totals:         3       0       0       0       0       0       0       0       0       0       0       0       
      +0       0       0       0
  2223 ;;Total ram usage:        3 bytes
  2224 ;; Hardware stack levels used:    1
  2225 ;; Hardware stack levels required when called:    4
  2226 ;; This function calls:
  2227 ;;		Nothing
  2228 ;; This function is called by:
  2229 ;;		_I2C_LCD_init
  2230 ;;		_main
  2231 ;; This function uses a non-reentrant model
  2232 ;;
  2233                           
  2234                           	psect	text16
  2235  001784                     __ptext16:
  2236                           	opt stack 0
  2237  001784                     _Delay_ms:
  2238                           	opt stack 25
  2239                           
  2240                           ;My_header\My_hedaer_18F.h: 93: while (ms--)_delay((unsigned long)((1)*(48000000/4000.0)
      +                          ));
  2241                           
  2242                           ;incstack = 0
  2243  001784  D008               	goto	l991
  2244  001786                     l989:
  2245  001786  0E10               	movlw	16
  2246  001788  6E1F               	movwf	??_Delay_ms& (0+255),c
  2247  00178A  0E94               	movlw	148
  2248  00178C                     u877:
  2249  00178C  2EE8               	decfsz	wreg,f,c
  2250  00178E  D7FE               	goto	u877
  2251  001790  2E1F               	decfsz	??_Delay_ms& (0+255),f,c
  2252  001792  D7FC               	goto	u877
  2253  001794  D000               	nop2	
  2254  001796                     l991:
  2255  001796  061D               	decf	Delay_ms@ms,f,c
  2256  001798  A0D8               	btfss	status,0,c
  2257  00179A  061E               	decf	Delay_ms@ms+1,f,c
  2258  00179C  281D               	incf	Delay_ms@ms& (0+255),w,c
  2259  00179E  B4D8               	btfsc	status,2,c
  2260  0017A0  281E               	incf	(Delay_ms@ms+1)& (0+255),w,c
  2261  0017A2  B4D8               	btfsc	status,2,c
  2262  0017A4  0012               	return	
  2263  0017A6  D7EF               	goto	l989
  2264  0017A8                     __end_of_Delay_ms:
  2265                           	opt stack 0
  2266                           tblptru	equ	0xFF8
  2267                           tblptrh	equ	0xFF7
  2268                           tblptrl	equ	0xFF6
  2269                           tablat	equ	0xFF5
  2270                           prodh	equ	0xFF4
  2271                           prodl	equ	0xFF3
  2272                           intcon	equ	0xFF2
  2273                           intcon2	equ	0xFF1
  2274                           postinc0	equ	0xFEE
  2275                           wreg	equ	0xFE8
  2276                           indf2	equ	0xFDF
  2277                           postinc2	equ	0xFDE
  2278                           postdec2	equ	0xFDD
  2279                           fsr2h	equ	0xFDA
  2280                           fsr2l	equ	0xFD9
  2281                           status	equ	0xFD8
  2282                           
  2283 ;; *************** function _I2C_LCD_SetCursor *****************
  2284 ;; Defined at:
  2285 ;;		line 32 in file "../My_header\My_I2C.h"
  2286 ;; Parameters:    Size  Location     Type
  2287 ;;  col             1    wreg     unsigned char 
  2288 ;;  row             1   34[COMRAM] unsigned char 
  2289 ;; Auto vars:     Size  Location     Type
  2290 ;;  col             1   37[COMRAM] unsigned char 
  2291 ;;  row_offsets     2   35[COMRAM] unsigned char [2]
  2292 ;; Return value:  Size  Location     Type
  2293 ;;		None               void
  2294 ;; Registers used:
  2295 ;;		wreg, fsr2l, fsr2h, status,2, status,0, prodl, prodh, cstack
  2296 ;; Tracked objects:
  2297 ;;		On entry : 0/0
  2298 ;;		On exit  : 0/0
  2299 ;;		Unchanged: 0/0
  2300 ;; Data sizes:     COMRAM   BANK0   BANK1   BANK2   BANK3   BANK4   BANK5   BANK6   BANK7   BANK8   BANK9  BANK10  BANK1
      +1  BANK12  BANK13  BANK14
  2301 ;;      Params:         1       0       0       0       0       0       0       0       0       0       0       0       
      +0       0       0       0
  2302 ;;      Locals:         3       0       0       0       0       0       0       0       0       0       0       0       
      +0       0       0       0
  2303 ;;      Temps:          0       0       0       0       0       0       0       0       0       0       0       0       
      +0       0       0       0
  2304 ;;      Totals:         4       0       0       0       0       0       0       0       0       0       0       0       
      +0       0       0       0
  2305 ;;Total ram usage:        4 bytes
  2306 ;; Hardware stack levels used:    1
  2307 ;; Hardware stack levels required when called:    7
  2308 ;; This function calls:
  2309 ;;		_I2C_LCD_Command
  2310 ;; This function is called by:
  2311 ;;		_main
  2312 ;; This function uses a non-reentrant model
  2313 ;;
  2314                           
  2315                           	psect	text17
  2316  00175E                     __ptext17:
  2317                           	opt stack 0
  2318  00175E                     _I2C_LCD_SetCursor:
  2319                           	opt stack 23
  2320                           
  2321                           ;incstack = 0
  2322                           ;I2C_LCD_SetCursor@col stored from wreg
  2323  00175E  6E26               	movwf	I2C_LCD_SetCursor@col,c
  2324                           
  2325                           ;My_header\My_I2C.h: 33: uint8_t row_offsets[] = {0x00, 0x40};
  2326  001760  C037  F024         	movff	I2C_LCD_SetCursor@F9822,I2C_LCD_SetCursor@row_offsets
  2327  001764  C038  F025         	movff	I2C_LCD_SetCursor@F9822+1,I2C_LCD_SetCursor@row_offsets+1
  2328                           
  2329                           ;My_header\My_I2C.h: 35: I2C_LCD_Command(0x80 | (col + row_offsets[row]));
  2330  001768  5023               	movf	I2C_LCD_SetCursor@row,w,c
  2331  00176A  0D01               	mullw	1
  2332  00176C  0E24               	movlw	low I2C_LCD_SetCursor@row_offsets
  2333  00176E  24F3               	addwf	prodl,w,c
  2334  001770  6ED9               	movwf	fsr2l,c
  2335  001772  0E00               	movlw	high I2C_LCD_SetCursor@row_offsets
  2336  001774  20F4               	addwfc	prodh,w,c
  2337  001776  6EDA               	movwf	fsr2h,c
  2338  001778  50DF               	movf	indf2,w,c
  2339  00177A  2426               	addwf	I2C_LCD_SetCursor@col,w,c
  2340  00177C  0980               	iorlw	128
  2341  00177E  EC5E  F00B         	call	_I2C_LCD_Command
  2342  001782  0012               	return	
  2343  001784                     __end_of_I2C_LCD_SetCursor:
  2344                           	opt stack 0
  2345                           tblptru	equ	0xFF8
  2346                           tblptrh	equ	0xFF7
  2347                           tblptrl	equ	0xFF6
  2348                           tablat	equ	0xFF5
  2349                           prodh	equ	0xFF4
  2350                           prodl	equ	0xFF3
  2351                           intcon	equ	0xFF2
  2352                           intcon2	equ	0xFF1
  2353                           postinc0	equ	0xFEE
  2354                           wreg	equ	0xFE8
  2355                           indf2	equ	0xFDF
  2356                           postinc2	equ	0xFDE
  2357                           postdec2	equ	0xFDD
  2358                           fsr2h	equ	0xFDA
  2359                           fsr2l	equ	0xFD9
  2360                           status	equ	0xFD8
  2361                           
  2362 ;; *************** function _I2C_LCD_Command *****************
  2363 ;; Defined at:
  2364 ;;		line 14 in file "../My_header\My_I2C.h"
  2365 ;; Parameters:    Size  Location     Type
  2366 ;;  c               1    wreg     unsigned char 
  2367 ;; Auto vars:     Size  Location     Type
  2368 ;;  c               1   32[COMRAM] unsigned char 
  2369 ;;  ans             1   33[COMRAM] unsigned char 
  2370 ;; Return value:  Size  Location     Type
  2371 ;;		None               void
  2372 ;; Registers used:
  2373 ;;		wreg, status,2, status,0, cstack
  2374 ;; Tracked objects:
  2375 ;;		On entry : 0/0
  2376 ;;		On exit  : 0/0
  2377 ;;		Unchanged: 0/0
  2378 ;; Data sizes:     COMRAM   BANK0   BANK1   BANK2   BANK3   BANK4   BANK5   BANK6   BANK7   BANK8   BANK9  BANK10  BANK1
      +1  BANK12  BANK13  BANK14
  2379 ;;      Params:         0       0       0       0       0       0       0       0       0       0       0       0       
      +0       0       0       0
  2380 ;;      Locals:         2       0       0       0       0       0       0       0       0       0       0       0       
      +0       0       0       0
  2381 ;;      Temps:          0       0       0       0       0       0       0       0       0       0       0       0       
      +0       0       0       0
  2382 ;;      Totals:         2       0       0       0       0       0       0       0       0       0       0       0       
      +0       0       0       0
  2383 ;;Total ram usage:        2 bytes
  2384 ;; Hardware stack levels used:    1
  2385 ;; Hardware stack levels required when called:    6
  2386 ;; This function calls:
  2387 ;;		_I2C_Send
  2388 ;;		_I2C_Start
  2389 ;;		_I2C_Stop
  2390 ;; This function is called by:
  2391 ;;		_I2C_LCD_Clear
  2392 ;;		_I2C_LCD_SetCursor
  2393 ;;		_I2C_LCD_init
  2394 ;; This function uses a non-reentrant model
  2395 ;;
  2396                           
  2397                           	psect	text18
  2398  0016BC                     __ptext18:
  2399                           	opt stack 0
  2400  0016BC                     _I2C_LCD_Command:
  2401                           	opt stack 23
  2402                           
  2403                           ;incstack = 0
  2404                           ;I2C_LCD_Command@c stored from wreg
  2405  0016BC  6E21               	movwf	I2C_LCD_Command@c,c
  2406                           
  2407                           ;My_header\My_I2C.h: 15: uint8_t ans;
  2408                           ;My_header\My_I2C.h: 17: ans = I2C_Start(0x3E, 0);
  2409  0016BE  0E00               	movlw	0
  2410  0016C0  6E1F               	movwf	I2C_Start@rw,c
  2411  0016C2  0E3E               	movlw	62
  2412  0016C4  EC73  F00B         	call	_I2C_Start
  2413  0016C8  6E22               	movwf	I2C_LCD_Command@ans,c
  2414                           
  2415                           ;My_header\My_I2C.h: 18: if (ans == 0) {
  2416  0016CA  6622               	tstfsz	I2C_LCD_Command@ans,c
  2417  0016CC  D006               	goto	l246
  2418                           
  2419                           ;My_header\My_I2C.h: 20: I2C_Send(0b10000000);
  2420  0016CE  0E80               	movlw	128
  2421  0016D0  ECF9  F00B         	call	_I2C_Send
  2422                           
  2423                           ;My_header\My_I2C.h: 21: I2C_Send(c);
  2424  0016D4  5021               	movf	I2C_LCD_Command@c,w,c
  2425  0016D6  ECF9  F00B         	call	_I2C_Send
  2426  0016DA                     l246:
  2427                           
  2428                           ;My_header\My_I2C.h: 22: }
  2429                           ;My_header\My_I2C.h: 23: I2C_Stop();
  2430  0016DA  EC23  F00C         	call	_I2C_Stop	;wreg free
  2431                           
  2432                           ;My_header\My_I2C.h: 24: _delay((unsigned long)((26)*(48000000/4000000.0)));
  2433  0016DE  0E68               	movlw	104
  2434  0016E0                     u887:
  2435  0016E0  2EE8               	decfsz	wreg,f,c
  2436  0016E2  D7FE               	goto	u887
  2437  0016E4  0012               	return	
  2438  0016E6                     __end_of_I2C_LCD_Command:
  2439                           	opt stack 0
  2440                           tblptru	equ	0xFF8
  2441                           tblptrh	equ	0xFF7
  2442                           tblptrl	equ	0xFF6
  2443                           tablat	equ	0xFF5
  2444                           prodh	equ	0xFF4
  2445                           prodl	equ	0xFF3
  2446                           intcon	equ	0xFF2
  2447                           intcon2	equ	0xFF1
  2448                           postinc0	equ	0xFEE
  2449                           wreg	equ	0xFE8
  2450                           indf2	equ	0xFDF
  2451                           postinc2	equ	0xFDE
  2452                           postdec2	equ	0xFDD
  2453                           fsr2h	equ	0xFDA
  2454                           fsr2l	equ	0xFD9
  2455                           status	equ	0xFD8
  2456                           
  2457 ;; *************** function _I2C_LCD_Puts *****************
  2458 ;; Defined at:
  2459 ;;		line 51 in file "../My_header\My_I2C.h"
  2460 ;; Parameters:    Size  Location     Type
  2461 ;;  s               2   32[COMRAM] PTR const unsigned char 
  2462 ;;		 -> main@data(100), STR_2(4), STR_1(9), 
  2463 ;; Auto vars:     Size  Location     Type
  2464 ;;  ans             2   35[COMRAM] int 
  2465 ;; Return value:  Size  Location     Type
  2466 ;;		None               void
  2467 ;; Registers used:
  2468 ;;		wreg, fsr2l, fsr2h, status,2, status,0, tblptrl, tblptrh, tblptru, cstack
  2469 ;; Tracked objects:
  2470 ;;		On entry : 0/0
  2471 ;;		On exit  : 0/0
  2472 ;;		Unchanged: 0/0
  2473 ;; Data sizes:     COMRAM   BANK0   BANK1   BANK2   BANK3   BANK4   BANK5   BANK6   BANK7   BANK8   BANK9  BANK10  BANK1
      +1  BANK12  BANK13  BANK14
  2474 ;;      Params:         2       0       0       0       0       0       0       0       0       0       0       0       
      +0       0       0       0
  2475 ;;      Locals:         2       0       0       0       0       0       0       0       0       0       0       0       
      +0       0       0       0
  2476 ;;      Temps:          1       0       0       0       0       0       0       0       0       0       0       0       
      +0       0       0       0
  2477 ;;      Totals:         5       0       0       0       0       0       0       0       0       0       0       0       
      +0       0       0       0
  2478 ;;Total ram usage:        5 bytes
  2479 ;; Hardware stack levels used:    1
  2480 ;; Hardware stack levels required when called:    6
  2481 ;; This function calls:
  2482 ;;		_I2C_Send
  2483 ;;		_I2C_Start
  2484 ;;		_I2C_Stop
  2485 ;; This function is called by:
  2486 ;;		_main
  2487 ;; This function uses a non-reentrant model
  2488 ;;
  2489                           
  2490                           	psect	text19
  2491  001268                     __ptext19:
  2492                           	opt stack 0
  2493  001268                     _I2C_LCD_Puts:
  2494                           	opt stack 24
  2495                           
  2496                           ;My_header\My_I2C.h: 52: int ans;
  2497                           ;My_header\My_I2C.h: 54: ans = I2C_Start(0x3E, 0);
  2498                           
  2499                           ;incstack = 0
  2500  001268  0E00               	movlw	0
  2501  00126A  6E1F               	movwf	I2C_Start@rw,c
  2502  00126C  0E3E               	movlw	62
  2503  00126E  EC73  F00B         	call	_I2C_Start
  2504  001272  6E23               	movwf	??_I2C_LCD_Puts& (0+255),c
  2505  001274  5023               	movf	??_I2C_LCD_Puts,w,c
  2506  001276  6E24               	movwf	I2C_LCD_Puts@ans,c
  2507  001278  6A25               	clrf	I2C_LCD_Puts@ans+1,c
  2508                           
  2509                           ;My_header\My_I2C.h: 55: if (ans == 0) {
  2510  00127A  5025               	movf	I2C_LCD_Puts@ans+1,w,c
  2511  00127C  1024               	iorwf	I2C_LCD_Puts@ans,w,c
  2512  00127E  A4D8               	btfss	status,2,c
  2513  001280  D030               	goto	l1233
  2514                           
  2515                           ;My_header\My_I2C.h: 56: I2C_Send(0b01000000);
  2516  001282  0E40               	movlw	64
  2517  001284  ECF9  F00B         	call	_I2C_Send
  2518                           
  2519                           ;My_header\My_I2C.h: 57: while (*s) {
  2520  001288  D018               	goto	l1231
  2521  00128A                     l1225:
  2522                           
  2523                           ;My_header\My_I2C.h: 58: I2C_Send(*s++);
  2524  00128A  C021  FFF6         	movff	I2C_LCD_Puts@s,tblptrl
  2525  00128E  C022  FFF7         	movff	I2C_LCD_Puts@s+1,tblptrh
  2526  001292  0E00               	movlw	low (__smallconst shr (0+16))
  2527  001294  6EF8               	movwf	tblptru,c
  2528  001296  0E0E               	movlw	(high __ramtop+-1)
  2529  001298  64F7               	cpfsgt	tblptrh,c
  2530  00129A  D003               	bra	u347
  2531  00129C  0008               	tblrd		*
  2532  00129E  50F5               	movf	tablat,w,c
  2533  0012A0  D005               	bra	u340
  2534  0012A2                     u347:
  2535  0012A2  CFF6 FFD9          	movff	tblptrl,fsr2l
  2536  0012A6  CFF7 FFDA          	movff	tblptrh,fsr2h
  2537  0012AA  50DF               	movf	indf2,w,c
  2538  0012AC                     u340:
  2539  0012AC  ECF9  F00B         	call	_I2C_Send
  2540  0012B0  4A21               	infsnz	I2C_LCD_Puts@s,f,c
  2541  0012B2  2A22               	incf	I2C_LCD_Puts@s+1,f,c
  2542                           
  2543                           ;My_header\My_I2C.h: 59: _delay((unsigned long)((26)*(48000000/4000000.0)));
  2544  0012B4  0E68               	movlw	104
  2545  0012B6                     u897:
  2546  0012B6  2EE8               	decfsz	wreg,f,c
  2547  0012B8  D7FE               	goto	u897
  2548  0012BA                     l1231:
  2549  0012BA  C021  FFF6         	movff	I2C_LCD_Puts@s,tblptrl
  2550  0012BE  C022  FFF7         	movff	I2C_LCD_Puts@s+1,tblptrh
  2551  0012C2  0E00               	movlw	low (__smallconst shr (0+16))
  2552  0012C4  6EF8               	movwf	tblptru,c
  2553  0012C6  0E0E               	movlw	(high __ramtop+-1)
  2554  0012C8  64F7               	cpfsgt	tblptrh,c
  2555  0012CA  D003               	bra	u357
  2556  0012CC  0008               	tblrd		*
  2557  0012CE  50F5               	movf	tablat,w,c
  2558  0012D0  D005               	bra	u350
  2559  0012D2                     u357:
  2560  0012D2  CFF6 FFD9          	movff	tblptrl,fsr2l
  2561  0012D6  CFF7 FFDA          	movff	tblptrh,fsr2h
  2562  0012DA  50DF               	movf	indf2,w,c
  2563  0012DC                     u350:
  2564  0012DC  0900               	iorlw	0
  2565  0012DE  A4D8               	btfss	status,2,c
  2566  0012E0  D7D4               	goto	l1225
  2567  0012E2                     l1233:
  2568                           
  2569                           ;My_header\My_I2C.h: 60: }
  2570                           ;My_header\My_I2C.h: 61: }
  2571                           ;My_header\My_I2C.h: 62: I2C_Stop();
  2572  0012E2  EC23  F00C         	call	_I2C_Stop	;wreg free
  2573  0012E6  0012               	return	
  2574  0012E8                     __end_of_I2C_LCD_Puts:
  2575                           	opt stack 0
  2576                           tblptru	equ	0xFF8
  2577                           tblptrh	equ	0xFF7
  2578                           tblptrl	equ	0xFF6
  2579                           tablat	equ	0xFF5
  2580                           prodh	equ	0xFF4
  2581                           prodl	equ	0xFF3
  2582                           intcon	equ	0xFF2
  2583                           intcon2	equ	0xFF1
  2584                           postinc0	equ	0xFEE
  2585                           wreg	equ	0xFE8
  2586                           indf2	equ	0xFDF
  2587                           postinc2	equ	0xFDE
  2588                           postdec2	equ	0xFDD
  2589                           fsr2h	equ	0xFDA
  2590                           fsr2l	equ	0xFD9
  2591                           status	equ	0xFD8
  2592                           
  2593 ;; *************** function _I2C_Stop *****************
  2594 ;; Defined at:
  2595 ;;		line 55 in file "../My_header\My_I2C_18F.h"
  2596 ;; Parameters:    Size  Location     Type
  2597 ;;		None
  2598 ;; Auto vars:     Size  Location     Type
  2599 ;;		None
  2600 ;; Return value:  Size  Location     Type
  2601 ;;		None               void
  2602 ;; Registers used:
  2603 ;;		wreg, status,2, status,0, cstack
  2604 ;; Tracked objects:
  2605 ;;		On entry : 0/0
  2606 ;;		On exit  : 0/0
  2607 ;;		Unchanged: 0/0
  2608 ;; Data sizes:     COMRAM   BANK0   BANK1   BANK2   BANK3   BANK4   BANK5   BANK6   BANK7   BANK8   BANK9  BANK10  BANK1
      +1  BANK12  BANK13  BANK14
  2609 ;;      Params:         0       0       0       0       0       0       0       0       0       0       0       0       
      +0       0       0       0
  2610 ;;      Locals:         0       0       0       0       0       0       0       0       0       0       0       0       
      +0       0       0       0
  2611 ;;      Temps:          0       0       0       0       0       0       0       0       0       0       0       0       
      +0       0       0       0
  2612 ;;      Totals:         0       0       0       0       0       0       0       0       0       0       0       0       
      +0       0       0       0
  2613 ;;Total ram usage:        0 bytes
  2614 ;; Hardware stack levels used:    1
  2615 ;; Hardware stack levels required when called:    5
  2616 ;; This function calls:
  2617 ;;		_I2C_IdleCheck
  2618 ;; This function is called by:
  2619 ;;		_I2C_LCD_Command
  2620 ;;		_I2C_LCD_Puts
  2621 ;;		_I2C_LCD_Putc
  2622 ;;		_I2C_LCD_CreateChar
  2623 ;;		_RTC_Write
  2624 ;;		_RTC_Read
  2625 ;;		_TM_init
  2626 ;;		_TM_Read
  2627 ;;		_EEP_write
  2628 ;;		_EEP_read
  2629 ;;		_EEP_writes
  2630 ;; This function uses a non-reentrant model
  2631 ;;
  2632                           
  2633                           	psect	text20
  2634  001846                     __ptext20:
  2635                           	opt stack 0
  2636  001846                     _I2C_Stop:
  2637                           	opt stack 23
  2638                           
  2639                           ;My_header\My_I2C_18F.h: 57: I2C_IdleCheck(0x5);
  2640                           
  2641                           ;incstack = 0
  2642  001846  0E05               	movlw	5
  2643  001848  EC04  F00C         	call	_I2C_IdleCheck
  2644                           
  2645                           ;My_header\My_I2C_18F.h: 58: SSP1CON2bits.PEN = 1;
  2646  00184C  84C5               	bsf	4037,2,c	;volatile
  2647  00184E  0012               	return	
  2648  001850                     __end_of_I2C_Stop:
  2649                           	opt stack 0
  2650                           tblptru	equ	0xFF8
  2651                           tblptrh	equ	0xFF7
  2652                           tblptrl	equ	0xFF6
  2653                           tablat	equ	0xFF5
  2654                           prodh	equ	0xFF4
  2655                           prodl	equ	0xFF3
  2656                           intcon	equ	0xFF2
  2657                           intcon2	equ	0xFF1
  2658                           postinc0	equ	0xFEE
  2659                           wreg	equ	0xFE8
  2660                           indf2	equ	0xFDF
  2661                           postinc2	equ	0xFDE
  2662                           postdec2	equ	0xFDD
  2663                           fsr2h	equ	0xFDA
  2664                           fsr2l	equ	0xFD9
  2665                           status	equ	0xFD8
  2666                           
  2667 ;; *************** function _I2C_Start *****************
  2668 ;; Defined at:
  2669 ;;		line 31 in file "../My_header\My_I2C_18F.h"
  2670 ;; Parameters:    Size  Location     Type
  2671 ;;  adrs            1    wreg     unsigned char 
  2672 ;;  rw              1   30[COMRAM] unsigned char 
  2673 ;; Auto vars:     Size  Location     Type
  2674 ;;  adrs            1   31[COMRAM] unsigned char 
  2675 ;; Return value:  Size  Location     Type
  2676 ;;                  1    wreg      unsigned char 
  2677 ;; Registers used:
  2678 ;;		wreg, status,2, status,0, cstack
  2679 ;; Tracked objects:
  2680 ;;		On entry : 0/0
  2681 ;;		On exit  : 0/0
  2682 ;;		Unchanged: 0/0
  2683 ;; Data sizes:     COMRAM   BANK0   BANK1   BANK2   BANK3   BANK4   BANK5   BANK6   BANK7   BANK8   BANK9  BANK10  BANK1
      +1  BANK12  BANK13  BANK14
  2684 ;;      Params:         1       0       0       0       0       0       0       0       0       0       0       0       
      +0       0       0       0
  2685 ;;      Locals:         1       0       0       0       0       0       0       0       0       0       0       0       
      +0       0       0       0
  2686 ;;      Temps:          0       0       0       0       0       0       0       0       0       0       0       0       
      +0       0       0       0
  2687 ;;      Totals:         2       0       0       0       0       0       0       0       0       0       0       0       
      +0       0       0       0
  2688 ;;Total ram usage:        2 bytes
  2689 ;; Hardware stack levels used:    1
  2690 ;; Hardware stack levels required when called:    5
  2691 ;; This function calls:
  2692 ;;		_I2C_IdleCheck
  2693 ;; This function is called by:
  2694 ;;		_I2C_LCD_Command
  2695 ;;		_I2C_LCD_Puts
  2696 ;;		_I2C_LCD_Putc
  2697 ;;		_I2C_LCD_CreateChar
  2698 ;;		_RTC_Write
  2699 ;;		_RTC_Read
  2700 ;;		_TM_init
  2701 ;;		_TM_Read
  2702 ;;		_EEP_write
  2703 ;;		_EEP_read
  2704 ;;		_EEP_writes
  2705 ;; This function uses a non-reentrant model
  2706 ;;
  2707                           
  2708                           	psect	text21
  2709  0016E6                     __ptext21:
  2710                           	opt stack 0
  2711  0016E6                     _I2C_Start:
  2712                           	opt stack 23
  2713                           
  2714                           ;incstack = 0
  2715                           ;I2C_Start@adrs stored from wreg
  2716  0016E6  6E20               	movwf	I2C_Start@adrs,c
  2717                           
  2718                           ;My_header\My_I2C_18F.h: 33: I2C_IdleCheck(0x5);
  2719  0016E8  0E05               	movlw	5
  2720  0016EA  EC04  F00C         	call	_I2C_IdleCheck
  2721                           
  2722                           ;My_header\My_I2C_18F.h: 34: SSP1CON2bits.SEN = 1;
  2723  0016EE  80C5               	bsf	4037,0,c	;volatile
  2724                           
  2725                           ;My_header\My_I2C_18F.h: 36: I2C_IdleCheck(0x5);
  2726  0016F0  0E05               	movlw	5
  2727  0016F2  EC04  F00C         	call	_I2C_IdleCheck
  2728                           
  2729                           ;My_header\My_I2C_18F.h: 37: SSP1IF = 0;
  2730  0016F6  969E               	bcf	3998,3,c	;volatile
  2731                           
  2732                           ;My_header\My_I2C_18F.h: 38: SSP1BUF = (uint8_t) ((adrs << 1) + rw);
  2733  0016F8  5020               	movf	I2C_Start@adrs,w,c
  2734  0016FA  2420               	addwf	I2C_Start@adrs,w,c
  2735  0016FC  241F               	addwf	I2C_Start@rw,w,c
  2736  0016FE  6EC9               	movwf	4041,c	;volatile
  2737  001700                     l222:
  2738  001700  A69E               	btfss	3998,3,c	;volatile
  2739  001702  D7FE               	goto	l222
  2740                           
  2741                           ;My_header\My_I2C_18F.h: 40: return SSP1CON2bits.ACKSTAT;
  2742  001704  ACC5               	btfss	4037,6,c	;volatile
  2743  001706  D002               	goto	u30
  2744  001708  0E01               	movlw	1
  2745  00170A  0012               	return	
  2746  00170C                     u30:
  2747  00170C  0E00               	movlw	0
  2748  00170E  0012               	return	
  2749  001710                     __end_of_I2C_Start:
  2750                           	opt stack 0
  2751                           tblptru	equ	0xFF8
  2752                           tblptrh	equ	0xFF7
  2753                           tblptrl	equ	0xFF6
  2754                           tablat	equ	0xFF5
  2755                           prodh	equ	0xFF4
  2756                           prodl	equ	0xFF3
  2757                           intcon	equ	0xFF2
  2758                           intcon2	equ	0xFF1
  2759                           postinc0	equ	0xFEE
  2760                           wreg	equ	0xFE8
  2761                           indf2	equ	0xFDF
  2762                           postinc2	equ	0xFDE
  2763                           postdec2	equ	0xFDD
  2764                           fsr2h	equ	0xFDA
  2765                           fsr2l	equ	0xFD9
  2766                           status	equ	0xFD8
  2767                           
  2768 ;; *************** function _I2C_Send *****************
  2769 ;; Defined at:
  2770 ;;		line 61 in file "../My_header\My_I2C_18F.h"
  2771 ;; Parameters:    Size  Location     Type
  2772 ;;  data            1    wreg     unsigned char 
  2773 ;; Auto vars:     Size  Location     Type
  2774 ;;  data            1   30[COMRAM] unsigned char 
  2775 ;; Return value:  Size  Location     Type
  2776 ;;                  1    wreg      unsigned char 
  2777 ;; Registers used:
  2778 ;;		wreg, status,2, status,0, cstack
  2779 ;; Tracked objects:
  2780 ;;		On entry : 0/0
  2781 ;;		On exit  : 0/0
  2782 ;;		Unchanged: 0/0
  2783 ;; Data sizes:     COMRAM   BANK0   BANK1   BANK2   BANK3   BANK4   BANK5   BANK6   BANK7   BANK8   BANK9  BANK10  BANK1
      +1  BANK12  BANK13  BANK14
  2784 ;;      Params:         0       0       0       0       0       0       0       0       0       0       0       0       
      +0       0       0       0
  2785 ;;      Locals:         1       0       0       0       0       0       0       0       0       0       0       0       
      +0       0       0       0
  2786 ;;      Temps:          0       0       0       0       0       0       0       0       0       0       0       0       
      +0       0       0       0
  2787 ;;      Totals:         1       0       0       0       0       0       0       0       0       0       0       0       
      +0       0       0       0
  2788 ;;Total ram usage:        1 bytes
  2789 ;; Hardware stack levels used:    1
  2790 ;; Hardware stack levels required when called:    5
  2791 ;; This function calls:
  2792 ;;		_I2C_IdleCheck
  2793 ;; This function is called by:
  2794 ;;		_I2C_LCD_Command
  2795 ;;		_I2C_LCD_Puts
  2796 ;;		_I2C_LCD_Putc
  2797 ;;		_I2C_LCD_CreateChar
  2798 ;;		_RTC_Write
  2799 ;;		_RTC_Read
  2800 ;;		_TM_init
  2801 ;;		_TM_Read
  2802 ;;		_EEP_write
  2803 ;;		_EEP_read
  2804 ;;		_EEP_writes
  2805 ;; This function uses a non-reentrant model
  2806 ;;
  2807                           
  2808                           	psect	text22
  2809  0017F2                     __ptext22:
  2810                           	opt stack 0
  2811  0017F2                     _I2C_Send:
  2812                           	opt stack 23
  2813                           
  2814                           ;incstack = 0
  2815                           ;I2C_Send@data stored from wreg
  2816  0017F2  6E1F               	movwf	I2C_Send@data,c
  2817                           
  2818                           ;My_header\My_I2C_18F.h: 62: I2C_IdleCheck(0x5);
  2819  0017F4  0E05               	movlw	5
  2820  0017F6  EC04  F00C         	call	_I2C_IdleCheck
  2821                           
  2822                           ;My_header\My_I2C_18F.h: 63: SSP1IF = 0;
  2823  0017FA  969E               	bcf	3998,3,c	;volatile
  2824                           
  2825                           ;My_header\My_I2C_18F.h: 64: SSP1BUF = data;
  2826  0017FC  C01F  FFC9         	movff	I2C_Send@data,4041	;volatile
  2827  001800                     l237:
  2828  001800  A69E               	btfss	3998,3,c	;volatile
  2829  001802  D7FE               	goto	l237
  2830                           
  2831                           ;My_header\My_I2C_18F.h: 66: return SSP1CON2bits.ACKSTAT;
  2832                           ;	Return value of _I2C_Send is never used
  2833  001804  50C5               	movf	4037,w,c	;volatile
  2834  001806  0012               	return	
  2835  001808                     __end_of_I2C_Send:
  2836                           	opt stack 0
  2837                           tblptru	equ	0xFF8
  2838                           tblptrh	equ	0xFF7
  2839                           tblptrl	equ	0xFF6
  2840                           tablat	equ	0xFF5
  2841                           prodh	equ	0xFF4
  2842                           prodl	equ	0xFF3
  2843                           intcon	equ	0xFF2
  2844                           intcon2	equ	0xFF1
  2845                           postinc0	equ	0xFEE
  2846                           wreg	equ	0xFE8
  2847                           indf2	equ	0xFDF
  2848                           postinc2	equ	0xFDE
  2849                           postdec2	equ	0xFDD
  2850                           fsr2h	equ	0xFDA
  2851                           fsr2l	equ	0xFD9
  2852                           status	equ	0xFD8
  2853                           
  2854 ;; *************** function _I2C_IdleCheck *****************
  2855 ;; Defined at:
  2856 ;;		line 17 in file "../My_header\My_I2C_18F.h"
  2857 ;; Parameters:    Size  Location     Type
  2858 ;;  mask            1    wreg     unsigned char 
  2859 ;; Auto vars:     Size  Location     Type
  2860 ;;  mask            1   29[COMRAM] unsigned char 
  2861 ;; Return value:  Size  Location     Type
  2862 ;;		None               void
  2863 ;; Registers used:
  2864 ;;		wreg, status,2, status,0
  2865 ;; Tracked objects:
  2866 ;;		On entry : 0/0
  2867 ;;		On exit  : 0/0
  2868 ;;		Unchanged: 0/0
  2869 ;; Data sizes:     COMRAM   BANK0   BANK1   BANK2   BANK3   BANK4   BANK5   BANK6   BANK7   BANK8   BANK9  BANK10  BANK1
      +1  BANK12  BANK13  BANK14
  2870 ;;      Params:         0       0       0       0       0       0       0       0       0       0       0       0       
      +0       0       0       0
  2871 ;;      Locals:         1       0       0       0       0       0       0       0       0       0       0       0       
      +0       0       0       0
  2872 ;;      Temps:          1       0       0       0       0       0       0       0       0       0       0       0       
      +0       0       0       0
  2873 ;;      Totals:         2       0       0       0       0       0       0       0       0       0       0       0       
      +0       0       0       0
  2874 ;;Total ram usage:        2 bytes
  2875 ;; Hardware stack levels used:    1
  2876 ;; Hardware stack levels required when called:    4
  2877 ;; This function calls:
  2878 ;;		Nothing
  2879 ;; This function is called by:
  2880 ;;		_I2C_Start
  2881 ;;		_I2C_Stop
  2882 ;;		_I2C_Send
  2883 ;;		_I2C_rStart
  2884 ;;		_I2C_Receive
  2885 ;; This function uses a non-reentrant model
  2886 ;;
  2887                           
  2888                           	psect	text23
  2889  001808                     __ptext23:
  2890                           	opt stack 0
  2891  001808                     _I2C_IdleCheck:
  2892                           	opt stack 23
  2893                           
  2894                           ;incstack = 0
  2895                           ;I2C_IdleCheck@mask stored from wreg
  2896  001808  6E1E               	movwf	I2C_IdleCheck@mask,c
  2897  00180A                     l927:
  2898  00180A  50C7               	movf	4039,w,c	;volatile
  2899  00180C  141E               	andwf	I2C_IdleCheck@mask,w,c
  2900  00180E  6E1D               	movwf	??_I2C_IdleCheck& (0+255),c
  2901  001810  50C5               	movf	4037,w,c	;volatile
  2902  001812  0B1F               	andlw	31
  2903  001814  101D               	iorwf	??_I2C_IdleCheck,w,c
  2904  001816  0900               	iorlw	0
  2905  001818  B4D8               	btfsc	status,2,c
  2906  00181A  0012               	return	
  2907  00181C  D7F6               	goto	l927
  2908  00181E                     __end_of_I2C_IdleCheck:
  2909                           	opt stack 0
  2910                           tblptru	equ	0xFF8
  2911                           tblptrh	equ	0xFF7
  2912                           tblptrl	equ	0xFF6
  2913                           tablat	equ	0xFF5
  2914                           prodh	equ	0xFF4
  2915                           prodl	equ	0xFF3
  2916                           intcon	equ	0xFF2
  2917                           intcon2	equ	0xFF1
  2918                           postinc0	equ	0xFEE
  2919                           wreg	equ	0xFE8
  2920                           indf2	equ	0xFDF
  2921                           postinc2	equ	0xFDE
  2922                           postdec2	equ	0xFDD
  2923                           fsr2h	equ	0xFDA
  2924                           fsr2l	equ	0xFD9
  2925                           status	equ	0xFD8
  2926                           
  2927 ;; *************** function _ADC_init *****************
  2928 ;; Defined at:
  2929 ;;		line 17 in file "../My_header\My_PIC18F27J53.h"
  2930 ;; Parameters:    Size  Location     Type
  2931 ;;  p_ref           1    wreg     unsigned char 
  2932 ;; Auto vars:     Size  Location     Type
  2933 ;;  p_ref           1   28[COMRAM] unsigned char 
  2934 ;; Return value:  Size  Location     Type
  2935 ;;		None               void
  2936 ;; Registers used:
  2937 ;;		wreg, status,2
  2938 ;; Tracked objects:
  2939 ;;		On entry : 0/0
  2940 ;;		On exit  : 0/0
  2941 ;;		Unchanged: 0/0
  2942 ;; Data sizes:     COMRAM   BANK0   BANK1   BANK2   BANK3   BANK4   BANK5   BANK6   BANK7   BANK8   BANK9  BANK10  BANK1
      +1  BANK12  BANK13  BANK14
  2943 ;;      Params:         0       0       0       0       0       0       0       0       0       0       0       0       
      +0       0       0       0
  2944 ;;      Locals:         1       0       0       0       0       0       0       0       0       0       0       0       
      +0       0       0       0
  2945 ;;      Temps:          0       0       0       0       0       0       0       0       0       0       0       0       
      +0       0       0       0
  2946 ;;      Totals:         1       0       0       0       0       0       0       0       0       0       0       0       
      +0       0       0       0
  2947 ;;Total ram usage:        1 bytes
  2948 ;; Hardware stack levels used:    1
  2949 ;; Hardware stack levels required when called:    4
  2950 ;; This function calls:
  2951 ;;		Nothing
  2952 ;; This function is called by:
  2953 ;;		_main
  2954 ;; This function uses a non-reentrant model
  2955 ;;
  2956                           
  2957                           	psect	text24
  2958  0017A8                     __ptext24:
  2959                           	opt stack 0
  2960  0017A8                     _ADC_init:
  2961                           	opt stack 26
  2962                           
  2963                           ;incstack = 0
  2964                           ;ADC_init@p_ref stored from wreg
  2965  0017A8  6E1D               	movwf	ADC_init@p_ref,c
  2966                           
  2967                           ;My_header\My_PIC18F27J53.h: 18: ADCON0bits.VCFG1 = 0;
  2968  0017AA  9EC2               	bcf	4034,7,c	;volatile
  2969                           
  2970                           ;My_header\My_PIC18F27J53.h: 19: ADCON0bits.VCFG0 = p_ref;
  2971  0017AC  B01D               	btfsc	ADC_init@p_ref,0,c
  2972  0017AE  D002               	bra	u375
  2973  0017B0  9CC2               	bcf	4034,6,c	;volatile
  2974  0017B2  D001               	bra	u376
  2975  0017B4                     u375:
  2976  0017B4  8CC2               	bsf	4034,6,c	;volatile
  2977  0017B6                     u376:
  2978                           
  2979                           ;My_header\My_PIC18F27J53.h: 21: ADCON1bits.ADFM = 1;
  2980  0017B6  8EC1               	bsf	4033,7,c	;volatile
  2981                           
  2982                           ;My_header\My_PIC18F27J53.h: 22: ADCON1bits.ADCAL = 0;
  2983  0017B8  9CC1               	bcf	4033,6,c	;volatile
  2984                           
  2985                           ;My_header\My_PIC18F27J53.h: 23: ADCON1bits.ADCS = 2;
  2986  0017BA  50C1               	movf	4033,w,c	;volatile
  2987  0017BC  0BF8               	andlw	-8
  2988  0017BE  0902               	iorlw	2
  2989  0017C0  6EC1               	movwf	4033,c	;volatile
  2990  0017C2  0012               	return	
  2991  0017C4                     __end_of_ADC_init:
  2992                           	opt stack 0
  2993                           tblptru	equ	0xFF8
  2994                           tblptrh	equ	0xFF7
  2995                           tblptrl	equ	0xFF6
  2996                           tablat	equ	0xFF5
  2997                           prodh	equ	0xFF4
  2998                           prodl	equ	0xFF3
  2999                           intcon	equ	0xFF2
  3000                           intcon2	equ	0xFF1
  3001                           postinc0	equ	0xFEE
  3002                           wreg	equ	0xFE8
  3003                           indf2	equ	0xFDF
  3004                           postinc2	equ	0xFDE
  3005                           postdec2	equ	0xFDD
  3006                           fsr2h	equ	0xFDA
  3007                           fsr2l	equ	0xFD9
  3008                           status	equ	0xFD8
  3009                           
  3010 ;; *************** function _ADC *****************
  3011 ;; Defined at:
  3012 ;;		line 26 in file "../My_header\My_PIC18F27J53.h"
  3013 ;; Parameters:    Size  Location     Type
  3014 ;;  ch              1    wreg     unsigned char 
  3015 ;; Auto vars:     Size  Location     Type
  3016 ;;  ch              1   32[COMRAM] unsigned char 
  3017 ;; Return value:  Size  Location     Type
  3018 ;;                  2   28[COMRAM] unsigned int 
  3019 ;; Registers used:
  3020 ;;		wreg, status,2, status,0
  3021 ;; Tracked objects:
  3022 ;;		On entry : 0/0
  3023 ;;		On exit  : 0/0
  3024 ;;		Unchanged: 0/0
  3025 ;; Data sizes:     COMRAM   BANK0   BANK1   BANK2   BANK3   BANK4   BANK5   BANK6   BANK7   BANK8   BANK9  BANK10  BANK1
      +1  BANK12  BANK13  BANK14
  3026 ;;      Params:         2       0       0       0       0       0       0       0       0       0       0       0       
      +0       0       0       0
  3027 ;;      Locals:         1       0       0       0       0       0       0       0       0       0       0       0       
      +0       0       0       0
  3028 ;;      Temps:          2       0       0       0       0       0       0       0       0       0       0       0       
      +0       0       0       0
  3029 ;;      Totals:         5       0       0       0       0       0       0       0       0       0       0       0       
      +0       0       0       0
  3030 ;;Total ram usage:        5 bytes
  3031 ;; Hardware stack levels used:    1
  3032 ;; Hardware stack levels required when called:    4
  3033 ;; This function calls:
  3034 ;;		Nothing
  3035 ;; This function is called by:
  3036 ;;		_main
  3037 ;; This function uses a non-reentrant model
  3038 ;;
  3039                           
  3040                           	psect	text25
  3041  0015CA                     __ptext25:
  3042                           	opt stack 0
  3043  0015CA                     _ADC:
  3044                           	opt stack 26
  3045                           
  3046                           ;incstack = 0
  3047                           ;ADC@ch stored from wreg
  3048  0015CA  6E21               	movwf	ADC@ch,c
  3049                           
  3050                           ;My_header\My_PIC18F27J53.h: 27: ADCON0bits.ADON = 1;
  3051  0015CC  80C2               	bsf	4034,0,c	;volatile
  3052                           
  3053                           ;My_header\My_PIC18F27J53.h: 28: ADCON0bits.CHS = ch;
  3054  0015CE  C021  F01F         	movff	ADC@ch,??_ADC
  3055  0015D2  461F               	rlncf	??_ADC,f,c
  3056  0015D4  461F               	rlncf	??_ADC,f,c
  3057  0015D6  50C2               	movf	4034,w,c	;volatile
  3058  0015D8  181F               	xorwf	??_ADC,w,c
  3059  0015DA  0BC3               	andlw	-61
  3060  0015DC  181F               	xorwf	??_ADC,w,c
  3061  0015DE  6EC2               	movwf	4034,c	;volatile
  3062                           
  3063                           ;My_header\My_PIC18F27J53.h: 29: _delay((unsigned long)((3)*(48000000/4000000.0)));
  3064  0015E0  0E0C               	movlw	12
  3065  0015E2                     u907:
  3066  0015E2  2EE8               	decfsz	wreg,f,c
  3067  0015E4  D7FE               	goto	u907
  3068                           
  3069                           ;My_header\My_PIC18F27J53.h: 30: ADCON0bits.GO_nDONE = 1;
  3070  0015E6  82C2               	bsf	4034,1,c	;volatile
  3071  0015E8                     l312:
  3072  0015E8  B2C2               	btfsc	4034,1,c	;volatile
  3073  0015EA  D7FE               	goto	l312
  3074                           
  3075                           ;My_header\My_PIC18F27J53.h: 32: return ((ADRESH << 8) + ADRESL);
  3076  0015EC  50C4               	movf	4036,w,c	;volatile
  3077  0015EE  6E20               	movwf	(??_ADC+1)& (0+255),c
  3078  0015F0  6A1F               	clrf	??_ADC& (0+255),c
  3079  0015F2  50C3               	movf	4035,w,c	;volatile
  3080  0015F4  241F               	addwf	??_ADC,w,c
  3081  0015F6  6E1D               	movwf	?_ADC,c
  3082  0015F8  0E00               	movlw	0
  3083  0015FA  2020               	addwfc	??_ADC+1,w,c
  3084  0015FC  6E1E               	movwf	?_ADC+1,c
  3085  0015FE  0012               	return	
  3086  001600                     __end_of_ADC:
  3087                           	opt stack 0
  3088                           tblptru	equ	0xFF8
  3089                           tblptrh	equ	0xFF7
  3090                           tblptrl	equ	0xFF6
  3091                           tablat	equ	0xFF5
  3092                           prodh	equ	0xFF4
  3093                           prodl	equ	0xFF3
  3094                           intcon	equ	0xFF2
  3095                           intcon2	equ	0xFF1
  3096                           postinc0	equ	0xFEE
  3097                           wreg	equ	0xFE8
  3098                           indf2	equ	0xFDF
  3099                           postinc2	equ	0xFDE
  3100                           postdec2	equ	0xFDD
  3101                           fsr2h	equ	0xFDA
  3102                           fsr2l	equ	0xFD9
  3103                           status	equ	0xFD8
  3104                           
  3105 ;; *************** function _ISR *****************
  3106 ;; Defined at:
  3107 ;;		line 60 in file "PIC18F27J53-ADC02.c"
  3108 ;; Parameters:    Size  Location     Type
  3109 ;;		None
  3110 ;; Auto vars:     Size  Location     Type
  3111 ;;  ascii           1   27[COMRAM] unsigned char 
  3112 ;; Return value:  Size  Location     Type
  3113 ;;		None               void
  3114 ;; Registers used:
  3115 ;;		wreg, fsr2l, fsr2h, status,2, status,0, prodl, prodh, cstack
  3116 ;; Tracked objects:
  3117 ;;		On entry : 0/0
  3118 ;;		On exit  : 0/0
  3119 ;;		Unchanged: 0/0
  3120 ;; Data sizes:     COMRAM   BANK0   BANK1   BANK2   BANK3   BANK4   BANK5   BANK6   BANK7   BANK8   BANK9  BANK10  BANK1
      +1  BANK12  BANK13  BANK14
  3121 ;;      Params:         0       0       0       0       0       0       0       0       0       0       0       0       
      +0       0       0       0
  3122 ;;      Locals:         1       0       0       0       0       0       0       0       0       0       0       0       
      +0       0       0       0
  3123 ;;      Temps:         14       0       0       0       0       0       0       0       0       0       0       0       
      +0       0       0       0
  3124 ;;      Totals:        15       0       0       0       0       0       0       0       0       0       0       0       
      +0       0       0       0
  3125 ;;Total ram usage:       15 bytes
  3126 ;; Hardware stack levels used:    1
  3127 ;; Hardware stack levels required when called:    3
  3128 ;; This function calls:
  3129 ;;		_interrupt_TXIF
  3130 ;;		i2_tx_send
  3131 ;; This function is called by:
  3132 ;;		Interrupt level 2
  3133 ;; This function uses a non-reentrant model
  3134 ;;
  3135                           
  3136                           	psect	intcode
  3137  000008                     __pintcode:
  3138                           	opt stack 0
  3139  000008                     _ISR:
  3140                           	opt stack 22
  3141                           
  3142                           ;incstack = 0
  3143  000008  CFFA F00E          	movff	pclath,??_ISR
  3144  00000C  CFFB F00F          	movff	pclatu,??_ISR+1
  3145  000010  CFE9 F010          	movff	fsr0l,??_ISR+2
  3146  000014  CFEA F011          	movff	fsr0h,??_ISR+3
  3147  000018  CFE1 F012          	movff	fsr1l,??_ISR+4
  3148  00001C  CFE2 F013          	movff	fsr1h,??_ISR+5
  3149  000020  CFD9 F014          	movff	fsr2l,??_ISR+6
  3150  000024  CFDA F015          	movff	fsr2h,??_ISR+7
  3151  000028  CFF3 F016          	movff	prodl,??_ISR+8
  3152  00002C  CFF4 F017          	movff	prodh,??_ISR+9
  3153  000030  CFF6 F018          	movff	tblptrl,??_ISR+10
  3154  000034  CFF7 F019          	movff	tblptrh,??_ISR+11
  3155  000038  CFF8 F01A          	movff	tblptru,??_ISR+12
  3156  00003C  CFF5 F01B          	movff	tablat,??_ISR+13
  3157                           
  3158                           ;PIC18F27J53-ADC02.c: 61: interrupt_TXIF();
  3159  000040  EC18  F00B         	call	_interrupt_TXIF	;wreg free
  3160                           
  3161                           ;PIC18F27J53-ADC02.c: 62: if (PIR1bits.RC1IF) {
  3162  000044  AA9E               	btfss	3998,5,c	;volatile
  3163  000046  D006               	goto	i2l1603
  3164                           
  3165                           ;PIC18F27J53-ADC02.c: 63: PIR1bits.RC1IF = 0;
  3166  000048  9A9E               	bcf	3998,5,c	;volatile
  3167                           
  3168                           ;PIC18F27J53-ADC02.c: 64: uint8_t ascii = RCREG1;
  3169  00004A  CFAF F01C          	movff	4015,ISR@ascii	;volatile
  3170                           
  3171                           ;PIC18F27J53-ADC02.c: 65: tx_send(ascii);
  3172  00004E  501C               	movf	ISR@ascii,w,c
  3173  000050  EC0F  F00C         	call	i2_tx_send
  3174  000054                     i2l1603:
  3175                           
  3176                           ;PIC18F27J53-ADC02.c: 66: }
  3177                           ;PIC18F27J53-ADC02.c: 67: if (INTCONbits.T0IF) {
  3178  000054  B4F2               	btfsc	intcon,2,c	;volatile
  3179                           
  3180                           ;PIC18F27J53-ADC02.c: 68: INTCONbits.T0IF = 0;
  3181  000056  94F2               	bcf	intcon,2,c	;volatile
  3182                           
  3183                           ;PIC18F27J53-ADC02.c: 69: }
  3184                           ;PIC18F27J53-ADC02.c: 70: if (PIR1bits.TMR1IF) {
  3185  000058  A09E               	btfss	3998,0,c	;volatile
  3186  00005A  D003               	goto	i2l1611
  3187                           
  3188                           ;PIC18F27J53-ADC02.c: 71: PIR1bits.TMR1IF = 0;
  3189  00005C  909E               	bcf	3998,0,c	;volatile
  3190                           
  3191                           ;PIC18F27J53-ADC02.c: 72: TMR1H = 0x80;
  3192  00005E  0E80               	movlw	128
  3193  000060  6ECF               	movwf	4047,c	;volatile
  3194  000062                     i2l1611:
  3195                           
  3196                           ;PIC18F27J53-ADC02.c: 73: }
  3197                           ;PIC18F27J53-ADC02.c: 74: if (PIR2bits.TMR3IF) {
  3198  000062  B2A1               	btfsc	4001,1,c	;volatile
  3199                           
  3200                           ;PIC18F27J53-ADC02.c: 75: PIR2bits.TMR3IF = 0;
  3201  000064  92A1               	bcf	4001,1,c	;volatile
  3202  000066  C01B  FFF5         	movff	??_ISR+13,tablat
  3203  00006A  C01A  FFF8         	movff	??_ISR+12,tblptru
  3204  00006E  C019  FFF7         	movff	??_ISR+11,tblptrh
  3205  000072  C018  FFF6         	movff	??_ISR+10,tblptrl
  3206  000076  C017  FFF4         	movff	??_ISR+9,prodh
  3207  00007A  C016  FFF3         	movff	??_ISR+8,prodl
  3208  00007E  C015  FFDA         	movff	??_ISR+7,fsr2h
  3209  000082  C014  FFD9         	movff	??_ISR+6,fsr2l
  3210  000086  C013  FFE2         	movff	??_ISR+5,fsr1h
  3211  00008A  C012  FFE1         	movff	??_ISR+4,fsr1l
  3212  00008E  C011  FFEA         	movff	??_ISR+3,fsr0h
  3213  000092  C010  FFE9         	movff	??_ISR+2,fsr0l
  3214  000096  C00F  FFFB         	movff	??_ISR+1,pclatu
  3215  00009A  C00E  FFFA         	movff	??_ISR,pclath
  3216  00009E  0011               	retfie		f
  3217  0000A0                     __end_of_ISR:
  3218                           	opt stack 0
  3219                           pclatu	equ	0xFFB
  3220                           pclath	equ	0xFFA
  3221                           tblptru	equ	0xFF8
  3222                           tblptrh	equ	0xFF7
  3223                           tblptrl	equ	0xFF6
  3224                           tablat	equ	0xFF5
  3225                           prodh	equ	0xFF4
  3226                           prodl	equ	0xFF3
  3227                           intcon	equ	0xFF2
  3228                           intcon2	equ	0xFF1
  3229                           postinc0	equ	0xFEE
  3230                           fsr0h	equ	0xFEA
  3231                           fsr0l	equ	0xFE9
  3232                           wreg	equ	0xFE8
  3233                           fsr1h	equ	0xFE2
  3234                           fsr1l	equ	0xFE1
  3235                           indf2	equ	0xFDF
  3236                           postinc2	equ	0xFDE
  3237                           postdec2	equ	0xFDD
  3238                           fsr2h	equ	0xFDA
  3239                           fsr2l	equ	0xFD9
  3240                           status	equ	0xFD8
  3241                           
  3242 ;; *************** function i2_tx_send *****************
  3243 ;; Defined at:
  3244 ;;		line 50 in file "../My_header\My_UART_18F.h"
  3245 ;; Parameters:    Size  Location     Type
  3246 ;;  asciicode       1    wreg     unsigned char 
  3247 ;; Auto vars:     Size  Location     Type
  3248 ;;  asciicode       1   12[COMRAM] unsigned char 
  3249 ;; Return value:  Size  Location     Type
  3250 ;;		None               void
  3251 ;; Registers used:
  3252 ;;		wreg, fsr2l, fsr2h, status,2, status,0, prodl, prodh, cstack
  3253 ;; Tracked objects:
  3254 ;;		On entry : 0/0
  3255 ;;		On exit  : 0/0
  3256 ;;		Unchanged: 0/0
  3257 ;; Data sizes:     COMRAM   BANK0   BANK1   BANK2   BANK3   BANK4   BANK5   BANK6   BANK7   BANK8   BANK9  BANK10  BANK1
      +1  BANK12  BANK13  BANK14
  3258 ;;      Params:         0       0       0       0       0       0       0       0       0       0       0       0       
      +0       0       0       0
  3259 ;;      Locals:         1       0       0       0       0       0       0       0       0       0       0       0       
      +0       0       0       0
  3260 ;;      Temps:          0       0       0       0       0       0       0       0       0       0       0       0       
      +0       0       0       0
  3261 ;;      Totals:         1       0       0       0       0       0       0       0       0       0       0       0       
      +0       0       0       0
  3262 ;;Total ram usage:        1 bytes
  3263 ;; Hardware stack levels used:    1
  3264 ;; Hardware stack levels required when called:    2
  3265 ;; This function calls:
  3266 ;;		i2_ringbuf_push
  3267 ;; This function is called by:
  3268 ;;		_ISR
  3269 ;; This function uses a non-reentrant model
  3270 ;;
  3271                           
  3272                           	psect	text27
  3273  00181E                     __ptext27:
  3274                           	opt stack 0
  3275  00181E                     i2_tx_send:
  3276                           	opt stack 22
  3277                           
  3278                           ;incstack = 0
  3279                           ;i2tx_send@asciicode stored from wreg
  3280  00181E  6E0D               	movwf	i2tx_send@asciicode,c
  3281                           
  3282                           ;My_header\My_UART_18F.h: 51: ringbuf_push(&tx_buf, asciicode);
  3283  001820  0E00               	movlw	high _tx_buf
  3284  001822  6E06               	movwf	i2ringbuf_push@rb+1,c
  3285  001824  0E32               	movlw	low _tx_buf
  3286  001826  6E05               	movwf	i2ringbuf_push@rb,c
  3287  001828  C00D  F007         	movff	i2tx_send@asciicode,i2ringbuf_push@asciicode
  3288  00182C  EC90  F008         	call	i2_ringbuf_push	;wreg free
  3289                           
  3290                           ;My_header\My_UART_18F.h: 52: PIE1bits.TX1IE = 1;
  3291  001830  889D               	bsf	3997,4,c	;volatile
  3292  001832  0012               	return	
  3293  001834                     __end_ofi2_tx_send:
  3294                           	opt stack 0
  3295                           pclatu	equ	0xFFB
  3296                           pclath	equ	0xFFA
  3297                           tblptru	equ	0xFF8
  3298                           tblptrh	equ	0xFF7
  3299                           tblptrl	equ	0xFF6
  3300                           tablat	equ	0xFF5
  3301                           prodh	equ	0xFF4
  3302                           prodl	equ	0xFF3
  3303                           intcon	equ	0xFF2
  3304                           intcon2	equ	0xFF1
  3305                           postinc0	equ	0xFEE
  3306                           fsr0h	equ	0xFEA
  3307                           fsr0l	equ	0xFE9
  3308                           wreg	equ	0xFE8
  3309                           fsr1h	equ	0xFE2
  3310                           fsr1l	equ	0xFE1
  3311                           indf2	equ	0xFDF
  3312                           postinc2	equ	0xFDE
  3313                           postdec2	equ	0xFDD
  3314                           fsr2h	equ	0xFDA
  3315                           fsr2l	equ	0xFD9
  3316                           status	equ	0xFD8
  3317                           
  3318 ;; *************** function i2_ringbuf_push *****************
  3319 ;; Defined at:
  3320 ;;		line 37 in file "../My_header\My_ringbuf.h"
  3321 ;; Parameters:    Size  Location     Type
  3322 ;;  rb              2    4[COMRAM] PTR struct ringbuf
  3323 ;;		 -> tx_buf(5), 
  3324 ;;  asciicode       1    6[COMRAM] unsigned char 
  3325 ;; Auto vars:     Size  Location     Type
  3326 ;;		None
  3327 ;; Return value:  Size  Location     Type
  3328 ;;		None               void
  3329 ;; Registers used:
  3330 ;;		wreg, fsr2l, fsr2h, status,2, status,0, prodl, prodh, cstack
  3331 ;; Tracked objects:
  3332 ;;		On entry : 0/0
  3333 ;;		On exit  : 0/0
  3334 ;;		Unchanged: 0/0
  3335 ;; Data sizes:     COMRAM   BANK0   BANK1   BANK2   BANK3   BANK4   BANK5   BANK6   BANK7   BANK8   BANK9  BANK10  BANK1
      +1  BANK12  BANK13  BANK14
  3336 ;;      Params:         3       0       0       0       0       0       0       0       0       0       0       0       
      +0       0       0       0
  3337 ;;      Locals:         0       0       0       0       0       0       0       0       0       0       0       0       
      +0       0       0       0
  3338 ;;      Temps:          5       0       0       0       0       0       0       0       0       0       0       0       
      +0       0       0       0
  3339 ;;      Totals:         8       0       0       0       0       0       0       0       0       0       0       0       
      +0       0       0       0
  3340 ;;Total ram usage:        8 bytes
  3341 ;; Hardware stack levels used:    1
  3342 ;; Hardware stack levels required when called:    1
  3343 ;; This function calls:
  3344 ;;		i2_ringbuf_num
  3345 ;; This function is called by:
  3346 ;;		i2_tx_send
  3347 ;; This function uses a non-reentrant model
  3348 ;;
  3349                           
  3350                           	psect	text28
  3351  001120                     __ptext28:
  3352                           	opt stack 0
  3353  001120                     i2_ringbuf_push:
  3354                           	opt stack 22
  3355                           
  3356                           ;My_header\My_ringbuf.h: 38: if (ringbuf_num(rb) < rb->size) {
  3357                           
  3358                           ;incstack = 0
  3359  001120  C006  F002         	movff	i2ringbuf_push@rb+1,i2ringbuf_num@rb+1
  3360  001124  C005  F001         	movff	i2ringbuf_push@rb,i2ringbuf_num@rb
  3361  001128  ECB3  F009         	call	i2_ringbuf_num	;wreg free
  3362  00112C  6E08               	movwf	??i2_ringbuf_push& (0+255),c
  3363  00112E  EE20 F002          	lfsr	2,2
  3364  001132  5005               	movf	i2ringbuf_push@rb,w,c
  3365  001134  26D9               	addwf	fsr2l,f,c
  3366  001136  5006               	movf	i2ringbuf_push@rb+1,w,c
  3367  001138  22DA               	addwfc	fsr2h,f,c
  3368  00113A  50DF               	movf	indf2,w,c
  3369  00113C  5C08               	subwf	??i2_ringbuf_push,w,c
  3370  00113E  B0D8               	btfsc	status,0,c
  3371  001140  0012               	return	
  3372                           
  3373                           ;My_header\My_ringbuf.h: 39: rb->buf[rb->head] = asciicode;
  3374  001142  EE20 F003          	lfsr	2,3
  3375  001146  5005               	movf	i2ringbuf_push@rb,w,c
  3376  001148  26D9               	addwf	fsr2l,f,c
  3377  00114A  5006               	movf	i2ringbuf_push@rb+1,w,c
  3378  00114C  22DA               	addwfc	fsr2h,f,c
  3379  00114E  50DF               	movf	indf2,w,c
  3380  001150  6E08               	movwf	??i2_ringbuf_push& (0+255),c
  3381  001152  5008               	movf	??i2_ringbuf_push,w,c
  3382  001154  0D01               	mullw	1
  3383  001156  C005  FFD9         	movff	i2ringbuf_push@rb,fsr2l
  3384  00115A  C006  FFDA         	movff	i2ringbuf_push@rb+1,fsr2h
  3385  00115E  CFDE F009          	movff	postinc2,??i2_ringbuf_push+1
  3386  001162  CFDD F00A          	movff	postdec2,??i2_ringbuf_push+2
  3387  001166  50F3               	movf	prodl,w,c
  3388  001168  2409               	addwf	??i2_ringbuf_push+1,w,c
  3389  00116A  6ED9               	movwf	fsr2l,c
  3390  00116C  50F4               	movf	prodh,w,c
  3391  00116E  200A               	addwfc	??i2_ringbuf_push+2,w,c
  3392  001170  6EDA               	movwf	fsr2h,c
  3393  001172  C007  FFDF         	movff	i2ringbuf_push@asciicode,indf2
  3394                           
  3395                           ;My_header\My_ringbuf.h: 40: if (rb->head + 1 < rb->size) rb->head++;
  3396  001176  EE20 F002          	lfsr	2,2
  3397  00117A  5005               	movf	i2ringbuf_push@rb,w,c
  3398  00117C  26D9               	addwf	fsr2l,f,c
  3399  00117E  5006               	movf	i2ringbuf_push@rb+1,w,c
  3400  001180  22DA               	addwfc	fsr2h,f,c
  3401  001182  50DF               	movf	indf2,w,c
  3402  001184  6E08               	movwf	??i2_ringbuf_push& (0+255),c
  3403  001186  6A09               	clrf	(??i2_ringbuf_push+1)& (0+255),c
  3404  001188  EE20 F003          	lfsr	2,3
  3405  00118C  5005               	movf	i2ringbuf_push@rb,w,c
  3406  00118E  26D9               	addwf	fsr2l,f,c
  3407  001190  5006               	movf	i2ringbuf_push@rb+1,w,c
  3408  001192  22DA               	addwfc	fsr2h,f,c
  3409  001194  50DF               	movf	indf2,w,c
  3410  001196  6E0A               	movwf	(??i2_ringbuf_push+2)& (0+255),c
  3411  001198  6A0B               	clrf	(??i2_ringbuf_push+3)& (0+255),c
  3412  00119A  0E01               	movlw	1
  3413  00119C  260A               	addwf	??i2_ringbuf_push+2,f,c
  3414  00119E  0E00               	movlw	0
  3415  0011A0  220B               	addwfc	??i2_ringbuf_push+3,f,c
  3416  0011A2  500B               	movf	??i2_ringbuf_push+3,w,c
  3417  0011A4  0A80               	xorlw	128
  3418  0011A6  6E0C               	movwf	(??i2_ringbuf_push+4)& (0+255),c
  3419  0011A8  5008               	movf	??i2_ringbuf_push,w,c
  3420  0011AA  5C0A               	subwf	??i2_ringbuf_push+2,w,c
  3421  0011AC  5009               	movf	??i2_ringbuf_push+1,w,c
  3422  0011AE  0A80               	xorlw	128
  3423  0011B0  580C               	subwfb	(??i2_ringbuf_push+4)& (0+255),w,c
  3424  0011B2  B0D8               	btfsc	status,0,c
  3425  0011B4  D008               	goto	i2l1579
  3426  0011B6  EE20 F003          	lfsr	2,3
  3427  0011BA  5005               	movf	i2ringbuf_push@rb,w,c
  3428  0011BC  26D9               	addwf	fsr2l,f,c
  3429  0011BE  5006               	movf	i2ringbuf_push@rb+1,w,c
  3430  0011C0  22DA               	addwfc	fsr2h,f,c
  3431  0011C2  2ADF               	incf	indf2,f,c
  3432  0011C4  0012               	return	
  3433  0011C6                     i2l1579:
  3434                           
  3435                           ;My_header\My_ringbuf.h: 41: else rb->head = 0;
  3436  0011C6  EE20 F003          	lfsr	2,3
  3437  0011CA  5005               	movf	i2ringbuf_push@rb,w,c
  3438  0011CC  26D9               	addwf	fsr2l,f,c
  3439  0011CE  5006               	movf	i2ringbuf_push@rb+1,w,c
  3440  0011D0  22DA               	addwfc	fsr2h,f,c
  3441  0011D2  0E00               	movlw	0
  3442  0011D4  6EDF               	movwf	indf2,c
  3443  0011D6  0012               	return	
  3444  0011D8                     __end_ofi2_ringbuf_push:
  3445                           	opt stack 0
  3446                           pclatu	equ	0xFFB
  3447                           pclath	equ	0xFFA
  3448                           tblptru	equ	0xFF8
  3449                           tblptrh	equ	0xFF7
  3450                           tblptrl	equ	0xFF6
  3451                           tablat	equ	0xFF5
  3452                           prodh	equ	0xFF4
  3453                           prodl	equ	0xFF3
  3454                           intcon	equ	0xFF2
  3455                           intcon2	equ	0xFF1
  3456                           postinc0	equ	0xFEE
  3457                           fsr0h	equ	0xFEA
  3458                           fsr0l	equ	0xFE9
  3459                           wreg	equ	0xFE8
  3460                           fsr1h	equ	0xFE2
  3461                           fsr1l	equ	0xFE1
  3462                           indf2	equ	0xFDF
  3463                           postinc2	equ	0xFDE
  3464                           postdec2	equ	0xFDD
  3465                           fsr2h	equ	0xFDA
  3466                           fsr2l	equ	0xFD9
  3467                           status	equ	0xFD8
  3468                           
  3469 ;; *************** function _interrupt_TXIF *****************
  3470 ;; Defined at:
  3471 ;;		line 39 in file "../My_header\My_UART_18F.h"
  3472 ;; Parameters:    Size  Location     Type
  3473 ;;		None
  3474 ;; Auto vars:     Size  Location     Type
  3475 ;;		None
  3476 ;; Return value:  Size  Location     Type
  3477 ;;		None               void
  3478 ;; Registers used:
  3479 ;;		wreg, fsr2l, fsr2h, status,2, status,0, prodl, prodh, cstack
  3480 ;; Tracked objects:
  3481 ;;		On entry : 0/0
  3482 ;;		On exit  : 0/0
  3483 ;;		Unchanged: 0/0
  3484 ;; Data sizes:     COMRAM   BANK0   BANK1   BANK2   BANK3   BANK4   BANK5   BANK6   BANK7   BANK8   BANK9  BANK10  BANK1
      +1  BANK12  BANK13  BANK14
  3485 ;;      Params:         0       0       0       0       0       0       0       0       0       0       0       0       
      +0       0       0       0
  3486 ;;      Locals:         0       0       0       0       0       0       0       0       0       0       0       0       
      +0       0       0       0
  3487 ;;      Temps:          0       0       0       0       0       0       0       0       0       0       0       0       
      +0       0       0       0
  3488 ;;      Totals:         0       0       0       0       0       0       0       0       0       0       0       0       
      +0       0       0       0
  3489 ;;Total ram usage:        0 bytes
  3490 ;; Hardware stack levels used:    1
  3491 ;; Hardware stack levels required when called:    2
  3492 ;; This function calls:
  3493 ;;		_ringbuf_pop
  3494 ;;		i2_ringbuf_num
  3495 ;; This function is called by:
  3496 ;;		_ISR
  3497 ;; This function uses a non-reentrant model
  3498 ;;
  3499                           
  3500                           	psect	text29
  3501  001630                     __ptext29:
  3502                           	opt stack 0
  3503  001630                     _interrupt_TXIF:
  3504                           	opt stack 22
  3505                           
  3506                           ;My_header\My_UART_18F.h: 40: if (PIE1bits.TX1IE && PIR1bits.TX1IF) {
  3507                           
  3508                           ;incstack = 0
  3509  001630  A89D               	btfss	3997,4,c	;volatile
  3510  001632  0012               	return	
  3511  001634  A89E               	btfss	3998,4,c	;volatile
  3512  001636  0012               	return	
  3513                           
  3514                           ;My_header\My_UART_18F.h: 41: PIR1bits.TX1IF = 0;
  3515  001638  989E               	bcf	3998,4,c	;volatile
  3516                           
  3517                           ;My_header\My_UART_18F.h: 42: if (ringbuf_num(&tx_buf) > 0) {
  3518  00163A  0E00               	movlw	high _tx_buf
  3519  00163C  6E02               	movwf	i2ringbuf_num@rb+1,c
  3520  00163E  0E32               	movlw	low _tx_buf
  3521  001640  6E01               	movwf	i2ringbuf_num@rb,c
  3522  001642  ECB3  F009         	call	i2_ringbuf_num	;wreg free
  3523  001646  0900               	iorlw	0
  3524  001648  B4D8               	btfsc	status,2,c
  3525  00164A  D008               	goto	i2l190
  3526                           
  3527                           ;My_header\My_UART_18F.h: 43: TXREG1 = ringbuf_pop(&tx_buf);
  3528  00164C  0E00               	movlw	high _tx_buf
  3529  00164E  6E06               	movwf	ringbuf_pop@rb+1,c
  3530  001650  0E32               	movlw	low _tx_buf
  3531  001652  6E05               	movwf	ringbuf_pop@rb,c
  3532  001654  ECEC  F008         	call	_ringbuf_pop	;wreg free
  3533  001658  6EAE               	movwf	4014,c	;volatile
  3534                           
  3535                           ;My_header\My_UART_18F.h: 44: } else {
  3536  00165A  0012               	return	
  3537  00165C                     i2l190:
  3538                           
  3539                           ;My_header\My_UART_18F.h: 45: PIE1bits.TX1IE = 0;
  3540  00165C  989D               	bcf	3997,4,c	;volatile
  3541  00165E  0012               	return	
  3542  001660                     __end_of_interrupt_TXIF:
  3543                           	opt stack 0
  3544                           pclatu	equ	0xFFB
  3545                           pclath	equ	0xFFA
  3546                           tblptru	equ	0xFF8
  3547                           tblptrh	equ	0xFF7
  3548                           tblptrl	equ	0xFF6
  3549                           tablat	equ	0xFF5
  3550                           prodh	equ	0xFF4
  3551                           prodl	equ	0xFF3
  3552                           intcon	equ	0xFF2
  3553                           intcon2	equ	0xFF1
  3554                           postinc0	equ	0xFEE
  3555                           fsr0h	equ	0xFEA
  3556                           fsr0l	equ	0xFE9
  3557                           wreg	equ	0xFE8
  3558                           fsr1h	equ	0xFE2
  3559                           fsr1l	equ	0xFE1
  3560                           indf2	equ	0xFDF
  3561                           postinc2	equ	0xFDE
  3562                           postdec2	equ	0xFDD
  3563                           fsr2h	equ	0xFDA
  3564                           fsr2l	equ	0xFD9
  3565                           status	equ	0xFD8
  3566                           
  3567 ;; *************** function _ringbuf_pop *****************
  3568 ;; Defined at:
  3569 ;;		line 45 in file "../My_header\My_ringbuf.h"
  3570 ;; Parameters:    Size  Location     Type
  3571 ;;  rb              2    4[COMRAM] PTR struct ringbuf
  3572 ;;		 -> tx_buf(5), 
  3573 ;; Auto vars:     Size  Location     Type
  3574 ;;  ret             1    9[COMRAM] unsigned char 
  3575 ;; Return value:  Size  Location     Type
  3576 ;;                  1    wreg      unsigned char 
  3577 ;; Registers used:
  3578 ;;		wreg, fsr2l, fsr2h, status,2, status,0, prodl, prodh, cstack
  3579 ;; Tracked objects:
  3580 ;;		On entry : 0/0
  3581 ;;		On exit  : 0/0
  3582 ;;		Unchanged: 0/0
  3583 ;; Data sizes:     COMRAM   BANK0   BANK1   BANK2   BANK3   BANK4   BANK5   BANK6   BANK7   BANK8   BANK9  BANK10  BANK1
      +1  BANK12  BANK13  BANK14
  3584 ;;      Params:         2       0       0       0       0       0       0       0       0       0       0       0       
      +0       0       0       0
  3585 ;;      Locals:         1       0       0       0       0       0       0       0       0       0       0       0       
      +0       0       0       0
  3586 ;;      Temps:          3       0       0       0       0       0       0       0       0       0       0       0       
      +0       0       0       0
  3587 ;;      Totals:         6       0       0       0       0       0       0       0       0       0       0       0       
      +0       0       0       0
  3588 ;;Total ram usage:        6 bytes
  3589 ;; Hardware stack levels used:    1
  3590 ;; Hardware stack levels required when called:    1
  3591 ;; This function calls:
  3592 ;;		i2_ringbuf_num
  3593 ;; This function is called by:
  3594 ;;		_interrupt_TXIF
  3595 ;; This function uses a non-reentrant model
  3596 ;;
  3597                           
  3598                           	psect	text30
  3599  0011D8                     __ptext30:
  3600                           	opt stack 0
  3601  0011D8                     _ringbuf_pop:
  3602                           	opt stack 22
  3603                           
  3604                           ;My_header\My_ringbuf.h: 46: if (ringbuf_num(rb)) {
  3605                           
  3606                           ;incstack = 0
  3607  0011D8  C006  F002         	movff	ringbuf_pop@rb+1,i2ringbuf_num@rb+1
  3608  0011DC  C005  F001         	movff	ringbuf_pop@rb,i2ringbuf_num@rb
  3609  0011E0  ECB3  F009         	call	i2_ringbuf_num	;wreg free
  3610  0011E4  0900               	iorlw	0
  3611  0011E6  B4D8               	btfsc	status,2,c
  3612  0011E8  D03D               	goto	i2l1567
  3613                           
  3614                           ;My_header\My_ringbuf.h: 47: uint8_t ret = rb->buf[rb->tail];
  3615  0011EA  EE20 F004          	lfsr	2,4
  3616  0011EE  5005               	movf	ringbuf_pop@rb,w,c
  3617  0011F0  26D9               	addwf	fsr2l,f,c
  3618  0011F2  5006               	movf	ringbuf_pop@rb+1,w,c
  3619  0011F4  22DA               	addwfc	fsr2h,f,c
  3620  0011F6  50DF               	movf	indf2,w,c
  3621  0011F8  6E07               	movwf	??_ringbuf_pop& (0+255),c
  3622  0011FA  5007               	movf	??_ringbuf_pop,w,c
  3623  0011FC  0D01               	mullw	1
  3624  0011FE  C005  FFD9         	movff	ringbuf_pop@rb,fsr2l
  3625  001202  C006  FFDA         	movff	ringbuf_pop@rb+1,fsr2h
  3626  001206  CFDE F008          	movff	postinc2,??_ringbuf_pop+1
  3627  00120A  CFDD F009          	movff	postdec2,??_ringbuf_pop+2
  3628  00120E  50F3               	movf	prodl,w,c
  3629  001210  2408               	addwf	??_ringbuf_pop+1,w,c
  3630  001212  6ED9               	movwf	fsr2l,c
  3631  001214  50F4               	movf	prodh,w,c
  3632  001216  2009               	addwfc	??_ringbuf_pop+2,w,c
  3633  001218  6EDA               	movwf	fsr2h,c
  3634  00121A  50DF               	movf	indf2,w,c
  3635  00121C  6E0A               	movwf	ringbuf_pop@ret,c
  3636                           
  3637                           ;My_header\My_ringbuf.h: 48: rb->tail++;
  3638  00121E  EE20 F004          	lfsr	2,4
  3639  001222  5005               	movf	ringbuf_pop@rb,w,c
  3640  001224  26D9               	addwf	fsr2l,f,c
  3641  001226  5006               	movf	ringbuf_pop@rb+1,w,c
  3642  001228  22DA               	addwfc	fsr2h,f,c
  3643  00122A  2ADF               	incf	indf2,f,c
  3644                           
  3645                           ;My_header\My_ringbuf.h: 49: if (rb->tail >= rb->size) {
  3646  00122C  EE20 F004          	lfsr	2,4
  3647  001230  5005               	movf	ringbuf_pop@rb,w,c
  3648  001232  26D9               	addwf	fsr2l,f,c
  3649  001234  5006               	movf	ringbuf_pop@rb+1,w,c
  3650  001236  22DA               	addwfc	fsr2h,f,c
  3651  001238  50DF               	movf	indf2,w,c
  3652  00123A  6E07               	movwf	??_ringbuf_pop& (0+255),c
  3653  00123C  EE20 F002          	lfsr	2,2
  3654  001240  5005               	movf	ringbuf_pop@rb,w,c
  3655  001242  26D9               	addwf	fsr2l,f,c
  3656  001244  5006               	movf	ringbuf_pop@rb+1,w,c
  3657  001246  22DA               	addwfc	fsr2h,f,c
  3658  001248  50DF               	movf	indf2,w,c
  3659  00124A  5C07               	subwf	??_ringbuf_pop,w,c
  3660  00124C  A0D8               	btfss	status,0,c
  3661  00124E  D008               	goto	i2l1561
  3662                           
  3663                           ;My_header\My_ringbuf.h: 50: rb->tail = 0;
  3664  001250  EE20 F004          	lfsr	2,4
  3665  001254  5005               	movf	ringbuf_pop@rb,w,c
  3666  001256  26D9               	addwf	fsr2l,f,c
  3667  001258  5006               	movf	ringbuf_pop@rb+1,w,c
  3668  00125A  22DA               	addwfc	fsr2h,f,c
  3669  00125C  0E00               	movlw	0
  3670  00125E  6EDF               	movwf	indf2,c
  3671  001260                     i2l1561:
  3672                           
  3673                           ;My_header\My_ringbuf.h: 51: }
  3674                           ;My_header\My_ringbuf.h: 52: return ret;
  3675  001260  500A               	movf	ringbuf_pop@ret,w,c
  3676  001262  0012               	return	
  3677  001264                     i2l1567:
  3678                           
  3679                           ;My_header\My_ringbuf.h: 54: return 0;
  3680  001264  0E00               	movlw	0
  3681  001266  0012               	return	
  3682  001268                     __end_of_ringbuf_pop:
  3683                           	opt stack 0
  3684                           pclatu	equ	0xFFB
  3685                           pclath	equ	0xFFA
  3686                           tblptru	equ	0xFF8
  3687                           tblptrh	equ	0xFF7
  3688                           tblptrl	equ	0xFF6
  3689                           tablat	equ	0xFF5
  3690                           prodh	equ	0xFF4
  3691                           prodl	equ	0xFF3
  3692                           intcon	equ	0xFF2
  3693                           intcon2	equ	0xFF1
  3694                           postinc0	equ	0xFEE
  3695                           fsr0h	equ	0xFEA
  3696                           fsr0l	equ	0xFE9
  3697                           wreg	equ	0xFE8
  3698                           fsr1h	equ	0xFE2
  3699                           fsr1l	equ	0xFE1
  3700                           indf2	equ	0xFDF
  3701                           postinc2	equ	0xFDE
  3702                           postdec2	equ	0xFDD
  3703                           fsr2h	equ	0xFDA
  3704                           fsr2l	equ	0xFD9
  3705                           status	equ	0xFD8
  3706                           
  3707 ;; *************** function i2_ringbuf_num *****************
  3708 ;; Defined at:
  3709 ;;		line 29 in file "../My_header\My_ringbuf.h"
  3710 ;; Parameters:    Size  Location     Type
  3711 ;;  rb              2    0[COMRAM] PTR struct ringbuf
  3712 ;;		 -> tx_buf(5), 
  3713 ;; Auto vars:     Size  Location     Type
  3714 ;;		None
  3715 ;; Return value:  Size  Location     Type
  3716 ;;                  1    wreg      unsigned char 
  3717 ;; Registers used:
  3718 ;;		wreg, fsr2l, fsr2h, status,2, status,0
  3719 ;; Tracked objects:
  3720 ;;		On entry : 0/0
  3721 ;;		On exit  : 0/0
  3722 ;;		Unchanged: 0/0
  3723 ;; Data sizes:     COMRAM   BANK0   BANK1   BANK2   BANK3   BANK4   BANK5   BANK6   BANK7   BANK8   BANK9  BANK10  BANK1
      +1  BANK12  BANK13  BANK14
  3724 ;;      Params:         2       0       0       0       0       0       0       0       0       0       0       0       
      +0       0       0       0
  3725 ;;      Locals:         0       0       0       0       0       0       0       0       0       0       0       0       
      +0       0       0       0
  3726 ;;      Temps:          2       0       0       0       0       0       0       0       0       0       0       0       
      +0       0       0       0
  3727 ;;      Totals:         4       0       0       0       0       0       0       0       0       0       0       0       
      +0       0       0       0
  3728 ;;Total ram usage:        4 bytes
  3729 ;; Hardware stack levels used:    1
  3730 ;; This function calls:
  3731 ;;		Nothing
  3732 ;; This function is called by:
  3733 ;;		_ringbuf_pop
  3734 ;;		_interrupt_TXIF
  3735 ;;		i2_ringbuf_push
  3736 ;; This function uses a non-reentrant model
  3737 ;;
  3738                           
  3739                           	psect	text31
  3740  001366                     __ptext31:
  3741                           	opt stack 0
  3742  001366                     i2_ringbuf_num:
  3743                           	opt stack 22
  3744                           
  3745                           ;My_header\My_ringbuf.h: 30: if (rb->head >= rb->tail) {
  3746                           
  3747                           ;incstack = 0
  3748  001366  EE20 F003          	lfsr	2,3
  3749  00136A  5001               	movf	i2ringbuf_num@rb,w,c
  3750  00136C  26D9               	addwf	fsr2l,f,c
  3751  00136E  5002               	movf	i2ringbuf_num@rb+1,w,c
  3752  001370  22DA               	addwfc	fsr2h,f,c
  3753  001372  50DF               	movf	indf2,w,c
  3754  001374  6E03               	movwf	??i2_ringbuf_num& (0+255),c
  3755  001376  EE20 F004          	lfsr	2,4
  3756  00137A  5001               	movf	i2ringbuf_num@rb,w,c
  3757  00137C  26D9               	addwf	fsr2l,f,c
  3758  00137E  5002               	movf	i2ringbuf_num@rb+1,w,c
  3759  001380  22DA               	addwfc	fsr2h,f,c
  3760  001382  50DF               	movf	indf2,w,c
  3761  001384  5C03               	subwf	??i2_ringbuf_num,w,c
  3762  001386  A0D8               	btfss	status,0,c
  3763  001388  D012               	goto	i2l1547
  3764                           
  3765                           ;My_header\My_ringbuf.h: 31: return (rb->head - rb->tail);
  3766  00138A  EE20 F003          	lfsr	2,3
  3767  00138E  5001               	movf	i2ringbuf_num@rb,w,c
  3768  001390  26D9               	addwf	fsr2l,f,c
  3769  001392  5002               	movf	i2ringbuf_num@rb+1,w,c
  3770  001394  22DA               	addwfc	fsr2h,f,c
  3771  001396  50DF               	movf	indf2,w,c
  3772  001398  6E03               	movwf	??i2_ringbuf_num& (0+255),c
  3773  00139A  EE20 F004          	lfsr	2,4
  3774  00139E  5001               	movf	i2ringbuf_num@rb,w,c
  3775  0013A0  26D9               	addwf	fsr2l,f,c
  3776  0013A2  5002               	movf	i2ringbuf_num@rb+1,w,c
  3777  0013A4  22DA               	addwfc	fsr2h,f,c
  3778  0013A6  50DF               	movf	indf2,w,c
  3779  0013A8  0800               	sublw	0
  3780  0013AA  2403               	addwf	??i2_ringbuf_num,w,c
  3781  0013AC  0012               	return	
  3782  0013AE                     i2l1547:
  3783                           
  3784                           ;My_header\My_ringbuf.h: 33: return (rb->size + rb->head - rb->tail);
  3785  0013AE  EE20 F003          	lfsr	2,3
  3786  0013B2  5001               	movf	i2ringbuf_num@rb,w,c
  3787  0013B4  26D9               	addwf	fsr2l,f,c
  3788  0013B6  5002               	movf	i2ringbuf_num@rb+1,w,c
  3789  0013B8  22DA               	addwfc	fsr2h,f,c
  3790  0013BA  50DF               	movf	indf2,w,c
  3791  0013BC  6E03               	movwf	??i2_ringbuf_num& (0+255),c
  3792  0013BE  EE20 F002          	lfsr	2,2
  3793  0013C2  5001               	movf	i2ringbuf_num@rb,w,c
  3794  0013C4  26D9               	addwf	fsr2l,f,c
  3795  0013C6  5002               	movf	i2ringbuf_num@rb+1,w,c
  3796  0013C8  22DA               	addwfc	fsr2h,f,c
  3797  0013CA  50DF               	movf	indf2,w,c
  3798  0013CC  6E04               	movwf	(??i2_ringbuf_num+1)& (0+255),c
  3799  0013CE  EE20 F004          	lfsr	2,4
  3800  0013D2  5001               	movf	i2ringbuf_num@rb,w,c
  3801  0013D4  26D9               	addwf	fsr2l,f,c
  3802  0013D6  5002               	movf	i2ringbuf_num@rb+1,w,c
  3803  0013D8  22DA               	addwfc	fsr2h,f,c
  3804  0013DA  50DF               	movf	indf2,w,c
  3805  0013DC  0800               	sublw	0
  3806  0013DE  2404               	addwf	??i2_ringbuf_num+1,w,c
  3807  0013E0  2403               	addwf	??i2_ringbuf_num,w,c
  3808  0013E2  0012               	return	
  3809  0013E4                     __end_ofi2_ringbuf_num:
  3810                           	opt stack 0
  3811                           pclatu	equ	0xFFB
  3812                           pclath	equ	0xFFA
  3813                           tblptru	equ	0xFF8
  3814                           tblptrh	equ	0xFF7
  3815                           tblptrl	equ	0xFF6
  3816                           tablat	equ	0xFF5
  3817                           prodh	equ	0xFF4
  3818                           prodl	equ	0xFF3
  3819                           intcon	equ	0xFF2
  3820                           intcon2	equ	0xFF1
  3821                           postinc0	equ	0xFEE
  3822                           fsr0h	equ	0xFEA
  3823                           fsr0l	equ	0xFE9
  3824                           wreg	equ	0xFE8
  3825                           fsr1h	equ	0xFE2
  3826                           fsr1l	equ	0xFE1
  3827                           indf2	equ	0xFDF
  3828                           postinc2	equ	0xFDE
  3829                           postdec2	equ	0xFDD
  3830                           fsr2h	equ	0xFDA
  3831                           fsr2l	equ	0xFD9
  3832                           status	equ	0xFD8
  3833                           pclatu	equ	0xFFB
  3834                           pclath	equ	0xFFA
  3835                           tblptru	equ	0xFF8
  3836                           tblptrh	equ	0xFF7
  3837                           tblptrl	equ	0xFF6
  3838                           tablat	equ	0xFF5
  3839                           prodh	equ	0xFF4
  3840                           prodl	equ	0xFF3
  3841                           intcon	equ	0xFF2
  3842                           intcon2	equ	0xFF1
  3843                           postinc0	equ	0xFEE
  3844                           fsr0h	equ	0xFEA
  3845                           fsr0l	equ	0xFE9
  3846                           wreg	equ	0xFE8
  3847                           fsr1h	equ	0xFE2
  3848                           fsr1l	equ	0xFE1
  3849                           indf2	equ	0xFDF
  3850                           postinc2	equ	0xFDE
  3851                           postdec2	equ	0xFDD
  3852                           fsr2h	equ	0xFDA
  3853                           fsr2l	equ	0xFD9
  3854                           status	equ	0xFD8
  3855                           
  3856                           	psect	rparam
  3857  0000                     pclatu	equ	0xFFB
  3858                           pclath	equ	0xFFA
  3859                           tblptru	equ	0xFF8
  3860                           tblptrh	equ	0xFF7
  3861                           tblptrl	equ	0xFF6
  3862                           tablat	equ	0xFF5
  3863                           prodh	equ	0xFF4
  3864                           prodl	equ	0xFF3
  3865                           intcon	equ	0xFF2
  3866                           intcon2	equ	0xFF1
  3867                           postinc0	equ	0xFEE
  3868                           fsr0h	equ	0xFEA
  3869                           fsr0l	equ	0xFE9
  3870                           wreg	equ	0xFE8
  3871                           fsr1h	equ	0xFE2
  3872                           fsr1l	equ	0xFE1
  3873                           indf2	equ	0xFDF
  3874                           postinc2	equ	0xFDE
  3875                           postdec2	equ	0xFDD
  3876                           fsr2h	equ	0xFDA
  3877                           fsr2l	equ	0xFD9
  3878                           status	equ	0xFD8


Data Sizes:
    Strings     13
    Constant    0
    Data        2
    BSS         11
    Persistent  0
    Stack       0

Auto Spaces:
    Space          Size  Autos    Used
    COMRAM           95     43      56
    BANK0           160    100     100
    BANK1           256    200     200
    BANK2           256      0       0
    BANK3           256      0       0
    BANK4           256      0       0
    BANK5           256      0       0
    BANK6           256      0       0
    BANK7           256      0       0
    BANK8           256      0       0
    BANK9           256      0       0
    BANK10          256      0       0
    BANK11          256      0       0
    BANK12          256      0       0
    BANK13          256      0       0
    BANK14          176      0       0

Pointer List with Targets:

    I2C_LCD_Puts@s	PTR const unsigned char  size(2) Largest target is 100
		 -> main@data(BANK0[100]), STR_2(CODE[4]), STR_1(CODE[9]), 

    tx_sends@asciicode	PTR const unsigned char  size(2) Largest target is 100
		 -> main@data(BANK0[100]), 

    tx_buf.buf	PTR unsigned char  size(2) Largest target is 200
		 -> main@txbuf(BANK1[200]), 

    ringbuf_delete@rb.buf	PTR unsigned char  size(2) Largest target is 200
		 -> main@txbuf(BANK1[200]), 

    ringbuf_backspace@rb.buf	PTR unsigned char  size(2) Largest target is 200
		 -> main@txbuf(BANK1[200]), 

    ringbuf_pop@rb.buf	PTR unsigned char  size(2) Largest target is 200
		 -> main@txbuf(BANK1[200]), 

    ringbuf_pop@rb	PTR struct ringbuf size(2) Largest target is 6
		 -> tx_buf(COMRAM[5]), 

    ringbuf_push@rb.buf	PTR unsigned char  size(2) Largest target is 200
		 -> main@txbuf(BANK1[200]), 

    ringbuf_push@rb	PTR struct ringbuf size(2) Largest target is 6
		 -> tx_buf(COMRAM[5]), 

    ringbuf_num@rb.buf	PTR unsigned char  size(2) Largest target is 200
		 -> main@txbuf(BANK1[200]), 

    ringbuf_num@rb	PTR struct ringbuf size(2) Largest target is 6
		 -> tx_buf(COMRAM[5]), 

    S499ringbuf$buf	PTR unsigned char  size(2) Largest target is 200
		 -> main@txbuf(BANK1[200]), 

    ringbuf_init@rb.buf	PTR unsigned char  size(2) Largest target is 200
		 -> main@txbuf(BANK1[200]), 

    ringbuf_init@internal_buf	PTR unsigned char  size(2) Largest target is 200
		 -> main@txbuf(BANK1[200]), 

    ringbuf_init@rb	PTR struct ringbuf size(2) Largest target is 6
		 -> tx_buf(COMRAM[5]), 

    utoa@str	PTR unsigned char  size(2) Largest target is 100
		 -> main@data(BANK0[100]), 


Critical Paths under _main in COMRAM

    _main->_utoa
    _utoa->___lwdiv
    _tx_sends->_ringbuf_push
    _tx_send->_ringbuf_push
    _ringbuf_push->_ringbuf_num
    _I2C_LCD_init->_I2C_LCD_Clear
    _I2C_LCD_Clear->_I2C_LCD_Command
    _I2C_LCD_SetCursor->_I2C_LCD_Command
    _I2C_LCD_Command->_I2C_Start
    _I2C_LCD_Puts->_I2C_Start
    _I2C_Stop->_I2C_IdleCheck
    _I2C_Start->_I2C_IdleCheck
    _I2C_Send->_I2C_IdleCheck

Critical Paths under _ISR in COMRAM

    _ISR->i2_tx_send
    i2_tx_send->i2_ringbuf_push
    i2_ringbuf_push->i2_ringbuf_num
    _interrupt_TXIF->_ringbuf_pop
    _ringbuf_pop->i2_ringbuf_num

Critical Paths under _main in BANK0

    None.

Critical Paths under _ISR in BANK0

    None.

Critical Paths under _main in BANK1

    None.

Critical Paths under _ISR in BANK1

    None.

Critical Paths under _main in BANK2

    None.

Critical Paths under _ISR in BANK2

    None.

Critical Paths under _main in BANK3

    None.

Critical Paths under _ISR in BANK3

    None.

Critical Paths under _main in BANK4

    None.

Critical Paths under _ISR in BANK4

    None.

Critical Paths under _main in BANK5

    None.

Critical Paths under _ISR in BANK5

    None.

Critical Paths under _main in BANK6

    None.

Critical Paths under _ISR in BANK6

    None.

Critical Paths under _main in BANK7

    None.

Critical Paths under _ISR in BANK7

    None.

Critical Paths under _main in BANK8

    None.

Critical Paths under _ISR in BANK8

    None.

Critical Paths under _main in BANK9

    None.

Critical Paths under _ISR in BANK9

    None.

Critical Paths under _main in BANK10

    None.

Critical Paths under _ISR in BANK10

    None.

Critical Paths under _main in BANK11

    None.

Critical Paths under _ISR in BANK11

    None.

Critical Paths under _main in BANK12

    None.

Critical Paths under _ISR in BANK12

    None.

Critical Paths under _main in BANK13

    None.

Critical Paths under _ISR in BANK13

    None.

Critical Paths under _main in BANK14

    None.

Critical Paths under _ISR in BANK14

    None.

Call Graph Tables:

 ---------------------------------------------------------------------------------
 (Depth) Function   	        Calls       Base Space   Used Autos Params    Refs
 ---------------------------------------------------------------------------------
 (0) _main                                               300   300      0    7379
                                              0 BANK0    100   100      0
                                              0 BANK1    200   200      0
                                _ADC
                           _ADC_init
                           _Delay_ms
                      _I2C_LCD_Clear
                       _I2C_LCD_Puts
                  _I2C_LCD_SetCursor
                       _I2C_LCD_init
                           _I2C_init
                          _UART_init
                       _ringbuf_init
                        _timer0_init
                        _timer1_init
                        _timer3_init
                            _tx_send
                           _tx_sends
                               _utoa
 ---------------------------------------------------------------------------------
 (1) _utoa                                                 8     3      5    1087
                                             35 COMRAM     8     3      5
                                _ADC (ARG)
                            ___lwdiv
                            ___lwmod
 ---------------------------------------------------------------------------------
 (2) ___lwmod                                              5     1      4     317
                                             28 COMRAM     5     1      4
 ---------------------------------------------------------------------------------
 (2) ___lwdiv                                              7     3      4     317
                                             28 COMRAM     7     3      4
 ---------------------------------------------------------------------------------
 (1) _tx_sends                                             2     0      2     762
                                             40 COMRAM     2     0      2
                       _ringbuf_push
 ---------------------------------------------------------------------------------
 (1) _tx_send                                              1     1      0     641
                                             40 COMRAM     1     1      0
                       _ringbuf_push
 ---------------------------------------------------------------------------------
 (2) _ringbuf_push                                         8     5      3     626
                                             32 COMRAM     8     5      3
                        _ringbuf_num
 ---------------------------------------------------------------------------------
 (3) _ringbuf_num                                          4     2      2     279
                                             28 COMRAM     4     2      2
 ---------------------------------------------------------------------------------
 (1) _timer3_init                                          2     2      0      15
                                             28 COMRAM     2     2      0
 ---------------------------------------------------------------------------------
 (1) _timer1_init                                          3     2      1      98
                                             28 COMRAM     3     2      1
 ---------------------------------------------------------------------------------
 (1) _timer0_init                                          2     2      0      30
                                             28 COMRAM     2     2      0
 ---------------------------------------------------------------------------------
 (1) _ringbuf_init                                         5     0      5     249
                                             28 COMRAM     5     0      5
 ---------------------------------------------------------------------------------
 (1) _UART_init                                            1     1      0      15
                                             28 COMRAM     1     1      0
 ---------------------------------------------------------------------------------
 (1) _I2C_init                                             0     0      0       0
 ---------------------------------------------------------------------------------
 (1) _I2C_LCD_init                                         0     0      0    1580
                           _Delay_ms
                      _I2C_LCD_Clear
                    _I2C_LCD_Command
 ---------------------------------------------------------------------------------
 (2) _I2C_LCD_Clear                                        1     1      0     703
                                             34 COMRAM     1     1      0
                    _I2C_LCD_Command
 ---------------------------------------------------------------------------------
 (2) _Delay_ms                                             3     1      2     174
                                             28 COMRAM     3     1      2
 ---------------------------------------------------------------------------------
 (1) _I2C_LCD_SetCursor                                    4     3      1     960
                                             34 COMRAM     4     3      1
                    _I2C_LCD_Command
 ---------------------------------------------------------------------------------
 (2) _I2C_LCD_Command                                      2     2      0     703
                                             32 COMRAM     2     2      0
                           _I2C_Send
                          _I2C_Start
                           _I2C_Stop
 ---------------------------------------------------------------------------------
 (1) _I2C_LCD_Puts                                         5     3      2     930
                                             32 COMRAM     5     3      2
                           _I2C_Send
                          _I2C_Start
                           _I2C_Stop
 ---------------------------------------------------------------------------------
 (3) _I2C_Stop                                             0     0      0      15
                      _I2C_IdleCheck
 ---------------------------------------------------------------------------------
 (3) _I2C_Start                                            2     1      1     628
                                             30 COMRAM     2     1      1
                      _I2C_IdleCheck
 ---------------------------------------------------------------------------------
 (3) _I2C_Send                                             1     1      0      30
                                             30 COMRAM     1     1      0
                      _I2C_IdleCheck
 ---------------------------------------------------------------------------------
 (4) _I2C_IdleCheck                                        2     2      0      15
                                             28 COMRAM     2     2      0
 ---------------------------------------------------------------------------------
 (1) _ADC_init                                             1     1      0      15
                                             28 COMRAM     1     1      0
 ---------------------------------------------------------------------------------
 (1) _ADC                                                  5     3      2      15
                                             28 COMRAM     5     3      2
 ---------------------------------------------------------------------------------
 Estimated maximum stack depth 4
 ---------------------------------------------------------------------------------
 (Depth) Function   	        Calls       Base Space   Used Autos Params    Refs
 ---------------------------------------------------------------------------------
 (6) _ISR                                                 15    15      0    1232
                                             13 COMRAM    15    15      0
                     _interrupt_TXIF
                          i2_tx_send
 ---------------------------------------------------------------------------------
 (7) i2_tx_send                                            1     1      0     504
                                             12 COMRAM     1     1      0
                     i2_ringbuf_push
 ---------------------------------------------------------------------------------
 (8) i2_ringbuf_push                                       8     5      3     482
                                              4 COMRAM     8     5      3
                      i2_ringbuf_num
 ---------------------------------------------------------------------------------
 (7) _interrupt_TXIF                                       0     0      0     705
                        _ringbuf_pop
                      i2_ringbuf_num
 ---------------------------------------------------------------------------------
 (8) _ringbuf_pop                                          6     4      2     473
                                              4 COMRAM     6     4      2
                      i2_ringbuf_num
 ---------------------------------------------------------------------------------
 (9) i2_ringbuf_num                                        4     2      2     232
                                              0 COMRAM     4     2      2
 ---------------------------------------------------------------------------------
 Estimated maximum stack depth 9
 ---------------------------------------------------------------------------------

 Call Graph Graphs:

 _main (ROOT)
   _ADC
   _ADC_init
   _Delay_ms
   _I2C_LCD_Clear
     _I2C_LCD_Command
       _I2C_Send
         _I2C_IdleCheck
       _I2C_Start
         _I2C_IdleCheck
       _I2C_Stop
         _I2C_IdleCheck
   _I2C_LCD_Puts
     _I2C_Send
       _I2C_IdleCheck
     _I2C_Start
       _I2C_IdleCheck
     _I2C_Stop
       _I2C_IdleCheck
   _I2C_LCD_SetCursor
     _I2C_LCD_Command
       _I2C_Send
         _I2C_IdleCheck
       _I2C_Start
         _I2C_IdleCheck
       _I2C_Stop
         _I2C_IdleCheck
   _I2C_LCD_init
     _Delay_ms
     _I2C_LCD_Clear
       _I2C_LCD_Command
         _I2C_Send
           _I2C_IdleCheck
         _I2C_Start
           _I2C_IdleCheck
         _I2C_Stop
           _I2C_IdleCheck
     _I2C_LCD_Command
       _I2C_Send
         _I2C_IdleCheck
       _I2C_Start
         _I2C_IdleCheck
       _I2C_Stop
         _I2C_IdleCheck
   _I2C_init
   _UART_init
   _ringbuf_init
   _timer0_init
   _timer1_init
   _timer3_init
   _tx_send
     _ringbuf_push
       _ringbuf_num
   _tx_sends
     _ringbuf_push
       _ringbuf_num
   _utoa
     _ADC (ARG)
     ___lwdiv (ARG)
     ___lwmod (ARG)

 _ISR (ROOT)
   _interrupt_TXIF
     _ringbuf_pop
       i2_ringbuf_num
     i2_ringbuf_num
   i2_tx_send
     i2_ringbuf_push
       i2_ringbuf_num

 Address spaces:
Name               Size   Autos  Total    Cost      Usage
BIGRAM             EAF      0       0      35        0.0%
BITBANK13          100      0       0      31        0.0%
BANK13             100      0       0      32        0.0%
BITBANK12          100      0       0      29        0.0%
BANK12             100      0       0      30        0.0%
BITBANK11          100      0       0      27        0.0%
BANK11             100      0       0      28        0.0%
BITBANK10          100      0       0      25        0.0%
BANK10             100      0       0      26        0.0%
BITBANK9           100      0       0      23        0.0%
BANK9              100      0       0      24        0.0%
BITBANK8           100      0       0      21        0.0%
BANK8              100      0       0      22        0.0%
BITBANK7           100      0       0      19        0.0%
BANK7              100      0       0      20        0.0%
BITBANK6           100      0       0      17        0.0%
BANK6              100      0       0      18        0.0%
BITBANK5           100      0       0      15        0.0%
BANK5              100      0       0      16        0.0%
BITBANK4           100      0       0      13        0.0%
BANK4              100      0       0      14        0.0%
BITBANK3           100      0       0      11        0.0%
BANK3              100      0       0      12        0.0%
BITBANK2           100      0       0       9        0.0%
BANK2              100      0       0      10        0.0%
BITBANK1           100      0       0       7        0.0%
BANK1              100     C8      C8       8       78.1%
BITBANK14           B0      0       0      33        0.0%
BANK14              B0      0       0      34        0.0%
BITBANK0            A0      0       0       4        0.0%
BANK0               A0     64      64       5       62.5%
BITCOMRAM           5F      0       0       0        0.0%
COMRAM              5F     2B      38       1       58.9%
BITSFR_2             0      0       0      40        0.0%
SFR_2                0      0       0      40        0.0%
BITSFR_1             0      0       0      40        0.0%
SFR_1                0      0       0      40        0.0%
BITSFR               0      0       0      40        0.0%
SFR                  0      0       0      40        0.0%
STACK                0      0       0       2        0.0%
NULL                 0      0       0       0        0.0%
ABS                  0      0     164       6        0.0%
DATA                 0      0     164       3        0.0%
CODE                 0      0       0       0        0.0%


Microchip Technology PIC18 Macro Assembler V1.33 build 59893 
Symbol Table                                                                                   Wed Apr 29 17:38:23 2015

          __size_of_I2C_Start 002A                            l83 169E                            l88 1524  
                          u30 170C                            _d1 002C                            _sw 002F  
      __end_of_interrupt_TXIF 1660                  __CFG_CP0$OFF 000000                           l113 13E6  
                         l222 1700                           l312 15E8                           l237 1800  
                         l246 16DA                           _ADC 15CA                           l927 180A  
                         l848 14F8                           l858 157E                           l963 1330  
                         l991 1796                           l989 1786                           u340 12AC  
                         u350 12DC                           u347 12A2                           _ISR 0008  
                         u357 12D2                           u375 17B4                           u376 17B6  
                         u907 15E2                           u867 17D0                           u877 178C  
                         u887 16E0                           u897 12B6                           prod 000FF3  
                         wreg 000FE8                    _TXSTA1bits 000FAD                  _I2C_LCD_Puts 1268  
                        ?_ADC 001D             ??_I2C_LCD_Command 0021                          ?_ISR 0001  
                _I2C_LCD_init 145C                          l1001 110E                          l1033 14C6  
                        l1035 14CE                          l1131 13F4                          l1045 14EE  
                        l1037 14D2                          l1061 1574                          l1053 1554  
                        l1133 1410                          l1141 1446                          l1231 12BA  
                        l1055 155C                          l1225 128A                          l1233 12E2  
                        l1057 1560                          l1083 16B2                          l1181 161E  
                        l1095 1526                          l1177 1602                          l1515 0FB2  
          __CFG_WPFP$PAGE_127 000000                          STR_1 0F01                          STR_2 0F0A  
                        _main 0F10                          fsr0h 000FEA                          fsr1h 000FE2  
                        fsr0l 000FE9                          fsr2h 000FDA                          fsr1l 000FE1  
                        indf2 000FDF                          fsr2l 000FD9              __end_of_I2C_Send 1808  
                        _utoa 13E4        __CFG_DSWDTOSC$T1OSCREF 000000              __end_of_I2C_Stop 1850  
                        pclat 000FFA              __end_of_I2C_init 1846                          prodh 000FF4  
                        prodl 000FF3                          start 00A0              __end_of_ADC_init 17C4  
               __CFG_IESO$OFF 000000                 _I2C_LCD_Clear 17C4         __end_ofi2_ringbuf_num 13E4  
                       ??_ADC 001F                         ADC@ch 0021                 ADC_init@p_ref 001D  
                       ??_ISR 000E        __size_of_I2C_IdleCheck 0016                 __CFG_PLLDIV$2 000000  
                _BAUDCON1bits 000F7E               ?_interrupt_TXIF 0001                i2_ringbuf_push 1120  
                       ?_main 0001                         ?_utoa 0024               __end_of___lwdiv 1502  
             __end_of___lwmod 1588                         i2l190 165C                         _TMR1H 000FCF  
                       _TRISA 000F92                         _TRISB 000F93                         _TRISC 000F94  
              __CFG_FCMEN$OFF 000000            __size_of_UART_init 0028         ringbuf_push@asciicode 0023  
           __end_of_I2C_Start 1710                         tablat 000FF5         UART_init@interrupt_ON 001D  
                       utoa@d 0029                         utoa@v 002A                         status 000FD8  
             __end_of_tx_send 17F2              __end_of_Delay_ms 17A8                ?_I2C_LCD_Clear 0001  
             __initialization 1660                  __end_of_main 1068                  __end_of_utoa 145C  
         ringbuf_init@bufsize 0021        __end_ofi2_ringbuf_push 11D8                        ??_main 002C  
                      ??_utoa 0029                 __activetblptr 000002            __size_ofi2_tx_send 0016  
                      _BCL1IF 007D0B                 _I2C_IdleCheck 1808             _I2C_LCD_SetCursor 175E  
                      _ADRESH 000FC4                        _ADRESL 000FC3                        _ANCON0 000F48  
                      _ANCON1 000F49            I2C_LCD_Command@ans 0022                        i2l1611 0062  
                      i2l1603 0054                        i2l1561 1260                        i2l1547 13AE  
              __CFG_WDTEN$OFF 000000                        i2l1567 1264                        i2l1579 11C6  
          ?_I2C_LCD_SetCursor 0023                        _RCREG1 000FAF                        _SPBRG1 000FB0  
                      _SSP1IF 007CF3                __CFG_WPCFG$OFF 000000                        _TXREG1 000FAE  
             i2ringbuf_num@rb 0001                __CFG_WPDIS$OFF 000000           ??_I2C_LCD_SetCursor 0024  
              __CFG_XINST$OFF 000000                  ?_ringbuf_pop 0005                  ?_ringbuf_num 001D  
           __end_of_UART_init 1738                  ?_timer0_init 0001                  ?_timer1_init 001D  
                   ??___lwdiv 0021                     ??___lwmod 0021                  ?_timer3_init 0001  
             ?i2_ringbuf_push 0005                        clear_0 1666               __CFG_CLKOEC$OFF 000000  
                      _tx_buf 0032                  __pdataCOMRAM 0037                     ?_I2C_Send 0001  
                   ?_I2C_Stop 0001                  __mediumconst 0000                     ?_I2C_init 0001  
   __end_of_I2C_LCD_SetCursor 1784                        tblptrh 000FF7                        tblptrl 000FF6  
                      tblptru 000FF8                     ?_ADC_init 0001                ?_I2C_IdleCheck 0001  
                   ??_tx_send 0029              __end_of_tx_sends 1630          __CFG_LS48MHZ$SYS48X8 000000  
                  __accesstop 0060       __end_of__initialization 1684               ??_I2C_LCD_Clear 0023  
           __end_ofi2_tx_send 1834          __CFG_WPEND$PAGE_WPFP 000000                __pcstackCOMRAM 0001  
             __CFG_DSWDTPS$G2 000000               _I2C_LCD_Command 16BC              I2C_LCD_Command@c 0021  
                  ??_I2C_Send 001F                    ??_I2C_Stop 001F                    ??_I2C_init 001D  
                   ?_Delay_ms 001D       i2ringbuf_push@asciicode 0007                    ??_ADC_init 001D  
            ??_interrupt_TXIF 000B          I2C_LCD_SetCursor@col 0026          I2C_LCD_SetCursor@row 0023  
                I2C_Send@data 001F            __CFG_OSC$INTOSCPLL 000000               ??_I2C_IdleCheck 001D  
                  ??_Delay_ms 001F    __size_of_I2C_LCD_SetCursor 0026        I2C_LCD_SetCursor@F9822 0037  
                     _SPBRGH1 000F7F                       _SSP1ADD 000FC8                       _SSP1BUF 000FC9  
        timer1_init@prescaler 001F              __CFG_CFGPLLEN$ON 000000              i2ringbuf_push@rb 0005  
                   _I2C_Start 16E6                       __Hparam 0000                       __Lparam 0000  
     __end_of_I2C_LCD_Command 16E6                 ?_ringbuf_init 001D                 ?_ringbuf_push 0021  
                     ___lwdiv 14B0                       ___lwmod 1546                  __psmallconst 0F00  
        __size_of_ringbuf_pop 0090          __size_of_ringbuf_num 007E               __CFG_STVREN$OFF 000000  
                     __pcinit 1660                     ?_tx_sends 0029                       __ramtop 0F00  
        __size_of_timer0_init 002E          __size_of_timer1_init 0044                       __ptext0 0F10  
                     __ptext1 13E4                       __ptext2 1546                       __ptext3 14B0  
                     __ptext4 1600                       __ptext5 17DC                       __ptext6 1068  
                     __ptext7 12E8                       __ptext8 1738                       __ptext9 1502  
        __size_of_timer3_init 0026                 I2C_LCD_Puts@s 0021                     _T0CONbits 000FD5  
                __size_of_ADC 0036                  __size_of_ISR 0098                     _T1CONbits 000FCD  
                   _T3CONbits 000F79                       _tx_send 17DC          end_of_initialization 1684  
      __size_ofi2_ringbuf_num 007E                 __Lmediumconst 0000                    ?_I2C_Start 001F  
        timer3_init@prescaler 001E              ??i2_ringbuf_push 0008                ??_ringbuf_init 0022  
              ??_ringbuf_push 0024                       postdec2 000FDD                       postinc0 000FEE  
                     postinc2 000FDE                       utoa@str 0024                    ??_tx_sends 002B  
                   _UART_init 1710              __CFG_DSBOREN$OFF 000000              __CFG_CPUDIV$OSC1 000000  
           __size_of_I2C_Send 0016             __size_of_I2C_Stop 000A             __size_of_I2C_init 0012  
           __size_of_ADC_init 001C       timer1_init@clock_select 001D              __CFG_IOL1WAY$OFF 000000  
         __CFG_MSSP7B_EN$MSK7 000000              ?_I2C_LCD_Command 0001                ringbuf_init@rb 001D  
                   i2_tx_send 181E                ringbuf_pop@ret 000A                 i2_ringbuf_num 1366  
              ringbuf_push@rb 0021                 __pidataCOMRAM 1850                    ?_UART_init 0001  
            __CFG_DSWDTEN$OFF 000000           start_initialization 1660                   __end_of_ADC 1600  
                 __end_of_ISR 00A0                 ?_I2C_LCD_Puts 0021                 ?_I2C_LCD_init 0001  
           __size_of_Delay_ms 0024                   ??_I2C_Start 0020         __end_of_I2C_LCD_Clear 17DC  
              ?i2_ringbuf_num 0001                    ?i2_tx_send 0001             __CFG_ADCSEL$BIT12 000000  
                 __pbssCOMRAM 002C                 __pcstackBANK0 0060                 __pcstackBANK1 0100  
              ??_I2C_LCD_Puts 0023                ??_I2C_LCD_init 0024           __end_of__stringdata 0F0E  
        __end_of_ringbuf_init 15CA          __end_of_ringbuf_push 1120              tx_send@asciicode 0029  
                    ISR@ascii 001C              ___lwdiv@dividend 001D                     __pintcode 0008  
                    ?___lwdiv 001D                      ?___lwmod 001D               I2C_LCD_Puts@ans 0024  
                 ??_UART_init 001D                   __smallconst 0F00             __size_of_tx_sends 0030  
                 I2C_Start@rw 001F                      _I2C_Send 17F2                      _I2C_Stop 1846  
        __CFG_RTCOSC$T1OSCREF 000000                      _I2C_init 1834                      _ADC_init 17A8  
       __end_of_I2C_IdleCheck 181E              ___lwdiv@quotient 0021                      ?_tx_send 0001  
    ringbuf_init@internal_buf 001F                      _IPR1bits 000F9F                      _IPR2bits 000FA2  
                    _PIE1bits 000F9D                      _PIE2bits 000FA0               ??i2_ringbuf_num 0003  
                    _PIR1bits 000F9E                      _PIR2bits 000FA1                 ??_ringbuf_pop 0007  
               ??_ringbuf_num 001F                      _UCFGbits 000F39              __CFG_WDTPS$32768 000000  
                    _SSP1CON1 000FC6                      _SSP1CON2 000FC5                 ??_timer0_init 001D  
               ??_timer1_init 001E                   ??i2_tx_send 000D                 ??_timer3_init 001D  
                    _SSP1STAT 000FC7                    _ADCON0bits 000FC2                    _ADCON1bits 000FC1  
                 __stringdata 0F01              __CFG_SOSCSEL$LOW 000000       __size_of_interrupt_TXIF 0030  
                    _Delay_ms 1784                     main@txbuf 0100                 ringbuf_pop@rb 0005  
               ringbuf_num@rb 001D                 I2C_Start@adrs 0020                   _INTCON2bits 000FF1  
                    __Hrparam 0000                      __Lrparam 0000          __end_of_I2C_LCD_Puts 12E8  
        __end_of_I2C_LCD_init 14B0             I2C_IdleCheck@mask 001E                    utoa@digits 0028  
            __size_of___lwdiv 0052              __size_of___lwmod 0042             tx_sends@asciicode 0029  
         __end_of_ringbuf_pop 1268           __end_of_ringbuf_num 1366           __end_of_timer0_init 16BC  
       __size_of_ringbuf_init 0042           __end_of_timer1_init 1546           __end_of_timer3_init 175E  
       __size_of_ringbuf_push 00B8               ___lwdiv@divisor 001F               ___lwdiv@counter 0023  
        timer0_init@prescaler 001E                      __ptext10 168E                      __ptext11 1588  
                    __ptext20 1846                      __ptext12 1710                      __ptext21 16E6  
                    __ptext13 1834                      __ptext30 11D8                      __ptext22 17F2  
                    __ptext14 145C                      __ptext31 1366                      __ptext23 1808  
                    __ptext15 17C4                      __ptext24 17A8                      __ptext16 1784  
                    __ptext25 15CA                      __ptext17 175E                      __ptext18 16BC  
                    __ptext27 181E                      __ptext19 1268                      __ptext28 1120  
                    __ptext29 1630                  _SSP1CON2bits 000FC5              __size_of_tx_send 0016  
               __size_of_main 0158                 __size_of_utoa 0078                  _ringbuf_init 1588  
                _ringbuf_push 1068                      main@data 0060                      _tx_sends 1600  
     __size_ofi2_ringbuf_push 00B8      __size_of_I2C_LCD_Command 002A                   _OSCTUNEbits 000F9B  
                  _INTCONbits 000FF2  I2C_LCD_SetCursor@row_offsets 0024                    Delay_ms@ms 001D  
                   utoa@value 0026                      intlevel2 0000              ___lwmod@dividend 001D  
                  _RCSTA1bits 000FAC                    _OSCCONbits 000FD3                   _ringbuf_pop 11D8  
                 _ringbuf_num 12E8                   _timer0_init 168E                   _timer1_init 1502  
                 _timer3_init 1738                _interrupt_TXIF 1630               ___lwmod@divisor 001F  
             ___lwmod@counter 0021        __size_of_I2C_LCD_Clear 0018         __size_of_I2C_LCD_Puts 0080  
       __size_of_I2C_LCD_init 0054            i2tx_send@asciicode 000D  
