Microchip MPLAB XC8 Compiler V1.35 ()

Linker command line:

--edf=C:\Program Files (x86)\Microchip\xc8\v1.35\dat\en_msgs.txt -cs \
  -h+dist/default/production\PIC16F1827-I2C_LCD_RTC01.X.production.sym \
  --cmf=dist/default/production\PIC16F1827-I2C_LCD_RTC01.X.production.cmf \
  -z -Q16F1827 -oC:\Users\KERIKU~1\AppData\Local\Temp\s4r4.2 \
  -Mdist/default/production/PIC16F1827-I2C_LCD_RTC01.X.production.map -E1 \
  -ver=XC8 -ASTACK=02097h-0216fh -pstack=STACK -ACODE=00h-07FFhx2 \
  -ASTRCODE=00h-0FFFh -ASTRING=00h-0FFhx16 -ACONST=00h-0FFhx16 \
  -AENTRY=00h-0FFhx16 -ACOMMON=070h-07Fh -ABANK0=020h-06Fh \
  -ABANK1=0A0h-0EFh -ABANK2=0120h-016Fh -ABANK3=01A0h-01EFh \
  -ABANK4=0220h-024Fh -ABIGRAM=02000h-0216Fh \
  -ARAM=020h-06Fh,0A0h-0EFh,0120h-016Fh,01A0h-01EFh,0220h-024Fh \
  -AABS1=020h-07Fh,0A0h-0EFh,0120h-016Fh,01A0h-01EFh,0220h-024Fh \
  -ASFR0=00h-01Fh -ASFR1=080h-09Fh -ASFR2=0100h-011Fh -ASFR3=0180h-019Fh \
  -ASFR4=0200h-021Fh -ASFR5=0280h-02EFh -ASFR6=0300h-036Fh \
  -ASFR7=0380h-03EFh -ASFR8=0400h-046Fh -ASFR9=0480h-04EFh \
  -ASFR10=0500h-056Fh -ASFR11=0580h-05EFh -ASFR12=0600h-066Fh \
  -ASFR13=0680h-06EFh -ASFR14=0700h-076Fh -ASFR15=0780h-07EFh \
  -ASFR16=0800h-086Fh -ASFR17=0880h-08EFh -ASFR18=0900h-096Fh \
  -ASFR19=0980h-09EFh -ASFR20=0A00h-0A6Fh -ASFR21=0A80h-0AEFh \
  -ASFR22=0B00h-0B6Fh -ASFR23=0B80h-0BEFh -ASFR24=0C00h-0C6Fh \
  -ASFR25=0C80h-0CEFh -ASFR26=0D00h-0D6Fh -ASFR27=0D80h-0DEFh \
  -ASFR28=0E00h-0E6Fh -ASFR29=0E80h-0EEFh -ASFR30=0F00h-0F6Fh \
  -ASFR31=0F80h-0FEFh -preset_vec=00h,intentry=04h,init,end_init \
  -ppowerup=CODE -pcinit=CODE -pfunctab=CODE -ACONFIG=08007h-08008h \
  -pconfig=CONFIG -DCONFIG=2 -AIDLOC=08000h-08003h -pidloc=IDLOC -DIDLOC=2 \
  -AEEDATA=00h-0FFh/0F000h -peeprom_data=EEDATA -DEEDATA=2 -DCODE=2 \
  -DSTRCODE=2 -DSTRING=2 -DCONST=2 -DENTRY=2 -k \
  C:\Users\KERIKU~1\AppData\Local\Temp\s4r4.obj \
  dist/default/production\PIC16F1827-I2C_LCD_RTC01.X.production.obj 

Object code version is 3.11

Machine type is 16F1827



                Name                               Link     Load   Length Selector   Space Scale
C:\Users\KERIKU~1\AppData\Local\Temp\s4r4.obj
                end_init                             40       40        2        8       0
                reset_vec                             0        0        2        0       0
                config                             8007     8007        2    1000E       0
dist/default/production\PIC16F1827-I2C_LCD_RTC01.X.production.obj
                cinit                                42       42       1A        8       0
                intentry                              4        4       3C        8       0
                text33                              416      416       B5        8       0
                text32                              6C0      6C0       2B        8       0
                text31                              669      669       2C        8       0
                text30                              FE9      FE9       17     1FD2       0
                text29                              695      695       2B        8       0
                text28                              F63      F63        B     1EC6       0
                text26                              F6E      F6E        B     1EDC       0
                text25                              F85      F85        F     1F0A       0
                text24                              FB3      FB3       11     1F66       0
                text23                              7A4      7A4       1B        8       0
                text22                              F57      F57        6     1EAE       0
                text21                              74B      74B       20        8       0
                text20                              F94      F94        F     1F28       0
                text19                              563      563       43        8       0
                text18                              FD6      FD6       13     1FAC       0
                swtext1                             7D8      7D8       18      FB0       0
                text17                              76B      76B       1E        8       0
                text16                              789      789       1B        8       0
                text15                              5DE      5DE       33        8       0
                text14                              72B      72B       20        8       0
                text13                              51D      51D       46        8       0
                text12                              FC4      FC4       12     1F88       0
                text11                              70B      70B       20        8       0
                text10                              FA3      FA3       10     1F46       0
                text9                               6EB      6EB       20        8       0
                text8                               7BF      7BF       19        8       0
                text7                               5A6      5A6       38        8       0
                text6                               4CB      4CB       52        8       0
                text5                               319      319       FD        8       0
                text4                               1C4      1C4      155        8       0
                text3                               63D      63D       2C        8       0
                text2                               F79      F79        C     1EF2       0
                text1                               611      611       2C        8       0
                maintext                             5C       5C      168        8       0
                cstackBANK0                          20       20       1F       20       1
                cstackCOMMON                         70       70        8       70       1
                cstackBANK1                          A0       A0       46       A0       1
                clrtext                             F5D      F5D        6     1EBA       0
                bssBANK1                             E6       E6        1       A0       1
                dataBANK0                            4C       4C        2       20       1
                bssBANK0                             3F       3F        D       20       1
                bssCOMMON                            78       78        4       70       1
                stringtext                          7F0      7F0       14      FE0       0
                idataBANK0                            2        2        2        0       0

TOTAL           Name                               Link     Load   Length     Space
        CLASS   STACK          

        CLASS   CODE           
                end_init                             40       40        2         0
                cinit                                42       42       1A         0
                intentry                              4        4       3C         0
                reset_vec                             0        0        2         0
                text33                              416      416       B5         0
                text32                              6C0      6C0       2B         0
                text31                              669      669       2C         0
                text30                              FE9      FE9       17         0
                text29                              695      695       2B         0
                text28                              F63      F63        B         0
                text26                              F6E      F6E        B         0
                text25                              F85      F85        F         0
                text24                              FB3      FB3       11         0
                text23                              7A4      7A4       1B         0
                text22                              F57      F57        6         0
                text21                              74B      74B       20         0
                text20                              F94      F94        F         0
                text19                              563      563       43         0
                text18                              FD6      FD6       13         0
                text17                              76B      76B       1E         0
                text16                              789      789       1B         0
                text15                              5DE      5DE       33         0
                text14                              72B      72B       20         0
                text13                              51D      51D       46         0
                text12                              FC4      FC4       12         0
                text11                              70B      70B       20         0
                text10                              FA3      FA3       10         0
                text9                               6EB      6EB       20         0
                text8                               7BF      7BF       19         0
                text7                               5A6      5A6       38         0
                text6                               4CB      4CB       52         0
                text5                               319      319       FD         0
                text4                               1C4      1C4      155         0
                text3                               63D      63D       2C         0
                text2                               F79      F79        C         0
                text1                               611      611       2C         0
                maintext                             5C       5C      168         0
                clrtext                             F5D      F5D        6         0
                idataBANK0                            2        2        2         0

        CLASS   STRCODE        
                stringtext                          7F0      7F0       14         0

        CLASS   STRING         

        CLASS   CONST          
                swtext1                             7D8      7D8       18         0

        CLASS   ENTRY          

        CLASS   COMMON         
                cstackCOMMON                         70       70        8         1
                bssCOMMON                            78       78        4         1

        CLASS   BANK0          
                cstackBANK0                          20       20       1F         1
                dataBANK0                            4C       4C        2         1
                bssBANK0                             3F       3F        D         1

        CLASS   BANK1          
                cstackBANK1                          A0       A0       46         1
                bssBANK1                             E6       E6        1         1

        CLASS   BANK2          

        CLASS   BANK3          

        CLASS   BANK4          

        CLASS   BIGRAM         

        CLASS   RAM            

        CLASS   ABS1           
                abs_s1                               7E       7E        2         1

        CLASS   SFR0           

        CLASS   SFR1           

        CLASS   SFR2           

        CLASS   SFR3           

        CLASS   SFR4           

        CLASS   SFR5           

        CLASS   SFR6           

        CLASS   SFR7           

        CLASS   SFR8           

        CLASS   SFR9           

        CLASS   SFR10          

        CLASS   SFR11          

        CLASS   SFR12          

        CLASS   SFR13          

        CLASS   SFR14          

        CLASS   SFR15          

        CLASS   SFR16          

        CLASS   SFR17          

        CLASS   SFR18          

        CLASS   SFR19          

        CLASS   SFR20          

        CLASS   SFR21          

        CLASS   SFR22          

        CLASS   SFR23          

        CLASS   SFR24          

        CLASS   SFR25          

        CLASS   SFR26          

        CLASS   SFR27          

        CLASS   SFR28          

        CLASS   SFR29          

        CLASS   SFR30          

        CLASS   SFR31          

        CLASS   CONFIG         
                config                             8007     8007        2         0

        CLASS   IDLOC          

        CLASS   EEDATA         

        CLASS   BANK31         

        CLASS   BANK30         

        CLASS   BANK29         

        CLASS   BANK28         

        CLASS   BANK27         

        CLASS   BANK26         

        CLASS   BANK25         

        CLASS   BANK24         

        CLASS   BANK23         

        CLASS   BANK22         

        CLASS   BANK21         

        CLASS   BANK20         

        CLASS   BANK19         

        CLASS   BANK18         

        CLASS   BANK17         

        CLASS   BANK16         

        CLASS   BANK15         

        CLASS   BANK14         

        CLASS   BANK13         

        CLASS   BANK12         

        CLASS   BANK11         

        CLASS   BANK10         

        CLASS   BANK9          

        CLASS   BANK8          

        CLASS   BANK7          

        CLASS   BANK6          

        CLASS   BANK5          



SEGMENTS        Name                           Load    Length   Top    Selector   Space  Class     Delta

                reset_vec                      000000  000004  000004         0       0  CODE        2
                intentry                       000004  0007D4  0007D8         8       0  CODE        2
                cstackBANK0                    000020  00002E  00004E        20       1  BANK0       1
                cstackCOMMON                   000070  00000C  00007C        70       1  COMMON      1
                cstackBANK1                    0000A0  000047  0000E7        A0       1  BANK1       1
                swtext1                        0007D8  000018  0007F0       FB0       0  CONST       2
                stringtext                     0007F0  000014  000804       FE0       0  STRCODE     2
                text22                         000F57  000006  000F5D      1EAE       0  CODE        2
                clrtext                        000F5D  000006  000F63      1EBA       0  CODE        2
                text28                         000F63  00000B  000F6E      1EC6       0  CODE        2
                text26                         000F6E  00000B  000F79      1EDC       0  CODE        2
                text2                          000F79  00000C  000F85      1EF2       0  CODE        2
                text25                         000F85  00000F  000F94      1F0A       0  CODE        2
                text20                         000F94  00000F  000FA3      1F28       0  CODE        2
                text10                         000FA3  000010  000FB3      1F46       0  CODE        2
                text24                         000FB3  000011  000FC4      1F66       0  CODE        2
                text12                         000FC4  000012  000FD6      1F88       0  CODE        2
                text18                         000FD6  000013  000FE9      1FAC       0  CODE        2
                text30                         000FE9  000017  001000      1FD2       0  CODE        2
                config                         008007  000002  008009     1000E       0  CONFIG      2


UNUSED ADDRESS RANGES

        Name                Unused          Largest block    Delta
        BANK0            0004E-0006F              22           1
        BANK1            000E7-000EF               9           1
        BANK2            00120-0016F              50           1
        BANK3            001A0-001EF              50           1
        BANK4            00220-0024F              30           1
        BIGRAM           02000-0216F             170           1
        CODE             00804-00F56             753           2
        COMMON           0007C-0007D               2           1
        CONST            00804-00F56             100           2
        EEDATA           0F000-0F0FF             100           2
        ENTRY            00804-00F56             100           2
        IDLOC            08000-08003               4           2
        RAM              0004E-0006F              22           1
                         000E7-000EF               9
                         00120-0016F              50
                         001A0-001EF              50
                         00220-0024F              30
        SFR0             00000-0001F              20           1
        SFR1             00080-0009F              20           1
        SFR10            00500-0056F              70           1
        SFR11            00580-005EF              70           1
        SFR12            00600-0066F              70           1
        SFR13            00680-006EF              70           1
        SFR14            00700-0076F              70           1
        SFR15            00780-007EF              70           1
        SFR16            00800-0086F              70           1
        SFR17            00880-008EF              70           1
        SFR18            00900-0096F              70           1
        SFR19            00980-009EF              70           1
        SFR2             00100-0011F              20           1
        SFR20            00A00-00A6F              70           1
        SFR21            00A80-00AEF              70           1
        SFR22            00B00-00B6F              70           1
        SFR23            00B80-00BEF              70           1
        SFR24            00C00-00C6F              70           1
        SFR25            00C80-00CEF              70           1
        SFR26            00D00-00D6F              70           1
        SFR27            00D80-00DEF              70           1
        SFR28            00E00-00E6F              70           1
        SFR29            00E80-00EEF              70           1
        SFR3             00180-0019F              20           1
        SFR30            00F00-00F6F              70           1
        SFR31            00F80-00FEF              70           1
        SFR4             00200-0021F              20           1
        SFR5             00280-002EF              70           1
        SFR6             00300-0036F              70           1
        SFR7             00380-003EF              70           1
        SFR8             00400-0046F              70           1
        SFR9             00480-004EF              70           1
        STACK            02097-0216F              D9           1
        STRCODE          00804-00F56             753           2
        STRING           00804-00F56             100           2

                                  Symbol Table

?___awdiv                        cstackBANK0  00020
?___awmod                        cstackBANK0  00020
I2C_IdleCheck@mask               cstackBANK0  00021
I2C_Receive@ack                  cstackBANK0  00023
I2C_Receive@data                 cstackBANK0  00024
I2C_Send@data                    cstackBANK0  00022
I2C_Start@adrs                   cstackBANK0  00023
I2C_Start@rw                     cstackBANK0  00022
I2C_rStart@adrs                  cstackBANK0  00022
I2C_rStart@rw                    cstackBANK0  00024
LCD_Command@ans                  cstackBANK0  00026
LCD_Command@c                    cstackBANK0  00025
LCD_Putc@ans                     cstackBANK0  00026
LCD_Putc@c                       cstackBANK0  00025
LCD_Puts@ans                     cstackBANK0  00028
LCD_Puts@s                       cstackBANK0  00024
LCD_SetCursor@F2888              dataBANK0    0004C
LCD_SetCursor@col                cstackBANK0  0002A
LCD_SetCursor@row                cstackBANK0  00027
LCD_SetCursor@row_offsets        cstackBANK0  00028
RTC_Read@Reg                     cstackBANK0  00027
RTC_Read@ans                     cstackBANK0  00029
RTC_Read@data                    cstackBANK0  00028
RTC_Write@Reg                    cstackBANK0  00026
RTC_Write@ans                    cstackBANK0  00027
RTC_Write@data                   cstackBANK0  00024
UART_init@device                 cstackBANK0  00020
_ADCON0bits                      (abs)        0009D
_ADCON1bits                      (abs)        0009E
_ADRES                           (abs)        0009B
_ANSELA                          (abs)        0018C
_ANSELB                          (abs)        0018D
_APFCON0bits                     (abs)        0011D
_APFCON1bits                     (abs)        0011E
_BCL1IF                          (abs)        00093
_BRG16                           (abs)        00CFB
_DD                              bssBANK0     00046
_EE                              bssBANK1     000E6
_FVRCON                          (abs)        00117
_I2C_IdleCheck                   text25       00F85
_I2C_Receive                     text9        006EB
_I2C_Send                        text24       00FB3
_I2C_Start                       text23       007A4
_I2C_Stop                        text22       00F57
_I2C_init                        text26       00F6E
_I2C_rStart                      text8        007BF
_INTCONbits                      (abs)        0000B
_LATB0                           (abs)        00868
_LCD_Clear                       text20       00F94
_LCD_Command                     text21       0074B
_LCD_Putc                        text11       0070B
_LCD_Puts                        text15       005DE
_LCD_SetCursor                   text10       00FA3
_LCD_init                        text19       00563
_MM                              bssBANK0     00047
_OPTION_REG                      (abs)        00095
_OPTION_REGbits                  (abs)        00095
_OSCCON                          (abs)        00099
_PIE1bits                        (abs)        00091
_PORTA                           (abs)        0000C
_PORTB                           (abs)        0000D
_RA0                             (abs)        00060
_RA1                             (abs)        00061
_RCIF                            (abs)        0008D
_RCREG                           (abs)        00199
_RCSTA                           (abs)        0019D
_RTC_Read                        text7        005A6
_RTC_Write                       text14       0072B
_SPBRGH                          (abs)        0019C
_SPBRGL                          (abs)        0019B
_SPEN                            (abs)        00CEF
_SSP1ADD                         (abs)        00212
_SSP1BUF                         (abs)        00211
_SSP1CON1                        (abs)        00215
_SSP1CON2                        (abs)        00216
_SSP1CON2bits                    (abs)        00216
_SSP1IF                          (abs)        0008B
_SSP1STAT                        (abs)        00214
_T1CON                           (abs)        00018
_T1CONbits                       (abs)        00018
_TMR1H                           (abs)        00017
_TMR1IF                          (abs)        00088
_TMR1L                           (abs)        00016
_TRISA                           (abs)        0008C
_TRISB                           (abs)        0008D
_TXIE                            (abs)        0048C
_TXIF                            (abs)        0008C
_TXREG                           (abs)        0019A
_TXSTA                           (abs)        0019E
_UART_init                       text18       00FD6
_WPUB                            (abs)        0020D
_YY                              bssBANK0     00048
__CFG_BOREN$OFF                  (abs)        00000
__CFG_BORV$LO                    (abs)        00000
__CFG_CLKOUTEN$OFF               (abs)        00000
__CFG_CP$OFF                     (abs)        00000
__CFG_CPD$OFF                    (abs)        00000
__CFG_FCMEN$OFF                  (abs)        00000
__CFG_FOSC$INTOSC                (abs)        00000
__CFG_IESO$OFF                   (abs)        00000
__CFG_LVP$OFF                    (abs)        00000
__CFG_MCLRE$OFF                  (abs)        00000
__CFG_PLLEN$ON                   (abs)        00000
__CFG_PWRTE$OFF                  (abs)        00000
__CFG_STVREN$OFF                 (abs)        00000
__CFG_WDTE$OFF                   (abs)        00000
__CFG_WRT$OFF                    (abs)        00000
__Habs1                          abs1         00000
__Hbank0                         bank0        00000
__Hbank1                         bank1        00000
__Hbank10                        bank10       00000
__Hbank11                        bank11       00000
__Hbank12                        bank12       00000
__Hbank13                        bank13       00000
__Hbank14                        bank14       00000
__Hbank15                        bank15       00000
__Hbank16                        bank16       00000
__Hbank17                        bank17       00000
__Hbank18                        bank18       00000
__Hbank19                        bank19       00000
__Hbank2                         bank2        00000
__Hbank20                        bank20       00000
__Hbank21                        bank21       00000
__Hbank22                        bank22       00000
__Hbank23                        bank23       00000
__Hbank24                        bank24       00000
__Hbank25                        bank25       00000
__Hbank26                        bank26       00000
__Hbank27                        bank27       00000
__Hbank28                        bank28       00000
__Hbank29                        bank29       00000
__Hbank3                         bank3        00000
__Hbank30                        bank30       00000
__Hbank31                        bank31       00000
__Hbank4                         bank4        00000
__Hbank5                         bank5        00000
__Hbank6                         bank6        00000
__Hbank7                         bank7        00000
__Hbank8                         bank8        00000
__Hbank9                         bank9        00000
__Hbigram                        bigram       00000
__HbssBANK0                      bssBANK0     00000
__HbssBANK1                      bssBANK1     00000
__HbssCOMMON                     bssCOMMON    00000
__Hcinit                         cinit        0005C
__Hclrtext                       clrtext      00000
__Hcode                          code         00000
__Hcommon                        common       00000
__Hconfig                        config       08009
__HcstackBANK0                   cstackBANK0  00000
__HcstackBANK1                   cstackBANK1  00000
__HcstackCOMMON                  cstackCOMMON 00000
__HdataBANK0                     dataBANK0    00000
__Heeprom_data                   eeprom_data  00000
__Hend_init                      end_init     00042
__Hfunctab                       functab      00000
__HidataBANK0                    idataBANK0   00000
__Hidloc                         idloc        00000
__Hinit                          init         00040
__Hintentry                      intentry     00040
__Hmaintext                      maintext     00000
__Hpowerup                       powerup      00000
__Hram                           ram          00000
__Hreset_vec                     reset_vec    00002
__Hsfr0                          sfr0         00000
__Hsfr1                          sfr1         00000
__Hsfr10                         sfr10        00000
__Hsfr11                         sfr11        00000
__Hsfr12                         sfr12        00000
__Hsfr13                         sfr13        00000
__Hsfr14                         sfr14        00000
__Hsfr15                         sfr15        00000
__Hsfr16                         sfr16        00000
__Hsfr17                         sfr17        00000
__Hsfr18                         sfr18        00000
__Hsfr19                         sfr19        00000
__Hsfr2                          sfr2         00000
__Hsfr20                         sfr20        00000
__Hsfr21                         sfr21        00000
__Hsfr22                         sfr22        00000
__Hsfr23                         sfr23        00000
__Hsfr24                         sfr24        00000
__Hsfr25                         sfr25        00000
__Hsfr26                         sfr26        00000
__Hsfr27                         sfr27        00000
__Hsfr28                         sfr28        00000
__Hsfr29                         sfr29        00000
__Hsfr3                          sfr3         00000
__Hsfr30                         sfr30        00000
__Hsfr31                         sfr31        00000
__Hsfr4                          sfr4         00000
__Hsfr5                          sfr5         00000
__Hsfr6                          sfr6         00000
__Hsfr7                          sfr7         00000
__Hsfr8                          sfr8         00000
__Hsfr9                          sfr9         00000
__Hspace_0                       (abs)        08009
__Hspace_1                       (abs)        000E7
__Hspace_2                       (abs)        00000
__Hspace_3                       (abs)        00000
__Hstack                         stack        00000
__Hstrings                       strings      00000
__Hstringtext                    stringtext   00000
__Htext                          text         00000
__Labs1                          abs1         00000
__Lbank0                         bank0        00000
__Lbank1                         bank1        00000
__Lbank10                        bank10       00000
__Lbank11                        bank11       00000
__Lbank12                        bank12       00000
__Lbank13                        bank13       00000
__Lbank14                        bank14       00000
__Lbank15                        bank15       00000
__Lbank16                        bank16       00000
__Lbank17                        bank17       00000
__Lbank18                        bank18       00000
__Lbank19                        bank19       00000
__Lbank2                         bank2        00000
__Lbank20                        bank20       00000
__Lbank21                        bank21       00000
__Lbank22                        bank22       00000
__Lbank23                        bank23       00000
__Lbank24                        bank24       00000
__Lbank25                        bank25       00000
__Lbank26                        bank26       00000
__Lbank27                        bank27       00000
__Lbank28                        bank28       00000
__Lbank29                        bank29       00000
__Lbank3                         bank3        00000
__Lbank30                        bank30       00000
__Lbank31                        bank31       00000
__Lbank4                         bank4        00000
__Lbank5                         bank5        00000
__Lbank6                         bank6        00000
__Lbank7                         bank7        00000
__Lbank8                         bank8        00000
__Lbank9                         bank9        00000
__Lbigram                        bigram       00000
__LbssBANK0                      bssBANK0     00000
__LbssBANK1                      bssBANK1     00000
__LbssCOMMON                     bssCOMMON    00000
__Lcinit                         cinit        00042
__Lclrtext                       clrtext      00000
__Lcode                          code         00000
__Lcommon                        common       00000
__Lconfig                        config       08007
__LcstackBANK0                   cstackBANK0  00000
__LcstackBANK1                   cstackBANK1  00000
__LcstackCOMMON                  cstackCOMMON 00000
__LdataBANK0                     dataBANK0    00000
__Leeprom_data                   eeprom_data  00000
__Lend_init                      end_init     00040
__Lfunctab                       functab      00000
__LidataBANK0                    idataBANK0   00000
__Lidloc                         idloc        00000
__Linit                          init         00040
__Lintentry                      intentry     00004
__Lmaintext                      maintext     00000
__Lpowerup                       powerup      00000
__Lram                           ram          00000
__Lreset_vec                     reset_vec    00000
__Lsfr0                          sfr0         00000
__Lsfr1                          sfr1         00000
__Lsfr10                         sfr10        00000
__Lsfr11                         sfr11        00000
__Lsfr12                         sfr12        00000
__Lsfr13                         sfr13        00000
__Lsfr14                         sfr14        00000
__Lsfr15                         sfr15        00000
__Lsfr16                         sfr16        00000
__Lsfr17                         sfr17        00000
__Lsfr18                         sfr18        00000
__Lsfr19                         sfr19        00000
__Lsfr2                          sfr2         00000
__Lsfr20                         sfr20        00000
__Lsfr21                         sfr21        00000
__Lsfr22                         sfr22        00000
__Lsfr23                         sfr23        00000
__Lsfr24                         sfr24        00000
__Lsfr25                         sfr25        00000
__Lsfr26                         sfr26        00000
__Lsfr27                         sfr27        00000
__Lsfr28                         sfr28        00000
__Lsfr29                         sfr29        00000
__Lsfr3                          sfr3         00000
__Lsfr30                         sfr30        00000
__Lsfr31                         sfr31        00000
__Lsfr4                          sfr4         00000
__Lsfr5                          sfr5         00000
__Lsfr6                          sfr6         00000
__Lsfr7                          sfr7         00000
__Lsfr8                          sfr8         00000
__Lsfr9                          sfr9         00000
__Lspace_0                       (abs)        00000
__Lspace_1                       (abs)        00000
__Lspace_2                       (abs)        00000
__Lspace_3                       (abs)        00000
__Lstack                         stack        00000
__Lstrings                       strings      00000
__Lstringtext                    stringtext   00000
__Ltext                          text         00000
__S0                             (abs)        08009
__S1                             (abs)        000E7
__S2                             (abs)        00000
__S3                             (abs)        00000
___awdiv                         text6        004CB
___awdiv@counter                 cstackBANK0  00025
___awdiv@dividend                cstackBANK0  00022
___awdiv@divisor                 cstackBANK0  00020
___awdiv@quotient                cstackBANK0  00027
___awdiv@sign                    cstackBANK0  00026
___awmod                         text13       0051D
___awmod@counter                 cstackBANK0  00025
___awmod@dividend                cstackBANK0  00022
___awmod@divisor                 cstackBANK0  00020
___awmod@sign                    cstackBANK0  00026
___bmul                          text12       00FC4
___bmul@multiplicand             cstackBANK0  00029
___bmul@multiplier               cstackBANK0  0002C
___bmul@product                  cstackBANK0  0002B
___int_sp                        stack        00000
___latbits                       (abs)        00001
___sp                            stack        00000
__end_of_I2C_IdleCheck           text25       00F94
__end_of_I2C_Receive             text9        0070B
__end_of_I2C_Send                text24       00FC4
__end_of_I2C_Start               text23       007BF
__end_of_I2C_Stop                text22       00F5D
__end_of_I2C_init                text26       00F79
__end_of_I2C_rStart              text8        007D8
__end_of_LCD_Clear               text20       00FA3
__end_of_LCD_Command             text21       0076B
__end_of_LCD_Putc                text11       0072B
__end_of_LCD_Puts                text15       00611
__end_of_LCD_SetCursor           text10       00FB3
__end_of_LCD_init                text19       005A6
__end_of_RTC_Read                text7        005DE
__end_of_RTC_Write               text14       0074B
__end_of_UART_init               text18       00FE9
__end_of___awdiv                 text6        0051D
__end_of___awmod                 text13       00563
__end_of___bmul                  text12       00FD6
__end_of__initialization         cinit        00058
__end_of_button_timer_interrupt  text33       004CB
__end_of_display                 text5        00416
__end_of_interrupt_TXIF          text30       01000
__end_of_isr                     intentry     00040
__end_of_main                    maintext     001C4
__end_of_month_length            text17       00789
__end_of_ringbuf_init            text16       007A4
__end_of_ringbuf_num             text32       006EB
__end_of_ringbuf_pop             text31       00695
__end_of_ringbuf_push            text3        00669
__end_of_timeset                 text4        00319
__end_of_tx_send                 text2        00F85
__end_of_tx_sends                text1        0063D
__end_ofi1_ringbuf_push          text29       006C0
__end_ofi1_tx_send               text28       00F6E
__initialization                 cinit        00042
__pbssBANK0                      bssBANK0     0003F
__pbssBANK1                      bssBANK1     000E6
__pbssCOMMON                     bssCOMMON    00078
__pcstackBANK0                   cstackBANK0  00020
__pcstackBANK1                   cstackBANK1  000A0
__pcstackCOMMON                  cstackCOMMON 00070
__pdataBANK0                     dataBANK0    0004C
__pidataBANK0                    idataBANK0   00002
__pintentry                      intentry     00004
__pmaintext                      maintext     0005C
__pstringtext                    stringtext   007F0
__pswtext1                       swtext1      007D8
__ptext1                         text1        00611
__ptext10                        text10       00FA3
__ptext11                        text11       0070B
__ptext12                        text12       00FC4
__ptext13                        text13       0051D
__ptext14                        text14       0072B
__ptext15                        text15       005DE
__ptext16                        text16       00789
__ptext17                        text17       0076B
__ptext18                        text18       00FD6
__ptext19                        text19       00563
__ptext2                         text2        00F79
__ptext20                        text20       00F94
__ptext21                        text21       0074B
__ptext22                        text22       00F57
__ptext23                        text23       007A4
__ptext24                        text24       00FB3
__ptext25                        text25       00F85
__ptext26                        text26       00F6E
__ptext28                        text28       00F63
__ptext29                        text29       00695
__ptext3                         text3        0063D
__ptext30                        text30       00FE9
__ptext31                        text31       00669
__ptext32                        text32       006C0
__ptext33                        text33       00416
__ptext4                         text4        001C4
__ptext5                         text5        00319
__ptext6                         text6        004CB
__ptext7                         text7        005A6
__ptext8                         text8        007BF
__ptext9                         text9        006EB
__size_of_I2C_IdleCheck          (abs)        00000
__size_of_I2C_Receive            (abs)        00000
__size_of_I2C_Send               (abs)        00000
__size_of_I2C_Start              (abs)        00000
__size_of_I2C_Stop               (abs)        00000
__size_of_I2C_init               (abs)        00000
__size_of_I2C_rStart             (abs)        00000
__size_of_LCD_Clear              (abs)        00000
__size_of_LCD_Command            (abs)        00000
__size_of_LCD_Putc               (abs)        00000
__size_of_LCD_Puts               (abs)        00000
__size_of_LCD_SetCursor          (abs)        00000
__size_of_LCD_init               (abs)        00000
__size_of_RTC_Read               (abs)        00000
__size_of_RTC_Write              (abs)        00000
__size_of_UART_init              (abs)        00000
__size_of___awdiv                (abs)        00000
__size_of___awmod                (abs)        00000
__size_of___bmul                 (abs)        00000
__size_of_button_timer_interrupt (abs)        00000
__size_of_display                (abs)        00000
__size_of_interrupt_TXIF         (abs)        00000
__size_of_isr                    (abs)        00000
__size_of_main                   (abs)        00000
__size_of_month_length           (abs)        00000
__size_of_ringbuf_init           (abs)        00000
__size_of_ringbuf_num            (abs)        00000
__size_of_ringbuf_pop            (abs)        00000
__size_of_ringbuf_push           (abs)        00000
__size_of_timeset                (abs)        00000
__size_of_tx_send                (abs)        00000
__size_of_tx_sends               (abs)        00000
__size_ofi1_ringbuf_push         (abs)        00000
__size_ofi1_tx_send              (abs)        00000
_button_timer_interrupt          text33       00416
_cnt_t1                          bssCOMMON    00078
_display                         text5        00319
_hh                              bssBANK0     00049
_interrupt_TXIF                  text30       00FE9
_isr                             intentry     00004
_main                            maintext     0005C
_mm                              bssBANK0     0004A
_month_length                    text17       0076B
_ringbuf_init                    text16       00789
_ringbuf_num                     text32       006C0
_ringbuf_pop                     text31       00669
_ringbuf_push                    text3        0063D
_ss                              bssBANK0     0004B
_sw_RA0                          bssBANK0     00043
_sw_RA1                          bssCOMMON    00079
_timeset                         text4        001C4
_tx_buf                          bssBANK0     0003F
_tx_send                         text2        00F79
_tx_sends                        text1        00611
btemp                            (abs)        0007E
button_timer_interrupt@bt        cstackCOMMON 00073
button_timer_interrupt@sw_value  cstackCOMMON 00070
clear_ram0                       clrtext      00F5D
end_of_initialization            cinit        00058
i1_ringbuf_push                  text29       00695
i1_tx_send                       text28       00F63
i1ringbuf_push@asciicode         cstackCOMMON 00070
i1ringbuf_push@rb                cstackCOMMON 00073
i1tx_send@asciicode              cstackCOMMON 00075
int$flags                        (abs)        0007E
intlevel0                        functab      00000
intlevel1                        functab      00000
intlevel2                        functab      00000
intlevel3                        functab      00000
intlevel4                        functab      00000
intlevel5                        functab      00000
ltemp                            (abs)        0007E
ltemp0                           (abs)        0007E
ltemp1                           (abs)        00082
ltemp2                           (abs)        00086
ltemp3                           (abs)        00080
main@buf                         cstackBANK1  000A0
month_length@month               cstackBANK0  00020
month_length@year                cstackBANK0  00021
reset_vec                        reset_vec    00000
ringbuf_init@bufsize             cstackBANK0  00021
ringbuf_init@internal_buf        cstackBANK0  00020
ringbuf_init@rb                  cstackBANK0  00023
ringbuf_num@rb                   cstackCOMMON 00071
ringbuf_pop@rb                   cstackCOMMON 00073
ringbuf_pop@ret                  cstackCOMMON 00072
ringbuf_push@asciicode           cstackBANK0  00020
ringbuf_push@rb                  cstackBANK0  00023
stackhi                          (abs)        0216F
stacklo                          (abs)        02097
start                            init         00040
start_initialization             cinit        00042
timeset@Reg                      cstackBANK0  0002F
timeset@column                   cstackBANK0  00030
timeset@max_num                  cstackBANK0  0002E
timeset@min_num                  cstackBANK0  0002D
timeset@row                      cstackBANK0  00031
timeset@t                        cstackBANK0  00038
timeset@t_599                    cstackBANK0  00039
timeset@value                    cstackBANK0  0003A
ttemp                            (abs)        0007E
ttemp0                           (abs)        0007E
ttemp1                           (abs)        00081
ttemp2                           (abs)        00084
ttemp3                           (abs)        00087
ttemp4                           (abs)        0007F
tx_send@asciicode                cstackBANK0  00025
tx_sends@asciicode               cstackBANK0  00024
tx_sends@i                       cstackBANK0  00029
wtemp                            (abs)        0007E
wtemp0                           (abs)        0007E
wtemp1                           (abs)        00080
wtemp2                           (abs)        00082
wtemp3                           (abs)        00084
wtemp4                           (abs)        00086
wtemp5                           (abs)        00088
wtemp6                           (abs)        0007F


FUNCTION INFORMATION:

 *************** function _main *****************
 Defined at:
		line 145 in file "PIC16F1827-I2C_LCD_RTC01.c"
 Parameters:    Size  Location     Type
		None
 Auto vars:     Size  Location     Type
  buf            70    0[BANK1 ] unsigned char [70]
 Return value:  Size  Location     Type
		None               void
 Registers used:
		wreg, fsr0l, fsr0h, fsr1l, fsr1h, status,2, status,0, pclath, cstack
 Tracked objects:
		On entry : 
		On exit  : 
		Unchanged: 
 Data sizes:     COMMON   BANK0   BANK1   BANK2   BANK3   BANK4
      Params:         0       0       0       0       0       0
      Locals:         0       0      70       0       0       0
      Temps:          0       4       0       0       0       0
      Totals:         0       4      70       0       0       0
Total ram usage:       74 bytes
 Hardware stack levels required when called:    9
 This function calls:
		_I2C_init
		_LCD_init
		_RTC_Write
		_UART_init
		_display
		_month_length
		_ringbuf_init
		_timeset
		_tx_send
		_tx_sends
 This function is called by:
		Startup code after reset
 This function uses a non-reentrant model


 *************** function _tx_sends *****************
 Defined at:
		line 166 in file "My_header_16F.h"
 Parameters:    Size  Location     Type
  asciicode       2    4[BANK0 ] PTR const unsigned char 
		 -> STR_2(17), 
 Auto vars:     Size  Location     Type
  i               1    9[BANK0 ] unsigned char 
 Return value:  Size  Location     Type
		None               void
 Registers used:
		wreg, fsr0l, fsr0h, fsr1l, fsr1h, status,2, status,0, pclath, cstack
 Tracked objects:
		On entry : 
		On exit  : 
		Unchanged: 
 Data sizes:     COMMON   BANK0   BANK1   BANK2   BANK3   BANK4
      Params:         0       2       0       0       0       0
      Locals:         0       1       0       0       0       0
      Temps:          0       3       0       0       0       0
      Totals:         0       6       0       0       0       0
Total ram usage:        6 bytes
 Hardware stack levels used:    1
 Hardware stack levels required when called:    4
 This function calls:
		_ringbuf_push
 This function is called by:
		_main
 This function uses a non-reentrant model


 *************** function _tx_send *****************
 Defined at:
		line 161 in file "My_header_16F.h"
 Parameters:    Size  Location     Type
  asciicode       1    wreg     unsigned char 
 Auto vars:     Size  Location     Type
  asciicode       1    5[BANK0 ] unsigned char 
 Return value:  Size  Location     Type
		None               void
 Registers used:
		wreg, fsr0l, fsr0h, fsr1l, fsr1h, status,2, status,0, pclath, cstack
 Tracked objects:
		On entry : 
		On exit  : 
		Unchanged: 
 Data sizes:     COMMON   BANK0   BANK1   BANK2   BANK3   BANK4
      Params:         0       0       0       0       0       0
      Locals:         0       1       0       0       0       0
      Temps:          0       1       0       0       0       0
      Totals:         0       2       0       0       0       0
Total ram usage:        2 bytes
 Hardware stack levels used:    1
 Hardware stack levels required when called:    4
 This function calls:
		_ringbuf_push
 This function is called by:
		_main
 This function uses a non-reentrant model


 *************** function _ringbuf_push *****************
 Defined at:
		line 120 in file "My_header_16F.h"
 Parameters:    Size  Location     Type
  rb              1    wreg     PTR struct ringbuf
		 -> tx_buf(4), 
  asciicode       1    0[BANK0 ] unsigned char 
 Auto vars:     Size  Location     Type
  rb              1    3[BANK0 ] PTR struct ringbuf
		 -> tx_buf(4), 
 Return value:  Size  Location     Type
		None               void
 Registers used:
		wreg, fsr0l, fsr0h, fsr1l, fsr1h, status,2, status,0
 Tracked objects:
		On entry : 
		On exit  : 
		Unchanged: 
 Data sizes:     COMMON   BANK0   BANK1   BANK2   BANK3   BANK4
      Params:         0       1       0       0       0       0
      Locals:         0       1       0       0       0       0
      Temps:          0       2       0       0       0       0
      Totals:         0       4       0       0       0       0
Total ram usage:        4 bytes
 Hardware stack levels used:    1
 Hardware stack levels required when called:    3
 This function calls:
		Nothing
 This function is called by:
		_tx_send
		_tx_sends
 This function uses a non-reentrant model


 *************** function _timeset *****************
 Defined at:
		line 77 in file "PIC16F1827-I2C_LCD_RTC01.c"
 Parameters:    Size  Location     Type
  value           1    wreg     PTR unsigned char 
		 -> YY(1), MM(1), DD(1), hh(1), 
		 -> mm(1), ss(1), 
  min_num         1   13[BANK0 ] unsigned char 
  max_num         1   14[BANK0 ] unsigned char 
  Reg             1   15[BANK0 ] unsigned char 
  column          1   16[BANK0 ] unsigned char 
  row             1   17[BANK0 ] unsigned char 
 Auto vars:     Size  Location     Type
  value           1   26[BANK0 ] PTR unsigned char 
		 -> YY(1), MM(1), DD(1), hh(1), 
		 -> mm(1), ss(1), 
  t               1   25[BANK0 ] unsigned char 
  t               1   24[BANK0 ] unsigned char 
 Return value:  Size  Location     Type
		None               void
 Registers used:
		wreg, fsr0l, fsr0h, fsr1l, fsr1h, status,2, status,0, pclath, cstack
 Tracked objects:
		On entry : 
		On exit  : 
		Unchanged: 
 Data sizes:     COMMON   BANK0   BANK1   BANK2   BANK3   BANK4
      Params:         0       5       0       0       0       0
      Locals:         0       3       0       0       0       0
      Temps:          0       6       0       0       0       0
      Totals:         0      14       0       0       0       0
Total ram usage:       14 bytes
 Hardware stack levels used:    1
 Hardware stack levels required when called:    8
 This function calls:
		_LCD_Putc
		_LCD_Puts
		_LCD_SetCursor
		_RTC_Read
		_RTC_Write
		___awdiv
		___awmod
		___bmul
		_display
 This function is called by:
		_main
 This function uses a non-reentrant model


 *************** function _display *****************
 Defined at:
		line 117 in file "PIC16F1827-I2C_LCD_RTC01.c"
 Parameters:    Size  Location     Type
		None
 Auto vars:     Size  Location     Type
		None
 Return value:  Size  Location     Type
		None               void
 Registers used:
		wreg, fsr1l, fsr1h, status,2, status,0, pclath, cstack
 Tracked objects:
		On entry : 
		On exit  : 
		Unchanged: 
 Data sizes:     COMMON   BANK0   BANK1   BANK2   BANK3   BANK4
      Params:         0       0       0       0       0       0
      Locals:         0       0       0       0       0       0
      Temps:          0       2       0       0       0       0
      Totals:         0       2       0       0       0       0
Total ram usage:        2 bytes
 Hardware stack levels used:    1
 Hardware stack levels required when called:    7
 This function calls:
		_LCD_Putc
		_LCD_SetCursor
		_RTC_Read
		___awdiv
 This function is called by:
		_timeset
		_main
 This function uses a non-reentrant model


 *************** function ___awdiv *****************
 Defined at:
		line 6 in file "C:\Program Files (x86)\Microchip\xc8\v1.35\sources\common\awdiv.c"
 Parameters:    Size  Location     Type
  divisor         2    0[BANK0 ] int 
  dividend        2    2[BANK0 ] int 
 Auto vars:     Size  Location     Type
  quotient        2    7[BANK0 ] int 
  sign            1    6[BANK0 ] unsigned char 
  counter         1    5[BANK0 ] unsigned char 
 Return value:  Size  Location     Type
                  2    0[BANK0 ] int 
 Registers used:
		wreg, status,2, status,0
 Tracked objects:
		On entry : 
		On exit  : 
		Unchanged: 
 Data sizes:     COMMON   BANK0   BANK1   BANK2   BANK3   BANK4
      Params:         0       4       0       0       0       0
      Locals:         0       4       0       0       0       0
      Temps:          0       1       0       0       0       0
      Totals:         0       9       0       0       0       0
Total ram usage:        9 bytes
 Hardware stack levels used:    1
 Hardware stack levels required when called:    3
 This function calls:
		Nothing
 This function is called by:
		_timeset
		_display
 This function uses a non-reentrant model


 *************** function _RTC_Read *****************
 Defined at:
		line 368 in file "My_header_16F.h"
 Parameters:    Size  Location     Type
  Reg             1    wreg     unsigned char 
 Auto vars:     Size  Location     Type
  Reg             1    7[BANK0 ] unsigned char 
  ans             1    9[BANK0 ] unsigned char 
  data            1    8[BANK0 ] unsigned char 
 Return value:  Size  Location     Type
                  1    wreg      unsigned char 
 Registers used:
		wreg, status,2, status,0, pclath, cstack
 Tracked objects:
		On entry : 
		On exit  : 
		Unchanged: 
 Data sizes:     COMMON   BANK0   BANK1   BANK2   BANK3   BANK4
      Params:         0       0       0       0       0       0
      Locals:         0       3       0       0       0       0
      Temps:          0       1       0       0       0       0
      Totals:         0       4       0       0       0       0
Total ram usage:        4 bytes
 Hardware stack levels used:    1
 Hardware stack levels required when called:    5
 This function calls:
		_I2C_Receive
		_I2C_Send
		_I2C_Start
		_I2C_Stop
		_I2C_rStart
 This function is called by:
		_timeset
		_display
 This function uses a non-reentrant model


 *************** function _I2C_rStart *****************
 Defined at:
		line 225 in file "My_header_16F.h"
 Parameters:    Size  Location     Type
  adrs            2    2[BANK0 ] int 
  rw              2    4[BANK0 ] int 
 Auto vars:     Size  Location     Type
		None
 Return value:  Size  Location     Type
                  1    wreg      unsigned char 
 Registers used:
		wreg, status,2, status,0, pclath, cstack
 Tracked objects:
		On entry : 
		On exit  : 
		Unchanged: 
 Data sizes:     COMMON   BANK0   BANK1   BANK2   BANK3   BANK4
      Params:         0       4       0       0       0       0
      Locals:         0       0       0       0       0       0
      Temps:          0       0       0       0       0       0
      Totals:         0       4       0       0       0       0
Total ram usage:        4 bytes
 Hardware stack levels used:    1
 Hardware stack levels required when called:    4
 This function calls:
		_I2C_IdleCheck
 This function is called by:
		_RTC_Read
		_TM_Read
		_EEP_Read
 This function uses a non-reentrant model


 *************** function _I2C_Receive *****************
 Defined at:
		line 251 in file "My_header_16F.h"
 Parameters:    Size  Location     Type
  ack             1    wreg     unsigned char 
 Auto vars:     Size  Location     Type
  ack             1    3[BANK0 ] unsigned char 
  data            1    4[BANK0 ] unsigned char 
 Return value:  Size  Location     Type
                  1    wreg      unsigned char 
 Registers used:
		wreg, status,2, status,0, pclath, cstack
 Tracked objects:
		On entry : 
		On exit  : 
		Unchanged: 
 Data sizes:     COMMON   BANK0   BANK1   BANK2   BANK3   BANK4
      Params:         0       0       0       0       0       0
      Locals:         0       2       0       0       0       0
      Temps:          0       1       0       0       0       0
      Totals:         0       3       0       0       0       0
Total ram usage:        3 bytes
 Hardware stack levels used:    1
 Hardware stack levels required when called:    4
 This function calls:
		_I2C_IdleCheck
 This function is called by:
		_RTC_Read
		_TM_Read
		_EEP_Read
 This function uses a non-reentrant model


 *************** function _LCD_SetCursor *****************
 Defined at:
		line 285 in file "My_header_16F.h"
 Parameters:    Size  Location     Type
  col             1    wreg     unsigned char 
  row             1    7[BANK0 ] unsigned char 
 Auto vars:     Size  Location     Type
  col             1   10[BANK0 ] unsigned char 
  row_offsets     2    8[BANK0 ] unsigned char [2]
 Return value:  Size  Location     Type
		None               void
 Registers used:
		wreg, fsr1l, fsr1h, status,2, status,0, pclath, cstack
 Tracked objects:
		On entry : 
		On exit  : 
		Unchanged: 
 Data sizes:     COMMON   BANK0   BANK1   BANK2   BANK3   BANK4
      Params:         0       1       0       0       0       0
      Locals:         0       3       0       0       0       0
      Temps:          0       0       0       0       0       0
      Totals:         0       4       0       0       0       0
Total ram usage:        4 bytes
 Hardware stack levels used:    1
 Hardware stack levels required when called:    6
 This function calls:
		_LCD_Command
 This function is called by:
		_timeset
		_display
 This function uses a non-reentrant model


 *************** function _LCD_Putc *****************
 Defined at:
		line 291 in file "My_header_16F.h"
 Parameters:    Size  Location     Type
  c               1    wreg     unsigned char 
 Auto vars:     Size  Location     Type
  c               1    5[BANK0 ] unsigned char 
  ans             1    6[BANK0 ] unsigned char 
 Return value:  Size  Location     Type
		None               void
 Registers used:
		wreg, status,2, status,0, pclath, cstack
 Tracked objects:
		On entry : 
		On exit  : 
		Unchanged: 
 Data sizes:     COMMON   BANK0   BANK1   BANK2   BANK3   BANK4
      Params:         0       0       0       0       0       0
      Locals:         0       2       0       0       0       0
      Temps:          0       1       0       0       0       0
      Totals:         0       3       0       0       0       0
Total ram usage:        3 bytes
 Hardware stack levels used:    1
 Hardware stack levels required when called:    5
 This function calls:
		_I2C_Send
		_I2C_Start
		_I2C_Stop
 This function is called by:
		_timeset
		_display
 This function uses a non-reentrant model


 *************** function ___bmul *****************
 Defined at:
		line 4 in file "C:\Program Files (x86)\Microchip\xc8\v1.35\sources\common\Umul8.c"
 Parameters:    Size  Location     Type
  multiplier      1    wreg     unsigned char 
  multiplicand    1    9[BANK0 ] unsigned char 
 Auto vars:     Size  Location     Type
  multiplier      1   12[BANK0 ] unsigned char 
  product         1   11[BANK0 ] unsigned char 
 Return value:  Size  Location     Type
                  1    wreg      unsigned char 
 Registers used:
		wreg, status,2, status,0
 Tracked objects:
		On entry : 
		On exit  : 
		Unchanged: 
 Data sizes:     COMMON   BANK0   BANK1   BANK2   BANK3   BANK4
      Params:         0       1       0       0       0       0
      Locals:         0       2       0       0       0       0
      Temps:          0       1       0       0       0       0
      Totals:         0       4       0       0       0       0
Total ram usage:        4 bytes
 Hardware stack levels used:    1
 Hardware stack levels required when called:    3
 This function calls:
		Nothing
 This function is called by:
		_timeset
 This function uses a non-reentrant model


 *************** function ___awmod *****************
 Defined at:
		line 6 in file "C:\Program Files (x86)\Microchip\xc8\v1.35\sources\common\awmod.c"
 Parameters:    Size  Location     Type
  divisor         2    0[BANK0 ] int 
  dividend        2    2[BANK0 ] int 
 Auto vars:     Size  Location     Type
  sign            1    6[BANK0 ] unsigned char 
  counter         1    5[BANK0 ] unsigned char 
 Return value:  Size  Location     Type
                  2    0[BANK0 ] int 
 Registers used:
		wreg, status,2, status,0
 Tracked objects:
		On entry : 
		On exit  : 
		Unchanged: 
 Data sizes:     COMMON   BANK0   BANK1   BANK2   BANK3   BANK4
      Params:         0       4       0       0       0       0
      Locals:         0       2       0       0       0       0
      Temps:          0       1       0       0       0       0
      Totals:         0       7       0       0       0       0
Total ram usage:        7 bytes
 Hardware stack levels used:    1
 Hardware stack levels required when called:    3
 This function calls:
		Nothing
 This function is called by:
		_timeset
 This function uses a non-reentrant model


 *************** function _RTC_Write *****************
 Defined at:
		line 355 in file "My_header_16F.h"
 Parameters:    Size  Location     Type
  Reg             1    wreg     unsigned char 
  data            1    4[BANK0 ] unsigned char 
 Auto vars:     Size  Location     Type
  Reg             1    6[BANK0 ] unsigned char 
  ans             1    7[BANK0 ] unsigned char 
 Return value:  Size  Location     Type
		None               void
 Registers used:
		wreg, status,2, status,0, pclath, cstack
 Tracked objects:
		On entry : 
		On exit  : 
		Unchanged: 
 Data sizes:     COMMON   BANK0   BANK1   BANK2   BANK3   BANK4
      Params:         0       1       0       0       0       0
      Locals:         0       2       0       0       0       0
      Temps:          0       1       0       0       0       0
      Totals:         0       4       0       0       0       0
Total ram usage:        4 bytes
 Hardware stack levels used:    1
 Hardware stack levels required when called:    5
 This function calls:
		_I2C_Send
		_I2C_Start
		_I2C_Stop
 This function is called by:
		_timeset
		_main
 This function uses a non-reentrant model


 *************** function _LCD_Puts *****************
 Defined at:
		line 304 in file "My_header_16F.h"
 Parameters:    Size  Location     Type
  s               2    4[BANK0 ] PTR const unsigned char 
		 -> STR_1(3), 
 Auto vars:     Size  Location     Type
  ans             2    8[BANK0 ] int 
 Return value:  Size  Location     Type
		None               void
 Registers used:
		wreg, fsr0l, fsr0h, status,2, status,0, pclath, cstack
 Tracked objects:
		On entry : 
		On exit  : 
		Unchanged: 
 Data sizes:     COMMON   BANK0   BANK1   BANK2   BANK3   BANK4
      Params:         0       2       0       0       0       0
      Locals:         0       2       0       0       0       0
      Temps:          0       2       0       0       0       0
      Totals:         0       6       0       0       0       0
Total ram usage:        6 bytes
 Hardware stack levels used:    1
 Hardware stack levels required when called:    5
 This function calls:
		_I2C_Send
		_I2C_Start
		_I2C_Stop
 This function is called by:
		_timeset
 This function uses a non-reentrant model


 *************** function _ringbuf_init *****************
 Defined at:
		line 113 in file "My_header_16F.h"
 Parameters:    Size  Location     Type
  rb              1    wreg     PTR struct ringbuf
		 -> tx_buf(4), 
  internal_buf    1    0[BANK0 ] PTR unsigned char 
		 -> main@buf(70), 
  bufsize         1    1[BANK0 ] unsigned char 
 Auto vars:     Size  Location     Type
  rb              1    3[BANK0 ] PTR struct ringbuf
		 -> tx_buf(4), 
 Return value:  Size  Location     Type
		None               void
 Registers used:
		wreg, fsr1l, fsr1h, status,2, status,0
 Tracked objects:
		On entry : 
		On exit  : 
		Unchanged: 
 Data sizes:     COMMON   BANK0   BANK1   BANK2   BANK3   BANK4
      Params:         0       2       0       0       0       0
      Locals:         0       1       0       0       0       0
      Temps:          0       1       0       0       0       0
      Totals:         0       4       0       0       0       0
Total ram usage:        4 bytes
 Hardware stack levels used:    1
 Hardware stack levels required when called:    3
 This function calls:
		Nothing
 This function is called by:
		_main
 This function uses a non-reentrant model


 *************** function _month_length *****************
 Defined at:
		line 55 in file "PIC16F1827-I2C_LCD_RTC01.c"
 Parameters:    Size  Location     Type
  year            1    wreg     unsigned char 
  month           1    0[BANK0 ] unsigned char 
 Auto vars:     Size  Location     Type
  year            1    1[BANK0 ] unsigned char 
 Return value:  Size  Location     Type
                  1    wreg      unsigned char 
 Registers used:
		wreg, fsr0l, fsr0h, status,2, status,0
 Tracked objects:
		On entry : 
		On exit  : 
		Unchanged: 
 Data sizes:     COMMON   BANK0   BANK1   BANK2   BANK3   BANK4
      Params:         0       1       0       0       0       0
      Locals:         0       1       0       0       0       0
      Temps:          0       0       0       0       0       0
      Totals:         0       2       0       0       0       0
Total ram usage:        2 bytes
 Hardware stack levels used:    1
 Hardware stack levels required when called:    3
 This function calls:
		Nothing
 This function is called by:
		_main
 This function uses a non-reentrant model


 *************** function _UART_init *****************
 Defined at:
		line 148 in file "My_header_16F.h"
 Parameters:    Size  Location     Type
  device          1    wreg     unsigned char 
 Auto vars:     Size  Location     Type
  device          1    0[BANK0 ] unsigned char 
 Return value:  Size  Location     Type
		None               void
 Registers used:
		wreg, status,2, status,0
 Tracked objects:
		On entry : 
		On exit  : 
		Unchanged: 
 Data sizes:     COMMON   BANK0   BANK1   BANK2   BANK3   BANK4
      Params:         0       0       0       0       0       0
      Locals:         0       1       0       0       0       0
      Temps:          0       0       0       0       0       0
      Totals:         0       1       0       0       0       0
Total ram usage:        1 bytes
 Hardware stack levels used:    1
 Hardware stack levels required when called:    3
 This function calls:
		Nothing
 This function is called by:
		_main
 This function uses a non-reentrant model


 *************** function _LCD_init *****************
 Defined at:
		line 337 in file "My_header_16F.h"
 Parameters:    Size  Location     Type
		None
 Auto vars:     Size  Location     Type
		None
 Return value:  Size  Location     Type
		None               void
 Registers used:
		wreg, status,2, status,0, pclath, cstack
 Tracked objects:
		On entry : 
		On exit  : 
		Unchanged: 
 Data sizes:     COMMON   BANK0   BANK1   BANK2   BANK3   BANK4
      Params:         0       0       0       0       0       0
      Locals:         0       0       0       0       0       0
      Temps:          0       3       0       0       0       0
      Totals:         0       3       0       0       0       0
Total ram usage:        3 bytes
 Hardware stack levels used:    1
 Hardware stack levels required when called:    7
 This function calls:
		_LCD_Clear
		_LCD_Command
 This function is called by:
		_main
 This function uses a non-reentrant model


 *************** function _LCD_Clear *****************
 Defined at:
		line 280 in file "My_header_16F.h"
 Parameters:    Size  Location     Type
		None
 Auto vars:     Size  Location     Type
		None
 Return value:  Size  Location     Type
		None               void
 Registers used:
		wreg, status,2, status,0, pclath, cstack
 Tracked objects:
		On entry : 
		On exit  : 
		Unchanged: 
 Data sizes:     COMMON   BANK0   BANK1   BANK2   BANK3   BANK4
      Params:         0       0       0       0       0       0
      Locals:         0       0       0       0       0       0
      Temps:          0       2       0       0       0       0
      Totals:         0       2       0       0       0       0
Total ram usage:        2 bytes
 Hardware stack levels used:    1
 Hardware stack levels required when called:    6
 This function calls:
		_LCD_Command
 This function is called by:
		_LCD_init
 This function uses a non-reentrant model


 *************** function _LCD_Command *****************
 Defined at:
		line 267 in file "My_header_16F.h"
 Parameters:    Size  Location     Type
  c               1    wreg     unsigned char 
 Auto vars:     Size  Location     Type
  c               1    5[BANK0 ] unsigned char 
  ans             1    6[BANK0 ] unsigned char 
 Return value:  Size  Location     Type
		None               void
 Registers used:
		wreg, status,2, status,0, pclath, cstack
 Tracked objects:
		On entry : 
		On exit  : 
		Unchanged: 
 Data sizes:     COMMON   BANK0   BANK1   BANK2   BANK3   BANK4
      Params:         0       0       0       0       0       0
      Locals:         0       2       0       0       0       0
      Temps:          0       1       0       0       0       0
      Totals:         0       3       0       0       0       0
Total ram usage:        3 bytes
 Hardware stack levels used:    1
 Hardware stack levels required when called:    5
 This function calls:
		_I2C_Send
		_I2C_Start
		_I2C_Stop
 This function is called by:
		_LCD_Clear
		_LCD_SetCursor
		_LCD_init
 This function uses a non-reentrant model


 *************** function _I2C_Stop *****************
 Defined at:
		line 237 in file "My_header_16F.h"
 Parameters:    Size  Location     Type
		None
 Auto vars:     Size  Location     Type
		None
 Return value:  Size  Location     Type
		None               void
 Registers used:
		wreg, status,2, status,0, pclath, cstack
 Tracked objects:
		On entry : 
		On exit  : 
		Unchanged: 
 Data sizes:     COMMON   BANK0   BANK1   BANK2   BANK3   BANK4
      Params:         0       0       0       0       0       0
      Locals:         0       0       0       0       0       0
      Temps:          0       0       0       0       0       0
      Totals:         0       0       0       0       0       0
Total ram usage:        0 bytes
 Hardware stack levels used:    1
 Hardware stack levels required when called:    4
 This function calls:
		_I2C_IdleCheck
 This function is called by:
		_LCD_Command
		_LCD_Putc
		_LCD_Puts
		_RTC_Write
		_RTC_Read
		_LCD_CreateChar
		_TM_init
		_TM_Read
		_EEP_Write
		_EEP_Read
		_EEP_Writes
 This function uses a non-reentrant model


 *************** function _I2C_Start *****************
 Defined at:
		line 213 in file "My_header_16F.h"
 Parameters:    Size  Location     Type
  adrs            1    wreg     unsigned char 
  rw              1    2[BANK0 ] unsigned char 
 Auto vars:     Size  Location     Type
  adrs            1    3[BANK0 ] unsigned char 
 Return value:  Size  Location     Type
                  1    wreg      unsigned char 
 Registers used:
		wreg, status,2, status,0, pclath, cstack
 Tracked objects:
		On entry : 
		On exit  : 
		Unchanged: 
 Data sizes:     COMMON   BANK0   BANK1   BANK2   BANK3   BANK4
      Params:         0       1       0       0       0       0
      Locals:         0       1       0       0       0       0
      Temps:          0       0       0       0       0       0
      Totals:         0       2       0       0       0       0
Total ram usage:        2 bytes
 Hardware stack levels used:    1
 Hardware stack levels required when called:    4
 This function calls:
		_I2C_IdleCheck
 This function is called by:
		_LCD_Command
		_LCD_Putc
		_LCD_Puts
		_RTC_Write
		_RTC_Read
		_LCD_CreateChar
		_TM_init
		_TM_Read
		_EEP_Write
		_EEP_Read
		_EEP_Writes
 This function uses a non-reentrant model


 *************** function _I2C_Send *****************
 Defined at:
		line 243 in file "My_header_16F.h"
 Parameters:    Size  Location     Type
  data            1    wreg     unsigned char 
 Auto vars:     Size  Location     Type
  data            1    2[BANK0 ] unsigned char 
 Return value:  Size  Location     Type
                  1    wreg      unsigned char 
 Registers used:
		wreg, status,2, status,0, pclath, cstack
 Tracked objects:
		On entry : 
		On exit  : 
		Unchanged: 
 Data sizes:     COMMON   BANK0   BANK1   BANK2   BANK3   BANK4
      Params:         0       0       0       0       0       0
      Locals:         0       1       0       0       0       0
      Temps:          0       0       0       0       0       0
      Totals:         0       1       0       0       0       0
Total ram usage:        1 bytes
 Hardware stack levels used:    1
 Hardware stack levels required when called:    4
 This function calls:
		_I2C_IdleCheck
 This function is called by:
		_LCD_Command
		_LCD_Putc
		_LCD_Puts
		_RTC_Write
		_RTC_Read
		_LCD_CreateChar
		_TM_init
		_TM_Read
		_EEP_Write
		_EEP_Read
		_EEP_Writes
 This function uses a non-reentrant model


 *************** function _I2C_IdleCheck *****************
 Defined at:
		line 199 in file "My_header_16F.h"
 Parameters:    Size  Location     Type
  mask            1    wreg     unsigned char 
 Auto vars:     Size  Location     Type
  mask            1    1[BANK0 ] unsigned char 
 Return value:  Size  Location     Type
		None               void
 Registers used:
		wreg, status,2, status,0
 Tracked objects:
		On entry : 
		On exit  : 
		Unchanged: 
 Data sizes:     COMMON   BANK0   BANK1   BANK2   BANK3   BANK4
      Params:         0       0       0       0       0       0
      Locals:         0       1       0       0       0       0
      Temps:          0       1       0       0       0       0
      Totals:         0       2       0       0       0       0
Total ram usage:        2 bytes
 Hardware stack levels used:    1
 Hardware stack levels required when called:    3
 This function calls:
		Nothing
 This function is called by:
		_I2C_Start
		_I2C_rStart
		_I2C_Stop
		_I2C_Send
		_I2C_Receive
 This function uses a non-reentrant model


 *************** function _I2C_init *****************
 Defined at:
		line 203 in file "My_header_16F.h"
 Parameters:    Size  Location     Type
		None
 Auto vars:     Size  Location     Type
		None
 Return value:  Size  Location     Type
		None               void
 Registers used:
		wreg
 Tracked objects:
		On entry : 
		On exit  : 
		Unchanged: 
 Data sizes:     COMMON   BANK0   BANK1   BANK2   BANK3   BANK4
      Params:         0       0       0       0       0       0
      Locals:         0       0       0       0       0       0
      Temps:          0       0       0       0       0       0
      Totals:         0       0       0       0       0       0
Total ram usage:        0 bytes
 Hardware stack levels used:    1
 Hardware stack levels required when called:    3
 This function calls:
		Nothing
 This function is called by:
		_main
 This function uses a non-reentrant model


 *************** function _isr *****************
 Defined at:
		line 40 in file "PIC16F1827-I2C_LCD_RTC01.c"
 Parameters:    Size  Location     Type
		None
 Auto vars:     Size  Location     Type
		None
 Return value:  Size  Location     Type
		None               void
 Registers used:
		wreg, fsr0l, fsr0h, fsr1l, fsr1h, status,2, status,0, pclath, cstack
 Tracked objects:
		On entry : 
		On exit  : 
		Unchanged: 
 Data sizes:     COMMON   BANK0   BANK1   BANK2   BANK3   BANK4
      Params:         0       0       0       0       0       0
      Locals:         0       0       0       0       0       0
      Temps:          2       0       0       0       0       0
      Totals:         2       0       0       0       0       0
Total ram usage:        2 bytes
 Hardware stack levels used:    1
 Hardware stack levels required when called:    2
 This function calls:
		_button_timer_interrupt
		_interrupt_TXIF
		i1_tx_send
 This function is called by:
		Interrupt level 1
 This function uses a non-reentrant model


 *************** function i1_tx_send *****************
 Defined at:
		line 161 in file "My_header_16F.h"
 Parameters:    Size  Location     Type
  asciicode       1    wreg     unsigned char 
 Auto vars:     Size  Location     Type
  asciicode       1    5[COMMON] unsigned char 
 Return value:  Size  Location     Type
		None               void
 Registers used:
		wreg, fsr0l, fsr0h, fsr1l, fsr1h, status,2, status,0, pclath, cstack
 Tracked objects:
		On entry : 
		On exit  : 
		Unchanged: 
 Data sizes:     COMMON   BANK0   BANK1   BANK2   BANK3   BANK4
      Params:         0       0       0       0       0       0
      Locals:         1       0       0       0       0       0
      Temps:          1       0       0       0       0       0
      Totals:         2       0       0       0       0       0
Total ram usage:        2 bytes
 Hardware stack levels used:    1
 Hardware stack levels required when called:    1
 This function calls:
		i1_ringbuf_push
 This function is called by:
		_isr
 This function uses a non-reentrant model


 *************** function i1_ringbuf_push *****************
 Defined at:
		line 120 in file "My_header_16F.h"
 Parameters:    Size  Location     Type
  rb              1    wreg     PTR struct ringbuf
		 -> tx_buf(4), 
  asciicode       1    0[COMMON] unsigned char 
 Auto vars:     Size  Location     Type
  rb              1    3[COMMON] PTR struct ringbuf
		 -> tx_buf(4), 
 Return value:  Size  Location     Type
		None               void
 Registers used:
		wreg, fsr0l, fsr0h, fsr1l, fsr1h, status,2, status,0
 Tracked objects:
		On entry : 
		On exit  : 
		Unchanged: 
 Data sizes:     COMMON   BANK0   BANK1   BANK2   BANK3   BANK4
      Params:         1       0       0       0       0       0
      Locals:         1       0       0       0       0       0
      Temps:          2       0       0       0       0       0
      Totals:         4       0       0       0       0       0
Total ram usage:        4 bytes
 Hardware stack levels used:    1
 This function calls:
		Nothing
 This function is called by:
		i1_tx_send
 This function uses a non-reentrant model


 *************** function _interrupt_TXIF *****************
 Defined at:
		line 174 in file "My_header_16F.h"
 Parameters:    Size  Location     Type
		None
 Auto vars:     Size  Location     Type
		None
 Return value:  Size  Location     Type
		None               void
 Registers used:
		wreg, fsr0l, fsr0h, fsr1l, fsr1h, status,2, status,0, pclath, cstack
 Tracked objects:
		On entry : 
		On exit  : 
		Unchanged: 
 Data sizes:     COMMON   BANK0   BANK1   BANK2   BANK3   BANK4
      Params:         0       0       0       0       0       0
      Locals:         0       0       0       0       0       0
      Temps:          0       0       0       0       0       0
      Totals:         0       0       0       0       0       0
Total ram usage:        0 bytes
 Hardware stack levels used:    1
 Hardware stack levels required when called:    1
 This function calls:
		_ringbuf_num
		_ringbuf_pop
 This function is called by:
		_isr
 This function uses a non-reentrant model


 *************** function _ringbuf_pop *****************
 Defined at:
		line 128 in file "My_header_16F.h"
 Parameters:    Size  Location     Type
  rb              1    wreg     PTR struct ringbuf
		 -> tx_buf(4), 
 Auto vars:     Size  Location     Type
  rb              1    3[COMMON] PTR struct ringbuf
		 -> tx_buf(4), 
  ret             1    2[COMMON] unsigned char 
 Return value:  Size  Location     Type
                  1    wreg      unsigned char 
 Registers used:
		wreg, fsr0l, fsr0h, fsr1l, fsr1h, status,2, status,0
 Tracked objects:
		On entry : 
		On exit  : 
		Unchanged: 
 Data sizes:     COMMON   BANK0   BANK1   BANK2   BANK3   BANK4
      Params:         0       0       0       0       0       0
      Locals:         2       0       0       0       0       0
      Temps:          2       0       0       0       0       0
      Totals:         4       0       0       0       0       0
Total ram usage:        4 bytes
 Hardware stack levels used:    1
 This function calls:
		Nothing
 This function is called by:
		_interrupt_TXIF
 This function uses a non-reentrant model


 *************** function _ringbuf_num *****************
 Defined at:
		line 137 in file "My_header_16F.h"
 Parameters:    Size  Location     Type
  rb              1    wreg     PTR struct ringbuf
		 -> tx_buf(4), 
 Auto vars:     Size  Location     Type
  rb              1    1[COMMON] PTR struct ringbuf
		 -> tx_buf(4), 
 Return value:  Size  Location     Type
                  1    wreg      unsigned char 
 Registers used:
		wreg, fsr0l, fsr0h, fsr1l, fsr1h, status,2, status,0
 Tracked objects:
		On entry : 
		On exit  : 
		Unchanged: 
 Data sizes:     COMMON   BANK0   BANK1   BANK2   BANK3   BANK4
      Params:         0       0       0       0       0       0
      Locals:         1       0       0       0       0       0
      Temps:          1       0       0       0       0       0
      Totals:         2       0       0       0       0       0
Total ram usage:        2 bytes
 Hardware stack levels used:    1
 This function calls:
		Nothing
 This function is called by:
		_interrupt_TXIF
 This function uses a non-reentrant model


 *************** function _button_timer_interrupt *****************
 Defined at:
		line 87 in file "My_header_16F.h"
 Parameters:    Size  Location     Type
  bt              1    wreg     PTR struct button
		 -> sw_RA1(3), sw_RA0(3), 
  sw_value        1    0[COMMON] unsigned char 
 Auto vars:     Size  Location     Type
  bt              1    3[COMMON] PTR struct button
		 -> sw_RA1(3), sw_RA0(3), 
 Return value:  Size  Location     Type
		None               void
 Registers used:
		wreg, fsr1l, fsr1h, status,2, status,0
 Tracked objects:
		On entry : 
		On exit  : 
		Unchanged: 
 Data sizes:     COMMON   BANK0   BANK1   BANK2   BANK3   BANK4
      Params:         1       0       0       0       0       0
      Locals:         1       0       0       0       0       0
      Temps:          2       0       0       0       0       0
      Totals:         4       0       0       0       0       0
Total ram usage:        4 bytes
 Hardware stack levels used:    1
 This function calls:
		Nothing
 This function is called by:
		_isr
 This function uses a non-reentrant model



MODULE INFORMATION

Module		Function		Class		Link	Load	Size
C:\Program Files (x86)\Microchip\xc8\v1.35\sources\common\awdiv.c
		___awdiv       		CODE           	04CB	0000	83

C:\Program Files (x86)\Microchip\xc8\v1.35\sources\common\awdiv.c estimated size: 83

My_header_16F.h
		_I2C_init      		CODE           	0F6E	0000	12
		_LCD_Command   		CODE           	074B	0000	33
		_RTC_Write     		CODE           	072B	0000	33
		_LCD_Putc      		CODE           	070B	0000	33
		_LCD_Puts      		CODE           	05DE	0000	52
		_UART_init     		CODE           	0FD6	0000	20
		_I2C_IdleCheck 		CODE           	0F85	0000	16
		_RTC_Read      		CODE           	05A6	0000	57
		_LCD_SetCursor 		CODE           	0FA3	0000	17
		_ringbuf_num   		CODE           	06C0	0000	44
		_ringbuf_pop   		CODE           	0669	0000	45
		_ringbuf_push  		CODE           	063D	0000	45
		_ringbuf_init  		CODE           	0789	0000	28
		_I2C_Stop      		CODE           	0F57	0000	7
		_LCD_init      		CODE           	0563	0000	68
		_LCD_Clear     		CODE           	0F94	0000	16
		_I2C_Send      		CODE           	0FB3	0000	18
		_button_timer_interrupt		CODE           	0416	0000	182
		_interrupt_TXIF		CODE           	0FE9	0000	24
		_tx_send       		CODE           	0F79	0000	13
		_tx_sends      		CODE           	0611	0000	45
		_I2C_Start     		CODE           	07A4	0000	28
		_I2C_rStart    		CODE           	07BF	0000	26
		_I2C_Receive   		CODE           	06EB	0000	33

My_header_16F.h estimated size: 895

PIC16F1827-I2C_LCD_RTC01.c
		_display       		CODE           	0319	0000	254
		_month_length  		CODE           	076B	0000	31
		_timeset       		CODE           	01C4	0000	342
		_main          		CODE           	005C	0000	361
		_isr           		CODE           	0004	0000	61

PIC16F1827-I2C_LCD_RTC01.c estimated size: 1049

shared
		i1_tx_send     		CODE           	0F63	0000	12
		__initialization		CODE           	0042	0000	23
		i1_ringbuf_push		CODE           	0695	0000	44

shared estimated size: 79

C:\Program Files (x86)\Microchip\xc8\v1.35\sources\common\awmod.c
		___awmod       		CODE           	051D	0000	71

C:\Program Files (x86)\Microchip\xc8\v1.35\sources\common\awmod.c estimated size: 71

C:\Program Files (x86)\Microchip\xc8\v1.35\sources\common\Umul8.c
		___bmul        		CODE           	0FC4	0000	19

C:\Program Files (x86)\Microchip\xc8\v1.35\sources\common\Umul8.c estimated size: 19

