

Microchip Technology PIC LITE Macro Assembler V1.33 build 59893 
                                                                                               Wed Dec 10 15:27:17 2014

Microchip Technology Omniscient Code Generator (Lite mode) build 59893
     1                           	processor	16F1827
     2                           	opt	pw 120
     3                           	opt	lm
     4                           	psect	text0,local,class=CODE,merge=1,delta=2
     5                           	psect	cinit,global,class=CODE,merge=1,delta=2
     6                           	psect	bssBANK0,global,class=BANK0,space=1,delta=1
     7                           	psect	clrtext,global,class=CODE,delta=2
     8                           	psect	cstackCOMMON,global,class=COMMON,space=1,delta=1
     9                           	psect	cstackBANK0,global,class=BANK0,space=1,delta=1
    10                           	psect	maintext,global,class=CODE,merge=1,split=1,delta=2
    11                           	psect	text1,local,class=CODE,merge=1,delta=2
    12                           	psect	text2,local,class=CODE,merge=1,delta=2
    13                           	psect	text3,local,class=CODE,merge=1,delta=2
    14                           	psect	intentry,global,class=CODE,delta=2
    15                           	psect	text5,local,class=CODE,merge=1,delta=2
    16                           	psect	text6,local,class=CODE,merge=1,delta=2
    17                           	psect	text7,local,class=CODE,merge=1,delta=2
    18                           	dabs	1,0x7E,2
    19  0000                     	;# 
    20  0001                     	;# 
    21  0002                     	;# 
    22  0003                     	;# 
    23  0004                     	;# 
    24  0005                     	;# 
    25  0006                     	;# 
    26  0007                     	;# 
    27  0008                     	;# 
    28  0009                     	;# 
    29  000A                     	;# 
    30  000B                     	;# 
    31  000C                     	;# 
    32  000D                     	;# 
    33  0011                     	;# 
    34  0012                     	;# 
    35  0013                     	;# 
    36  0014                     	;# 
    37  0015                     	;# 
    38  0016                     	;# 
    39  0016                     	;# 
    40  0017                     	;# 
    41  0018                     	;# 
    42  0019                     	;# 
    43  001A                     	;# 
    44  001B                     	;# 
    45  001C                     	;# 
    46  001E                     	;# 
    47  001F                     	;# 
    48  008C                     	;# 
    49  008D                     	;# 
    50  0091                     	;# 
    51  0092                     	;# 
    52  0093                     	;# 
    53  0094                     	;# 
    54  0095                     	;# 
    55  0096                     	;# 
    56  0097                     	;# 
    57  0098                     	;# 
    58  0099                     	;# 
    59  009A                     	;# 
    60  009B                     	;# 
    61  009B                     	;# 
    62  009C                     	;# 
    63  009D                     	;# 
    64  009E                     	;# 
    65  010C                     	;# 
    66  010D                     	;# 
    67  0111                     	;# 
    68  0112                     	;# 
    69  0113                     	;# 
    70  0114                     	;# 
    71  0115                     	;# 
    72  0116                     	;# 
    73  0117                     	;# 
    74  0118                     	;# 
    75  0119                     	;# 
    76  011A                     	;# 
    77  011B                     	;# 
    78  011D                     	;# 
    79  011E                     	;# 
    80  018C                     	;# 
    81  018D                     	;# 
    82  0191                     	;# 
    83  0191                     	;# 
    84  0192                     	;# 
    85  0193                     	;# 
    86  0193                     	;# 
    87  0193                     	;# 
    88  0194                     	;# 
    89  0195                     	;# 
    90  0196                     	;# 
    91  0199                     	;# 
    92  019A                     	;# 
    93  019B                     	;# 
    94  019B                     	;# 
    95  019B                     	;# 
    96  019B                     	;# 
    97  019C                     	;# 
    98  019C                     	;# 
    99  019D                     	;# 
   100  019E                     	;# 
   101  019F                     	;# 
   102  020C                     	;# 
   103  020D                     	;# 
   104  0211                     	;# 
   105  0211                     	;# 
   106  0212                     	;# 
   107  0212                     	;# 
   108  0213                     	;# 
   109  0213                     	;# 
   110  0214                     	;# 
   111  0214                     	;# 
   112  0215                     	;# 
   113  0215                     	;# 
   114  0215                     	;# 
   115  0216                     	;# 
   116  0216                     	;# 
   117  0217                     	;# 
   118  0217                     	;# 
   119  0219                     	;# 
   120  021A                     	;# 
   121  021B                     	;# 
   122  021C                     	;# 
   123  021D                     	;# 
   124  021E                     	;# 
   125  021F                     	;# 
   126  0291                     	;# 
   127  0291                     	;# 
   128  0292                     	;# 
   129  0293                     	;# 
   130  0294                     	;# 
   131  0295                     	;# 
   132  0295                     	;# 
   133  0296                     	;# 
   134  0298                     	;# 
   135  0298                     	;# 
   136  0299                     	;# 
   137  029A                     	;# 
   138  029B                     	;# 
   139  029C                     	;# 
   140  029C                     	;# 
   141  029D                     	;# 
   142  029E                     	;# 
   143  029E                     	;# 
   144  0311                     	;# 
   145  0311                     	;# 
   146  0312                     	;# 
   147  0313                     	;# 
   148  0318                     	;# 
   149  0318                     	;# 
   150  0319                     	;# 
   151  031A                     	;# 
   152  0394                     	;# 
   153  0395                     	;# 
   154  0396                     	;# 
   155  039A                     	;# 
   156  039C                     	;# 
   157  039D                     	;# 
   158  039E                     	;# 
   159  039F                     	;# 
   160  0415                     	;# 
   161  0416                     	;# 
   162  0417                     	;# 
   163  041C                     	;# 
   164  041D                     	;# 
   165  041E                     	;# 
   166  0FE4                     	;# 
   167  0FE5                     	;# 
   168  0FE6                     	;# 
   169  0FE7                     	;# 
   170  0FE8                     	;# 
   171  0FE9                     	;# 
   172  0FEA                     	;# 
   173  0FEB                     	;# 
   174  0FED                     	;# 
   175  0FEE                     	;# 
   176  0FEF                     	;# 
   177  000B                     _INTCONbits	set	11
   178  0011                     _PIR1bits	set	17
   179  000C                     _PORTA	set	12
   180  000D                     _PORTB	set	13
   181  0018                     _T1CON	set	24
   182  0017                     _TMR1H	set	23
   183  0016                     _TMR1L	set	22
   184  009B                     _ADRES	set	155
   185  009D                     _ADCON0bits	set	157
   186  009E                     _ADCON1	set	158
   187  0095                     _OPTION_REG	set	149
   188  0099                     _OSCCON	set	153
   189  0091                     _PIE1bits	set	145
   190  008C                     _TRISA	set	140
   191  008D                     _TRISB	set	141
   192  0117                     _FVRCON	set	279
   193  018C                     _ANSELA	set	396
   194  018D                     _ANSELB	set	397
   195                           
   196                           	psect	text0
   197  0000                     __ptext0:	
   198                           ; #config settings
   199                           
   200                           
   201                           ;psect for function _adc
   202  0000                     
   203                           	psect	cinit
   204  006D                     start_initialization:	
   205  006D                     __initialization:	
   206                           
   207                           ; Clear objects allocated to BANK0
   208  006D  3020               	movlw	low __pbssBANK0
   209  006E  0084               	movwf	4
   210  006F  3000               	movlw	high __pbssBANK0
   211  0070  0085               	movwf	5
   212  0071  3010               	movlw	16
   213  0072  3181  216F         	fcall	clear_ram0
   214  0074                     end_of_initialization:	
   215                           ;End of C runtime variable initialization code
   216                           
   217  0074                     __end_of__initialization:	
   218  0074  107E               	bcf	pic14e$flags,0	;clear compiler interrupt flag
   219  0075  0020               	movlb	0
   220  0076  3180  2878         	ljmp	_main	;jump to C main() function
   221                           
   222                           	psect	bssBANK0
   223  0020                     __pbssBANK0:	
   224  0020                     _cut:	
   225  0020                     	ds	8
   226  0028                     _v:	
   227  0028                     	ds	8
   228                           
   229                           	psect	clrtext
   230  016F                     clear_ram0:	
   231                           ;	Called with FSR0 containing the base address, and
   232                           ;	WREG with the size to clear
   233                           
   234  016F  0064               	clrwdt	;clear the watchdog before getting into this loop
   235  0170                     clrloop0:	
   236  0170  0180               	clrf	0	;clear RAM location pointed to by FSR
   237  0171  3101               	addfsr 0,1
   238  0172  0B89               	decfsz	9,f	;Have we reached the end of clearing yet?
   239  0173  2970               	goto	clrloop0	;have we reached the end yet?
   240  0174  3400               	retlw	0	;all done for this memory range, return
   241                           
   242                           	psect	cstackCOMMON
   243  0070                     __pcstackCOMMON:	
   244  0070                     ?_isr:	
   245  0070                     ?i1_OUT:	
   246                           ; 0 bytes @ 0x0
   247                           
   248  0070                     ?i1_LED:	
   249                           ; 0 bytes @ 0x0
   250                           
   251  0070                     ?_SW:	
   252                           ; 0 bytes @ 0x0
   253                           
   254  0070                     ?_adc:	
   255                           ; 1 bytes @ 0x0
   256                           
   257  0070                     ?_main:	
   258                           ; 2 bytes @ 0x0
   259                           
   260  0070                     i1OUT@hl:	
   261                           ; 2 bytes @ 0x0
   262                           
   263  0070                     i1LED@hl:	
   264                           ; 1 bytes @ 0x0
   265                           
   266                           
   267                           ; 1 bytes @ 0x0
   268  0070                     	ds	1
   269  0071                     ??i1_OUT:	
   270  0071                     ??i1_LED:	
   271                           ; 0 bytes @ 0x1
   272                           
   273                           
   274                           ; 0 bytes @ 0x1
   275  0071                     	ds	1
   276  0072                     ??_adc:	
   277  0072                     i1OUT@b:	
   278                           ; 0 bytes @ 0x2
   279                           
   280  0072                     i1LED@b:	
   281                           ; 1 bytes @ 0x2
   282                           
   283                           
   284                           ; 1 bytes @ 0x2
   285  0072                     	ds	1
   286  0073                     adc@ch:	
   287                           
   288                           ; 1 bytes @ 0x3
   289  0073                     	ds	1
   290  0074                     ??_isr:	
   291                           
   292                           ; 0 bytes @ 0x4
   293  0074                     	ds	3
   294  0077                     isr@i:	
   295                           
   296                           ; 1 bytes @ 0x7
   297  0077                     	ds	1
   298                           
   299                           	psect	cstackBANK0
   300  0030                     __pcstackBANK0:	
   301  0030                     ?_OUT:	
   302  0030                     ?_LED:	
   303                           ; 0 bytes @ 0x0
   304                           
   305  0030                     ??_SW:	
   306                           ; 0 bytes @ 0x0
   307                           
   308  0030                     OUT@hl:	
   309                           ; 0 bytes @ 0x0
   310                           
   311  0030                     LED@hl:	
   312                           ; 1 bytes @ 0x0
   313                           
   314                           
   315                           ; 1 bytes @ 0x0
   316  0030                     	ds	1
   317  0031                     ??_OUT:	
   318  0031                     ??_LED:	
   319                           ; 0 bytes @ 0x1
   320                           
   321  0031                     SW@b:	
   322                           ; 0 bytes @ 0x1
   323                           
   324                           
   325                           ; 1 bytes @ 0x1
   326  0031                     	ds	1
   327  0032                     OUT@b:	
   328  0032                     LED@b:	
   329                           ; 1 bytes @ 0x2
   330                           
   331  0032                     SW@temp:	
   332                           ; 1 bytes @ 0x2
   333                           
   334                           
   335                           ; 1 bytes @ 0x2
   336  0032                     	ds	1
   337  0033                     ??_main:	
   338                           
   339                           ; 0 bytes @ 0x3
   340  0033                     	ds	1
   341  0034                     main@i:	
   342                           
   343                           ; 1 bytes @ 0x4
   344  0034                     	ds	1
   345                           
   346                           	psect	maintext
   347  0078                     __pmaintext:	
   348 ;;
   349 ;;Main: autosize = 0, tempsize = 1, incstack = 0, save=0
   350 ;;
   351 ;; *************** function _main *****************
   352 ;; Defined at:
   353 ;;		line 92 in file "PIC16F1827-ChargeStation06.c"
   354 ;; Parameters:    Size  Location     Type
   355 ;;		None
   356 ;; Auto vars:     Size  Location     Type
   357 ;;  i               1    4[BANK0 ] unsigned char 
   358 ;; Return value:  Size  Location     Type
   359 ;;                  2   81[COMMON] int 
   360 ;; Registers used:
   361 ;;		wreg, fsr1l, fsr1h, status,2, status,0, pclath, cstack
   362 ;; Tracked objects:
   363 ;;		On entry : 17F/0
   364 ;;		On exit  : 0/0
   365 ;;		Unchanged: 0/0
   366 ;; Data sizes:     COMMON   BANK0   BANK1   BANK2   BANK3   BANK4
   367 ;;      Params:         0       0       0       0       0       0
   368 ;;      Locals:         0       1       0       0       0       0
   369 ;;      Temps:          0       1       0       0       0       0
   370 ;;      Totals:         0       2       0       0       0       0
   371 ;;Total ram usage:        2 bytes
   372 ;; Hardware stack levels required when called:    3
   373 ;; This function calls:
   374 ;;		_LED
   375 ;;		_OUT
   376 ;;		_SW
   377 ;; This function is called by:
   378 ;;		Startup code after reset
   379 ;; This function uses a non-reentrant model
   380 ;;
   381                           
   382                           
   383                           ;psect for function _main
   384  0078                     _main:	
   385                           
   386                           ;PIC16F1827-ChargeStation06.c: 93: OSCCON = 0x70;
   387                           
   388                           ;incstack = 0
   389                           ; Regs used in _main: [wreg+fsr1l+fsr1h+status,2+status,0+pclath+cstack]
   390  0078  3070               	movlw	112
   391  0079  0021               	movlb	1	; select bank1
   392  007A  0099               	movwf	25	;volatile
   393                           
   394                           ;PIC16F1827-ChargeStation06.c: 94: TRISA = 0xFF;
   395  007B  30FF               	movlw	255
   396  007C  008C               	movwf	12	;volatile
   397                           
   398                           ;PIC16F1827-ChargeStation06.c: 95: TRISB = 0x00;
   399  007D  018D               	clrf	13	;volatile
   400                           
   401                           ;PIC16F1827-ChargeStation06.c: 96: ANSELA = 0x0F;
   402  007E  300F               	movlw	15
   403  007F  0023               	movlb	3	; select bank3
   404  0080  008C               	movwf	12	;volatile
   405                           
   406                           ;PIC16F1827-ChargeStation06.c: 97: ANSELB = 0x00;
   407  0081  018D               	clrf	13	;volatile
   408                           
   409                           ;PIC16F1827-ChargeStation06.c: 98: ADCON1 = 0x93;
   410  0082  3093               	movlw	147
   411  0083  0021               	movlb	1	; select bank1
   412  0084  009E               	movwf	30	;volatile
   413                           
   414                           ;PIC16F1827-ChargeStation06.c: 99: FVRCON = 0x83;
   415  0085  3083               	movlw	131
   416  0086  0022               	movlb	2	; select bank2
   417  0087  0097               	movwf	23	;volatile
   418                           
   419                           ;PIC16F1827-ChargeStation06.c: 101: PORTB = 0xF0;
   420  0088  30F0               	movlw	240
   421  0089  0020               	movlb	0	; select bank0
   422  008A  008D               	movwf	13	;volatile
   423                           
   424                           ;PIC16F1827-ChargeStation06.c: 103: OPTION_REG = 0b10010011;
   425  008B  3093               	movlw	147
   426  008C  0021               	movlb	1	; select bank1
   427  008D  0095               	movwf	21	;volatile
   428                           
   429                           ;PIC16F1827-ChargeStation06.c: 104: INTCONbits.TMR0IE = 1;
   430  008E  168B               	bsf	11,5	;volatile
   431                           
   432                           ;PIC16F1827-ChargeStation06.c: 106: T1CON = 0x21;
   433  008F  3021               	movlw	33
   434  0090  0020               	movlb	0	; select bank0
   435  0091  0098               	movwf	24	;volatile
   436                           
   437                           ;PIC16F1827-ChargeStation06.c: 107: TMR1H = 0x00;
   438  0092  0197               	clrf	23	;volatile
   439                           
   440                           ;PIC16F1827-ChargeStation06.c: 108: TMR1L = 0x00;
   441  0093  0196               	clrf	22	;volatile
   442                           
   443                           ;PIC16F1827-ChargeStation06.c: 109: PIE1bits.TMR1IE = 1;
   444  0094  0021               	movlb	1	; select bank1
   445  0095  1411               	bsf	17,0	;volatile
   446                           
   447                           ;PIC16F1827-ChargeStation06.c: 111: INTCONbits.PEIE = 1;
   448  0096  170B               	bsf	11,6	;volatile
   449                           
   450                           ;PIC16F1827-ChargeStation06.c: 112: INTCONbits.GIE = 1;
   451  0097  178B               	bsf	11,7	;volatile
   452  0098                     l771:	
   453                           ;PIC16F1827-ChargeStation06.c: 114: uint8_t i;
   454                           ;PIC16F1827-ChargeStation06.c: 115: while (1) {
   455                           
   456                           
   457                           ;PIC16F1827-ChargeStation06.c: 116: for (i = 0; i < 4; i++) {
   458  0098  0020               	movlb	0	; select bank0
   459  0099  01B4               	clrf	main@i
   460  009A                     L1:	
   461  009A  3004               	movlw	4
   462  009B  0234               	subwf	main@i,w
   463  009C  1803               	btfsc	3,0
   464  009D  2898               	goto	l771
   465                           
   466                           ;PIC16F1827-ChargeStation06.c: 117: if (SW(i)) {
   467  009E  0834               	movf	main@i,w
   468  009F  3181  2158  3180   	fcall	_SW
   469  00A2  3A00               	xorlw	0
   470  00A3  1903               	skipnz
   471  00A4  28BB               	goto	l781
   472                           
   473                           ;PIC16F1827-ChargeStation06.c: 118: OUT(i, 1);
   474  00A5  0020               	movlb	0	; select bank0
   475  00A6  01B0               	clrf	OUT@hl
   476  00A7  0AB0               	incf	OUT@hl,f
   477  00A8  0834               	movf	main@i,w
   478  00A9  3181  2121  3180   	fcall	_OUT
   479                           
   480                           ;PIC16F1827-ChargeStation06.c: 119: LED(i, 1);
   481  00AC  0020               	movlb	0	; select bank0
   482  00AD  01B0               	clrf	LED@hl
   483  00AE  0AB0               	incf	LED@hl,f
   484  00AF  0834               	movf	main@i,w
   485  00B0  3180  20E3  3180   	fcall	_LED
   486                           
   487                           ;PIC16F1827-ChargeStation06.c: 120: cut[i] = 0;
   488  00B3  0020               	movlb	0	; select bank0
   489  00B4  3534               	lslf	main@i,w
   490  00B5  3E20               	addlw	_cut& (0+255)
   491  00B6  0086               	movwf	6
   492  00B7  0187               	clrf	7
   493  00B8  3000               	movlw	0
   494  00B9  3FC0               	movwi [0]fsr1
   495  00BA  3FC1               	movwi [1]fsr1
   496  00BB                     l781:	
   497  00BB  3001               	movlw	1
   498  00BC  0020               	movlb	0	; select bank0
   499  00BD  00B3               	movwf	??_main
   500  00BE  0833               	movf	??_main,w
   501  00BF  07B4               	addwf	main@i,f
   502  00C0  289A               	goto	L1
   503  00C1                     __end_of_main:	
   504                           ;PIC16F1827-ChargeStation06.c: 121: }
   505                           ;PIC16F1827-ChargeStation06.c: 122: }
   506                           ;PIC16F1827-ChargeStation06.c: 123: }
   507                           ;PIC16F1827-ChargeStation06.c: 124: return 0;
   508                           ;	Return value of _main is never used
   509                           
   510                           
   511                           	psect	text1
   512  0158                     __ptext1:	
   513 ;; *************** function _SW *****************
   514 ;; Defined at:
   515 ;;		line 82 in file "PIC16F1827-ChargeStation06.c"
   516 ;; Parameters:    Size  Location     Type
   517 ;;  b               1    wreg     unsigned char 
   518 ;; Auto vars:     Size  Location     Type
   519 ;;  b               1    1[BANK0 ] unsigned char 
   520 ;;  temp            1    2[BANK0 ] unsigned char 
   521 ;; Return value:  Size  Location     Type
   522 ;;                  1    wreg      unsigned char 
   523 ;; Registers used:
   524 ;;		wreg, status,2, status,0
   525 ;; Tracked objects:
   526 ;;		On entry : 0/0
   527 ;;		On exit  : 0/0
   528 ;;		Unchanged: 0/0
   529 ;; Data sizes:     COMMON   BANK0   BANK1   BANK2   BANK3   BANK4
   530 ;;      Params:         0       0       0       0       0       0
   531 ;;      Locals:         0       2       0       0       0       0
   532 ;;      Temps:          0       1       0       0       0       0
   533 ;;      Totals:         0       3       0       0       0       0
   534 ;;Total ram usage:        3 bytes
   535 ;; Hardware stack levels used:    1
   536 ;; Hardware stack levels required when called:    2
   537 ;; This function calls:
   538 ;;		Nothing
   539 ;; This function is called by:
   540 ;;		_main
   541 ;; This function uses a non-reentrant model
   542 ;;
   543                           
   544                           
   545                           ;psect for function _SW
   546  0158                     _SW:	
   547                           
   548                           ;incstack = 0
   549                           ; Regs used in _SW: [wreg+status,2+status,0]
   550                           ;SW@b stored from wreg
   551  0158  0020               	movlb	0	; select bank0
   552  0159  00B1               	movwf	SW@b
   553                           
   554                           ;PIC16F1827-ChargeStation06.c: 83: uint8_t temp;
   555                           ;PIC16F1827-ChargeStation06.c: 84: temp = PORTA;
   556  015A  080C               	movf	12,w	;volatile
   557  015B  00B0               	movwf	??_SW
   558  015C  0830               	movf	??_SW,w
   559  015D  00B2               	movwf	SW@temp
   560                           
   561                           ;PIC16F1827-ChargeStation06.c: 85: if (temp & (0x01 << (b + 4))) {
   562  015E  3001               	movlw	1
   563  015F  00B0               	movwf	??_SW
   564  0160  0831               	movf	SW@b,w
   565  0161  3E04               	addlw	4
   566  0162  0A89               	incf	9,f
   567  0163  2965               	goto	u324
   568  0164                     u325:	
   569  0164  35B0               	lslf	??_SW,f
   570  0165                     u324:	
   571  0165  0B89               	decfsz	9,f
   572  0166  2964               	goto	u325
   573  0167  0830               	movf	??_SW,w
   574  0168  0532               	andwf	SW@temp,w
   575  0169  1903               	btfsc	3,2
   576  016A  296D               	goto	l701
   577                           
   578                           ;PIC16F1827-ChargeStation06.c: 86: return 0;
   579  016B  3000               	movlw	0
   580                           
   581                           ;PIC16F1827-ChargeStation06.c: 87: } else {
   582  016C  0008               	return
   583  016D                     l701:	
   584                           
   585                           ;PIC16F1827-ChargeStation06.c: 88: return 1;
   586  016D  3001               	movlw	1
   587  016E  0008               	return
   588  016F                     __end_of_SW:	
   589                           
   590                           	psect	text2
   591  0121                     __ptext2:	
   592 ;; *************** function _OUT *****************
   593 ;; Defined at:
   594 ;;		line 66 in file "PIC16F1827-ChargeStation06.c"
   595 ;; Parameters:    Size  Location     Type
   596 ;;  b               1    wreg     unsigned char 
   597 ;;  hl              1    0[BANK0 ] unsigned char 
   598 ;; Auto vars:     Size  Location     Type
   599 ;;  b               1    2[BANK0 ] unsigned char 
   600 ;; Return value:  Size  Location     Type
   601 ;;		None               void
   602 ;; Registers used:
   603 ;;		wreg, status,2, status,0
   604 ;; Tracked objects:
   605 ;;		On entry : 0/0
   606 ;;		On exit  : 0/0
   607 ;;		Unchanged: 0/0
   608 ;; Data sizes:     COMMON   BANK0   BANK1   BANK2   BANK3   BANK4
   609 ;;      Params:         0       1       0       0       0       0
   610 ;;      Locals:         0       1       0       0       0       0
   611 ;;      Temps:          0       1       0       0       0       0
   612 ;;      Totals:         0       3       0       0       0       0
   613 ;;Total ram usage:        3 bytes
   614 ;; Hardware stack levels used:    1
   615 ;; Hardware stack levels required when called:    2
   616 ;; This function calls:
   617 ;;		Nothing
   618 ;; This function is called by:
   619 ;;		_main
   620 ;; This function uses a non-reentrant model
   621 ;;
   622                           
   623                           
   624                           ;psect for function _OUT
   625  0121                     _OUT:	
   626                           
   627                           ;incstack = 0
   628                           ; Regs used in _OUT: [wreg+status,2+status,0]
   629                           ;OUT@b stored from wreg
   630  0121  0020               	movlb	0	; select bank0
   631  0122  00B2               	movwf	OUT@b
   632                           
   633                           ;PIC16F1827-ChargeStation06.c: 67: if (hl == 0) {
   634  0123  08B0               	movf	OUT@hl,f
   635  0124  1D03               	skipz
   636  0125  2931               	goto	l683
   637                           
   638                           ;PIC16F1827-ChargeStation06.c: 68: PORTB = PORTB | (0x01 << b);
   639  0126  3001               	movlw	1
   640  0127  00B1               	movwf	??_OUT
   641  0128  0A32               	incf	OUT@b,w
   642  0129  292B               	goto	u274
   643  012A                     u275:	
   644  012A  35B1               	lslf	??_OUT,f
   645  012B                     u274:	
   646  012B  0B89               	decfsz	9,f
   647  012C  292A               	goto	u275
   648  012D  0831               	movf	??_OUT,w
   649  012E  040D               	iorwf	13,w	;volatile
   650  012F  008D               	movwf	13	;volatile
   651                           
   652                           ;PIC16F1827-ChargeStation06.c: 69: } else {
   653  0130  0008               	return
   654  0131                     l683:	
   655                           
   656                           ;PIC16F1827-ChargeStation06.c: 70: PORTB = PORTB & (~(0x01 << b));
   657  0131  3001               	movlw	1
   658  0132  00B1               	movwf	??_OUT
   659  0133  0A32               	incf	OUT@b,w
   660  0134  2936               	goto	u284
   661  0135                     u285:	
   662  0135  35B1               	lslf	??_OUT,f
   663  0136                     u284:	
   664  0136  0B89               	decfsz	9,f
   665  0137  2935               	goto	u285
   666  0138  0831               	movf	??_OUT,w
   667  0139  3AFF               	xorlw	255
   668  013A  050D               	andwf	13,w	;volatile
   669  013B  008D               	movwf	13	;volatile
   670  013C  0008               	return
   671  013D                     __end_of_OUT:	
   672                           
   673                           	psect	text3
   674  00E3                     __ptext3:	
   675 ;; *************** function _LED *****************
   676 ;; Defined at:
   677 ;;		line 74 in file "PIC16F1827-ChargeStation06.c"
   678 ;; Parameters:    Size  Location     Type
   679 ;;  b               1    wreg     unsigned char 
   680 ;;  hl              1    0[BANK0 ] unsigned char 
   681 ;; Auto vars:     Size  Location     Type
   682 ;;  b               1    2[BANK0 ] unsigned char 
   683 ;; Return value:  Size  Location     Type
   684 ;;		None               void
   685 ;; Registers used:
   686 ;;		wreg, status,2, status,0
   687 ;; Tracked objects:
   688 ;;		On entry : 0/0
   689 ;;		On exit  : 0/0
   690 ;;		Unchanged: 0/0
   691 ;; Data sizes:     COMMON   BANK0   BANK1   BANK2   BANK3   BANK4
   692 ;;      Params:         0       1       0       0       0       0
   693 ;;      Locals:         0       1       0       0       0       0
   694 ;;      Temps:          0       1       0       0       0       0
   695 ;;      Totals:         0       3       0       0       0       0
   696 ;;Total ram usage:        3 bytes
   697 ;; Hardware stack levels used:    1
   698 ;; Hardware stack levels required when called:    2
   699 ;; This function calls:
   700 ;;		Nothing
   701 ;; This function is called by:
   702 ;;		_main
   703 ;; This function uses a non-reentrant model
   704 ;;
   705                           
   706                           
   707                           ;psect for function _LED
   708  00E3                     _LED:	
   709                           
   710                           ;incstack = 0
   711                           ; Regs used in _LED: [wreg+status,2+status,0]
   712                           ;LED@b stored from wreg
   713  00E3  0020               	movlb	0	; select bank0
   714  00E4  00B2               	movwf	LED@b
   715                           
   716                           ;PIC16F1827-ChargeStation06.c: 75: if (hl == 1) {
   717  00E5  0830               	movf	LED@hl,w
   718  00E6  3A01               	xorlw	1
   719  00E7  1D03               	skipz
   720  00E8  28F6               	goto	l689
   721                           
   722                           ;PIC16F1827-ChargeStation06.c: 76: PORTB = PORTB | (0x01 << (b + 4));
   723  00E9  3001               	movlw	1
   724  00EA  00B1               	movwf	??_LED
   725  00EB  0832               	movf	LED@b,w
   726  00EC  3E04               	addlw	4
   727  00ED  0A89               	incf	9,f
   728  00EE  28F0               	goto	u304
   729  00EF                     u305:	
   730  00EF  35B1               	lslf	??_LED,f
   731  00F0                     u304:	
   732  00F0  0B89               	decfsz	9,f
   733  00F1  28EF               	goto	u305
   734  00F2  0831               	movf	??_LED,w
   735  00F3  040D               	iorwf	13,w	;volatile
   736  00F4  008D               	movwf	13	;volatile
   737                           
   738                           ;PIC16F1827-ChargeStation06.c: 77: } else {
   739  00F5  0008               	return
   740  00F6                     l689:	
   741                           
   742                           ;PIC16F1827-ChargeStation06.c: 78: PORTB = PORTB & (~(0x01 << (b + 4)));
   743  00F6  3001               	movlw	1
   744  00F7  00B1               	movwf	??_LED
   745  00F8  0832               	movf	LED@b,w
   746  00F9  3E04               	addlw	4
   747  00FA  0A89               	incf	9,f
   748  00FB  28FD               	goto	u314
   749  00FC                     u315:	
   750  00FC  35B1               	lslf	??_LED,f
   751  00FD                     u314:	
   752  00FD  0B89               	decfsz	9,f
   753  00FE  28FC               	goto	u315
   754  00FF  0831               	movf	??_LED,w
   755  0100  3AFF               	xorlw	255
   756  0101  050D               	andwf	13,w	;volatile
   757  0102  008D               	movwf	13	;volatile
   758  0103  0008               	return
   759  0104                     __end_of_LED:	
   760                           
   761                           	psect	intentry
   762  0004                     __pintentry:	
   763 ;; *************** function _isr *****************
   764 ;; Defined at:
   765 ;;		line 34 in file "PIC16F1827-ChargeStation06.c"
   766 ;; Parameters:    Size  Location     Type
   767 ;;		None
   768 ;; Auto vars:     Size  Location     Type
   769 ;;  i               1    7[COMMON] unsigned char 
   770 ;; Return value:  Size  Location     Type
   771 ;;		None               void
   772 ;; Registers used:
   773 ;;		wreg, fsr1l, fsr1h, status,2, status,0, pclath, cstack
   774 ;; Tracked objects:
   775 ;;		On entry : 0/0
   776 ;;		On exit  : 0/0
   777 ;;		Unchanged: 0/0
   778 ;; Data sizes:     COMMON   BANK0   BANK1   BANK2   BANK3   BANK4
   779 ;;      Params:         0       0       0       0       0       0
   780 ;;      Locals:         1       0       0       0       0       0
   781 ;;      Temps:          3       0       0       0       0       0
   782 ;;      Totals:         4       0       0       0       0       0
   783 ;;Total ram usage:        4 bytes
   784 ;; Hardware stack levels used:    1
   785 ;; Hardware stack levels required when called:    1
   786 ;; This function calls:
   787 ;;		_adc
   788 ;;		i1_LED
   789 ;;		i1_OUT
   790 ;; This function is called by:
   791 ;;		Interrupt level 1
   792 ;; This function uses a non-reentrant model
   793 ;;
   794                           
   795  0004                     _isr:	
   796                           
   797                           ;incstack = 0
   798                           ; Regs used in _isr: [wreg+fsr1l+fsr1h+status,2+status,0+pclath+cstack]
   799  0004  147E               	bsf	126,0	;set compiler interrupt flag
   800  0005  3180               	pagesel	$
   801  0006  0020               	movlb	0	; select bank0
   802  0007  087F               	movf	127,w
   803  0008  00F6               	movwf	??_isr+2
   804                           
   805                           ;PIC16F1827-ChargeStation06.c: 35: uint8_t i;
   806                           ;PIC16F1827-ChargeStation06.c: 36: if (PIR1bits.TMR1IF == 1) {
   807  0009  1C11               	btfss	17,0	;volatile
   808  000A  2864               	goto	i1l51
   809                           
   810                           ;PIC16F1827-ChargeStation06.c: 37: PIR1bits.TMR1IF = 0;
   811  000B  1011               	bcf	17,0	;volatile
   812                           
   813                           ;PIC16F1827-ChargeStation06.c: 38: for (i = 0; i < 4; i++) {
   814  000C  01F7               	clrf	isr@i
   815  000D  3004               	movlw	4
   816  000E  0277               	subwf	isr@i,w
   817  000F  1803               	btfsc	3,0
   818  0010  2864               	goto	i1l51
   819  0011                     i1l727:	
   820                           
   821                           ;PIC16F1827-ChargeStation06.c: 39: v[i] = 2 * adc(i);
   822  0011  0877               	movf	isr@i,w
   823  0012  3181  213D  3180   	fcall	_adc
   824  0015  0870               	movf	?_adc,w
   825  0016  00F4               	movwf	??_isr
   826  0017  0871               	movf	?_adc+1,w
   827  0018  00F5               	movwf	??_isr+1
   828  0019  35F4               	lslf	??_isr,f
   829  001A  0DF5               	rlf	??_isr+1,f
   830  001B  3577               	lslf	isr@i,w
   831  001C  3E28               	addlw	_v& (0+255)
   832  001D  0086               	movwf	6
   833  001E  0187               	clrf	7
   834  001F  0874               	movf	??_isr,w
   835  0020  3FC0               	movwi [0]fsr1
   836  0021  0875               	movf	??_isr+1,w
   837  0022  3FC1               	movwi [1]fsr1
   838                           
   839                           ;PIC16F1827-ChargeStation06.c: 41: if (v[i] < 75) {
   840  0023  3577               	lslf	isr@i,w
   841  0024  3E28               	addlw	_v& (0+255)
   842  0025  0086               	movwf	6
   843  0026  0187               	clrf	7
   844  0027  3F40               	moviw [0]fsr1
   845  0028  00F4               	movwf	??_isr
   846  0029  3F41               	moviw [1]fsr1
   847  002A  00F5               	movwf	??_isr+1
   848  002B  3000               	movlw	0
   849  002C  0275               	subwf	??_isr+1,w
   850  002D  304B               	movlw	75
   851  002E  1903               	skipnz
   852  002F  0274               	subwf	??_isr,w
   853  0030  1803               	skipnc
   854  0031  2855               	goto	i1l735
   855                           
   856                           ;PIC16F1827-ChargeStation06.c: 42: cut[i]++;
   857  0032  3577               	lslf	isr@i,w
   858  0033  3E20               	addlw	_cut& (0+255)
   859  0034  0086               	movwf	6
   860  0035  0187               	clrf	7
   861  0036  3001               	movlw	1
   862  0037  0781               	addwf	1,f
   863  0038  3141               	addfsr 1,1
   864  0039  1803               	skipnc
   865  003A  0A81               	incf	1,f
   866                           
   867                           ;PIC16F1827-ChargeStation06.c: 43: if (cut[i] >= 50) {
   868  003B  3577               	lslf	isr@i,w
   869  003C  3E20               	addlw	_cut& (0+255)
   870  003D  0086               	movwf	6
   871  003E  0187               	clrf	7
   872  003F  3F40               	moviw [0]fsr1
   873  0040  00F4               	movwf	??_isr
   874  0041  3F41               	moviw [1]fsr1
   875  0042  00F5               	movwf	??_isr+1
   876  0043  3000               	movlw	0
   877  0044  0275               	subwf	??_isr+1,w
   878  0045  3032               	movlw	50
   879  0046  1903               	skipnz
   880  0047  0274               	subwf	??_isr,w
   881  0048  1C03               	skipc
   882  0049  285C               	goto	i1l737
   883                           
   884                           ;PIC16F1827-ChargeStation06.c: 44: OUT(i, 0);
   885  004A  01F0               	clrf	i1OUT@hl
   886  004B  0877               	movf	isr@i,w
   887  004C  3181  2104  3180   	fcall	i1_OUT
   888                           
   889                           ;PIC16F1827-ChargeStation06.c: 45: LED(i, 0);
   890  004F  01F0               	clrf	i1LED@hl
   891  0050  0877               	movf	isr@i,w
   892  0051  3180  20C1  3180   	fcall	i1_LED
   893                           
   894                           ;PIC16F1827-ChargeStation06.c: 46: }
   895                           ;PIC16F1827-ChargeStation06.c: 47: } else {
   896  0054  285C               	goto	i1l737
   897  0055                     i1l735:	
   898                           
   899                           ;PIC16F1827-ChargeStation06.c: 48: cut[i] = 0;
   900  0055  3577               	lslf	isr@i,w
   901  0056  3E20               	addlw	_cut& (0+255)
   902  0057  0086               	movwf	6
   903  0058  0187               	clrf	7
   904  0059  3000               	movlw	0
   905  005A  3FC0               	movwi [0]fsr1
   906  005B  3FC1               	movwi [1]fsr1
   907  005C                     i1l737:	
   908  005C  3001               	movlw	1
   909  005D  00F4               	movwf	??_isr
   910  005E  0874               	movf	??_isr,w
   911  005F  07F7               	addwf	isr@i,f
   912  0060  3004               	movlw	4
   913  0061  0277               	subwf	isr@i,w
   914  0062  1C03               	skipc
   915  0063  2811               	goto	i1l727
   916  0064                     i1l51:	
   917                           
   918                           ;PIC16F1827-ChargeStation06.c: 49: }
   919                           ;PIC16F1827-ChargeStation06.c: 50: }
   920                           ;PIC16F1827-ChargeStation06.c: 51: }
   921                           ;PIC16F1827-ChargeStation06.c: 52: if (INTCONbits.TMR0IF == 1) {
   922  0064  190B               	btfsc	11,2	;volatile
   923                           
   924                           ;PIC16F1827-ChargeStation06.c: 53: INTCONbits.TMR0IF = 0;
   925  0065  110B               	bcf	11,2	;volatile
   926  0066  0876               	movf	??_isr+2,w
   927  0067  0020               	movlb	0	; select bank0
   928  0068  00FF               	movwf	127
   929  0069  107E               	bcf	126,0	;clear compiler interrupt flag
   930  006A  0009               	retfie
   931  006B                     __end_of_isr:	
   932                           
   933                           	psect	text5
   934  0104                     __ptext5:	
   935 ;; *************** function i1_OUT *****************
   936 ;; Defined at:
   937 ;;		line 66 in file "PIC16F1827-ChargeStation06.c"
   938 ;; Parameters:    Size  Location     Type
   939 ;;  b               1    wreg     unsigned char 
   940 ;;  hl              1    0[COMMON] unsigned char 
   941 ;; Auto vars:     Size  Location     Type
   942 ;;  b               1    2[COMMON] unsigned char 
   943 ;; Return value:  Size  Location     Type
   944 ;;		None               void
   945 ;; Registers used:
   946 ;;		wreg, status,2, status,0
   947 ;; Tracked objects:
   948 ;;		On entry : 0/0
   949 ;;		On exit  : 0/0
   950 ;;		Unchanged: 0/0
   951 ;; Data sizes:     COMMON   BANK0   BANK1   BANK2   BANK3   BANK4
   952 ;;      Params:         1       0       0       0       0       0
   953 ;;      Locals:         1       0       0       0       0       0
   954 ;;      Temps:          1       0       0       0       0       0
   955 ;;      Totals:         3       0       0       0       0       0
   956 ;;Total ram usage:        3 bytes
   957 ;; Hardware stack levels used:    1
   958 ;; This function calls:
   959 ;;		Nothing
   960 ;; This function is called by:
   961 ;;		_isr
   962 ;; This function uses a non-reentrant model
   963 ;;
   964                           
   965                           
   966                           ;psect for function i1_OUT
   967  0104                     i1_OUT:	
   968                           
   969                           ;incstack = 0
   970                           ; Regs used in i1_OUT: [wreg+status,2+status,0]
   971                           ;i1OUT@b stored from wreg
   972  0104  00F2               	movwf	i1OUT@b
   973                           
   974                           ;PIC16F1827-ChargeStation06.c: 67: if (hl == 0) {
   975  0105  08F0               	movf	i1OUT@hl,f
   976  0106  1D03               	skipz
   977  0107  2914               	goto	i1l709
   978                           
   979                           ;PIC16F1827-ChargeStation06.c: 68: PORTB = PORTB | (0x01 << b);
   980  0108  3001               	movlw	1
   981  0109  00F1               	movwf	??i1_OUT
   982  010A  0A72               	incf	i1OUT@b,w
   983  010B  290D               	goto	u35_24
   984  010C                     u35_25:	
   985  010C  35F1               	lslf	??i1_OUT,f
   986  010D                     u35_24:	
   987  010D  0B89               	decfsz	9,f
   988  010E  290C               	goto	u35_25
   989  010F  0871               	movf	??i1_OUT,w
   990  0110  0020               	movlb	0	; select bank0
   991  0111  040D               	iorwf	13,w	;volatile
   992  0112  008D               	movwf	13	;volatile
   993                           
   994                           ;PIC16F1827-ChargeStation06.c: 69: } else {
   995  0113  0008               	return
   996  0114                     i1l709:	
   997                           
   998                           ;PIC16F1827-ChargeStation06.c: 70: PORTB = PORTB & (~(0x01 << b));
   999  0114  3001               	movlw	1
  1000  0115  00F1               	movwf	??i1_OUT
  1001  0116  0A72               	incf	i1OUT@b,w
  1002  0117  2919               	goto	u36_24
  1003  0118                     u36_25:	
  1004  0118  35F1               	lslf	??i1_OUT,f
  1005  0119                     u36_24:	
  1006  0119  0B89               	decfsz	9,f
  1007  011A  2918               	goto	u36_25
  1008  011B  0871               	movf	??i1_OUT,w
  1009  011C  3AFF               	xorlw	255
  1010  011D  0020               	movlb	0	; select bank0
  1011  011E  050D               	andwf	13,w	;volatile
  1012  011F  008D               	movwf	13	;volatile
  1013  0120  0008               	return
  1014  0121                     __end_ofi1_OUT:	
  1015                           
  1016                           	psect	text6
  1017  00C1                     __ptext6:	
  1018 ;; *************** function i1_LED *****************
  1019 ;; Defined at:
  1020 ;;		line 74 in file "PIC16F1827-ChargeStation06.c"
  1021 ;; Parameters:    Size  Location     Type
  1022 ;;  b               1    wreg     unsigned char 
  1023 ;;  hl              1    0[COMMON] unsigned char 
  1024 ;; Auto vars:     Size  Location     Type
  1025 ;;  b               1    2[COMMON] unsigned char 
  1026 ;; Return value:  Size  Location     Type
  1027 ;;		None               void
  1028 ;; Registers used:
  1029 ;;		wreg, status,2, status,0
  1030 ;; Tracked objects:
  1031 ;;		On entry : 0/0
  1032 ;;		On exit  : 0/0
  1033 ;;		Unchanged: 0/0
  1034 ;; Data sizes:     COMMON   BANK0   BANK1   BANK2   BANK3   BANK4
  1035 ;;      Params:         1       0       0       0       0       0
  1036 ;;      Locals:         1       0       0       0       0       0
  1037 ;;      Temps:          1       0       0       0       0       0
  1038 ;;      Totals:         3       0       0       0       0       0
  1039 ;;Total ram usage:        3 bytes
  1040 ;; Hardware stack levels used:    1
  1041 ;; This function calls:
  1042 ;;		Nothing
  1043 ;; This function is called by:
  1044 ;;		_isr
  1045 ;; This function uses a non-reentrant model
  1046 ;;
  1047                           
  1048                           
  1049                           ;psect for function i1_LED
  1050  00C1                     i1_LED:	
  1051                           
  1052                           ;incstack = 0
  1053                           ; Regs used in i1_LED: [wreg+status,2+status,0]
  1054                           ;i1LED@b stored from wreg
  1055  00C1  00F2               	movwf	i1LED@b
  1056                           
  1057                           ;PIC16F1827-ChargeStation06.c: 75: if (hl == 1) {
  1058  00C2  0870               	movf	i1LED@hl,w
  1059  00C3  3A01               	xorlw	1
  1060  00C4  1D03               	skipz
  1061  00C5  28D4               	goto	i1l715
  1062                           
  1063                           ;PIC16F1827-ChargeStation06.c: 76: PORTB = PORTB | (0x01 << (b + 4));
  1064  00C6  3001               	movlw	1
  1065  00C7  00F1               	movwf	??i1_LED
  1066  00C8  0872               	movf	i1LED@b,w
  1067  00C9  3E04               	addlw	4
  1068  00CA  0A89               	incf	9,f
  1069  00CB  28CD               	goto	u38_24
  1070  00CC                     u38_25:	
  1071  00CC  35F1               	lslf	??i1_LED,f
  1072  00CD                     u38_24:	
  1073  00CD  0B89               	decfsz	9,f
  1074  00CE  28CC               	goto	u38_25
  1075  00CF  0871               	movf	??i1_LED,w
  1076  00D0  0020               	movlb	0	; select bank0
  1077  00D1  040D               	iorwf	13,w	;volatile
  1078  00D2  008D               	movwf	13	;volatile
  1079                           
  1080                           ;PIC16F1827-ChargeStation06.c: 77: } else {
  1081  00D3  0008               	return
  1082  00D4                     i1l715:	
  1083                           
  1084                           ;PIC16F1827-ChargeStation06.c: 78: PORTB = PORTB & (~(0x01 << (b + 4)));
  1085  00D4  3001               	movlw	1
  1086  00D5  00F1               	movwf	??i1_LED
  1087  00D6  0872               	movf	i1LED@b,w
  1088  00D7  3E04               	addlw	4
  1089  00D8  0A89               	incf	9,f
  1090  00D9  28DB               	goto	u39_24
  1091  00DA                     u39_25:	
  1092  00DA  35F1               	lslf	??i1_LED,f
  1093  00DB                     u39_24:	
  1094  00DB  0B89               	decfsz	9,f
  1095  00DC  28DA               	goto	u39_25
  1096  00DD  0871               	movf	??i1_LED,w
  1097  00DE  3AFF               	xorlw	255
  1098  00DF  0020               	movlb	0	; select bank0
  1099  00E0  050D               	andwf	13,w	;volatile
  1100  00E1  008D               	movwf	13	;volatile
  1101  00E2  0008               	return
  1102  00E3                     __end_ofi1_LED:	
  1103                           
  1104                           	psect	text7
  1105  013D                     __ptext7:	
  1106 ;; *************** function _adc *****************
  1107 ;; Defined at:
  1108 ;;		line 57 in file "PIC16F1827-ChargeStation06.c"
  1109 ;; Parameters:    Size  Location     Type
  1110 ;;  ch              1    wreg     unsigned char 
  1111 ;; Auto vars:     Size  Location     Type
  1112 ;;  ch              1    3[COMMON] unsigned char 
  1113 ;; Return value:  Size  Location     Type
  1114 ;;                  2    0[COMMON] unsigned int 
  1115 ;; Registers used:
  1116 ;;		wreg, status,2, status,0
  1117 ;; Tracked objects:
  1118 ;;		On entry : 0/0
  1119 ;;		On exit  : 0/0
  1120 ;;		Unchanged: 0/0
  1121 ;; Data sizes:     COMMON   BANK0   BANK1   BANK2   BANK3   BANK4
  1122 ;;      Params:         2       0       0       0       0       0
  1123 ;;      Locals:         1       0       0       0       0       0
  1124 ;;      Temps:          1       0       0       0       0       0
  1125 ;;      Totals:         4       0       0       0       0       0
  1126 ;;Total ram usage:        4 bytes
  1127 ;; Hardware stack levels used:    1
  1128 ;; This function calls:
  1129 ;;		Nothing
  1130 ;; This function is called by:
  1131 ;;		_isr
  1132 ;; This function uses a non-reentrant model
  1133 ;;
  1134                           
  1135                           
  1136                           ;psect for function _adc
  1137  013D                     _adc:	
  1138                           
  1139                           ;incstack = 0
  1140                           ; Regs used in _adc: [wreg+status,2+status,0]
  1141                           ;adc@ch stored from wreg
  1142  013D  00F3               	movwf	adc@ch
  1143                           
  1144                           ;PIC16F1827-ChargeStation06.c: 58: ADCON0bits.ADON = 1;
  1145  013E  0021               	movlb	1	; select bank1
  1146  013F  141D               	bsf	29,0	;volatile
  1147                           
  1148                           ;PIC16F1827-ChargeStation06.c: 59: ADCON0bits.CHS = ch;
  1149  0140  0873               	movf	adc@ch,w
  1150  0141  00F2               	movwf	??_adc
  1151  0142  0DF2               	rlf	??_adc,f
  1152  0143  0DF2               	rlf	??_adc,f
  1153  0144  081D               	movf	29,w	;volatile
  1154  0145  0672               	xorwf	??_adc,w
  1155  0146  3983               	andlw	-125
  1156  0147  0672               	xorwf	??_adc,w
  1157  0148  009D               	movwf	29	;volatile
  1158                           
  1159                           ;PIC16F1827-ChargeStation06.c: 60: _delay((unsigned long)((20)*(32000000/4000000.0)));
  1160  0149  3035               	movlw	53
  1161  014A  00F2               	movwf	??_adc
  1162  014B                     u49_27:	
  1163  014B  0BF2               	decfsz	??_adc,f
  1164  014C  294B               	goto	u49_27
  1165                           
  1166                           ;PIC16F1827-ChargeStation06.c: 61: ADCON0bits.GO_nDONE = 1;
  1167  014D  0021               	movlb	1	; select bank1
  1168  014E  149D               	bsf	29,1	;volatile
  1169  014F                     i1l61:	
  1170                           ;PIC16F1827-ChargeStation06.c: 62: while (ADCON0bits.GO_nDONE);
  1171                           
  1172  014F  189D               	btfsc	29,1	;volatile
  1173  0150  294F               	goto	i1l61
  1174                           
  1175                           ;PIC16F1827-ChargeStation06.c: 63: return ADRES;
  1176  0151  081C               	movf	28,w	;volatile
  1177  0152  01F1               	clrf	?_adc+1
  1178  0153  07F1               	addwf	?_adc+1,f
  1179  0154  081B               	movf	27,w	;volatile
  1180  0155  01F0               	clrf	?_adc
  1181  0156  07F0               	addwf	?_adc,f
  1182  0157  0008               	return
  1183  0158                     __end_of_adc:	
  1184  007E                     btemp	set	126	;btemp
  1185  007E                     pic14e$flags	set	126
  1186  007E                     wtemp	set	126
  1187  007E                     wtemp0	set	126
  1188  0080                     wtemp1	set	128
  1189  0082                     wtemp2	set	130
  1190  0084                     wtemp3	set	132
  1191  0086                     wtemp4	set	134
  1192  0088                     wtemp5	set	136
  1193  007F                     wtemp6	set	127
  1194  007E                     ttemp	set	126
  1195  007E                     ttemp0	set	126
  1196  0081                     ttemp1	set	129
  1197  0084                     ttemp2	set	132
  1198  0087                     ttemp3	set	135
  1199  007F                     ttemp4	set	127
  1200  007E                     ltemp	set	126
  1201  007E                     ltemp0	set	126
  1202  0082                     ltemp1	set	130
  1203  0086                     ltemp2	set	134
  1204  0080                     ltemp3	set	128


Data Sizes:
    Strings     0
    Constant    0
    Data        0
    BSS         16
    Persistent  0
    Stack       0

Auto Spaces:
    Space          Size  Autos    Used
    COMMON           14      8       8
    BANK0            80      5      21
    BANK1            80      0       0
    BANK2            80      0       0
    BANK3            80      0       0
    BANK4            48      0       0

Pointer List with Targets:

    None.

Critical Paths under _main in COMMON

    None.

Critical Paths under _isr in COMMON

    _isr->_adc

Critical Paths under _main in BANK0

    _main->_LED
    _main->_OUT
    _main->_SW

Critical Paths under _isr in BANK0

    None.

Critical Paths under _main in BANK1

    None.

Critical Paths under _isr in BANK1

    None.

Critical Paths under _main in BANK2

    None.

Critical Paths under _isr in BANK2

    None.

Critical Paths under _main in BANK3

    None.

Critical Paths under _isr in BANK3

    None.

Critical Paths under _main in BANK4

    None.

Critical Paths under _isr in BANK4

    None.

Call Graph Tables:

 ---------------------------------------------------------------------------------
 (Depth) Function   	        Calls       Base Space   Used Autos Params    Refs
 ---------------------------------------------------------------------------------
 (0) _main                                                 2     2      0     515
                                              3 BANK0      2     2      0
                                _LED
                                _OUT
                                 _SW
 ---------------------------------------------------------------------------------
 (1) _SW                                                   3     3      0      45
                                              0 BANK0      3     3      0
 ---------------------------------------------------------------------------------
 (1) _OUT                                                  3     2      1     168
                                              0 BANK0      3     2      1
 ---------------------------------------------------------------------------------
 (1) _LED                                                  3     2      1     168
                                              0 BANK0      3     2      1
 ---------------------------------------------------------------------------------
 Estimated maximum stack depth 1
 ---------------------------------------------------------------------------------
 (Depth) Function   	        Calls       Base Space   Used Autos Params    Refs
 ---------------------------------------------------------------------------------
 (2) _isr                                                  4     4      0     428
                                              4 COMMON     4     4      0
                                _adc
                              i1_LED
                              i1_OUT
 ---------------------------------------------------------------------------------
 (3) i1_OUT                                                3     2      1      92
                                              0 COMMON     3     2      1
 ---------------------------------------------------------------------------------
 (3) i1_LED                                                3     2      1      92
                                              0 COMMON     3     2      1
 ---------------------------------------------------------------------------------
 (3) _adc                                                  4     2      2      22
                                              0 COMMON     4     2      2
 ---------------------------------------------------------------------------------
 Estimated maximum stack depth 3
 ---------------------------------------------------------------------------------

 Call Graph Graphs:

 _main (ROOT)
   _LED
   _OUT
   _SW

 _isr (ROOT)
   _adc
   i1_LED
   i1_OUT

 Address spaces:
Name               Size   Autos  Total    Cost      Usage
BIGRAM             170      0       0       0        0.0%
EEDATA             100      0       0       0        0.0%
NULL                 0      0       0       0        0.0%
CODE                 0      0       0       0        0.0%
BITCOMMON            E      0       0       1        0.0%
BITSFR0              0      0       0       1        0.0%
SFR0                 0      0       0       1        0.0%
COMMON               E      8       8       2       57.1%
BITSFR1              0      0       0       2        0.0%
SFR1                 0      0       0       2        0.0%
BITSFR2              0      0       0       3        0.0%
SFR2                 0      0       0       3        0.0%
STACK                0      0       0       3        0.0%
BITSFR3              0      0       0       4        0.0%
SFR3                 0      0       0       4        0.0%
ABS                  0      0      1D       4        0.0%
BITBANK0            50      0       0       5        0.0%
BITSFR4              0      0       0       5        0.0%
SFR4                 0      0       0       5        0.0%
BANK0               50      5      15       6       26.3%
BITSFR5              0      0       0       6        0.0%
SFR5                 0      0       0       6        0.0%
BITBANK1            50      0       0       7        0.0%
BITSFR6              0      0       0       7        0.0%
SFR6                 0      0       0       7        0.0%
BANK1               50      0       0       8        0.0%
BITSFR7              0      0       0       8        0.0%
SFR7                 0      0       0       8        0.0%
BITBANK2            50      0       0       9        0.0%
BITSFR8              0      0       0       9        0.0%
SFR8                 0      0       0       9        0.0%
BANK2               50      0       0      10        0.0%
BITSFR9              0      0       0      10        0.0%
SFR9                 0      0       0      10        0.0%
BITBANK3            50      0       0      11        0.0%
BITSFR10             0      0       0      11        0.0%
SFR10                0      0       0      11        0.0%
BANK3               50      0       0      12        0.0%
BITSFR11             0      0       0      12        0.0%
SFR11                0      0       0      12        0.0%
BITBANK4            30      0       0      13        0.0%
BITSFR12             0      0       0      13        0.0%
SFR12                0      0       0      13        0.0%
BANK4               30      0       0      14        0.0%
BITSFR13             0      0       0      14        0.0%
SFR13                0      0       0      14        0.0%
BITSFR14             0      0       0      15        0.0%
SFR14                0      0       0      15        0.0%
DATA                 0      0      1D      15        0.0%
BITSFR15             0      0       0      16        0.0%
SFR15                0      0       0      16        0.0%
BITSFR16             0      0       0      17        0.0%
SFR16                0      0       0      17        0.0%
BITSFR17             0      0       0      18        0.0%
SFR17                0      0       0      18        0.0%
BITSFR18             0      0       0      19        0.0%
SFR18                0      0       0      19        0.0%
BITSFR19             0      0       0      20        0.0%
SFR19                0      0       0      20        0.0%
BITSFR20             0      0       0      21        0.0%
SFR20                0      0       0      21        0.0%
BITSFR21             0      0       0      22        0.0%
SFR21                0      0       0      22        0.0%
BITSFR22             0      0       0      23        0.0%
SFR22                0      0       0      23        0.0%
BITSFR23             0      0       0      24        0.0%
SFR23                0      0       0      24        0.0%
BITSFR24             0      0       0      25        0.0%
SFR24                0      0       0      25        0.0%
BITSFR25             0      0       0      26        0.0%
SFR25                0      0       0      26        0.0%
BITSFR26             0      0       0      27        0.0%
SFR26                0      0       0      27        0.0%
BITSFR27             0      0       0      28        0.0%
SFR27                0      0       0      28        0.0%
BITSFR28             0      0       0      29        0.0%
SFR28                0      0       0      29        0.0%
BITSFR29             0      0       0      30        0.0%
SFR29                0      0       0      30        0.0%
BITSFR30             0      0       0      31        0.0%
SFR30                0      0       0      31        0.0%
BITSFR31             0      0       0      32        0.0%
SFR31                0      0       0      32        0.0%


Microchip Technology PIC Macro Assembler V1.33 build 59893 
Symbol Table                                                                                   Wed Dec 10 15:27:17 2014

                      _v 0028              __CFG_CP$OFF 0000                       _SW 0158  
                    ?_SW 0070                      l701 016D                      SW@b 0031  
                    l683 0131                      l771 0098                      l781 00BB  
                    l689 00F6                      _LED 00E3                      u304 00F0  
                    u305 00EF                      u314 00FD                      u315 00FC  
                    u324 0165                      u325 0164                      u274 012B  
           __CFG_CPD$OFF 0000                      u275 012A                      u284 0136  
                    u285 0135                      _OUT 0121                      _adc 013D  
                    _cut 0020                      _isr 0004             __CFG_BORV$LO 0000  
                    wreg 0009                     ??_SW 0030             __CFG_LVP$OFF 0000  
                   LED@b 0032                     ?_LED 0030                     ?_OUT 0030  
                   ?_adc 0070                     OUT@b 0032                     ?_isr 0070  
                   i1l51 0064                     i1l61 014F             __CFG_WRT$OFF 0000  
                   _main 0078                     fsr0h 0005                     fsr1h 0007  
                   fsr0l 0004                     indf0 0000                     indf1 0001  
                   fsr1l 0006                     btemp 007E                     isr@i 0077  
                   ltemp 007E                     start 006B                     ttemp 007E  
                   wtemp 007E            __CFG_IESO$OFF 0000                    ??_LED 0031  
                  ??_OUT 0031                    ??_adc 0072                    ??_isr 0074  
                  LED@hl 0030            __CFG_PLLEN$ON 0000                    ?_main 0070  
                  OUT@hl 0030                    _ADRES 009B            __CFG_WDTE$OFF 0000  
                  _T1CON 0018                    i1l715 00D4                    i1l709 0114  
                  i1l735 0055                    i1l727 0011                    i1l737 005C  
                  i1_LED 00C1                    i1_OUT 0104                    _TMR1H 0017  
                  _TMR1L 0016                    _PORTA 000C                    _PORTB 000D  
                  u35_24 010D                    u35_25 010C                    u36_24 0119  
                  u36_25 0118                    u38_24 00CD                    u38_25 00CC  
                  u39_24 00DB                    u39_25 00DA                    _TRISA 008C  
                  _TRISB 008D                    u49_27 014B           __CFG_FCMEN$OFF 0000  
                  adc@ch 0073                    main@i 0034           __CFG_BOREN$OFF 0000  
                  ltemp0 007E                    ltemp1 0082                    ltemp2 0086  
                  ltemp3 0080                    ttemp0 007E                    ttemp1 0081  
                  ttemp2 0084                    ttemp3 0087                    ttemp4 007F  
                  status 0003                    wtemp0 007E                    wtemp1 0080  
                  wtemp2 0082                    wtemp3 0084                    wtemp4 0086  
                  wtemp5 0088                    wtemp6 007F           __CFG_MCLRE$OFF 0000  
        __initialization 006D             __end_of_main 00C1                   ??_main 0033  
                 ?i1_LED 0070                   ?i1_OUT 0070                   _ADCON1 009E  
                 i1LED@b 0072                   _ANSELA 018C                   _ANSELB 018D  
                 SW@temp 0032                   i1OUT@b 0072                   _FVRCON 0117  
                 _OSCCON 0099           __CFG_PWRTE$OFF 0000  __end_of__initialization 0074  
          __end_ofi1_LED 00E3            __end_ofi1_OUT 0121           __pcstackCOMMON 0070  
             __end_of_SW 016F                  ??i1_LED 0071                  ??i1_OUT 0071  
             __pbssBANK0 0020               __pmaintext 0078               __pintentry 0004  
                i1LED@hl 0070                  i1OUT@hl 0070          __CFG_STVREN$OFF 0000  
                __ptext0 0000                  __ptext1 0158                  __ptext2 0121  
                __ptext3 00E3                  __ptext5 0104                  __ptext6 00C1  
                __ptext7 013D             __size_of_LED 0021             __size_of_OUT 001C  
           __size_of_adc 001B             __size_of_isr 0067                  clrloop0 0170  
   end_of_initialization 0074         __CFG_FOSC$INTOSC 0000      start_initialization 006D  
            __end_of_LED 0104              __end_of_OUT 013D              __end_of_adc 0158  
            __end_of_isr 006B                ___latbits 0001            __pcstackBANK0 0030  
         __size_ofi1_LED 0022           __size_ofi1_OUT 001D              __size_of_SW 0017  
              clear_ram0 016F                 _PIE1bits 0091                 _PIR1bits 0011  
             _ADCON0bits 009D            __size_of_main 0049               _INTCONbits 000B  
            pic14e$flags 007E                 intlevel1 0000        __CFG_CLKOUTEN$OFF 0000  
             _OPTION_REG 0095  
