

Microchip Technology PIC18 LITE Macro Assembler V1.34 build -361300703 
                                                                                               Sat Jul 18 18:31:09 2015

Microchip Technology Omniscient Code Generator (Lite mode) build 201502162209
     1                           	processor	18F27J53
     2                           	fnconf	rparam,??,?,0
     3                           	opt	pw 120
     4                           	opt	lm
     5                           	psect	idataBANK0,global,class=CODE,delta=1
     6                           	psect	smallconst,global,reloc=2,class=SMALLCONST,delta=1
     7                           	psect	cinit,global,reloc=2,class=CODE,delta=1
     8                           	psect	bssCOMRAM,global,class=COMRAM,space=1,delta=1
     9                           	psect	bssBANK0,global,class=BANK0,space=1,delta=1
    10                           	psect	dataBANK0,global,class=BANK0,space=1,delta=1
    11                           	psect	bssBANK1,global,class=BANK1,space=1,delta=1
    12                           	psect	bssBIGRAMl,global,class=BIGRAM,space=1,delta=1
    13                           	psect	cstackBANK0,global,class=BANK0,space=1,delta=1
    14                           	psect	cstackCOMRAM,global,class=COMRAM,space=1,delta=1
    15                           	psect	text0,global,reloc=2,class=CODE,delta=1
    16                           	psect	text1,global,reloc=2,class=CODE,delta=1
    17                           	psect	text2,global,reloc=2,class=CODE,delta=1
    18                           	psect	text3,global,reloc=2,class=CODE,delta=1
    19                           	psect	text4,global,reloc=2,class=CODE,delta=1
    20                           	psect	text5,global,reloc=2,class=CODE,delta=1
    21                           	psect	text6,global,reloc=2,class=CODE,delta=1
    22                           	psect	text7,global,reloc=2,class=CODE,delta=1
    23                           	psect	text8,global,reloc=2,class=CODE,delta=1
    24                           	psect	text9,global,reloc=2,class=CODE,delta=1
    25                           	psect	text10,global,reloc=2,class=CODE,delta=1
    26                           	psect	text11,global,reloc=2,class=CODE,delta=1
    27                           	psect	text12,global,reloc=2,class=CODE,delta=1
    28                           	psect	text13,global,reloc=2,class=CODE,delta=1
    29                           	psect	text14,global,reloc=2,class=CODE,delta=1
    30                           	psect	text15,global,reloc=2,class=CODE,delta=1
    31                           	psect	text16,global,reloc=2,class=CODE,delta=1
    32                           	psect	text17,global,reloc=2,class=CODE,delta=1
    33                           	psect	text18,global,reloc=2,class=CODE,delta=1
    34                           	psect	text19,global,reloc=2,class=CODE,delta=1
    35                           	psect	text20,global,reloc=2,class=CODE,delta=1
    36                           	psect	text21,global,reloc=2,class=CODE,delta=1
    37                           	psect	text22,global,reloc=2,class=CODE,delta=1
    38                           	psect	text23,global,reloc=2,class=CODE,delta=1
    39                           	psect	text24,global,reloc=2,class=CODE,delta=1
    40                           	psect	text25,global,reloc=2,class=CODE,delta=1
    41                           	psect	text26,global,reloc=2,class=CODE,delta=1
    42                           	psect	text27,global,reloc=2,class=CODE,delta=1
    43                           	psect	text28,global,reloc=2,class=CODE,delta=1
    44                           	psect	text29,global,reloc=2,class=CODE,delta=1
    45                           	psect	text30,global,reloc=2,class=CODE,delta=1
    46                           	psect	text31,global,reloc=2,class=CODE,delta=1
    47                           	psect	text32,global,reloc=2,class=CODE,delta=1
    48                           	psect	intcode,global,reloc=2,class=CODE,delta=1
    49                           	psect	text34,global,reloc=2,class=CODE,delta=1
    50                           	psect	text35,global,reloc=2,class=CODE,delta=1
    51                           	psect	text36,global,reloc=2,class=CODE,delta=1
    52                           	psect	text37,global,reloc=2,class=CODE,delta=1
    53                           	psect	text38,global,reloc=2,class=CODE,delta=1
    54                           	psect	text39,global,reloc=2,class=CODE,delta=1
    55                           	psect	text40,global,reloc=2,class=CODE,delta=1
    56                           	psect	text41,global,reloc=2,class=CODE,delta=1
    57                           	psect	text42,global,reloc=2,class=CODE,delta=1
    58                           	psect	text43,global,reloc=2,class=CODE,delta=1
    59                           	psect	text44,global,reloc=2,class=CODE,delta=1
    60                           	psect	text45,global,reloc=2,class=CODE,delta=1
    61                           	psect	text46,global,reloc=2,class=CODE,delta=1
    62                           	psect	text47,global,reloc=2,class=CODE,delta=1
    63                           	psect	text48,global,reloc=2,class=CODE,delta=1
    64                           	psect	text49,global,reloc=2,class=CODE,delta=1
    65                           	psect	text50,global,reloc=2,class=CODE,delta=1
    66                           	psect	text51,global,reloc=2,class=CODE,delta=1
    67                           	psect	text52,global,reloc=2,class=CODE,delta=1
    68                           	psect	text53,global,reloc=2,class=CODE,delta=1
    69                           	psect	text54,global,reloc=2,class=CODE,delta=1
    70                           	psect	text55,global,reloc=2,class=CODE,delta=1
    71                           	psect	text56,global,reloc=2,class=CODE,delta=1
    72                           	psect	text57,global,reloc=2,class=CODE,delta=1
    73                           	psect	text58,global,reloc=2,class=CODE,delta=1
    74                           	psect	text59,global,reloc=2,class=CODE,delta=1
    75                           	psect	text60,global,reloc=2,class=CODE,delta=1
    76                           	psect	intsave_regs,global,class=BIGRAM,space=1,delta=1
    77                           	psect	rparam,global,class=COMRAM,space=1,delta=1
    78                           	dabs	1,0xD00,48,_BDT
    79                           	dabs	1,0xD38,8,_CtrlTrfData
    80                           	dabs	1,0xD30,8,_SetupPkt
    81  0000                     
    82                           	psect	idataBANK0
    83  003128                     __pidataBANK0:
    84                           	opt stack 0
    85                           
    86                           ;initializer for I2C_LCD_SetCursor@F9810
    87  003128  00                 	db	0
    88  003129  40                 	db	64
    89                           
    90                           	psect	smallconst
    91  000F00                     __psmallconst:
    92                           	opt stack 0
    93  000F00  00                 	db	0
    94  000F01                     _USB_SD_Ptr:
    95                           	opt stack 0
    96  000F01  C6                 	db	low _sd000
    97  000F02  0F                 	db	high _sd000
    98  000F03  4C                 	db	low _sd001
    99  000F04  0F                 	db	high _sd001
   100  000F05  80                 	db	low _sd002
   101  000F06  0F                 	db	high _sd002
   102  000F07                     __end_of_USB_SD_Ptr:
   103                           	opt stack 0
   104  000F07                     _USB_CD_Ptr:
   105                           	opt stack 0
   106  000F07  09                 	db	low _configDescriptor1
   107  000F08  0F                 	db	high _configDescriptor1
   108  000F09                     __end_of_USB_CD_Ptr:
   109                           	opt stack 0
   110  000F09                     _configDescriptor1:
   111                           	opt stack 0
   112  000F09  09                 	db	9
   113  000F0A  02                 	db	2
   114  000F0B  43                 	db	67
   115  000F0C  00                 	db	0
   116  000F0D  02                 	db	2
   117  000F0E  01                 	db	1
   118  000F0F  00                 	db	0
   119  000F10  C0                 	db	192
   120  000F11  32                 	db	50
   121  000F12  09                 	db	9
   122  000F13  04                 	db	4
   123  000F14  00                 	db	0
   124  000F15  00                 	db	0
   125  000F16  01                 	db	1
   126  000F17  02                 	db	2
   127  000F18  02                 	db	2
   128  000F19  01                 	db	1
   129  000F1A  00                 	db	0
   130  000F1B  05                 	db	5
   131  000F1C  24                 	db	36
   132  000F1D  00                 	db	0
   133  000F1E  10                 	db	16
   134  000F1F  01                 	db	1
   135  000F20  04                 	db	4
   136  000F21  24                 	db	36
   137  000F22  02                 	db	2
   138  000F23  02                 	db	2
   139  000F24  05                 	db	5
   140  000F25  24                 	db	36
   141  000F26  06                 	db	6
   142  000F27  00                 	db	0
   143  000F28  01                 	db	1
   144  000F29  05                 	db	5
   145  000F2A  24                 	db	36
   146  000F2B  01                 	db	1
   147  000F2C  00                 	db	0
   148  000F2D  01                 	db	1
   149  000F2E  07                 	db	7
   150  000F2F  05                 	db	5
   151  000F30  81                 	db	129
   152  000F31  03                 	db	3
   153  000F32  08                 	db	8
   154  000F33  00                 	db	0
   155  000F34  02                 	db	2
   156  000F35  09                 	db	9
   157  000F36  04                 	db	4
   158  000F37  01                 	db	1
   159  000F38  00                 	db	0
   160  000F39  02                 	db	2
   161  000F3A  0A                 	db	10
   162  000F3B  00                 	db	0
   163  000F3C  00                 	db	0
   164  000F3D  00                 	db	0
   165  000F3E  07                 	db	7
   166  000F3F  05                 	db	5
   167  000F40  02                 	db	2
   168  000F41  02                 	db	2
   169  000F42  40                 	db	64
   170  000F43  00                 	db	0
   171  000F44  00                 	db	0
   172  000F45  07                 	db	7
   173  000F46  05                 	db	5
   174  000F47  82                 	db	130
   175  000F48  02                 	db	2
   176  000F49  40                 	db	64
   177  000F4A  00                 	db	0
   178  000F4B  00                 	db	0
   179  000F4C                     __end_of_configDescriptor1:
   180                           	opt stack 0
   181  000F4C                     _sd001:
   182                           	opt stack 0
   183  000F4C  34                 	db	52
   184  000F4D  03                 	db	3
   185  000F4E  004D               	dw	77
   186  000F50  0069               	dw	105
   187  000F52  0063               	dw	99
   188  000F54  0072               	dw	114
   189  000F56  006F               	dw	111
   190  000F58  0063               	dw	99
   191  000F5A  0068               	dw	104
   192  000F5C  0069               	dw	105
   193  000F5E  0070               	dw	112
   194  000F60  0020               	dw	32
   195  000F62  0054               	dw	84
   196  000F64  0065               	dw	101
   197  000F66  0063               	dw	99
   198  000F68  0068               	dw	104
   199  000F6A  006E               	dw	110
   200  000F6C  006F               	dw	111
   201  000F6E  006C               	dw	108
   202  000F70  006F               	dw	111
   203  000F72  0067               	dw	103
   204  000F74  0079               	dw	121
   205  000F76  0020               	dw	32
   206  000F78  0049               	dw	73
   207  000F7A  006E               	dw	110
   208  000F7C  0063               	dw	99
   209  000F7E  002E               	dw	46
   210  000F80                     __end_of_sd001:
   211                           	opt stack 0
   212  000F80                     _sd002:
   213                           	opt stack 0
   214  000F80  34                 	db	52
   215  000F81  03                 	db	3
   216  000F82  0043               	dw	67
   217  000F84  0044               	dw	68
   218  000F86  0043               	dw	67
   219  000F88  0020               	dw	32
   220  000F8A  0052               	dw	82
   221  000F8C  0053               	dw	83
   222  000F8E  002D               	dw	45
   223  000F90  0032               	dw	50
   224  000F92  0033               	dw	51
   225  000F94  0032               	dw	50
   226  000F96  0020               	dw	32
   227  000F98  0045               	dw	69
   228  000F9A  006D               	dw	109
   229  000F9C  0075               	dw	117
   230  000F9E  006C               	dw	108
   231  000FA0  0061               	dw	97
   232  000FA2  0074               	dw	116
   233  000FA4  0069               	dw	105
   234  000FA6  006F               	dw	111
   235  000FA8  006E               	dw	110
   236  000FAA  0020               	dw	32
   237  000FAC  0044               	dw	68
   238  000FAE  0065               	dw	101
   239  000FB0  006D               	dw	109
   240  000FB2  006F               	dw	111
   241  000FB4                     __end_of_sd002:
   242                           	opt stack 0
   243  000FB4                     _device_dsc:
   244                           	opt stack 0
   245  000FB4  12                 	db	18
   246  000FB5  01                 	db	1
   247  000FB6  0200               	dw	512
   248  000FB8  02                 	db	2
   249  000FB9  00                 	db	0
   250  000FBA  00                 	db	0
   251  000FBB  08                 	db	8
   252  000FBC  04D8               	dw	1240
   253  000FBE  000A               	dw	10
   254  000FC0  0100               	dw	256
   255  000FC2  01                 	db	1
   256  000FC3  02                 	db	2
   257  000FC4  00                 	db	0
   258  000FC5  01                 	db	1
   259  000FC6                     __end_of_device_dsc:
   260                           	opt stack 0
   261  000FC6                     _sd000:
   262                           	opt stack 0
   263  000FC6  04                 	db	4
   264  000FC7  03                 	db	3
   265  000FC8  0409               	dw	1033
   266  000FCA                     __end_of_sd000:
   267                           	opt stack 0
   268  0000                     _ANCON0	set	3912
   269  0000                     _ANCON1	set	3913
   270  0000                     _T5CONbits	set	3874
   271  0000                     _UADDR	set	3896
   272  0000                     _UCFG	set	3897
   273  0000                     _UEIE	set	3895
   274  0000                     _UEP0bits	set	3878
   275  0000                     _UIE	set	3894
   276  0000                     _UIEbits	set	3894
   277  0000                     _UEP0	set	3878
   278  0000                     _UEP1	set	3879
   279  0000                     _ADRES	set	4035
   280  0000                     _ADCON0bits	set	4034
   281  0000                     _ADCON1bits	set	4033
   282  0000                     _BAUDCON1bits	set	3966
   283  0000                     _INTCON2bits	set	4081
   284  0000                     _INTCONbits	set	4082
   285  0000                     _IPR1bits	set	3999
   286  0000                     _IPR2bits	set	4002
   287  0000                     _IPR5bits	set	3993
   288  0000                     _LATAbits	set	3977
   289  0000                     _LATBbits	set	3978
   290  0000                     _OSCCONbits	set	4051
   291  0000                     _OSCTUNEbits	set	3995
   292  0000                     _PIE1bits	set	3997
   293  0000                     _PIE2bits	set	4000
   294  0000                     _PIE5bits	set	3985
   295  0000                     _PIR1bits	set	3998
   296  0000                     _PIR2bits	set	4001
   297  0000                     _PIR5bits	set	3992
   298  0000                     _RCONbits	set	4048
   299  0000                     _RCREG1	set	4015
   300  0000                     _RCSTA1bits	set	4012
   301  0000                     _SPBRG1	set	4016
   302  0000                     _SPBRGH1	set	3967
   303  0000                     _SSP1ADD	set	4040
   304  0000                     _SSP1BUF	set	4041
   305  0000                     _SSP1CON1	set	4038
   306  0000                     _SSP1CON2	set	4037
   307  0000                     _SSP1CON2bits	set	4037
   308  0000                     _SSP1STAT	set	4039
   309  0000                     _T0CONbits	set	4053
   310  0000                     _T1CONbits	set	4045
   311  0000                     _T3CONbits	set	3961
   312  0000                     _TMR1H	set	4047
   313  0000                     _TRISA	set	3986
   314  0000                     _TRISB	set	3987
   315  0000                     _TRISC	set	3988
   316  0000                     _TXREG1	set	4014
   317  0000                     _TXSTA1bits	set	4013
   318  0000                     _UCON	set	3941
   319  0000                     _UCONbits	set	3941
   320  0000                     _UEIR	set	3939
   321  0000                     _UIR	set	3938
   322  0000                     _UIRbits	set	3938
   323  0000                     _USTAT	set	3940
   324  0000                     _BCL1IF	set	32011
   325  0000                     _SSP1IF	set	31987
   326  000FCA                     STR_1:
   327                           
   328                           ; BSR set to: 0
   329  000FCA  31                 	db	49	;'1'
   330  000FCB  38                 	db	56	;'8'
   331  000FCC  46                 	db	70	;'F'
   332  000FCD  32                 	db	50	;'2'
   333  000FCE  37                 	db	55	;'7'
   334  000FCF  4A                 	db	74	;'J'
   335  000FD0  35                 	db	53	;'5'
   336  000FD1  33                 	db	51	;'3'
   337  000FD2  00                 	db	0
   338  000FD3                     STR_2:
   339                           
   340                           ; BSR set to: 0
   341  000FD3  55                 	db	85	;'U'
   342  000FD4  53                 	db	83	;'S'
   343  000FD5  42                 	db	66	;'B'
   344  000FD6  20                 	db	32
   345  000FD7  43                 	db	67	;'C'
   346  000FD8  44                 	db	68	;'D'
   347  000FD9  43                 	db	67	;'C'
   348  000FDA  00                 	db	0
   349                           
   350                           ; #config settings
   351  000FDB  00                 	db	0	; dummy byte at the end
   352  0000                     
   353                           	psect	cinit
   354  002BE2                     __pcinit:
   355                           	opt stack 0
   356  002BE2                     start_initialization:
   357                           	opt stack 0
   358  002BE2                     __initialization:
   359                           	opt stack 0
   360                           
   361                           ; Clear objects allocated to BIGRAMl (1000 bytes)
   362  002BE2  EE01  F0E4         	lfsr	0,__pbssBIGRAMl
   363  002BE6  EE13 F0E8          	lfsr	1,1000
   364  002BEA                     clear_0:
   365  002BEA  6AEE               	clrf	postinc0,c
   366  002BEC  50E5               	movf	postdec1,w,c
   367  002BEE  50E1               	movf	fsr1l,w,c
   368  002BF0  E1FC               	bnz	clear_0
   369  002BF2  50E2               	movf	fsr1h,w,c
   370  002BF4  E1FA               	bnz	clear_0
   371                           
   372                           ; Clear objects allocated to BANK1 (228 bytes)
   373  002BF6  EE01  F000         	lfsr	0,__pbssBANK1
   374  002BFA  0EE4               	movlw	228
   375  002BFC                     clear_1:
   376  002BFC  6AEE               	clrf	postinc0,c
   377  002BFE  06E8               	decf	wreg,f,c
   378  002C00  E1FD               	bnz	clear_1
   379                           
   380                           ; Clear objects allocated to BANK0 (93 bytes)
   381  002C02  EE00  F060         	lfsr	0,__pbssBANK0
   382  002C06  0E5D               	movlw	93
   383  002C08                     clear_2:
   384  002C08  6AEE               	clrf	postinc0,c
   385  002C0A  06E8               	decf	wreg,f,c
   386  002C0C  E1FD               	bnz	clear_2
   387                           
   388                           ; Clear objects allocated to COMRAM (44 bytes)
   389  002C0E  EE00  F001         	lfsr	0,__pbssCOMRAM
   390  002C12  0E2C               	movlw	44
   391  002C14                     clear_3:
   392  002C14  6AEE               	clrf	postinc0,c
   393  002C16  06E8               	decf	wreg,f,c
   394  002C18  E1FD               	bnz	clear_3
   395                           
   396                           ; Initialize objects allocated to BANK0 (2 bytes)
   397                           ; load TBLPTR registers with __pidataBANK0
   398  002C1A  0E28               	movlw	low __pidataBANK0
   399  002C1C  6EF6               	movwf	tblptrl,c
   400  002C1E  0E31               	movlw	high __pidataBANK0
   401  002C20  6EF7               	movwf	tblptrh,c
   402  002C22  0E00               	movlw	low (__pidataBANK0 shr (0+16))
   403  002C24  6EF8               	movwf	tblptru,c
   404  002C26  0009               	tblrd		*+	;fetch initializer
   405  002C28  CFF5 F0D6          	movff	tablat,__pdataBANK0
   406  002C2C  0009               	tblrd		*+	;fetch initializer
   407  002C2E  CFF5 F0D7          	movff	tablat,__pdataBANK0+1
   408  002C32                     end_of_initialization:
   409                           	opt stack 0
   410  002C32                     __end_of__initialization:
   411                           	opt stack 0
   412  002C32  0100               	movlb	0
   413  002C34  EF55  F014         	goto	_main	;jump to C main() function
   414                           tblptru	equ	0xFF8
   415                           tblptrh	equ	0xFF7
   416                           tblptrl	equ	0xFF6
   417                           tablat	equ	0xFF5
   418                           postinc0	equ	0xFEE
   419                           wreg	equ	0xFE8
   420                           postdec1	equ	0xFE5
   421                           fsr1h	equ	0xFE2
   422                           fsr1l	equ	0xFE1
   423                           
   424                           	psect	bssCOMRAM
   425  000001                     __pbssCOMRAM:
   426                           	opt stack 0
   427  000001                     _outPipes:
   428                           	opt stack 0
   429  000001                     	ds	9
   430  00000A                     _pBDTEntryIn:
   431                           	opt stack 0
   432  00000A                     	ds	6
   433  000010                     _ep_data_in:
   434                           	opt stack 0
   435  000010                     	ds	3
   436  000013                     _pBDTEntryEP0OutCurrent:
   437                           	opt stack 0
   438  000013                     	ds	2
   439  000015                     _pBDTEntryEP0OutNext:
   440                           	opt stack 0
   441  000015                     	ds	2
   442  000017                     _BothEP0OutUOWNsSet:
   443                           	opt stack 0
   444  000017                     	ds	1
   445  000018                     _RemoteWakeup:
   446                           	opt stack 0
   447  000018                     	ds	1
   448  000019                     _USBBusIsSuspended:
   449                           	opt stack 0
   450  000019                     	ds	1
   451  00001A                     _USBDeferINDataStagePackets:
   452                           	opt stack 0
   453  00001A                     	ds	1
   454  00001B                     _USBDeferOUTDataStagePackets:
   455                           	opt stack 0
   456  00001B                     	ds	1
   457  00001C                     _USBDeferStatusStagePacket:
   458                           	opt stack 0
   459  00001C                     	ds	1
   460  00001D                     _USBDeviceState:
   461                           	opt stack 0
   462  00001D                     	ds	1
   463  00001E                     _USBStatusStageEnabledFlag1:
   464                           	opt stack 0
   465  00001E                     	ds	1
   466  00001F                     _USBStatusStageEnabledFlag2:
   467                           	opt stack 0
   468  00001F                     	ds	1
   469  000020                     _USBStatusStageTimeoutCounter:
   470                           	opt stack 0
   471  000020                     	ds	1
   472  000021                     _cdc_trf_state:
   473                           	opt stack 0
   474  000021                     	ds	1
   475  000022                     _controlTransferState:
   476                           	opt stack 0
   477  000022                     	ds	1
   478  000023                     _endpoint_number:
   479                           	opt stack 0
   480  000023                     	ds	1
   481  000024                     _shortPacketStatus:
   482                           	opt stack 0
   483  000024                     	ds	1
   484  000025                     _inPipes:
   485                           	opt stack 0
   486  000025                     	ds	6
   487  00002B                     _USBActiveConfiguration:
   488                           	opt stack 0
   489  00002B                     	ds	1
   490  00002C                     _USTATcopy:
   491                           	opt stack 0
   492  00002C                     	ds	1
   493                           tblptru	equ	0xFF8
   494                           tblptrh	equ	0xFF7
   495                           tblptrl	equ	0xFF6
   496                           tablat	equ	0xFF5
   497                           postinc0	equ	0xFEE
   498                           wreg	equ	0xFE8
   499                           postdec1	equ	0xFE5
   500                           fsr1h	equ	0xFE2
   501                           fsr1l	equ	0xFE1
   502                           
   503                           	psect	bssBANK0
   504  000060                     __pbssBANK0:
   505                           	opt stack 0
   506  000060                     _cdc_notice:
   507                           	opt stack 0
   508  000060                     	ds	10
   509  00006A                     _pBDTEntryOut:
   510                           	opt stack 0
   511  00006A                     	ds	6
   512  000070                     _BaudRateGen:
   513                           	opt stack 0
   514  000070                     	ds	4
   515  000074                     _d1:
   516                           	opt stack 0
   517  000074                     	ds	3
   518  000077                     _ep_data_out:
   519                           	opt stack 0
   520  000077                     	ds	3
   521  00007A                     _pCDCDst:
   522                           	opt stack 0
   523  00007A                     	ds	3
   524  00007D                     _pCDCSrc:
   525                           	opt stack 0
   526  00007D                     	ds	3
   527  000080                     USBCBSendResume@delay_count:
   528                           	opt stack 0
   529  000080                     	ds	2
   530  000082                     _CDCDataInHandle:
   531                           	opt stack 0
   532  000082                     	ds	2
   533  000084                     _CDCDataOutHandle:
   534                           	opt stack 0
   535  000084                     	ds	2
   536  000086                     _pDst:
   537                           	opt stack 0
   538  000086                     	ds	2
   539  000088                     _cdc_mem_type:
   540                           	opt stack 0
   541  000088                     	ds	1
   542  000089                     _cdc_rx_len:
   543                           	opt stack 0
   544  000089                     	ds	1
   545  00008A                     _cdc_tx_len:
   546                           	opt stack 0
   547  00008A                     	ds	1
   548  00008B                     _control_signal_bitmap:
   549                           	opt stack 0
   550  00008B                     	ds	1
   551  00008C                     _dummy_encapsulated_cmd_response:
   552                           	opt stack 0
   553  00008C                     	ds	8
   554  000094                     _rx_buf:
   555                           	opt stack 0
   556  000094                     	ds	8
   557  00009C                     _tx_buf:
   558                           	opt stack 0
   559  00009C                     	ds	8
   560  0000A4                     _usb_rx:
   561                           	opt stack 0
   562  0000A4                     	ds	8
   563  0000AC                     _usb_tx:
   564                           	opt stack 0
   565  0000AC                     	ds	8
   566  0000B4                     _line_coding:
   567                           	opt stack 0
   568  0000B4                     	ds	7
   569  0000BB                     _USBAlternateInterface:
   570                           	opt stack 0
   571  0000BB                     	ds	2
   572                           tblptru	equ	0xFF8
   573                           tblptrh	equ	0xFF7
   574                           tblptrl	equ	0xFF6
   575                           tablat	equ	0xFF5
   576                           postinc0	equ	0xFEE
   577                           wreg	equ	0xFE8
   578                           postdec1	equ	0xFE5
   579                           fsr1h	equ	0xFE2
   580                           fsr1l	equ	0xFE1
   581                           
   582                           	psect	dataBANK0
   583  0000D6                     __pdataBANK0:
   584                           	opt stack 0
   585  0000D6                     I2C_LCD_SetCursor@F9810:
   586                           	opt stack 0
   587  0000D6                     	ds	2
   588                           tblptru	equ	0xFF8
   589                           tblptrh	equ	0xFF7
   590                           tblptrl	equ	0xFF6
   591                           tablat	equ	0xFF5
   592                           postinc0	equ	0xFEE
   593                           wreg	equ	0xFE8
   594                           postdec1	equ	0xFE5
   595                           fsr1h	equ	0xFE2
   596                           fsr1l	equ	0xFE1
   597                           
   598                           	psect	bssBANK1
   599  000100                     __pbssBANK1:
   600                           	opt stack 0
   601  000100                     main_init@usbrx:
   602                           	opt stack 0
   603  000100                     	ds	100
   604  000164                     _cdc_data_rx:
   605                           	opt stack 0
   606  000164                     	ds	64
   607  0001A4                     _cdc_data_tx:
   608                           	opt stack 0
   609  0001A4                     	ds	64
   610                           tblptru	equ	0xFF8
   611                           tblptrh	equ	0xFF7
   612                           tblptrl	equ	0xFF6
   613                           tablat	equ	0xFF5
   614                           postinc0	equ	0xFEE
   615                           wreg	equ	0xFE8
   616                           postdec1	equ	0xFE5
   617                           fsr1h	equ	0xFE2
   618                           fsr1l	equ	0xFE1
   619                           
   620                           	psect	bssBIGRAMl
   621  0001E4                     __pbssBIGRAMl:
   622                           	opt stack 0
   623  0001E4                     main_init@usbtx:
   624                           	opt stack 0
   625  0001E4                     	ds	1000
   626                           tblptru	equ	0xFF8
   627                           tblptrh	equ	0xFF7
   628                           tblptrl	equ	0xFF6
   629                           tablat	equ	0xFF5
   630                           postinc0	equ	0xFEE
   631                           wreg	equ	0xFE8
   632                           postdec1	equ	0xFE5
   633                           fsr1h	equ	0xFE2
   634                           fsr1l	equ	0xFE1
   635                           
   636                           	psect	cstackBANK0
   637  0000BD                     __pcstackBANK0:
   638                           	opt stack 0
   639  0000BD                     ??_timer0_init:
   640  0000BD                     ??_timer3_init:
   641  0000BD                     ??_I2C_IdleCheck:
   642  0000BD                     ?_USBTransferOnePacket:
   643                           	opt stack 0
   644  0000BD                     ?_ringbuf_num:
   645                           	opt stack 0
   646  0000BD                     USBTransferOnePacket@dir:
   647                           	opt stack 0
   648  0000BD                     _is_usb_available$2010:
   649                           	opt stack 0
   650  0000BD                     timer1_init@clock_select:
   651                           	opt stack 0
   652  0000BD                     putUSBUSART@data:
   653                           	opt stack 0
   654  0000BD                     ringbuf_init@rb:
   655                           	opt stack 0
   656  0000BD                     ringbuf_num@rb:
   657                           	opt stack 0
   658  0000BD                     Delay_ms@ms:
   659                           	opt stack 0
   660  0000BD                     memset@p1:
   661                           	opt stack 0
   662                           
   663                           ; 2 bytes @ 0x0
   664  0000BD                     	ds	1
   665  0000BE                     ??_timer1_init:
   666  0000BE                     timer0_init@prescaler:
   667                           	opt stack 0
   668  0000BE                     timer3_init@prescaler:
   669                           	opt stack 0
   670  0000BE                     I2C_IdleCheck@mask:
   671                           	opt stack 0
   672  0000BE                     USBTransferOnePacket@data:
   673                           	opt stack 0
   674                           
   675                           ; 2 bytes @ 0x1
   676  0000BE                     	ds	1
   677  0000BF                     ??_ringbuf_num:
   678  0000BF                     ??_Delay_ms:
   679  0000BF                     putUSBUSART@length:
   680                           	opt stack 0
   681  0000BF                     timer1_init@prescaler:
   682                           	opt stack 0
   683  0000BF                     I2C_Start@rw:
   684                           	opt stack 0
   685  0000BF                     I2C_Send@data:
   686                           	opt stack 0
   687  0000BF                     ringbuf_init@internal_buf:
   688                           	opt stack 0
   689  0000BF                     memset@c:
   690                           	opt stack 0
   691                           
   692                           ; 2 bytes @ 0x2
   693  0000BF                     	ds	1
   694  0000C0                     USBTransferOnePacket@len:
   695                           	opt stack 0
   696  0000C0                     I2C_Start@adrs:
   697                           	opt stack 0
   698                           
   699                           ; 1 bytes @ 0x3
   700  0000C0                     	ds	1
   701  0000C1                     USBTransferOnePacket@ep:
   702                           	opt stack 0
   703  0000C1                     I2C_LCD_Command@c:
   704                           	opt stack 0
   705  0000C1                     ringbuf_init@bufsize:
   706                           	opt stack 0
   707  0000C1                     I2C_LCD_Puts@s:
   708                           	opt stack 0
   709  0000C1                     memset@n:
   710                           	opt stack 0
   711                           
   712                           ; 2 bytes @ 0x4
   713  0000C1                     	ds	1
   714  0000C2                     I2C_LCD_Command@ans:
   715                           	opt stack 0
   716  0000C2                     USBTransferOnePacket@handle:
   717                           	opt stack 0
   718                           
   719                           ; 2 bytes @ 0x5
   720  0000C2                     	ds	1
   721  0000C3                     ??_I2C_LCD_Clear:
   722  0000C3                     ??_I2C_LCD_Puts:
   723  0000C3                     I2C_LCD_SetCursor@row:
   724                           	opt stack 0
   725  0000C3                     memset@p:
   726                           	opt stack 0
   727                           
   728                           ; 2 bytes @ 0x6
   729  0000C3                     	ds	1
   730  0000C4                     ??_CDCTxService:
   731  0000C4                     getsUSBUSART@buffer:
   732                           	opt stack 0
   733  0000C4                     I2C_LCD_SetCursor@row_offsets:
   734                           	opt stack 0
   735  0000C4                     I2C_LCD_Puts@ans:
   736                           	opt stack 0
   737                           
   738                           ; 2 bytes @ 0x7
   739  0000C4                     	ds	1
   740  0000C5                     USBDeviceInit@i:
   741                           	opt stack 0
   742  0000C5                     _CDCTxService$1934:
   743                           	opt stack 0
   744  0000C5                     ringbuf_pop@rb:
   745                           	opt stack 0
   746                           
   747                           ; 2 bytes @ 0x8
   748  0000C5                     	ds	1
   749  0000C6                     getsUSBUSART@len:
   750                           	opt stack 0
   751  0000C6                     I2C_LCD_SetCursor@col:
   752                           	opt stack 0
   753                           
   754                           ; 1 bytes @ 0x9
   755  0000C6                     	ds	1
   756  0000C7                     ??_getsUSBUSART:
   757  0000C7                     ??_ringbuf_pop:
   758  0000C7                     CDCTxService@i:
   759                           	opt stack 0
   760                           
   761                           ; 1 bytes @ 0xA
   762  0000C7                     	ds	1
   763  0000C8                     CDCTxService@byte_to_send:
   764                           	opt stack 0
   765  0000C8                     _getsUSBUSART$1886:
   766                           	opt stack 0
   767                           
   768                           ; 2 bytes @ 0xB
   769  0000C8                     	ds	1
   770  0000C9                     ?_put_string_usb:
   771                           	opt stack 0
   772  0000C9                     put_string_usb@s:
   773                           	opt stack 0
   774                           
   775                           ; 2 bytes @ 0xC
   776  0000C9                     	ds	1
   777  0000CA                     ?_get_string_usb:
   778                           	opt stack 0
   779  0000CA                     get_string_usb@s:
   780                           	opt stack 0
   781                           
   782                           ; 2 bytes @ 0xD
   783  0000CA                     	ds	1
   784  0000CB                     ringbuf_pop@ret:
   785                           	opt stack 0
   786  0000CB                     put_string_usb@len:
   787                           	opt stack 0
   788                           
   789                           ; 2 bytes @ 0xE
   790  0000CB                     	ds	1
   791  0000CC                     get_string_usb@len:
   792                           	opt stack 0
   793  0000CC                     ringbuf_put@rb:
   794                           	opt stack 0
   795                           
   796                           ; 2 bytes @ 0xF
   797  0000CC                     	ds	1
   798  0000CD                     
   799                           ; 0 bytes @ 0x10
   800  0000CD                     	ds	1
   801  0000CE                     ??_get_string_usb:
   802  0000CE                     ringbuf_put@asciicode:
   803                           	opt stack 0
   804                           
   805                           ; 1 bytes @ 0x11
   806  0000CE                     	ds	1
   807  0000CF                     ??_ringbuf_put:
   808  0000CF                     get_string_usb@rx_len:
   809                           	opt stack 0
   810                           
   811                           ; 2 bytes @ 0x12
   812  0000CF                     	ds	4
   813  0000D3                     USB_loop@rx_len:
   814                           	opt stack 0
   815                           
   816                           ; 2 bytes @ 0x16
   817  0000D3                     	ds	2
   818  0000D5                     USB_loop@data:
   819                           	opt stack 0
   820                           
   821                           ; 1 bytes @ 0x18
   822  0000D5                     	ds	1
   823  0000D6                     tblptru	equ	0xFF8
   824                           tblptrh	equ	0xFF7
   825                           tblptrl	equ	0xFF6
   826                           tablat	equ	0xFF5
   827                           postinc0	equ	0xFEE
   828                           wreg	equ	0xFE8
   829                           postdec1	equ	0xFE5
   830                           fsr1h	equ	0xFE2
   831                           fsr1l	equ	0xFE1
   832                           
   833                           ; 0 bytes @ 0x19
   834                           
   835                           	psect	cstackCOMRAM
   836  00002D                     __pcstackCOMRAM:
   837                           	opt stack 0
   838  00002D                     ??_USBStdGetDscHandler:
   839  00002D                     ??_USBStdGetStatusHandler:
   840  00002D                     ?i2_USBTransferOnePacket:
   841                           	opt stack 0
   842  00002D                     USBConfigureEndpoint@direction:
   843                           	opt stack 0
   844  00002D                     USBCtrlTrfTxService@byteToSend:
   845                           	opt stack 0
   846  00002D                     USBCtrlTrfRxService@i:
   847                           	opt stack 0
   848  00002D                     i2USBTransferOnePacket@dir:
   849                           	opt stack 0
   850  00002D                     i2memset@p1:
   851                           	opt stack 0
   852                           
   853                           ; 2 bytes @ 0x0
   854  00002D                     	ds	1
   855  00002E                     ??_USBConfigureEndpoint:
   856  00002E                     USBCtrlTrfRxService@byteToRead:
   857                           	opt stack 0
   858  00002E                     USBCtrlTrfInHandler@lastDTS:
   859                           	opt stack 0
   860  00002E                     USBStdGetStatusHandler@p:
   861                           	opt stack 0
   862  00002E                     i2USBTransferOnePacket@data:
   863                           	opt stack 0
   864                           
   865                           ; 2 bytes @ 0x1
   866  00002E                     	ds	1
   867  00002F                     i2memset@c:
   868                           	opt stack 0
   869                           
   870                           ; 2 bytes @ 0x2
   871  00002F                     	ds	1
   872  000030                     i2USBTransferOnePacket@len:
   873                           	opt stack 0
   874                           
   875                           ; 1 bytes @ 0x3
   876  000030                     	ds	1
   877  000031                     i2USBTransferOnePacket@ep:
   878                           	opt stack 0
   879  000031                     i2memset@n:
   880                           	opt stack 0
   881                           
   882                           ; 2 bytes @ 0x4
   883  000031                     	ds	1
   884  000032                     USBConfigureEndpoint@EPNum:
   885                           	opt stack 0
   886  000032                     i2USBTransferOnePacket@handle:
   887                           	opt stack 0
   888                           
   889                           ; 2 bytes @ 0x5
   890  000032                     	ds	1
   891  000033                     USBConfigureEndpoint@handle:
   892                           	opt stack 0
   893  000033                     i2memset@p:
   894                           	opt stack 0
   895                           
   896                           ; 2 bytes @ 0x6
   897  000033                     	ds	2
   898  000035                     USBEnableEndpoint@options:
   899                           	opt stack 0
   900  000035                     i2USBDeviceInit@i:
   901                           	opt stack 0
   902                           
   903                           ; 1 bytes @ 0x8
   904  000035                     	ds	1
   905  000036                     USBEnableEndpoint@p:
   906                           	opt stack 0
   907                           
   908                           ; 2 bytes @ 0x9
   909  000036                     	ds	2
   910  000038                     USBEnableEndpoint@ep:
   911                           	opt stack 0
   912                           
   913                           ; 1 bytes @ 0xB
   914  000038                     	ds	1
   915  000039                     USER_USB_CALLBACK_EVENT_HANDLER@event:
   916                           	opt stack 0
   917                           
   918                           ; 2 bytes @ 0xC
   919  000039                     	ds	2
   920  00003B                     USER_USB_CALLBACK_EVENT_HANDLER@pdata:
   921                           	opt stack 0
   922                           
   923                           ; 2 bytes @ 0xE
   924  00003B                     	ds	2
   925  00003D                     USER_USB_CALLBACK_EVENT_HANDLER@size:
   926                           	opt stack 0
   927                           
   928                           ; 2 bytes @ 0x10
   929  00003D                     	ds	2
   930  00003F                     ??_USER_USB_CALLBACK_EVENT_HANDLER:
   931                           
   932                           ; 0 bytes @ 0x12
   933  00003F                     	ds	2
   934  000041                     ??_USBStdFeatureReqHandler:
   935  000041                     USBStdSetCfgHandler@i:
   936                           	opt stack 0
   937                           
   938                           ; 1 bytes @ 0x14
   939  000041                     	ds	1
   940  000042                     USBStdFeatureReqHandler@pUEP:
   941                           	opt stack 0
   942                           
   943                           ; 2 bytes @ 0x15
   944  000042                     	ds	2
   945  000044                     USBStdFeatureReqHandler@current_ep_data:
   946                           	opt stack 0
   947                           
   948                           ; 1 bytes @ 0x17
   949  000044                     	ds	1
   950  000045                     USBStdFeatureReqHandler@p:
   951                           	opt stack 0
   952                           
   953                           ; 2 bytes @ 0x18
   954  000045                     	ds	2
   955  000047                     ??_USBCtrlEPService:
   956  000047                     
   957                           ; 0 bytes @ 0x1A
   958  000047                     	ds	2
   959  000049                     USBCtrlEPService@setup_cnt:
   960                           	opt stack 0
   961                           
   962                           ; 1 bytes @ 0x1C
   963  000049                     	ds	1
   964  00004A                     USBDeviceTasks@i:
   965                           	opt stack 0
   966                           
   967                           ; 1 bytes @ 0x1D
   968  00004A                     	ds	1
   969  00004B                     ??_ISR:
   970                           
   971                           ; 0 bytes @ 0x1E
   972  00004B                     	ds	14
   973                           tblptru	equ	0xFF8
   974                           tblptrh	equ	0xFF7
   975                           tblptrl	equ	0xFF6
   976                           tablat	equ	0xFF5
   977                           postinc0	equ	0xFEE
   978                           wreg	equ	0xFE8
   979                           postdec1	equ	0xFE5
   980                           fsr1h	equ	0xFE2
   981                           fsr1l	equ	0xFE1
   982                           
   983 ;;
   984 ;;Main: autosize = 0, tempsize = 0, incstack = 0, save=0
   985 ;;
   986 ;; *************** function _main *****************
   987 ;; Defined at:
   988 ;;		line 94 in file "PIC18F27J53-USB05.c"
   989 ;; Parameters:    Size  Location     Type
   990 ;;		None
   991 ;; Auto vars:     Size  Location     Type
   992 ;;		None
   993 ;; Return value:  Size  Location     Type
   994 ;;                  2  891[None  ] int 
   995 ;; Registers used:
   996 ;;		wreg, fsr1l, fsr1h, fsr2l, fsr2h, status,2, status,0, tblptrl, tblptrh, tblptru, prodl, prodh, cstack
   997 ;; Tracked objects:
   998 ;;		On entry : 0/0
   999 ;;		On exit  : 0/0
  1000 ;;		Unchanged: 0/0
  1001 ;; Data sizes:     COMRAM   BANK0   BANK1   BANK2   BANK3   BANK4   BANK5   BANK6   BANK7   BANK8   BANK9  BANK10  BANK1
      +1  BANK12  BANK13  BANK14
  1002 ;;      Params:         0       0       0       0       0       0       0       0       0       0       0       0       
      +0       0       0       0
  1003 ;;      Locals:         0       0       0       0       0       0       0       0       0       0       0       0       
      +0       0       0       0
  1004 ;;      Temps:          0       0       0       0       0       0       0       0       0       0       0       0       
      +0       0       0       0
  1005 ;;      Totals:         0       0       0       0       0       0       0       0       0       0       0       0       
      +0       0       0       0
  1006 ;;Total ram usage:        0 bytes
  1007 ;; Hardware stack levels required when called:   17
  1008 ;; This function calls:
  1009 ;;		_I2C_LCD_Clear
  1010 ;;		_I2C_LCD_Puts
  1011 ;;		_I2C_LCD_SetCursor
  1012 ;;		_USB_loop
  1013 ;;		_main_init
  1014 ;;		_ringbuf_num
  1015 ;;		_ringbuf_pop
  1016 ;;		_ringbuf_put
  1017 ;; This function is called by:
  1018 ;;		Startup code after reset
  1019 ;; This function uses a non-reentrant model
  1020 ;;
  1021                           
  1022                           	psect	text0
  1023  0028AA                     __ptext0:
  1024                           	opt stack 0
  1025  0028AA                     _main:
  1026                           	opt stack 14
  1027                           
  1028                           ;PIC18F27J53-USB05.c: 95: main_init();
  1029                           
  1030                           ; BSR set to: 0
  1031                           ;incstack = 0
  1032  0028AA  EC9F  F014         	call	_main_init	;wreg free
  1033                           
  1034                           ;PIC18F27J53-USB05.c: 97: I2C_LCD_Clear();
  1035  0028AE  EC6A  F018         	call	_I2C_LCD_Clear	;wreg free
  1036                           
  1037                           ;PIC18F27J53-USB05.c: 98: I2C_LCD_SetCursor(0, 0);
  1038  0028B2  0E00               	movlw	0
  1039  0028B4  0100               	movlb	0	; () banked
  1040  0028B6  6FC3               	movwf	I2C_LCD_SetCursor@row& (0+255),b
  1041  0028B8  0E00               	movlw	0
  1042  0028BA  EC00  F018         	call	_I2C_LCD_SetCursor
  1043                           
  1044                           ;PIC18F27J53-USB05.c: 99: I2C_LCD_Puts("18F27J53");
  1045  0028BE  0ECA               	movlw	low STR_1
  1046  0028C0  0100               	movlb	0	; () banked
  1047  0028C2  6FC1               	movwf	I2C_LCD_Puts@s& (0+255),b
  1048  0028C4  0E0F               	movlw	high STR_1
  1049  0028C6  0100               	movlb	0	; () banked
  1050  0028C8  6FC2               	movwf	(I2C_LCD_Puts@s+1)& (0+255),b
  1051  0028CA  EC27  F015         	call	_I2C_LCD_Puts	;wreg free
  1052                           
  1053                           ;PIC18F27J53-USB05.c: 100: I2C_LCD_SetCursor(0, 1);
  1054  0028CE  0E01               	movlw	1
  1055  0028D0  0100               	movlb	0	; () banked
  1056  0028D2  6FC3               	movwf	I2C_LCD_SetCursor@row& (0+255),b
  1057  0028D4  0E00               	movlw	0
  1058  0028D6  EC00  F018         	call	_I2C_LCD_SetCursor
  1059                           
  1060                           ;PIC18F27J53-USB05.c: 101: I2C_LCD_Puts("USB CDC");
  1061  0028DA  0ED3               	movlw	low STR_2
  1062  0028DC  0100               	movlb	0	; () banked
  1063  0028DE  6FC1               	movwf	I2C_LCD_Puts@s& (0+255),b
  1064  0028E0  0E0F               	movlw	high STR_2
  1065  0028E2  0100               	movlb	0	; () banked
  1066  0028E4  6FC2               	movwf	(I2C_LCD_Puts@s+1)& (0+255),b
  1067  0028E6  EC27  F015         	call	_I2C_LCD_Puts	;wreg free
  1068  0028EA  D025               	goto	l5582
  1069  0028EC                     l5572:
  1070                           
  1071                           ;PIC18F27J53-USB05.c: 106: INTCONbits.GIE = 0;
  1072  0028EC  9EF2               	bcf	intcon,7,c	;volatile
  1073                           
  1074                           ;PIC18F27J53-USB05.c: 107: USB_loop();
  1075  0028EE  EC6C  F013         	call	_USB_loop	;wreg free
  1076                           
  1077                           ;PIC18F27J53-USB05.c: 108: if (ringbuf_num(&usb_rx)) {
  1078  0028F2  0EA4               	movlw	low _usb_rx
  1079  0028F4  0100               	movlb	0	; () banked
  1080  0028F6  6FBD               	movwf	ringbuf_num@rb& (0+255),b
  1081  0028F8  0E00               	movlw	high _usb_rx
  1082  0028FA  0100               	movlb	0	; () banked
  1083  0028FC  6FBE               	movwf	(ringbuf_num@rb+1)& (0+255),b
  1084  0028FE  EC1C  F00E         	call	_ringbuf_num	;wreg free
  1085  002902  0100               	movlb	0	; () banked
  1086  002904  51BD               	movf	?_ringbuf_num& (0+255),w,b
  1087  002906  0100               	movlb	0	; () banked
  1088  002908  11BE               	iorwf	(?_ringbuf_num+1)& (0+255),w,b
  1089  00290A  B4D8               	btfsc	status,2,c
  1090  00290C  D014               	goto	l5582
  1091                           
  1092                           ; BSR set to: 0
  1093                           ;PIC18F27J53-USB05.c: 109: ringbuf_put(&usb_tx, ringbuf_pop(&usb_rx));
  1094  00290E  0EAC               	movlw	low _usb_tx
  1095  002910  0100               	movlb	0	; () banked
  1096  002912  6FCC               	movwf	ringbuf_put@rb& (0+255),b
  1097  002914  0E00               	movlw	high _usb_tx
  1098  002916  0100               	movlb	0	; () banked
  1099  002918  6FCD               	movwf	(ringbuf_put@rb+1)& (0+255),b
  1100  00291A  0EA4               	movlw	low _usb_rx
  1101  00291C  0100               	movlb	0	; () banked
  1102  00291E  6FC5               	movwf	ringbuf_pop@rb& (0+255),b
  1103  002920  0E00               	movlw	high _usb_rx
  1104  002922  0100               	movlb	0	; () banked
  1105  002924  6FC6               	movwf	(ringbuf_pop@rb+1)& (0+255),b
  1106  002926  ECBF  F010         	call	_ringbuf_pop	;wreg free
  1107  00292A  0100               	movlb	0	; () banked
  1108  00292C  6FCE               	movwf	ringbuf_put@asciicode& (0+255),b
  1109  00292E  EC54  F010         	call	_ringbuf_put	;wreg free
  1110                           
  1111                           ;PIC18F27J53-USB05.c: 110: LATBbits.LATB7 = !LATBbits.LATB7;
  1112  002932  7E8A               	btg	3978,7,c	;volatile
  1113  002934  D000               	goto	l5582
  1114  002936                     l5582:
  1115                           
  1116                           ;PIC18F27J53-USB05.c: 111: }
  1117                           ;PIC18F27J53-USB05.c: 112: INTCONbits.GIE = 1;
  1118  002936  8EF2               	bsf	intcon,7,c	;volatile
  1119  002938  D7D9               	goto	l5572
  1120                           
  1121                           ;PIC18F27J53-USB05.c: 113: }
  1122                           ;PIC18F27J53-USB05.c: 114: return 0;
  1123                           ;	Return value of _main is never used
  1124  00293A  EF51  F000         	goto	start
  1125  00293E                     __end_of_main:
  1126                           	opt stack 0
  1127                           tblptru	equ	0xFF8
  1128                           tblptrh	equ	0xFF7
  1129                           tblptrl	equ	0xFF6
  1130                           tablat	equ	0xFF5
  1131                           intcon	equ	0xFF2
  1132                           postinc0	equ	0xFEE
  1133                           wreg	equ	0xFE8
  1134                           postdec1	equ	0xFE5
  1135                           fsr1h	equ	0xFE2
  1136                           fsr1l	equ	0xFE1
  1137                           status	equ	0xFD8
  1138                           
  1139 ;; *************** function _main_init *****************
  1140 ;; Defined at:
  1141 ;;		line 72 in file "PIC18F27J53-USB05.c"
  1142 ;; Parameters:    Size  Location     Type
  1143 ;;		None
  1144 ;; Auto vars:     Size  Location     Type
  1145 ;;		None
  1146 ;; Return value:  Size  Location     Type
  1147 ;;		None               void
  1148 ;; Registers used:
  1149 ;;		wreg, fsr2l, fsr2h, status,2, status,0, prodl, prodh, cstack
  1150 ;; Tracked objects:
  1151 ;;		On entry : 0/0
  1152 ;;		On exit  : 0/0
  1153 ;;		Unchanged: 0/0
  1154 ;; Data sizes:     COMRAM   BANK0   BANK1   BANK2   BANK3   BANK4   BANK5   BANK6   BANK7   BANK8   BANK9  BANK10  BANK1
      +1  BANK12  BANK13  BANK14
  1155 ;;      Params:         0       0       0       0       0       0       0       0       0       0       0       0       
      +0       0       0       0
  1156 ;;      Locals:         0       0       0       0       0       0       0       0       0       0       0       0       
      +0       0       0       0
  1157 ;;      Temps:          0       0       0       0       0       0       0       0       0       0       0       0       
      +0       0       0       0
  1158 ;;      Totals:         0       0       0       0       0       0       0       0       0       0       0       0       
      +0       0       0       0
  1159 ;;Total ram usage:        0 bytes
  1160 ;; Hardware stack levels used:    1
  1161 ;; Hardware stack levels required when called:   16
  1162 ;; This function calls:
  1163 ;;		_I2C_LCD_init
  1164 ;;		_I2C_init
  1165 ;;		_OSC_init
  1166 ;;		_USB_init
  1167 ;;		_ringbuf_init
  1168 ;;		_timer0_init
  1169 ;;		_timer1_init
  1170 ;;		_timer3_init
  1171 ;; This function is called by:
  1172 ;;		_main
  1173 ;; This function uses a non-reentrant model
  1174 ;;
  1175                           
  1176                           	psect	text1
  1177  00293E                     __ptext1:
  1178                           	opt stack 0
  1179  00293E                     _main_init:
  1180                           	opt stack 14
  1181                           
  1182                           ;PIC18F27J53-USB05.c: 73: OSC_init();
  1183                           
  1184                           ;incstack = 0
  1185  00293E  EC80  F018         	call	_OSC_init	;wreg free
  1186                           
  1187                           ;PIC18F27J53-USB05.c: 74: TRISA = 0b00010000;
  1188  002942  0E10               	movlw	16
  1189  002944  6E92               	movwf	3986,c	;volatile
  1190                           
  1191                           ;PIC18F27J53-USB05.c: 75: TRISB = 0b00110001;
  1192  002946  0E31               	movlw	49
  1193  002948  6E93               	movwf	3987,c	;volatile
  1194                           
  1195                           ;PIC18F27J53-USB05.c: 76: TRISC = 0b10111010;
  1196  00294A  0EBA               	movlw	186
  1197  00294C  6E94               	movwf	3988,c	;volatile
  1198                           
  1199                           ;PIC18F27J53-USB05.c: 77: ANCON0 = 0b11111111;
  1200  00294E  010F               	movlb	15	; () banked
  1201  002950  6948               	setf	72,b	;volatile
  1202                           
  1203                           ; BSR set to: 15
  1204                           ;PIC18F27J53-USB05.c: 78: ANCON1 = 0b00011111;
  1205  002952  0E1F               	movlw	31
  1206  002954  010F               	movlb	15	; () banked
  1207  002956  6F49               	movwf	73,b	;volatile
  1208                           
  1209                           ; BSR set to: 15
  1210                           ;PIC18F27J53-USB05.c: 79: INTCON2bits.RBPU = 0;
  1211  002958  9EF1               	bcf	intcon2,7,c	;volatile
  1212                           
  1213                           ; BSR set to: 15
  1214                           ;PIC18F27J53-USB05.c: 81: timer0_init(6);
  1215  00295A  0E06               	movlw	6
  1216  00295C  ECFF  F016         	call	_timer0_init
  1217                           
  1218                           ;PIC18F27J53-USB05.c: 82: timer1_init(0, 2);
  1219  002960  0E02               	movlw	2
  1220  002962  0100               	movlb	0	; () banked
  1221  002964  6FBD               	movwf	timer1_init@clock_select& (0+255),b
  1222  002966  0E00               	movlw	0
  1223  002968  EC46  F016         	call	_timer1_init
  1224                           
  1225                           ;PIC18F27J53-USB05.c: 83: timer3_init(2);
  1226  00296C  0E02               	movlw	2
  1227  00296E  ECEA  F017         	call	_timer3_init
  1228                           
  1229                           ;PIC18F27J53-USB05.c: 84: I2C_init();
  1230  002972  EC77  F018         	call	_I2C_init	;wreg free
  1231                           
  1232                           ;PIC18F27J53-USB05.c: 85: I2C_LCD_init();
  1233  002976  ECC5  F015         	call	_I2C_LCD_init	;wreg free
  1234                           
  1235                           ;PIC18F27J53-USB05.c: 87: USB_init();
  1236  00297A  EC87  F018         	call	_USB_init	;wreg free
  1237                           
  1238                           ;PIC18F27J53-USB05.c: 88: static uint8_t usbtx[1000];
  1239                           ;PIC18F27J53-USB05.c: 89: ringbuf_init(&usb_tx, usbtx, sizeof (usbtx));
  1240  00297E  0EAC               	movlw	low _usb_tx
  1241  002980  0100               	movlb	0	; () banked
  1242  002982  6FBD               	movwf	ringbuf_init@rb& (0+255),b
  1243  002984  0E00               	movlw	high _usb_tx
  1244  002986  0100               	movlb	0	; () banked
  1245  002988  6FBE               	movwf	(ringbuf_init@rb+1)& (0+255),b
  1246  00298A  0EE4               	movlw	low main_init@usbtx
  1247  00298C  0100               	movlb	0	; () banked
  1248  00298E  6FBF               	movwf	ringbuf_init@internal_buf& (0+255),b
  1249  002990  0E01               	movlw	high main_init@usbtx
  1250  002992  0100               	movlb	0	; () banked
  1251  002994  6FC0               	movwf	(ringbuf_init@internal_buf+1)& (0+255),b
  1252  002996  0E03               	movlw	3
  1253  002998  0100               	movlb	0	; () banked
  1254  00299A  6FC2               	movwf	(ringbuf_init@bufsize+1)& (0+255),b
  1255  00299C  0EE8               	movlw	232
  1256  00299E  6FC1               	movwf	ringbuf_init@bufsize& (0+255),b
  1257  0029A0  EC1C  F016         	call	_ringbuf_init	;wreg free
  1258                           
  1259                           ;PIC18F27J53-USB05.c: 90: static uint8_t usbrx[100];
  1260                           ;PIC18F27J53-USB05.c: 91: ringbuf_init(&usb_rx, usbrx, sizeof (usbrx));
  1261  0029A4  0EA4               	movlw	low _usb_rx
  1262  0029A6  0100               	movlb	0	; () banked
  1263  0029A8  6FBD               	movwf	ringbuf_init@rb& (0+255),b
  1264  0029AA  0E00               	movlw	high _usb_rx
  1265  0029AC  0100               	movlb	0	; () banked
  1266  0029AE  6FBE               	movwf	(ringbuf_init@rb+1)& (0+255),b
  1267  0029B0  0E00               	movlw	low main_init@usbrx
  1268  0029B2  0100               	movlb	0	; () banked
  1269  0029B4  6FBF               	movwf	ringbuf_init@internal_buf& (0+255),b
  1270  0029B6  0E01               	movlw	high main_init@usbrx
  1271  0029B8  0100               	movlb	0	; () banked
  1272  0029BA  6FC0               	movwf	(ringbuf_init@internal_buf+1)& (0+255),b
  1273  0029BC  0E00               	movlw	0
  1274  0029BE  0100               	movlb	0	; () banked
  1275  0029C0  6FC2               	movwf	(ringbuf_init@bufsize+1)& (0+255),b
  1276  0029C2  0E64               	movlw	100
  1277  0029C4  6FC1               	movwf	ringbuf_init@bufsize& (0+255),b
  1278  0029C6  EC1C  F016         	call	_ringbuf_init	;wreg free
  1279  0029CA  0012               	return		;funcret
  1280  0029CC                     __end_of_main_init:
  1281                           	opt stack 0
  1282                           tblptru	equ	0xFF8
  1283                           tblptrh	equ	0xFF7
  1284                           tblptrl	equ	0xFF6
  1285                           tablat	equ	0xFF5
  1286                           intcon	equ	0xFF2
  1287                           intcon2	equ	0xFF1
  1288                           postinc0	equ	0xFEE
  1289                           wreg	equ	0xFE8
  1290                           postdec1	equ	0xFE5
  1291                           fsr1h	equ	0xFE2
  1292                           fsr1l	equ	0xFE1
  1293                           status	equ	0xFD8
  1294                           
  1295 ;; *************** function _timer3_init *****************
  1296 ;; Defined at:
  1297 ;;		line 85 in file "../My_header\My_header.h"
  1298 ;; Parameters:    Size  Location     Type
  1299 ;;  prescaler       1    wreg     unsigned char 
  1300 ;; Auto vars:     Size  Location     Type
  1301 ;;  prescaler       1    1[BANK0 ] unsigned char 
  1302 ;; Return value:  Size  Location     Type
  1303 ;;		None               void
  1304 ;; Registers used:
  1305 ;;		wreg, status,2, status,0
  1306 ;; Tracked objects:
  1307 ;;		On entry : 0/0
  1308 ;;		On exit  : 0/0
  1309 ;;		Unchanged: 0/0
  1310 ;; Data sizes:     COMRAM   BANK0   BANK1   BANK2   BANK3   BANK4   BANK5   BANK6   BANK7   BANK8   BANK9  BANK10  BANK1
      +1  BANK12  BANK13  BANK14
  1311 ;;      Params:         0       0       0       0       0       0       0       0       0       0       0       0       
      +0       0       0       0
  1312 ;;      Locals:         0       1       0       0       0       0       0       0       0       0       0       0       
      +0       0       0       0
  1313 ;;      Temps:          0       1       0       0       0       0       0       0       0       0       0       0       
      +0       0       0       0
  1314 ;;      Totals:         0       2       0       0       0       0       0       0       0       0       0       0       
      +0       0       0       0
  1315 ;;Total ram usage:        2 bytes
  1316 ;; Hardware stack levels used:    1
  1317 ;; Hardware stack levels required when called:   11
  1318 ;; This function calls:
  1319 ;;		Nothing
  1320 ;; This function is called by:
  1321 ;;		_main_init
  1322 ;; This function uses a non-reentrant model
  1323 ;;
  1324                           
  1325                           	psect	text2
  1326  002FD4                     __ptext2:
  1327                           	opt stack 0
  1328  002FD4                     _timer3_init:
  1329                           	opt stack 18
  1330                           
  1331                           ;incstack = 0
  1332                           ;timer3_init@prescaler stored from wreg
  1333  002FD4  0100               	movlb	0	; () banked
  1334  002FD6  6FBE               	movwf	timer3_init@prescaler& (0+255),b
  1335                           
  1336                           ; BSR set to: 0
  1337                           ;My_header\My_header.h: 86: T3CONbits.TMR3CS = 0;
  1338  002FD8  0E3F               	movlw	-193
  1339  002FDA  1679               	andwf	3961,f,c	;volatile
  1340                           
  1341                           ; BSR set to: 0
  1342                           ;My_header\My_header.h: 87: T3CONbits.T3OSCEN = 0;
  1343  002FDC  9679               	bcf	3961,3,c	;volatile
  1344                           
  1345                           ; BSR set to: 0
  1346                           ;My_header\My_header.h: 88: T3CONbits.T3CKPS = prescaler;
  1347  002FDE  C0BE  F0BD         	movff	timer3_init@prescaler,??_timer3_init
  1348  002FE2  0100               	movlb	0	; () banked
  1349  002FE4  3BBD               	swapf	??_timer3_init& (0+255),f,b
  1350  002FE6  5079               	movf	3961,w,c	;volatile
  1351  002FE8  0100               	movlb	0	; () banked
  1352  002FEA  19BD               	xorwf	??_timer3_init& (0+255),w,b
  1353  002FEC  0BCF               	andlw	-49
  1354  002FEE  19BD               	xorwf	??_timer3_init& (0+255),w,b
  1355  002FF0  6E79               	movwf	3961,c	;volatile
  1356                           
  1357                           ; BSR set to: 0
  1358                           ;My_header\My_header.h: 89: T3CONbits.RD163 = 0;
  1359  002FF2  9E79               	bcf	3961,7,c	;volatile
  1360                           
  1361                           ; BSR set to: 0
  1362                           ;My_header\My_header.h: 90: T3CONbits.TMR3ON = 1;
  1363  002FF4  8079               	bsf	3961,0,c	;volatile
  1364                           
  1365                           ; BSR set to: 0
  1366                           ;My_header\My_header.h: 91: IPR2bits.TMR3IP = 0;
  1367  002FF6  92A2               	bcf	4002,1,c	;volatile
  1368                           
  1369                           ; BSR set to: 0
  1370                           ;My_header\My_header.h: 92: PIR2bits.TMR3IF = 0;
  1371  002FF8  92A1               	bcf	4001,1,c	;volatile
  1372                           
  1373                           ; BSR set to: 0
  1374                           ;My_header\My_header.h: 93: PIE2bits.TMR3IE = 1;
  1375  002FFA  82A0               	bsf	4000,1,c	;volatile
  1376                           
  1377                           ; BSR set to: 0
  1378                           ;My_header\My_header.h: 94: INTCONbits.PEIE = 1;
  1379  002FFC  8CF2               	bsf	intcon,6,c	;volatile
  1380                           
  1381                           ; BSR set to: 0
  1382  002FFE  0012               	return		;funcret
  1383  003000                     __end_of_timer3_init:
  1384                           	opt stack 0
  1385                           tblptru	equ	0xFF8
  1386                           tblptrh	equ	0xFF7
  1387                           tblptrl	equ	0xFF6
  1388                           tablat	equ	0xFF5
  1389                           intcon	equ	0xFF2
  1390                           intcon2	equ	0xFF1
  1391                           postinc0	equ	0xFEE
  1392                           wreg	equ	0xFE8
  1393                           postdec1	equ	0xFE5
  1394                           fsr1h	equ	0xFE2
  1395                           fsr1l	equ	0xFE1
  1396                           status	equ	0xFD8
  1397                           
  1398 ;; *************** function _timer1_init *****************
  1399 ;; Defined at:
  1400 ;;		line 54 in file "../My_header\My_header.h"
  1401 ;; Parameters:    Size  Location     Type
  1402 ;;  prescaler       1    wreg     unsigned char 
  1403 ;;  clock_select    1    0[BANK0 ] unsigned char 
  1404 ;; Auto vars:     Size  Location     Type
  1405 ;;  prescaler       1    2[BANK0 ] unsigned char 
  1406 ;; Return value:  Size  Location     Type
  1407 ;;		None               void
  1408 ;; Registers used:
  1409 ;;		wreg, status,2, status,0
  1410 ;; Tracked objects:
  1411 ;;		On entry : 0/0
  1412 ;;		On exit  : 0/0
  1413 ;;		Unchanged: 0/0
  1414 ;; Data sizes:     COMRAM   BANK0   BANK1   BANK2   BANK3   BANK4   BANK5   BANK6   BANK7   BANK8   BANK9  BANK10  BANK1
      +1  BANK12  BANK13  BANK14
  1415 ;;      Params:         0       1       0       0       0       0       0       0       0       0       0       0       
      +0       0       0       0
  1416 ;;      Locals:         0       1       0       0       0       0       0       0       0       0       0       0       
      +0       0       0       0
  1417 ;;      Temps:          0       1       0       0       0       0       0       0       0       0       0       0       
      +0       0       0       0
  1418 ;;      Totals:         0       3       0       0       0       0       0       0       0       0       0       0       
      +0       0       0       0
  1419 ;;Total ram usage:        3 bytes
  1420 ;; Hardware stack levels used:    1
  1421 ;; Hardware stack levels required when called:   11
  1422 ;; This function calls:
  1423 ;;		Nothing
  1424 ;; This function is called by:
  1425 ;;		_main_init
  1426 ;; This function uses a non-reentrant model
  1427 ;;
  1428                           
  1429                           	psect	text3
  1430  002C8C                     __ptext3:
  1431                           	opt stack 0
  1432  002C8C                     _timer1_init:
  1433                           	opt stack 18
  1434                           
  1435                           ; BSR set to: 0
  1436                           ;incstack = 0
  1437                           ;timer1_init@prescaler stored from wreg
  1438  002C8C  0100               	movlb	0	; () banked
  1439  002C8E  6FBF               	movwf	timer1_init@prescaler& (0+255),b
  1440                           
  1441                           ; BSR set to: 0
  1442                           ;My_header\My_header.h: 55: T1CONbits.TMR1CS = clock_select;
  1443  002C90  C0BD  F0BE         	movff	timer1_init@clock_select,??_timer1_init
  1444  002C94  0100               	movlb	0	; () banked
  1445  002C96  3BBE               	swapf	??_timer1_init& (0+255),f,b
  1446  002C98  47BE               	rlncf	??_timer1_init& (0+255),f,b
  1447  002C9A  47BE               	rlncf	??_timer1_init& (0+255),f,b
  1448  002C9C  50CD               	movf	4045,w,c	;volatile
  1449  002C9E  0100               	movlb	0	; () banked
  1450  002CA0  19BE               	xorwf	??_timer1_init& (0+255),w,b
  1451  002CA2  0B3F               	andlw	-193
  1452  002CA4  19BE               	xorwf	??_timer1_init& (0+255),w,b
  1453  002CA6  6ECD               	movwf	4045,c	;volatile
  1454                           
  1455                           ;My_header\My_header.h: 56: if (clock_select == 2) T1CONbits.T1OSCEN = 1;
  1456  002CA8  0E02               	movlw	2
  1457  002CAA  0100               	movlb	0	; () banked
  1458  002CAC  19BD               	xorwf	timer1_init@clock_select& (0+255),w,b
  1459  002CAE  A4D8               	btfss	status,2,c
  1460  002CB0  D002               	goto	l686
  1461                           
  1462                           ; BSR set to: 0
  1463  002CB2  86CD               	bsf	4045,3,c	;volatile
  1464  002CB4  D002               	goto	l5266
  1465  002CB6                     l686:
  1466                           
  1467                           ; BSR set to: 0
  1468                           ;My_header\My_header.h: 57: else T1CONbits.T1OSCEN = 0;
  1469  002CB6  96CD               	bcf	4045,3,c	;volatile
  1470  002CB8  D000               	goto	l5266
  1471  002CBA                     l5266:
  1472                           
  1473                           ; BSR set to: 0
  1474                           ;My_header\My_header.h: 58: T1CONbits.T1CKPS = prescaler;
  1475  002CBA  C0BF  F0BE         	movff	timer1_init@prescaler,??_timer1_init
  1476  002CBE  0100               	movlb	0	; () banked
  1477  002CC0  3BBE               	swapf	??_timer1_init& (0+255),f,b
  1478  002CC2  50CD               	movf	4045,w,c	;volatile
  1479  002CC4  0100               	movlb	0	; () banked
  1480  002CC6  19BE               	xorwf	??_timer1_init& (0+255),w,b
  1481  002CC8  0BCF               	andlw	-49
  1482  002CCA  19BE               	xorwf	??_timer1_init& (0+255),w,b
  1483  002CCC  6ECD               	movwf	4045,c	;volatile
  1484                           
  1485                           ; BSR set to: 0
  1486                           ;My_header\My_header.h: 59: T1CONbits.nT1SYNC = 1;
  1487  002CCE  84CD               	bsf	4045,2,c	;volatile
  1488                           
  1489                           ; BSR set to: 0
  1490                           ;My_header\My_header.h: 60: T1CONbits.RD16 = 0;
  1491  002CD0  92CD               	bcf	4045,1,c	;volatile
  1492                           
  1493                           ; BSR set to: 0
  1494                           ;My_header\My_header.h: 61: T1CONbits.TMR1ON = 1;
  1495  002CD2  80CD               	bsf	4045,0,c	;volatile
  1496                           
  1497                           ; BSR set to: 0
  1498                           ;My_header\My_header.h: 62: IPR1bits.TMR1IP = 0;
  1499  002CD4  909F               	bcf	3999,0,c	;volatile
  1500                           
  1501                           ; BSR set to: 0
  1502                           ;My_header\My_header.h: 63: PIR1bits.TMR1IF = 0;
  1503  002CD6  909E               	bcf	3998,0,c	;volatile
  1504                           
  1505                           ; BSR set to: 0
  1506                           ;My_header\My_header.h: 64: PIE1bits.TMR1IE = 1;
  1507  002CD8  809D               	bsf	3997,0,c	;volatile
  1508                           
  1509                           ; BSR set to: 0
  1510                           ;My_header\My_header.h: 65: INTCONbits.PEIE = 1;
  1511  002CDA  8CF2               	bsf	intcon,6,c	;volatile
  1512                           
  1513                           ; BSR set to: 0
  1514  002CDC  0012               	return		;funcret
  1515  002CDE                     __end_of_timer1_init:
  1516                           	opt stack 0
  1517                           tblptru	equ	0xFF8
  1518                           tblptrh	equ	0xFF7
  1519                           tblptrl	equ	0xFF6
  1520                           tablat	equ	0xFF5
  1521                           intcon	equ	0xFF2
  1522                           intcon2	equ	0xFF1
  1523                           postinc0	equ	0xFEE
  1524                           wreg	equ	0xFE8
  1525                           postdec1	equ	0xFE5
  1526                           fsr1h	equ	0xFE2
  1527                           fsr1l	equ	0xFE1
  1528                           status	equ	0xFD8
  1529                           
  1530 ;; *************** function _timer0_init *****************
  1531 ;; Defined at:
  1532 ;;		line 15 in file "../My_header\My_header.h"
  1533 ;; Parameters:    Size  Location     Type
  1534 ;;  prescaler       1    wreg     unsigned char 
  1535 ;; Auto vars:     Size  Location     Type
  1536 ;;  prescaler       1    1[BANK0 ] unsigned char 
  1537 ;; Return value:  Size  Location     Type
  1538 ;;		None               void
  1539 ;; Registers used:
  1540 ;;		wreg, status,2, status,0
  1541 ;; Tracked objects:
  1542 ;;		On entry : 0/0
  1543 ;;		On exit  : 0/0
  1544 ;;		Unchanged: 0/0
  1545 ;; Data sizes:     COMRAM   BANK0   BANK1   BANK2   BANK3   BANK4   BANK5   BANK6   BANK7   BANK8   BANK9  BANK10  BANK1
      +1  BANK12  BANK13  BANK14
  1546 ;;      Params:         0       0       0       0       0       0       0       0       0       0       0       0       
      +0       0       0       0
  1547 ;;      Locals:         0       1       0       0       0       0       0       0       0       0       0       0       
      +0       0       0       0
  1548 ;;      Temps:          0       1       0       0       0       0       0       0       0       0       0       0       
      +0       0       0       0
  1549 ;;      Totals:         0       2       0       0       0       0       0       0       0       0       0       0       
      +0       0       0       0
  1550 ;;Total ram usage:        2 bytes
  1551 ;; Hardware stack levels used:    1
  1552 ;; Hardware stack levels required when called:   11
  1553 ;; This function calls:
  1554 ;;		Nothing
  1555 ;; This function is called by:
  1556 ;;		_main_init
  1557 ;; This function uses a non-reentrant model
  1558 ;;
  1559                           
  1560                           	psect	text4
  1561  002DFE                     __ptext4:
  1562                           	opt stack 0
  1563  002DFE                     _timer0_init:
  1564                           	opt stack 18
  1565                           
  1566                           ; BSR set to: 0
  1567                           ;incstack = 0
  1568                           ;timer0_init@prescaler stored from wreg
  1569  002DFE  0100               	movlb	0	; () banked
  1570  002E00  6FBE               	movwf	timer0_init@prescaler& (0+255),b
  1571                           
  1572                           ; BSR set to: 0
  1573                           ;My_header\My_header.h: 16: T0CONbits.TMR0ON = 1;
  1574  002E02  8ED5               	bsf	4053,7,c	;volatile
  1575                           
  1576                           ;My_header\My_header.h: 17: T0CONbits.T08BIT = 1;
  1577  002E04  8CD5               	bsf	4053,6,c	;volatile
  1578                           
  1579                           ;My_header\My_header.h: 18: T0CONbits.T0CS = 0;
  1580  002E06  9AD5               	bcf	4053,5,c	;volatile
  1581                           
  1582                           ; BSR set to: 0
  1583                           ;My_header\My_header.h: 19: if (prescaler == 0) {
  1584  002E08  0100               	movlb	0	; () banked
  1585  002E0A  51BE               	movf	timer0_init@prescaler& (0+255),w,b
  1586  002E0C  0100               	movlb	0	; () banked
  1587  002E0E  A4D8               	btfss	status,2,c
  1588  002E10  D002               	goto	l681
  1589                           
  1590                           ; BSR set to: 0
  1591                           ;My_header\My_header.h: 20: T0CONbits.PSA = 1;
  1592  002E12  86D5               	bsf	4053,3,c	;volatile
  1593                           
  1594                           ;My_header\My_header.h: 21: } else {
  1595  002E14  D00D               	goto	l5254
  1596  002E16                     l681:
  1597                           
  1598                           ; BSR set to: 0
  1599                           ;My_header\My_header.h: 22: T0CONbits.PSA = 0;
  1600  002E16  96D5               	bcf	4053,3,c	;volatile
  1601                           
  1602                           ; BSR set to: 0
  1603                           ;My_header\My_header.h: 23: T0CONbits.T0PS = prescaler - 1;
  1604  002E18  C0BE  F0BD         	movff	timer0_init@prescaler,??_timer0_init
  1605  002E1C  0EFF               	movlw	255
  1606  002E1E  0100               	movlb	0	; () banked
  1607  002E20  27BD               	addwf	??_timer0_init& (0+255),f,b
  1608  002E22  50D5               	movf	4053,w,c	;volatile
  1609  002E24  0100               	movlb	0	; () banked
  1610  002E26  19BD               	xorwf	??_timer0_init& (0+255),w,b
  1611  002E28  0BF8               	andlw	-8
  1612  002E2A  19BD               	xorwf	??_timer0_init& (0+255),w,b
  1613  002E2C  6ED5               	movwf	4053,c	;volatile
  1614  002E2E  D000               	goto	l5254
  1615  002E30                     l5254:
  1616                           
  1617                           ; BSR set to: 0
  1618                           ;My_header\My_header.h: 24: }
  1619                           ;My_header\My_header.h: 25: INTCONbits.T0IE = 1;
  1620  002E30  8AF2               	bsf	intcon,5,c	;volatile
  1621                           
  1622                           ; BSR set to: 0
  1623                           ;My_header\My_header.h: 26: INTCONbits.TMR0IF = 0;
  1624  002E32  94F2               	bcf	intcon,2,c	;volatile
  1625                           
  1626                           ; BSR set to: 0
  1627                           ;My_header\My_header.h: 27: INTCON2bits.TMR0IP = 0;
  1628  002E34  94F1               	bcf	intcon2,2,c	;volatile
  1629                           
  1630                           ; BSR set to: 0
  1631                           ;My_header\My_header.h: 28: INTCONbits.PEIE = 1;
  1632  002E36  8CF2               	bsf	intcon,6,c	;volatile
  1633                           
  1634                           ; BSR set to: 0
  1635  002E38  0012               	return		;funcret
  1636  002E3A                     __end_of_timer0_init:
  1637                           	opt stack 0
  1638                           tblptru	equ	0xFF8
  1639                           tblptrh	equ	0xFF7
  1640                           tblptrl	equ	0xFF6
  1641                           tablat	equ	0xFF5
  1642                           intcon	equ	0xFF2
  1643                           intcon2	equ	0xFF1
  1644                           postinc0	equ	0xFEE
  1645                           wreg	equ	0xFE8
  1646                           postdec1	equ	0xFE5
  1647                           fsr1h	equ	0xFE2
  1648                           fsr1l	equ	0xFE1
  1649                           status	equ	0xFD8
  1650                           
  1651 ;; *************** function _ringbuf_init *****************
  1652 ;; Defined at:
  1653 ;;		line 24 in file "../My_header\My_ringbuf.h"
  1654 ;; Parameters:    Size  Location     Type
  1655 ;;  rb              2    0[BANK0 ] PTR struct ringbuf
  1656 ;;		 -> usb_tx(8), usb_rx(8), 
  1657 ;;  internal_buf    2    2[BANK0 ] PTR unsigned char 
  1658 ;;		 -> main_init@usbrx(100), main_init@usbtx(1000), 
  1659 ;;  bufsize         2    4[BANK0 ] unsigned int 
  1660 ;; Auto vars:     Size  Location     Type
  1661 ;;		None
  1662 ;; Return value:  Size  Location     Type
  1663 ;;		None               void
  1664 ;; Registers used:
  1665 ;;		wreg, fsr2l, fsr2h, status,2, status,0
  1666 ;; Tracked objects:
  1667 ;;		On entry : 0/0
  1668 ;;		On exit  : 0/0
  1669 ;;		Unchanged: 0/0
  1670 ;; Data sizes:     COMRAM   BANK0   BANK1   BANK2   BANK3   BANK4   BANK5   BANK6   BANK7   BANK8   BANK9  BANK10  BANK1
      +1  BANK12  BANK13  BANK14
  1671 ;;      Params:         0       6       0       0       0       0       0       0       0       0       0       0       
      +0       0       0       0
  1672 ;;      Locals:         0       0       0       0       0       0       0       0       0       0       0       0       
      +0       0       0       0
  1673 ;;      Temps:          0       0       0       0       0       0       0       0       0       0       0       0       
      +0       0       0       0
  1674 ;;      Totals:         0       6       0       0       0       0       0       0       0       0       0       0       
      +0       0       0       0
  1675 ;;Total ram usage:        6 bytes
  1676 ;; Hardware stack levels used:    1
  1677 ;; Hardware stack levels required when called:   11
  1678 ;; This function calls:
  1679 ;;		Nothing
  1680 ;; This function is called by:
  1681 ;;		_main_init
  1682 ;; This function uses a non-reentrant model
  1683 ;;
  1684                           
  1685                           	psect	text5
  1686  002C38                     __ptext5:
  1687                           	opt stack 0
  1688  002C38                     _ringbuf_init:
  1689                           	opt stack 18
  1690                           
  1691                           ;My_header\My_ringbuf.h: 25: rb->buf = internal_buf;
  1692                           
  1693                           ; BSR set to: 0
  1694                           ;incstack = 0
  1695  002C38  C0BD  FFD9         	movff	ringbuf_init@rb,fsr2l
  1696  002C3C  C0BE  FFDA         	movff	ringbuf_init@rb+1,fsr2h
  1697  002C40  C0BF  FFDE         	movff	ringbuf_init@internal_buf,postinc2
  1698  002C44  C0C0  FFDD         	movff	ringbuf_init@internal_buf+1,postdec2
  1699                           
  1700                           ;My_header\My_ringbuf.h: 26: rb->size = bufsize;
  1701  002C48  0100               	movlb	0	; () banked
  1702  002C4A  EE20 F002          	lfsr	2,2
  1703  002C4E  51BD               	movf	ringbuf_init@rb& (0+255),w,b
  1704  002C50  26D9               	addwf	fsr2l,f,c
  1705  002C52  51BE               	movf	(ringbuf_init@rb+1)& (0+255),w,b
  1706  002C54  22DA               	addwfc	fsr2h,f,c
  1707  002C56  C0C1  FFDE         	movff	ringbuf_init@bufsize,postinc2
  1708  002C5A  C0C2  FFDD         	movff	ringbuf_init@bufsize+1,postdec2
  1709                           
  1710                           ; BSR set to: 0
  1711                           ;My_header\My_ringbuf.h: 27: rb->head = 0;
  1712  002C5E  0100               	movlb	0	; () banked
  1713  002C60  EE20 F004          	lfsr	2,4
  1714  002C64  51BD               	movf	ringbuf_init@rb& (0+255),w,b
  1715  002C66  26D9               	addwf	fsr2l,f,c
  1716  002C68  51BE               	movf	(ringbuf_init@rb+1)& (0+255),w,b
  1717  002C6A  22DA               	addwfc	fsr2h,f,c
  1718  002C6C  0E00               	movlw	0
  1719  002C6E  6EDE               	movwf	postinc2,c
  1720  002C70  0E00               	movlw	0
  1721  002C72  6EDD               	movwf	postdec2,c
  1722                           
  1723                           ; BSR set to: 0
  1724                           ;My_header\My_ringbuf.h: 28: rb->tail = 0;
  1725  002C74  0100               	movlb	0	; () banked
  1726  002C76  EE20 F006          	lfsr	2,6
  1727  002C7A  51BD               	movf	ringbuf_init@rb& (0+255),w,b
  1728  002C7C  26D9               	addwf	fsr2l,f,c
  1729  002C7E  51BE               	movf	(ringbuf_init@rb+1)& (0+255),w,b
  1730  002C80  22DA               	addwfc	fsr2h,f,c
  1731  002C82  0E00               	movlw	0
  1732  002C84  6EDE               	movwf	postinc2,c
  1733  002C86  0E00               	movlw	0
  1734  002C88  6EDD               	movwf	postdec2,c
  1735                           
  1736                           ; BSR set to: 0
  1737  002C8A  0012               	return		;funcret
  1738  002C8C                     __end_of_ringbuf_init:
  1739                           	opt stack 0
  1740                           tblptru	equ	0xFF8
  1741                           tblptrh	equ	0xFF7
  1742                           tblptrl	equ	0xFF6
  1743                           tablat	equ	0xFF5
  1744                           intcon	equ	0xFF2
  1745                           intcon2	equ	0xFF1
  1746                           postinc0	equ	0xFEE
  1747                           wreg	equ	0xFE8
  1748                           postdec1	equ	0xFE5
  1749                           fsr1h	equ	0xFE2
  1750                           fsr1l	equ	0xFE1
  1751                           postinc2	equ	0xFDE
  1752                           postdec2	equ	0xFDD
  1753                           fsr2h	equ	0xFDA
  1754                           fsr2l	equ	0xFD9
  1755                           status	equ	0xFD8
  1756                           
  1757 ;; *************** function _USB_init *****************
  1758 ;; Defined at:
  1759 ;;		line 7 in file "../My_header/usb_cdc/my_usb_cdc.c"
  1760 ;; Parameters:    Size  Location     Type
  1761 ;;		None
  1762 ;; Auto vars:     Size  Location     Type
  1763 ;;		None
  1764 ;; Return value:  Size  Location     Type
  1765 ;;		None               void
  1766 ;; Registers used:
  1767 ;;		wreg, fsr2l, fsr2h, status,2, status,0, prodl, prodh, cstack
  1768 ;; Tracked objects:
  1769 ;;		On entry : 0/0
  1770 ;;		On exit  : 0/0
  1771 ;;		Unchanged: 0/0
  1772 ;; Data sizes:     COMRAM   BANK0   BANK1   BANK2   BANK3   BANK4   BANK5   BANK6   BANK7   BANK8   BANK9  BANK10  BANK1
      +1  BANK12  BANK13  BANK14
  1773 ;;      Params:         0       0       0       0       0       0       0       0       0       0       0       0       
      +0       0       0       0
  1774 ;;      Locals:         0       0       0       0       0       0       0       0       0       0       0       0       
      +0       0       0       0
  1775 ;;      Temps:          0       0       0       0       0       0       0       0       0       0       0       0       
      +0       0       0       0
  1776 ;;      Totals:         0       0       0       0       0       0       0       0       0       0       0       0       
      +0       0       0       0
  1777 ;;Total ram usage:        0 bytes
  1778 ;; Hardware stack levels used:    1
  1779 ;; Hardware stack levels required when called:   13
  1780 ;; This function calls:
  1781 ;;		_USBDeviceAttach
  1782 ;;		_USBDeviceInit
  1783 ;; This function is called by:
  1784 ;;		_main_init
  1785 ;; This function uses a non-reentrant model
  1786 ;;
  1787                           
  1788                           	psect	text6
  1789  00310E                     __ptext6:
  1790                           	opt stack 0
  1791  00310E                     _USB_init:
  1792                           	opt stack 16
  1793                           
  1794                           ;my_usb_cdc.c: 8: USBDeviceInit();
  1795                           
  1796                           ; BSR set to: 0
  1797                           ;incstack = 0
  1798  00310E  ECB7  F00A         	call	_USBDeviceInit	;wreg free
  1799                           
  1800                           ;my_usb_cdc.c: 9: USBDeviceAttach();
  1801  003112  EC1D  F017         	call	_USBDeviceAttach	;wreg free
  1802  003116  0012               	return		;funcret
  1803  003118                     __end_of_USB_init:
  1804                           	opt stack 0
  1805                           tblptru	equ	0xFF8
  1806                           tblptrh	equ	0xFF7
  1807                           tblptrl	equ	0xFF6
  1808                           tablat	equ	0xFF5
  1809                           intcon	equ	0xFF2
  1810                           intcon2	equ	0xFF1
  1811                           postinc0	equ	0xFEE
  1812                           wreg	equ	0xFE8
  1813                           postdec1	equ	0xFE5
  1814                           fsr1h	equ	0xFE2
  1815                           fsr1l	equ	0xFE1
  1816                           postinc2	equ	0xFDE
  1817                           postdec2	equ	0xFDD
  1818                           fsr2h	equ	0xFDA
  1819                           fsr2l	equ	0xFD9
  1820                           status	equ	0xFD8
  1821                           
  1822 ;; *************** function _USBDeviceInit *****************
  1823 ;; Defined at:
  1824 ;;		line 298 in file "../My_header/usb_cdc/usb/usb_device.c"
  1825 ;; Parameters:    Size  Location     Type
  1826 ;;		None
  1827 ;; Auto vars:     Size  Location     Type
  1828 ;;  i               1    8[BANK0 ] unsigned char 
  1829 ;; Return value:  Size  Location     Type
  1830 ;;		None               void
  1831 ;; Registers used:
  1832 ;;		wreg, fsr2l, fsr2h, status,2, status,0, prodl, prodh, cstack
  1833 ;; Tracked objects:
  1834 ;;		On entry : 0/0
  1835 ;;		On exit  : 0/0
  1836 ;;		Unchanged: 0/0
  1837 ;; Data sizes:     COMRAM   BANK0   BANK1   BANK2   BANK3   BANK4   BANK5   BANK6   BANK7   BANK8   BANK9  BANK10  BANK1
      +1  BANK12  BANK13  BANK14
  1838 ;;      Params:         0       0       0       0       0       0       0       0       0       0       0       0       
      +0       0       0       0
  1839 ;;      Locals:         0       1       0       0       0       0       0       0       0       0       0       0       
      +0       0       0       0
  1840 ;;      Temps:          0       0       0       0       0       0       0       0       0       0       0       0       
      +0       0       0       0
  1841 ;;      Totals:         0       1       0       0       0       0       0       0       0       0       0       0       
      +0       0       0       0
  1842 ;;Total ram usage:        1 bytes
  1843 ;; Hardware stack levels used:    1
  1844 ;; Hardware stack levels required when called:   12
  1845 ;; This function calls:
  1846 ;;		_memset
  1847 ;; This function is called by:
  1848 ;;		_USB_init
  1849 ;; This function uses a non-reentrant model
  1850 ;;
  1851                           
  1852                           	psect	text7
  1853  00156E                     __ptext7:
  1854                           	opt stack 0
  1855  00156E                     _USBDeviceInit:
  1856                           	opt stack 16
  1857                           
  1858                           ;usb_device.c: 300: uint8_t i;
  1859                           ;usb_device.c: 302: {PIE2bits.USBIE = 0;};
  1860                           
  1861                           ;incstack = 0
  1862  00156E  98A0               	bcf	4000,4,c	;volatile
  1863                           
  1864                           ;usb_device.c: 305: {UEIR = 0;};
  1865  001570  0E00               	movlw	0
  1866  001572  6E63               	movwf	3939,c	;volatile
  1867                           
  1868                           ;usb_device.c: 308: {UIR = 0;};
  1869  001574  0E00               	movlw	0
  1870  001576  6E62               	movwf	3938,c	;volatile
  1871                           
  1872                           ;usb_device.c: 311: UEP0 = 0;
  1873  001578  0E00               	movlw	0
  1874  00157A  010F               	movlb	15	; () banked
  1875  00157C  6F26               	movwf	38,b	;volatile
  1876                           
  1877                           ; BSR set to: 15
  1878                           ;usb_device.c: 313: memset((void*)&UEP1,0x00,(2));;
  1879  00157E  0E27               	movlw	39
  1880  001580  0100               	movlb	0	; () banked
  1881  001582  6FBD               	movwf	memset@p1& (0+255),b
  1882  001584  0E0F               	movlw	15
  1883  001586  0100               	movlb	0	; () banked
  1884  001588  6FBE               	movwf	(memset@p1+1)& (0+255),b
  1885  00158A  0E00               	movlw	0
  1886  00158C  0100               	movlb	0	; () banked
  1887  00158E  6FC0               	movwf	(memset@c+1)& (0+255),b
  1888  001590  0E00               	movlw	0
  1889  001592  6FBF               	movwf	memset@c& (0+255),b
  1890  001594  0E00               	movlw	0
  1891  001596  0100               	movlb	0	; () banked
  1892  001598  6FC2               	movwf	(memset@n+1)& (0+255),b
  1893  00159A  0E02               	movlw	2
  1894  00159C  6FC1               	movwf	memset@n& (0+255),b
  1895  00159E  EC56  F017         	call	_memset	;wreg free
  1896                           
  1897                           ;usb_device.c: 315: { UCFG = 0x10 | 0x00 | 0x04 | 0x02; UEIE = 0x9F; UIE = 0x39 | 0x40 |
      +                           0x02; };
  1898  0015A2  0E16               	movlw	22
  1899  0015A4  010F               	movlb	15	; () banked
  1900  0015A6  6F39               	movwf	57,b	;volatile
  1901                           
  1902                           ; BSR set to: 15
  1903  0015A8  0E9F               	movlw	159
  1904  0015AA  010F               	movlb	15	; () banked
  1905  0015AC  6F37               	movwf	55,b	;volatile
  1906                           
  1907                           ; BSR set to: 15
  1908  0015AE  0E7B               	movlw	123
  1909  0015B0  010F               	movlb	15	; () banked
  1910  0015B2  6F36               	movwf	54,b	;volatile
  1911                           
  1912                           ; BSR set to: 15
  1913                           ;usb_device.c: 318: ;
  1914                           ;usb_device.c: 321: ;
  1915                           ;usb_device.c: 324: for(i=0;i<(sizeof(BDT)/sizeof(BDT_ENTRY));i++)
  1916  0015B4  0E00               	movlw	0
  1917  0015B6  0100               	movlb	0	; () banked
  1918  0015B8  6FC5               	movwf	USBDeviceInit@i& (0+255),b
  1919  0015BA  D010               	goto	l5004
  1920                           
  1921                           ; BSR set to: 0
  1922                           
  1923                           ; BSR set to: 0
  1924  0015BC  D013               	goto	l132
  1925  0015BE                     l5000:
  1926                           
  1927                           ; BSR set to: 0
  1928                           ;usb_device.c: 325: {
  1929                           ;usb_device.c: 326: BDT[i].Val = 0x00;
  1930  0015BE  0100               	movlb	0	; () banked
  1931  0015C0  51C5               	movf	USBDeviceInit@i& (0+255),w,b
  1932  0015C2  0D04               	mullw	4
  1933  0015C4  0E00               	movlw	0
  1934  0015C6  24F3               	addwf	prodl,w,c
  1935  0015C8  6ED9               	movwf	fsr2l,c
  1936  0015CA  0E0D               	movlw	13
  1937  0015CC  20F4               	addwfc	prodh,w,c
  1938  0015CE  6EDA               	movwf	fsr2h,c
  1939  0015D0  6ADE               	clrf	postinc2,c
  1940  0015D2  6ADE               	clrf	postinc2,c
  1941  0015D4  6ADE               	clrf	postinc2,c
  1942  0015D6  6ADD               	clrf	postdec2,c
  1943                           
  1944                           ; BSR set to: 0
  1945  0015D8  0100               	movlb	0	; () banked
  1946  0015DA  2BC5               	incf	USBDeviceInit@i& (0+255),f,b
  1947  0015DC                     l5004:
  1948                           
  1949                           ; BSR set to: 0
  1950  0015DC  0E0B               	movlw	11
  1951  0015DE  0100               	movlb	0	; () banked
  1952  0015E0  65C5               	cpfsgt	USBDeviceInit@i& (0+255),b
  1953  0015E2  D7ED               	goto	l5000
  1954  0015E4                     l132:
  1955                           
  1956                           ; BSR set to: 0
  1957                           ;usb_device.c: 327: }
  1958                           ;usb_device.c: 330: UCONbits.PPBRST = 1;
  1959  0015E4  8C65               	bsf	3941,6,c	;volatile
  1960                           
  1961                           ; BSR set to: 0
  1962                           ;usb_device.c: 333: UADDR = 0x00;
  1963  0015E6  0E00               	movlw	0
  1964  0015E8  010F               	movlb	15	; () banked
  1965  0015EA  6F38               	movwf	56,b	;volatile
  1966                           
  1967                           ; BSR set to: 15
  1968                           ;usb_device.c: 336: UCONbits.PKTDIS = 0;
  1969  0015EC  9865               	bcf	3941,4,c	;volatile
  1970                           
  1971                           ; BSR set to: 15
  1972                           ;usb_device.c: 339: UCONbits.PPBRST = 0;
  1973  0015EE  9C65               	bcf	3941,6,c	;volatile
  1974                           
  1975                           ;usb_device.c: 342: while(UIRbits.TRNIF == 1)
  1976  0015F0  D00A               	goto	l5020
  1977  0015F2                     l5012:
  1978                           
  1979                           ;usb_device.c: 343: {
  1980                           ;usb_device.c: 344: (UIR &= 0xF7);
  1981  0015F2  9662               	bcf	3938,3,c	;volatile
  1982                           
  1983                           ;usb_device.c: 346: inPipes[0].info.Val = 0;
  1984  0015F4  0E00               	movlw	0
  1985  0015F6  6E28               	movwf	_inPipes+3,c	;volatile
  1986                           
  1987                           ;usb_device.c: 347: outPipes[0].info.Val = 0;
  1988  0015F8  0E00               	movlw	0
  1989  0015FA  6E04               	movwf	_outPipes+3,c	;volatile
  1990                           
  1991                           ;usb_device.c: 348: outPipes[0].wCount.Val = 0;
  1992  0015FC  0E00               	movlw	0
  1993  0015FE  6E06               	movwf	_outPipes+5,c	;volatile
  1994  001600  0E00               	movlw	0
  1995  001602  6E05               	movwf	_outPipes+4,c	;volatile
  1996  001604  D000               	goto	l5020
  1997  001606                     l5020:
  1998  001606  B662               	btfsc	3938,3,c	;volatile
  1999  001608  D7F4               	goto	l5012
  2000                           
  2001                           ;usb_device.c: 349: }
  2002                           ;usb_device.c: 353: USBStatusStageEnabledFlag1 = 1;
  2003  00160A  0E01               	movlw	1
  2004  00160C  6E1E               	movwf	_USBStatusStageEnabledFlag1,c	;volatile
  2005                           
  2006                           ;usb_device.c: 354: USBStatusStageEnabledFlag2 = 1;
  2007  00160E  0E01               	movlw	1
  2008  001610  6E1F               	movwf	_USBStatusStageEnabledFlag2,c	;volatile
  2009                           
  2010                           ;usb_device.c: 356: USBDeferINDataStagePackets = 0;
  2011  001612  0E00               	movlw	0
  2012  001614  6E1A               	movwf	_USBDeferINDataStagePackets,c	;volatile
  2013                           
  2014                           ;usb_device.c: 357: USBDeferOUTDataStagePackets = 0;
  2015  001616  0E00               	movlw	0
  2016  001618  6E1B               	movwf	_USBDeferOUTDataStagePackets,c	;volatile
  2017                           
  2018                           ;usb_device.c: 358: USBBusIsSuspended = 0;
  2019  00161A  0E00               	movlw	0
  2020  00161C  6E19               	movwf	_USBBusIsSuspended,c	;volatile
  2021                           
  2022                           ;usb_device.c: 362: for(i = 0; i < (uint8_t)(2+1u); i++)
  2023  00161E  0E00               	movlw	0
  2024  001620  0100               	movlb	0	; () banked
  2025  001622  6FC5               	movwf	USBDeviceInit@i& (0+255),b
  2026  001624                     l5024:
  2027                           
  2028                           ; BSR set to: 0
  2029  001624  0E02               	movlw	2
  2030  001626  0100               	movlb	0	; () banked
  2031  001628  65C5               	cpfsgt	USBDeviceInit@i& (0+255),b
  2032  00162A  D001               	goto	l5028
  2033                           
  2034                           ; BSR set to: 0
  2035  00162C  D033               	goto	l5034
  2036  00162E                     l5028:
  2037                           
  2038                           ; BSR set to: 0
  2039                           ;usb_device.c: 363: {
  2040                           ;usb_device.c: 364: pBDTEntryIn[i] = 0u;
  2041  00162E  0100               	movlb	0	; () banked
  2042  001630  51C5               	movf	USBDeviceInit@i& (0+255),w,b
  2043  001632  0D02               	mullw	2
  2044  001634  0E0A               	movlw	low _pBDTEntryIn
  2045  001636  24F3               	addwf	prodl,w,c
  2046  001638  6ED9               	movwf	fsr2l,c
  2047  00163A  0E00               	movlw	high _pBDTEntryIn
  2048  00163C  20F4               	addwfc	prodh,w,c
  2049  00163E  6EDA               	movwf	fsr2h,c
  2050  001640  0E00               	movlw	0
  2051  001642  6EDE               	movwf	postinc2,c
  2052  001644  0E00               	movlw	0
  2053  001646  6EDD               	movwf	postdec2,c
  2054                           
  2055                           ;usb_device.c: 365: pBDTEntryOut[i] = 0u;
  2056  001648  0100               	movlb	0	; () banked
  2057  00164A  51C5               	movf	USBDeviceInit@i& (0+255),w,b
  2058  00164C  0D02               	mullw	2
  2059  00164E  0E6A               	movlw	low _pBDTEntryOut
  2060  001650  24F3               	addwf	prodl,w,c
  2061  001652  6ED9               	movwf	fsr2l,c
  2062  001654  0E00               	movlw	high _pBDTEntryOut
  2063  001656  20F4               	addwfc	prodh,w,c
  2064  001658  6EDA               	movwf	fsr2h,c
  2065  00165A  0E00               	movlw	0
  2066  00165C  6EDE               	movwf	postinc2,c
  2067  00165E  0E00               	movlw	0
  2068  001660  6EDD               	movwf	postdec2,c
  2069                           
  2070                           ;usb_device.c: 366: ep_data_in[i].Val = 0u;
  2071  001662  0100               	movlb	0	; () banked
  2072  001664  51C5               	movf	USBDeviceInit@i& (0+255),w,b
  2073  001666  0D01               	mullw	1
  2074  001668  0E10               	movlw	low _ep_data_in
  2075  00166A  24F3               	addwf	prodl,w,c
  2076  00166C  6ED9               	movwf	fsr2l,c
  2077  00166E  0E00               	movlw	high _ep_data_in
  2078  001670  20F4               	addwfc	prodh,w,c
  2079  001672  6EDA               	movwf	fsr2h,c
  2080  001674  0E00               	movlw	0
  2081  001676  6EDF               	movwf	indf2,c
  2082                           
  2083                           ;usb_device.c: 367: ep_data_out[i].Val = 0u;
  2084  001678  0100               	movlb	0	; () banked
  2085  00167A  51C5               	movf	USBDeviceInit@i& (0+255),w,b
  2086  00167C  0D01               	mullw	1
  2087  00167E  0E77               	movlw	low _ep_data_out
  2088  001680  24F3               	addwf	prodl,w,c
  2089  001682  6ED9               	movwf	fsr2l,c
  2090  001684  0E00               	movlw	high _ep_data_out
  2091  001686  20F4               	addwfc	prodh,w,c
  2092  001688  6EDA               	movwf	fsr2h,c
  2093  00168A  0E00               	movlw	0
  2094  00168C  6EDF               	movwf	indf2,c
  2095                           
  2096                           ; BSR set to: 0
  2097  00168E  0100               	movlb	0	; () banked
  2098  001690  2BC5               	incf	USBDeviceInit@i& (0+255),f,b
  2099  001692  D7C8               	goto	l5024
  2100  001694                     l5034:
  2101                           
  2102                           ; BSR set to: 0
  2103                           ;usb_device.c: 368: }
  2104                           ;usb_device.c: 371: pBDTEntryIn[0] = (volatile BDT_ENTRY*)&BDT[2];
  2105  001694  0E08               	movlw	8
  2106  001696  6E0A               	movwf	_pBDTEntryIn,c
  2107  001698  0E0D               	movlw	13
  2108  00169A  6E0B               	movwf	_pBDTEntryIn+1,c
  2109                           
  2110                           ; BSR set to: 0
  2111                           ;usb_device.c: 373: UEP0 = 0x06|0x10;
  2112  00169C  0E16               	movlw	22
  2113  00169E  010F               	movlb	15	; () banked
  2114  0016A0  6F26               	movwf	38,b	;volatile
  2115                           
  2116                           ; BSR set to: 15
  2117                           ;usb_device.c: 375: BDT[0].ADR = ((uint16_t)(&SetupPkt));
  2118  0016A2  0E0D               	movlw	13
  2119  0016A4  010D               	movlb	13	; () banked
  2120  0016A6  6F03               	movwf	3,b	;volatile
  2121  0016A8  0E30               	movlw	48
  2122  0016AA  6F02               	movwf	2,b	;volatile
  2123                           
  2124                           ; BSR set to: 13
  2125                           ;usb_device.c: 376: BDT[0].CNT = 8;
  2126  0016AC  0E08               	movlw	8
  2127  0016AE  010D               	movlb	13	; () banked
  2128  0016B0  6F01               	movwf	1,b	;volatile
  2129                           
  2130                           ; BSR set to: 13
  2131                           ;usb_device.c: 377: BDT[0].STAT.Val = 0x00|0x04;
  2132  0016B2  0E04               	movlw	4
  2133  0016B4  010D               	movlb	13	; () banked
  2134  0016B6  6F00               	movwf	0,b	;volatile
  2135                           
  2136                           ; BSR set to: 13
  2137                           ;usb_device.c: 378: BDT[0].STAT.Val |= 0x80;
  2138  0016B8  010D               	movlb	13	; () banked
  2139  0016BA  8F00               	bsf	0,7,b	;volatile
  2140                           
  2141                           ; BSR set to: 13
  2142                           ;usb_device.c: 381: USBActiveConfiguration = 0;
  2143  0016BC  0E00               	movlw	0
  2144  0016BE  6E2B               	movwf	_USBActiveConfiguration,c	;volatile
  2145                           
  2146                           ; BSR set to: 13
  2147                           ;usb_device.c: 384: USBDeviceState = DETACHED_STATE;
  2148  0016C0  0E00               	movlw	0
  2149  0016C2  6E1D               	movwf	_USBDeviceState,c	;volatile
  2150                           
  2151                           ; BSR set to: 13
  2152  0016C4  0012               	return		;funcret
  2153  0016C6                     __end_of_USBDeviceInit:
  2154                           	opt stack 0
  2155                           tblptru	equ	0xFF8
  2156                           tblptrh	equ	0xFF7
  2157                           tblptrl	equ	0xFF6
  2158                           tablat	equ	0xFF5
  2159                           prodh	equ	0xFF4
  2160                           prodl	equ	0xFF3
  2161                           intcon	equ	0xFF2
  2162                           intcon2	equ	0xFF1
  2163                           postinc0	equ	0xFEE
  2164                           wreg	equ	0xFE8
  2165                           postdec1	equ	0xFE5
  2166                           fsr1h	equ	0xFE2
  2167                           fsr1l	equ	0xFE1
  2168                           indf2	equ	0xFDF
  2169                           postinc2	equ	0xFDE
  2170                           postdec2	equ	0xFDD
  2171                           fsr2h	equ	0xFDA
  2172                           fsr2l	equ	0xFD9
  2173                           status	equ	0xFD8
  2174                           
  2175 ;; *************** function _memset *****************
  2176 ;; Defined at:
  2177 ;;		line 8 in file "C:\Program Files (x86)\Microchip\xc8\v1.34\sources\common\memset.c"
  2178 ;; Parameters:    Size  Location     Type
  2179 ;;  p1              2    0[BANK0 ] PTR void 
  2180 ;;		 -> USBAlternateInterface(2), BDT(48), UEP1(1), 
  2181 ;;  c               2    2[BANK0 ] int 
  2182 ;;  n               2    4[BANK0 ] unsigned int 
  2183 ;; Auto vars:     Size  Location     Type
  2184 ;;  p               2    6[BANK0 ] PTR unsigned char 
  2185 ;;		 -> USBAlternateInterface(2), BDT(48), UEP1(1), 
  2186 ;; Return value:  Size  Location     Type
  2187 ;;                  2    0[BANK0 ] PTR void 
  2188 ;; Registers used:
  2189 ;;		wreg, fsr2l, fsr2h, status,2, status,0
  2190 ;; Tracked objects:
  2191 ;;		On entry : 0/0
  2192 ;;		On exit  : 0/0
  2193 ;;		Unchanged: 0/0
  2194 ;; Data sizes:     COMRAM   BANK0   BANK1   BANK2   BANK3   BANK4   BANK5   BANK6   BANK7   BANK8   BANK9  BANK10  BANK1
      +1  BANK12  BANK13  BANK14
  2195 ;;      Params:         0       6       0       0       0       0       0       0       0       0       0       0       
      +0       0       0       0
  2196 ;;      Locals:         0       2       0       0       0       0       0       0       0       0       0       0       
      +0       0       0       0
  2197 ;;      Temps:          0       0       0       0       0       0       0       0       0       0       0       0       
      +0       0       0       0
  2198 ;;      Totals:         0       8       0       0       0       0       0       0       0       0       0       0       
      +0       0       0       0
  2199 ;;Total ram usage:        8 bytes
  2200 ;; Hardware stack levels used:    1
  2201 ;; Hardware stack levels required when called:   11
  2202 ;; This function calls:
  2203 ;;		Nothing
  2204 ;; This function is called by:
  2205 ;;		_USBDeviceInit
  2206 ;; This function uses a non-reentrant model
  2207 ;;
  2208                           
  2209                           	psect	text8
  2210  002EAC                     __ptext8:
  2211                           	opt stack 0
  2212  002EAC                     _memset:
  2213                           	opt stack 16
  2214                           
  2215                           ; BSR set to: 13
  2216                           ;incstack = 0
  2217  002EAC  C0BD  F0C3         	movff	memset@p1,memset@p
  2218  002EB0  C0BE  F0C4         	movff	memset@p1+1,memset@p+1
  2219  002EB4  D00A               	goto	l4942
  2220  002EB6                     l4938:
  2221  002EB6  C0C3  FFD9         	movff	memset@p,fsr2l
  2222  002EBA  C0C4  FFDA         	movff	memset@p+1,fsr2h
  2223  002EBE  C0BF  FFDF         	movff	memset@c,indf2
  2224  002EC2  0100               	movlb	0	; () banked
  2225  002EC4  4BC3               	infsnz	memset@p& (0+255),f,b
  2226  002EC6  2BC4               	incf	(memset@p+1)& (0+255),f,b
  2227  002EC8  D000               	goto	l4942
  2228  002ECA                     l4942:
  2229  002ECA  0100               	movlb	0	; () banked
  2230  002ECC  07C1               	decf	memset@n& (0+255),f,b
  2231  002ECE  A0D8               	btfss	status,0,c
  2232  002ED0  07C2               	decf	(memset@n+1)& (0+255),f,b
  2233  002ED2  0100               	movlb	0	; () banked
  2234  002ED4  29C1               	incf	memset@n& (0+255),w,b
  2235  002ED6  E1EF               	bnz	l4938
  2236  002ED8  0100               	movlb	0	; () banked
  2237  002EDA  29C2               	incf	(memset@n+1)& (0+255),w,b
  2238  002EDC  A4D8               	btfss	status,2,c
  2239  002EDE  D7EB               	goto	l4938
  2240                           
  2241                           ; BSR set to: 0
  2242                           
  2243                           ; BSR set to: 0
  2244                           ;	Return value of _memset is never used
  2245  002EE0  0012               	return		;funcret
  2246  002EE2                     __end_of_memset:
  2247                           	opt stack 0
  2248                           tblptru	equ	0xFF8
  2249                           tblptrh	equ	0xFF7
  2250                           tblptrl	equ	0xFF6
  2251                           tablat	equ	0xFF5
  2252                           prodh	equ	0xFF4
  2253                           prodl	equ	0xFF3
  2254                           intcon	equ	0xFF2
  2255                           intcon2	equ	0xFF1
  2256                           postinc0	equ	0xFEE
  2257                           wreg	equ	0xFE8
  2258                           postdec1	equ	0xFE5
  2259                           fsr1h	equ	0xFE2
  2260                           fsr1l	equ	0xFE1
  2261                           indf2	equ	0xFDF
  2262                           postinc2	equ	0xFDE
  2263                           postdec2	equ	0xFDD
  2264                           fsr2h	equ	0xFDA
  2265                           fsr2l	equ	0xFD9
  2266                           status	equ	0xFD8
  2267                           
  2268 ;; *************** function _USBDeviceAttach *****************
  2269 ;; Defined at:
  2270 ;;		line 1352 in file "../My_header/usb_cdc/usb/usb_device.c"
  2271 ;; Parameters:    Size  Location     Type
  2272 ;;		None
  2273 ;; Auto vars:     Size  Location     Type
  2274 ;;		None
  2275 ;; Return value:  Size  Location     Type
  2276 ;;		None               void
  2277 ;; Registers used:
  2278 ;;		wreg, status,2
  2279 ;; Tracked objects:
  2280 ;;		On entry : 0/0
  2281 ;;		On exit  : 0/0
  2282 ;;		Unchanged: 0/0
  2283 ;; Data sizes:     COMRAM   BANK0   BANK1   BANK2   BANK3   BANK4   BANK5   BANK6   BANK7   BANK8   BANK9  BANK10  BANK1
      +1  BANK12  BANK13  BANK14
  2284 ;;      Params:         0       0       0       0       0       0       0       0       0       0       0       0       
      +0       0       0       0
  2285 ;;      Locals:         0       0       0       0       0       0       0       0       0       0       0       0       
      +0       0       0       0
  2286 ;;      Temps:          0       0       0       0       0       0       0       0       0       0       0       0       
      +0       0       0       0
  2287 ;;      Totals:         0       0       0       0       0       0       0       0       0       0       0       0       
      +0       0       0       0
  2288 ;;Total ram usage:        0 bytes
  2289 ;; Hardware stack levels used:    1
  2290 ;; Hardware stack levels required when called:   11
  2291 ;; This function calls:
  2292 ;;		Nothing
  2293 ;; This function is called by:
  2294 ;;		_USB_init
  2295 ;; This function uses a non-reentrant model
  2296 ;;
  2297                           
  2298                           	psect	text9
  2299  002E3A                     __ptext9:
  2300                           	opt stack 0
  2301  002E3A                     _USBDeviceAttach:
  2302                           	opt stack 17
  2303                           
  2304                           ;usb_device.c: 1356: {
  2305                           ;usb_device.c: 1357: if(1 == 1)
  2306                           
  2307                           ; BSR set to: 0
  2308                           ;incstack = 0
  2309  002E3A  501D               	movf	_USBDeviceState,w,c	;volatile
  2310  002E3C  A4D8               	btfss	status,2,c
  2311  002E3E  0012               	return	
  2312                           
  2313                           ;usb_device.c: 1358: {
  2314                           ;usb_device.c: 1360: UCON = 0;
  2315  002E40  0E00               	movlw	0
  2316  002E42  6E65               	movwf	3941,c	;volatile
  2317                           
  2318                           ;usb_device.c: 1363: UIE = 0;
  2319  002E44  0E00               	movlw	0
  2320  002E46  010F               	movlb	15	; () banked
  2321  002E48  6F36               	movwf	54,b	;volatile
  2322                           
  2323                           ;usb_device.c: 1367: { UCFG = 0x10 | 0x00 | 0x04 | 0x02; UEIE = 0x9F; UIE = 0x39 | 0x40 
      +                          | 0x02; };
  2324  002E4A  0E16               	movlw	22
  2325  002E4C  010F               	movlb	15	; () banked
  2326  002E4E  6F39               	movwf	57,b	;volatile
  2327  002E50  0E9F               	movlw	159
  2328  002E52  010F               	movlb	15	; () banked
  2329  002E54  6F37               	movwf	55,b	;volatile
  2330  002E56  0E7B               	movlw	123
  2331  002E58  010F               	movlb	15	; () banked
  2332  002E5A  6F36               	movwf	54,b	;volatile
  2333                           
  2334                           ; BSR set to: 15
  2335                           ;usb_device.c: 1369: {RCONbits.IPEN = 1;IPR2bits.USBIP = 1;PIE2bits.USBIE = 1;INTCONbits
      +                          .GIEH = 1;};
  2336  002E5C  8ED0               	bsf	4048,7,c	;volatile
  2337                           
  2338                           ; BSR set to: 15
  2339  002E5E  88A2               	bsf	4002,4,c	;volatile
  2340                           
  2341                           ; BSR set to: 15
  2342  002E60  88A0               	bsf	4000,4,c	;volatile
  2343                           
  2344                           ; BSR set to: 15
  2345  002E62  8EF2               	bsf	intcon,7,c	;volatile
  2346                           
  2347                           ;usb_device.c: 1372: while(!UCONbits.USBEN){UCONbits.USBEN = 1;}
  2348  002E64  D001               	goto	l193
  2349  002E66                     l194:
  2350  002E66  8665               	bsf	3941,3,c	;volatile
  2351  002E68                     l193:
  2352  002E68  A665               	btfss	3941,3,c	;volatile
  2353  002E6A  D7FD               	goto	l194
  2354                           
  2355                           ;usb_device.c: 1375: USBDeviceState = ATTACHED_STATE;
  2356  002E6C  0E01               	movlw	1
  2357  002E6E  6E1D               	movwf	_USBDeviceState,c	;volatile
  2358  002E70  0012               	return	
  2359  002E72  0012               	return		;funcret
  2360  002E74                     __end_of_USBDeviceAttach:
  2361                           	opt stack 0
  2362                           tblptru	equ	0xFF8
  2363                           tblptrh	equ	0xFF7
  2364                           tblptrl	equ	0xFF6
  2365                           tablat	equ	0xFF5
  2366                           prodh	equ	0xFF4
  2367                           prodl	equ	0xFF3
  2368                           intcon	equ	0xFF2
  2369                           intcon2	equ	0xFF1
  2370                           postinc0	equ	0xFEE
  2371                           wreg	equ	0xFE8
  2372                           postdec1	equ	0xFE5
  2373                           fsr1h	equ	0xFE2
  2374                           fsr1l	equ	0xFE1
  2375                           indf2	equ	0xFDF
  2376                           postinc2	equ	0xFDE
  2377                           postdec2	equ	0xFDD
  2378                           fsr2h	equ	0xFDA
  2379                           fsr2l	equ	0xFD9
  2380                           status	equ	0xFD8
  2381                           
  2382 ;; *************** function _OSC_init *****************
  2383 ;; Defined at:
  2384 ;;		line 119 in file "../My_header\My_header.h"
  2385 ;; Parameters:    Size  Location     Type
  2386 ;;		None
  2387 ;; Auto vars:     Size  Location     Type
  2388 ;;		None
  2389 ;; Return value:  Size  Location     Type
  2390 ;;		None               void
  2391 ;; Registers used:
  2392 ;;		wreg, status,2
  2393 ;; Tracked objects:
  2394 ;;		On entry : 0/0
  2395 ;;		On exit  : 0/0
  2396 ;;		Unchanged: 0/0
  2397 ;; Data sizes:     COMRAM   BANK0   BANK1   BANK2   BANK3   BANK4   BANK5   BANK6   BANK7   BANK8   BANK9  BANK10  BANK1
      +1  BANK12  BANK13  BANK14
  2398 ;;      Params:         0       0       0       0       0       0       0       0       0       0       0       0       
      +0       0       0       0
  2399 ;;      Locals:         0       0       0       0       0       0       0       0       0       0       0       0       
      +0       0       0       0
  2400 ;;      Temps:          0       0       0       0       0       0       0       0       0       0       0       0       
      +0       0       0       0
  2401 ;;      Totals:         0       0       0       0       0       0       0       0       0       0       0       0       
      +0       0       0       0
  2402 ;;Total ram usage:        0 bytes
  2403 ;; Hardware stack levels used:    1
  2404 ;; Hardware stack levels required when called:   11
  2405 ;; This function calls:
  2406 ;;		Nothing
  2407 ;; This function is called by:
  2408 ;;		_main_init
  2409 ;; This function uses a non-reentrant model
  2410 ;;
  2411                           
  2412                           	psect	text10
  2413  003100                     __ptext10:
  2414                           	opt stack 0
  2415  003100                     _OSC_init:
  2416                           	opt stack 18
  2417                           
  2418                           ;My_header\My_header.h: 120: OSCCONbits.IRCF = 7;
  2419                           
  2420                           ;incstack = 0
  2421  003100  88D3               	bsf	4051,4,c	;volatile
  2422  003102  8AD3               	bsf	4051,5,c	;volatile
  2423  003104  8CD3               	bsf	4051,6,c	;volatile
  2424                           
  2425                           ;My_header\My_header.h: 121: OSCTUNEbits.PLLEN = 1;
  2426  003106  8C9B               	bsf	3995,6,c	;volatile
  2427                           
  2428                           ;My_header\My_header.h: 122: OSCCONbits.SCS = 0;
  2429  003108  0EFC               	movlw	-4
  2430  00310A  16D3               	andwf	4051,f,c	;volatile
  2431  00310C  0012               	return		;funcret
  2432  00310E                     __end_of_OSC_init:
  2433                           	opt stack 0
  2434                           tblptru	equ	0xFF8
  2435                           tblptrh	equ	0xFF7
  2436                           tblptrl	equ	0xFF6
  2437                           tablat	equ	0xFF5
  2438                           prodh	equ	0xFF4
  2439                           prodl	equ	0xFF3
  2440                           intcon	equ	0xFF2
  2441                           intcon2	equ	0xFF1
  2442                           postinc0	equ	0xFEE
  2443                           wreg	equ	0xFE8
  2444                           postdec1	equ	0xFE5
  2445                           fsr1h	equ	0xFE2
  2446                           fsr1l	equ	0xFE1
  2447                           indf2	equ	0xFDF
  2448                           postinc2	equ	0xFDE
  2449                           postdec2	equ	0xFDD
  2450                           fsr2h	equ	0xFDA
  2451                           fsr2l	equ	0xFD9
  2452                           status	equ	0xFD8
  2453                           
  2454 ;; *************** function _I2C_init *****************
  2455 ;; Defined at:
  2456 ;;		line 25 in file "../My_header\My_I2C.h"
  2457 ;; Parameters:    Size  Location     Type
  2458 ;;		None
  2459 ;; Auto vars:     Size  Location     Type
  2460 ;;		None
  2461 ;; Return value:  Size  Location     Type
  2462 ;;		None               void
  2463 ;; Registers used:
  2464 ;;		wreg, status,2
  2465 ;; Tracked objects:
  2466 ;;		On entry : 0/0
  2467 ;;		On exit  : 0/0
  2468 ;;		Unchanged: 0/0
  2469 ;; Data sizes:     COMRAM   BANK0   BANK1   BANK2   BANK3   BANK4   BANK5   BANK6   BANK7   BANK8   BANK9  BANK10  BANK1
      +1  BANK12  BANK13  BANK14
  2470 ;;      Params:         0       0       0       0       0       0       0       0       0       0       0       0       
      +0       0       0       0
  2471 ;;      Locals:         0       0       0       0       0       0       0       0       0       0       0       0       
      +0       0       0       0
  2472 ;;      Temps:          0       0       0       0       0       0       0       0       0       0       0       0       
      +0       0       0       0
  2473 ;;      Totals:         0       0       0       0       0       0       0       0       0       0       0       0       
      +0       0       0       0
  2474 ;;Total ram usage:        0 bytes
  2475 ;; Hardware stack levels used:    1
  2476 ;; Hardware stack levels required when called:   11
  2477 ;; This function calls:
  2478 ;;		Nothing
  2479 ;; This function is called by:
  2480 ;;		_main_init
  2481 ;; This function uses a non-reentrant model
  2482 ;;
  2483                           
  2484                           	psect	text11
  2485  0030EE                     __ptext11:
  2486                           	opt stack 0
  2487  0030EE                     _I2C_init:
  2488                           	opt stack 18
  2489                           
  2490                           ;My_header\My_I2C.h: 26: SSP1STAT = 0b10000000;
  2491                           
  2492                           ;incstack = 0
  2493  0030EE  0E80               	movlw	128
  2494  0030F0  6EC7               	movwf	4039,c	;volatile
  2495                           
  2496                           ;My_header\My_I2C.h: 27: SSP1CON1 = 0b00101000;
  2497  0030F2  0E28               	movlw	40
  2498  0030F4  6EC6               	movwf	4038,c	;volatile
  2499                           
  2500                           ;My_header\My_I2C.h: 28: SSP1ADD = 0x13;
  2501  0030F6  0E13               	movlw	19
  2502  0030F8  6EC8               	movwf	4040,c	;volatile
  2503                           
  2504                           ;My_header\My_I2C.h: 31: SSP1IF = 0;
  2505  0030FA  969E               	bcf	3998,3,c	;volatile
  2506                           
  2507                           ;My_header\My_I2C.h: 32: BCL1IF = 0;
  2508  0030FC  96A1               	bcf	4001,3,c	;volatile
  2509  0030FE  0012               	return		;funcret
  2510  003100                     __end_of_I2C_init:
  2511                           	opt stack 0
  2512                           tblptru	equ	0xFF8
  2513                           tblptrh	equ	0xFF7
  2514                           tblptrl	equ	0xFF6
  2515                           tablat	equ	0xFF5
  2516                           prodh	equ	0xFF4
  2517                           prodl	equ	0xFF3
  2518                           intcon	equ	0xFF2
  2519                           intcon2	equ	0xFF1
  2520                           postinc0	equ	0xFEE
  2521                           wreg	equ	0xFE8
  2522                           postdec1	equ	0xFE5
  2523                           fsr1h	equ	0xFE2
  2524                           fsr1l	equ	0xFE1
  2525                           indf2	equ	0xFDF
  2526                           postinc2	equ	0xFDE
  2527                           postdec2	equ	0xFDD
  2528                           fsr2h	equ	0xFDA
  2529                           fsr2l	equ	0xFD9
  2530                           status	equ	0xFD8
  2531                           
  2532 ;; *************** function _I2C_LCD_init *****************
  2533 ;; Defined at:
  2534 ;;		line 164 in file "../My_header\My_I2C.h"
  2535 ;; Parameters:    Size  Location     Type
  2536 ;;		None
  2537 ;; Auto vars:     Size  Location     Type
  2538 ;;		None
  2539 ;; Return value:  Size  Location     Type
  2540 ;;		None               void
  2541 ;; Registers used:
  2542 ;;		wreg, status,2, status,0, cstack
  2543 ;; Tracked objects:
  2544 ;;		On entry : 0/0
  2545 ;;		On exit  : 0/0
  2546 ;;		Unchanged: 0/0
  2547 ;; Data sizes:     COMRAM   BANK0   BANK1   BANK2   BANK3   BANK4   BANK5   BANK6   BANK7   BANK8   BANK9  BANK10  BANK1
      +1  BANK12  BANK13  BANK14
  2548 ;;      Params:         0       0       0       0       0       0       0       0       0       0       0       0       
      +0       0       0       0
  2549 ;;      Locals:         0       0       0       0       0       0       0       0       0       0       0       0       
      +0       0       0       0
  2550 ;;      Temps:          0       0       0       0       0       0       0       0       0       0       0       0       
      +0       0       0       0
  2551 ;;      Totals:         0       0       0       0       0       0       0       0       0       0       0       0       
      +0       0       0       0
  2552 ;;Total ram usage:        0 bytes
  2553 ;; Hardware stack levels used:    1
  2554 ;; Hardware stack levels required when called:   15
  2555 ;; This function calls:
  2556 ;;		_Delay_ms
  2557 ;;		_I2C_LCD_Clear
  2558 ;;		_I2C_LCD_Command
  2559 ;; This function is called by:
  2560 ;;		_main_init
  2561 ;; This function uses a non-reentrant model
  2562 ;;
  2563                           
  2564                           	psect	text12
  2565  002B8A                     __ptext12:
  2566                           	opt stack 0
  2567  002B8A                     _I2C_LCD_init:
  2568                           	opt stack 14
  2569                           
  2570                           ;My_header\My_I2C.h: 165: Delay_ms(40);
  2571                           
  2572                           ;incstack = 0
  2573  002B8A  0E00               	movlw	0
  2574  002B8C  0100               	movlb	0	; () banked
  2575  002B8E  6FBE               	movwf	(Delay_ms@ms+1)& (0+255),b
  2576  002B90  0E28               	movlw	40
  2577  002B92  6FBD               	movwf	Delay_ms@ms& (0+255),b
  2578  002B94  ECBC  F017         	call	_Delay_ms	;wreg free
  2579                           
  2580                           ;My_header\My_I2C.h: 166: I2C_LCD_Command(0x38);
  2581  002B98  0E38               	movlw	56
  2582  002B9A  EC3A  F017         	call	_I2C_LCD_Command
  2583                           
  2584                           ;My_header\My_I2C.h: 167: I2C_LCD_Command(0x39);
  2585  002B9E  0E39               	movlw	57
  2586  002BA0  EC3A  F017         	call	_I2C_LCD_Command
  2587                           
  2588                           ;My_header\My_I2C.h: 168: I2C_LCD_Command(0x14);
  2589  002BA4  0E14               	movlw	20
  2590  002BA6  EC3A  F017         	call	_I2C_LCD_Command
  2591                           
  2592                           ;My_header\My_I2C.h: 169: I2C_LCD_Command(0x70);
  2593  002BAA  0E70               	movlw	112
  2594  002BAC  EC3A  F017         	call	_I2C_LCD_Command
  2595                           
  2596                           ;My_header\My_I2C.h: 170: I2C_LCD_Command(0x56);
  2597  002BB0  0E56               	movlw	86
  2598  002BB2  EC3A  F017         	call	_I2C_LCD_Command
  2599                           
  2600                           ;My_header\My_I2C.h: 171: I2C_LCD_Command(0x6C);
  2601  002BB6  0E6C               	movlw	108
  2602  002BB8  EC3A  F017         	call	_I2C_LCD_Command
  2603                           
  2604                           ;My_header\My_I2C.h: 172: Delay_ms(200);
  2605  002BBC  0E00               	movlw	0
  2606  002BBE  0100               	movlb	0	; () banked
  2607  002BC0  6FBE               	movwf	(Delay_ms@ms+1)& (0+255),b
  2608  002BC2  0EC8               	movlw	200
  2609  002BC4  6FBD               	movwf	Delay_ms@ms& (0+255),b
  2610  002BC6  ECBC  F017         	call	_Delay_ms	;wreg free
  2611                           
  2612                           ;My_header\My_I2C.h: 173: I2C_LCD_Command(0x38);
  2613  002BCA  0E38               	movlw	56
  2614  002BCC  EC3A  F017         	call	_I2C_LCD_Command
  2615                           
  2616                           ;My_header\My_I2C.h: 174: I2C_LCD_Command(0x0C);
  2617  002BD0  0E0C               	movlw	12
  2618  002BD2  EC3A  F017         	call	_I2C_LCD_Command
  2619                           
  2620                           ;My_header\My_I2C.h: 175: I2C_LCD_Command(0x06);
  2621  002BD6  0E06               	movlw	6
  2622  002BD8  EC3A  F017         	call	_I2C_LCD_Command
  2623                           
  2624                           ;My_header\My_I2C.h: 176: I2C_LCD_Clear();
  2625  002BDC  EC6A  F018         	call	_I2C_LCD_Clear	;wreg free
  2626  002BE0  0012               	return		;funcret
  2627  002BE2                     __end_of_I2C_LCD_init:
  2628                           	opt stack 0
  2629                           tblptru	equ	0xFF8
  2630                           tblptrh	equ	0xFF7
  2631                           tblptrl	equ	0xFF6
  2632                           tablat	equ	0xFF5
  2633                           prodh	equ	0xFF4
  2634                           prodl	equ	0xFF3
  2635                           intcon	equ	0xFF2
  2636                           intcon2	equ	0xFF1
  2637                           postinc0	equ	0xFEE
  2638                           wreg	equ	0xFE8
  2639                           postdec1	equ	0xFE5
  2640                           fsr1h	equ	0xFE2
  2641                           fsr1l	equ	0xFE1
  2642                           indf2	equ	0xFDF
  2643                           postinc2	equ	0xFDE
  2644                           postdec2	equ	0xFDD
  2645                           fsr2h	equ	0xFDA
  2646                           fsr2l	equ	0xFD9
  2647                           status	equ	0xFD8
  2648                           
  2649 ;; *************** function _I2C_LCD_Clear *****************
  2650 ;; Defined at:
  2651 ;;		line 107 in file "../My_header\My_I2C.h"
  2652 ;; Parameters:    Size  Location     Type
  2653 ;;		None
  2654 ;; Auto vars:     Size  Location     Type
  2655 ;;		None
  2656 ;; Return value:  Size  Location     Type
  2657 ;;		None               void
  2658 ;; Registers used:
  2659 ;;		wreg, status,2, status,0, cstack
  2660 ;; Tracked objects:
  2661 ;;		On entry : 0/0
  2662 ;;		On exit  : 0/0
  2663 ;;		Unchanged: 0/0
  2664 ;; Data sizes:     COMRAM   BANK0   BANK1   BANK2   BANK3   BANK4   BANK5   BANK6   BANK7   BANK8   BANK9  BANK10  BANK1
      +1  BANK12  BANK13  BANK14
  2665 ;;      Params:         0       0       0       0       0       0       0       0       0       0       0       0       
      +0       0       0       0
  2666 ;;      Locals:         0       0       0       0       0       0       0       0       0       0       0       0       
      +0       0       0       0
  2667 ;;      Temps:          0       1       0       0       0       0       0       0       0       0       0       0       
      +0       0       0       0
  2668 ;;      Totals:         0       1       0       0       0       0       0       0       0       0       0       0       
      +0       0       0       0
  2669 ;;Total ram usage:        1 bytes
  2670 ;; Hardware stack levels used:    1
  2671 ;; Hardware stack levels required when called:   14
  2672 ;; This function calls:
  2673 ;;		_I2C_LCD_Command
  2674 ;; This function is called by:
  2675 ;;		_I2C_LCD_init
  2676 ;;		_main
  2677 ;; This function uses a non-reentrant model
  2678 ;;
  2679                           
  2680                           	psect	text13
  2681  0030D4                     __ptext13:
  2682                           	opt stack 0
  2683  0030D4                     _I2C_LCD_Clear:
  2684                           	opt stack 14
  2685                           
  2686                           ;My_header\My_I2C.h: 108: I2C_LCD_Command(0x01);
  2687                           
  2688                           ;incstack = 0
  2689  0030D4  0E01               	movlw	1
  2690  0030D6  EC3A  F017         	call	_I2C_LCD_Command
  2691                           
  2692                           ;My_header\My_I2C.h: 109: _delay((unsigned long)((1100)*(48000000/4000000.0)));
  2693  0030DA  0E12               	movlw	18
  2694  0030DC  0100               	movlb	0	; () banked
  2695  0030DE  6FC3               	movwf	??_I2C_LCD_Clear& (0+255),b
  2696  0030E0  0E23               	movlw	35
  2697  0030E2                     u4857:
  2698  0030E2  2EE8               	decfsz	wreg,f,c
  2699  0030E4  D7FE               	goto	u4857
  2700  0030E6  2FC3               	decfsz	??_I2C_LCD_Clear& (0+255),f,b
  2701  0030E8  D7FC               	goto	u4857
  2702  0030EA  F000               	nop	
  2703  0030EC  0012               	return		;funcret
  2704  0030EE                     __end_of_I2C_LCD_Clear:
  2705                           	opt stack 0
  2706                           tblptru	equ	0xFF8
  2707                           tblptrh	equ	0xFF7
  2708                           tblptrl	equ	0xFF6
  2709                           tablat	equ	0xFF5
  2710                           prodh	equ	0xFF4
  2711                           prodl	equ	0xFF3
  2712                           intcon	equ	0xFF2
  2713                           intcon2	equ	0xFF1
  2714                           postinc0	equ	0xFEE
  2715                           wreg	equ	0xFE8
  2716                           postdec1	equ	0xFE5
  2717                           fsr1h	equ	0xFE2
  2718                           fsr1l	equ	0xFE1
  2719                           indf2	equ	0xFDF
  2720                           postinc2	equ	0xFDE
  2721                           postdec2	equ	0xFDD
  2722                           fsr2h	equ	0xFDA
  2723                           fsr2l	equ	0xFD9
  2724                           status	equ	0xFD8
  2725                           
  2726 ;; *************** function _Delay_ms *****************
  2727 ;; Defined at:
  2728 ;;		line 334 in file "../My_header\My_header.h"
  2729 ;; Parameters:    Size  Location     Type
  2730 ;;  ms              2    0[BANK0 ] unsigned int 
  2731 ;; Auto vars:     Size  Location     Type
  2732 ;;		None
  2733 ;; Return value:  Size  Location     Type
  2734 ;;		None               void
  2735 ;; Registers used:
  2736 ;;		wreg, status,2, status,0
  2737 ;; Tracked objects:
  2738 ;;		On entry : 0/0
  2739 ;;		On exit  : 0/0
  2740 ;;		Unchanged: 0/0
  2741 ;; Data sizes:     COMRAM   BANK0   BANK1   BANK2   BANK3   BANK4   BANK5   BANK6   BANK7   BANK8   BANK9  BANK10  BANK1
      +1  BANK12  BANK13  BANK14
  2742 ;;      Params:         0       2       0       0       0       0       0       0       0       0       0       0       
      +0       0       0       0
  2743 ;;      Locals:         0       0       0       0       0       0       0       0       0       0       0       0       
      +0       0       0       0
  2744 ;;      Temps:          0       1       0       0       0       0       0       0       0       0       0       0       
      +0       0       0       0
  2745 ;;      Totals:         0       3       0       0       0       0       0       0       0       0       0       0       
      +0       0       0       0
  2746 ;;Total ram usage:        3 bytes
  2747 ;; Hardware stack levels used:    1
  2748 ;; Hardware stack levels required when called:   11
  2749 ;; This function calls:
  2750 ;;		Nothing
  2751 ;; This function is called by:
  2752 ;;		_I2C_LCD_init
  2753 ;; This function uses a non-reentrant model
  2754 ;;
  2755                           
  2756                           	psect	text14
  2757  002F78                     __ptext14:
  2758                           	opt stack 0
  2759  002F78                     _Delay_ms:
  2760                           	opt stack 17
  2761                           
  2762                           ;My_header\My_header.h: 335: while (ms--)_delay((unsigned long)((1)*(48000000/4000.0)));
  2763                           
  2764                           ;incstack = 0
  2765  002F78  D00A               	goto	l5202
  2766  002F7A                     l5200:
  2767  002F7A  0E10               	movlw	16
  2768  002F7C  0100               	movlb	0	; () banked
  2769  002F7E  6FBF               	movwf	??_Delay_ms& (0+255),b
  2770  002F80  0E94               	movlw	148
  2771  002F82                     u4867:
  2772  002F82  2EE8               	decfsz	wreg,f,c
  2773  002F84  D7FE               	goto	u4867
  2774  002F86  2FBF               	decfsz	??_Delay_ms& (0+255),f,b
  2775  002F88  D7FC               	goto	u4867
  2776  002F8A  D000               	nop2	
  2777  002F8C  D000               	goto	l5202
  2778  002F8E                     l5202:
  2779  002F8E  0100               	movlb	0	; () banked
  2780  002F90  07BD               	decf	Delay_ms@ms& (0+255),f,b
  2781  002F92  A0D8               	btfss	status,0,c
  2782  002F94  07BE               	decf	(Delay_ms@ms+1)& (0+255),f,b
  2783  002F96  0100               	movlb	0	; () banked
  2784  002F98  29BD               	incf	Delay_ms@ms& (0+255),w,b
  2785  002F9A  E1EF               	bnz	l5200
  2786  002F9C  0100               	movlb	0	; () banked
  2787  002F9E  29BE               	incf	(Delay_ms@ms+1)& (0+255),w,b
  2788  002FA0  A4D8               	btfss	status,2,c
  2789  002FA2  D7EB               	goto	l5200
  2790                           
  2791                           ; BSR set to: 0
  2792                           
  2793                           ; BSR set to: 0
  2794  002FA4  0012               	return		;funcret
  2795  002FA6                     __end_of_Delay_ms:
  2796                           	opt stack 0
  2797                           tblptru	equ	0xFF8
  2798                           tblptrh	equ	0xFF7
  2799                           tblptrl	equ	0xFF6
  2800                           tablat	equ	0xFF5
  2801                           prodh	equ	0xFF4
  2802                           prodl	equ	0xFF3
  2803                           intcon	equ	0xFF2
  2804                           intcon2	equ	0xFF1
  2805                           postinc0	equ	0xFEE
  2806                           wreg	equ	0xFE8
  2807                           postdec1	equ	0xFE5
  2808                           fsr1h	equ	0xFE2
  2809                           fsr1l	equ	0xFE1
  2810                           indf2	equ	0xFDF
  2811                           postinc2	equ	0xFDE
  2812                           postdec2	equ	0xFDD
  2813                           fsr2h	equ	0xFDA
  2814                           fsr2l	equ	0xFD9
  2815                           status	equ	0xFD8
  2816                           
  2817 ;; *************** function _USB_loop *****************
  2818 ;; Defined at:
  2819 ;;		line 59 in file "PIC18F27J53-USB05.c"
  2820 ;; Parameters:    Size  Location     Type
  2821 ;;		None
  2822 ;; Auto vars:     Size  Location     Type
  2823 ;;  rx_len          2   22[BANK0 ] int 
  2824 ;;  data            1   24[BANK0 ] unsigned char 
  2825 ;; Return value:  Size  Location     Type
  2826 ;;		None               void
  2827 ;; Registers used:
  2828 ;;		wreg, fsr1l, fsr1h, fsr2l, fsr2h, status,2, status,0, prodl, prodh, cstack
  2829 ;; Tracked objects:
  2830 ;;		On entry : 0/0
  2831 ;;		On exit  : 0/0
  2832 ;;		Unchanged: 0/0
  2833 ;; Data sizes:     COMRAM   BANK0   BANK1   BANK2   BANK3   BANK4   BANK5   BANK6   BANK7   BANK8   BANK9  BANK10  BANK1
      +1  BANK12  BANK13  BANK14
  2834 ;;      Params:         0       0       0       0       0       0       0       0       0       0       0       0       
      +0       0       0       0
  2835 ;;      Locals:         0       3       0       0       0       0       0       0       0       0       0       0       
      +0       0       0       0
  2836 ;;      Temps:          0       0       0       0       0       0       0       0       0       0       0       0       
      +0       0       0       0
  2837 ;;      Totals:         0       3       0       0       0       0       0       0       0       0       0       0       
      +0       0       0       0
  2838 ;;Total ram usage:        3 bytes
  2839 ;; Hardware stack levels used:    1
  2840 ;; Hardware stack levels required when called:   14
  2841 ;; This function calls:
  2842 ;;		_get_string_usb
  2843 ;;		_put_string_usb
  2844 ;;		_ringbuf_num
  2845 ;;		_ringbuf_pop
  2846 ;;		_ringbuf_put
  2847 ;; This function is called by:
  2848 ;;		_main
  2849 ;; This function uses a non-reentrant model
  2850 ;;
  2851                           
  2852                           	psect	text15
  2853  0026D8                     __ptext15:
  2854                           	opt stack 0
  2855  0026D8                     _USB_loop:
  2856                           	opt stack 16
  2857                           
  2858                           ;PIC18F27J53-USB05.c: 60: char data;
  2859                           ;PIC18F27J53-USB05.c: 61: int rx_len;
  2860                           ;PIC18F27J53-USB05.c: 62: rx_len = get_string_usb(&data, 1);
  2861                           
  2862                           ; BSR set to: 0
  2863                           ;incstack = 0
  2864  0026D8  0ED5               	movlw	low USB_loop@data
  2865  0026DA  0100               	movlb	0	; () banked
  2866  0026DC  6FCA               	movwf	get_string_usb@s& (0+255),b
  2867  0026DE  0E00               	movlw	high USB_loop@data
  2868  0026E0  0100               	movlb	0	; () banked
  2869  0026E2  6FCB               	movwf	(get_string_usb@s+1)& (0+255),b
  2870  0026E4  0E00               	movlw	0
  2871  0026E6  0100               	movlb	0	; () banked
  2872  0026E8  6FCD               	movwf	(get_string_usb@len+1)& (0+255),b
  2873  0026EA  0E01               	movlw	1
  2874  0026EC  6FCC               	movwf	get_string_usb@len& (0+255),b
  2875  0026EE  EC6F  F016         	call	_get_string_usb	;wreg free
  2876  0026F2  C0CA  F0D3         	movff	?_get_string_usb,USB_loop@rx_len
  2877  0026F6  C0CB  F0D4         	movff	?_get_string_usb+1,USB_loop@rx_len+1
  2878                           
  2879                           ;PIC18F27J53-USB05.c: 63: if (rx_len) {
  2880  0026FA  0100               	movlb	0	; () banked
  2881  0026FC  51D3               	movf	USB_loop@rx_len& (0+255),w,b
  2882  0026FE  0100               	movlb	0	; () banked
  2883  002700  11D4               	iorwf	(USB_loop@rx_len+1)& (0+255),w,b
  2884  002702  B4D8               	btfsc	status,2,c
  2885  002704  D00A               	goto	l877
  2886                           
  2887                           ; BSR set to: 0
  2888                           ;PIC18F27J53-USB05.c: 64: ringbuf_put(&usb_rx, data);
  2889  002706  0EA4               	movlw	low _usb_rx
  2890  002708  0100               	movlb	0	; () banked
  2891  00270A  6FCC               	movwf	ringbuf_put@rb& (0+255),b
  2892  00270C  0E00               	movlw	high _usb_rx
  2893  00270E  0100               	movlb	0	; () banked
  2894  002710  6FCD               	movwf	(ringbuf_put@rb+1)& (0+255),b
  2895  002712  C0D5  F0CE         	movff	USB_loop@data,ringbuf_put@asciicode
  2896  002716  EC54  F010         	call	_ringbuf_put	;wreg free
  2897  00271A                     l877:
  2898                           
  2899                           ;PIC18F27J53-USB05.c: 65: }
  2900                           ;PIC18F27J53-USB05.c: 66: if (ringbuf_num(&usb_tx)) {
  2901  00271A  0EAC               	movlw	low _usb_tx
  2902  00271C  0100               	movlb	0	; () banked
  2903  00271E  6FBD               	movwf	ringbuf_num@rb& (0+255),b
  2904  002720  0E00               	movlw	high _usb_tx
  2905  002722  0100               	movlb	0	; () banked
  2906  002724  6FBE               	movwf	(ringbuf_num@rb+1)& (0+255),b
  2907  002726  EC1C  F00E         	call	_ringbuf_num	;wreg free
  2908  00272A  0100               	movlb	0	; () banked
  2909  00272C  51BD               	movf	?_ringbuf_num& (0+255),w,b
  2910  00272E  0100               	movlb	0	; () banked
  2911  002730  11BE               	iorwf	(?_ringbuf_num+1)& (0+255),w,b
  2912  002732  B4D8               	btfsc	status,2,c
  2913  002734  0012               	return	
  2914                           
  2915                           ; BSR set to: 0
  2916                           ;PIC18F27J53-USB05.c: 67: data = ringbuf_pop(&usb_tx);
  2917  002736  0EAC               	movlw	low _usb_tx
  2918  002738  0100               	movlb	0	; () banked
  2919  00273A  6FC5               	movwf	ringbuf_pop@rb& (0+255),b
  2920  00273C  0E00               	movlw	high _usb_tx
  2921  00273E  0100               	movlb	0	; () banked
  2922  002740  6FC6               	movwf	(ringbuf_pop@rb+1)& (0+255),b
  2923  002742  ECBF  F010         	call	_ringbuf_pop	;wreg free
  2924  002746  0100               	movlb	0	; () banked
  2925  002748  6FD5               	movwf	USB_loop@data& (0+255),b
  2926                           
  2927                           ; BSR set to: 0
  2928                           
  2929                           ;PIC18F27J53-USB05.c: 68: while (put_string_usb(&data, 1));
  2930  00274A  D000               	goto	l5382
  2931  00274C                     l5382:
  2932                           
  2933                           ; BSR set to: 0
  2934  00274C  0ED5               	movlw	low USB_loop@data
  2935  00274E  0100               	movlb	0	; () banked
  2936  002750  6FC9               	movwf	put_string_usb@s& (0+255),b
  2937  002752  0E00               	movlw	high USB_loop@data
  2938  002754  0100               	movlb	0	; () banked
  2939  002756  6FCA               	movwf	(put_string_usb@s+1)& (0+255),b
  2940  002758  0E00               	movlw	0
  2941  00275A  0100               	movlb	0	; () banked
  2942  00275C  6FCC               	movwf	(put_string_usb@len+1)& (0+255),b
  2943  00275E  0E01               	movlw	1
  2944  002760  6FCB               	movwf	put_string_usb@len& (0+255),b
  2945  002762  ECBC  F016         	call	_put_string_usb	;wreg free
  2946  002766  0100               	movlb	0	; () banked
  2947  002768  51C9               	movf	?_put_string_usb& (0+255),w,b
  2948  00276A  0100               	movlb	0	; () banked
  2949  00276C  11CA               	iorwf	(?_put_string_usb+1)& (0+255),w,b
  2950  00276E  B4D8               	btfsc	status,2,c
  2951  002770  0012               	return	
  2952  002772  D7EC               	goto	l5382
  2953                           
  2954                           ; BSR set to: 0
  2955  002774  0012               	return	
  2956                           
  2957                           ; BSR set to: 0
  2958                           
  2959                           ; BSR set to: 0
  2960  002776  0012               	return		;funcret
  2961  002778                     __end_of_USB_loop:
  2962                           	opt stack 0
  2963                           tblptru	equ	0xFF8
  2964                           tblptrh	equ	0xFF7
  2965                           tblptrl	equ	0xFF6
  2966                           tablat	equ	0xFF5
  2967                           prodh	equ	0xFF4
  2968                           prodl	equ	0xFF3
  2969                           intcon	equ	0xFF2
  2970                           intcon2	equ	0xFF1
  2971                           postinc0	equ	0xFEE
  2972                           wreg	equ	0xFE8
  2973                           postdec1	equ	0xFE5
  2974                           fsr1h	equ	0xFE2
  2975                           fsr1l	equ	0xFE1
  2976                           indf2	equ	0xFDF
  2977                           postinc2	equ	0xFDE
  2978                           postdec2	equ	0xFDD
  2979                           fsr2h	equ	0xFDA
  2980                           fsr2l	equ	0xFD9
  2981                           status	equ	0xFD8
  2982                           
  2983 ;; *************** function _ringbuf_put *****************
  2984 ;; Defined at:
  2985 ;;		line 39 in file "../My_header\My_ringbuf.h"
  2986 ;; Parameters:    Size  Location     Type
  2987 ;;  rb              2   15[BANK0 ] PTR struct ringbuf
  2988 ;;		 -> usb_tx(8), usb_rx(8), rx_buf(8), tx_buf(8), 
  2989 ;;  asciicode       1   17[BANK0 ] unsigned char 
  2990 ;; Auto vars:     Size  Location     Type
  2991 ;;		None
  2992 ;; Return value:  Size  Location     Type
  2993 ;;		None               void
  2994 ;; Registers used:
  2995 ;;		wreg, fsr1l, fsr1h, fsr2l, fsr2h, status,2, status,0, cstack
  2996 ;; Tracked objects:
  2997 ;;		On entry : 0/0
  2998 ;;		On exit  : 0/0
  2999 ;;		Unchanged: 0/0
  3000 ;; Data sizes:     COMRAM   BANK0   BANK1   BANK2   BANK3   BANK4   BANK5   BANK6   BANK7   BANK8   BANK9  BANK10  BANK1
      +1  BANK12  BANK13  BANK14
  3001 ;;      Params:         0       3       0       0       0       0       0       0       0       0       0       0       
      +0       0       0       0
  3002 ;;      Locals:         0       0       0       0       0       0       0       0       0       0       0       0       
      +0       0       0       0
  3003 ;;      Temps:          0       4       0       0       0       0       0       0       0       0       0       0       
      +0       0       0       0
  3004 ;;      Totals:         0       7       0       0       0       0       0       0       0       0       0       0       
      +0       0       0       0
  3005 ;;Total ram usage:        7 bytes
  3006 ;; Hardware stack levels used:    1
  3007 ;; Hardware stack levels required when called:   12
  3008 ;; This function calls:
  3009 ;;		_ringbuf_num
  3010 ;; This function is called by:
  3011 ;;		_USB_loop
  3012 ;;		_main
  3013 ;;		_ringbuf_put_num
  3014 ;;		_ringbuf_put_str
  3015 ;;		_UART_ISR
  3016 ;;		_tx_send
  3017 ;;		_tx_sends
  3018 ;; This function uses a non-reentrant model
  3019 ;;
  3020                           
  3021                           	psect	text16
  3022  0020A8                     __ptext16:
  3023                           	opt stack 0
  3024  0020A8                     _ringbuf_put:
  3025                           	opt stack 18
  3026                           
  3027                           ;My_header\My_ringbuf.h: 40: if (ringbuf_num(rb) < rb->size) {
  3028                           
  3029                           ; BSR set to: 0
  3030                           ;incstack = 0
  3031  0020A8  C0CC  F0BD         	movff	ringbuf_put@rb,ringbuf_num@rb
  3032  0020AC  C0CD  F0BE         	movff	ringbuf_put@rb+1,ringbuf_num@rb+1
  3033  0020B0  EC1C  F00E         	call	_ringbuf_num	;wreg free
  3034  0020B4  0100               	movlb	0	; () banked
  3035  0020B6  EE20 F002          	lfsr	2,2
  3036  0020BA  51CC               	movf	ringbuf_put@rb& (0+255),w,b
  3037  0020BC  26D9               	addwf	fsr2l,f,c
  3038  0020BE  51CD               	movf	(ringbuf_put@rb+1)& (0+255),w,b
  3039  0020C0  22DA               	addwfc	fsr2h,f,c
  3040  0020C2  50DE               	movf	postinc2,w,c
  3041  0020C4  0100               	movlb	0	; () banked
  3042  0020C6  5DBD               	subwf	?_ringbuf_num& (0+255),w,b
  3043  0020C8  50DE               	movf	postinc2,w,c
  3044  0020CA  0100               	movlb	0	; () banked
  3045  0020CC  59BE               	subwfb	(?_ringbuf_num+1)& (0+255),w,b
  3046  0020CE  B0D8               	btfsc	status,0,c
  3047  0020D0  0012               	return	
  3048                           
  3049                           ; BSR set to: 0
  3050                           ;My_header\My_ringbuf.h: 41: rb->buf[rb->head] = asciicode;
  3051  0020D2  0100               	movlb	0	; () banked
  3052  0020D4  EE20 F004          	lfsr	2,4
  3053  0020D8  51CC               	movf	ringbuf_put@rb& (0+255),w,b
  3054  0020DA  26D9               	addwf	fsr2l,f,c
  3055  0020DC  51CD               	movf	(ringbuf_put@rb+1)& (0+255),w,b
  3056  0020DE  22DA               	addwfc	fsr2h,f,c
  3057  0020E0  CFDE F0CF          	movff	postinc2,??_ringbuf_put
  3058  0020E4  CFDD F0D0          	movff	postdec2,??_ringbuf_put+1
  3059  0020E8  C0CC  FFD9         	movff	ringbuf_put@rb,fsr2l
  3060  0020EC  C0CD  FFDA         	movff	ringbuf_put@rb+1,fsr2h
  3061  0020F0  CFDE F0D1          	movff	postinc2,??_ringbuf_put+2
  3062  0020F4  CFDD F0D2          	movff	postdec2,??_ringbuf_put+3
  3063  0020F8  0100               	movlb	0	; () banked
  3064  0020FA  51CF               	movf	??_ringbuf_put& (0+255),w,b
  3065  0020FC  0100               	movlb	0	; () banked
  3066  0020FE  25D1               	addwf	(??_ringbuf_put+2)& (0+255),w,b
  3067  002100  6ED9               	movwf	fsr2l,c
  3068  002102  0100               	movlb	0	; () banked
  3069  002104  51D0               	movf	(??_ringbuf_put+1)& (0+255),w,b
  3070  002106  0100               	movlb	0	; () banked
  3071  002108  21D2               	addwfc	(??_ringbuf_put+3)& (0+255),w,b
  3072  00210A  6EDA               	movwf	fsr2h,c
  3073  00210C  C0CE  FFDF         	movff	ringbuf_put@asciicode,indf2
  3074                           
  3075                           ; BSR set to: 0
  3076                           ;My_header\My_ringbuf.h: 42: if (rb->head + 1 < rb->size) rb->head++;
  3077  002110  0100               	movlb	0	; () banked
  3078  002112  EE20 F002          	lfsr	2,2
  3079  002116  51CC               	movf	ringbuf_put@rb& (0+255),w,b
  3080  002118  26D9               	addwf	fsr2l,f,c
  3081  00211A  51CD               	movf	(ringbuf_put@rb+1)& (0+255),w,b
  3082  00211C  22DA               	addwfc	fsr2h,f,c
  3083  00211E  0100               	movlb	0	; () banked
  3084  002120  EE10 F004          	lfsr	1,4
  3085  002124  51CC               	movf	ringbuf_put@rb& (0+255),w,b
  3086  002126  26E1               	addwf	fsr1l,f,c
  3087  002128  51CD               	movf	(ringbuf_put@rb+1)& (0+255),w,b
  3088  00212A  22E2               	addwfc	fsr1h,f,c
  3089  00212C  CFE6 F0D1          	movff	postinc1,??_ringbuf_put+2
  3090  002130  CFE5 F0D2          	movff	postdec1,??_ringbuf_put+3
  3091  002134  0E01               	movlw	1
  3092  002136  0100               	movlb	0	; () banked
  3093  002138  27D1               	addwf	(??_ringbuf_put+2)& (0+255),f,b
  3094  00213A  0E00               	movlw	0
  3095  00213C  23D2               	addwfc	(??_ringbuf_put+3)& (0+255),f,b
  3096  00213E  50DE               	movf	postinc2,w,c
  3097  002140  0100               	movlb	0	; () banked
  3098  002142  5DD1               	subwf	(??_ringbuf_put+2)& (0+255),w,b
  3099  002144  50DE               	movf	postinc2,w,c
  3100  002146  0100               	movlb	0	; () banked
  3101  002148  59D2               	subwfb	(??_ringbuf_put+3)& (0+255),w,b
  3102  00214A  B0D8               	btfsc	status,0,c
  3103  00214C  D00B               	goto	l5320
  3104                           
  3105                           ; BSR set to: 0
  3106  00214E  0100               	movlb	0	; () banked
  3107  002150  EE20 F004          	lfsr	2,4
  3108  002154  51CC               	movf	ringbuf_put@rb& (0+255),w,b
  3109  002156  26D9               	addwf	fsr2l,f,c
  3110  002158  51CD               	movf	(ringbuf_put@rb+1)& (0+255),w,b
  3111  00215A  22DA               	addwfc	fsr2h,f,c
  3112  00215C  2ADE               	incf	postinc2,f,c
  3113  00215E  0E00               	movlw	0
  3114  002160  22DD               	addwfc	postdec2,f,c
  3115  002162  0012               	return	
  3116  002164                     l5320:
  3117                           
  3118                           ; BSR set to: 0
  3119                           ;My_header\My_ringbuf.h: 43: else rb->head = 0;
  3120  002164  0100               	movlb	0	; () banked
  3121  002166  EE20 F004          	lfsr	2,4
  3122  00216A  51CC               	movf	ringbuf_put@rb& (0+255),w,b
  3123  00216C  26D9               	addwf	fsr2l,f,c
  3124  00216E  51CD               	movf	(ringbuf_put@rb+1)& (0+255),w,b
  3125  002170  22DA               	addwfc	fsr2h,f,c
  3126  002172  0E00               	movlw	0
  3127  002174  6EDE               	movwf	postinc2,c
  3128  002176  0E00               	movlw	0
  3129  002178  6EDD               	movwf	postdec2,c
  3130                           
  3131                           ; BSR set to: 0
  3132  00217A  0012               	return	
  3133                           
  3134                           ; BSR set to: 0
  3135                           
  3136                           ; BSR set to: 0
  3137  00217C  0012               	return		;funcret
  3138  00217E                     __end_of_ringbuf_put:
  3139                           	opt stack 0
  3140                           tblptru	equ	0xFF8
  3141                           tblptrh	equ	0xFF7
  3142                           tblptrl	equ	0xFF6
  3143                           tablat	equ	0xFF5
  3144                           prodh	equ	0xFF4
  3145                           prodl	equ	0xFF3
  3146                           intcon	equ	0xFF2
  3147                           intcon2	equ	0xFF1
  3148                           postinc0	equ	0xFEE
  3149                           wreg	equ	0xFE8
  3150                           postinc1	equ	0xFE6
  3151                           postdec1	equ	0xFE5
  3152                           fsr1h	equ	0xFE2
  3153                           fsr1l	equ	0xFE1
  3154                           indf2	equ	0xFDF
  3155                           postinc2	equ	0xFDE
  3156                           postdec2	equ	0xFDD
  3157                           fsr2h	equ	0xFDA
  3158                           fsr2l	equ	0xFD9
  3159                           status	equ	0xFD8
  3160                           
  3161 ;; *************** function _ringbuf_pop *****************
  3162 ;; Defined at:
  3163 ;;		line 64 in file "../My_header\My_ringbuf.h"
  3164 ;; Parameters:    Size  Location     Type
  3165 ;;  rb              2    8[BANK0 ] PTR struct ringbuf
  3166 ;;		 -> usb_tx(8), usb_rx(8), tx_buf(8), 
  3167 ;; Auto vars:     Size  Location     Type
  3168 ;;  ret             1   14[BANK0 ] unsigned char 
  3169 ;; Return value:  Size  Location     Type
  3170 ;;                  1    wreg      unsigned char 
  3171 ;; Registers used:
  3172 ;;		wreg, fsr1l, fsr1h, fsr2l, fsr2h, status,2, status,0, cstack
  3173 ;; Tracked objects:
  3174 ;;		On entry : 0/0
  3175 ;;		On exit  : 0/0
  3176 ;;		Unchanged: 0/0
  3177 ;; Data sizes:     COMRAM   BANK0   BANK1   BANK2   BANK3   BANK4   BANK5   BANK6   BANK7   BANK8   BANK9  BANK10  BANK1
      +1  BANK12  BANK13  BANK14
  3178 ;;      Params:         0       2       0       0       0       0       0       0       0       0       0       0       
      +0       0       0       0
  3179 ;;      Locals:         0       1       0       0       0       0       0       0       0       0       0       0       
      +0       0       0       0
  3180 ;;      Temps:          0       4       0       0       0       0       0       0       0       0       0       0       
      +0       0       0       0
  3181 ;;      Totals:         0       7       0       0       0       0       0       0       0       0       0       0       
      +0       0       0       0
  3182 ;;Total ram usage:        7 bytes
  3183 ;; Hardware stack levels used:    1
  3184 ;; Hardware stack levels required when called:   12
  3185 ;; This function calls:
  3186 ;;		_ringbuf_num
  3187 ;; This function is called by:
  3188 ;;		_USB_loop
  3189 ;;		_main
  3190 ;;		_UART_ISR
  3191 ;; This function uses a non-reentrant model
  3192 ;;
  3193                           
  3194                           	psect	text17
  3195  00217E                     __ptext17:
  3196                           	opt stack 0
  3197  00217E                     _ringbuf_pop:
  3198                           	opt stack 18
  3199                           
  3200                           ;My_header\My_ringbuf.h: 65: if (ringbuf_num(rb)) {
  3201                           
  3202                           ; BSR set to: 0
  3203                           ;incstack = 0
  3204  00217E  C0C5  F0BD         	movff	ringbuf_pop@rb,ringbuf_num@rb
  3205  002182  C0C6  F0BE         	movff	ringbuf_pop@rb+1,ringbuf_num@rb+1
  3206  002186  EC1C  F00E         	call	_ringbuf_num	;wreg free
  3207  00218A  0100               	movlb	0	; () banked
  3208  00218C  51BD               	movf	?_ringbuf_num& (0+255),w,b
  3209  00218E  0100               	movlb	0	; () banked
  3210  002190  11BE               	iorwf	(?_ringbuf_num+1)& (0+255),w,b
  3211  002192  B4D8               	btfsc	status,2,c
  3212  002194  D059               	goto	l5338
  3213                           
  3214                           ; BSR set to: 0
  3215                           ;My_header\My_ringbuf.h: 66: char ret = rb->buf[rb->tail];
  3216  002196  0100               	movlb	0	; () banked
  3217  002198  EE20 F006          	lfsr	2,6
  3218  00219C  51C5               	movf	ringbuf_pop@rb& (0+255),w,b
  3219  00219E  26D9               	addwf	fsr2l,f,c
  3220  0021A0  51C6               	movf	(ringbuf_pop@rb+1)& (0+255),w,b
  3221  0021A2  22DA               	addwfc	fsr2h,f,c
  3222  0021A4  CFDE F0C7          	movff	postinc2,??_ringbuf_pop
  3223  0021A8  CFDD F0C8          	movff	postdec2,??_ringbuf_pop+1
  3224  0021AC  C0C5  FFD9         	movff	ringbuf_pop@rb,fsr2l
  3225  0021B0  C0C6  FFDA         	movff	ringbuf_pop@rb+1,fsr2h
  3226  0021B4  CFDE F0C9          	movff	postinc2,??_ringbuf_pop+2
  3227  0021B8  CFDD F0CA          	movff	postdec2,??_ringbuf_pop+3
  3228  0021BC  0100               	movlb	0	; () banked
  3229  0021BE  51C7               	movf	??_ringbuf_pop& (0+255),w,b
  3230  0021C0  0100               	movlb	0	; () banked
  3231  0021C2  25C9               	addwf	(??_ringbuf_pop+2)& (0+255),w,b
  3232  0021C4  6ED9               	movwf	fsr2l,c
  3233  0021C6  0100               	movlb	0	; () banked
  3234  0021C8  51C8               	movf	(??_ringbuf_pop+1)& (0+255),w,b
  3235  0021CA  0100               	movlb	0	; () banked
  3236  0021CC  21CA               	addwfc	(??_ringbuf_pop+3)& (0+255),w,b
  3237  0021CE  6EDA               	movwf	fsr2h,c
  3238  0021D0  50DF               	movf	indf2,w,c
  3239  0021D2  0100               	movlb	0	; () banked
  3240  0021D4  6FCB               	movwf	ringbuf_pop@ret& (0+255),b
  3241                           
  3242                           ; BSR set to: 0
  3243                           ;My_header\My_ringbuf.h: 67: if (rb->tail + 1 < rb->size) {
  3244  0021D6  0100               	movlb	0	; () banked
  3245  0021D8  EE20 F002          	lfsr	2,2
  3246  0021DC  51C5               	movf	ringbuf_pop@rb& (0+255),w,b
  3247  0021DE  26D9               	addwf	fsr2l,f,c
  3248  0021E0  51C6               	movf	(ringbuf_pop@rb+1)& (0+255),w,b
  3249  0021E2  22DA               	addwfc	fsr2h,f,c
  3250  0021E4  0100               	movlb	0	; () banked
  3251  0021E6  EE10 F006          	lfsr	1,6
  3252  0021EA  51C5               	movf	ringbuf_pop@rb& (0+255),w,b
  3253  0021EC  26E1               	addwf	fsr1l,f,c
  3254  0021EE  51C6               	movf	(ringbuf_pop@rb+1)& (0+255),w,b
  3255  0021F0  22E2               	addwfc	fsr1h,f,c
  3256  0021F2  CFE6 F0C9          	movff	postinc1,??_ringbuf_pop+2
  3257  0021F6  CFE5 F0CA          	movff	postdec1,??_ringbuf_pop+3
  3258  0021FA  0E01               	movlw	1
  3259  0021FC  0100               	movlb	0	; () banked
  3260  0021FE  27C9               	addwf	(??_ringbuf_pop+2)& (0+255),f,b
  3261  002200  0E00               	movlw	0
  3262  002202  23CA               	addwfc	(??_ringbuf_pop+3)& (0+255),f,b
  3263  002204  50DE               	movf	postinc2,w,c
  3264  002206  0100               	movlb	0	; () banked
  3265  002208  5DC9               	subwf	(??_ringbuf_pop+2)& (0+255),w,b
  3266  00220A  50DE               	movf	postinc2,w,c
  3267  00220C  0100               	movlb	0	; () banked
  3268  00220E  59CA               	subwfb	(??_ringbuf_pop+3)& (0+255),w,b
  3269  002210  B0D8               	btfsc	status,0,c
  3270  002212  D00B               	goto	l5330
  3271                           
  3272                           ; BSR set to: 0
  3273                           ;My_header\My_ringbuf.h: 68: rb->tail++;
  3274  002214  0100               	movlb	0	; () banked
  3275  002216  EE20 F006          	lfsr	2,6
  3276  00221A  51C5               	movf	ringbuf_pop@rb& (0+255),w,b
  3277  00221C  26D9               	addwf	fsr2l,f,c
  3278  00221E  51C6               	movf	(ringbuf_pop@rb+1)& (0+255),w,b
  3279  002220  22DA               	addwfc	fsr2h,f,c
  3280  002222  2ADE               	incf	postinc2,f,c
  3281  002224  0E00               	movlw	0
  3282  002226  22DD               	addwfc	postdec2,f,c
  3283                           
  3284                           ;My_header\My_ringbuf.h: 69: } else {
  3285  002228  D00C               	goto	l5332
  3286  00222A                     l5330:
  3287                           
  3288                           ; BSR set to: 0
  3289                           ;My_header\My_ringbuf.h: 70: rb->tail = 0;
  3290  00222A  0100               	movlb	0	; () banked
  3291  00222C  EE20 F006          	lfsr	2,6
  3292  002230  51C5               	movf	ringbuf_pop@rb& (0+255),w,b
  3293  002232  26D9               	addwf	fsr2l,f,c
  3294  002234  51C6               	movf	(ringbuf_pop@rb+1)& (0+255),w,b
  3295  002236  22DA               	addwfc	fsr2h,f,c
  3296  002238  0E00               	movlw	0
  3297  00223A  6EDE               	movwf	postinc2,c
  3298  00223C  0E00               	movlw	0
  3299  00223E  6EDD               	movwf	postdec2,c
  3300  002240  D000               	goto	l5332
  3301  002242                     l5332:
  3302                           
  3303                           ; BSR set to: 0
  3304                           ;My_header\My_ringbuf.h: 71: }
  3305                           ;My_header\My_ringbuf.h: 72: return ret;
  3306  002242  0100               	movlb	0	; () banked
  3307  002244  51CB               	movf	ringbuf_pop@ret& (0+255),w,b
  3308                           
  3309                           ; BSR set to: 0
  3310                           ;My_header\My_ringbuf.h: 73: } else {
  3311                           
  3312                           ; BSR set to: 0
  3313  002246  0012               	return	
  3314  002248                     l5338:
  3315                           
  3316                           ; BSR set to: 0
  3317                           ;My_header\My_ringbuf.h: 74: return 0;
  3318  002248  0E00               	movlw	0
  3319                           
  3320                           ; BSR set to: 0
  3321  00224A  0012               	return	
  3322                           
  3323                           ; BSR set to: 0
  3324                           
  3325                           ; BSR set to: 0
  3326  00224C  0012               	return		;funcret
  3327  00224E                     __end_of_ringbuf_pop:
  3328                           	opt stack 0
  3329                           tblptru	equ	0xFF8
  3330                           tblptrh	equ	0xFF7
  3331                           tblptrl	equ	0xFF6
  3332                           tablat	equ	0xFF5
  3333                           prodh	equ	0xFF4
  3334                           prodl	equ	0xFF3
  3335                           intcon	equ	0xFF2
  3336                           intcon2	equ	0xFF1
  3337                           postinc0	equ	0xFEE
  3338                           wreg	equ	0xFE8
  3339                           postinc1	equ	0xFE6
  3340                           postdec1	equ	0xFE5
  3341                           fsr1h	equ	0xFE2
  3342                           fsr1l	equ	0xFE1
  3343                           indf2	equ	0xFDF
  3344                           postinc2	equ	0xFDE
  3345                           postdec2	equ	0xFDD
  3346                           fsr2h	equ	0xFDA
  3347                           fsr2l	equ	0xFD9
  3348                           status	equ	0xFD8
  3349                           
  3350 ;; *************** function _ringbuf_num *****************
  3351 ;; Defined at:
  3352 ;;		line 31 in file "../My_header\My_ringbuf.h"
  3353 ;; Parameters:    Size  Location     Type
  3354 ;;  rb              2    0[BANK0 ] PTR struct ringbuf
  3355 ;;		 -> usb_tx(8), usb_rx(8), rx_buf(8), tx_buf(8), 
  3356 ;; Auto vars:     Size  Location     Type
  3357 ;;		None
  3358 ;; Return value:  Size  Location     Type
  3359 ;;                  2    0[BANK0 ] unsigned int 
  3360 ;; Registers used:
  3361 ;;		wreg, fsr1l, fsr1h, fsr2l, fsr2h, status,2, status,0
  3362 ;; Tracked objects:
  3363 ;;		On entry : 0/0
  3364 ;;		On exit  : 0/0
  3365 ;;		Unchanged: 0/0
  3366 ;; Data sizes:     COMRAM   BANK0   BANK1   BANK2   BANK3   BANK4   BANK5   BANK6   BANK7   BANK8   BANK9  BANK10  BANK1
      +1  BANK12  BANK13  BANK14
  3367 ;;      Params:         0       2       0       0       0       0       0       0       0       0       0       0       
      +0       0       0       0
  3368 ;;      Locals:         0       0       0       0       0       0       0       0       0       0       0       0       
      +0       0       0       0
  3369 ;;      Temps:          0       6       0       0       0       0       0       0       0       0       0       0       
      +0       0       0       0
  3370 ;;      Totals:         0       8       0       0       0       0       0       0       0       0       0       0       
      +0       0       0       0
  3371 ;;Total ram usage:        8 bytes
  3372 ;; Hardware stack levels used:    1
  3373 ;; Hardware stack levels required when called:   11
  3374 ;; This function calls:
  3375 ;;		Nothing
  3376 ;; This function is called by:
  3377 ;;		_ringbuf_put
  3378 ;;		_ringbuf_pop
  3379 ;;		_USB_loop
  3380 ;;		_main
  3381 ;;		_ringbuf_backspace
  3382 ;;		_UART_ISR
  3383 ;; This function uses a non-reentrant model
  3384 ;;
  3385                           
  3386                           	psect	text18
  3387  001C38                     __ptext18:
  3388                           	opt stack 0
  3389  001C38                     _ringbuf_num:
  3390                           	opt stack 18
  3391                           
  3392                           ;My_header\My_ringbuf.h: 32: if (rb->head >= rb->tail) {
  3393                           
  3394                           ; BSR set to: 0
  3395                           ;incstack = 0
  3396  001C38  0100               	movlb	0	; () banked
  3397  001C3A  EE20 F006          	lfsr	2,6
  3398  001C3E  51BD               	movf	ringbuf_num@rb& (0+255),w,b
  3399  001C40  26D9               	addwf	fsr2l,f,c
  3400  001C42  51BE               	movf	(ringbuf_num@rb+1)& (0+255),w,b
  3401  001C44  22DA               	addwfc	fsr2h,f,c
  3402  001C46  0100               	movlb	0	; () banked
  3403  001C48  EE10 F004          	lfsr	1,4
  3404  001C4C  51BD               	movf	ringbuf_num@rb& (0+255),w,b
  3405  001C4E  26E1               	addwf	fsr1l,f,c
  3406  001C50  51BE               	movf	(ringbuf_num@rb+1)& (0+255),w,b
  3407  001C52  22E2               	addwfc	fsr1h,f,c
  3408  001C54  50DE               	movf	postinc2,w,c
  3409  001C56  5CE6               	subwf	postinc1,w,c
  3410  001C58  50DE               	movf	postinc2,w,c
  3411  001C5A  58E6               	subwfb	postinc1,w,c
  3412  001C5C  A0D8               	btfss	status,0,c
  3413  001C5E  D028               	goto	l5194
  3414                           
  3415                           ; BSR set to: 0
  3416                           ;My_header\My_ringbuf.h: 33: return (rb->head - rb->tail);
  3417  001C60  0100               	movlb	0	; () banked
  3418  001C62  EE20 F004          	lfsr	2,4
  3419  001C66  51BD               	movf	ringbuf_num@rb& (0+255),w,b
  3420  001C68  26D9               	addwf	fsr2l,f,c
  3421  001C6A  51BE               	movf	(ringbuf_num@rb+1)& (0+255),w,b
  3422  001C6C  22DA               	addwfc	fsr2h,f,c
  3423  001C6E  CFDE F0BF          	movff	postinc2,??_ringbuf_num
  3424  001C72  CFDD F0C0          	movff	postdec2,??_ringbuf_num+1
  3425  001C76  0100               	movlb	0	; () banked
  3426  001C78  EE20 F006          	lfsr	2,6
  3427  001C7C  51BD               	movf	ringbuf_num@rb& (0+255),w,b
  3428  001C7E  26D9               	addwf	fsr2l,f,c
  3429  001C80  51BE               	movf	(ringbuf_num@rb+1)& (0+255),w,b
  3430  001C82  22DA               	addwfc	fsr2h,f,c
  3431  001C84  CFDE F0C1          	movff	postinc2,??_ringbuf_num+2
  3432  001C88  CFDD F0C2          	movff	postdec2,??_ringbuf_num+3
  3433  001C8C  0100               	movlb	0	; () banked
  3434  001C8E  1FC1               	comf	(??_ringbuf_num+2)& (0+255),f,b
  3435  001C90  1FC2               	comf	(??_ringbuf_num+3)& (0+255),f,b
  3436  001C92  4BC1               	infsnz	(??_ringbuf_num+2)& (0+255),f,b
  3437  001C94  2BC2               	incf	(??_ringbuf_num+3)& (0+255),f,b
  3438  001C96  0100               	movlb	0	; () banked
  3439  001C98  51BF               	movf	??_ringbuf_num& (0+255),w,b
  3440  001C9A  0100               	movlb	0	; () banked
  3441  001C9C  25C1               	addwf	(??_ringbuf_num+2)& (0+255),w,b
  3442  001C9E  0100               	movlb	0	; () banked
  3443  001CA0  6FBD               	movwf	?_ringbuf_num& (0+255),b
  3444  001CA2  0100               	movlb	0	; () banked
  3445  001CA4  51C0               	movf	(??_ringbuf_num+1)& (0+255),w,b
  3446  001CA6  0100               	movlb	0	; () banked
  3447  001CA8  21C2               	addwfc	(??_ringbuf_num+3)& (0+255),w,b
  3448  001CAA  0100               	movlb	0	; () banked
  3449  001CAC  6FBE               	movwf	(?_ringbuf_num+1)& (0+255),b
  3450                           
  3451                           ; BSR set to: 0
  3452                           ;My_header\My_ringbuf.h: 34: } else {
  3453                           
  3454                           ; BSR set to: 0
  3455  001CAE  0012               	return	
  3456  001CB0                     l5194:
  3457                           
  3458                           ; BSR set to: 0
  3459                           ;My_header\My_ringbuf.h: 35: return (rb->size + rb->head - rb->tail);
  3460  001CB0  0100               	movlb	0	; () banked
  3461  001CB2  EE20 F004          	lfsr	2,4
  3462  001CB6  51BD               	movf	ringbuf_num@rb& (0+255),w,b
  3463  001CB8  26D9               	addwf	fsr2l,f,c
  3464  001CBA  51BE               	movf	(ringbuf_num@rb+1)& (0+255),w,b
  3465  001CBC  22DA               	addwfc	fsr2h,f,c
  3466  001CBE  CFDE F0BF          	movff	postinc2,??_ringbuf_num
  3467  001CC2  CFDD F0C0          	movff	postdec2,??_ringbuf_num+1
  3468  001CC6  0100               	movlb	0	; () banked
  3469  001CC8  EE20 F002          	lfsr	2,2
  3470  001CCC  51BD               	movf	ringbuf_num@rb& (0+255),w,b
  3471  001CCE  26D9               	addwf	fsr2l,f,c
  3472  001CD0  51BE               	movf	(ringbuf_num@rb+1)& (0+255),w,b
  3473  001CD2  22DA               	addwfc	fsr2h,f,c
  3474  001CD4  CFDE F0C1          	movff	postinc2,??_ringbuf_num+2
  3475  001CD8  CFDD F0C2          	movff	postdec2,??_ringbuf_num+3
  3476  001CDC  0100               	movlb	0	; () banked
  3477  001CDE  EE20 F006          	lfsr	2,6
  3478  001CE2  51BD               	movf	ringbuf_num@rb& (0+255),w,b
  3479  001CE4  26D9               	addwf	fsr2l,f,c
  3480  001CE6  51BE               	movf	(ringbuf_num@rb+1)& (0+255),w,b
  3481  001CE8  22DA               	addwfc	fsr2h,f,c
  3482  001CEA  CFDE F0C3          	movff	postinc2,??_ringbuf_num+4
  3483  001CEE  CFDD F0C4          	movff	postdec2,??_ringbuf_num+5
  3484  001CF2  0100               	movlb	0	; () banked
  3485  001CF4  1FC3               	comf	(??_ringbuf_num+4)& (0+255),f,b
  3486  001CF6  1FC4               	comf	(??_ringbuf_num+5)& (0+255),f,b
  3487  001CF8  4BC3               	infsnz	(??_ringbuf_num+4)& (0+255),f,b
  3488  001CFA  2BC4               	incf	(??_ringbuf_num+5)& (0+255),f,b
  3489  001CFC  0100               	movlb	0	; () banked
  3490  001CFE  51C1               	movf	(??_ringbuf_num+2)& (0+255),w,b
  3491  001D00  0100               	movlb	0	; () banked
  3492  001D02  27C3               	addwf	(??_ringbuf_num+4)& (0+255),f,b
  3493  001D04  0100               	movlb	0	; () banked
  3494  001D06  51C2               	movf	(??_ringbuf_num+3)& (0+255),w,b
  3495  001D08  0100               	movlb	0	; () banked
  3496  001D0A  23C4               	addwfc	(??_ringbuf_num+5)& (0+255),f,b
  3497  001D0C  0100               	movlb	0	; () banked
  3498  001D0E  51BF               	movf	??_ringbuf_num& (0+255),w,b
  3499  001D10  0100               	movlb	0	; () banked
  3500  001D12  25C3               	addwf	(??_ringbuf_num+4)& (0+255),w,b
  3501  001D14  0100               	movlb	0	; () banked
  3502  001D16  6FBD               	movwf	?_ringbuf_num& (0+255),b
  3503  001D18  0100               	movlb	0	; () banked
  3504  001D1A  51C0               	movf	(??_ringbuf_num+1)& (0+255),w,b
  3505  001D1C  0100               	movlb	0	; () banked
  3506  001D1E  21C4               	addwfc	(??_ringbuf_num+5)& (0+255),w,b
  3507  001D20  0100               	movlb	0	; () banked
  3508  001D22  6FBE               	movwf	(?_ringbuf_num+1)& (0+255),b
  3509                           
  3510                           ; BSR set to: 0
  3511  001D24  0012               	return	
  3512                           
  3513                           ; BSR set to: 0
  3514                           
  3515                           ; BSR set to: 0
  3516  001D26  0012               	return		;funcret
  3517  001D28                     __end_of_ringbuf_num:
  3518                           	opt stack 0
  3519                           tblptru	equ	0xFF8
  3520                           tblptrh	equ	0xFF7
  3521                           tblptrl	equ	0xFF6
  3522                           tablat	equ	0xFF5
  3523                           prodh	equ	0xFF4
  3524                           prodl	equ	0xFF3
  3525                           intcon	equ	0xFF2
  3526                           intcon2	equ	0xFF1
  3527                           postinc0	equ	0xFEE
  3528                           wreg	equ	0xFE8
  3529                           postinc1	equ	0xFE6
  3530                           postdec1	equ	0xFE5
  3531                           fsr1h	equ	0xFE2
  3532                           fsr1l	equ	0xFE1
  3533                           indf2	equ	0xFDF
  3534                           postinc2	equ	0xFDE
  3535                           postdec2	equ	0xFDD
  3536                           fsr2h	equ	0xFDA
  3537                           fsr2l	equ	0xFD9
  3538                           status	equ	0xFD8
  3539                           
  3540 ;; *************** function _put_string_usb *****************
  3541 ;; Defined at:
  3542 ;;		line 16 in file "../My_header/usb_cdc/my_usb_cdc.c"
  3543 ;; Parameters:    Size  Location     Type
  3544 ;;  s               2   12[BANK0 ] PTR unsigned char 
  3545 ;;		 -> USB_loop@data(1), 
  3546 ;;  len             2   14[BANK0 ] int 
  3547 ;; Auto vars:     Size  Location     Type
  3548 ;;		None
  3549 ;; Return value:  Size  Location     Type
  3550 ;;                  2   12[BANK0 ] int 
  3551 ;; Registers used:
  3552 ;;		wreg, fsr1l, fsr1h, fsr2l, fsr2h, status,2, status,0, prodl, prodh, cstack
  3553 ;; Tracked objects:
  3554 ;;		On entry : 0/0
  3555 ;;		On exit  : 0/0
  3556 ;;		Unchanged: 0/0
  3557 ;; Data sizes:     COMRAM   BANK0   BANK1   BANK2   BANK3   BANK4   BANK5   BANK6   BANK7   BANK8   BANK9  BANK10  BANK1
      +1  BANK12  BANK13  BANK14
  3558 ;;      Params:         0       4       0       0       0       0       0       0       0       0       0       0       
      +0       0       0       0
  3559 ;;      Locals:         0       0       0       0       0       0       0       0       0       0       0       0       
      +0       0       0       0
  3560 ;;      Temps:          0       0       0       0       0       0       0       0       0       0       0       0       
      +0       0       0       0
  3561 ;;      Totals:         0       4       0       0       0       0       0       0       0       0       0       0       
      +0       0       0       0
  3562 ;;Total ram usage:        4 bytes
  3563 ;; Hardware stack levels used:    1
  3564 ;; Hardware stack levels required when called:   13
  3565 ;; This function calls:
  3566 ;;		_CDCTxService
  3567 ;;		_is_usb_available
  3568 ;;		_putUSBUSART
  3569 ;; This function is called by:
  3570 ;;		_USB_loop
  3571 ;; This function uses a non-reentrant model
  3572 ;;
  3573                           
  3574                           	psect	text19
  3575  002D78                     __ptext19:
  3576                           	opt stack 0
  3577  002D78                     _put_string_usb:
  3578                           	opt stack 16
  3579                           
  3580                           ;my_usb_cdc.c: 17: if (!is_usb_available()) {
  3581                           
  3582                           ; BSR set to: 0
  3583                           ;incstack = 0
  3584  002D78  EC4D  F018         	call	_is_usb_available	;wreg free
  3585  002D7C  0900               	iorlw	0
  3586  002D7E  A4D8               	btfss	status,2,c
  3587  002D80  D00A               	goto	l5220
  3588                           
  3589                           ;my_usb_cdc.c: 19: return 1;
  3590  002D82  0E00               	movlw	0
  3591  002D84  0100               	movlb	0	; () banked
  3592  002D86  6FCA               	movwf	(?_put_string_usb+1)& (0+255),b
  3593  002D88  0E01               	movlw	1
  3594  002D8A  6FC9               	movwf	?_put_string_usb& (0+255),b
  3595                           
  3596                           ; BSR set to: 0
  3597  002D8C  0012               	return	
  3598                           
  3599                           ; BSR set to: 0
  3600                           ;my_usb_cdc.c: 20: }
  3601                           ;my_usb_cdc.c: 21: while (!(cdc_trf_state == 0)) CDCTxService();
  3602  002D8E  D003               	goto	l5220
  3603  002D90                     l5218:
  3604  002D90  EC3B  F009         	call	_CDCTxService	;wreg free
  3605  002D94  D000               	goto	l5220
  3606  002D96                     l5220:
  3607  002D96  5021               	movf	_cdc_trf_state,w,c
  3608  002D98  A4D8               	btfss	status,2,c
  3609  002D9A  D7FA               	goto	l5218
  3610                           
  3611                           ;my_usb_cdc.c: 22: putUSBUSART(s, len);
  3612  002D9C  C0C9  F0BD         	movff	put_string_usb@s,putUSBUSART@data
  3613  002DA0  C0CA  F0BE         	movff	put_string_usb@s+1,putUSBUSART@data+1
  3614  002DA4  C0CB  F0BF         	movff	put_string_usb@len,putUSBUSART@length
  3615  002DA8  EC2B  F018         	call	_putUSBUSART	;wreg free
  3616                           
  3617                           ;my_usb_cdc.c: 23: CDCTxService();
  3618  002DAC  EC3B  F009         	call	_CDCTxService	;wreg free
  3619                           
  3620                           ;my_usb_cdc.c: 24: return 0;
  3621  002DB0  0E00               	movlw	0
  3622  002DB2  0100               	movlb	0	; () banked
  3623  002DB4  6FCA               	movwf	(?_put_string_usb+1)& (0+255),b
  3624  002DB6  0E00               	movlw	0
  3625  002DB8  6FC9               	movwf	?_put_string_usb& (0+255),b
  3626  002DBA  0012               	return	
  3627                           
  3628                           ; BSR set to: 0
  3629                           
  3630                           ; BSR set to: 0
  3631  002DBC  0012               	return		;funcret
  3632  002DBE                     __end_of_put_string_usb:
  3633                           	opt stack 0
  3634                           tblptru	equ	0xFF8
  3635                           tblptrh	equ	0xFF7
  3636                           tblptrl	equ	0xFF6
  3637                           tablat	equ	0xFF5
  3638                           prodh	equ	0xFF4
  3639                           prodl	equ	0xFF3
  3640                           intcon	equ	0xFF2
  3641                           intcon2	equ	0xFF1
  3642                           postinc0	equ	0xFEE
  3643                           wreg	equ	0xFE8
  3644                           postinc1	equ	0xFE6
  3645                           postdec1	equ	0xFE5
  3646                           fsr1h	equ	0xFE2
  3647                           fsr1l	equ	0xFE1
  3648                           indf2	equ	0xFDF
  3649                           postinc2	equ	0xFDE
  3650                           postdec2	equ	0xFDD
  3651                           fsr2h	equ	0xFDA
  3652                           fsr2l	equ	0xFD9
  3653                           status	equ	0xFD8
  3654                           
  3655 ;; *************** function _putUSBUSART *****************
  3656 ;; Defined at:
  3657 ;;		line 613 in file "../My_header/usb_cdc/usb/usb_device_cdc.c"
  3658 ;; Parameters:    Size  Location     Type
  3659 ;;  data            2    0[BANK0 ] PTR unsigned char 
  3660 ;;		 -> USB_loop@data(1), 
  3661 ;;  length          1    2[BANK0 ] unsigned char 
  3662 ;; Auto vars:     Size  Location     Type
  3663 ;;		None
  3664 ;; Return value:  Size  Location     Type
  3665 ;;		None               void
  3666 ;; Registers used:
  3667 ;;		wreg, status,2, status,0
  3668 ;; Tracked objects:
  3669 ;;		On entry : 0/0
  3670 ;;		On exit  : 0/0
  3671 ;;		Unchanged: 0/0
  3672 ;; Data sizes:     COMRAM   BANK0   BANK1   BANK2   BANK3   BANK4   BANK5   BANK6   BANK7   BANK8   BANK9  BANK10  BANK1
      +1  BANK12  BANK13  BANK14
  3673 ;;      Params:         0       3       0       0       0       0       0       0       0       0       0       0       
      +0       0       0       0
  3674 ;;      Locals:         0       0       0       0       0       0       0       0       0       0       0       0       
      +0       0       0       0
  3675 ;;      Temps:          0       0       0       0       0       0       0       0       0       0       0       0       
      +0       0       0       0
  3676 ;;      Totals:         0       3       0       0       0       0       0       0       0       0       0       0       
      +0       0       0       0
  3677 ;;Total ram usage:        3 bytes
  3678 ;; Hardware stack levels used:    1
  3679 ;; Hardware stack levels required when called:   11
  3680 ;; This function calls:
  3681 ;;		Nothing
  3682 ;; This function is called by:
  3683 ;;		_put_string_usb
  3684 ;; This function uses a non-reentrant model
  3685 ;;
  3686                           
  3687                           	psect	text20
  3688  003056                     __ptext20:
  3689                           	opt stack 0
  3690  003056                     _putUSBUSART:
  3691                           	opt stack 17
  3692                           
  3693                           ;usb_device_cdc.c: 638: {PIE2bits.USBIE = 0;};
  3694                           
  3695                           ; BSR set to: 0
  3696                           ;incstack = 0
  3697  003056  98A0               	bcf	4000,4,c	;volatile
  3698                           
  3699                           ;usb_device_cdc.c: 639: if(cdc_trf_state == 0)
  3700  003058  5021               	movf	_cdc_trf_state,w,c
  3701  00305A  A4D8               	btfss	status,2,c
  3702  00305C  D00C               	goto	l5104
  3703                           
  3704                           ;usb_device_cdc.c: 640: {
  3705                           ;usb_device_cdc.c: 641: { pCDCSrc.bRam = (uint8_t*)data; cdc_tx_len = length; cdc_mem_ty
      +                          pe = 0x01; cdc_trf_state = 1; };
  3706  00305E  C0BD  F07D         	movff	putUSBUSART@data,_pCDCSrc
  3707  003062  C0BE  F07E         	movff	putUSBUSART@data+1,_pCDCSrc+1
  3708  003066  C0BF  F08A         	movff	putUSBUSART@length,_cdc_tx_len
  3709  00306A  0E01               	movlw	1
  3710  00306C  0100               	movlb	0	; () banked
  3711  00306E  6F88               	movwf	_cdc_mem_type& (0+255),b
  3712                           
  3713                           ; BSR set to: 0
  3714  003070  0E01               	movlw	1
  3715  003072  6E21               	movwf	_cdc_trf_state,c
  3716  003074  D000               	goto	l5104
  3717  003076                     l5104:
  3718                           
  3719                           ;usb_device_cdc.c: 642: }
  3720                           ;usb_device_cdc.c: 643: {PIE2bits.USBIE = 1;};
  3721  003076  88A0               	bsf	4000,4,c	;volatile
  3722  003078  0012               	return		;funcret
  3723  00307A                     __end_of_putUSBUSART:
  3724                           	opt stack 0
  3725                           tblptru	equ	0xFF8
  3726                           tblptrh	equ	0xFF7
  3727                           tblptrl	equ	0xFF6
  3728                           tablat	equ	0xFF5
  3729                           prodh	equ	0xFF4
  3730                           prodl	equ	0xFF3
  3731                           intcon	equ	0xFF2
  3732                           intcon2	equ	0xFF1
  3733                           postinc0	equ	0xFEE
  3734                           wreg	equ	0xFE8
  3735                           postinc1	equ	0xFE6
  3736                           postdec1	equ	0xFE5
  3737                           fsr1h	equ	0xFE2
  3738                           fsr1l	equ	0xFE1
  3739                           indf2	equ	0xFDF
  3740                           postinc2	equ	0xFDE
  3741                           postdec2	equ	0xFDD
  3742                           fsr2h	equ	0xFDA
  3743                           fsr2l	equ	0xFD9
  3744                           status	equ	0xFD8
  3745                           
  3746 ;; *************** function _get_string_usb *****************
  3747 ;; Defined at:
  3748 ;;		line 27 in file "../My_header/usb_cdc/my_usb_cdc.c"
  3749 ;; Parameters:    Size  Location     Type
  3750 ;;  s               2   13[BANK0 ] PTR unsigned char 
  3751 ;;		 -> USB_loop@data(1), 
  3752 ;;  len             2   15[BANK0 ] int 
  3753 ;; Auto vars:     Size  Location     Type
  3754 ;;  rx_len          2   18[BANK0 ] int 
  3755 ;; Return value:  Size  Location     Type
  3756 ;;                  2   13[BANK0 ] int 
  3757 ;; Registers used:
  3758 ;;		wreg, fsr1l, fsr1h, fsr2l, fsr2h, status,2, status,0, prodl, prodh, cstack
  3759 ;; Tracked objects:
  3760 ;;		On entry : 0/0
  3761 ;;		On exit  : 0/0
  3762 ;;		Unchanged: 0/0
  3763 ;; Data sizes:     COMRAM   BANK0   BANK1   BANK2   BANK3   BANK4   BANK5   BANK6   BANK7   BANK8   BANK9  BANK10  BANK1
      +1  BANK12  BANK13  BANK14
  3764 ;;      Params:         0       4       0       0       0       0       0       0       0       0       0       0       
      +0       0       0       0
  3765 ;;      Locals:         0       2       0       0       0       0       0       0       0       0       0       0       
      +0       0       0       0
  3766 ;;      Temps:          0       1       0       0       0       0       0       0       0       0       0       0       
      +0       0       0       0
  3767 ;;      Totals:         0       7       0       0       0       0       0       0       0       0       0       0       
      +0       0       0       0
  3768 ;;Total ram usage:        7 bytes
  3769 ;; Hardware stack levels used:    1
  3770 ;; Hardware stack levels required when called:   13
  3771 ;; This function calls:
  3772 ;;		_CDCTxService
  3773 ;;		_getsUSBUSART
  3774 ;;		_is_usb_available
  3775 ;; This function is called by:
  3776 ;;		_USB_loop
  3777 ;; This function uses a non-reentrant model
  3778 ;;
  3779                           
  3780                           	psect	text21
  3781  002CDE                     __ptext21:
  3782                           	opt stack 0
  3783  002CDE                     _get_string_usb:
  3784                           	opt stack 16
  3785                           
  3786                           ;my_usb_cdc.c: 28: int rx_len;
  3787                           ;my_usb_cdc.c: 29: if (!is_usb_available()) {
  3788                           
  3789                           ;incstack = 0
  3790  002CDE  EC4D  F018         	call	_is_usb_available	;wreg free
  3791  002CE2  0900               	iorlw	0
  3792  002CE4  A4D8               	btfss	status,2,c
  3793  002CE6  D00A               	goto	l5238
  3794                           
  3795                           ;my_usb_cdc.c: 31: return 0;
  3796  002CE8  0E00               	movlw	0
  3797  002CEA  0100               	movlb	0	; () banked
  3798  002CEC  6FCB               	movwf	(?_get_string_usb+1)& (0+255),b
  3799  002CEE  0E00               	movlw	0
  3800  002CF0  6FCA               	movwf	?_get_string_usb& (0+255),b
  3801                           
  3802                           ; BSR set to: 0
  3803  002CF2  0012               	return	
  3804                           
  3805                           ; BSR set to: 0
  3806                           ;my_usb_cdc.c: 32: }
  3807                           ;my_usb_cdc.c: 33: while (!(cdc_trf_state == 0)) CDCTxService();
  3808  002CF4  D003               	goto	l5238
  3809  002CF6                     l5236:
  3810  002CF6  EC3B  F009         	call	_CDCTxService	;wreg free
  3811  002CFA  D000               	goto	l5238
  3812  002CFC                     l5238:
  3813  002CFC  5021               	movf	_cdc_trf_state,w,c
  3814  002CFE  A4D8               	btfss	status,2,c
  3815  002D00  D7FA               	goto	l5236
  3816                           
  3817                           ;my_usb_cdc.c: 34: rx_len = getsUSBUSART(s, len);
  3818  002D02  C0CA  F0C4         	movff	get_string_usb@s,getsUSBUSART@buffer
  3819  002D06  C0CB  F0C5         	movff	get_string_usb@s+1,getsUSBUSART@buffer+1
  3820  002D0A  C0CC  F0C6         	movff	get_string_usb@len,getsUSBUSART@len
  3821  002D0E  ECA2  F00D         	call	_getsUSBUSART	;wreg free
  3822  002D12  0100               	movlb	0	; () banked
  3823  002D14  6FCE               	movwf	??_get_string_usb& (0+255),b
  3824  002D16  0100               	movlb	0	; () banked
  3825  002D18  51CE               	movf	??_get_string_usb& (0+255),w,b
  3826  002D1A  0100               	movlb	0	; () banked
  3827  002D1C  6FCF               	movwf	get_string_usb@rx_len& (0+255),b
  3828  002D1E  6BD0               	clrf	(get_string_usb@rx_len+1)& (0+255),b
  3829                           
  3830                           ;my_usb_cdc.c: 35: CDCTxService();
  3831  002D20  EC3B  F009         	call	_CDCTxService	;wreg free
  3832                           
  3833                           ;my_usb_cdc.c: 36: return rx_len;
  3834  002D24  C0CF  F0CA         	movff	get_string_usb@rx_len,?_get_string_usb
  3835  002D28  C0D0  F0CB         	movff	get_string_usb@rx_len+1,?_get_string_usb+1
  3836  002D2C  0012               	return	
  3837  002D2E  0012               	return		;funcret
  3838  002D30                     __end_of_get_string_usb:
  3839                           	opt stack 0
  3840                           tblptru	equ	0xFF8
  3841                           tblptrh	equ	0xFF7
  3842                           tblptrl	equ	0xFF6
  3843                           tablat	equ	0xFF5
  3844                           prodh	equ	0xFF4
  3845                           prodl	equ	0xFF3
  3846                           intcon	equ	0xFF2
  3847                           intcon2	equ	0xFF1
  3848                           postinc0	equ	0xFEE
  3849                           wreg	equ	0xFE8
  3850                           postinc1	equ	0xFE6
  3851                           postdec1	equ	0xFE5
  3852                           fsr1h	equ	0xFE2
  3853                           fsr1l	equ	0xFE1
  3854                           indf2	equ	0xFDF
  3855                           postinc2	equ	0xFDE
  3856                           postdec2	equ	0xFDD
  3857                           fsr2h	equ	0xFDA
  3858                           fsr2l	equ	0xFD9
  3859                           status	equ	0xFD8
  3860                           
  3861 ;; *************** function _is_usb_available *****************
  3862 ;; Defined at:
  3863 ;;		line 12 in file "../My_header/usb_cdc/my_usb_cdc.c"
  3864 ;; Parameters:    Size  Location     Type
  3865 ;;		None
  3866 ;; Auto vars:     Size  Location     Type
  3867 ;;		None
  3868 ;; Return value:  Size  Location     Type
  3869 ;;                  1    wreg      unsigned char 
  3870 ;; Registers used:
  3871 ;;		wreg, status,2, status,0
  3872 ;; Tracked objects:
  3873 ;;		On entry : 0/0
  3874 ;;		On exit  : 0/0
  3875 ;;		Unchanged: 0/0
  3876 ;; Data sizes:     COMRAM   BANK0   BANK1   BANK2   BANK3   BANK4   BANK5   BANK6   BANK7   BANK8   BANK9  BANK10  BANK1
      +1  BANK12  BANK13  BANK14
  3877 ;;      Params:         0       0       0       0       0       0       0       0       0       0       0       0       
      +0       0       0       0
  3878 ;;      Locals:         0       1       0       0       0       0       0       0       0       0       0       0       
      +0       0       0       0
  3879 ;;      Temps:          0       0       0       0       0       0       0       0       0       0       0       0       
      +0       0       0       0
  3880 ;;      Totals:         0       1       0       0       0       0       0       0       0       0       0       0       
      +0       0       0       0
  3881 ;;Total ram usage:        1 bytes
  3882 ;; Hardware stack levels used:    1
  3883 ;; Hardware stack levels required when called:   11
  3884 ;; This function calls:
  3885 ;;		Nothing
  3886 ;; This function is called by:
  3887 ;;		_put_string_usb
  3888 ;;		_get_string_usb
  3889 ;; This function uses a non-reentrant model
  3890 ;;
  3891                           
  3892                           	psect	text22
  3893  00309A                     __ptext22:
  3894                           	opt stack 0
  3895  00309A                     _is_usb_available:
  3896                           	opt stack 17
  3897                           
  3898                           ;my_usb_cdc.c: 13: return !(USBDeviceState < CONFIGURED_STATE || UCONbits.SUSPND == 1);
  3899                           
  3900                           ;incstack = 0
  3901  00309A  0E00               	movlw	0
  3902  00309C  0100               	movlb	0	; () banked
  3903  00309E  6FBD               	movwf	_is_usb_available$2010& (0+255),b
  3904                           
  3905                           ; BSR set to: 0
  3906  0030A0  0E1F               	movlw	31
  3907  0030A2  641D               	cpfsgt	_USBDeviceState,c	;volatile
  3908  0030A4  D005               	goto	l539
  3909                           
  3910                           ; BSR set to: 0
  3911  0030A6  B265               	btfsc	3941,1,c	;volatile
  3912  0030A8  D003               	goto	l539
  3913                           
  3914                           ; BSR set to: 0
  3915  0030AA  0E01               	movlw	1
  3916  0030AC  0100               	movlb	0	; () banked
  3917  0030AE  6FBD               	movwf	_is_usb_available$2010& (0+255),b
  3918  0030B0                     l539:
  3919                           
  3920                           ; BSR set to: 0
  3921  0030B0  0100               	movlb	0	; () banked
  3922  0030B2  51BD               	movf	_is_usb_available$2010& (0+255),w,b
  3923  0030B4  0012               	return	
  3924                           
  3925                           ; BSR set to: 0
  3926                           
  3927                           ; BSR set to: 0
  3928  0030B6  0012               	return		;funcret
  3929  0030B8                     __end_of_is_usb_available:
  3930                           	opt stack 0
  3931                           tblptru	equ	0xFF8
  3932                           tblptrh	equ	0xFF7
  3933                           tblptrl	equ	0xFF6
  3934                           tablat	equ	0xFF5
  3935                           prodh	equ	0xFF4
  3936                           prodl	equ	0xFF3
  3937                           intcon	equ	0xFF2
  3938                           intcon2	equ	0xFF1
  3939                           postinc0	equ	0xFEE
  3940                           wreg	equ	0xFE8
  3941                           postinc1	equ	0xFE6
  3942                           postdec1	equ	0xFE5
  3943                           fsr1h	equ	0xFE2
  3944                           fsr1l	equ	0xFE1
  3945                           indf2	equ	0xFDF
  3946                           postinc2	equ	0xFDE
  3947                           postdec2	equ	0xFDD
  3948                           fsr2h	equ	0xFDA
  3949                           fsr2l	equ	0xFD9
  3950                           status	equ	0xFD8
  3951                           
  3952 ;; *************** function _getsUSBUSART *****************
  3953 ;; Defined at:
  3954 ;;		line 542 in file "../My_header/usb_cdc/usb/usb_device_cdc.c"
  3955 ;; Parameters:    Size  Location     Type
  3956 ;;  buffer          2    7[BANK0 ] PTR unsigned char 
  3957 ;;		 -> USB_loop@data(1), 
  3958 ;;  len             1    9[BANK0 ] unsigned char 
  3959 ;; Auto vars:     Size  Location     Type
  3960 ;;		None
  3961 ;; Return value:  Size  Location     Type
  3962 ;;                  1    wreg      unsigned char 
  3963 ;; Registers used:
  3964 ;;		wreg, fsr1l, fsr1h, fsr2l, fsr2h, status,2, status,0, prodl, prodh, cstack
  3965 ;; Tracked objects:
  3966 ;;		On entry : 0/0
  3967 ;;		On exit  : 0/0
  3968 ;;		Unchanged: 0/0
  3969 ;; Data sizes:     COMRAM   BANK0   BANK1   BANK2   BANK3   BANK4   BANK5   BANK6   BANK7   BANK8   BANK9  BANK10  BANK1
      +1  BANK12  BANK13  BANK14
  3970 ;;      Params:         0       3       0       0       0       0       0       0       0       0       0       0       
      +0       0       0       0
  3971 ;;      Locals:         0       2       0       0       0       0       0       0       0       0       0       0       
      +0       0       0       0
  3972 ;;      Temps:          0       1       0       0       0       0       0       0       0       0       0       0       
      +0       0       0       0
  3973 ;;      Totals:         0       6       0       0       0       0       0       0       0       0       0       0       
      +0       0       0       0
  3974 ;;Total ram usage:        6 bytes
  3975 ;; Hardware stack levels used:    1
  3976 ;; Hardware stack levels required when called:   12
  3977 ;; This function calls:
  3978 ;;		_USBTransferOnePacket
  3979 ;; This function is called by:
  3980 ;;		_get_string_usb
  3981 ;; This function uses a non-reentrant model
  3982 ;;
  3983                           
  3984                           	psect	text23
  3985  001B44                     __ptext23:
  3986                           	opt stack 0
  3987  001B44                     _getsUSBUSART:
  3988                           	opt stack 16
  3989                           
  3990                           ;usb_device_cdc.c: 544: cdc_rx_len = 0;
  3991                           
  3992                           ; BSR set to: 0
  3993                           ;incstack = 0
  3994  001B44  0E00               	movlw	0
  3995  001B46  0100               	movlb	0	; () banked
  3996  001B48  6F89               	movwf	_cdc_rx_len& (0+255),b
  3997                           
  3998                           ; BSR set to: 0
  3999                           ;usb_device_cdc.c: 546: if(!(CDCDataOutHandle==0?0:((volatile BDT_ENTRY*)CDCDataOutHandl
      +                          e)->STAT.UOWN))
  4000  001B4A  0100               	movlb	0	; () banked
  4001  001B4C  5184               	movf	_CDCDataOutHandle& (0+255),w,b
  4002  001B4E  0100               	movlb	0	; () banked
  4003  001B50  1185               	iorwf	(_CDCDataOutHandle+1)& (0+255),w,b
  4004  001B52  B4D8               	btfsc	status,2,c
  4005  001B54  D013               	goto	l5070
  4006                           
  4007                           ; BSR set to: 0
  4008  001B56  C084  FFD9         	movff	_CDCDataOutHandle,fsr2l
  4009  001B5A  C085  FFDA         	movff	_CDCDataOutHandle+1,fsr2h
  4010  001B5E  0100               	movlb	0	; () banked
  4011  001B60  AEDF               	btfss	indf2,7,c
  4012  001B62  D004               	goto	u4280
  4013  001B64  0100               	movlb	0	; () banked
  4014  001B66  6BC7               	clrf	??_getsUSBUSART& (0+255),b
  4015  001B68  2BC7               	incf	??_getsUSBUSART& (0+255),f,b
  4016  001B6A  D002               	goto	u4288
  4017  001B6C                     u4280:
  4018  001B6C  0100               	movlb	0	; () banked
  4019  001B6E  6BC7               	clrf	??_getsUSBUSART& (0+255),b
  4020  001B70                     u4288:
  4021  001B70  0100               	movlb	0	; () banked
  4022  001B72  51C7               	movf	??_getsUSBUSART& (0+255),w,b
  4023  001B74  0100               	movlb	0	; () banked
  4024  001B76  6FC8               	movwf	_getsUSBUSART$1886& (0+255),b
  4025  001B78  6BC9               	clrf	(_getsUSBUSART$1886+1)& (0+255),b
  4026  001B7A  D006               	goto	l5072
  4027  001B7C                     l5070:
  4028                           
  4029                           ; BSR set to: 0
  4030  001B7C  0E00               	movlw	0
  4031  001B7E  0100               	movlb	0	; () banked
  4032  001B80  6FC9               	movwf	(_getsUSBUSART$1886+1)& (0+255),b
  4033  001B82  0E00               	movlw	0
  4034  001B84  6FC8               	movwf	_getsUSBUSART$1886& (0+255),b
  4035  001B86  D000               	goto	l5072
  4036  001B88                     l5072:
  4037                           
  4038                           ; BSR set to: 0
  4039  001B88  0100               	movlb	0	; () banked
  4040  001B8A  51C8               	movf	_getsUSBUSART$1886& (0+255),w,b
  4041  001B8C  0100               	movlb	0	; () banked
  4042  001B8E  11C9               	iorwf	(_getsUSBUSART$1886+1)& (0+255),w,b
  4043  001B90  A4D8               	btfss	status,2,c
  4044  001B92  D04E               	goto	l5088
  4045                           
  4046                           ; BSR set to: 0
  4047                           ;usb_device_cdc.c: 547: {
  4048                           ;usb_device_cdc.c: 552: if(len > (((volatile BDT_ENTRY*)CDCDataOutHandle)->CNT))
  4049  001B94  0100               	movlb	0	; () banked
  4050  001B96  EE20 F001          	lfsr	2,1
  4051  001B9A  5184               	movf	_CDCDataOutHandle& (0+255),w,b
  4052  001B9C  26D9               	addwf	fsr2l,f,c
  4053  001B9E  5185               	movf	(_CDCDataOutHandle+1)& (0+255),w,b
  4054  001BA0  22DA               	addwfc	fsr2h,f,c
  4055  001BA2  0100               	movlb	0	; () banked
  4056  001BA4  51C6               	movf	getsUSBUSART@len& (0+255),w,b
  4057  001BA6  5CDE               	subwf	postinc2,w,c
  4058  001BA8  B0D8               	btfsc	status,0,c
  4059  001BAA  D00B               	goto	l5078
  4060                           
  4061                           ; BSR set to: 0
  4062                           ;usb_device_cdc.c: 553: len = (((volatile BDT_ENTRY*)CDCDataOutHandle)->CNT);
  4063  001BAC  0100               	movlb	0	; () banked
  4064  001BAE  EE20 F001          	lfsr	2,1
  4065  001BB2  5184               	movf	_CDCDataOutHandle& (0+255),w,b
  4066  001BB4  26D9               	addwf	fsr2l,f,c
  4067  001BB6  5185               	movf	(_CDCDataOutHandle+1)& (0+255),w,b
  4068  001BB8  22DA               	addwfc	fsr2h,f,c
  4069  001BBA  50DF               	movf	indf2,w,c
  4070  001BBC  0100               	movlb	0	; () banked
  4071  001BBE  6FC6               	movwf	getsUSBUSART@len& (0+255),b
  4072  001BC0  D000               	goto	l5078
  4073  001BC2                     l5078:
  4074                           
  4075                           ; BSR set to: 0
  4076                           ;usb_device_cdc.c: 558: for(cdc_rx_len = 0; cdc_rx_len < len; cdc_rx_len++)
  4077  001BC2  0E00               	movlw	0
  4078  001BC4  0100               	movlb	0	; () banked
  4079  001BC6  6F89               	movwf	_cdc_rx_len& (0+255),b
  4080  001BC8  D019               	goto	l5084
  4081  001BCA                     l5080:
  4082                           
  4083                           ; BSR set to: 0
  4084                           ;usb_device_cdc.c: 559: buffer[cdc_rx_len] = cdc_data_rx[cdc_rx_len];
  4085  001BCA  0100               	movlb	0	; () banked
  4086  001BCC  5189               	movf	_cdc_rx_len& (0+255),w,b
  4087  001BCE  0D01               	mullw	1
  4088  001BD0  0E64               	movlw	low _cdc_data_rx
  4089  001BD2  24F3               	addwf	prodl,w,c
  4090  001BD4  6ED9               	movwf	fsr2l,c
  4091  001BD6  0E01               	movlw	high _cdc_data_rx
  4092  001BD8  20F4               	addwfc	prodh,w,c
  4093  001BDA  6EDA               	movwf	fsr2h,c
  4094  001BDC  0100               	movlb	0	; () banked
  4095  001BDE  5189               	movf	_cdc_rx_len& (0+255),w,b
  4096  001BE0  0D01               	mullw	1
  4097  001BE2  50F3               	movf	prodl,w,c
  4098  001BE4  0100               	movlb	0	; () banked
  4099  001BE6  25C4               	addwf	getsUSBUSART@buffer& (0+255),w,b
  4100  001BE8  6EE1               	movwf	fsr1l,c
  4101  001BEA  50F4               	movf	prodh,w,c
  4102  001BEC  0100               	movlb	0	; () banked
  4103  001BEE  21C5               	addwfc	(getsUSBUSART@buffer+1)& (0+255),w,b
  4104  001BF0  6EE2               	movwf	fsr1h,c
  4105  001BF2  CFDF FFE7          	movff	indf2,indf1
  4106                           
  4107                           ; BSR set to: 0
  4108  001BF6  0100               	movlb	0	; () banked
  4109  001BF8  2B89               	incf	_cdc_rx_len& (0+255),f,b
  4110  001BFA  D000               	goto	l5084
  4111  001BFC                     l5084:
  4112                           
  4113                           ; BSR set to: 0
  4114  001BFC  0100               	movlb	0	; () banked
  4115  001BFE  51C6               	movf	getsUSBUSART@len& (0+255),w,b
  4116  001C00  0100               	movlb	0	; () banked
  4117  001C02  5D89               	subwf	_cdc_rx_len& (0+255),w,b
  4118  001C04  A0D8               	btfss	status,0,c
  4119  001C06  D7E1               	goto	l5080
  4120                           
  4121                           ; BSR set to: 0
  4122                           ;usb_device_cdc.c: 565: CDCDataOutHandle = USBTransferOnePacket(2,0,(uint8_t*)&cdc_data_
      +                          rx,sizeof(cdc_data_rx));
  4123                           
  4124                           ; BSR set to: 0
  4125  001C08  0E00               	movlw	0
  4126  001C0A  0100               	movlb	0	; () banked
  4127  001C0C  6FBD               	movwf	USBTransferOnePacket@dir& (0+255),b
  4128  001C0E  0E64               	movlw	low _cdc_data_rx
  4129  001C10  0100               	movlb	0	; () banked
  4130  001C12  6FBE               	movwf	USBTransferOnePacket@data& (0+255),b
  4131  001C14  0E01               	movlw	high _cdc_data_rx
  4132  001C16  0100               	movlb	0	; () banked
  4133  001C18  6FBF               	movwf	(USBTransferOnePacket@data+1)& (0+255),b
  4134  001C1A  0E40               	movlw	64
  4135  001C1C  0100               	movlb	0	; () banked
  4136  001C1E  6FC0               	movwf	USBTransferOnePacket@len& (0+255),b
  4137  001C20  0E02               	movlw	2
  4138  001C22  EC76  F00F         	call	_USBTransferOnePacket
  4139  001C26  C0BD  F084         	movff	?_USBTransferOnePacket,_CDCDataOutHandle
  4140  001C2A  C0BE  F085         	movff	?_USBTransferOnePacket+1,_CDCDataOutHandle+1
  4141  001C2E  D000               	goto	l5088
  4142  001C30                     l5088:
  4143                           
  4144                           ;usb_device_cdc.c: 567: }
  4145                           ;usb_device_cdc.c: 569: return cdc_rx_len;
  4146  001C30  0100               	movlb	0	; () banked
  4147  001C32  5189               	movf	_cdc_rx_len& (0+255),w,b
  4148  001C34  0012               	return	
  4149                           
  4150                           ; BSR set to: 0
  4151                           
  4152                           ; BSR set to: 0
  4153  001C36  0012               	return		;funcret
  4154  001C38                     __end_of_getsUSBUSART:
  4155                           	opt stack 0
  4156                           tblptru	equ	0xFF8
  4157                           tblptrh	equ	0xFF7
  4158                           tblptrl	equ	0xFF6
  4159                           tablat	equ	0xFF5
  4160                           prodh	equ	0xFF4
  4161                           prodl	equ	0xFF3
  4162                           intcon	equ	0xFF2
  4163                           intcon2	equ	0xFF1
  4164                           postinc0	equ	0xFEE
  4165                           wreg	equ	0xFE8
  4166                           indf1	equ	0xFE7
  4167                           postinc1	equ	0xFE6
  4168                           postdec1	equ	0xFE5
  4169                           fsr1h	equ	0xFE2
  4170                           fsr1l	equ	0xFE1
  4171                           indf2	equ	0xFDF
  4172                           postinc2	equ	0xFDE
  4173                           postdec2	equ	0xFDD
  4174                           fsr2h	equ	0xFDA
  4175                           fsr2l	equ	0xFD9
  4176                           status	equ	0xFD8
  4177                           
  4178 ;; *************** function _CDCTxService *****************
  4179 ;; Defined at:
  4180 ;;		line 893 in file "../My_header/usb_cdc/usb/usb_device_cdc.c"
  4181 ;; Parameters:    Size  Location     Type
  4182 ;;		None
  4183 ;; Auto vars:     Size  Location     Type
  4184 ;;  byte_to_send    1   11[BANK0 ] unsigned char 
  4185 ;;  i               1   10[BANK0 ] unsigned char 
  4186 ;; Return value:  Size  Location     Type
  4187 ;;		None               void
  4188 ;; Registers used:
  4189 ;;		wreg, fsr1l, fsr1h, fsr2l, fsr2h, status,2, status,0, prodl, prodh, cstack
  4190 ;; Tracked objects:
  4191 ;;		On entry : 0/0
  4192 ;;		On exit  : 0/0
  4193 ;;		Unchanged: 0/0
  4194 ;; Data sizes:     COMRAM   BANK0   BANK1   BANK2   BANK3   BANK4   BANK5   BANK6   BANK7   BANK8   BANK9  BANK10  BANK1
      +1  BANK12  BANK13  BANK14
  4195 ;;      Params:         0       0       0       0       0       0       0       0       0       0       0       0       
      +0       0       0       0
  4196 ;;      Locals:         0       4       0       0       0       0       0       0       0       0       0       0       
      +0       0       0       0
  4197 ;;      Temps:          0       1       0       0       0       0       0       0       0       0       0       0       
      +0       0       0       0
  4198 ;;      Totals:         0       5       0       0       0       0       0       0       0       0       0       0       
      +0       0       0       0
  4199 ;;Total ram usage:        5 bytes
  4200 ;; Hardware stack levels used:    1
  4201 ;; Hardware stack levels required when called:   12
  4202 ;; This function calls:
  4203 ;;		_USBTransferOnePacket
  4204 ;; This function is called by:
  4205 ;;		_put_string_usb
  4206 ;;		_get_string_usb
  4207 ;; This function uses a non-reentrant model
  4208 ;;
  4209                           
  4210                           	psect	text24
  4211  001276                     __ptext24:
  4212                           	opt stack 0
  4213  001276                     _CDCTxService:
  4214                           	opt stack 16
  4215                           
  4216                           ;usb_device_cdc.c: 895: uint8_t byte_to_send;
  4217                           ;usb_device_cdc.c: 896: uint8_t i;
  4218                           ;usb_device_cdc.c: 898: {PIE2bits.USBIE = 0;};
  4219                           
  4220                           ; BSR set to: 0
  4221                           ;incstack = 0
  4222  001276  98A0               	bcf	4000,4,c	;volatile
  4223                           
  4224                           ;usb_device_cdc.c: 900: {};
  4225                           ;usb_device_cdc.c: 902: if((CDCDataInHandle==0?0:((volatile BDT_ENTRY*)CDCDataInHandle)-
      +                          >STAT.UOWN))
  4226  001278  0100               	movlb	0	; () banked
  4227  00127A  5182               	movf	_CDCDataInHandle& (0+255),w,b
  4228  00127C  0100               	movlb	0	; () banked
  4229  00127E  1183               	iorwf	(_CDCDataInHandle+1)& (0+255),w,b
  4230  001280  B4D8               	btfsc	status,2,c
  4231  001282  D013               	goto	l5112
  4232                           
  4233                           ; BSR set to: 0
  4234  001284  C082  FFD9         	movff	_CDCDataInHandle,fsr2l
  4235  001288  C083  FFDA         	movff	_CDCDataInHandle+1,fsr2h
  4236  00128C  0100               	movlb	0	; () banked
  4237  00128E  AEDF               	btfss	indf2,7,c
  4238  001290  D004               	goto	u4340
  4239  001292  0100               	movlb	0	; () banked
  4240  001294  6BC4               	clrf	??_CDCTxService& (0+255),b
  4241  001296  2BC4               	incf	??_CDCTxService& (0+255),f,b
  4242  001298  D002               	goto	u4348
  4243  00129A                     u4340:
  4244  00129A  0100               	movlb	0	; () banked
  4245  00129C  6BC4               	clrf	??_CDCTxService& (0+255),b
  4246  00129E                     u4348:
  4247  00129E  0100               	movlb	0	; () banked
  4248  0012A0  51C4               	movf	??_CDCTxService& (0+255),w,b
  4249  0012A2  0100               	movlb	0	; () banked
  4250  0012A4  6FC5               	movwf	_CDCTxService$1934& (0+255),b
  4251  0012A6  6BC6               	clrf	(_CDCTxService$1934+1)& (0+255),b
  4252  0012A8  D006               	goto	l5114
  4253  0012AA                     l5112:
  4254                           
  4255                           ; BSR set to: 0
  4256  0012AA  0E00               	movlw	0
  4257  0012AC  0100               	movlb	0	; () banked
  4258  0012AE  6FC6               	movwf	(_CDCTxService$1934+1)& (0+255),b
  4259  0012B0  0E00               	movlw	0
  4260  0012B2  6FC5               	movwf	_CDCTxService$1934& (0+255),b
  4261  0012B4  D000               	goto	l5114
  4262  0012B6                     l5114:
  4263                           
  4264                           ; BSR set to: 0
  4265  0012B6  0100               	movlb	0	; () banked
  4266  0012B8  51C5               	movf	_CDCTxService$1934& (0+255),w,b
  4267  0012BA  0100               	movlb	0	; () banked
  4268  0012BC  11C6               	iorwf	(_CDCTxService$1934+1)& (0+255),w,b
  4269  0012BE  B4D8               	btfsc	status,2,c
  4270  0012C0  D002               	goto	l5118
  4271                           
  4272                           ; BSR set to: 0
  4273                           ;usb_device_cdc.c: 903: {
  4274                           ;usb_device_cdc.c: 904: {PIE2bits.USBIE = 1;};
  4275  0012C2  88A0               	bsf	4000,4,c	;volatile
  4276                           
  4277                           ;usb_device_cdc.c: 905: return;
  4278  0012C4  0012               	return	
  4279  0012C6                     l5118:
  4280                           
  4281                           ; BSR set to: 0
  4282                           ;usb_device_cdc.c: 906: }
  4283                           ;usb_device_cdc.c: 913: if(cdc_trf_state == 3)
  4284  0012C6  0E03               	movlw	3
  4285  0012C8  1821               	xorwf	_cdc_trf_state,w,c
  4286  0012CA  A4D8               	btfss	status,2,c
  4287  0012CC  D002               	goto	l490
  4288                           
  4289                           ; BSR set to: 0
  4290                           ;usb_device_cdc.c: 914: cdc_trf_state = 0;
  4291  0012CE  0E00               	movlw	0
  4292  0012D0  6E21               	movwf	_cdc_trf_state,c
  4293  0012D2                     l490:
  4294                           
  4295                           ; BSR set to: 0
  4296                           ;usb_device_cdc.c: 919: if(cdc_trf_state == 0)
  4297  0012D2  5021               	movf	_cdc_trf_state,w,c
  4298  0012D4  A4D8               	btfss	status,2,c
  4299  0012D6  D002               	goto	l5124
  4300                           
  4301                           ; BSR set to: 0
  4302                           ;usb_device_cdc.c: 920: {
  4303                           ;usb_device_cdc.c: 921: {PIE2bits.USBIE = 1;};
  4304  0012D8  88A0               	bsf	4000,4,c	;volatile
  4305                           
  4306                           ;usb_device_cdc.c: 922: return;
  4307  0012DA  0012               	return	
  4308  0012DC                     l5124:
  4309                           
  4310                           ; BSR set to: 0
  4311                           ;usb_device_cdc.c: 923: }
  4312                           ;usb_device_cdc.c: 928: if(cdc_trf_state == 2)
  4313  0012DC  0E02               	movlw	2
  4314  0012DE  1821               	xorwf	_cdc_trf_state,w,c
  4315  0012E0  A4D8               	btfss	status,2,c
  4316  0012E2  D016               	goto	l5130
  4317                           
  4318                           ; BSR set to: 0
  4319                           ;usb_device_cdc.c: 929: {
  4320                           ;usb_device_cdc.c: 930: CDCDataInHandle = USBTransferOnePacket(2,1,(0),0);
  4321  0012E4  0E01               	movlw	1
  4322  0012E6  0100               	movlb	0	; () banked
  4323  0012E8  6FBD               	movwf	USBTransferOnePacket@dir& (0+255),b
  4324  0012EA  0E00               	movlw	0
  4325  0012EC  0100               	movlb	0	; () banked
  4326  0012EE  6FBE               	movwf	USBTransferOnePacket@data& (0+255),b
  4327  0012F0  0E00               	movlw	0
  4328  0012F2  0100               	movlb	0	; () banked
  4329  0012F4  6FBF               	movwf	(USBTransferOnePacket@data+1)& (0+255),b
  4330  0012F6  0E00               	movlw	0
  4331  0012F8  0100               	movlb	0	; () banked
  4332  0012FA  6FC0               	movwf	USBTransferOnePacket@len& (0+255),b
  4333  0012FC  0E02               	movlw	2
  4334  0012FE  EC76  F00F         	call	_USBTransferOnePacket
  4335  001302  C0BD  F082         	movff	?_USBTransferOnePacket,_CDCDataInHandle
  4336  001306  C0BE  F083         	movff	?_USBTransferOnePacket+1,_CDCDataInHandle+1
  4337                           
  4338                           ;usb_device_cdc.c: 932: cdc_trf_state = 3;
  4339  00130A  0E03               	movlw	3
  4340  00130C  6E21               	movwf	_cdc_trf_state,c
  4341                           
  4342                           ;usb_device_cdc.c: 933: }
  4343  00130E  D079               	goto	l5174
  4344  001310                     l5130:
  4345                           
  4346                           ;usb_device_cdc.c: 934: else if(cdc_trf_state == 1)
  4347  001310  0421               	decf	_cdc_trf_state,w,c
  4348  001312  A4D8               	btfss	status,2,c
  4349  001314  D076               	goto	l5174
  4350                           
  4351                           ;usb_device_cdc.c: 935: {
  4352                           ;usb_device_cdc.c: 939: if(cdc_tx_len > sizeof(cdc_data_tx))
  4353  001316  0E40               	movlw	64
  4354  001318  0100               	movlb	0	; () banked
  4355  00131A  658A               	cpfsgt	_cdc_tx_len& (0+255),b
  4356  00131C  D004               	goto	l495
  4357                           
  4358                           ; BSR set to: 0
  4359                           ;usb_device_cdc.c: 940: byte_to_send = sizeof(cdc_data_tx);
  4360  00131E  0E40               	movlw	64
  4361  001320  0100               	movlb	0	; () banked
  4362  001322  6FC8               	movwf	CDCTxService@byte_to_send& (0+255),b
  4363  001324  D003               	goto	l5136
  4364  001326                     l495:
  4365                           
  4366                           ; BSR set to: 0
  4367                           ;usb_device_cdc.c: 941: else
  4368                           ;usb_device_cdc.c: 942: byte_to_send = cdc_tx_len;
  4369  001326  C08A  F0C8         	movff	_cdc_tx_len,CDCTxService@byte_to_send
  4370  00132A  D000               	goto	l5136
  4371  00132C                     l5136:
  4372                           
  4373                           ; BSR set to: 0
  4374                           ;usb_device_cdc.c: 947: cdc_tx_len = cdc_tx_len - byte_to_send;
  4375  00132C  0100               	movlb	0	; () banked
  4376  00132E  51C8               	movf	CDCTxService@byte_to_send& (0+255),w,b
  4377  001330  0800               	sublw	0
  4378  001332  0100               	movlb	0	; () banked
  4379  001334  258A               	addwf	_cdc_tx_len& (0+255),w,b
  4380  001336  0100               	movlb	0	; () banked
  4381  001338  6F8A               	movwf	_cdc_tx_len& (0+255),b
  4382                           
  4383                           ;usb_device_cdc.c: 949: pCDCDst.bRam = (uint8_t*)&cdc_data_tx;
  4384  00133A  0EA4               	movlw	low _cdc_data_tx
  4385  00133C  0100               	movlb	0	; () banked
  4386  00133E  6F7A               	movwf	_pCDCDst& (0+255),b
  4387  001340  0E01               	movlw	high _cdc_data_tx
  4388  001342  0100               	movlb	0	; () banked
  4389  001344  6F7B               	movwf	(_pCDCDst+1)& (0+255),b
  4390                           
  4391                           ; BSR set to: 0
  4392                           ;usb_device_cdc.c: 951: i = byte_to_send;
  4393  001346  C0C8  F0C7         	movff	CDCTxService@byte_to_send,CDCTxService@i
  4394                           
  4395                           ; BSR set to: 0
  4396                           ;usb_device_cdc.c: 952: if(cdc_mem_type == 0x00)
  4397  00134A  0100               	movlb	0	; () banked
  4398  00134C  5188               	movf	_cdc_mem_type& (0+255),w,b
  4399  00134E  B4D8               	btfsc	status,2,c
  4400  001350  D015               	goto	l5152
  4401  001352  D02F               	goto	l5162
  4402                           
  4403                           ; BSR set to: 0
  4404                           ;usb_device_cdc.c: 953: {
  4405                           ;usb_device_cdc.c: 954: while(i)
  4406  001354  D013               	goto	l5152
  4407  001356                     l5144:
  4408                           
  4409                           ; BSR set to: 0
  4410                           ;usb_device_cdc.c: 955: {
  4411                           ;usb_device_cdc.c: 956: *pCDCDst.bRam = *pCDCSrc.bRom;
  4412  001356  C07D  FFD9         	movff	_pCDCSrc,fsr2l
  4413  00135A  C07E  FFDA         	movff	_pCDCSrc+1,fsr2h
  4414  00135E  C07A  FFE1         	movff	_pCDCDst,fsr1l
  4415  001362  C07B  FFE2         	movff	_pCDCDst+1,fsr1h
  4416  001366  CFDF FFE7          	movff	indf2,indf1
  4417                           
  4418                           ; BSR set to: 0
  4419                           ;usb_device_cdc.c: 957: pCDCDst.bRam++;
  4420  00136A  0100               	movlb	0	; () banked
  4421  00136C  4B7A               	infsnz	_pCDCDst& (0+255),f,b
  4422  00136E  2B7B               	incf	(_pCDCDst+1)& (0+255),f,b
  4423                           
  4424                           ; BSR set to: 0
  4425                           ;usb_device_cdc.c: 958: pCDCSrc.bRom++;
  4426  001370  0100               	movlb	0	; () banked
  4427  001372  4B7D               	infsnz	_pCDCSrc& (0+255),f,b
  4428  001374  2B7E               	incf	(_pCDCSrc+1)& (0+255),f,b
  4429                           
  4430                           ; BSR set to: 0
  4431                           ;usb_device_cdc.c: 959: i--;
  4432  001376  0100               	movlb	0	; () banked
  4433  001378  07C7               	decf	CDCTxService@i& (0+255),f,b
  4434  00137A  D000               	goto	l5152
  4435  00137C                     l5152:
  4436                           
  4437                           ; BSR set to: 0
  4438  00137C  0100               	movlb	0	; () banked
  4439  00137E  51C7               	movf	CDCTxService@i& (0+255),w,b
  4440  001380  0100               	movlb	0	; () banked
  4441  001382  B4D8               	btfsc	status,2,c
  4442  001384  D01D               	goto	l5164
  4443  001386  D7E7               	goto	l5144
  4444                           
  4445                           ; BSR set to: 0
  4446                           ;usb_device_cdc.c: 960: }
  4447                           ;usb_device_cdc.c: 961: }
  4448  001388  D01B               	goto	l5164
  4449                           
  4450                           ; BSR set to: 0
  4451                           ;usb_device_cdc.c: 962: else
  4452                           ;usb_device_cdc.c: 963: {
  4453                           ;usb_device_cdc.c: 964: while(i)
  4454  00138A  D013               	goto	l5162
  4455  00138C                     l5154:
  4456                           
  4457                           ; BSR set to: 0
  4458                           ;usb_device_cdc.c: 965: {
  4459                           ;usb_device_cdc.c: 966: *pCDCDst.bRam = *pCDCSrc.bRam;
  4460  00138C  C07D  FFD9         	movff	_pCDCSrc,fsr2l
  4461  001390  C07E  FFDA         	movff	_pCDCSrc+1,fsr2h
  4462  001394  C07A  FFE1         	movff	_pCDCDst,fsr1l
  4463  001398  C07B  FFE2         	movff	_pCDCDst+1,fsr1h
  4464  00139C  CFDF FFE7          	movff	indf2,indf1
  4465                           
  4466                           ; BSR set to: 0
  4467                           ;usb_device_cdc.c: 967: pCDCDst.bRam++;
  4468  0013A0  0100               	movlb	0	; () banked
  4469  0013A2  4B7A               	infsnz	_pCDCDst& (0+255),f,b
  4470  0013A4  2B7B               	incf	(_pCDCDst+1)& (0+255),f,b
  4471                           
  4472                           ; BSR set to: 0
  4473                           ;usb_device_cdc.c: 968: pCDCSrc.bRam++;
  4474  0013A6  0100               	movlb	0	; () banked
  4475  0013A8  4B7D               	infsnz	_pCDCSrc& (0+255),f,b
  4476  0013AA  2B7E               	incf	(_pCDCSrc+1)& (0+255),f,b
  4477                           
  4478                           ; BSR set to: 0
  4479                           ;usb_device_cdc.c: 969: i--;
  4480  0013AC  0100               	movlb	0	; () banked
  4481  0013AE  07C7               	decf	CDCTxService@i& (0+255),f,b
  4482  0013B0  D000               	goto	l5162
  4483  0013B2                     l5162:
  4484                           
  4485                           ; BSR set to: 0
  4486  0013B2  0100               	movlb	0	; () banked
  4487  0013B4  51C7               	movf	CDCTxService@i& (0+255),w,b
  4488  0013B6  0100               	movlb	0	; () banked
  4489  0013B8  B4D8               	btfsc	status,2,c
  4490  0013BA  D002               	goto	l5164
  4491  0013BC  D7E7               	goto	l5154
  4492                           
  4493                           ; BSR set to: 0
  4494  0013BE  D000               	goto	l5164
  4495  0013C0                     l5164:
  4496                           
  4497                           ; BSR set to: 0
  4498                           ;usb_device_cdc.c: 970: }
  4499                           ;usb_device_cdc.c: 971: }
  4500                           ;usb_device_cdc.c: 977: if(cdc_tx_len == 0)
  4501  0013C0  0100               	movlb	0	; () banked
  4502  0013C2  518A               	movf	_cdc_tx_len& (0+255),w,b
  4503  0013C4  A4D8               	btfss	status,2,c
  4504  0013C6  D00A               	goto	l5172
  4505                           
  4506                           ; BSR set to: 0
  4507                           ;usb_device_cdc.c: 978: {
  4508                           ;usb_device_cdc.c: 979: if(byte_to_send == 64)
  4509  0013C8  0E40               	movlw	64
  4510  0013CA  0100               	movlb	0	; () banked
  4511  0013CC  19C8               	xorwf	CDCTxService@byte_to_send& (0+255),w,b
  4512  0013CE  A4D8               	btfss	status,2,c
  4513  0013D0  D002               	goto	l5170
  4514                           
  4515                           ; BSR set to: 0
  4516                           ;usb_device_cdc.c: 980: cdc_trf_state = 2;
  4517  0013D2  0E02               	movlw	2
  4518  0013D4  D001               	goto	L1
  4519  0013D6                     l5170:
  4520                           
  4521                           ; BSR set to: 0
  4522                           ;usb_device_cdc.c: 981: else
  4523                           ;usb_device_cdc.c: 982: cdc_trf_state = 3;
  4524  0013D6  0E03               	movlw	3
  4525  0013D8                     L1:
  4526  0013D8  6E21               	movwf	_cdc_trf_state,c
  4527                           
  4528                           ; BSR set to: 0
  4529  0013DA  D000               	goto	l5172
  4530  0013DC                     l5172:
  4531                           
  4532                           ; BSR set to: 0
  4533                           ;usb_device_cdc.c: 983: }
  4534                           ;usb_device_cdc.c: 984: CDCDataInHandle = USBTransferOnePacket(2,1,(uint8_t*)&cdc_data_t
      +                          x,byte_to_send);
  4535  0013DC  0E01               	movlw	1
  4536  0013DE  0100               	movlb	0	; () banked
  4537  0013E0  6FBD               	movwf	USBTransferOnePacket@dir& (0+255),b
  4538  0013E2  0EA4               	movlw	low _cdc_data_tx
  4539  0013E4  0100               	movlb	0	; () banked
  4540  0013E6  6FBE               	movwf	USBTransferOnePacket@data& (0+255),b
  4541  0013E8  0E01               	movlw	high _cdc_data_tx
  4542  0013EA  0100               	movlb	0	; () banked
  4543  0013EC  6FBF               	movwf	(USBTransferOnePacket@data+1)& (0+255),b
  4544  0013EE  C0C8  F0C0         	movff	CDCTxService@byte_to_send,USBTransferOnePacket@len
  4545  0013F2  0E02               	movlw	2
  4546  0013F4  EC76  F00F         	call	_USBTransferOnePacket
  4547  0013F8  C0BD  F082         	movff	?_USBTransferOnePacket,_CDCDataInHandle
  4548  0013FC  C0BE  F083         	movff	?_USBTransferOnePacket+1,_CDCDataInHandle+1
  4549  001400  D000               	goto	l5174
  4550  001402                     l5174:
  4551                           
  4552                           ;usb_device_cdc.c: 986: }
  4553                           ;usb_device_cdc.c: 988: {PIE2bits.USBIE = 1;};
  4554  001402  88A0               	bsf	4000,4,c	;volatile
  4555  001404  0012               	return		;funcret
  4556  001406                     __end_of_CDCTxService:
  4557                           	opt stack 0
  4558                           tblptru	equ	0xFF8
  4559                           tblptrh	equ	0xFF7
  4560                           tblptrl	equ	0xFF6
  4561                           tablat	equ	0xFF5
  4562                           prodh	equ	0xFF4
  4563                           prodl	equ	0xFF3
  4564                           intcon	equ	0xFF2
  4565                           intcon2	equ	0xFF1
  4566                           postinc0	equ	0xFEE
  4567                           wreg	equ	0xFE8
  4568                           indf1	equ	0xFE7
  4569                           postinc1	equ	0xFE6
  4570                           postdec1	equ	0xFE5
  4571                           fsr1h	equ	0xFE2
  4572                           fsr1l	equ	0xFE1
  4573                           indf2	equ	0xFDF
  4574                           postinc2	equ	0xFDE
  4575                           postdec2	equ	0xFDD
  4576                           fsr2h	equ	0xFDA
  4577                           fsr2l	equ	0xFD9
  4578                           status	equ	0xFD8
  4579                           
  4580 ;; *************** function _USBTransferOnePacket *****************
  4581 ;; Defined at:
  4582 ;;		line 995 in file "../My_header/usb_cdc/usb/usb_device.c"
  4583 ;; Parameters:    Size  Location     Type
  4584 ;;  ep              1    wreg     unsigned char 
  4585 ;;  dir             1    0[BANK0 ] unsigned char 
  4586 ;;  data            2    1[BANK0 ] PTR unsigned char 
  4587 ;;		 -> cdc_data_tx(64), cdc_data_rx(64), NULL(0), 
  4588 ;;  len             1    3[BANK0 ] unsigned char 
  4589 ;; Auto vars:     Size  Location     Type
  4590 ;;  ep              1    4[BANK0 ] unsigned char 
  4591 ;;  handle          2    5[BANK0 ] PTR volatile struct __BD
  4592 ;;		 -> NULL(0), BDT(48), 
  4593 ;; Return value:  Size  Location     Type
  4594 ;;                  2    0[BANK0 ] PTR void 
  4595 ;; Registers used:
  4596 ;;		wreg, fsr2l, fsr2h, status,2, status,0, prodl, prodh
  4597 ;; Tracked objects:
  4598 ;;		On entry : 0/0
  4599 ;;		On exit  : 0/0
  4600 ;;		Unchanged: 0/0
  4601 ;; Data sizes:     COMRAM   BANK0   BANK1   BANK2   BANK3   BANK4   BANK5   BANK6   BANK7   BANK8   BANK9  BANK10  BANK1
      +1  BANK12  BANK13  BANK14
  4602 ;;      Params:         0       4       0       0       0       0       0       0       0       0       0       0       
      +0       0       0       0
  4603 ;;      Locals:         0       3       0       0       0       0       0       0       0       0       0       0       
      +0       0       0       0
  4604 ;;      Temps:          0       0       0       0       0       0       0       0       0       0       0       0       
      +0       0       0       0
  4605 ;;      Totals:         0       7       0       0       0       0       0       0       0       0       0       0       
      +0       0       0       0
  4606 ;;Total ram usage:        7 bytes
  4607 ;; Hardware stack levels used:    1
  4608 ;; Hardware stack levels required when called:   11
  4609 ;; This function calls:
  4610 ;;		Nothing
  4611 ;; This function is called by:
  4612 ;;		_getsUSBUSART
  4613 ;;		_CDCTxService
  4614 ;;		_USBCDCEventHandler
  4615 ;; This function uses a non-reentrant model
  4616 ;;
  4617                           
  4618                           	psect	text25
  4619  001EEC                     __ptext25:
  4620                           	opt stack 0
  4621  001EEC                     _USBTransferOnePacket:
  4622                           	opt stack 16
  4623                           
  4624                           ;incstack = 0
  4625                           ;USBTransferOnePacket@ep stored from wreg
  4626  001EEC  0100               	movlb	0	; () banked
  4627  001EEE  6FC1               	movwf	USBTransferOnePacket@ep& (0+255),b
  4628                           
  4629                           ; BSR set to: 0
  4630                           ;usb_device.c: 997: volatile BDT_ENTRY* handle;
  4631                           ;usb_device.c: 1000: if(dir != 0)
  4632  001EF0  0100               	movlb	0	; () banked
  4633  001EF2  51BD               	movf	USBTransferOnePacket@dir& (0+255),w,b
  4634  001EF4  0100               	movlb	0	; () banked
  4635  001EF6  B4D8               	btfsc	status,2,c
  4636  001EF8  D008               	goto	l4948
  4637                           
  4638                           ; BSR set to: 0
  4639                           ;usb_device.c: 1001: {
  4640                           ;usb_device.c: 1003: handle = pBDTEntryIn[ep];
  4641  001EFA  0100               	movlb	0	; () banked
  4642  001EFC  51C1               	movf	USBTransferOnePacket@ep& (0+255),w,b
  4643  001EFE  0D02               	mullw	2
  4644  001F00  0E0A               	movlw	low _pBDTEntryIn
  4645  001F02  24F3               	addwf	prodl,w,c
  4646  001F04  6ED9               	movwf	fsr2l,c
  4647  001F06  0E00               	movlw	high _pBDTEntryIn
  4648  001F08  D007               	goto	L2
  4649  001F0A                     l4948:
  4650                           
  4651                           ; BSR set to: 0
  4652                           ;usb_device.c: 1005: else
  4653                           ;usb_device.c: 1006: {
  4654                           ;usb_device.c: 1008: handle = pBDTEntryOut[ep];
  4655  001F0A  0100               	movlb	0	; () banked
  4656  001F0C  51C1               	movf	USBTransferOnePacket@ep& (0+255),w,b
  4657  001F0E  0D02               	mullw	2
  4658  001F10  0E6A               	movlw	low _pBDTEntryOut
  4659  001F12  24F3               	addwf	prodl,w,c
  4660  001F14  6ED9               	movwf	fsr2l,c
  4661  001F16  0E00               	movlw	high _pBDTEntryOut
  4662  001F18                     L2:
  4663  001F18  20F4               	addwfc	prodh,w,c
  4664  001F1A  6EDA               	movwf	fsr2h,c
  4665  001F1C  CFDE F0C2          	movff	postinc2,USBTransferOnePacket@handle
  4666  001F20  CFDD F0C3          	movff	postdec2,USBTransferOnePacket@handle+1
  4667  001F24  D000               	goto	l4950
  4668  001F26                     l4950:
  4669                           
  4670                           ; BSR set to: 0
  4671                           ;usb_device.c: 1009: }
  4672                           ;usb_device.c: 1013: if(handle == 0)
  4673  001F26  0100               	movlb	0	; () banked
  4674  001F28  51C2               	movf	USBTransferOnePacket@handle& (0+255),w,b
  4675  001F2A  0100               	movlb	0	; () banked
  4676  001F2C  11C3               	iorwf	(USBTransferOnePacket@handle+1)& (0+255),w,b
  4677  001F2E  A4D8               	btfss	status,2,c
  4678  001F30  D007               	goto	l4956
  4679                           
  4680                           ; BSR set to: 0
  4681                           ;usb_device.c: 1014: {
  4682                           ;usb_device.c: 1015: return 0;
  4683  001F32  0E00               	movlw	0
  4684  001F34  0100               	movlb	0	; () banked
  4685  001F36  6FBD               	movwf	?_USBTransferOnePacket& (0+255),b
  4686  001F38  0E00               	movlw	0
  4687  001F3A  0100               	movlb	0	; () banked
  4688  001F3C  6FBE               	movwf	(?_USBTransferOnePacket+1)& (0+255),b
  4689                           
  4690                           ; BSR set to: 0
  4691  001F3E  0012               	return	
  4692  001F40                     l4956:
  4693                           
  4694                           ; BSR set to: 0
  4695                           ;usb_device.c: 1016: }
  4696                           ;usb_device.c: 1029: handle->ADR = ((uint16_t)(data));
  4697  001F40  0100               	movlb	0	; () banked
  4698  001F42  EE20 F002          	lfsr	2,2
  4699  001F46  51C2               	movf	USBTransferOnePacket@handle& (0+255),w,b
  4700  001F48  26D9               	addwf	fsr2l,f,c
  4701  001F4A  51C3               	movf	(USBTransferOnePacket@handle+1)& (0+255),w,b
  4702  001F4C  22DA               	addwfc	fsr2h,f,c
  4703  001F4E  C0BE  FFDE         	movff	USBTransferOnePacket@data,postinc2
  4704  001F52  C0BF  FFDD         	movff	USBTransferOnePacket@data+1,postdec2
  4705                           
  4706                           ;usb_device.c: 1030: handle->CNT = len;
  4707  001F56  0100               	movlb	0	; () banked
  4708  001F58  EE20 F001          	lfsr	2,1
  4709  001F5C  51C2               	movf	USBTransferOnePacket@handle& (0+255),w,b
  4710  001F5E  26D9               	addwf	fsr2l,f,c
  4711  001F60  51C3               	movf	(USBTransferOnePacket@handle+1)& (0+255),w,b
  4712  001F62  22DA               	addwfc	fsr2h,f,c
  4713  001F64  C0C0  FFDF         	movff	USBTransferOnePacket@len,indf2
  4714                           
  4715                           ; BSR set to: 0
  4716                           ;usb_device.c: 1031: handle->STAT.Val &= 0x40;
  4717  001F68  C0C2  FFD9         	movff	USBTransferOnePacket@handle,fsr2l
  4718  001F6C  C0C3  FFDA         	movff	USBTransferOnePacket@handle+1,fsr2h
  4719  001F70  0E40               	movlw	64
  4720  001F72  16DF               	andwf	indf2,f,c
  4721                           
  4722                           ; BSR set to: 0
  4723                           ;usb_device.c: 1032: handle->STAT.Val |= (0x08 & 0x08);
  4724  001F74  C0C2  FFD9         	movff	USBTransferOnePacket@handle,fsr2l
  4725  001F78  C0C3  FFDA         	movff	USBTransferOnePacket@handle+1,fsr2h
  4726  001F7C  0E00               	movlw	0
  4727  001F7E  86DB               	bsf	plusw2,3,c
  4728                           
  4729                           ; BSR set to: 0
  4730                           ;usb_device.c: 1033: handle->STAT.Val |= 0x80;
  4731  001F80  C0C2  FFD9         	movff	USBTransferOnePacket@handle,fsr2l
  4732  001F84  C0C3  FFDA         	movff	USBTransferOnePacket@handle+1,fsr2h
  4733  001F88  0E00               	movlw	0
  4734  001F8A  8EDB               	bsf	plusw2,7,c
  4735                           
  4736                           ; BSR set to: 0
  4737                           ;usb_device.c: 1036: if(dir != 0)
  4738  001F8C  0100               	movlb	0	; () banked
  4739  001F8E  51BD               	movf	USBTransferOnePacket@dir& (0+255),w,b
  4740  001F90  0100               	movlb	0	; () banked
  4741  001F92  B4D8               	btfsc	status,2,c
  4742  001F94  D008               	goto	l4968
  4743                           
  4744                           ; BSR set to: 0
  4745                           ;usb_device.c: 1037: {
  4746                           ;usb_device.c: 1039: {((uint8_t_VAL*)&pBDTEntryIn[ep])->Val ^= 0x0004;};
  4747  001F96  0100               	movlb	0	; () banked
  4748  001F98  51C1               	movf	USBTransferOnePacket@ep& (0+255),w,b
  4749  001F9A  0D02               	mullw	2
  4750  001F9C  0E0A               	movlw	low _pBDTEntryIn
  4751  001F9E  24F3               	addwf	prodl,w,c
  4752  001FA0  6ED9               	movwf	fsr2l,c
  4753  001FA2  0E00               	movlw	high _pBDTEntryIn
  4754  001FA4  D007               	goto	L3
  4755  001FA6                     l4968:
  4756                           
  4757                           ; BSR set to: 0
  4758                           ;usb_device.c: 1041: else
  4759                           ;usb_device.c: 1042: {
  4760                           ;usb_device.c: 1044: {((uint8_t_VAL*)&pBDTEntryOut[ep])->Val ^= 0x0004;};
  4761  001FA6  0100               	movlb	0	; () banked
  4762  001FA8  51C1               	movf	USBTransferOnePacket@ep& (0+255),w,b
  4763  001FAA  0D02               	mullw	2
  4764  001FAC  0E6A               	movlw	low _pBDTEntryOut
  4765  001FAE  24F3               	addwf	prodl,w,c
  4766  001FB0  6ED9               	movwf	fsr2l,c
  4767  001FB2  0E00               	movlw	high _pBDTEntryOut
  4768  001FB4                     L3:
  4769  001FB4  20F4               	addwfc	prodh,w,c
  4770  001FB6  6EDA               	movwf	fsr2h,c
  4771  001FB8  0E04               	movlw	4
  4772  001FBA  1ADF               	xorwf	indf2,f,c
  4773  001FBC  D000               	goto	l4970
  4774  001FBE                     l4970:
  4775                           
  4776                           ; BSR set to: 0
  4777                           ;usb_device.c: 1045: }
  4778                           ;usb_device.c: 1046: return (void*)handle;
  4779  001FBE  C0C2  F0BD         	movff	USBTransferOnePacket@handle,?_USBTransferOnePacket
  4780  001FC2  C0C3  F0BE         	movff	USBTransferOnePacket@handle+1,?_USBTransferOnePacket+1
  4781  001FC6  0012               	return	
  4782                           
  4783                           ; BSR set to: 0
  4784                           
  4785                           ; BSR set to: 0
  4786  001FC8  0012               	return		;funcret
  4787  001FCA                     __end_of_USBTransferOnePacket:
  4788                           	opt stack 0
  4789                           tblptru	equ	0xFF8
  4790                           tblptrh	equ	0xFF7
  4791                           tblptrl	equ	0xFF6
  4792                           tablat	equ	0xFF5
  4793                           prodh	equ	0xFF4
  4794                           prodl	equ	0xFF3
  4795                           intcon	equ	0xFF2
  4796                           intcon2	equ	0xFF1
  4797                           postinc0	equ	0xFEE
  4798                           wreg	equ	0xFE8
  4799                           indf1	equ	0xFE7
  4800                           postinc1	equ	0xFE6
  4801                           postdec1	equ	0xFE5
  4802                           fsr1h	equ	0xFE2
  4803                           fsr1l	equ	0xFE1
  4804                           indf2	equ	0xFDF
  4805                           postinc2	equ	0xFDE
  4806                           postdec2	equ	0xFDD
  4807                           plusw2	equ	0xFDB
  4808                           fsr2h	equ	0xFDA
  4809                           fsr2l	equ	0xFD9
  4810                           status	equ	0xFD8
  4811                           
  4812 ;; *************** function _I2C_LCD_SetCursor *****************
  4813 ;; Defined at:
  4814 ;;		line 112 in file "../My_header\My_I2C.h"
  4815 ;; Parameters:    Size  Location     Type
  4816 ;;  col             1    wreg     unsigned char 
  4817 ;;  row             1    6[BANK0 ] unsigned char 
  4818 ;; Auto vars:     Size  Location     Type
  4819 ;;  col             1    9[BANK0 ] unsigned char 
  4820 ;;  row_offsets     2    7[BANK0 ] unsigned char [2]
  4821 ;; Return value:  Size  Location     Type
  4822 ;;		None               void
  4823 ;; Registers used:
  4824 ;;		wreg, fsr2l, fsr2h, status,2, status,0, prodl, prodh, cstack
  4825 ;; Tracked objects:
  4826 ;;		On entry : 0/0
  4827 ;;		On exit  : 0/0
  4828 ;;		Unchanged: 0/0
  4829 ;; Data sizes:     COMRAM   BANK0   BANK1   BANK2   BANK3   BANK4   BANK5   BANK6   BANK7   BANK8   BANK9  BANK10  BANK1
      +1  BANK12  BANK13  BANK14
  4830 ;;      Params:         0       1       0       0       0       0       0       0       0       0       0       0       
      +0       0       0       0
  4831 ;;      Locals:         0       3       0       0       0       0       0       0       0       0       0       0       
      +0       0       0       0
  4832 ;;      Temps:          0       0       0       0       0       0       0       0       0       0       0       0       
      +0       0       0       0
  4833 ;;      Totals:         0       4       0       0       0       0       0       0       0       0       0       0       
      +0       0       0       0
  4834 ;;Total ram usage:        4 bytes
  4835 ;; Hardware stack levels used:    1
  4836 ;; Hardware stack levels required when called:   14
  4837 ;; This function calls:
  4838 ;;		_I2C_LCD_Command
  4839 ;; This function is called by:
  4840 ;;		_main
  4841 ;; This function uses a non-reentrant model
  4842 ;;
  4843                           
  4844                           	psect	text26
  4845  003000                     __ptext26:
  4846                           	opt stack 0
  4847  003000                     _I2C_LCD_SetCursor:
  4848                           	opt stack 16
  4849                           
  4850                           ; BSR set to: 0
  4851                           ;incstack = 0
  4852                           ;I2C_LCD_SetCursor@col stored from wreg
  4853  003000  0100               	movlb	0	; () banked
  4854  003002  6FC6               	movwf	I2C_LCD_SetCursor@col& (0+255),b
  4855                           
  4856                           ; BSR set to: 0
  4857                           ;My_header\My_I2C.h: 113: uint8_t row_offsets[] = {0x00, 0x40};
  4858  003004  C0D6  F0C4         	movff	I2C_LCD_SetCursor@F9810,I2C_LCD_SetCursor@row_offsets
  4859  003008  C0D7  F0C5         	movff	I2C_LCD_SetCursor@F9810+1,I2C_LCD_SetCursor@row_offsets+1
  4860                           
  4861                           ; BSR set to: 0
  4862                           ;My_header\My_I2C.h: 115: I2C_LCD_Command(0x80 | (col + row_offsets[row]));
  4863  00300C  0100               	movlb	0	; () banked
  4864  00300E  51C3               	movf	I2C_LCD_SetCursor@row& (0+255),w,b
  4865  003010  0D01               	mullw	1
  4866  003012  0EC4               	movlw	low I2C_LCD_SetCursor@row_offsets
  4867  003014  24F3               	addwf	prodl,w,c
  4868  003016  6ED9               	movwf	fsr2l,c
  4869  003018  0E00               	movlw	high I2C_LCD_SetCursor@row_offsets
  4870  00301A  20F4               	addwfc	prodh,w,c
  4871  00301C  6EDA               	movwf	fsr2h,c
  4872  00301E  50DF               	movf	indf2,w,c
  4873  003020  0100               	movlb	0	; () banked
  4874  003022  25C6               	addwf	I2C_LCD_SetCursor@col& (0+255),w,b
  4875  003024  0980               	iorlw	128
  4876  003026  EC3A  F017         	call	_I2C_LCD_Command
  4877  00302A  0012               	return		;funcret
  4878  00302C                     __end_of_I2C_LCD_SetCursor:
  4879                           	opt stack 0
  4880                           tblptru	equ	0xFF8
  4881                           tblptrh	equ	0xFF7
  4882                           tblptrl	equ	0xFF6
  4883                           tablat	equ	0xFF5
  4884                           prodh	equ	0xFF4
  4885                           prodl	equ	0xFF3
  4886                           intcon	equ	0xFF2
  4887                           intcon2	equ	0xFF1
  4888                           postinc0	equ	0xFEE
  4889                           wreg	equ	0xFE8
  4890                           indf1	equ	0xFE7
  4891                           postinc1	equ	0xFE6
  4892                           postdec1	equ	0xFE5
  4893                           fsr1h	equ	0xFE2
  4894                           fsr1l	equ	0xFE1
  4895                           indf2	equ	0xFDF
  4896                           postinc2	equ	0xFDE
  4897                           postdec2	equ	0xFDD
  4898                           plusw2	equ	0xFDB
  4899                           fsr2h	equ	0xFDA
  4900                           fsr2l	equ	0xFD9
  4901                           status	equ	0xFD8
  4902                           
  4903 ;; *************** function _I2C_LCD_Command *****************
  4904 ;; Defined at:
  4905 ;;		line 94 in file "../My_header\My_I2C.h"
  4906 ;; Parameters:    Size  Location     Type
  4907 ;;  c               1    wreg     unsigned char 
  4908 ;; Auto vars:     Size  Location     Type
  4909 ;;  c               1    4[BANK0 ] unsigned char 
  4910 ;;  ans             1    5[BANK0 ] unsigned char 
  4911 ;; Return value:  Size  Location     Type
  4912 ;;		None               void
  4913 ;; Registers used:
  4914 ;;		wreg, status,2, status,0, cstack
  4915 ;; Tracked objects:
  4916 ;;		On entry : 0/0
  4917 ;;		On exit  : 0/0
  4918 ;;		Unchanged: 0/0
  4919 ;; Data sizes:     COMRAM   BANK0   BANK1   BANK2   BANK3   BANK4   BANK5   BANK6   BANK7   BANK8   BANK9  BANK10  BANK1
      +1  BANK12  BANK13  BANK14
  4920 ;;      Params:         0       0       0       0       0       0       0       0       0       0       0       0       
      +0       0       0       0
  4921 ;;      Locals:         0       2       0       0       0       0       0       0       0       0       0       0       
      +0       0       0       0
  4922 ;;      Temps:          0       0       0       0       0       0       0       0       0       0       0       0       
      +0       0       0       0
  4923 ;;      Totals:         0       2       0       0       0       0       0       0       0       0       0       0       
      +0       0       0       0
  4924 ;;Total ram usage:        2 bytes
  4925 ;; Hardware stack levels used:    1
  4926 ;; Hardware stack levels required when called:   13
  4927 ;; This function calls:
  4928 ;;		_I2C_Send
  4929 ;;		_I2C_Start
  4930 ;;		_I2C_Stop
  4931 ;; This function is called by:
  4932 ;;		_I2C_LCD_Clear
  4933 ;;		_I2C_LCD_SetCursor
  4934 ;;		_I2C_LCD_init
  4935 ;; This function uses a non-reentrant model
  4936 ;;
  4937                           
  4938                           	psect	text27
  4939  002E74                     __ptext27:
  4940                           	opt stack 0
  4941  002E74                     _I2C_LCD_Command:
  4942                           	opt stack 15
  4943                           
  4944                           ;incstack = 0
  4945                           ;I2C_LCD_Command@c stored from wreg
  4946  002E74  0100               	movlb	0	; () banked
  4947  002E76  6FC1               	movwf	I2C_LCD_Command@c& (0+255),b
  4948                           
  4949                           ; BSR set to: 0
  4950                           ;My_header\My_I2C.h: 95: uint8_t ans;
  4951                           ;My_header\My_I2C.h: 97: ans = I2C_Start(0x3E, 0);
  4952  002E78  0E00               	movlw	0
  4953  002E7A  0100               	movlb	0	; () banked
  4954  002E7C  6FBF               	movwf	I2C_Start@rw& (0+255),b
  4955  002E7E  0E3E               	movlw	62
  4956  002E80  EC71  F017         	call	_I2C_Start
  4957  002E84  0100               	movlb	0	; () banked
  4958  002E86  6FC2               	movwf	I2C_LCD_Command@ans& (0+255),b
  4959                           
  4960                           ; BSR set to: 0
  4961                           ;My_header\My_I2C.h: 98: if (ans == 0) {
  4962  002E88  0100               	movlb	0	; () banked
  4963  002E8A  51C2               	movf	I2C_LCD_Command@ans& (0+255),w,b
  4964  002E8C  0100               	movlb	0	; () banked
  4965  002E8E  A4D8               	btfss	status,2,c
  4966  002E90  D007               	goto	l835
  4967                           
  4968                           ; BSR set to: 0
  4969                           ;My_header\My_I2C.h: 100: I2C_Send(0b10000000);
  4970  002E92  0E80               	movlw	128
  4971  002E94  EC5C  F018         	call	_I2C_Send
  4972                           
  4973                           ;My_header\My_I2C.h: 101: I2C_Send(c);
  4974  002E98  0100               	movlb	0	; () banked
  4975  002E9A  51C1               	movf	I2C_LCD_Command@c& (0+255),w,b
  4976  002E9C  EC5C  F018         	call	_I2C_Send
  4977  002EA0                     l835:
  4978                           
  4979                           ;My_header\My_I2C.h: 102: }
  4980                           ;My_header\My_I2C.h: 103: I2C_Stop();
  4981  002EA0  EC8C  F018         	call	_I2C_Stop	;wreg free
  4982                           
  4983                           ;My_header\My_I2C.h: 104: _delay((unsigned long)((26)*(48000000/4000000.0)));
  4984  002EA4  0E68               	movlw	104
  4985  002EA6                     u4877:
  4986  002EA6  2EE8               	decfsz	wreg,f,c
  4987  002EA8  D7FE               	goto	u4877
  4988  002EAA  0012               	return		;funcret
  4989  002EAC                     __end_of_I2C_LCD_Command:
  4990                           	opt stack 0
  4991                           tblptru	equ	0xFF8
  4992                           tblptrh	equ	0xFF7
  4993                           tblptrl	equ	0xFF6
  4994                           tablat	equ	0xFF5
  4995                           prodh	equ	0xFF4
  4996                           prodl	equ	0xFF3
  4997                           intcon	equ	0xFF2
  4998                           intcon2	equ	0xFF1
  4999                           postinc0	equ	0xFEE
  5000                           wreg	equ	0xFE8
  5001                           indf1	equ	0xFE7
  5002                           postinc1	equ	0xFE6
  5003                           postdec1	equ	0xFE5
  5004                           fsr1h	equ	0xFE2
  5005                           fsr1l	equ	0xFE1
  5006                           indf2	equ	0xFDF
  5007                           postinc2	equ	0xFDE
  5008                           postdec2	equ	0xFDD
  5009                           plusw2	equ	0xFDB
  5010                           fsr2h	equ	0xFDA
  5011                           fsr2l	equ	0xFD9
  5012                           status	equ	0xFD8
  5013                           
  5014 ;; *************** function _I2C_LCD_Puts *****************
  5015 ;; Defined at:
  5016 ;;		line 131 in file "../My_header\My_I2C.h"
  5017 ;; Parameters:    Size  Location     Type
  5018 ;;  s               2    4[BANK0 ] PTR const unsigned char 
  5019 ;;		 -> STR_2(8), STR_1(9), 
  5020 ;; Auto vars:     Size  Location     Type
  5021 ;;  ans             2    7[BANK0 ] int 
  5022 ;; Return value:  Size  Location     Type
  5023 ;;		None               void
  5024 ;; Registers used:
  5025 ;;		wreg, status,2, status,0, tblptrl, tblptrh, tblptru, cstack
  5026 ;; Tracked objects:
  5027 ;;		On entry : 0/0
  5028 ;;		On exit  : 0/0
  5029 ;;		Unchanged: 0/0
  5030 ;; Data sizes:     COMRAM   BANK0   BANK1   BANK2   BANK3   BANK4   BANK5   BANK6   BANK7   BANK8   BANK9  BANK10  BANK1
      +1  BANK12  BANK13  BANK14
  5031 ;;      Params:         0       2       0       0       0       0       0       0       0       0       0       0       
      +0       0       0       0
  5032 ;;      Locals:         0       2       0       0       0       0       0       0       0       0       0       0       
      +0       0       0       0
  5033 ;;      Temps:          0       1       0       0       0       0       0       0       0       0       0       0       
      +0       0       0       0
  5034 ;;      Totals:         0       5       0       0       0       0       0       0       0       0       0       0       
      +0       0       0       0
  5035 ;;Total ram usage:        5 bytes
  5036 ;; Hardware stack levels used:    1
  5037 ;; Hardware stack levels required when called:   13
  5038 ;; This function calls:
  5039 ;;		_I2C_Send
  5040 ;;		_I2C_Start
  5041 ;;		_I2C_Stop
  5042 ;; This function is called by:
  5043 ;;		_main
  5044 ;; This function uses a non-reentrant model
  5045 ;;
  5046                           
  5047                           	psect	text28
  5048  002A4E                     __ptext28:
  5049                           	opt stack 0
  5050  002A4E                     _I2C_LCD_Puts:
  5051                           	opt stack 17
  5052                           
  5053                           ;My_header\My_I2C.h: 132: int ans;
  5054                           ;My_header\My_I2C.h: 134: ans = I2C_Start(0x3E, 0);
  5055                           
  5056                           ;incstack = 0
  5057  002A4E  0E00               	movlw	0
  5058  002A50  0100               	movlb	0	; () banked
  5059  002A52  6FBF               	movwf	I2C_Start@rw& (0+255),b
  5060  002A54  0E3E               	movlw	62
  5061  002A56  EC71  F017         	call	_I2C_Start
  5062  002A5A  0100               	movlb	0	; () banked
  5063  002A5C  6FC3               	movwf	??_I2C_LCD_Puts& (0+255),b
  5064  002A5E  0100               	movlb	0	; () banked
  5065  002A60  51C3               	movf	??_I2C_LCD_Puts& (0+255),w,b
  5066  002A62  0100               	movlb	0	; () banked
  5067  002A64  6FC4               	movwf	I2C_LCD_Puts@ans& (0+255),b
  5068  002A66  6BC5               	clrf	(I2C_LCD_Puts@ans+1)& (0+255),b
  5069                           
  5070                           ; BSR set to: 0
  5071                           ;My_header\My_I2C.h: 135: if (ans == 0) {
  5072  002A68  0100               	movlb	0	; () banked
  5073  002A6A  51C4               	movf	I2C_LCD_Puts@ans& (0+255),w,b
  5074  002A6C  0100               	movlb	0	; () banked
  5075  002A6E  11C5               	iorwf	(I2C_LCD_Puts@ans+1)& (0+255),w,b
  5076  002A70  A4D8               	btfss	status,2,c
  5077  002A72  D022               	goto	l5372
  5078                           
  5079                           ; BSR set to: 0
  5080                           ;My_header\My_I2C.h: 136: I2C_Send(0b01000000);
  5081  002A74  0E40               	movlw	64
  5082  002A76  EC5C  F018         	call	_I2C_Send
  5083                           
  5084                           ;My_header\My_I2C.h: 137: while (*s) {
  5085  002A7A  D011               	goto	l5370
  5086  002A7C                     l5364:
  5087                           
  5088                           ;My_header\My_I2C.h: 138: I2C_Send(*s++);
  5089  002A7C  C0C1  FFF6         	movff	I2C_LCD_Puts@s,tblptrl
  5090  002A80  C0C2  FFF7         	movff	I2C_LCD_Puts@s+1,tblptrh
  5091  002A84                     	if	0	;tblptru may be non-zero
  5092  002A84                     	endif
  5093  002A84                     	if	1	;Program memory is > 0xFFFF, there are 3 active tblptr bytes
  5094  002A84  0E00               	movlw	low (__mediumconst shr (0+16))
  5095  002A86  6EF8               	movwf	tblptru,c
  5096  002A88                     	endif
  5097  002A88  0008               	tblrd		*
  5098  002A8A  50F5               	movf	tablat,w,c
  5099  002A8C  EC5C  F018         	call	_I2C_Send
  5100  002A90  0100               	movlb	0	; () banked
  5101  002A92  4BC1               	infsnz	I2C_LCD_Puts@s& (0+255),f,b
  5102  002A94  2BC2               	incf	(I2C_LCD_Puts@s+1)& (0+255),f,b
  5103                           
  5104                           ; BSR set to: 0
  5105                           ;My_header\My_I2C.h: 139: _delay((unsigned long)((26)*(48000000/4000000.0)));
  5106  002A96  0E68               	movlw	104
  5107  002A98                     u4887:
  5108  002A98  2EE8               	decfsz	wreg,f,c
  5109  002A9A  D7FE               	goto	u4887
  5110  002A9C  D000               	goto	l5370
  5111  002A9E                     l5370:
  5112  002A9E  C0C1  FFF6         	movff	I2C_LCD_Puts@s,tblptrl
  5113  002AA2  C0C2  FFF7         	movff	I2C_LCD_Puts@s+1,tblptrh
  5114  002AA6                     	if	0	;tblptru may be non-zero
  5115  002AA6                     	endif
  5116  002AA6                     	if	1	;Program memory is > 0xFFFF, there are 3 active tblptr bytes
  5117  002AA6  0E00               	movlw	low (__mediumconst shr (0+16))
  5118  002AA8  6EF8               	movwf	tblptru,c
  5119  002AAA                     	endif
  5120  002AAA  0008               	tblrd		*
  5121  002AAC  50F5               	movf	tablat,w,c
  5122  002AAE  0900               	iorlw	0
  5123  002AB0  B4D8               	btfsc	status,2,c
  5124  002AB2  D002               	goto	l5372
  5125  002AB4  D7E3               	goto	l5364
  5126  002AB6  D000               	goto	l5372
  5127  002AB8                     l5372:
  5128                           
  5129                           ;My_header\My_I2C.h: 140: }
  5130                           ;My_header\My_I2C.h: 141: }
  5131                           ;My_header\My_I2C.h: 142: I2C_Stop();
  5132  002AB8  EC8C  F018         	call	_I2C_Stop	;wreg free
  5133  002ABC  0012               	return		;funcret
  5134  002ABE                     __end_of_I2C_LCD_Puts:
  5135                           	opt stack 0
  5136                           tblptru	equ	0xFF8
  5137                           tblptrh	equ	0xFF7
  5138                           tblptrl	equ	0xFF6
  5139                           tablat	equ	0xFF5
  5140                           prodh	equ	0xFF4
  5141                           prodl	equ	0xFF3
  5142                           intcon	equ	0xFF2
  5143                           intcon2	equ	0xFF1
  5144                           postinc0	equ	0xFEE
  5145                           wreg	equ	0xFE8
  5146                           indf1	equ	0xFE7
  5147                           postinc1	equ	0xFE6
  5148                           postdec1	equ	0xFE5
  5149                           fsr1h	equ	0xFE2
  5150                           fsr1l	equ	0xFE1
  5151                           indf2	equ	0xFDF
  5152                           postinc2	equ	0xFDE
  5153                           postdec2	equ	0xFDD
  5154                           plusw2	equ	0xFDB
  5155                           fsr2h	equ	0xFDA
  5156                           fsr2l	equ	0xFD9
  5157                           status	equ	0xFD8
  5158                           
  5159 ;; *************** function _I2C_Stop *****************
  5160 ;; Defined at:
  5161 ;;		line 59 in file "../My_header\My_I2C.h"
  5162 ;; Parameters:    Size  Location     Type
  5163 ;;		None
  5164 ;; Auto vars:     Size  Location     Type
  5165 ;;		None
  5166 ;; Return value:  Size  Location     Type
  5167 ;;		None               void
  5168 ;; Registers used:
  5169 ;;		wreg, status,2, status,0, cstack
  5170 ;; Tracked objects:
  5171 ;;		On entry : 0/0
  5172 ;;		On exit  : 0/0
  5173 ;;		Unchanged: 0/0
  5174 ;; Data sizes:     COMRAM   BANK0   BANK1   BANK2   BANK3   BANK4   BANK5   BANK6   BANK7   BANK8   BANK9  BANK10  BANK1
      +1  BANK12  BANK13  BANK14
  5175 ;;      Params:         0       0       0       0       0       0       0       0       0       0       0       0       
      +0       0       0       0
  5176 ;;      Locals:         0       0       0       0       0       0       0       0       0       0       0       0       
      +0       0       0       0
  5177 ;;      Temps:          0       0       0       0       0       0       0       0       0       0       0       0       
      +0       0       0       0
  5178 ;;      Totals:         0       0       0       0       0       0       0       0       0       0       0       0       
      +0       0       0       0
  5179 ;;Total ram usage:        0 bytes
  5180 ;; Hardware stack levels used:    1
  5181 ;; Hardware stack levels required when called:   12
  5182 ;; This function calls:
  5183 ;;		_I2C_IdleCheck
  5184 ;; This function is called by:
  5185 ;;		_I2C_LCD_Command
  5186 ;;		_I2C_LCD_Puts
  5187 ;;		_I2C_LCD_Putc
  5188 ;;		_I2C_LCD_CreateChar
  5189 ;; This function uses a non-reentrant model
  5190 ;;
  5191                           
  5192                           	psect	text29
  5193  003118                     __ptext29:
  5194                           	opt stack 0
  5195  003118                     _I2C_Stop:
  5196                           	opt stack 15
  5197                           
  5198                           ;My_header\My_I2C.h: 61: I2C_IdleCheck(0x5);
  5199                           
  5200                           ;incstack = 0
  5201  003118  0E05               	movlw	5
  5202  00311A  EC3D  F018         	call	_I2C_IdleCheck
  5203                           
  5204                           ;My_header\My_I2C.h: 62: SSP1CON2bits.PEN = 1;
  5205  00311E  84C5               	bsf	4037,2,c	;volatile
  5206  003120  0012               	return		;funcret
  5207  003122                     __end_of_I2C_Stop:
  5208                           	opt stack 0
  5209                           tblptru	equ	0xFF8
  5210                           tblptrh	equ	0xFF7
  5211                           tblptrl	equ	0xFF6
  5212                           tablat	equ	0xFF5
  5213                           prodh	equ	0xFF4
  5214                           prodl	equ	0xFF3
  5215                           intcon	equ	0xFF2
  5216                           intcon2	equ	0xFF1
  5217                           postinc0	equ	0xFEE
  5218                           wreg	equ	0xFE8
  5219                           indf1	equ	0xFE7
  5220                           postinc1	equ	0xFE6
  5221                           postdec1	equ	0xFE5
  5222                           fsr1h	equ	0xFE2
  5223                           fsr1l	equ	0xFE1
  5224                           indf2	equ	0xFDF
  5225                           postinc2	equ	0xFDE
  5226                           postdec2	equ	0xFDD
  5227                           plusw2	equ	0xFDB
  5228                           fsr2h	equ	0xFDA
  5229                           fsr2l	equ	0xFD9
  5230                           status	equ	0xFD8
  5231                           
  5232 ;; *************** function _I2C_Start *****************
  5233 ;; Defined at:
  5234 ;;		line 35 in file "../My_header\My_I2C.h"
  5235 ;; Parameters:    Size  Location     Type
  5236 ;;  adrs            1    wreg     unsigned char 
  5237 ;;  rw              1    2[BANK0 ] unsigned char 
  5238 ;; Auto vars:     Size  Location     Type
  5239 ;;  adrs            1    3[BANK0 ] unsigned char 
  5240 ;; Return value:  Size  Location     Type
  5241 ;;                  1    wreg      unsigned char 
  5242 ;; Registers used:
  5243 ;;		wreg, status,2, status,0, cstack
  5244 ;; Tracked objects:
  5245 ;;		On entry : 0/0
  5246 ;;		On exit  : 0/0
  5247 ;;		Unchanged: 0/0
  5248 ;; Data sizes:     COMRAM   BANK0   BANK1   BANK2   BANK3   BANK4   BANK5   BANK6   BANK7   BANK8   BANK9  BANK10  BANK1
      +1  BANK12  BANK13  BANK14
  5249 ;;      Params:         0       1       0       0       0       0       0       0       0       0       0       0       
      +0       0       0       0
  5250 ;;      Locals:         0       1       0       0       0       0       0       0       0       0       0       0       
      +0       0       0       0
  5251 ;;      Temps:          0       0       0       0       0       0       0       0       0       0       0       0       
      +0       0       0       0
  5252 ;;      Totals:         0       2       0       0       0       0       0       0       0       0       0       0       
      +0       0       0       0
  5253 ;;Total ram usage:        2 bytes
  5254 ;; Hardware stack levels used:    1
  5255 ;; Hardware stack levels required when called:   12
  5256 ;; This function calls:
  5257 ;;		_I2C_IdleCheck
  5258 ;; This function is called by:
  5259 ;;		_I2C_LCD_Command
  5260 ;;		_I2C_LCD_Puts
  5261 ;;		_I2C_LCD_Putc
  5262 ;;		_I2C_LCD_CreateChar
  5263 ;; This function uses a non-reentrant model
  5264 ;;
  5265                           
  5266                           	psect	text30
  5267  002EE2                     __ptext30:
  5268                           	opt stack 0
  5269  002EE2                     _I2C_Start:
  5270                           	opt stack 15
  5271                           
  5272                           ;incstack = 0
  5273                           ;I2C_Start@adrs stored from wreg
  5274  002EE2  0100               	movlb	0	; () banked
  5275  002EE4  6FC0               	movwf	I2C_Start@adrs& (0+255),b
  5276                           
  5277                           ; BSR set to: 0
  5278                           ;My_header\My_I2C.h: 37: I2C_IdleCheck(0x5);
  5279  002EE6  0E05               	movlw	5
  5280  002EE8  EC3D  F018         	call	_I2C_IdleCheck
  5281                           
  5282                           ;My_header\My_I2C.h: 38: SSP1CON2bits.SEN = 1;
  5283  002EEC  80C5               	bsf	4037,0,c	;volatile
  5284                           
  5285                           ;My_header\My_I2C.h: 40: I2C_IdleCheck(0x5);
  5286  002EEE  0E05               	movlw	5
  5287  002EF0  EC3D  F018         	call	_I2C_IdleCheck
  5288                           
  5289                           ;My_header\My_I2C.h: 41: SSP1IF = 0;
  5290  002EF4  969E               	bcf	3998,3,c	;volatile
  5291                           
  5292                           ;My_header\My_I2C.h: 42: SSP1BUF = (uint8_t) ((adrs << 1) + rw);
  5293  002EF6  0100               	movlb	0	; () banked
  5294  002EF8  51C0               	movf	I2C_Start@adrs& (0+255),w,b
  5295  002EFA  25C0               	addwf	I2C_Start@adrs& (0+255),w,b
  5296  002EFC  0100               	movlb	0	; () banked
  5297  002EFE  25BF               	addwf	I2C_Start@rw& (0+255),w,b
  5298  002F00  6EC9               	movwf	4041,c	;volatile
  5299                           
  5300                           ;My_header\My_I2C.h: 43: while (!SSP1IF);
  5301  002F02  D000               	goto	l811
  5302  002F04                     l811:
  5303                           
  5304                           ; BSR set to: 0
  5305  002F04  A69E               	btfss	3998,3,c	;volatile
  5306  002F06  D7FE               	goto	l811
  5307                           
  5308                           ; BSR set to: 0
  5309                           ;My_header\My_I2C.h: 44: return SSP1CON2bits.ACKSTAT;
  5310                           
  5311                           ; BSR set to: 0
  5312  002F08  ACC5               	btfss	4037,6,c	;volatile
  5313  002F0A  D002               	goto	u4130
  5314  002F0C  0E01               	movlw	1
  5315  002F0E  0012               	return	
  5316  002F10                     u4130:
  5317  002F10  0E00               	movlw	0
  5318  002F12  0012               	return	
  5319                           
  5320                           ; BSR set to: 0
  5321                           
  5322                           ; BSR set to: 0
  5323  002F14  0012               	return		;funcret
  5324  002F16                     __end_of_I2C_Start:
  5325                           	opt stack 0
  5326                           tblptru	equ	0xFF8
  5327                           tblptrh	equ	0xFF7
  5328                           tblptrl	equ	0xFF6
  5329                           tablat	equ	0xFF5
  5330                           prodh	equ	0xFF4
  5331                           prodl	equ	0xFF3
  5332                           intcon	equ	0xFF2
  5333                           intcon2	equ	0xFF1
  5334                           postinc0	equ	0xFEE
  5335                           wreg	equ	0xFE8
  5336                           indf1	equ	0xFE7
  5337                           postinc1	equ	0xFE6
  5338                           postdec1	equ	0xFE5
  5339                           fsr1h	equ	0xFE2
  5340                           fsr1l	equ	0xFE1
  5341                           indf2	equ	0xFDF
  5342                           postinc2	equ	0xFDE
  5343                           postdec2	equ	0xFDD
  5344                           plusw2	equ	0xFDB
  5345                           fsr2h	equ	0xFDA
  5346                           fsr2l	equ	0xFD9
  5347                           status	equ	0xFD8
  5348                           
  5349 ;; *************** function _I2C_Send *****************
  5350 ;; Defined at:
  5351 ;;		line 65 in file "../My_header\My_I2C.h"
  5352 ;; Parameters:    Size  Location     Type
  5353 ;;  data            1    wreg     unsigned char 
  5354 ;; Auto vars:     Size  Location     Type
  5355 ;;  data            1    2[BANK0 ] unsigned char 
  5356 ;; Return value:  Size  Location     Type
  5357 ;;                  1    wreg      unsigned char 
  5358 ;; Registers used:
  5359 ;;		wreg, status,2, status,0, cstack
  5360 ;; Tracked objects:
  5361 ;;		On entry : 0/0
  5362 ;;		On exit  : 0/0
  5363 ;;		Unchanged: 0/0
  5364 ;; Data sizes:     COMRAM   BANK0   BANK1   BANK2   BANK3   BANK4   BANK5   BANK6   BANK7   BANK8   BANK9  BANK10  BANK1
      +1  BANK12  BANK13  BANK14
  5365 ;;      Params:         0       0       0       0       0       0       0       0       0       0       0       0       
      +0       0       0       0
  5366 ;;      Locals:         0       1       0       0       0       0       0       0       0       0       0       0       
      +0       0       0       0
  5367 ;;      Temps:          0       0       0       0       0       0       0       0       0       0       0       0       
      +0       0       0       0
  5368 ;;      Totals:         0       1       0       0       0       0       0       0       0       0       0       0       
      +0       0       0       0
  5369 ;;Total ram usage:        1 bytes
  5370 ;; Hardware stack levels used:    1
  5371 ;; Hardware stack levels required when called:   12
  5372 ;; This function calls:
  5373 ;;		_I2C_IdleCheck
  5374 ;; This function is called by:
  5375 ;;		_I2C_LCD_Command
  5376 ;;		_I2C_LCD_Puts
  5377 ;;		_I2C_LCD_Putc
  5378 ;;		_I2C_LCD_CreateChar
  5379 ;; This function uses a non-reentrant model
  5380 ;;
  5381                           
  5382                           	psect	text31
  5383  0030B8                     __ptext31:
  5384                           	opt stack 0
  5385  0030B8                     _I2C_Send:
  5386                           	opt stack 15
  5387                           
  5388                           ; BSR set to: 0
  5389                           ;incstack = 0
  5390                           ;I2C_Send@data stored from wreg
  5391  0030B8  0100               	movlb	0	; () banked
  5392  0030BA  6FBF               	movwf	I2C_Send@data& (0+255),b
  5393                           
  5394                           ; BSR set to: 0
  5395                           ;My_header\My_I2C.h: 66: I2C_IdleCheck(0x5);
  5396  0030BC  0E05               	movlw	5
  5397  0030BE  EC3D  F018         	call	_I2C_IdleCheck
  5398                           
  5399                           ;My_header\My_I2C.h: 67: SSP1IF = 0;
  5400  0030C2  969E               	bcf	3998,3,c	;volatile
  5401                           
  5402                           ;My_header\My_I2C.h: 68: SSP1BUF = data;
  5403  0030C4  C0BF  FFC9         	movff	I2C_Send@data,4041	;volatile
  5404                           
  5405                           ;My_header\My_I2C.h: 69: while (!SSP1IF);
  5406  0030C8  D000               	goto	l826
  5407  0030CA                     l826:
  5408  0030CA  A69E               	btfss	3998,3,c	;volatile
  5409  0030CC  D7FE               	goto	l826
  5410                           
  5411                           ;My_header\My_I2C.h: 70: return SSP1CON2bits.ACKSTAT;
  5412                           ;	Return value of _I2C_Send is never used
  5413  0030CE  50C5               	movf	4037,w,c	;volatile
  5414  0030D0  0012               	return	
  5415  0030D2  0012               	return		;funcret
  5416  0030D4                     __end_of_I2C_Send:
  5417                           	opt stack 0
  5418                           tblptru	equ	0xFF8
  5419                           tblptrh	equ	0xFF7
  5420                           tblptrl	equ	0xFF6
  5421                           tablat	equ	0xFF5
  5422                           prodh	equ	0xFF4
  5423                           prodl	equ	0xFF3
  5424                           intcon	equ	0xFF2
  5425                           intcon2	equ	0xFF1
  5426                           postinc0	equ	0xFEE
  5427                           wreg	equ	0xFE8
  5428                           indf1	equ	0xFE7
  5429                           postinc1	equ	0xFE6
  5430                           postdec1	equ	0xFE5
  5431                           fsr1h	equ	0xFE2
  5432                           fsr1l	equ	0xFE1
  5433                           indf2	equ	0xFDF
  5434                           postinc2	equ	0xFDE
  5435                           postdec2	equ	0xFDD
  5436                           plusw2	equ	0xFDB
  5437                           fsr2h	equ	0xFDA
  5438                           fsr2l	equ	0xFD9
  5439                           status	equ	0xFD8
  5440                           
  5441 ;; *************** function _I2C_IdleCheck *****************
  5442 ;; Defined at:
  5443 ;;		line 21 in file "../My_header\My_I2C.h"
  5444 ;; Parameters:    Size  Location     Type
  5445 ;;  mask            1    wreg     unsigned char 
  5446 ;; Auto vars:     Size  Location     Type
  5447 ;;  mask            1    1[BANK0 ] unsigned char 
  5448 ;; Return value:  Size  Location     Type
  5449 ;;		None               void
  5450 ;; Registers used:
  5451 ;;		wreg, status,2, status,0
  5452 ;; Tracked objects:
  5453 ;;		On entry : 0/0
  5454 ;;		On exit  : 0/0
  5455 ;;		Unchanged: 0/0
  5456 ;; Data sizes:     COMRAM   BANK0   BANK1   BANK2   BANK3   BANK4   BANK5   BANK6   BANK7   BANK8   BANK9  BANK10  BANK1
      +1  BANK12  BANK13  BANK14
  5457 ;;      Params:         0       0       0       0       0       0       0       0       0       0       0       0       
      +0       0       0       0
  5458 ;;      Locals:         0       1       0       0       0       0       0       0       0       0       0       0       
      +0       0       0       0
  5459 ;;      Temps:          0       1       0       0       0       0       0       0       0       0       0       0       
      +0       0       0       0
  5460 ;;      Totals:         0       2       0       0       0       0       0       0       0       0       0       0       
      +0       0       0       0
  5461 ;;Total ram usage:        2 bytes
  5462 ;; Hardware stack levels used:    1
  5463 ;; Hardware stack levels required when called:   11
  5464 ;; This function calls:
  5465 ;;		Nothing
  5466 ;; This function is called by:
  5467 ;;		_I2C_Start
  5468 ;;		_I2C_Stop
  5469 ;;		_I2C_Send
  5470 ;;		_I2C_rStart
  5471 ;;		_I2C_Receive
  5472 ;; This function uses a non-reentrant model
  5473 ;;
  5474                           
  5475                           	psect	text32
  5476  00307A                     __ptext32:
  5477                           	opt stack 0
  5478  00307A                     _I2C_IdleCheck:
  5479                           	opt stack 15
  5480                           
  5481                           ;incstack = 0
  5482                           ;I2C_IdleCheck@mask stored from wreg
  5483  00307A  0100               	movlb	0	; () banked
  5484  00307C  6FBE               	movwf	I2C_IdleCheck@mask& (0+255),b
  5485                           
  5486                           ; BSR set to: 0
  5487                           
  5488                           ; BSR set to: 0
  5489                           ;My_header\My_I2C.h: 22: while ((SSP1CON2 & 0x1F) | (SSP1STAT & mask));
  5490  00307E  D000               	goto	l4908
  5491  003080                     l4908:
  5492                           
  5493                           ; BSR set to: 0
  5494  003080  50C7               	movf	4039,w,c	;volatile
  5495  003082  0100               	movlb	0	; () banked
  5496  003084  15BE               	andwf	I2C_IdleCheck@mask& (0+255),w,b
  5497  003086  0100               	movlb	0	; () banked
  5498  003088  6FBD               	movwf	??_I2C_IdleCheck& (0+255),b
  5499  00308A  50C5               	movf	4037,w,c	;volatile
  5500  00308C  0B1F               	andlw	31
  5501  00308E  0100               	movlb	0	; () banked
  5502  003090  11BD               	iorwf	??_I2C_IdleCheck& (0+255),w,b
  5503  003092  0900               	iorlw	0
  5504  003094  A4D8               	btfss	status,2,c
  5505  003096  D7F4               	goto	l4908
  5506                           
  5507                           ; BSR set to: 0
  5508                           
  5509                           ; BSR set to: 0
  5510  003098  0012               	return		;funcret
  5511  00309A                     __end_of_I2C_IdleCheck:
  5512                           	opt stack 0
  5513                           tblptru	equ	0xFF8
  5514                           tblptrh	equ	0xFF7
  5515                           tblptrl	equ	0xFF6
  5516                           tablat	equ	0xFF5
  5517                           prodh	equ	0xFF4
  5518                           prodl	equ	0xFF3
  5519                           intcon	equ	0xFF2
  5520                           intcon2	equ	0xFF1
  5521                           postinc0	equ	0xFEE
  5522                           wreg	equ	0xFE8
  5523                           indf1	equ	0xFE7
  5524                           postinc1	equ	0xFE6
  5525                           postdec1	equ	0xFE5
  5526                           fsr1h	equ	0xFE2
  5527                           fsr1l	equ	0xFE1
  5528                           indf2	equ	0xFDF
  5529                           postinc2	equ	0xFDE
  5530                           postdec2	equ	0xFDD
  5531                           plusw2	equ	0xFDB
  5532                           fsr2h	equ	0xFDA
  5533                           fsr2l	equ	0xFD9
  5534                           status	equ	0xFD8
  5535                           
  5536 ;; *************** function _ISR *****************
  5537 ;; Defined at:
  5538 ;;		line 43 in file "PIC18F27J53-USB05.c"
  5539 ;; Parameters:    Size  Location     Type
  5540 ;;		None
  5541 ;; Auto vars:     Size  Location     Type
  5542 ;;		None
  5543 ;; Return value:  Size  Location     Type
  5544 ;;		None               void
  5545 ;; Registers used:
  5546 ;;		wreg, fsr0l, fsr0h, fsr1l, fsr1h, fsr2l, fsr2h, status,2, status,0, tblptrl, tblptrh, tblptru, prodl, prodh, cstack
  5547 ;; Tracked objects:
  5548 ;;		On entry : 0/0
  5549 ;;		On exit  : 0/0
  5550 ;;		Unchanged: 0/0
  5551 ;; Data sizes:     COMRAM   BANK0   BANK1   BANK2   BANK3   BANK4   BANK5   BANK6   BANK7   BANK8   BANK9  BANK10  BANK1
      +1  BANK12  BANK13  BANK14
  5552 ;;      Params:         0       0       0       0       0       0       0       0       0       0       0       0       
      +0       0       0       0
  5553 ;;      Locals:         0       0       0       0       0       0       0       0       0       0       0       0       
      +0       0       0       0
  5554 ;;      Temps:         14       0       0       0       0       0       0       0       0       0       0       0       
      +0       0       0       0
  5555 ;;      Totals:        14       0       0       0       0       0       0       0       0       0       0       0       
      +0       0       0       0
  5556 ;;Total ram usage:       14 bytes
  5557 ;; Hardware stack levels used:    1
  5558 ;; Hardware stack levels required when called:   10
  5559 ;; This function calls:
  5560 ;;		_USB_ISR
  5561 ;; This function is called by:
  5562 ;;		Interrupt level 2
  5563 ;; This function uses a non-reentrant model
  5564 ;;
  5565                           
  5566                           	psect	intcode
  5567  000008                     __pintcode:
  5568                           	opt stack 0
  5569  000008                     _ISR:
  5570                           	opt stack 14
  5571                           
  5572                           ; BSR set to: 0
  5573                           ;incstack = 0
  5574  000008  CFFA F04B          	movff	pclath,??_ISR
  5575  00000C  CFFB F04C          	movff	pclatu,??_ISR+1
  5576  000010  CFE9 F04D          	movff	fsr0l,??_ISR+2
  5577  000014  CFEA F04E          	movff	fsr0h,??_ISR+3
  5578  000018  CFE1 F04F          	movff	fsr1l,??_ISR+4
  5579  00001C  CFE2 F050          	movff	fsr1h,??_ISR+5
  5580  000020  CFD9 F051          	movff	fsr2l,??_ISR+6
  5581  000024  CFDA F052          	movff	fsr2h,??_ISR+7
  5582  000028  CFF3 F053          	movff	prodl,??_ISR+8
  5583  00002C  CFF4 F054          	movff	prodh,??_ISR+9
  5584  000030  CFF6 F055          	movff	tblptrl,??_ISR+10
  5585  000034  CFF7 F056          	movff	tblptrh,??_ISR+11
  5586  000038  CFF8 F057          	movff	tblptru,??_ISR+12
  5587  00003C  CFF5 F058          	movff	tablat,??_ISR+13
  5588                           
  5589                           ;PIC18F27J53-USB05.c: 44: USB_ISR();
  5590  000040  EC91  F018         	call	_USB_ISR	;wreg free
  5591                           
  5592                           ;PIC18F27J53-USB05.c: 45: if (INTCONbits.T0IF && INTCONbits.T0IE) {
  5593  000044  B4F2               	btfsc	intcon,2,c	;volatile
  5594  000046  AAF2               	btfss	intcon,5,c	;volatile
  5595  000048  D002               	goto	i2l871
  5596                           
  5597                           ;PIC18F27J53-USB05.c: 46: INTCONbits.T0IF = 0;
  5598  00004A  94F2               	bcf	intcon,2,c	;volatile
  5599                           
  5600                           ;PIC18F27J53-USB05.c: 47: LATAbits.LATA0 = !LATAbits.LATA0;
  5601  00004C  7089               	btg	3977,0,c	;volatile
  5602  00004E                     i2l871:
  5603                           
  5604                           ;PIC18F27J53-USB05.c: 48: }
  5605                           ;PIC18F27J53-USB05.c: 49: if (PIR1bits.TMR1IF && PIE1bits.TMR1IE) {
  5606  00004E  B09E               	btfsc	3998,0,c	;volatile
  5607  000050  A09D               	btfss	3997,0,c	;volatile
  5608  000052  D005               	goto	i2l4854
  5609                           
  5610                           ;PIC18F27J53-USB05.c: 50: PIR1bits.TMR1IF = 0;
  5611  000054  909E               	bcf	3998,0,c	;volatile
  5612                           
  5613                           ;PIC18F27J53-USB05.c: 51: TMR1H = 0xC0;
  5614  000056  0EC0               	movlw	192
  5615  000058  6ECF               	movwf	4047,c	;volatile
  5616                           
  5617                           ;PIC18F27J53-USB05.c: 52: LATAbits.LATA1 = !LATAbits.LATA1;
  5618  00005A  7289               	btg	3977,1,c	;volatile
  5619  00005C  D000               	goto	i2l4854
  5620  00005E                     i2l4854:
  5621                           
  5622                           ;PIC18F27J53-USB05.c: 53: }
  5623                           ;PIC18F27J53-USB05.c: 54: if (PIR2bits.TMR3IF && PIE2bits.TMR3IE) {
  5624  00005E  B2A1               	btfsc	4001,1,c	;volatile
  5625  000060  A2A0               	btfss	4000,1,c	;volatile
  5626  000062  D002               	goto	i2l874
  5627                           
  5628                           ;PIC18F27J53-USB05.c: 55: PIR2bits.TMR3IF = 0;
  5629  000064  92A1               	bcf	4001,1,c	;volatile
  5630  000066  D000               	goto	i2l874
  5631  000068                     i2l874:
  5632  000068  C058  FFF5         	movff	??_ISR+13,tablat
  5633  00006C  C057  FFF8         	movff	??_ISR+12,tblptru
  5634  000070  C056  FFF7         	movff	??_ISR+11,tblptrh
  5635  000074  C055  FFF6         	movff	??_ISR+10,tblptrl
  5636  000078  C054  FFF4         	movff	??_ISR+9,prodh
  5637  00007C  C053  FFF3         	movff	??_ISR+8,prodl
  5638  000080  C052  FFDA         	movff	??_ISR+7,fsr2h
  5639  000084  C051  FFD9         	movff	??_ISR+6,fsr2l
  5640  000088  C050  FFE2         	movff	??_ISR+5,fsr1h
  5641  00008C  C04F  FFE1         	movff	??_ISR+4,fsr1l
  5642  000090  C04E  FFEA         	movff	??_ISR+3,fsr0h
  5643  000094  C04D  FFE9         	movff	??_ISR+2,fsr0l
  5644  000098  C04C  FFFB         	movff	??_ISR+1,pclatu
  5645  00009C  C04B  FFFA         	movff	??_ISR,pclath
  5646  0000A0  0011               	retfie		f
  5647  0000A2                     __end_of_ISR:
  5648                           	opt stack 0
  5649                           pclatu	equ	0xFFB
  5650                           pclath	equ	0xFFA
  5651                           tblptru	equ	0xFF8
  5652                           tblptrh	equ	0xFF7
  5653                           tblptrl	equ	0xFF6
  5654                           tablat	equ	0xFF5
  5655                           prodh	equ	0xFF4
  5656                           prodl	equ	0xFF3
  5657                           intcon	equ	0xFF2
  5658                           intcon2	equ	0xFF1
  5659                           postinc0	equ	0xFEE
  5660                           fsr0h	equ	0xFEA
  5661                           fsr0l	equ	0xFE9
  5662                           wreg	equ	0xFE8
  5663                           indf1	equ	0xFE7
  5664                           postinc1	equ	0xFE6
  5665                           postdec1	equ	0xFE5
  5666                           fsr1h	equ	0xFE2
  5667                           fsr1l	equ	0xFE1
  5668                           indf2	equ	0xFDF
  5669                           postinc2	equ	0xFDE
  5670                           postdec2	equ	0xFDD
  5671                           plusw2	equ	0xFDB
  5672                           fsr2h	equ	0xFDA
  5673                           fsr2l	equ	0xFD9
  5674                           status	equ	0xFD8
  5675                           
  5676 ;; *************** function _USB_ISR *****************
  5677 ;; Defined at:
  5678 ;;		line 3 in file "../My_header/usb_cdc/my_usb_cdc.c"
  5679 ;; Parameters:    Size  Location     Type
  5680 ;;		None
  5681 ;; Auto vars:     Size  Location     Type
  5682 ;;		None
  5683 ;; Return value:  Size  Location     Type
  5684 ;;		None               void
  5685 ;; Registers used:
  5686 ;;		wreg, fsr0l, fsr0h, fsr1l, fsr1h, fsr2l, fsr2h, status,2, status,0, tblptrl, tblptrh, tblptru, prodl, prodh, cstack
  5687 ;; Tracked objects:
  5688 ;;		On entry : 0/0
  5689 ;;		On exit  : 0/0
  5690 ;;		Unchanged: 0/0
  5691 ;; Data sizes:     COMRAM   BANK0   BANK1   BANK2   BANK3   BANK4   BANK5   BANK6   BANK7   BANK8   BANK9  BANK10  BANK1
      +1  BANK12  BANK13  BANK14
  5692 ;;      Params:         0       0       0       0       0       0       0       0       0       0       0       0       
      +0       0       0       0
  5693 ;;      Locals:         0       0       0       0       0       0       0       0       0       0       0       0       
      +0       0       0       0
  5694 ;;      Temps:          0       0       0       0       0       0       0       0       0       0       0       0       
      +0       0       0       0
  5695 ;;      Totals:         0       0       0       0       0       0       0       0       0       0       0       0       
      +0       0       0       0
  5696 ;;Total ram usage:        0 bytes
  5697 ;; Hardware stack levels used:    1
  5698 ;; Hardware stack levels required when called:    9
  5699 ;; This function calls:
  5700 ;;		_USBDeviceTasks
  5701 ;; This function is called by:
  5702 ;;		_ISR
  5703 ;; This function uses a non-reentrant model
  5704 ;;
  5705                           
  5706                           	psect	text34
  5707  003122                     __ptext34:
  5708                           	opt stack 0
  5709  003122                     _USB_ISR:
  5710                           	opt stack 14
  5711                           
  5712                           ;my_usb_cdc.c: 4: USBDeviceTasks();
  5713                           
  5714                           ;incstack = 0
  5715  003122  EC03  F00A         	call	_USBDeviceTasks	;wreg free
  5716  003126  0012               	return		;funcret
  5717  003128                     __end_of_USB_ISR:
  5718                           	opt stack 0
  5719                           pclatu	equ	0xFFB
  5720                           pclath	equ	0xFFA
  5721                           tblptru	equ	0xFF8
  5722                           tblptrh	equ	0xFF7
  5723                           tblptrl	equ	0xFF6
  5724                           tablat	equ	0xFF5
  5725                           prodh	equ	0xFF4
  5726                           prodl	equ	0xFF3
  5727                           intcon	equ	0xFF2
  5728                           intcon2	equ	0xFF1
  5729                           postinc0	equ	0xFEE
  5730                           fsr0h	equ	0xFEA
  5731                           fsr0l	equ	0xFE9
  5732                           wreg	equ	0xFE8
  5733                           indf1	equ	0xFE7
  5734                           postinc1	equ	0xFE6
  5735                           postdec1	equ	0xFE5
  5736                           fsr1h	equ	0xFE2
  5737                           fsr1l	equ	0xFE1
  5738                           indf2	equ	0xFDF
  5739                           postinc2	equ	0xFDE
  5740                           postdec2	equ	0xFDD
  5741                           plusw2	equ	0xFDB
  5742                           fsr2h	equ	0xFDA
  5743                           fsr2l	equ	0xFD9
  5744                           status	equ	0xFD8
  5745                           
  5746 ;; *************** function _USBDeviceTasks *****************
  5747 ;; Defined at:
  5748 ;;		line 489 in file "../My_header/usb_cdc/usb/usb_device.c"
  5749 ;; Parameters:    Size  Location     Type
  5750 ;;		None
  5751 ;; Auto vars:     Size  Location     Type
  5752 ;;  i               1   29[COMRAM] unsigned char 
  5753 ;; Return value:  Size  Location     Type
  5754 ;;		None               void
  5755 ;; Registers used:
  5756 ;;		wreg, fsr0l, fsr0h, fsr1l, fsr1h, fsr2l, fsr2h, status,2, status,0, tblptrl, tblptrh, tblptru, prodl, prodh, cstack
  5757 ;; Tracked objects:
  5758 ;;		On entry : 0/0
  5759 ;;		On exit  : 0/0
  5760 ;;		Unchanged: 0/0
  5761 ;; Data sizes:     COMRAM   BANK0   BANK1   BANK2   BANK3   BANK4   BANK5   BANK6   BANK7   BANK8   BANK9  BANK10  BANK1
      +1  BANK12  BANK13  BANK14
  5762 ;;      Params:         0       0       0       0       0       0       0       0       0       0       0       0       
      +0       0       0       0
  5763 ;;      Locals:         1       0       0       0       0       0       0       0       0       0       0       0       
      +0       0       0       0
  5764 ;;      Temps:          0       0       0       0       0       0       0       0       0       0       0       0       
      +0       0       0       0
  5765 ;;      Totals:         1       0       0       0       0       0       0       0       0       0       0       0       
      +0       0       0       0
  5766 ;;Total ram usage:        1 bytes
  5767 ;; Hardware stack levels used:    1
  5768 ;; Hardware stack levels required when called:    8
  5769 ;; This function calls:
  5770 ;;		_USBCtrlEPAllowStatusStage
  5771 ;;		_USBCtrlEPService
  5772 ;;		_USBStallHandler
  5773 ;;		_USBSuspend
  5774 ;;		_USBWakeFromSuspend
  5775 ;;		_USER_USB_CALLBACK_EVENT_HANDLER
  5776 ;;		i2_USBDeviceInit
  5777 ;; This function is called by:
  5778 ;;		_USB_ISR
  5779 ;; This function uses a non-reentrant model
  5780 ;;
  5781                           
  5782                           	psect	text35
  5783  001406                     __ptext35:
  5784                           	opt stack 0
  5785  001406                     _USBDeviceTasks:
  5786                           	opt stack 14
  5787                           
  5788                           ;usb_device.c: 491: uint8_t i;
  5789                           ;usb_device.c: 602: if(USBDeviceState == ATTACHED_STATE)
  5790                           
  5791                           ;incstack = 0
  5792  001406  041D               	decf	_USBDeviceState,w,c	;volatile
  5793  001408  B4D8               	btfsc	status,2,c
  5794                           
  5795                           ;usb_device.c: 603: {
  5796                           ;usb_device.c: 613: if(!UCONbits.SE0)
  5797  00140A  BA65               	btfsc	3941,5,c	;volatile
  5798  00140C  D009               	goto	i2l4330
  5799                           
  5800                           ;usb_device.c: 614: {
  5801                           ;usb_device.c: 615: {UIR = 0;};
  5802  00140E  0E00               	movlw	0
  5803  001410  6E62               	movwf	3938,c	;volatile
  5804                           
  5805                           ;usb_device.c: 619: UIEbits.URSTIE = 1;
  5806  001412  010F               	movlb	15	; () banked
  5807  001414  8136               	bsf	54,0,b	;volatile
  5808                           
  5809                           ; BSR set to: 15
  5810                           ;usb_device.c: 620: UIEbits.IDLEIE = 1;
  5811  001416  010F               	movlb	15	; () banked
  5812  001418  8936               	bsf	54,4,b	;volatile
  5813                           
  5814                           ;usb_device.c: 621: USBDeviceState = POWERED_STATE;
  5815  00141A  0E02               	movlw	2
  5816  00141C  6E1D               	movwf	_USBDeviceState,c	;volatile
  5817                           
  5818                           ; BSR set to: 15
  5819  00141E  D000               	goto	i2l4330
  5820  001420                     i2l4330:
  5821                           
  5822                           ;usb_device.c: 622: }
  5823                           ;usb_device.c: 623: }
  5824                           ;usb_device.c: 639: if(UIRbits.ACTVIF && UIEbits.ACTVIE)
  5825  001420  A462               	btfss	3938,2,c	;volatile
  5826  001422  D007               	goto	i2l4338
  5827  001424  010F               	movlb	15	; () banked
  5828  001426  A536               	btfss	54,2,b	;volatile
  5829  001428  D004               	goto	i2l4338
  5830                           
  5831                           ; BSR set to: 15
  5832                           ;usb_device.c: 640: {
  5833                           ;usb_device.c: 641: (UIR &= 0xFB);
  5834  00142A  9462               	bcf	3938,2,c	;volatile
  5835                           
  5836                           ; BSR set to: 15
  5837                           ;usb_device.c: 645: USBWakeFromSuspend();
  5838  00142C  EC8B  F017         	call	_USBWakeFromSuspend	;wreg free
  5839  001430  D000               	goto	i2l4338
  5840  001432                     i2l4338:
  5841                           
  5842                           ;usb_device.c: 647: }
  5843                           ;usb_device.c: 652: if(UCONbits.SUSPND==1)
  5844  001432  A265               	btfss	3941,1,c	;volatile
  5845  001434  D002               	goto	i2l144
  5846                           
  5847                           ;usb_device.c: 653: {
  5848                           ;usb_device.c: 654: {PIR2bits.USBIF = 0;};
  5849  001436  98A1               	bcf	4001,4,c	;volatile
  5850                           
  5851                           ;usb_device.c: 655: return;
  5852  001438  0012               	return	
  5853  00143A                     i2l144:
  5854                           
  5855                           ;usb_device.c: 656: }
  5856                           ;usb_device.c: 668: if(UIRbits.URSTIF && UIEbits.URSTIE)
  5857  00143A  A062               	btfss	3938,0,c	;volatile
  5858  00143C  D00A               	goto	i2l4352
  5859  00143E  010F               	movlb	15	; () banked
  5860  001440  A136               	btfss	54,0,b	;volatile
  5861  001442  D007               	goto	i2l4352
  5862                           
  5863                           ; BSR set to: 15
  5864                           ;usb_device.c: 669: {
  5865                           ;usb_device.c: 670: USBDeviceInit();
  5866  001444  EC63  F00B         	call	i2_USBDeviceInit	;wreg free
  5867                           
  5868                           ;usb_device.c: 674: {PIE2bits.USBIE = 1;};
  5869  001448  88A0               	bsf	4000,4,c	;volatile
  5870                           
  5871                           ;usb_device.c: 676: USBDeviceState = DEFAULT_STATE;
  5872  00144A  0E04               	movlw	4
  5873  00144C  6E1D               	movwf	_USBDeviceState,c	;volatile
  5874                           
  5875                           ;usb_device.c: 686: (UIR &= 0xFE);
  5876  00144E  9062               	bcf	3938,0,c	;volatile
  5877  001450  D000               	goto	i2l4352
  5878  001452                     i2l4352:
  5879                           
  5880                           ;usb_device.c: 687: }
  5881                           ;usb_device.c: 692: if(UIRbits.IDLEIF && UIEbits.IDLEIE)
  5882  001452  A862               	btfss	3938,4,c	;volatile
  5883  001454  D007               	goto	i2l4360
  5884  001456  010F               	movlb	15	; () banked
  5885  001458  A936               	btfss	54,4,b	;volatile
  5886  00145A  D004               	goto	i2l4360
  5887                           
  5888                           ; BSR set to: 15
  5889                           ;usb_device.c: 693: {
  5890                           ;usb_device.c: 698: USBSuspend();
  5891  00145C  EC16  F018         	call	_USBSuspend	;wreg free
  5892                           
  5893                           ;usb_device.c: 701: (UIR &= 0xEF);
  5894  001460  9862               	bcf	3938,4,c	;volatile
  5895  001462  D000               	goto	i2l4360
  5896  001464                     i2l4360:
  5897                           
  5898                           ;usb_device.c: 702: }
  5899                           ;usb_device.c: 704: if(UIRbits.SOFIF)
  5900  001464  AC62               	btfss	3938,6,c	;volatile
  5901  001466  D01E               	goto	i2l4376
  5902                           
  5903                           ;usb_device.c: 705: {
  5904                           ;usb_device.c: 706: if(UIEbits.SOFIE)
  5905  001468  010F               	movlb	15	; () banked
  5906  00146A  AD36               	btfss	54,6,b	;volatile
  5907  00146C  D00F               	goto	i2l4366
  5908                           
  5909                           ; BSR set to: 15
  5910                           ;usb_device.c: 707: {
  5911                           ;usb_device.c: 708: USER_USB_CALLBACK_EVENT_HANDLER(EVENT_SOF,0,1);
  5912  00146E  0E00               	movlw	0
  5913  001470  6E3A               	movwf	USER_USB_CALLBACK_EVENT_HANDLER@event+1,c
  5914  001472  0E73               	movlw	115
  5915  001474  6E39               	movwf	USER_USB_CALLBACK_EVENT_HANDLER@event,c
  5916  001476  0E00               	movlw	0
  5917  001478  6E3B               	movwf	USER_USB_CALLBACK_EVENT_HANDLER@pdata,c
  5918  00147A  0E00               	movlw	0
  5919  00147C  6E3C               	movwf	USER_USB_CALLBACK_EVENT_HANDLER@pdata+1,c
  5920  00147E  0E00               	movlw	0
  5921  001480  6E3E               	movwf	USER_USB_CALLBACK_EVENT_HANDLER@size+1,c
  5922  001482  0E01               	movlw	1
  5923  001484  6E3D               	movwf	USER_USB_CALLBACK_EVENT_HANDLER@size,c
  5924  001486  ECA4  F017         	call	_USER_USB_CALLBACK_EVENT_HANDLER	;wreg free
  5925  00148A  D000               	goto	i2l4366
  5926  00148C                     i2l4366:
  5927                           
  5928                           ;usb_device.c: 709: }
  5929                           ;usb_device.c: 710: (UIR &= 0xBF);
  5930  00148C  9C62               	bcf	3938,6,c	;volatile
  5931                           
  5932                           ;usb_device.c: 735: if(USBStatusStageTimeoutCounter != 0u)
  5933  00148E  5020               	movf	_USBStatusStageTimeoutCounter,w,c	;volatile
  5934  001490  B4D8               	btfsc	status,2,c
  5935  001492  D002               	goto	i2l4372
  5936                           
  5937                           ;usb_device.c: 736: {
  5938                           ;usb_device.c: 737: USBStatusStageTimeoutCounter--;
  5939  001494  0620               	decf	_USBStatusStageTimeoutCounter,f,c	;volatile
  5940  001496  D000               	goto	i2l4372
  5941  001498                     i2l4372:
  5942                           
  5943                           ;usb_device.c: 738: }
  5944                           ;usb_device.c: 744: if(USBStatusStageTimeoutCounter == 0)
  5945  001498  5020               	movf	_USBStatusStageTimeoutCounter,w,c	;volatile
  5946  00149A  A4D8               	btfss	status,2,c
  5947  00149C  D003               	goto	i2l4376
  5948                           
  5949                           ;usb_device.c: 745: {
  5950                           ;usb_device.c: 746: USBCtrlEPAllowStatusStage();
  5951  00149E  EC8F  F011         	call	_USBCtrlEPAllowStatusStage	;wreg free
  5952  0014A2  D000               	goto	i2l4376
  5953  0014A4                     i2l4376:
  5954                           
  5955                           ;usb_device.c: 747: }
  5956                           ;usb_device.c: 749: }
  5957                           ;usb_device.c: 751: if(UIRbits.STALLIF && UIEbits.STALLIE)
  5958  0014A4  AA62               	btfss	3938,5,c	;volatile
  5959  0014A6  D006               	goto	i2l4382
  5960  0014A8  010F               	movlb	15	; () banked
  5961  0014AA  AB36               	btfss	54,5,b	;volatile
  5962  0014AC  D003               	goto	i2l4382
  5963                           
  5964                           ; BSR set to: 15
  5965                           ;usb_device.c: 752: {
  5966                           ;usb_device.c: 753: USBStallHandler();
  5967  0014AE  EC98  F016         	call	_USBStallHandler	;wreg free
  5968  0014B2  D000               	goto	i2l4382
  5969  0014B4                     i2l4382:
  5970                           
  5971                           ;usb_device.c: 754: }
  5972                           ;usb_device.c: 756: if(UIRbits.UERRIF && UIEbits.UERRIE)
  5973  0014B4  A262               	btfss	3938,1,c	;volatile
  5974  0014B6  D013               	goto	i2l4390
  5975  0014B8  010F               	movlb	15	; () banked
  5976  0014BA  A336               	btfss	54,1,b	;volatile
  5977  0014BC  D010               	goto	i2l4390
  5978                           
  5979                           ; BSR set to: 15
  5980                           ;usb_device.c: 757: {
  5981                           ;usb_device.c: 758: USER_USB_CALLBACK_EVENT_HANDLER(EVENT_BUS_ERROR,0,1);
  5982  0014BE  0E7F               	movlw	127
  5983  0014C0  6E3A               	movwf	USER_USB_CALLBACK_EVENT_HANDLER@event+1,c
  5984  0014C2  6839               	setf	USER_USB_CALLBACK_EVENT_HANDLER@event,c
  5985  0014C4  0E00               	movlw	0
  5986  0014C6  6E3B               	movwf	USER_USB_CALLBACK_EVENT_HANDLER@pdata,c
  5987  0014C8  0E00               	movlw	0
  5988  0014CA  6E3C               	movwf	USER_USB_CALLBACK_EVENT_HANDLER@pdata+1,c
  5989  0014CC  0E00               	movlw	0
  5990  0014CE  6E3E               	movwf	USER_USB_CALLBACK_EVENT_HANDLER@size+1,c
  5991  0014D0  0E01               	movlw	1
  5992  0014D2  6E3D               	movwf	USER_USB_CALLBACK_EVENT_HANDLER@size,c
  5993  0014D4  ECA4  F017         	call	_USER_USB_CALLBACK_EVENT_HANDLER	;wreg free
  5994                           
  5995                           ;usb_device.c: 759: {UEIR = 0;};
  5996  0014D8  0E00               	movlw	0
  5997  0014DA  6E63               	movwf	3939,c	;volatile
  5998  0014DC  D000               	goto	i2l4390
  5999  0014DE                     i2l4390:
  6000                           
  6001                           ;usb_device.c: 767: }
  6002                           ;usb_device.c: 774: if(USBDeviceState < DEFAULT_STATE)
  6003  0014DE  0E04               	movlw	4
  6004  0014E0  601D               	cpfslt	_USBDeviceState,c	;volatile
  6005  0014E2  D002               	goto	i2l154
  6006                           
  6007                           ;usb_device.c: 775: {
  6008                           ;usb_device.c: 776: {PIR2bits.USBIF = 0;};
  6009  0014E4  98A1               	bcf	4001,4,c	;volatile
  6010                           
  6011                           ;usb_device.c: 777: return;
  6012  0014E6  0012               	return	
  6013  0014E8                     i2l154:
  6014                           
  6015                           ;usb_device.c: 778: }
  6016                           ;usb_device.c: 783: if(UIEbits.TRNIE)
  6017  0014E8  010F               	movlb	15	; () banked
  6018  0014EA  A736               	btfss	54,3,b	;volatile
  6019  0014EC  D03E               	goto	i2l155
  6020                           
  6021                           ; BSR set to: 15
  6022                           ;usb_device.c: 784: {
  6023                           ;usb_device.c: 785: for(i = 0; i < 4u; i++)
  6024  0014EE  0E00               	movlw	0
  6025  0014F0  6E4A               	movwf	USBDeviceTasks@i,c
  6026  0014F2                     i2l4396:
  6027                           
  6028                           ; BSR set to: 15
  6029  0014F2  0E03               	movlw	3
  6030  0014F4  644A               	cpfsgt	USBDeviceTasks@i,c
  6031  0014F6  D001               	goto	i2l156
  6032                           
  6033                           ; BSR set to: 15
  6034  0014F8  D038               	goto	i2l155
  6035  0014FA                     i2l156:
  6036                           
  6037                           ;usb_device.c: 786: {
  6038                           ;usb_device.c: 787: if(UIRbits.TRNIF)
  6039  0014FA  A662               	btfss	3938,3,c	;volatile
  6040  0014FC  D036               	goto	i2l155
  6041                           
  6042                           ;usb_device.c: 788: {
  6043                           ;usb_device.c: 790: USTATcopy.Val = USTAT;
  6044  0014FE  CF64 F02C          	movff	3940,_USTATcopy	;volatile
  6045                           
  6046                           ;usb_device.c: 791: endpoint_number = USTATcopy.endpoint_number;
  6047  001502  302C               	rrcf	_USTATcopy,w,c	;volatile
  6048  001504  32E8               	rrcf	wreg,f,c
  6049  001506  32E8               	rrcf	wreg,f,c
  6050  001508  0B0F               	andlw	15
  6051  00150A  6E23               	movwf	_endpoint_number,c	;volatile
  6052                           
  6053                           ;usb_device.c: 793: (UIR &= 0xF7);
  6054  00150C  9662               	bcf	3938,3,c	;volatile
  6055                           
  6056                           ;usb_device.c: 798: if(USTATcopy.direction == 0)
  6057  00150E  B42C               	btfsc	_USTATcopy,2,c	;volatile
  6058  001510  D00A               	goto	i2l4410
  6059                           
  6060                           ;usb_device.c: 799: {
  6061                           ;usb_device.c: 800: ep_data_out[endpoint_number].bits.ping_pong_state ^= 1;
  6062  001512  5023               	movf	_endpoint_number,w,c	;volatile
  6063  001514  0D01               	mullw	1
  6064  001516  0E77               	movlw	low _ep_data_out
  6065  001518  24F3               	addwf	prodl,w,c
  6066  00151A  6ED9               	movwf	fsr2l,c
  6067  00151C  0E00               	movlw	high _ep_data_out
  6068  00151E  20F4               	addwfc	prodh,w,c
  6069  001520  6EDA               	movwf	fsr2h,c
  6070  001522  0100               	movlb	0	; () banked
  6071  001524  D008               	goto	L4
  6072  001526                     i2l4410:
  6073                           
  6074                           ;usb_device.c: 802: else
  6075                           ;usb_device.c: 803: {
  6076                           ;usb_device.c: 804: ep_data_in[endpoint_number].bits.ping_pong_state ^= 1;
  6077  001526  5023               	movf	_endpoint_number,w,c	;volatile
  6078  001528  0D01               	mullw	1
  6079  00152A  0E10               	movlw	low _ep_data_in
  6080  00152C  24F3               	addwf	prodl,w,c
  6081  00152E  6ED9               	movwf	fsr2l,c
  6082  001530  0E00               	movlw	high _ep_data_in
  6083  001532  20F4               	addwfc	prodh,w,c
  6084  001534  6EDA               	movwf	fsr2h,c
  6085  001536                     L4:
  6086  001536  70DF               	btg	indf2,0,c
  6087  001538  D000               	goto	i2l4412
  6088  00153A                     i2l4412:
  6089                           
  6090                           ;usb_device.c: 805: }
  6091                           ;usb_device.c: 810: if(endpoint_number == 0)
  6092  00153A  5023               	movf	_endpoint_number,w,c	;volatile
  6093  00153C  A4D8               	btfss	status,2,c
  6094  00153E  D003               	goto	i2l4416
  6095                           
  6096                           ;usb_device.c: 811: {
  6097                           ;usb_device.c: 812: USBCtrlEPService();
  6098  001540  EC27  F011         	call	_USBCtrlEPService	;wreg free
  6099                           
  6100                           ;usb_device.c: 813: }
  6101  001544  D010               	goto	i2l4418
  6102  001546                     i2l4416:
  6103                           
  6104                           ;usb_device.c: 814: else
  6105                           ;usb_device.c: 815: {
  6106                           ;usb_device.c: 816: USER_USB_CALLBACK_EVENT_HANDLER(EVENT_TRANSFER,(uint8_t*)&USTATcopy.
      +                          Val,0);
  6107  001546  0E00               	movlw	0
  6108  001548  6E3A               	movwf	USER_USB_CALLBACK_EVENT_HANDLER@event+1,c
  6109  00154A  0E72               	movlw	114
  6110  00154C  6E39               	movwf	USER_USB_CALLBACK_EVENT_HANDLER@event,c
  6111  00154E  0E2C               	movlw	low _USTATcopy
  6112  001550  6E3B               	movwf	USER_USB_CALLBACK_EVENT_HANDLER@pdata,c
  6113  001552  0E00               	movlw	high _USTATcopy
  6114  001554  6E3C               	movwf	USER_USB_CALLBACK_EVENT_HANDLER@pdata+1,c
  6115  001556  0E00               	movlw	0
  6116  001558  6E3E               	movwf	USER_USB_CALLBACK_EVENT_HANDLER@size+1,c
  6117  00155A  0E00               	movlw	0
  6118  00155C  6E3D               	movwf	USER_USB_CALLBACK_EVENT_HANDLER@size,c
  6119  00155E  ECA4  F017         	call	_USER_USB_CALLBACK_EVENT_HANDLER	;wreg free
  6120                           
  6121                           ;usb_device.c: 817: }
  6122                           ;usb_device.c: 818: }
  6123  001562  D001               	goto	i2l4418
  6124                           
  6125                           ;usb_device.c: 819: else
  6126                           ;usb_device.c: 820: {
  6127                           ;usb_device.c: 821: break;
  6128  001564  D002               	goto	i2l155
  6129  001566                     i2l4418:
  6130  001566  2A4A               	incf	USBDeviceTasks@i,f,c
  6131  001568  D7C4               	goto	i2l4396
  6132  00156A                     i2l155:
  6133                           
  6134                           ;usb_device.c: 822: }
  6135                           ;usb_device.c: 823: }
  6136                           ;usb_device.c: 824: }
  6137                           ;usb_device.c: 826: {PIR2bits.USBIF = 0;};
  6138  00156A  98A1               	bcf	4001,4,c	;volatile
  6139  00156C  0012               	return		;funcret
  6140  00156E                     __end_of_USBDeviceTasks:
  6141                           	opt stack 0
  6142                           pclatu	equ	0xFFB
  6143                           pclath	equ	0xFFA
  6144                           tblptru	equ	0xFF8
  6145                           tblptrh	equ	0xFF7
  6146                           tblptrl	equ	0xFF6
  6147                           tablat	equ	0xFF5
  6148                           prodh	equ	0xFF4
  6149                           prodl	equ	0xFF3
  6150                           intcon	equ	0xFF2
  6151                           intcon2	equ	0xFF1
  6152                           postinc0	equ	0xFEE
  6153                           fsr0h	equ	0xFEA
  6154                           fsr0l	equ	0xFE9
  6155                           wreg	equ	0xFE8
  6156                           indf1	equ	0xFE7
  6157                           postinc1	equ	0xFE6
  6158                           postdec1	equ	0xFE5
  6159                           fsr1h	equ	0xFE2
  6160                           fsr1l	equ	0xFE1
  6161                           indf2	equ	0xFDF
  6162                           postinc2	equ	0xFDE
  6163                           postdec2	equ	0xFDD
  6164                           plusw2	equ	0xFDB
  6165                           fsr2h	equ	0xFDA
  6166                           fsr2l	equ	0xFD9
  6167                           status	equ	0xFD8
  6168                           
  6169 ;; *************** function i2_USBDeviceInit *****************
  6170 ;; Defined at:
  6171 ;;		line 298 in file "../My_header/usb_cdc/usb/usb_device.c"
  6172 ;; Parameters:    Size  Location     Type
  6173 ;;		None
  6174 ;; Auto vars:     Size  Location     Type
  6175 ;;  USBDeviceIni    1    8[COMRAM] unsigned char 
  6176 ;; Return value:  Size  Location     Type
  6177 ;;		None               void
  6178 ;; Registers used:
  6179 ;;		wreg, fsr2l, fsr2h, status,2, status,0, prodl, prodh, cstack
  6180 ;; Tracked objects:
  6181 ;;		On entry : 0/0
  6182 ;;		On exit  : 0/0
  6183 ;;		Unchanged: 0/0
  6184 ;; Data sizes:     COMRAM   BANK0   BANK1   BANK2   BANK3   BANK4   BANK5   BANK6   BANK7   BANK8   BANK9  BANK10  BANK1
      +1  BANK12  BANK13  BANK14
  6185 ;;      Params:         0       0       0       0       0       0       0       0       0       0       0       0       
      +0       0       0       0
  6186 ;;      Locals:         1       0       0       0       0       0       0       0       0       0       0       0       
      +0       0       0       0
  6187 ;;      Temps:          0       0       0       0       0       0       0       0       0       0       0       0       
      +0       0       0       0
  6188 ;;      Totals:         1       0       0       0       0       0       0       0       0       0       0       0       
      +0       0       0       0
  6189 ;;Total ram usage:        1 bytes
  6190 ;; Hardware stack levels used:    1
  6191 ;; Hardware stack levels required when called:    1
  6192 ;; This function calls:
  6193 ;;		i2_memset
  6194 ;; This function is called by:
  6195 ;;		_USBDeviceTasks
  6196 ;; This function uses a non-reentrant model
  6197 ;;
  6198                           
  6199                           	psect	text36
  6200  0016C6                     __ptext36:
  6201                           	opt stack 0
  6202  0016C6                     i2_USBDeviceInit:
  6203                           	opt stack 20
  6204                           
  6205                           ;usb_device.c: 300: uint8_t i;
  6206                           ;usb_device.c: 302: {PIE2bits.USBIE = 0;};
  6207                           
  6208                           ;incstack = 0
  6209  0016C6  98A0               	bcf	4000,4,c	;volatile
  6210                           
  6211                           ;usb_device.c: 305: {UEIR = 0;};
  6212  0016C8  0E00               	movlw	0
  6213  0016CA  6E63               	movwf	3939,c	;volatile
  6214                           
  6215                           ;usb_device.c: 308: {UIR = 0;};
  6216  0016CC  0E00               	movlw	0
  6217  0016CE  6E62               	movwf	3938,c	;volatile
  6218                           
  6219                           ;usb_device.c: 311: UEP0 = 0;
  6220  0016D0  0E00               	movlw	0
  6221  0016D2  010F               	movlb	15	; () banked
  6222  0016D4  6F26               	movwf	38,b	;volatile
  6223                           
  6224                           ; BSR set to: 15
  6225                           ;usb_device.c: 313: memset((void*)&UEP1,0x00,(2));;
  6226  0016D6  0E27               	movlw	39
  6227  0016D8  6E2D               	movwf	i2memset@p1,c
  6228  0016DA  0E0F               	movlw	15
  6229  0016DC  6E2E               	movwf	i2memset@p1+1,c
  6230  0016DE  0E00               	movlw	0
  6231  0016E0  6E30               	movwf	i2memset@c+1,c
  6232  0016E2  0E00               	movlw	0
  6233  0016E4  6E2F               	movwf	i2memset@c,c
  6234  0016E6  0E00               	movlw	0
  6235  0016E8  6E32               	movwf	i2memset@n+1,c
  6236  0016EA  0E02               	movlw	2
  6237  0016EC  6E31               	movwf	i2memset@n,c
  6238  0016EE  ECD3  F017         	call	i2_memset	;wreg free
  6239                           
  6240                           ;usb_device.c: 315: { UCFG = 0x10 | 0x00 | 0x04 | 0x02; UEIE = 0x9F; UIE = 0x39 | 0x40 |
      +                           0x02; };
  6241  0016F2  0E16               	movlw	22
  6242  0016F4  010F               	movlb	15	; () banked
  6243  0016F6  6F39               	movwf	57,b	;volatile
  6244                           
  6245                           ; BSR set to: 15
  6246  0016F8  0E9F               	movlw	159
  6247  0016FA  010F               	movlb	15	; () banked
  6248  0016FC  6F37               	movwf	55,b	;volatile
  6249                           
  6250                           ; BSR set to: 15
  6251  0016FE  0E7B               	movlw	123
  6252  001700  010F               	movlb	15	; () banked
  6253  001702  6F36               	movwf	54,b	;volatile
  6254                           
  6255                           ; BSR set to: 15
  6256                           ;usb_device.c: 318: ;
  6257                           ;usb_device.c: 321: ;
  6258                           ;usb_device.c: 324: for(i=0;i<(sizeof(BDT)/sizeof(BDT_ENTRY));i++)
  6259  001704  0E00               	movlw	0
  6260  001706  6E35               	movwf	i2USBDeviceInit@i,c
  6261  001708  D00E               	goto	i2l4274
  6262                           
  6263                           ; BSR set to: 15
  6264                           
  6265                           ; BSR set to: 15
  6266  00170A  D010               	goto	i2l132
  6267  00170C                     i2l4270:
  6268                           
  6269                           ;usb_device.c: 325: {
  6270                           ;usb_device.c: 326: BDT[i].Val = 0x00;
  6271  00170C  5035               	movf	i2USBDeviceInit@i,w,c
  6272  00170E  0D04               	mullw	4
  6273  001710  0E00               	movlw	0
  6274  001712  24F3               	addwf	prodl,w,c
  6275  001714  6ED9               	movwf	fsr2l,c
  6276  001716  0E0D               	movlw	13
  6277  001718  20F4               	addwfc	prodh,w,c
  6278  00171A  6EDA               	movwf	fsr2h,c
  6279  00171C  6ADE               	clrf	postinc2,c
  6280  00171E  6ADE               	clrf	postinc2,c
  6281  001720  6ADE               	clrf	postinc2,c
  6282  001722  6ADD               	clrf	postdec2,c
  6283  001724  2A35               	incf	i2USBDeviceInit@i,f,c
  6284  001726                     i2l4274:
  6285  001726  0E0B               	movlw	11
  6286  001728  6435               	cpfsgt	i2USBDeviceInit@i,c
  6287  00172A  D7F0               	goto	i2l4270
  6288  00172C                     i2l132:
  6289                           
  6290                           ;usb_device.c: 327: }
  6291                           ;usb_device.c: 330: UCONbits.PPBRST = 1;
  6292  00172C  8C65               	bsf	3941,6,c	;volatile
  6293                           
  6294                           ;usb_device.c: 333: UADDR = 0x00;
  6295  00172E  0E00               	movlw	0
  6296  001730  010F               	movlb	15	; () banked
  6297  001732  6F38               	movwf	56,b	;volatile
  6298                           
  6299                           ; BSR set to: 15
  6300                           ;usb_device.c: 336: UCONbits.PKTDIS = 0;
  6301  001734  9865               	bcf	3941,4,c	;volatile
  6302                           
  6303                           ; BSR set to: 15
  6304                           ;usb_device.c: 339: UCONbits.PPBRST = 0;
  6305  001736  9C65               	bcf	3941,6,c	;volatile
  6306                           
  6307                           ;usb_device.c: 342: while(UIRbits.TRNIF == 1)
  6308  001738  D00A               	goto	i2l4290
  6309  00173A                     i2l4282:
  6310                           
  6311                           ;usb_device.c: 343: {
  6312                           ;usb_device.c: 344: (UIR &= 0xF7);
  6313  00173A  9662               	bcf	3938,3,c	;volatile
  6314                           
  6315                           ;usb_device.c: 346: inPipes[0].info.Val = 0;
  6316  00173C  0E00               	movlw	0
  6317  00173E  6E28               	movwf	_inPipes+3,c	;volatile
  6318                           
  6319                           ;usb_device.c: 347: outPipes[0].info.Val = 0;
  6320  001740  0E00               	movlw	0
  6321  001742  6E04               	movwf	_outPipes+3,c	;volatile
  6322                           
  6323                           ;usb_device.c: 348: outPipes[0].wCount.Val = 0;
  6324  001744  0E00               	movlw	0
  6325  001746  6E06               	movwf	_outPipes+5,c	;volatile
  6326  001748  0E00               	movlw	0
  6327  00174A  6E05               	movwf	_outPipes+4,c	;volatile
  6328  00174C  D000               	goto	i2l4290
  6329  00174E                     i2l4290:
  6330  00174E  B662               	btfsc	3938,3,c	;volatile
  6331  001750  D7F4               	goto	i2l4282
  6332                           
  6333                           ;usb_device.c: 349: }
  6334                           ;usb_device.c: 353: USBStatusStageEnabledFlag1 = 1;
  6335  001752  0E01               	movlw	1
  6336  001754  6E1E               	movwf	_USBStatusStageEnabledFlag1,c	;volatile
  6337                           
  6338                           ;usb_device.c: 354: USBStatusStageEnabledFlag2 = 1;
  6339  001756  0E01               	movlw	1
  6340  001758  6E1F               	movwf	_USBStatusStageEnabledFlag2,c	;volatile
  6341                           
  6342                           ;usb_device.c: 356: USBDeferINDataStagePackets = 0;
  6343  00175A  0E00               	movlw	0
  6344  00175C  6E1A               	movwf	_USBDeferINDataStagePackets,c	;volatile
  6345                           
  6346                           ;usb_device.c: 357: USBDeferOUTDataStagePackets = 0;
  6347  00175E  0E00               	movlw	0
  6348  001760  6E1B               	movwf	_USBDeferOUTDataStagePackets,c	;volatile
  6349                           
  6350                           ;usb_device.c: 358: USBBusIsSuspended = 0;
  6351  001762  0E00               	movlw	0
  6352  001764  6E19               	movwf	_USBBusIsSuspended,c	;volatile
  6353                           
  6354                           ;usb_device.c: 362: for(i = 0; i < (uint8_t)(2+1u); i++)
  6355  001766  0E00               	movlw	0
  6356  001768  6E35               	movwf	i2USBDeviceInit@i,c
  6357  00176A                     i2l4294:
  6358  00176A  0E02               	movlw	2
  6359  00176C  6435               	cpfsgt	i2USBDeviceInit@i,c
  6360  00176E  D001               	goto	i2l4298
  6361  001770  D02E               	goto	i2l4304
  6362  001772                     i2l4298:
  6363                           
  6364                           ;usb_device.c: 363: {
  6365                           ;usb_device.c: 364: pBDTEntryIn[i] = 0u;
  6366  001772  5035               	movf	i2USBDeviceInit@i,w,c
  6367  001774  0D02               	mullw	2
  6368  001776  0E0A               	movlw	low _pBDTEntryIn
  6369  001778  24F3               	addwf	prodl,w,c
  6370  00177A  6ED9               	movwf	fsr2l,c
  6371  00177C  0E00               	movlw	high _pBDTEntryIn
  6372  00177E  20F4               	addwfc	prodh,w,c
  6373  001780  6EDA               	movwf	fsr2h,c
  6374  001782  0E00               	movlw	0
  6375  001784  6EDE               	movwf	postinc2,c
  6376  001786  0E00               	movlw	0
  6377  001788  6EDD               	movwf	postdec2,c
  6378                           
  6379                           ;usb_device.c: 365: pBDTEntryOut[i] = 0u;
  6380  00178A  5035               	movf	i2USBDeviceInit@i,w,c
  6381  00178C  0D02               	mullw	2
  6382  00178E  0E6A               	movlw	low _pBDTEntryOut
  6383  001790  24F3               	addwf	prodl,w,c
  6384  001792  6ED9               	movwf	fsr2l,c
  6385  001794  0E00               	movlw	high _pBDTEntryOut
  6386  001796  20F4               	addwfc	prodh,w,c
  6387  001798  6EDA               	movwf	fsr2h,c
  6388  00179A  0E00               	movlw	0
  6389  00179C  6EDE               	movwf	postinc2,c
  6390  00179E  0E00               	movlw	0
  6391  0017A0  6EDD               	movwf	postdec2,c
  6392                           
  6393                           ;usb_device.c: 366: ep_data_in[i].Val = 0u;
  6394  0017A2  5035               	movf	i2USBDeviceInit@i,w,c
  6395  0017A4  0D01               	mullw	1
  6396  0017A6  0E10               	movlw	low _ep_data_in
  6397  0017A8  24F3               	addwf	prodl,w,c
  6398  0017AA  6ED9               	movwf	fsr2l,c
  6399  0017AC  0E00               	movlw	high _ep_data_in
  6400  0017AE  20F4               	addwfc	prodh,w,c
  6401  0017B0  6EDA               	movwf	fsr2h,c
  6402  0017B2  0E00               	movlw	0
  6403  0017B4  6EDF               	movwf	indf2,c
  6404                           
  6405                           ;usb_device.c: 367: ep_data_out[i].Val = 0u;
  6406  0017B6  5035               	movf	i2USBDeviceInit@i,w,c
  6407  0017B8  0D01               	mullw	1
  6408  0017BA  0E77               	movlw	low _ep_data_out
  6409  0017BC  24F3               	addwf	prodl,w,c
  6410  0017BE  6ED9               	movwf	fsr2l,c
  6411  0017C0  0E00               	movlw	high _ep_data_out
  6412  0017C2  20F4               	addwfc	prodh,w,c
  6413  0017C4  6EDA               	movwf	fsr2h,c
  6414  0017C6  0E00               	movlw	0
  6415  0017C8  6EDF               	movwf	indf2,c
  6416  0017CA  2A35               	incf	i2USBDeviceInit@i,f,c
  6417  0017CC  D7CE               	goto	i2l4294
  6418  0017CE                     i2l4304:
  6419                           
  6420                           ;usb_device.c: 368: }
  6421                           ;usb_device.c: 371: pBDTEntryIn[0] = (volatile BDT_ENTRY*)&BDT[2];
  6422  0017CE  0E08               	movlw	8
  6423  0017D0  6E0A               	movwf	_pBDTEntryIn,c
  6424  0017D2  0E0D               	movlw	13
  6425  0017D4  6E0B               	movwf	_pBDTEntryIn+1,c
  6426                           
  6427                           ;usb_device.c: 373: UEP0 = 0x06|0x10;
  6428  0017D6  0E16               	movlw	22
  6429  0017D8  010F               	movlb	15	; () banked
  6430  0017DA  6F26               	movwf	38,b	;volatile
  6431                           
  6432                           ; BSR set to: 15
  6433                           ;usb_device.c: 375: BDT[0].ADR = ((uint16_t)(&SetupPkt));
  6434  0017DC  0E0D               	movlw	13
  6435  0017DE  010D               	movlb	13	; () banked
  6436  0017E0  6F03               	movwf	3,b	;volatile
  6437  0017E2  0E30               	movlw	48
  6438  0017E4  6F02               	movwf	2,b	;volatile
  6439                           
  6440                           ; BSR set to: 13
  6441                           ;usb_device.c: 376: BDT[0].CNT = 8;
  6442  0017E6  0E08               	movlw	8
  6443  0017E8  010D               	movlb	13	; () banked
  6444  0017EA  6F01               	movwf	1,b	;volatile
  6445                           
  6446                           ; BSR set to: 13
  6447                           ;usb_device.c: 377: BDT[0].STAT.Val = 0x00|0x04;
  6448  0017EC  0E04               	movlw	4
  6449  0017EE  010D               	movlb	13	; () banked
  6450  0017F0  6F00               	movwf	0,b	;volatile
  6451                           
  6452                           ; BSR set to: 13
  6453                           ;usb_device.c: 378: BDT[0].STAT.Val |= 0x80;
  6454  0017F2  010D               	movlb	13	; () banked
  6455  0017F4  8F00               	bsf	0,7,b	;volatile
  6456                           
  6457                           ; BSR set to: 13
  6458                           ;usb_device.c: 381: USBActiveConfiguration = 0;
  6459  0017F6  0E00               	movlw	0
  6460  0017F8  6E2B               	movwf	_USBActiveConfiguration,c	;volatile
  6461                           
  6462                           ; BSR set to: 13
  6463                           ;usb_device.c: 384: USBDeviceState = DETACHED_STATE;
  6464  0017FA  0E00               	movlw	0
  6465  0017FC  6E1D               	movwf	_USBDeviceState,c	;volatile
  6466                           
  6467                           ; BSR set to: 13
  6468  0017FE  0012               	return		;funcret
  6469  001800                     __end_ofi2_USBDeviceInit:
  6470                           	opt stack 0
  6471                           pclatu	equ	0xFFB
  6472                           pclath	equ	0xFFA
  6473                           tblptru	equ	0xFF8
  6474                           tblptrh	equ	0xFF7
  6475                           tblptrl	equ	0xFF6
  6476                           tablat	equ	0xFF5
  6477                           prodh	equ	0xFF4
  6478                           prodl	equ	0xFF3
  6479                           intcon	equ	0xFF2
  6480                           intcon2	equ	0xFF1
  6481                           postinc0	equ	0xFEE
  6482                           fsr0h	equ	0xFEA
  6483                           fsr0l	equ	0xFE9
  6484                           wreg	equ	0xFE8
  6485                           indf1	equ	0xFE7
  6486                           postinc1	equ	0xFE6
  6487                           postdec1	equ	0xFE5
  6488                           fsr1h	equ	0xFE2
  6489                           fsr1l	equ	0xFE1
  6490                           indf2	equ	0xFDF
  6491                           postinc2	equ	0xFDE
  6492                           postdec2	equ	0xFDD
  6493                           plusw2	equ	0xFDB
  6494                           fsr2h	equ	0xFDA
  6495                           fsr2l	equ	0xFD9
  6496                           status	equ	0xFD8
  6497                           
  6498 ;; *************** function _USBWakeFromSuspend *****************
  6499 ;; Defined at:
  6500 ;;		line 2302 in file "../My_header/usb_cdc/usb/usb_device.c"
  6501 ;; Parameters:    Size  Location     Type
  6502 ;;		None
  6503 ;; Auto vars:     Size  Location     Type
  6504 ;;		None
  6505 ;; Return value:  Size  Location     Type
  6506 ;;		None               void
  6507 ;; Registers used:
  6508 ;;		wreg, fsr2l, fsr2h, status,2, status,0, prodl, prodh, cstack
  6509 ;; Tracked objects:
  6510 ;;		On entry : 0/0
  6511 ;;		On exit  : 0/0
  6512 ;;		Unchanged: 0/0
  6513 ;; Data sizes:     COMRAM   BANK0   BANK1   BANK2   BANK3   BANK4   BANK5   BANK6   BANK7   BANK8   BANK9  BANK10  BANK1
      +1  BANK12  BANK13  BANK14
  6514 ;;      Params:         0       0       0       0       0       0       0       0       0       0       0       0       
      +0       0       0       0
  6515 ;;      Locals:         0       0       0       0       0       0       0       0       0       0       0       0       
      +0       0       0       0
  6516 ;;      Temps:          0       0       0       0       0       0       0       0       0       0       0       0       
      +0       0       0       0
  6517 ;;      Totals:         0       0       0       0       0       0       0       0       0       0       0       0       
      +0       0       0       0
  6518 ;;Total ram usage:        0 bytes
  6519 ;; Hardware stack levels used:    1
  6520 ;; Hardware stack levels required when called:    4
  6521 ;; This function calls:
  6522 ;;		_USER_USB_CALLBACK_EVENT_HANDLER
  6523 ;; This function is called by:
  6524 ;;		_USBDeviceTasks
  6525 ;; This function uses a non-reentrant model
  6526 ;;
  6527                           
  6528                           	psect	text37
  6529  002F16                     __ptext37:
  6530                           	opt stack 0
  6531  002F16                     _USBWakeFromSuspend:
  6532                           	opt stack 17
  6533                           
  6534                           ;usb_device.c: 2304: USBBusIsSuspended = 0;
  6535                           
  6536                           ; BSR set to: 13
  6537                           ;incstack = 0
  6538  002F16  0E00               	movlw	0
  6539  002F18  6E19               	movwf	_USBBusIsSuspended,c	;volatile
  6540                           
  6541                           ;usb_device.c: 2310: USER_USB_CALLBACK_EVENT_HANDLER(EVENT_RESUME,0,0);
  6542  002F1A  0E00               	movlw	0
  6543  002F1C  6E3A               	movwf	USER_USB_CALLBACK_EVENT_HANDLER@event+1,c
  6544  002F1E  0E74               	movlw	116
  6545  002F20  6E39               	movwf	USER_USB_CALLBACK_EVENT_HANDLER@event,c
  6546  002F22  0E00               	movlw	0
  6547  002F24  6E3B               	movwf	USER_USB_CALLBACK_EVENT_HANDLER@pdata,c
  6548  002F26  0E00               	movlw	0
  6549  002F28  6E3C               	movwf	USER_USB_CALLBACK_EVENT_HANDLER@pdata+1,c
  6550  002F2A  0E00               	movlw	0
  6551  002F2C  6E3E               	movwf	USER_USB_CALLBACK_EVENT_HANDLER@size+1,c
  6552  002F2E  0E00               	movlw	0
  6553  002F30  6E3D               	movwf	USER_USB_CALLBACK_EVENT_HANDLER@size,c
  6554  002F32  ECA4  F017         	call	_USER_USB_CALLBACK_EVENT_HANDLER	;wreg free
  6555                           
  6556                           ;usb_device.c: 2317: UCONbits.SUSPND = 0;
  6557  002F36  9265               	bcf	3941,1,c	;volatile
  6558                           
  6559                           ;usb_device.c: 2322: UIEbits.ACTVIE = 0;
  6560  002F38  010F               	movlb	15	; () banked
  6561  002F3A  9536               	bcf	54,2,b	;volatile
  6562                           
  6563                           ;usb_device.c: 2340: while(UIRbits.ACTVIF)
  6564  002F3C  D002               	goto	i2l4034
  6565  002F3E                     i2l4032:
  6566                           
  6567                           ;usb_device.c: 2342: {
  6568                           ;usb_device.c: 2343: (UIR &= 0xFB);
  6569  002F3E  9462               	bcf	3938,2,c	;volatile
  6570  002F40  D000               	goto	i2l4034
  6571  002F42                     i2l4034:
  6572  002F42  B462               	btfsc	3938,2,c	;volatile
  6573  002F44  D7FC               	goto	i2l4032
  6574  002F46  0012               	return		;funcret
  6575  002F48                     __end_of_USBWakeFromSuspend:
  6576                           	opt stack 0
  6577                           pclatu	equ	0xFFB
  6578                           pclath	equ	0xFFA
  6579                           tblptru	equ	0xFF8
  6580                           tblptrh	equ	0xFF7
  6581                           tblptrl	equ	0xFF6
  6582                           tablat	equ	0xFF5
  6583                           prodh	equ	0xFF4
  6584                           prodl	equ	0xFF3
  6585                           intcon	equ	0xFF2
  6586                           intcon2	equ	0xFF1
  6587                           postinc0	equ	0xFEE
  6588                           fsr0h	equ	0xFEA
  6589                           fsr0l	equ	0xFE9
  6590                           wreg	equ	0xFE8
  6591                           indf1	equ	0xFE7
  6592                           postinc1	equ	0xFE6
  6593                           postdec1	equ	0xFE5
  6594                           fsr1h	equ	0xFE2
  6595                           fsr1l	equ	0xFE1
  6596                           indf2	equ	0xFDF
  6597                           postinc2	equ	0xFDE
  6598                           postdec2	equ	0xFDD
  6599                           plusw2	equ	0xFDB
  6600                           fsr2h	equ	0xFDA
  6601                           fsr2l	equ	0xFD9
  6602                           status	equ	0xFD8
  6603                           
  6604 ;; *************** function _USBSuspend *****************
  6605 ;; Defined at:
  6606 ;;		line 2245 in file "../My_header/usb_cdc/usb/usb_device.c"
  6607 ;; Parameters:    Size  Location     Type
  6608 ;;		None
  6609 ;; Auto vars:     Size  Location     Type
  6610 ;;		None
  6611 ;; Return value:  Size  Location     Type
  6612 ;;		None               void
  6613 ;; Registers used:
  6614 ;;		wreg, fsr2l, fsr2h, status,2, status,0, prodl, prodh, cstack
  6615 ;; Tracked objects:
  6616 ;;		On entry : 0/0
  6617 ;;		On exit  : 0/0
  6618 ;;		Unchanged: 0/0
  6619 ;; Data sizes:     COMRAM   BANK0   BANK1   BANK2   BANK3   BANK4   BANK5   BANK6   BANK7   BANK8   BANK9  BANK10  BANK1
      +1  BANK12  BANK13  BANK14
  6620 ;;      Params:         0       0       0       0       0       0       0       0       0       0       0       0       
      +0       0       0       0
  6621 ;;      Locals:         0       0       0       0       0       0       0       0       0       0       0       0       
      +0       0       0       0
  6622 ;;      Temps:          0       0       0       0       0       0       0       0       0       0       0       0       
      +0       0       0       0
  6623 ;;      Totals:         0       0       0       0       0       0       0       0       0       0       0       0       
      +0       0       0       0
  6624 ;;Total ram usage:        0 bytes
  6625 ;; Hardware stack levels used:    1
  6626 ;; Hardware stack levels required when called:    4
  6627 ;; This function calls:
  6628 ;;		_USER_USB_CALLBACK_EVENT_HANDLER
  6629 ;; This function is called by:
  6630 ;;		_USBDeviceTasks
  6631 ;; This function uses a non-reentrant model
  6632 ;;
  6633                           
  6634                           	psect	text38
  6635  00302C                     __ptext38:
  6636                           	opt stack 0
  6637  00302C                     _USBSuspend:
  6638                           	opt stack 17
  6639                           
  6640                           ;usb_device.c: 2270: UIEbits.ACTVIE = 1;
  6641                           
  6642                           ;incstack = 0
  6643  00302C  010F               	movlb	15	; () banked
  6644  00302E  8536               	bsf	54,2,b	;volatile
  6645                           
  6646                           ; BSR set to: 15
  6647                           ;usb_device.c: 2271: (UIR &= 0xEF);
  6648  003030  9862               	bcf	3938,4,c	;volatile
  6649                           
  6650                           ; BSR set to: 15
  6651                           ;usb_device.c: 2274: UCONbits.SUSPND = 1;
  6652  003032  8265               	bsf	3941,1,c	;volatile
  6653                           
  6654                           ; BSR set to: 15
  6655                           ;usb_device.c: 2277: USBBusIsSuspended = 1;
  6656  003034  0E01               	movlw	1
  6657  003036  6E19               	movwf	_USBBusIsSuspended,c	;volatile
  6658                           
  6659                           ; BSR set to: 15
  6660                           ;usb_device.c: 2284: USER_USB_CALLBACK_EVENT_HANDLER(EVENT_SUSPEND,0,0);
  6661  003038  0E00               	movlw	0
  6662  00303A  6E3A               	movwf	USER_USB_CALLBACK_EVENT_HANDLER@event+1,c
  6663  00303C  0E75               	movlw	117
  6664  00303E  6E39               	movwf	USER_USB_CALLBACK_EVENT_HANDLER@event,c
  6665  003040  0E00               	movlw	0
  6666  003042  6E3B               	movwf	USER_USB_CALLBACK_EVENT_HANDLER@pdata,c
  6667  003044  0E00               	movlw	0
  6668  003046  6E3C               	movwf	USER_USB_CALLBACK_EVENT_HANDLER@pdata+1,c
  6669  003048  0E00               	movlw	0
  6670  00304A  6E3E               	movwf	USER_USB_CALLBACK_EVENT_HANDLER@size+1,c
  6671  00304C  0E00               	movlw	0
  6672  00304E  6E3D               	movwf	USER_USB_CALLBACK_EVENT_HANDLER@size,c
  6673  003050  ECA4  F017         	call	_USER_USB_CALLBACK_EVENT_HANDLER	;wreg free
  6674  003054  0012               	return		;funcret
  6675  003056                     __end_of_USBSuspend:
  6676                           	opt stack 0
  6677                           pclatu	equ	0xFFB
  6678                           pclath	equ	0xFFA
  6679                           tblptru	equ	0xFF8
  6680                           tblptrh	equ	0xFF7
  6681                           tblptrl	equ	0xFF6
  6682                           tablat	equ	0xFF5
  6683                           prodh	equ	0xFF4
  6684                           prodl	equ	0xFF3
  6685                           intcon	equ	0xFF2
  6686                           intcon2	equ	0xFF1
  6687                           postinc0	equ	0xFEE
  6688                           fsr0h	equ	0xFEA
  6689                           fsr0l	equ	0xFE9
  6690                           wreg	equ	0xFE8
  6691                           indf1	equ	0xFE7
  6692                           postinc1	equ	0xFE6
  6693                           postdec1	equ	0xFE5
  6694                           fsr1h	equ	0xFE2
  6695                           fsr1l	equ	0xFE1
  6696                           indf2	equ	0xFDF
  6697                           postinc2	equ	0xFDE
  6698                           postdec2	equ	0xFDD
  6699                           plusw2	equ	0xFDB
  6700                           fsr2h	equ	0xFDA
  6701                           fsr2l	equ	0xFD9
  6702                           status	equ	0xFD8
  6703                           
  6704 ;; *************** function _USBStallHandler *****************
  6705 ;; Defined at:
  6706 ;;		line 2202 in file "../My_header/usb_cdc/usb/usb_device.c"
  6707 ;; Parameters:    Size  Location     Type
  6708 ;;		None
  6709 ;; Auto vars:     Size  Location     Type
  6710 ;;		None
  6711 ;; Return value:  Size  Location     Type
  6712 ;;		None               void
  6713 ;; Registers used:
  6714 ;;		wreg, fsr2l, fsr2h, status,2, status,0
  6715 ;; Tracked objects:
  6716 ;;		On entry : 0/0
  6717 ;;		On exit  : 0/0
  6718 ;;		Unchanged: 0/0
  6719 ;; Data sizes:     COMRAM   BANK0   BANK1   BANK2   BANK3   BANK4   BANK5   BANK6   BANK7   BANK8   BANK9  BANK10  BANK1
      +1  BANK12  BANK13  BANK14
  6720 ;;      Params:         0       0       0       0       0       0       0       0       0       0       0       0       
      +0       0       0       0
  6721 ;;      Locals:         0       0       0       0       0       0       0       0       0       0       0       0       
      +0       0       0       0
  6722 ;;      Temps:          1       0       0       0       0       0       0       0       0       0       0       0       
      +0       0       0       0
  6723 ;;      Totals:         1       0       0       0       0       0       0       0       0       0       0       0       
      +0       0       0       0
  6724 ;;Total ram usage:        1 bytes
  6725 ;; Hardware stack levels used:    1
  6726 ;; This function calls:
  6727 ;;		Nothing
  6728 ;; This function is called by:
  6729 ;;		_USBDeviceTasks
  6730 ;; This function uses a non-reentrant model
  6731 ;;
  6732                           
  6733                           	psect	text39
  6734  002D30                     __ptext39:
  6735                           	opt stack 0
  6736  002D30                     _USBStallHandler:
  6737                           	opt stack 21
  6738                           
  6739                           ;usb_device.c: 2214: if(UEP0bits.EPSTALL == 1)
  6740                           
  6741                           ;incstack = 0
  6742  002D30  010F               	movlb	15	; () banked
  6743  002D32  A126               	btfss	38,0,b	;volatile
  6744  002D34  D01F               	goto	i2l294
  6745                           
  6746                           ; BSR set to: 15
  6747                           ;usb_device.c: 2215: {
  6748                           ;usb_device.c: 2217: if((pBDTEntryEP0OutCurrent->STAT.Val == 0x80) && (pBDTEntryIn[0]->S
      +                          TAT.Val == (0x80|0x04)))
  6749  002D36  C013  FFD9         	movff	_pBDTEntryEP0OutCurrent,fsr2l
  6750  002D3A  C014  FFDA         	movff	_pBDTEntryEP0OutCurrent+1,fsr2h
  6751  002D3E  0E80               	movlw	128
  6752  002D40  18DE               	xorwf	postinc2,w,c
  6753  002D42  A4D8               	btfss	status,2,c
  6754  002D44  D015               	goto	i2l4056
  6755                           
  6756                           ; BSR set to: 15
  6757  002D46  C00A  FFD9         	movff	_pBDTEntryIn,fsr2l
  6758  002D4A  C00B  FFDA         	movff	_pBDTEntryIn+1,fsr2h
  6759  002D4E  0E84               	movlw	132
  6760  002D50  18DE               	xorwf	postinc2,w,c
  6761  002D52  A4D8               	btfss	status,2,c
  6762  002D54  D00D               	goto	i2l4056
  6763                           
  6764                           ; BSR set to: 15
  6765                           ;usb_device.c: 2218: {
  6766                           ;usb_device.c: 2220: pBDTEntryEP0OutCurrent->STAT.Val = 0x00|(0x08 & 0x08)|0x04;
  6767  002D56  C013  FFD9         	movff	_pBDTEntryEP0OutCurrent,fsr2l
  6768  002D5A  C014  FFDA         	movff	_pBDTEntryEP0OutCurrent+1,fsr2h
  6769  002D5E  0E0C               	movlw	12
  6770  002D60  6EDF               	movwf	indf2,c
  6771                           
  6772                           ; BSR set to: 15
  6773                           ;usb_device.c: 2221: pBDTEntryEP0OutCurrent->STAT.Val |= 0x80;
  6774  002D62  C013  FFD9         	movff	_pBDTEntryEP0OutCurrent,fsr2l
  6775  002D66  C014  FFDA         	movff	_pBDTEntryEP0OutCurrent+1,fsr2h
  6776  002D6A  0E00               	movlw	0
  6777  002D6C  8EDB               	bsf	plusw2,7,c
  6778  002D6E  D000               	goto	i2l4056
  6779  002D70                     i2l4056:
  6780                           
  6781                           ; BSR set to: 15
  6782                           ;usb_device.c: 2222: }
  6783                           ;usb_device.c: 2223: UEP0bits.EPSTALL = 0;
  6784  002D70  010F               	movlb	15	; () banked
  6785  002D72  9126               	bcf	38,0,b	;volatile
  6786  002D74                     i2l294:
  6787                           
  6788                           ; BSR set to: 15
  6789                           ;usb_device.c: 2224: }
  6790                           ;usb_device.c: 2226: (UIR &= 0xDF);
  6791  002D74  9A62               	bcf	3938,5,c	;volatile
  6792                           
  6793                           ; BSR set to: 15
  6794  002D76  0012               	return		;funcret
  6795  002D78                     __end_of_USBStallHandler:
  6796                           	opt stack 0
  6797                           pclatu	equ	0xFFB
  6798                           pclath	equ	0xFFA
  6799                           tblptru	equ	0xFF8
  6800                           tblptrh	equ	0xFF7
  6801                           tblptrl	equ	0xFF6
  6802                           tablat	equ	0xFF5
  6803                           prodh	equ	0xFF4
  6804                           prodl	equ	0xFF3
  6805                           intcon	equ	0xFF2
  6806                           intcon2	equ	0xFF1
  6807                           postinc0	equ	0xFEE
  6808                           fsr0h	equ	0xFEA
  6809                           fsr0l	equ	0xFE9
  6810                           wreg	equ	0xFE8
  6811                           indf1	equ	0xFE7
  6812                           postinc1	equ	0xFE6
  6813                           postdec1	equ	0xFE5
  6814                           fsr1h	equ	0xFE2
  6815                           fsr1l	equ	0xFE1
  6816                           indf2	equ	0xFDF
  6817                           postinc2	equ	0xFDE
  6818                           postdec2	equ	0xFDD
  6819                           plusw2	equ	0xFDB
  6820                           fsr2h	equ	0xFDA
  6821                           fsr2l	equ	0xFD9
  6822                           status	equ	0xFD8
  6823                           
  6824 ;; *************** function _USBCtrlEPService *****************
  6825 ;; Defined at:
  6826 ;;		line 2369 in file "../My_header/usb_cdc/usb/usb_device.c"
  6827 ;; Parameters:    Size  Location     Type
  6828 ;;		None
  6829 ;; Auto vars:     Size  Location     Type
  6830 ;;  setup_cnt       1   28[COMRAM] unsigned char 
  6831 ;; Return value:  Size  Location     Type
  6832 ;;		None               void
  6833 ;; Registers used:
  6834 ;;		wreg, fsr0l, fsr0h, fsr1l, fsr1h, fsr2l, fsr2h, status,2, status,0, tblptrl, tblptrh, tblptru, prodl, prodh, cstack
  6835 ;; Tracked objects:
  6836 ;;		On entry : 0/0
  6837 ;;		On exit  : 0/0
  6838 ;;		Unchanged: 0/0
  6839 ;; Data sizes:     COMRAM   BANK0   BANK1   BANK2   BANK3   BANK4   BANK5   BANK6   BANK7   BANK8   BANK9  BANK10  BANK1
      +1  BANK12  BANK13  BANK14
  6840 ;;      Params:         0       0       0       0       0       0       0       0       0       0       0       0       
      +0       0       0       0
  6841 ;;      Locals:         1       0       0       0       0       0       0       0       0       0       0       0       
      +0       0       0       0
  6842 ;;      Temps:          2       0       0       0       0       0       0       0       0       0       0       0       
      +0       0       0       0
  6843 ;;      Totals:         3       0       0       0       0       0       0       0       0       0       0       0       
      +0       0       0       0
  6844 ;;Total ram usage:        3 bytes
  6845 ;; Hardware stack levels used:    1
  6846 ;; Hardware stack levels required when called:    7
  6847 ;; This function calls:
  6848 ;;		_USBCtrlTrfInHandler
  6849 ;;		_USBCtrlTrfOutHandler
  6850 ;;		_USBCtrlTrfSetupHandler
  6851 ;; This function is called by:
  6852 ;;		_USBDeviceTasks
  6853 ;; This function uses a non-reentrant model
  6854 ;;
  6855                           
  6856                           	psect	text40
  6857  00224E                     __ptext40:
  6858                           	opt stack 0
  6859  00224E                     _USBCtrlEPService:
  6860                           	opt stack 14
  6861                           
  6862                           ;usb_device.c: 2375: USBStatusStageTimeoutCounter = (uint8_t)45;
  6863                           
  6864                           ; BSR set to: 15
  6865                           ;incstack = 0
  6866  00224E  0E2D               	movlw	45
  6867  002250  6E20               	movwf	_USBStatusStageTimeoutCounter,c	;volatile
  6868                           
  6869                           ;usb_device.c: 2379: if((USTATcopy.Val & ~0x02) == 0x00)
  6870  002252  C02C  F047         	movff	_USTATcopy,??_USBCtrlEPService	;volatile
  6871  002256  0EFD               	movlw	253
  6872  002258  1647               	andwf	??_USBCtrlEPService,f,c
  6873  00225A  A4D8               	btfss	status,2,c
  6874  00225C  D057               	goto	i2l4090
  6875                           
  6876                           ;usb_device.c: 2380: {
  6877                           ;usb_device.c: 2383: pBDTEntryEP0OutCurrent = (volatile BDT_ENTRY*)&BDT[(USTATcopy.Val &
      +                           0x7E)>>1];
  6878  00225E  C02C  F047         	movff	_USTATcopy,??_USBCtrlEPService	;volatile
  6879  002262  90D8               	bcf	status,0,c
  6880  002264  3247               	rrcf	??_USBCtrlEPService,f,c
  6881  002266  0E3F               	movlw	63
  6882  002268  1647               	andwf	??_USBCtrlEPService,f,c
  6883  00226A  5047               	movf	??_USBCtrlEPService,w,c
  6884  00226C  0D04               	mullw	4
  6885  00226E  0E00               	movlw	0
  6886  002270  24F3               	addwf	prodl,w,c
  6887  002272  6E13               	movwf	_pBDTEntryEP0OutCurrent,c
  6888  002274  0E0D               	movlw	13
  6889  002276  20F4               	addwfc	prodh,w,c
  6890  002278  6E14               	movwf	_pBDTEntryEP0OutCurrent+1,c
  6891                           
  6892                           ;usb_device.c: 2391: pBDTEntryEP0OutNext = pBDTEntryEP0OutCurrent;
  6893  00227A  C013  F015         	movff	_pBDTEntryEP0OutCurrent,_pBDTEntryEP0OutNext
  6894  00227E  C014  F016         	movff	_pBDTEntryEP0OutCurrent+1,_pBDTEntryEP0OutNext+1
  6895                           
  6896                           ;usb_device.c: 2393: ((uint8_t_VAL*)&pBDTEntryEP0OutNext)->Val ^= 0x0004;
  6897  002282  0E04               	movlw	4
  6898  002284  1A15               	xorwf	_pBDTEntryEP0OutNext,f,c
  6899                           
  6900                           ;usb_device.c: 2396: if(pBDTEntryEP0OutCurrent->STAT.PID == 0xD)
  6901  002286  C013  FFD9         	movff	_pBDTEntryEP0OutCurrent,fsr2l
  6902  00228A  C014  FFDA         	movff	_pBDTEntryEP0OutCurrent+1,fsr2h
  6903  00228E  30DF               	rrcf	indf2,w,c
  6904  002290  32E8               	rrcf	wreg,f,c
  6905  002292  0B0F               	andlw	15
  6906  002294  0A0D               	xorlw	13
  6907  002296  A4D8               	btfss	status,2,c
  6908  002298  D036               	goto	i2l4088
  6909                           
  6910                           ;usb_device.c: 2397: {
  6911                           ;usb_device.c: 2398: unsigned char setup_cnt;
  6912                           ;usb_device.c: 2404: for(setup_cnt = 0; setup_cnt < 8u; setup_cnt++)
  6913  00229A  0E00               	movlw	0
  6914  00229C  6E49               	movwf	USBCtrlEPService@setup_cnt,c
  6915  00229E                     i2l4072:
  6916  00229E  0E07               	movlw	7
  6917  0022A0  6449               	cpfsgt	USBCtrlEPService@setup_cnt,c
  6918  0022A2  D001               	goto	i2l4076
  6919  0022A4  D023               	goto	i2l4084
  6920  0022A6                     i2l4076:
  6921                           
  6922                           ;usb_device.c: 2405: {
  6923                           ;usb_device.c: 2406: *(uint8_t*)((uint8_t*)&SetupPkt + setup_cnt) = *(uint8_t*)((void *)
      +                          (pBDTEntryEP0OutCurrent->ADR));
  6924  0022A6  EE20 F002          	lfsr	2,2
  6925  0022AA  5013               	movf	_pBDTEntryEP0OutCurrent,w,c
  6926  0022AC  26D9               	addwf	fsr2l,f,c
  6927  0022AE  5014               	movf	_pBDTEntryEP0OutCurrent+1,w,c
  6928  0022B0  22DA               	addwfc	fsr2h,f,c
  6929  0022B2  CFDE F047          	movff	postinc2,??_USBCtrlEPService
  6930  0022B6  CFDD F048          	movff	postdec2,??_USBCtrlEPService+1
  6931  0022BA  C047  FFD9         	movff	??_USBCtrlEPService,fsr2l
  6932  0022BE  C048  FFDA         	movff	??_USBCtrlEPService+1,fsr2h
  6933  0022C2  5049               	movf	USBCtrlEPService@setup_cnt,w,c
  6934  0022C4  0D01               	mullw	1
  6935  0022C6  0E30               	movlw	48
  6936  0022C8  24F3               	addwf	prodl,w,c
  6937  0022CA  6EE1               	movwf	fsr1l,c
  6938  0022CC  0E0D               	movlw	13
  6939  0022CE  20F4               	addwfc	prodh,w,c
  6940  0022D0  6EE2               	movwf	fsr1h,c
  6941  0022D2  CFDF FFE7          	movff	indf2,indf1
  6942                           
  6943                           ;usb_device.c: 2407: pBDTEntryEP0OutCurrent->ADR++;
  6944  0022D6  EE20 F002          	lfsr	2,2
  6945  0022DA  5013               	movf	_pBDTEntryEP0OutCurrent,w,c
  6946  0022DC  26D9               	addwf	fsr2l,f,c
  6947  0022DE  5014               	movf	_pBDTEntryEP0OutCurrent+1,w,c
  6948  0022E0  22DA               	addwfc	fsr2h,f,c
  6949  0022E2  2ADE               	incf	postinc2,f,c
  6950  0022E4  0E00               	movlw	0
  6951  0022E6  22DD               	addwfc	postdec2,f,c
  6952  0022E8  2A49               	incf	USBCtrlEPService@setup_cnt,f,c
  6953  0022EA  D7D9               	goto	i2l4072
  6954  0022EC                     i2l4084:
  6955                           
  6956                           ;usb_device.c: 2408: }
  6957                           ;usb_device.c: 2409: pBDTEntryEP0OutCurrent->ADR = ((uint16_t)(&SetupPkt));
  6958  0022EC  EE20 F002          	lfsr	2,2
  6959  0022F0  5013               	movf	_pBDTEntryEP0OutCurrent,w,c
  6960  0022F2  26D9               	addwf	fsr2l,f,c
  6961  0022F4  5014               	movf	_pBDTEntryEP0OutCurrent+1,w,c
  6962  0022F6  22DA               	addwfc	fsr2h,f,c
  6963  0022F8  0E30               	movlw	48
  6964  0022FA  6EDE               	movwf	postinc2,c
  6965  0022FC  0E0D               	movlw	13
  6966  0022FE  6EDD               	movwf	postdec2,c
  6967                           
  6968                           ;usb_device.c: 2412: USBCtrlTrfSetupHandler();
  6969  002300  ECE6  F014         	call	_USBCtrlTrfSetupHandler	;wreg free
  6970                           
  6971                           ;usb_device.c: 2413: }
  6972  002304  0012               	return	
  6973  002306                     i2l4088:
  6974                           
  6975                           ;usb_device.c: 2414: else
  6976                           ;usb_device.c: 2415: {
  6977                           ;usb_device.c: 2417: USBCtrlTrfOutHandler();
  6978  002306  EC96  F015         	call	_USBCtrlTrfOutHandler	;wreg free
  6979                           
  6980                           ;usb_device.c: 2418: }
  6981                           ;usb_device.c: 2419: }
  6982  00230A  0012               	return	
  6983  00230C                     i2l4090:
  6984                           
  6985                           ;usb_device.c: 2420: else if((USTATcopy.Val & ~0x02) == 0x04)
  6986  00230C  502C               	movf	_USTATcopy,w,c	;volatile
  6987  00230E  0BFD               	andlw	253
  6988  002310  0A04               	xorlw	4
  6989  002312  A4D8               	btfss	status,2,c
  6990  002314  0012               	return	
  6991                           
  6992                           ;usb_device.c: 2421: {
  6993                           ;usb_device.c: 2424: USBCtrlTrfInHandler();
  6994  002316  ECF1  F011         	call	_USBCtrlTrfInHandler	;wreg free
  6995  00231A  0012               	return	
  6996  00231C  0012               	return		;funcret
  6997  00231E                     __end_of_USBCtrlEPService:
  6998                           	opt stack 0
  6999                           pclatu	equ	0xFFB
  7000                           pclath	equ	0xFFA
  7001                           tblptru	equ	0xFF8
  7002                           tblptrh	equ	0xFF7
  7003                           tblptrl	equ	0xFF6
  7004                           tablat	equ	0xFF5
  7005                           prodh	equ	0xFF4
  7006                           prodl	equ	0xFF3
  7007                           intcon	equ	0xFF2
  7008                           intcon2	equ	0xFF1
  7009                           postinc0	equ	0xFEE
  7010                           fsr0h	equ	0xFEA
  7011                           fsr0l	equ	0xFE9
  7012                           wreg	equ	0xFE8
  7013                           indf1	equ	0xFE7
  7014                           postinc1	equ	0xFE6
  7015                           postdec1	equ	0xFE5
  7016                           fsr1h	equ	0xFE2
  7017                           fsr1l	equ	0xFE1
  7018                           indf2	equ	0xFDF
  7019                           postinc2	equ	0xFDE
  7020                           postdec2	equ	0xFDD
  7021                           plusw2	equ	0xFDB
  7022                           fsr2h	equ	0xFDA
  7023                           fsr2l	equ	0xFD9
  7024                           status	equ	0xFD8
  7025                           
  7026 ;; *************** function _USBCtrlTrfSetupHandler *****************
  7027 ;; Defined at:
  7028 ;;		line 2469 in file "../My_header/usb_cdc/usb/usb_device.c"
  7029 ;; Parameters:    Size  Location     Type
  7030 ;;		None
  7031 ;; Auto vars:     Size  Location     Type
  7032 ;;		None
  7033 ;; Return value:  Size  Location     Type
  7034 ;;		None               void
  7035 ;; Registers used:
  7036 ;;		wreg, fsr0l, fsr0h, fsr2l, fsr2h, status,2, status,0, tblptrl, tblptrh, tblptru, prodl, prodh, cstack
  7037 ;; Tracked objects:
  7038 ;;		On entry : 0/0
  7039 ;;		On exit  : 0/0
  7040 ;;		Unchanged: 0/0
  7041 ;; Data sizes:     COMRAM   BANK0   BANK1   BANK2   BANK3   BANK4   BANK5   BANK6   BANK7   BANK8   BANK9  BANK10  BANK1
      +1  BANK12  BANK13  BANK14
  7042 ;;      Params:         0       0       0       0       0       0       0       0       0       0       0       0       
      +0       0       0       0
  7043 ;;      Locals:         0       0       0       0       0       0       0       0       0       0       0       0       
      +0       0       0       0
  7044 ;;      Temps:          0       0       0       0       0       0       0       0       0       0       0       0       
      +0       0       0       0
  7045 ;;      Totals:         0       0       0       0       0       0       0       0       0       0       0       0       
      +0       0       0       0
  7046 ;;Total ram usage:        0 bytes
  7047 ;; Hardware stack levels used:    1
  7048 ;; Hardware stack levels required when called:    6
  7049 ;; This function calls:
  7050 ;;		_USBCheckStdRequest
  7051 ;;		_USBCtrlEPServiceComplete
  7052 ;;		_USER_USB_CALLBACK_EVENT_HANDLER
  7053 ;; This function is called by:
  7054 ;;		_USBCtrlEPService
  7055 ;; This function uses a non-reentrant model
  7056 ;;
  7057                           
  7058                           	psect	text41
  7059  0029CC                     __ptext41:
  7060                           	opt stack 0
  7061  0029CC                     _USBCtrlTrfSetupHandler:
  7062                           	opt stack 14
  7063                           
  7064                           ;usb_device.c: 2474: shortPacketStatus = 0;
  7065                           
  7066                           ;incstack = 0
  7067  0029CC  0E00               	movlw	0
  7068  0029CE  6E24               	movwf	_shortPacketStatus,c	;volatile
  7069                           
  7070                           ;usb_device.c: 2475: USBDeferStatusStagePacket = 0;
  7071  0029D0  0E00               	movlw	0
  7072  0029D2  6E1C               	movwf	_USBDeferStatusStagePacket,c	;volatile
  7073                           
  7074                           ;usb_device.c: 2476: USBDeferINDataStagePackets = 0;
  7075  0029D4  0E00               	movlw	0
  7076  0029D6  6E1A               	movwf	_USBDeferINDataStagePackets,c	;volatile
  7077                           
  7078                           ;usb_device.c: 2477: USBDeferOUTDataStagePackets = 0;
  7079  0029D8  0E00               	movlw	0
  7080  0029DA  6E1B               	movwf	_USBDeferOUTDataStagePackets,c	;volatile
  7081                           
  7082                           ;usb_device.c: 2478: BothEP0OutUOWNsSet = 0;
  7083  0029DC  0E00               	movlw	0
  7084  0029DE  6E17               	movwf	_BothEP0OutUOWNsSet,c	;volatile
  7085                           
  7086                           ;usb_device.c: 2479: controlTransferState = 0;
  7087  0029E0  0E00               	movlw	0
  7088  0029E2  6E22               	movwf	_controlTransferState,c	;volatile
  7089                           
  7090                           ;usb_device.c: 2488: pBDTEntryIn[0]->STAT.Val &= ~(0x80);
  7091  0029E4  C00A  FFD9         	movff	_pBDTEntryIn,fsr2l
  7092  0029E8  C00B  FFDA         	movff	_pBDTEntryIn+1,fsr2h
  7093  0029EC  0E7F               	movlw	127
  7094  0029EE  16DF               	andwf	indf2,f,c
  7095                           
  7096                           ;usb_device.c: 2489: ((uint8_t_VAL*)&pBDTEntryIn[0])->Val ^= 0x0004;
  7097  0029F0  0E04               	movlw	4
  7098  0029F2  1A0A               	xorwf	_pBDTEntryIn,f,c
  7099                           
  7100                           ;usb_device.c: 2490: pBDTEntryIn[0]->STAT.Val &= ~(0x80);
  7101  0029F4  C00A  FFD9         	movff	_pBDTEntryIn,fsr2l
  7102  0029F8  C00B  FFDA         	movff	_pBDTEntryIn+1,fsr2h
  7103  0029FC  0E7F               	movlw	127
  7104  0029FE  16DF               	andwf	indf2,f,c
  7105                           
  7106                           ;usb_device.c: 2491: ((uint8_t_VAL*)&pBDTEntryIn[0])->Val ^= 0x0004;
  7107  002A00  0E04               	movlw	4
  7108  002A02  1A0A               	xorwf	_pBDTEntryIn,f,c
  7109                           
  7110                           ;usb_device.c: 2492: pBDTEntryEP0OutNext->STAT.Val &= ~(0x80);
  7111  002A04  C015  FFD9         	movff	_pBDTEntryEP0OutNext,fsr2l
  7112  002A08  C016  FFDA         	movff	_pBDTEntryEP0OutNext+1,fsr2h
  7113  002A0C  0E7F               	movlw	127
  7114  002A0E  16DF               	andwf	indf2,f,c
  7115                           
  7116                           ;usb_device.c: 2494: inPipes[0].info.Val = 0;
  7117  002A10  0E00               	movlw	0
  7118  002A12  6E28               	movwf	_inPipes+3,c	;volatile
  7119                           
  7120                           ;usb_device.c: 2495: inPipes[0].wCount.Val = 0;
  7121  002A14  0E00               	movlw	0
  7122  002A16  6E2A               	movwf	_inPipes+5,c	;volatile
  7123  002A18  0E00               	movlw	0
  7124  002A1A  6E29               	movwf	_inPipes+4,c	;volatile
  7125                           
  7126                           ;usb_device.c: 2496: outPipes[0].info.Val = 0;
  7127  002A1C  0E00               	movlw	0
  7128  002A1E  6E04               	movwf	_outPipes+3,c	;volatile
  7129                           
  7130                           ;usb_device.c: 2497: outPipes[0].wCount.Val = 0;
  7131  002A20  0E00               	movlw	0
  7132  002A22  6E06               	movwf	_outPipes+5,c	;volatile
  7133  002A24  0E00               	movlw	0
  7134  002A26  6E05               	movwf	_outPipes+4,c	;volatile
  7135                           
  7136                           ;usb_device.c: 2503: USBCheckStdRequest();
  7137  002A28  EC94  F00E         	call	_USBCheckStdRequest	;wreg free
  7138                           
  7139                           ;usb_device.c: 2504: USER_USB_CALLBACK_EVENT_HANDLER(EVENT_EP0_REQUEST,0,0);
  7140  002A2C  0E00               	movlw	0
  7141  002A2E  6E3A               	movwf	USER_USB_CALLBACK_EVENT_HANDLER@event+1,c
  7142  002A30  0E03               	movlw	3
  7143  002A32  6E39               	movwf	USER_USB_CALLBACK_EVENT_HANDLER@event,c
  7144  002A34  0E00               	movlw	0
  7145  002A36  6E3B               	movwf	USER_USB_CALLBACK_EVENT_HANDLER@pdata,c
  7146  002A38  0E00               	movlw	0
  7147  002A3A  6E3C               	movwf	USER_USB_CALLBACK_EVENT_HANDLER@pdata+1,c
  7148  002A3C  0E00               	movlw	0
  7149  002A3E  6E3E               	movwf	USER_USB_CALLBACK_EVENT_HANDLER@size+1,c
  7150  002A40  0E00               	movlw	0
  7151  002A42  6E3D               	movwf	USER_USB_CALLBACK_EVENT_HANDLER@size,c
  7152  002A44  ECA4  F017         	call	_USER_USB_CALLBACK_EVENT_HANDLER	;wreg free
  7153                           
  7154                           ;usb_device.c: 2517: USBCtrlEPServiceComplete();
  7155  002A48  EC25  F00D         	call	_USBCtrlEPServiceComplete	;wreg free
  7156  002A4C  0012               	return		;funcret
  7157  002A4E                     __end_of_USBCtrlTrfSetupHandler:
  7158                           	opt stack 0
  7159                           pclatu	equ	0xFFB
  7160                           pclath	equ	0xFFA
  7161                           tblptru	equ	0xFF8
  7162                           tblptrh	equ	0xFF7
  7163                           tblptrl	equ	0xFF6
  7164                           tablat	equ	0xFF5
  7165                           prodh	equ	0xFF4
  7166                           prodl	equ	0xFF3
  7167                           intcon	equ	0xFF2
  7168                           intcon2	equ	0xFF1
  7169                           postinc0	equ	0xFEE
  7170                           fsr0h	equ	0xFEA
  7171                           fsr0l	equ	0xFE9
  7172                           wreg	equ	0xFE8
  7173                           indf1	equ	0xFE7
  7174                           postinc1	equ	0xFE6
  7175                           postdec1	equ	0xFE5
  7176                           fsr1h	equ	0xFE2
  7177                           fsr1l	equ	0xFE1
  7178                           indf2	equ	0xFDF
  7179                           postinc2	equ	0xFDE
  7180                           postdec2	equ	0xFDD
  7181                           plusw2	equ	0xFDB
  7182                           fsr2h	equ	0xFDA
  7183                           fsr2l	equ	0xFD9
  7184                           status	equ	0xFD8
  7185                           
  7186 ;; *************** function _USBCtrlEPServiceComplete *****************
  7187 ;; Defined at:
  7188 ;;		line 1616 in file "../My_header/usb_cdc/usb/usb_device.c"
  7189 ;; Parameters:    Size  Location     Type
  7190 ;;		None
  7191 ;; Auto vars:     Size  Location     Type
  7192 ;;		None
  7193 ;; Return value:  Size  Location     Type
  7194 ;;		None               void
  7195 ;; Registers used:
  7196 ;;		wreg, fsr0l, fsr0h, fsr2l, fsr2h, status,2, status,0, tblptrl, tblptrh, tblptru, cstack
  7197 ;; Tracked objects:
  7198 ;;		On entry : 0/0
  7199 ;;		On exit  : 0/0
  7200 ;;		Unchanged: 0/0
  7201 ;; Data sizes:     COMRAM   BANK0   BANK1   BANK2   BANK3   BANK4   BANK5   BANK6   BANK7   BANK8   BANK9  BANK10  BANK1
      +1  BANK12  BANK13  BANK14
  7202 ;;      Params:         0       0       0       0       0       0       0       0       0       0       0       0       
      +0       0       0       0
  7203 ;;      Locals:         0       0       0       0       0       0       0       0       0       0       0       0       
      +0       0       0       0
  7204 ;;      Temps:          0       0       0       0       0       0       0       0       0       0       0       0       
      +0       0       0       0
  7205 ;;      Totals:         0       0       0       0       0       0       0       0       0       0       0       0       
      +0       0       0       0
  7206 ;;Total ram usage:        0 bytes
  7207 ;; Hardware stack levels used:    1
  7208 ;; Hardware stack levels required when called:    2
  7209 ;; This function calls:
  7210 ;;		_USBCtrlEPAllowDataStage
  7211 ;;		_USBCtrlEPAllowStatusStage
  7212 ;; This function is called by:
  7213 ;;		_USBCtrlTrfSetupHandler
  7214 ;; This function uses a non-reentrant model
  7215 ;;
  7216                           
  7217                           	psect	text42
  7218  001A4A                     __ptext42:
  7219                           	opt stack 0
  7220  001A4A                     _USBCtrlEPServiceComplete:
  7221                           	opt stack 17
  7222                           
  7223                           ;usb_device.c: 1622: UCONbits.PKTDIS = 0;
  7224                           
  7225                           ;incstack = 0
  7226  001A4A  9865               	bcf	3941,4,c	;volatile
  7227                           
  7228                           ;usb_device.c: 1628: if(inPipes[0].info.bits.busy == 0)
  7229  001A4C  BE28               	btfsc	_inPipes+3,7,c	;volatile
  7230  001A4E  D03A               	goto	i2l218
  7231                           
  7232                           ;usb_device.c: 1629: {
  7233                           ;usb_device.c: 1630: if(outPipes[0].info.bits.busy == 1)
  7234  001A50  AE04               	btfss	_outPipes+3,7,c	;volatile
  7235  001A52  D00D               	goto	i2l3684
  7236                           
  7237                           ;usb_device.c: 1631: {
  7238                           ;usb_device.c: 1632: controlTransferState = 2;
  7239  001A54  0E02               	movlw	2
  7240  001A56  6E22               	movwf	_controlTransferState,c	;volatile
  7241                           
  7242                           ;usb_device.c: 1643: if(USBDeferOUTDataStagePackets == 0)
  7243  001A58  501B               	movf	_USBDeferOUTDataStagePackets,w,c	;volatile
  7244  001A5A  A4D8               	btfss	status,2,c
  7245  001A5C  D003               	goto	i2l3680
  7246                           
  7247                           ;usb_device.c: 1644: {
  7248                           ;usb_device.c: 1645: USBCtrlEPAllowDataStage();
  7249  001A5E  ECBC  F013         	call	_USBCtrlEPAllowDataStage	;wreg free
  7250  001A62  D000               	goto	i2l3680
  7251  001A64                     i2l3680:
  7252                           
  7253                           ;usb_device.c: 1646: }
  7254                           ;usb_device.c: 1650: USBStatusStageEnabledFlag2 = 0;
  7255  001A64  0E00               	movlw	0
  7256  001A66  6E1F               	movwf	_USBStatusStageEnabledFlag2,c	;volatile
  7257                           
  7258                           ;usb_device.c: 1651: USBStatusStageEnabledFlag1 = 0;
  7259  001A68  0E00               	movlw	0
  7260  001A6A  6E1E               	movwf	_USBStatusStageEnabledFlag1,c	;volatile
  7261                           
  7262                           ;usb_device.c: 1652: }
  7263  001A6C  0012               	return	
  7264  001A6E                     i2l3684:
  7265                           
  7266                           ;usb_device.c: 1653: else
  7267                           ;usb_device.c: 1654: {
  7268                           ;usb_device.c: 1659: pBDTEntryEP0OutNext->CNT = 8;
  7269  001A6E  EE20 F001          	lfsr	2,1
  7270  001A72  5015               	movf	_pBDTEntryEP0OutNext,w,c
  7271  001A74  26D9               	addwf	fsr2l,f,c
  7272  001A76  5016               	movf	_pBDTEntryEP0OutNext+1,w,c
  7273  001A78  22DA               	addwfc	fsr2h,f,c
  7274  001A7A  0E08               	movlw	8
  7275  001A7C  6EDF               	movwf	indf2,c
  7276                           
  7277                           ;usb_device.c: 1660: pBDTEntryEP0OutNext->ADR = ((uint16_t)(&SetupPkt));
  7278  001A7E  EE20 F002          	lfsr	2,2
  7279  001A82  5015               	movf	_pBDTEntryEP0OutNext,w,c
  7280  001A84  26D9               	addwf	fsr2l,f,c
  7281  001A86  5016               	movf	_pBDTEntryEP0OutNext+1,w,c
  7282  001A88  22DA               	addwfc	fsr2h,f,c
  7283  001A8A  0E30               	movlw	48
  7284  001A8C  6EDE               	movwf	postinc2,c
  7285  001A8E  0E0D               	movlw	13
  7286  001A90  6EDD               	movwf	postdec2,c
  7287                           
  7288                           ;usb_device.c: 1661: pBDTEntryEP0OutNext->STAT.Val = 0x00|(0x08 & 0x08)|0x04;
  7289  001A92  C015  FFD9         	movff	_pBDTEntryEP0OutNext,fsr2l
  7290  001A96  C016  FFDA         	movff	_pBDTEntryEP0OutNext+1,fsr2h
  7291  001A9A  0E0C               	movlw	12
  7292  001A9C  6EDF               	movwf	indf2,c
  7293                           
  7294                           ;usb_device.c: 1662: pBDTEntryEP0OutNext->STAT.Val |= 0x80;
  7295  001A9E  C015  FFD9         	movff	_pBDTEntryEP0OutNext,fsr2l
  7296  001AA2  C016  FFDA         	movff	_pBDTEntryEP0OutNext+1,fsr2h
  7297  001AA6  0E00               	movlw	0
  7298  001AA8  8EDB               	bsf	plusw2,7,c
  7299                           
  7300                           ;usb_device.c: 1663: pBDTEntryIn[0]->STAT.Val = 0x04;
  7301  001AAA  C00A  FFD9         	movff	_pBDTEntryIn,fsr2l
  7302  001AAE  C00B  FFDA         	movff	_pBDTEntryIn+1,fsr2h
  7303  001AB2  0E04               	movlw	4
  7304  001AB4  6EDF               	movwf	indf2,c
  7305                           
  7306                           ;usb_device.c: 1664: pBDTEntryIn[0]->STAT.Val |= 0x80;
  7307  001AB6  C00A  FFD9         	movff	_pBDTEntryIn,fsr2l
  7308  001ABA  C00B  FFDA         	movff	_pBDTEntryIn+1,fsr2h
  7309  001ABE  0E00               	movlw	0
  7310  001AC0  8EDB               	bsf	plusw2,7,c
  7311                           
  7312                           ;usb_device.c: 1665: }
  7313                           ;usb_device.c: 1666: }
  7314  001AC2  0012               	return	
  7315  001AC4                     i2l218:
  7316                           
  7317                           ;usb_device.c: 1667: else
  7318                           ;usb_device.c: 1668: {
  7319                           ;usb_device.c: 1669: if(SetupPkt.DataDir == (0x80>>7))
  7320  001AC4  010D               	movlb	13	; () banked
  7321  001AC6  AF30               	btfss	48,7,b	;volatile
  7322  001AC8  D012               	goto	i2l3704
  7323                           
  7324                           ; BSR set to: 13
  7325                           ;usb_device.c: 1670: {
  7326                           ;usb_device.c: 1671: controlTransferState = 1;
  7327  001ACA  0E01               	movlw	1
  7328  001ACC  6E22               	movwf	_controlTransferState,c	;volatile
  7329                           
  7330                           ;usb_device.c: 1685: if(USBDeferINDataStagePackets == 0)
  7331  001ACE  501A               	movf	_USBDeferINDataStagePackets,w,c	;volatile
  7332  001AD0  A4D8               	btfss	status,2,c
  7333  001AD2  D003               	goto	i2l3696
  7334                           
  7335                           ; BSR set to: 13
  7336                           ;usb_device.c: 1686: {
  7337                           ;usb_device.c: 1687: USBCtrlEPAllowDataStage();
  7338  001AD4  ECBC  F013         	call	_USBCtrlEPAllowDataStage	;wreg free
  7339  001AD8  D000               	goto	i2l3696
  7340  001ADA                     i2l3696:
  7341                           
  7342                           ;usb_device.c: 1688: }
  7343                           ;usb_device.c: 1710: USBStatusStageEnabledFlag2 = 0;
  7344  001ADA  0E00               	movlw	0
  7345  001ADC  6E1F               	movwf	_USBStatusStageEnabledFlag2,c	;volatile
  7346                           
  7347                           ;usb_device.c: 1711: USBStatusStageEnabledFlag1 = 0;
  7348  001ADE  0E00               	movlw	0
  7349  001AE0  6E1E               	movwf	_USBStatusStageEnabledFlag1,c	;volatile
  7350                           
  7351                           ;usb_device.c: 1712: if(USBDeferStatusStagePacket == 0)
  7352  001AE2  501C               	movf	_USBDeferStatusStagePacket,w,c	;volatile
  7353  001AE4  A4D8               	btfss	status,2,c
  7354  001AE6  0012               	return	
  7355                           
  7356                           ;usb_device.c: 1713: {
  7357                           ;usb_device.c: 1714: USBCtrlEPAllowStatusStage();
  7358  001AE8  EC8F  F011         	call	_USBCtrlEPAllowStatusStage	;wreg free
  7359                           
  7360                           ;usb_device.c: 1715: }
  7361                           ;usb_device.c: 1716: }
  7362  001AEC  0012               	return	
  7363  001AEE                     i2l3704:
  7364                           
  7365                           ;usb_device.c: 1717: else
  7366                           ;usb_device.c: 1718: {
  7367                           ;usb_device.c: 1729: controlTransferState = 2;
  7368  001AEE  0E02               	movlw	2
  7369  001AF0  6E22               	movwf	_controlTransferState,c	;volatile
  7370                           
  7371                           ;usb_device.c: 1732: pBDTEntryEP0OutNext->CNT = 8;
  7372  001AF2  EE20 F001          	lfsr	2,1
  7373  001AF6  5015               	movf	_pBDTEntryEP0OutNext,w,c
  7374  001AF8  26D9               	addwf	fsr2l,f,c
  7375  001AFA  5016               	movf	_pBDTEntryEP0OutNext+1,w,c
  7376  001AFC  22DA               	addwfc	fsr2h,f,c
  7377  001AFE  0E08               	movlw	8
  7378  001B00  6EDF               	movwf	indf2,c
  7379                           
  7380                           ;usb_device.c: 1733: pBDTEntryEP0OutNext->ADR = ((uint16_t)(&SetupPkt));
  7381  001B02  EE20 F002          	lfsr	2,2
  7382  001B06  5015               	movf	_pBDTEntryEP0OutNext,w,c
  7383  001B08  26D9               	addwf	fsr2l,f,c
  7384  001B0A  5016               	movf	_pBDTEntryEP0OutNext+1,w,c
  7385  001B0C  22DA               	addwfc	fsr2h,f,c
  7386  001B0E  0E30               	movlw	48
  7387  001B10  6EDE               	movwf	postinc2,c
  7388  001B12  0E0D               	movlw	13
  7389  001B14  6EDD               	movwf	postdec2,c
  7390                           
  7391                           ;usb_device.c: 1734: pBDTEntryEP0OutNext->STAT.Val = 0x04;
  7392  001B16  C015  FFD9         	movff	_pBDTEntryEP0OutNext,fsr2l
  7393  001B1A  C016  FFDA         	movff	_pBDTEntryEP0OutNext+1,fsr2h
  7394  001B1E  0E04               	movlw	4
  7395  001B20  6EDF               	movwf	indf2,c
  7396                           
  7397                           ;usb_device.c: 1735: pBDTEntryEP0OutNext->STAT.Val |= 0x80;
  7398  001B22  C015  FFD9         	movff	_pBDTEntryEP0OutNext,fsr2l
  7399  001B26  C016  FFDA         	movff	_pBDTEntryEP0OutNext+1,fsr2h
  7400  001B2A  0E00               	movlw	0
  7401  001B2C  8EDB               	bsf	plusw2,7,c
  7402                           
  7403                           ;usb_device.c: 1738: USBStatusStageEnabledFlag2 = 0;
  7404  001B2E  0E00               	movlw	0
  7405  001B30  6E1F               	movwf	_USBStatusStageEnabledFlag2,c	;volatile
  7406                           
  7407                           ;usb_device.c: 1739: USBStatusStageEnabledFlag1 = 0;
  7408  001B32  0E00               	movlw	0
  7409  001B34  6E1E               	movwf	_USBStatusStageEnabledFlag1,c	;volatile
  7410                           
  7411                           ;usb_device.c: 1740: if(USBDeferStatusStagePacket == 0)
  7412  001B36  501C               	movf	_USBDeferStatusStagePacket,w,c	;volatile
  7413  001B38  A4D8               	btfss	status,2,c
  7414  001B3A  0012               	return	
  7415                           
  7416                           ;usb_device.c: 1741: {
  7417                           ;usb_device.c: 1742: USBCtrlEPAllowStatusStage();
  7418  001B3C  EC8F  F011         	call	_USBCtrlEPAllowStatusStage	;wreg free
  7419  001B40  0012               	return	
  7420  001B42  0012               	return		;funcret
  7421  001B44                     __end_of_USBCtrlEPServiceComplete:
  7422                           	opt stack 0
  7423                           pclatu	equ	0xFFB
  7424                           pclath	equ	0xFFA
  7425                           tblptru	equ	0xFF8
  7426                           tblptrh	equ	0xFF7
  7427                           tblptrl	equ	0xFF6
  7428                           tablat	equ	0xFF5
  7429                           prodh	equ	0xFF4
  7430                           prodl	equ	0xFF3
  7431                           intcon	equ	0xFF2
  7432                           intcon2	equ	0xFF1
  7433                           postinc0	equ	0xFEE
  7434                           fsr0h	equ	0xFEA
  7435                           fsr0l	equ	0xFE9
  7436                           wreg	equ	0xFE8
  7437                           indf1	equ	0xFE7
  7438                           postinc1	equ	0xFE6
  7439                           postdec1	equ	0xFE5
  7440                           fsr1h	equ	0xFE2
  7441                           fsr1l	equ	0xFE1
  7442                           indf2	equ	0xFDF
  7443                           postinc2	equ	0xFDE
  7444                           postdec2	equ	0xFDD
  7445                           plusw2	equ	0xFDB
  7446                           fsr2h	equ	0xFDA
  7447                           fsr2l	equ	0xFD9
  7448                           status	equ	0xFD8
  7449                           
  7450 ;; *************** function _USBCtrlEPAllowDataStage *****************
  7451 ;; Defined at:
  7452 ;;		line 1488 in file "../My_header/usb_cdc/usb/usb_device.c"
  7453 ;; Parameters:    Size  Location     Type
  7454 ;;		None
  7455 ;; Auto vars:     Size  Location     Type
  7456 ;;		None
  7457 ;; Return value:  Size  Location     Type
  7458 ;;		None               void
  7459 ;; Registers used:
  7460 ;;		wreg, fsr0l, fsr0h, fsr2l, fsr2h, status,2, status,0, tblptrl, tblptrh, tblptru, cstack
  7461 ;; Tracked objects:
  7462 ;;		On entry : 0/0
  7463 ;;		On exit  : 0/0
  7464 ;;		Unchanged: 0/0
  7465 ;; Data sizes:     COMRAM   BANK0   BANK1   BANK2   BANK3   BANK4   BANK5   BANK6   BANK7   BANK8   BANK9  BANK10  BANK1
      +1  BANK12  BANK13  BANK14
  7466 ;;      Params:         0       0       0       0       0       0       0       0       0       0       0       0       
      +0       0       0       0
  7467 ;;      Locals:         0       0       0       0       0       0       0       0       0       0       0       0       
      +0       0       0       0
  7468 ;;      Temps:          0       0       0       0       0       0       0       0       0       0       0       0       
      +0       0       0       0
  7469 ;;      Totals:         0       0       0       0       0       0       0       0       0       0       0       0       
      +0       0       0       0
  7470 ;;Total ram usage:        0 bytes
  7471 ;; Hardware stack levels used:    1
  7472 ;; Hardware stack levels required when called:    1
  7473 ;; This function calls:
  7474 ;;		_USBCtrlTrfTxService
  7475 ;; This function is called by:
  7476 ;;		_USBCtrlEPServiceComplete
  7477 ;; This function uses a non-reentrant model
  7478 ;;
  7479                           
  7480                           	psect	text43
  7481  002778                     __ptext43:
  7482                           	opt stack 0
  7483  002778                     _USBCtrlEPAllowDataStage:
  7484                           	opt stack 17
  7485                           
  7486                           ;usb_device.c: 1490: USBDeferINDataStagePackets = 0;
  7487                           
  7488                           ;incstack = 0
  7489  002778  0E00               	movlw	0
  7490  00277A  6E1A               	movwf	_USBDeferINDataStagePackets,c	;volatile
  7491                           
  7492                           ;usb_device.c: 1491: USBDeferOUTDataStagePackets = 0;
  7493  00277C  0E00               	movlw	0
  7494  00277E  6E1B               	movwf	_USBDeferOUTDataStagePackets,c	;volatile
  7495                           
  7496                           ;usb_device.c: 1493: if(controlTransferState == 2)
  7497  002780  0E02               	movlw	2
  7498  002782  1822               	xorwf	_controlTransferState,w,c	;volatile
  7499  002784  A4D8               	btfss	status,2,c
  7500  002786  D01F               	goto	i2l3474
  7501                           
  7502                           ;usb_device.c: 1494: {
  7503                           ;usb_device.c: 1496: pBDTEntryEP0OutNext->CNT = 8;
  7504  002788  EE20 F001          	lfsr	2,1
  7505  00278C  5015               	movf	_pBDTEntryEP0OutNext,w,c
  7506  00278E  26D9               	addwf	fsr2l,f,c
  7507  002790  5016               	movf	_pBDTEntryEP0OutNext+1,w,c
  7508  002792  22DA               	addwfc	fsr2h,f,c
  7509  002794  0E08               	movlw	8
  7510  002796  6EDF               	movwf	indf2,c
  7511                           
  7512                           ;usb_device.c: 1497: pBDTEntryEP0OutNext->ADR = ((uint16_t)(&CtrlTrfData));
  7513  002798  EE20 F002          	lfsr	2,2
  7514  00279C  5015               	movf	_pBDTEntryEP0OutNext,w,c
  7515  00279E  26D9               	addwf	fsr2l,f,c
  7516  0027A0  5016               	movf	_pBDTEntryEP0OutNext+1,w,c
  7517  0027A2  22DA               	addwfc	fsr2h,f,c
  7518  0027A4  0E38               	movlw	56
  7519  0027A6  6EDE               	movwf	postinc2,c
  7520  0027A8  0E0D               	movlw	13
  7521  0027AA  6EDD               	movwf	postdec2,c
  7522                           
  7523                           ;usb_device.c: 1498: pBDTEntryEP0OutNext->STAT.Val = 0x40|(0x08 & 0x08);
  7524  0027AC  C015  FFD9         	movff	_pBDTEntryEP0OutNext,fsr2l
  7525  0027B0  C016  FFDA         	movff	_pBDTEntryEP0OutNext+1,fsr2h
  7526  0027B4  0E48               	movlw	72
  7527  0027B6  6EDF               	movwf	indf2,c
  7528                           
  7529                           ;usb_device.c: 1499: pBDTEntryEP0OutNext->STAT.Val |= 0x80;
  7530  0027B8  C015  FFD9         	movff	_pBDTEntryEP0OutNext,fsr2l
  7531  0027BC  C016  FFDA         	movff	_pBDTEntryEP0OutNext+1,fsr2h
  7532  0027C0  0E00               	movlw	0
  7533  0027C2  8EDB               	bsf	plusw2,7,c
  7534                           
  7535                           ;usb_device.c: 1500: }
  7536  0027C4  0012               	return	
  7537  0027C6                     i2l3474:
  7538                           
  7539                           ;usb_device.c: 1501: else
  7540                           ;usb_device.c: 1502: {
  7541                           ;usb_device.c: 1505: if(SetupPkt.wLength < inPipes[0].wCount.Val)
  7542  0027C6  5029               	movf	_inPipes+4,w,c	;volatile
  7543  0027C8  010D               	movlb	13	; () banked
  7544  0027CA  5D36               	subwf	54,w,b	;volatile
  7545  0027CC  502A               	movf	_inPipes+5,w,c	;volatile
  7546  0027CE  010D               	movlb	13	; () banked
  7547  0027D0  5937               	subwfb	55,w,b	;volatile
  7548  0027D2  B0D8               	btfsc	status,0,c
  7549  0027D4  D005               	goto	i2l3478
  7550                           
  7551                           ; BSR set to: 13
  7552                           ;usb_device.c: 1506: {
  7553                           ;usb_device.c: 1507: inPipes[0].wCount.Val = SetupPkt.wLength;
  7554  0027D6  CD36 F029          	movff	3382,_inPipes+4	;volatile
  7555  0027DA  CD37 F02A          	movff	3383,_inPipes+5	;volatile
  7556  0027DE  D000               	goto	i2l3478
  7557  0027E0                     i2l3478:
  7558                           
  7559                           ; BSR set to: 13
  7560                           ;usb_device.c: 1508: }
  7561                           ;usb_device.c: 1509: USBCtrlTrfTxService();
  7562  0027E0  EC05  F00F         	call	_USBCtrlTrfTxService	;wreg free
  7563                           
  7564                           ;usb_device.c: 1514: pBDTEntryIn[0]->ADR = ((uint16_t)(&CtrlTrfData));
  7565  0027E4  EE20 F002          	lfsr	2,2
  7566  0027E8  500A               	movf	_pBDTEntryIn,w,c
  7567  0027EA  26D9               	addwf	fsr2l,f,c
  7568  0027EC  500B               	movf	_pBDTEntryIn+1,w,c
  7569  0027EE  22DA               	addwfc	fsr2h,f,c
  7570  0027F0  0E38               	movlw	56
  7571  0027F2  6EDE               	movwf	postinc2,c
  7572  0027F4  0E0D               	movlw	13
  7573  0027F6  6EDD               	movwf	postdec2,c
  7574                           
  7575                           ;usb_device.c: 1515: pBDTEntryIn[0]->STAT.Val = 0x40|(0x08 & 0x08);
  7576  0027F8  C00A  FFD9         	movff	_pBDTEntryIn,fsr2l
  7577  0027FC  C00B  FFDA         	movff	_pBDTEntryIn+1,fsr2h
  7578  002800  0E48               	movlw	72
  7579  002802  6EDF               	movwf	indf2,c
  7580                           
  7581                           ;usb_device.c: 1516: pBDTEntryIn[0]->STAT.Val |= 0x80;
  7582  002804  C00A  FFD9         	movff	_pBDTEntryIn,fsr2l
  7583  002808  C00B  FFDA         	movff	_pBDTEntryIn+1,fsr2h
  7584  00280C  0E00               	movlw	0
  7585  00280E  8EDB               	bsf	plusw2,7,c
  7586  002810  0012               	return	
  7587  002812  0012               	return		;funcret
  7588  002814                     __end_of_USBCtrlEPAllowDataStage:
  7589                           	opt stack 0
  7590                           pclatu	equ	0xFFB
  7591                           pclath	equ	0xFFA
  7592                           tblptru	equ	0xFF8
  7593                           tblptrh	equ	0xFF7
  7594                           tblptrl	equ	0xFF6
  7595                           tablat	equ	0xFF5
  7596                           prodh	equ	0xFF4
  7597                           prodl	equ	0xFF3
  7598                           intcon	equ	0xFF2
  7599                           intcon2	equ	0xFF1
  7600                           postinc0	equ	0xFEE
  7601                           fsr0h	equ	0xFEA
  7602                           fsr0l	equ	0xFE9
  7603                           wreg	equ	0xFE8
  7604                           indf1	equ	0xFE7
  7605                           postinc1	equ	0xFE6
  7606                           postdec1	equ	0xFE5
  7607                           fsr1h	equ	0xFE2
  7608                           fsr1l	equ	0xFE1
  7609                           indf2	equ	0xFDF
  7610                           postinc2	equ	0xFDE
  7611                           postdec2	equ	0xFDD
  7612                           plusw2	equ	0xFDB
  7613                           fsr2h	equ	0xFDA
  7614                           fsr2l	equ	0xFD9
  7615                           status	equ	0xFD8
  7616                           
  7617 ;; *************** function _USBCheckStdRequest *****************
  7618 ;; Defined at:
  7619 ;;		line 2689 in file "../My_header/usb_cdc/usb/usb_device.c"
  7620 ;; Parameters:    Size  Location     Type
  7621 ;;		None
  7622 ;; Auto vars:     Size  Location     Type
  7623 ;;		None
  7624 ;; Return value:  Size  Location     Type
  7625 ;;		None               void
  7626 ;; Registers used:
  7627 ;;		wreg, fsr0l, fsr0h, fsr2l, fsr2h, status,2, status,0, tblptrl, tblptrh, tblptru, prodl, prodh, cstack
  7628 ;; Tracked objects:
  7629 ;;		On entry : 0/0
  7630 ;;		On exit  : 0/0
  7631 ;;		Unchanged: 0/0
  7632 ;; Data sizes:     COMRAM   BANK0   BANK1   BANK2   BANK3   BANK4   BANK5   BANK6   BANK7   BANK8   BANK9  BANK10  BANK1
      +1  BANK12  BANK13  BANK14
  7633 ;;      Params:         0       0       0       0       0       0       0       0       0       0       0       0       
      +0       0       0       0
  7634 ;;      Locals:         0       0       0       0       0       0       0       0       0       0       0       0       
      +0       0       0       0
  7635 ;;      Temps:          0       0       0       0       0       0       0       0       0       0       0       0       
      +0       0       0       0
  7636 ;;      Totals:         0       0       0       0       0       0       0       0       0       0       0       0       
      +0       0       0       0
  7637 ;;Total ram usage:        0 bytes
  7638 ;; Hardware stack levels used:    1
  7639 ;; Hardware stack levels required when called:    5
  7640 ;; This function calls:
  7641 ;;		_USBStdFeatureReqHandler
  7642 ;;		_USBStdGetDscHandler
  7643 ;;		_USBStdGetStatusHandler
  7644 ;;		_USBStdSetCfgHandler
  7645 ;;		_USER_USB_CALLBACK_EVENT_HANDLER
  7646 ;; This function is called by:
  7647 ;;		_USBCtrlTrfSetupHandler
  7648 ;; This function uses a non-reentrant model
  7649 ;;
  7650                           
  7651                           	psect	text44
  7652  001D28                     __ptext44:
  7653                           	opt stack 0
  7654  001D28                     _USBCheckStdRequest:
  7655                           	opt stack 14
  7656                           
  7657                           ;usb_device.c: 2691: if(SetupPkt.RequestType != (0x00>>5)) return;
  7658                           
  7659                           ;incstack = 0
  7660  001D28  010D               	movlb	13	; () banked
  7661  001D2A  3930               	swapf	48,w,b	;volatile
  7662  001D2C  32E8               	rrcf	wreg,f,c
  7663  001D2E  0B03               	andlw	3
  7664  001D30  0900               	iorlw	0
  7665  001D32  A4D8               	btfss	status,2,c
  7666  001D34  0012               	return	
  7667  001D36  D046               	goto	i2l3802
  7668                           
  7669                           ; BSR set to: 13
  7670  001D38  0012               	return	
  7671                           
  7672                           ; BSR set to: 13
  7673                           ;usb_device.c: 2693: switch(SetupPkt.bRequest)
  7674  001D3A  D044               	goto	i2l3802
  7675  001D3C                     i2l345:
  7676                           
  7677                           ; BSR set to: 13
  7678                           ;usb_device.c: 2696: inPipes[0].info.bits.busy = 1;
  7679  001D3C  8E28               	bsf	_inPipes+3,7,c	;volatile
  7680                           
  7681                           ; BSR set to: 13
  7682                           ;usb_device.c: 2697: USBDeviceState = ADR_PENDING_STATE;
  7683  001D3E  0E08               	movlw	8
  7684  001D40  6E1D               	movwf	_USBDeviceState,c	;volatile
  7685                           
  7686                           ;usb_device.c: 2699: break;
  7687  001D42  0012               	return	
  7688  001D44                     i2l3772:
  7689                           
  7690                           ; BSR set to: 13
  7691                           ;usb_device.c: 2701: USBStdGetDscHandler();
  7692  001D44  EC00  F00C         	call	_USBStdGetDscHandler	;wreg free
  7693                           
  7694                           ;usb_device.c: 2702: break;
  7695  001D48  0012               	return	
  7696  001D4A                     i2l3774:
  7697                           
  7698                           ;usb_device.c: 2704: USBStdSetCfgHandler();
  7699  001D4A  ECE5  F00F         	call	_USBStdSetCfgHandler	;wreg free
  7700                           
  7701                           ;usb_device.c: 2705: break;
  7702  001D4E  0012               	return	
  7703  001D50                     i2l3776:
  7704                           
  7705                           ;usb_device.c: 2707: inPipes[0].pSrc.bRam = (uint8_t*)&USBActiveConfiguration;
  7706  001D50  0E2B               	movlw	low _USBActiveConfiguration
  7707  001D52  6E25               	movwf	_inPipes,c	;volatile
  7708  001D54  0E00               	movlw	high _USBActiveConfiguration
  7709  001D56  6E26               	movwf	_inPipes+1,c	;volatile
  7710                           
  7711                           ;usb_device.c: 2708: inPipes[0].info.bits.ctrl_trf_mem = 0x01;
  7712  001D58  8028               	bsf	_inPipes+3,0,c	;volatile
  7713                           
  7714                           ;usb_device.c: 2709: inPipes[0].wCount.v[0] = 1;
  7715  001D5A  0E01               	movlw	1
  7716  001D5C  6E29               	movwf	_inPipes+4,c	;volatile
  7717                           
  7718                           ;usb_device.c: 2710: inPipes[0].info.bits.busy = 1;
  7719  001D5E  8E28               	bsf	_inPipes+3,7,c	;volatile
  7720                           
  7721                           ;usb_device.c: 2711: break;
  7722  001D60  0012               	return	
  7723  001D62                     i2l3784:
  7724                           
  7725                           ;usb_device.c: 2713: USBStdGetStatusHandler();
  7726  001D62  EC11  F013         	call	_USBStdGetStatusHandler	;wreg free
  7727                           
  7728                           ;usb_device.c: 2714: break;
  7729  001D66  0012               	return	
  7730                           
  7731                           ;usb_device.c: 2715: case 1:
  7732  001D68  D000               	goto	i2l3786
  7733  001D6A                     i2l3786:
  7734                           
  7735                           ;usb_device.c: 2716: case 3:
  7736                           ;usb_device.c: 2717: USBStdFeatureReqHandler();
  7737  001D6A  ECEE  F007         	call	_USBStdFeatureReqHandler	;wreg free
  7738                           
  7739                           ;usb_device.c: 2718: break;
  7740  001D6E  0012               	return	
  7741  001D70                     i2l3788:
  7742                           
  7743                           ;usb_device.c: 2720: inPipes[0].pSrc.bRam = (uint8_t*)&USBAlternateInterface[SetupPkt.bI
      +                          ntfID];
  7744  001D70  010D               	movlb	13	; () banked
  7745  001D72  5134               	movf	52,w,b	;volatile
  7746  001D74  0D01               	mullw	1
  7747  001D76  0EBB               	movlw	low _USBAlternateInterface
  7748  001D78  24F3               	addwf	prodl,w,c
  7749  001D7A  6E25               	movwf	_inPipes,c	;volatile
  7750  001D7C  0E00               	movlw	high _USBAlternateInterface
  7751  001D7E  20F4               	addwfc	prodh,w,c
  7752  001D80  6E26               	movwf	_inPipes+1,c	;volatile
  7753                           
  7754                           ; BSR set to: 13
  7755                           ;usb_device.c: 2721: inPipes[0].info.bits.ctrl_trf_mem = 0x01;
  7756  001D82  8028               	bsf	_inPipes+3,0,c	;volatile
  7757                           
  7758                           ; BSR set to: 13
  7759                           ;usb_device.c: 2722: inPipes[0].wCount.v[0] = 1;
  7760  001D84  0E01               	movlw	1
  7761  001D86  6E29               	movwf	_inPipes+4,c	;volatile
  7762                           
  7763                           ; BSR set to: 13
  7764                           ;usb_device.c: 2723: inPipes[0].info.bits.busy = 1;
  7765  001D88  8E28               	bsf	_inPipes+3,7,c	;volatile
  7766                           
  7767                           ;usb_device.c: 2724: break;
  7768  001D8A  0012               	return	
  7769  001D8C                     i2l354:
  7770                           
  7771                           ; BSR set to: 13
  7772                           ;usb_device.c: 2726: inPipes[0].info.bits.busy = 1;
  7773  001D8C  8E28               	bsf	_inPipes+3,7,c	;volatile
  7774                           
  7775                           ; BSR set to: 13
  7776                           ;usb_device.c: 2727: USBAlternateInterface[SetupPkt.bIntfID] = SetupPkt.bAltID;
  7777  001D8E  010D               	movlb	13	; () banked
  7778  001D90  5134               	movf	52,w,b	;volatile
  7779  001D92  0D01               	mullw	1
  7780  001D94  0EBB               	movlw	low _USBAlternateInterface
  7781  001D96  24F3               	addwf	prodl,w,c
  7782  001D98  6ED9               	movwf	fsr2l,c
  7783  001D9A  0E00               	movlw	high _USBAlternateInterface
  7784  001D9C  20F4               	addwfc	prodh,w,c
  7785  001D9E  6EDA               	movwf	fsr2h,c
  7786  001DA0  CD32 FFDF          	movff	3378,indf2	;volatile
  7787                           
  7788                           ;usb_device.c: 2728: break;
  7789  001DA4  0012               	return	
  7790  001DA6                     i2l3798:
  7791                           
  7792                           ; BSR set to: 13
  7793                           ;usb_device.c: 2730: USER_USB_CALLBACK_EVENT_HANDLER(EVENT_SET_DESCRIPTOR,0,0);
  7794  001DA6  0E00               	movlw	0
  7795  001DA8  6E3A               	movwf	USER_USB_CALLBACK_EVENT_HANDLER@event+1,c
  7796  001DAA  0E02               	movlw	2
  7797  001DAC  6E39               	movwf	USER_USB_CALLBACK_EVENT_HANDLER@event,c
  7798  001DAE  0E00               	movlw	0
  7799  001DB0  6E3B               	movwf	USER_USB_CALLBACK_EVENT_HANDLER@pdata,c
  7800  001DB2  0E00               	movlw	0
  7801  001DB4  6E3C               	movwf	USER_USB_CALLBACK_EVENT_HANDLER@pdata+1,c
  7802  001DB6  0E00               	movlw	0
  7803  001DB8  6E3E               	movwf	USER_USB_CALLBACK_EVENT_HANDLER@size+1,c
  7804  001DBA  0E00               	movlw	0
  7805  001DBC  6E3D               	movwf	USER_USB_CALLBACK_EVENT_HANDLER@size,c
  7806  001DBE  ECA4  F017         	call	_USER_USB_CALLBACK_EVENT_HANDLER	;wreg free
  7807                           
  7808                           ;usb_device.c: 2735: }
  7809                           
  7810                           ;usb_device.c: 2734: break;
  7811                           
  7812                           ;usb_device.c: 2733: default:
  7813                           
  7814                           ;usb_device.c: 2732: case 12:
  7815                           
  7816                           ;usb_device.c: 2731: break;
  7817  001DC2  0012               	return	
  7818  001DC4                     i2l3802:
  7819  001DC4  010D               	movlb	13	; () banked
  7820  001DC6  5131               	movf	49,w,b	;volatile
  7821                           
  7822                           ; Switch size 1, requested type "space"
  7823                           ; Number of cases is 11, Range of values is 0 to 12
  7824                           ; switch strategies available:
  7825                           ; Name         Instructions Cycles
  7826                           ; simple_byte           34    18 (average)
  7827                           ;	Chosen strategy is simple_byte
  7828  001DC8  0A00               	xorlw	0	; case 0
  7829  001DCA  B4D8               	btfsc	status,2,c
  7830  001DCC  D7CA               	goto	i2l3784
  7831  001DCE  0A01               	xorlw	1	; case 1
  7832  001DD0  B4D8               	btfsc	status,2,c
  7833  001DD2  D7CB               	goto	i2l3786
  7834  001DD4  0A02               	xorlw	2	; case 3
  7835  001DD6  B4D8               	btfsc	status,2,c
  7836  001DD8  D7C8               	goto	i2l3786
  7837  001DDA  0A06               	xorlw	6	; case 5
  7838  001DDC  B4D8               	btfsc	status,2,c
  7839  001DDE  D7AE               	goto	i2l345
  7840  001DE0  0A03               	xorlw	3	; case 6
  7841  001DE2  B4D8               	btfsc	status,2,c
  7842  001DE4  D7AF               	goto	i2l3772
  7843  001DE6  0A01               	xorlw	1	; case 7
  7844  001DE8  B4D8               	btfsc	status,2,c
  7845  001DEA  D7DD               	goto	i2l3798
  7846  001DEC  0A0F               	xorlw	15	; case 8
  7847  001DEE  B4D8               	btfsc	status,2,c
  7848  001DF0  D7AF               	goto	i2l3776
  7849  001DF2  0A01               	xorlw	1	; case 9
  7850  001DF4  B4D8               	btfsc	status,2,c
  7851  001DF6  D7A9               	goto	i2l3774
  7852  001DF8  0A03               	xorlw	3	; case 10
  7853  001DFA  B4D8               	btfsc	status,2,c
  7854  001DFC  D7B9               	goto	i2l3788
  7855  001DFE  0A01               	xorlw	1	; case 11
  7856  001E00  B4D8               	btfsc	status,2,c
  7857  001E02  D7C4               	goto	i2l354
  7858  001E04  0A07               	xorlw	7	; case 12
  7859  001E06  0012               	return	
  7860                           
  7861                           ; BSR set to: 13
  7862  001E08  0012               	return		;funcret
  7863  001E0A                     __end_of_USBCheckStdRequest:
  7864                           	opt stack 0
  7865                           pclatu	equ	0xFFB
  7866                           pclath	equ	0xFFA
  7867                           tblptru	equ	0xFF8
  7868                           tblptrh	equ	0xFF7
  7869                           tblptrl	equ	0xFF6
  7870                           tablat	equ	0xFF5
  7871                           prodh	equ	0xFF4
  7872                           prodl	equ	0xFF3
  7873                           intcon	equ	0xFF2
  7874                           intcon2	equ	0xFF1
  7875                           postinc0	equ	0xFEE
  7876                           fsr0h	equ	0xFEA
  7877                           fsr0l	equ	0xFE9
  7878                           wreg	equ	0xFE8
  7879                           indf1	equ	0xFE7
  7880                           postinc1	equ	0xFE6
  7881                           postdec1	equ	0xFE5
  7882                           fsr1h	equ	0xFE2
  7883                           fsr1l	equ	0xFE1
  7884                           indf2	equ	0xFDF
  7885                           postinc2	equ	0xFDE
  7886                           postdec2	equ	0xFDD
  7887                           plusw2	equ	0xFDB
  7888                           fsr2h	equ	0xFDA
  7889                           fsr2l	equ	0xFD9
  7890                           status	equ	0xFD8
  7891                           
  7892 ;; *************** function _USBStdSetCfgHandler *****************
  7893 ;; Defined at:
  7894 ;;		line 1968 in file "../My_header/usb_cdc/usb/usb_device.c"
  7895 ;; Parameters:    Size  Location     Type
  7896 ;;		None
  7897 ;; Auto vars:     Size  Location     Type
  7898 ;;  i               1   20[COMRAM] unsigned char 
  7899 ;; Return value:  Size  Location     Type
  7900 ;;		None               void
  7901 ;; Registers used:
  7902 ;;		wreg, fsr2l, fsr2h, status,2, status,0, prodl, prodh, cstack
  7903 ;; Tracked objects:
  7904 ;;		On entry : 0/0
  7905 ;;		On exit  : 0/0
  7906 ;;		Unchanged: 0/0
  7907 ;; Data sizes:     COMRAM   BANK0   BANK1   BANK2   BANK3   BANK4   BANK5   BANK6   BANK7   BANK8   BANK9  BANK10  BANK1
      +1  BANK12  BANK13  BANK14
  7908 ;;      Params:         0       0       0       0       0       0       0       0       0       0       0       0       
      +0       0       0       0
  7909 ;;      Locals:         1       0       0       0       0       0       0       0       0       0       0       0       
      +0       0       0       0
  7910 ;;      Temps:          0       0       0       0       0       0       0       0       0       0       0       0       
      +0       0       0       0
  7911 ;;      Totals:         1       0       0       0       0       0       0       0       0       0       0       0       
      +0       0       0       0
  7912 ;;Total ram usage:        1 bytes
  7913 ;; Hardware stack levels used:    1
  7914 ;; Hardware stack levels required when called:    4
  7915 ;; This function calls:
  7916 ;;		_USER_USB_CALLBACK_EVENT_HANDLER
  7917 ;;		i2_memset
  7918 ;; This function is called by:
  7919 ;;		_USBCheckStdRequest
  7920 ;; This function uses a non-reentrant model
  7921 ;;
  7922                           
  7923                           	psect	text45
  7924  001FCA                     __ptext45:
  7925                           	opt stack 0
  7926  001FCA                     _USBStdSetCfgHandler:
  7927                           	opt stack 14
  7928                           
  7929                           ;usb_device.c: 1970: uint8_t i;
  7930                           ;usb_device.c: 1973: inPipes[0].info.bits.busy = 1;
  7931                           
  7932                           ;incstack = 0
  7933  001FCA  8E28               	bsf	_inPipes+3,7,c	;volatile
  7934                           
  7935                           ;usb_device.c: 1976: memset((void*)&UEP1,0x00,(2));;
  7936  001FCC  0E27               	movlw	39
  7937  001FCE  6E2D               	movwf	i2memset@p1,c
  7938  001FD0  0E0F               	movlw	15
  7939  001FD2  6E2E               	movwf	i2memset@p1+1,c
  7940  001FD4  0E00               	movlw	0
  7941  001FD6  6E30               	movwf	i2memset@c+1,c
  7942  001FD8  0E00               	movlw	0
  7943  001FDA  6E2F               	movwf	i2memset@c,c
  7944  001FDC  0E00               	movlw	0
  7945  001FDE  6E32               	movwf	i2memset@n+1,c
  7946  001FE0  0E02               	movlw	2
  7947  001FE2  6E31               	movwf	i2memset@n,c
  7948  001FE4  ECD3  F017         	call	i2_memset	;wreg free
  7949                           
  7950                           ;usb_device.c: 1979: memset((void*)&BDT[0], 0x00, sizeof(BDT));
  7951  001FE8  0E00               	movlw	0
  7952  001FEA  6E2D               	movwf	i2memset@p1,c
  7953  001FEC  0E0D               	movlw	13
  7954  001FEE  6E2E               	movwf	i2memset@p1+1,c
  7955  001FF0  0E00               	movlw	0
  7956  001FF2  6E30               	movwf	i2memset@c+1,c
  7957  001FF4  0E00               	movlw	0
  7958  001FF6  6E2F               	movwf	i2memset@c,c
  7959  001FF8  0E00               	movlw	0
  7960  001FFA  6E32               	movwf	i2memset@n+1,c
  7961  001FFC  0E30               	movlw	48
  7962  001FFE  6E31               	movwf	i2memset@n,c
  7963  002000  ECD3  F017         	call	i2_memset	;wreg free
  7964                           
  7965                           ;usb_device.c: 1982: UCONbits.PPBRST = 1;
  7966  002004  8C65               	bsf	3941,6,c	;volatile
  7967                           
  7968                           ;usb_device.c: 1987: for(i = 0; i < (uint8_t)(2+1u); i++)
  7969  002006  0E00               	movlw	0
  7970  002008  6E41               	movwf	USBStdSetCfgHandler@i,c
  7971  00200A                     i2l3494:
  7972  00200A  0E02               	movlw	2
  7973  00200C  6441               	cpfsgt	USBStdSetCfgHandler@i,c
  7974  00200E  D001               	goto	i2l3498
  7975  002010  D016               	goto	i2l3504
  7976  002012                     i2l3498:
  7977                           
  7978                           ;usb_device.c: 1988: {
  7979                           ;usb_device.c: 1989: ep_data_in[i].Val = 0u;
  7980  002012  5041               	movf	USBStdSetCfgHandler@i,w,c
  7981  002014  0D01               	mullw	1
  7982  002016  0E10               	movlw	low _ep_data_in
  7983  002018  24F3               	addwf	prodl,w,c
  7984  00201A  6ED9               	movwf	fsr2l,c
  7985  00201C  0E00               	movlw	high _ep_data_in
  7986  00201E  20F4               	addwfc	prodh,w,c
  7987  002020  6EDA               	movwf	fsr2h,c
  7988  002022  0E00               	movlw	0
  7989  002024  6EDF               	movwf	indf2,c
  7990                           
  7991                           ;usb_device.c: 1990: ep_data_out[i].Val = 0u;
  7992  002026  5041               	movf	USBStdSetCfgHandler@i,w,c
  7993  002028  0D01               	mullw	1
  7994  00202A  0E77               	movlw	low _ep_data_out
  7995  00202C  24F3               	addwf	prodl,w,c
  7996  00202E  6ED9               	movwf	fsr2l,c
  7997  002030  0E00               	movlw	high _ep_data_out
  7998  002032  20F4               	addwfc	prodh,w,c
  7999  002034  6EDA               	movwf	fsr2h,c
  8000  002036  0E00               	movlw	0
  8001  002038  6EDF               	movwf	indf2,c
  8002  00203A  2A41               	incf	USBStdSetCfgHandler@i,f,c
  8003  00203C  D7E6               	goto	i2l3494
  8004  00203E                     i2l3504:
  8005                           
  8006                           ;usb_device.c: 1991: }
  8007                           ;usb_device.c: 1994: memset((void*)&USBAlternateInterface,0x00,2);
  8008  00203E  0EBB               	movlw	low _USBAlternateInterface
  8009  002040  6E2D               	movwf	i2memset@p1,c
  8010  002042  0E00               	movlw	high _USBAlternateInterface
  8011  002044  6E2E               	movwf	i2memset@p1+1,c
  8012  002046  0E00               	movlw	0
  8013  002048  6E30               	movwf	i2memset@c+1,c
  8014  00204A  0E00               	movlw	0
  8015  00204C  6E2F               	movwf	i2memset@c,c
  8016  00204E  0E00               	movlw	0
  8017  002050  6E32               	movwf	i2memset@n+1,c
  8018  002052  0E02               	movlw	2
  8019  002054  6E31               	movwf	i2memset@n,c
  8020  002056  ECD3  F017         	call	i2_memset	;wreg free
  8021                           
  8022                           ;usb_device.c: 1997: UCONbits.PPBRST = 0;
  8023  00205A  9C65               	bcf	3941,6,c	;volatile
  8024                           
  8025                           ;usb_device.c: 1999: pBDTEntryIn[0] = (volatile BDT_ENTRY*)&BDT[2];
  8026  00205C  0E08               	movlw	8
  8027  00205E  6E0A               	movwf	_pBDTEntryIn,c
  8028  002060  0E0D               	movlw	13
  8029  002062  6E0B               	movwf	_pBDTEntryIn+1,c
  8030                           
  8031                           ;usb_device.c: 2002: pBDTEntryEP0OutCurrent = (volatile BDT_ENTRY*)&BDT[0];
  8032  002064  0E00               	movlw	0
  8033  002066  6E13               	movwf	_pBDTEntryEP0OutCurrent,c
  8034  002068  0E0D               	movlw	13
  8035  00206A  6E14               	movwf	_pBDTEntryEP0OutCurrent+1,c
  8036                           
  8037                           ;usb_device.c: 2003: pBDTEntryEP0OutNext = pBDTEntryEP0OutCurrent;
  8038  00206C  C013  F015         	movff	_pBDTEntryEP0OutCurrent,_pBDTEntryEP0OutNext
  8039  002070  C014  F016         	movff	_pBDTEntryEP0OutCurrent+1,_pBDTEntryEP0OutNext+1
  8040                           
  8041                           ;usb_device.c: 2006: USBActiveConfiguration = SetupPkt.bConfigurationValue;
  8042  002074  CD32 F02B          	movff	3378,_USBActiveConfiguration	;volatile
  8043                           
  8044                           ;usb_device.c: 2009: if(USBActiveConfiguration == 0)
  8045  002078  502B               	movf	_USBActiveConfiguration,w,c	;volatile
  8046  00207A  A4D8               	btfss	status,2,c
  8047  00207C  D003               	goto	i2l3520
  8048                           
  8049                           ;usb_device.c: 2010: {
  8050                           ;usb_device.c: 2012: USBDeviceState = ADDRESS_STATE;
  8051  00207E  0E10               	movlw	16
  8052  002080  6E1D               	movwf	_USBDeviceState,c	;volatile
  8053                           
  8054                           ;usb_device.c: 2013: }
  8055  002082  0012               	return	
  8056  002084                     i2l3520:
  8057                           
  8058                           ;usb_device.c: 2014: else
  8059                           ;usb_device.c: 2015: {
  8060                           ;usb_device.c: 2017: USER_USB_CALLBACK_EVENT_HANDLER(EVENT_CONFIGURED,(void*)&USBActiveC
      +                          onfiguration,1);
  8061  002084  0E00               	movlw	0
  8062  002086  6E3A               	movwf	USER_USB_CALLBACK_EVENT_HANDLER@event+1,c
  8063  002088  0E01               	movlw	1
  8064  00208A  6E39               	movwf	USER_USB_CALLBACK_EVENT_HANDLER@event,c
  8065  00208C  0E2B               	movlw	low _USBActiveConfiguration
  8066  00208E  6E3B               	movwf	USER_USB_CALLBACK_EVENT_HANDLER@pdata,c
  8067  002090  0E00               	movlw	high _USBActiveConfiguration
  8068  002092  6E3C               	movwf	USER_USB_CALLBACK_EVENT_HANDLER@pdata+1,c
  8069  002094  0E00               	movlw	0
  8070  002096  6E3E               	movwf	USER_USB_CALLBACK_EVENT_HANDLER@size+1,c
  8071  002098  0E01               	movlw	1
  8072  00209A  6E3D               	movwf	USER_USB_CALLBACK_EVENT_HANDLER@size,c
  8073  00209C  ECA4  F017         	call	_USER_USB_CALLBACK_EVENT_HANDLER	;wreg free
  8074                           
  8075                           ;usb_device.c: 2022: USBDeviceState = CONFIGURED_STATE;
  8076  0020A0  0E20               	movlw	32
  8077  0020A2  6E1D               	movwf	_USBDeviceState,c	;volatile
  8078  0020A4  0012               	return	
  8079  0020A6  0012               	return		;funcret
  8080  0020A8                     __end_of_USBStdSetCfgHandler:
  8081                           	opt stack 0
  8082                           pclatu	equ	0xFFB
  8083                           pclath	equ	0xFFA
  8084                           tblptru	equ	0xFF8
  8085                           tblptrh	equ	0xFF7
  8086                           tblptrl	equ	0xFF6
  8087                           tablat	equ	0xFF5
  8088                           prodh	equ	0xFF4
  8089                           prodl	equ	0xFF3
  8090                           intcon	equ	0xFF2
  8091                           intcon2	equ	0xFF1
  8092                           postinc0	equ	0xFEE
  8093                           fsr0h	equ	0xFEA
  8094                           fsr0l	equ	0xFE9
  8095                           wreg	equ	0xFE8
  8096                           indf1	equ	0xFE7
  8097                           postinc1	equ	0xFE6
  8098                           postdec1	equ	0xFE5
  8099                           fsr1h	equ	0xFE2
  8100                           fsr1l	equ	0xFE1
  8101                           indf2	equ	0xFDF
  8102                           postinc2	equ	0xFDE
  8103                           postdec2	equ	0xFDD
  8104                           plusw2	equ	0xFDB
  8105                           fsr2h	equ	0xFDA
  8106                           fsr2l	equ	0xFD9
  8107                           status	equ	0xFD8
  8108                           
  8109 ;; *************** function i2_memset *****************
  8110 ;; Defined at:
  8111 ;;		line 8 in file "C:\Program Files (x86)\Microchip\xc8\v1.34\sources\common\memset.c"
  8112 ;; Parameters:    Size  Location     Type
  8113 ;;  p1              2    0[COMRAM] PTR void 
  8114 ;;		 -> USBAlternateInterface(2), BDT(48), UEP1(1), 
  8115 ;;  c               2    2[COMRAM] int 
  8116 ;;  n               2    4[COMRAM] unsigned int 
  8117 ;; Auto vars:     Size  Location     Type
  8118 ;;  memset          2    6[COMRAM] PTR unsigned char 
  8119 ;;		 -> USBAlternateInterface(2), BDT(48), UEP1(1), 
  8120 ;; Return value:  Size  Location     Type
  8121 ;;                  2    0[COMRAM] PTR void 
  8122 ;; Registers used:
  8123 ;;		wreg, fsr2l, fsr2h, status,2, status,0
  8124 ;; Tracked objects:
  8125 ;;		On entry : 0/0
  8126 ;;		On exit  : 0/0
  8127 ;;		Unchanged: 0/0
  8128 ;; Data sizes:     COMRAM   BANK0   BANK1   BANK2   BANK3   BANK4   BANK5   BANK6   BANK7   BANK8   BANK9  BANK10  BANK1
      +1  BANK12  BANK13  BANK14
  8129 ;;      Params:         6       0       0       0       0       0       0       0       0       0       0       0       
      +0       0       0       0
  8130 ;;      Locals:         2       0       0       0       0       0       0       0       0       0       0       0       
      +0       0       0       0
  8131 ;;      Temps:          0       0       0       0       0       0       0       0       0       0       0       0       
      +0       0       0       0
  8132 ;;      Totals:         8       0       0       0       0       0       0       0       0       0       0       0       
      +0       0       0       0
  8133 ;;Total ram usage:        8 bytes
  8134 ;; Hardware stack levels used:    1
  8135 ;; This function calls:
  8136 ;;		Nothing
  8137 ;; This function is called by:
  8138 ;;		_USBStdSetCfgHandler
  8139 ;;		i2_USBDeviceInit
  8140 ;; This function uses a non-reentrant model
  8141 ;;
  8142                           
  8143                           	psect	text46
  8144  002FA6                     __ptext46:
  8145                           	opt stack 0
  8146  002FA6                     i2_memset:
  8147                           	opt stack 20
  8148                           
  8149                           ;incstack = 0
  8150  002FA6  C02D  F033         	movff	i2memset@p1,i2memset@p
  8151  002FAA  C02E  F034         	movff	i2memset@p1+1,i2memset@p+1
  8152  002FAE  D009               	goto	i2l3428
  8153  002FB0                     i2l3424:
  8154  002FB0  C033  FFD9         	movff	i2memset@p,fsr2l
  8155  002FB4  C034  FFDA         	movff	i2memset@p+1,fsr2h
  8156  002FB8  C02F  FFDF         	movff	i2memset@c,indf2
  8157  002FBC  4A33               	infsnz	i2memset@p,f,c
  8158  002FBE  2A34               	incf	i2memset@p+1,f,c
  8159  002FC0  D000               	goto	i2l3428
  8160  002FC2                     i2l3428:
  8161  002FC2  0631               	decf	i2memset@n,f,c
  8162  002FC4  A0D8               	btfss	status,0,c
  8163  002FC6  0632               	decf	i2memset@n+1,f,c
  8164  002FC8  2831               	incf	i2memset@n,w,c
  8165  002FCA  E1F2               	bnz	i2l3424
  8166  002FCC  2832               	incf	i2memset@n+1,w,c
  8167  002FCE  A4D8               	btfss	status,2,c
  8168  002FD0  D7EF               	goto	i2l3424
  8169                           
  8170                           ;	Return value of i2_memset is never used
  8171  002FD2  0012               	return		;funcret
  8172  002FD4                     __end_ofi2_memset:
  8173                           	opt stack 0
  8174                           pclatu	equ	0xFFB
  8175                           pclath	equ	0xFFA
  8176                           tblptru	equ	0xFF8
  8177                           tblptrh	equ	0xFF7
  8178                           tblptrl	equ	0xFF6
  8179                           tablat	equ	0xFF5
  8180                           prodh	equ	0xFF4
  8181                           prodl	equ	0xFF3
  8182                           intcon	equ	0xFF2
  8183                           intcon2	equ	0xFF1
  8184                           postinc0	equ	0xFEE
  8185                           fsr0h	equ	0xFEA
  8186                           fsr0l	equ	0xFE9
  8187                           wreg	equ	0xFE8
  8188                           indf1	equ	0xFE7
  8189                           postinc1	equ	0xFE6
  8190                           postdec1	equ	0xFE5
  8191                           fsr1h	equ	0xFE2
  8192                           fsr1l	equ	0xFE1
  8193                           indf2	equ	0xFDF
  8194                           postinc2	equ	0xFDE
  8195                           postdec2	equ	0xFDD
  8196                           plusw2	equ	0xFDB
  8197                           fsr2h	equ	0xFDA
  8198                           fsr2l	equ	0xFD9
  8199                           status	equ	0xFD8
  8200                           
  8201 ;; *************** function _USBStdGetStatusHandler *****************
  8202 ;; Defined at:
  8203 ;;		line 2129 in file "../My_header/usb_cdc/usb/usb_device.c"
  8204 ;; Parameters:    Size  Location     Type
  8205 ;;		None
  8206 ;; Auto vars:     Size  Location     Type
  8207 ;;  p               2    1[COMRAM] PTR struct __BDT
  8208 ;;		 -> NULL(0), BDT(48), 
  8209 ;; Return value:  Size  Location     Type
  8210 ;;		None               void
  8211 ;; Registers used:
  8212 ;;		wreg, fsr2l, fsr2h, status,2, status,0, prodl, prodh
  8213 ;; Tracked objects:
  8214 ;;		On entry : 0/0
  8215 ;;		On exit  : 0/0
  8216 ;;		Unchanged: 0/0
  8217 ;; Data sizes:     COMRAM   BANK0   BANK1   BANK2   BANK3   BANK4   BANK5   BANK6   BANK7   BANK8   BANK9  BANK10  BANK1
      +1  BANK12  BANK13  BANK14
  8218 ;;      Params:         0       0       0       0       0       0       0       0       0       0       0       0       
      +0       0       0       0
  8219 ;;      Locals:         2       0       0       0       0       0       0       0       0       0       0       0       
      +0       0       0       0
  8220 ;;      Temps:          1       0       0       0       0       0       0       0       0       0       0       0       
      +0       0       0       0
  8221 ;;      Totals:         3       0       0       0       0       0       0       0       0       0       0       0       
      +0       0       0       0
  8222 ;;Total ram usage:        3 bytes
  8223 ;; Hardware stack levels used:    1
  8224 ;; This function calls:
  8225 ;;		Nothing
  8226 ;; This function is called by:
  8227 ;;		_USBCheckStdRequest
  8228 ;; This function uses a non-reentrant model
  8229 ;;
  8230                           
  8231                           	psect	text47
  8232  002622                     __ptext47:
  8233                           	opt stack 0
  8234  002622                     _USBStdGetStatusHandler:
  8235                           	opt stack 18
  8236                           
  8237                           ;usb_device.c: 2131: CtrlTrfData[0] = 0;
  8238                           
  8239                           ;incstack = 0
  8240  002622  0E00               	movlw	0
  8241  002624  010D               	movlb	13	; () banked
  8242  002626  6F38               	movwf	56,b	;volatile
  8243                           
  8244                           ;usb_device.c: 2132: CtrlTrfData[1] = 0;
  8245  002628  0E00               	movlw	0
  8246  00262A  010D               	movlb	13	; () banked
  8247  00262C  6F39               	movwf	57,b	;volatile
  8248                           
  8249                           ;usb_device.c: 2134: switch(SetupPkt.Recipient)
  8250  00262E  D03D               	goto	i2l3576
  8251  002630                     i2l281:
  8252                           
  8253                           ; BSR set to: 13
  8254                           ;usb_device.c: 2137: inPipes[0].info.bits.busy = 1;
  8255  002630  8E28               	bsf	_inPipes+3,7,c	;volatile
  8256                           
  8257                           ;usb_device.c: 2142: if(0 == 1)
  8258  002632  D003               	goto	i2l3560
  8259                           
  8260                           ; BSR set to: 13
  8261                           ;usb_device.c: 2143: {
  8262                           ;usb_device.c: 2144: CtrlTrfData[0]|=0x01;
  8263  002634  010D               	movlb	13	; () banked
  8264  002636  8138               	bsf	56,0,b	;volatile
  8265  002638  D000               	goto	i2l3560
  8266  00263A                     i2l3560:
  8267                           
  8268                           ; BSR set to: 13
  8269                           ;usb_device.c: 2145: }
  8270                           ;usb_device.c: 2147: if(RemoteWakeup == 1)
  8271  00263A  0418               	decf	_RemoteWakeup,w,c	;volatile
  8272  00263C  A4D8               	btfss	status,2,c
  8273  00263E  D041               	goto	i2l284
  8274                           
  8275                           ; BSR set to: 13
  8276                           ;usb_device.c: 2148: {
  8277                           ;usb_device.c: 2149: CtrlTrfData[0]|=0x02;
  8278  002640  010D               	movlb	13	; () banked
  8279  002642  8338               	bsf	56,1,b	;volatile
  8280                           
  8281                           ; BSR set to: 13
  8282                           ;usb_device.c: 2150: }
  8283                           ;usb_device.c: 2151: break;
  8284  002644  D03E               	goto	i2l284
  8285  002646                     i2l285:
  8286                           
  8287                           ; BSR set to: 13
  8288                           ;usb_device.c: 2153: inPipes[0].info.bits.busy = 1;
  8289  002646  8E28               	bsf	_inPipes+3,7,c	;volatile
  8290                           
  8291                           ;usb_device.c: 2154: break;
  8292  002648  D03C               	goto	i2l284
  8293  00264A                     i2l286:
  8294                           
  8295                           ; BSR set to: 13
  8296                           ;usb_device.c: 2156: inPipes[0].info.bits.busy = 1;
  8297  00264A  8E28               	bsf	_inPipes+3,7,c	;volatile
  8298                           
  8299                           ;usb_device.c: 2160: {
  8300                           ;usb_device.c: 2161: BDT_ENTRY *p;
  8301                           ;usb_device.c: 2163: if(SetupPkt.EPDir == 0)
  8302  00264C  010D               	movlb	13	; () banked
  8303  00264E  BF34               	btfsc	52,7,b	;volatile
  8304  002650  D00B               	goto	i2l3566
  8305                           
  8306                           ; BSR set to: 13
  8307                           ;usb_device.c: 2164: {
  8308                           ;usb_device.c: 2165: p = (BDT_ENTRY*)pBDTEntryOut[SetupPkt.EPNum];
  8309  002652  010D               	movlb	13	; () banked
  8310  002654  5134               	movf	52,w,b	;volatile
  8311  002656  0B0F               	andlw	15
  8312  002658  6E2D               	movwf	??_USBStdGetStatusHandler& (0+255),c
  8313  00265A  502D               	movf	??_USBStdGetStatusHandler,w,c
  8314  00265C  0D02               	mullw	2
  8315  00265E  0E6A               	movlw	low _pBDTEntryOut
  8316  002660  24F3               	addwf	prodl,w,c
  8317  002662  6ED9               	movwf	fsr2l,c
  8318  002664  0E00               	movlw	high _pBDTEntryOut
  8319  002666  D00A               	goto	L5
  8320  002668                     i2l3566:
  8321                           
  8322                           ; BSR set to: 13
  8323                           ;usb_device.c: 2167: else
  8324                           ;usb_device.c: 2168: {
  8325                           ;usb_device.c: 2169: p = (BDT_ENTRY*)pBDTEntryIn[SetupPkt.EPNum];
  8326  002668  010D               	movlb	13	; () banked
  8327  00266A  5134               	movf	52,w,b	;volatile
  8328  00266C  0B0F               	andlw	15
  8329  00266E  6E2D               	movwf	??_USBStdGetStatusHandler& (0+255),c
  8330  002670  502D               	movf	??_USBStdGetStatusHandler,w,c
  8331  002672  0D02               	mullw	2
  8332  002674  0E0A               	movlw	low _pBDTEntryIn
  8333  002676  24F3               	addwf	prodl,w,c
  8334  002678  6ED9               	movwf	fsr2l,c
  8335  00267A  0E00               	movlw	high _pBDTEntryIn
  8336  00267C                     L5:
  8337  00267C  20F4               	addwfc	prodh,w,c
  8338  00267E  6EDA               	movwf	fsr2h,c
  8339  002680  CFDE F02E          	movff	postinc2,USBStdGetStatusHandler@p
  8340  002684  CFDD F02F          	movff	postdec2,USBStdGetStatusHandler@p+1
  8341  002688  D000               	goto	i2l3568
  8342  00268A                     i2l3568:
  8343                           
  8344                           ; BSR set to: 13
  8345                           ;usb_device.c: 2170: }
  8346                           ;usb_device.c: 2172: if((p->STAT.UOWN == 1) && (p->STAT.BSTALL == 1))
  8347  00268A  C02E  FFD9         	movff	USBStdGetStatusHandler@p,fsr2l
  8348  00268E  C02F  FFDA         	movff	USBStdGetStatusHandler@p+1,fsr2h
  8349  002692  AEDF               	btfss	indf2,7,c
  8350  002694  D016               	goto	i2l284
  8351                           
  8352                           ; BSR set to: 13
  8353  002696  C02E  FFD9         	movff	USBStdGetStatusHandler@p,fsr2l
  8354  00269A  C02F  FFDA         	movff	USBStdGetStatusHandler@p+1,fsr2h
  8355  00269E  A4DF               	btfss	indf2,2,c
  8356  0026A0  D010               	goto	i2l284
  8357                           
  8358                           ; BSR set to: 13
  8359                           ;usb_device.c: 2173: CtrlTrfData[0]=0x01;
  8360  0026A2  0E01               	movlw	1
  8361  0026A4  010D               	movlb	13	; () banked
  8362  0026A6  6F38               	movwf	56,b	;volatile
  8363                           
  8364                           ; BSR set to: 13
  8365                           ;usb_device.c: 2175: }
  8366                           ;usb_device.c: 2176: }
  8367                           
  8368                           ; BSR set to: 13
  8369                           ;usb_device.c: 2174: break;
  8370  0026A8  D00C               	goto	i2l284
  8371  0026AA                     i2l3576:
  8372                           
  8373                           ; BSR set to: 13
  8374  0026AA  010D               	movlb	13	; () banked
  8375  0026AC  5130               	movf	48,w,b	;volatile
  8376  0026AE  0B1F               	andlw	31
  8377                           
  8378                           ; Switch size 1, requested type "space"
  8379                           ; Number of cases is 3, Range of values is 0 to 2
  8380                           ; switch strategies available:
  8381                           ; Name         Instructions Cycles
  8382                           ; simple_byte           10     6 (average)
  8383                           ;	Chosen strategy is simple_byte
  8384  0026B0  0A00               	xorlw	0	; case 0
  8385  0026B2  B4D8               	btfsc	status,2,c
  8386  0026B4  D7BD               	goto	i2l281
  8387  0026B6  0A01               	xorlw	1	; case 1
  8388  0026B8  B4D8               	btfsc	status,2,c
  8389  0026BA  D7C5               	goto	i2l285
  8390  0026BC  0A03               	xorlw	3	; case 2
  8391  0026BE  B4D8               	btfsc	status,2,c
  8392  0026C0  D7C4               	goto	i2l286
  8393  0026C2                     i2l284:
  8394                           
  8395                           ; BSR set to: 13
  8396                           ;usb_device.c: 2178: if(inPipes[0].info.bits.busy == 1)
  8397  0026C2  AE28               	btfss	_inPipes+3,7,c	;volatile
  8398  0026C4  0012               	return	
  8399                           
  8400                           ; BSR set to: 13
  8401                           ;usb_device.c: 2179: {
  8402                           ;usb_device.c: 2180: inPipes[0].pSrc.bRam = (uint8_t*)&CtrlTrfData;
  8403  0026C6  0E38               	movlw	56
  8404  0026C8  6E25               	movwf	_inPipes,c	;volatile
  8405  0026CA  0E0D               	movlw	13
  8406  0026CC  6E26               	movwf	_inPipes+1,c	;volatile
  8407                           
  8408                           ; BSR set to: 13
  8409                           ;usb_device.c: 2181: inPipes[0].info.bits.ctrl_trf_mem = 0x01;
  8410  0026CE  8028               	bsf	_inPipes+3,0,c	;volatile
  8411                           
  8412                           ; BSR set to: 13
  8413                           ;usb_device.c: 2182: inPipes[0].wCount.v[0] = 2;
  8414  0026D0  0E02               	movlw	2
  8415  0026D2  6E29               	movwf	_inPipes+4,c	;volatile
  8416  0026D4  0012               	return	
  8417                           
  8418                           ; BSR set to: 13
  8419                           
  8420                           ; BSR set to: 13
  8421  0026D6  0012               	return		;funcret
  8422  0026D8                     __end_of_USBStdGetStatusHandler:
  8423                           	opt stack 0
  8424                           pclatu	equ	0xFFB
  8425                           pclath	equ	0xFFA
  8426                           tblptru	equ	0xFF8
  8427                           tblptrh	equ	0xFF7
  8428                           tblptrl	equ	0xFF6
  8429                           tablat	equ	0xFF5
  8430                           prodh	equ	0xFF4
  8431                           prodl	equ	0xFF3
  8432                           intcon	equ	0xFF2
  8433                           intcon2	equ	0xFF1
  8434                           postinc0	equ	0xFEE
  8435                           fsr0h	equ	0xFEA
  8436                           fsr0l	equ	0xFE9
  8437                           wreg	equ	0xFE8
  8438                           indf1	equ	0xFE7
  8439                           postinc1	equ	0xFE6
  8440                           postdec1	equ	0xFE5
  8441                           fsr1h	equ	0xFE2
  8442                           fsr1l	equ	0xFE1
  8443                           indf2	equ	0xFDF
  8444                           postinc2	equ	0xFDE
  8445                           postdec2	equ	0xFDD
  8446                           plusw2	equ	0xFDB
  8447                           fsr2h	equ	0xFDA
  8448                           fsr2l	equ	0xFD9
  8449                           status	equ	0xFD8
  8450                           
  8451 ;; *************** function _USBStdGetDscHandler *****************
  8452 ;; Defined at:
  8453 ;;		line 2043 in file "../My_header/usb_cdc/usb/usb_device.c"
  8454 ;; Parameters:    Size  Location     Type
  8455 ;;		None
  8456 ;; Auto vars:     Size  Location     Type
  8457 ;;		None
  8458 ;; Return value:  Size  Location     Type
  8459 ;;		None               void
  8460 ;; Registers used:
  8461 ;;		wreg, fsr0l, fsr0h, status,2, status,0, tblptrl, tblptrh, tblptru, prodl, prodh
  8462 ;; Tracked objects:
  8463 ;;		On entry : 0/0
  8464 ;;		On exit  : 0/0
  8465 ;;		Unchanged: 0/0
  8466 ;; Data sizes:     COMRAM   BANK0   BANK1   BANK2   BANK3   BANK4   BANK5   BANK6   BANK7   BANK8   BANK9  BANK10  BANK1
      +1  BANK12  BANK13  BANK14
  8467 ;;      Params:         0       0       0       0       0       0       0       0       0       0       0       0       
      +0       0       0       0
  8468 ;;      Locals:         0       0       0       0       0       0       0       0       0       0       0       0       
      +0       0       0       0
  8469 ;;      Temps:          2       0       0       0       0       0       0       0       0       0       0       0       
      +0       0       0       0
  8470 ;;      Totals:         2       0       0       0       0       0       0       0       0       0       0       0       
      +0       0       0       0
  8471 ;;Total ram usage:        2 bytes
  8472 ;; Hardware stack levels used:    1
  8473 ;; This function calls:
  8474 ;;		Nothing
  8475 ;; This function is called by:
  8476 ;;		_USBCheckStdRequest
  8477 ;; This function uses a non-reentrant model
  8478 ;;
  8479                           
  8480                           	psect	text48
  8481  001800                     __ptext48:
  8482                           	opt stack 0
  8483  001800                     _USBStdGetDscHandler:
  8484                           	opt stack 18
  8485                           
  8486                           ;usb_device.c: 2045: if(SetupPkt.bmRequestType == 0x80)
  8487                           
  8488                           ; BSR set to: 13
  8489                           ;incstack = 0
  8490  001800  0E80               	movlw	128
  8491  001802  010D               	movlb	13	; () banked
  8492  001804  1930               	xorwf	48,w,b	;volatile
  8493  001806  A4D8               	btfss	status,2,c
  8494  001808  0012               	return	
  8495                           
  8496                           ; BSR set to: 13
  8497                           ;usb_device.c: 2046: {
  8498                           ;usb_device.c: 2047: inPipes[0].info.Val = 0x00 | 0x80 | 0x40;
  8499  00180A  0EC0               	movlw	192
  8500  00180C  6E28               	movwf	_inPipes+3,c	;volatile
  8501                           
  8502                           ;usb_device.c: 2049: switch(SetupPkt.bDescriptorType)
  8503  00180E  D085               	goto	i2l3554
  8504  001810                     i2l3528:
  8505                           
  8506                           ; BSR set to: 13
  8507                           ;usb_device.c: 2055: inPipes[0].pSrc.bRom = (const uint8_t*)&device_dsc;
  8508  001810  0EB4               	movlw	low _device_dsc
  8509  001812  6E25               	movwf	_inPipes,c	;volatile
  8510  001814  0E0F               	movlw	high _device_dsc
  8511  001816  6E26               	movwf	_inPipes+1,c	;volatile
  8512                           
  8513                           ; BSR set to: 13
  8514                           ;usb_device.c: 2057: inPipes[0].wCount.Val = sizeof(device_dsc);
  8515  001818  0E00               	movlw	0
  8516  00181A  6E2A               	movwf	_inPipes+5,c	;volatile
  8517  00181C  0E12               	movlw	18
  8518  00181E  6E29               	movwf	_inPipes+4,c	;volatile
  8519                           
  8520                           ;usb_device.c: 2058: break;
  8521  001820  0012               	return	
  8522  001822                     i2l3532:
  8523                           
  8524                           ; BSR set to: 13
  8525                           ;usb_device.c: 2063: if(SetupPkt.bDscIndex < 1)
  8526  001822  010D               	movlb	13	; () banked
  8527  001824  5132               	movf	50,w,b	;volatile
  8528  001826  A4D8               	btfss	status,2,c
  8529  001828  D043               	goto	i2l3540
  8530                           
  8531                           ; BSR set to: 13
  8532                           ;usb_device.c: 2064: {
  8533                           ;usb_device.c: 2068: inPipes[0].pSrc.bRom = *(USB_CD_Ptr+SetupPkt.bDscIndex);
  8534  00182A  010D               	movlb	13	; () banked
  8535  00182C  5132               	movf	50,w,b	;volatile
  8536  00182E  0D02               	mullw	2
  8537  001830  0E07               	movlw	low _USB_CD_Ptr
  8538  001832  24F3               	addwf	prodl,w,c
  8539  001834  6EF6               	movwf	tblptrl,c
  8540  001836  0E0F               	movlw	high _USB_CD_Ptr
  8541  001838  20F4               	addwfc	prodh,w,c
  8542  00183A  6EF7               	movwf	tblptrh,c
  8543  00183C                     	if	1	;There are 3 active tblptr bytes
  8544  00183C  6AF8               	clrf	tblptru,c
  8545  00183E  0E00               	movlw	low (__mediumconst shr (0+16))
  8546  001840  22F8               	addwfc	tblptru,f,c
  8547  001842                     	endif
  8548  001842  0009               	tblrd		*+
  8549  001844  CFF5 F025          	movff	tablat,_inPipes	;volatile
  8550  001848  000A               	tblrd		*-
  8551  00184A  CFF5 F026          	movff	tablat,_inPipes+1	;volatile
  8552                           
  8553                           ; BSR set to: 13
  8554                           ;usb_device.c: 2074: inPipes[0].wCount.byte.LB = *(inPipes[0].pSrc.bRom+2);
  8555  00184E  0E02               	movlw	2
  8556  001850  2425               	addwf	_inPipes,w,c	;volatile
  8557  001852  6E2D               	movwf	??_USBStdGetDscHandler& (0+255),c
  8558  001854  0E00               	movlw	0
  8559  001856  2026               	addwfc	_inPipes+1,w,c	;volatile
  8560  001858  6E2E               	movwf	(??_USBStdGetDscHandler+1)& (0+255),c
  8561  00185A  C02D  FFF6         	movff	??_USBStdGetDscHandler,tblptrl
  8562  00185E  C02E  FFF7         	movff	??_USBStdGetDscHandler+1,tblptrh
  8563  001862  0E00               	movlw	low (__smallconst shr (0+16))
  8564  001864  6EF8               	movwf	tblptru,c
  8565  001866  0E0E               	movlw	(high __ramtop+-1)
  8566  001868  64F7               	cpfsgt	tblptrh,c
  8567  00186A  D003               	bra	i2u238_47
  8568  00186C  0008               	tblrd		*
  8569  00186E  50F5               	movf	tablat,w,c
  8570  001870  D005               	bra	i2u238_40
  8571  001872                     i2u238_47:
  8572  001872  CFF6 FFE9          	movff	tblptrl,fsr0l
  8573  001876  CFF7 FFEA          	movff	tblptrh,fsr0h
  8574  00187A  50EF               	movf	indf0,w,c
  8575  00187C                     i2u238_40:
  8576  00187C  6E29               	movwf	_inPipes+4,c	;volatile
  8577                           
  8578                           ;usb_device.c: 2075: inPipes[0].wCount.byte.HB = *(inPipes[0].pSrc.bRom+3);
  8579  00187E  0E03               	movlw	3
  8580  001880  2425               	addwf	_inPipes,w,c	;volatile
  8581  001882  6E2D               	movwf	??_USBStdGetDscHandler& (0+255),c
  8582  001884  0E00               	movlw	0
  8583  001886  2026               	addwfc	_inPipes+1,w,c	;volatile
  8584  001888  6E2E               	movwf	(??_USBStdGetDscHandler+1)& (0+255),c
  8585  00188A  C02D  FFF6         	movff	??_USBStdGetDscHandler,tblptrl
  8586  00188E  C02E  FFF7         	movff	??_USBStdGetDscHandler+1,tblptrh
  8587  001892  0E00               	movlw	low (__smallconst shr (0+16))
  8588  001894  6EF8               	movwf	tblptru,c
  8589  001896  0E0E               	movlw	(high __ramtop+-1)
  8590  001898  64F7               	cpfsgt	tblptrh,c
  8591  00189A  D003               	bra	i2u239_47
  8592  00189C  0008               	tblrd		*
  8593  00189E  50F5               	movf	tablat,w,c
  8594  0018A0  D005               	bra	i2u239_40
  8595  0018A2                     i2u239_47:
  8596  0018A2  CFF6 FFE9          	movff	tblptrl,fsr0l
  8597  0018A6  CFF7 FFEA          	movff	tblptrh,fsr0h
  8598  0018AA  50EF               	movf	indf0,w,c
  8599  0018AC                     i2u239_40:
  8600  0018AC  6E2A               	movwf	_inPipes+5,c	;volatile
  8601                           
  8602                           ;usb_device.c: 2076: }
  8603  0018AE  0012               	return	
  8604  0018B0                     i2l3540:
  8605                           
  8606                           ;usb_device.c: 2077: else
  8607                           ;usb_device.c: 2078: {
  8608                           ;usb_device.c: 2079: inPipes[0].info.Val = 0;
  8609  0018B0  0E00               	movlw	0
  8610  0018B2  6E28               	movwf	_inPipes+3,c	;volatile
  8611                           
  8612                           ;usb_device.c: 2080: }
  8613                           ;usb_device.c: 2081: break;
  8614  0018B4  0012               	return	
  8615  0018B6                     i2l3542:
  8616                           
  8617                           ;usb_device.c: 2086: if(SetupPkt.bDscIndex<3)
  8618  0018B6  0E03               	movlw	3
  8619  0018B8  010D               	movlb	13	; () banked
  8620  0018BA  6132               	cpfslt	50,b	;volatile
  8621  0018BC  D028               	goto	i2l3548
  8622                           
  8623                           ; BSR set to: 13
  8624                           ;usb_device.c: 2087: {
  8625                           ;usb_device.c: 2089: inPipes[0].pSrc.bRom = *(USB_SD_Ptr+SetupPkt.bDscIndex);
  8626  0018BE  010D               	movlb	13	; () banked
  8627  0018C0  5132               	movf	50,w,b	;volatile
  8628  0018C2  0D02               	mullw	2
  8629  0018C4  0E01               	movlw	low _USB_SD_Ptr
  8630  0018C6  24F3               	addwf	prodl,w,c
  8631  0018C8  6EF6               	movwf	tblptrl,c
  8632  0018CA  0E0F               	movlw	high _USB_SD_Ptr
  8633  0018CC  20F4               	addwfc	prodh,w,c
  8634  0018CE  6EF7               	movwf	tblptrh,c
  8635  0018D0                     	if	1	;There are 3 active tblptr bytes
  8636  0018D0  6AF8               	clrf	tblptru,c
  8637  0018D2  0E00               	movlw	low (__mediumconst shr (0+16))
  8638  0018D4  22F8               	addwfc	tblptru,f,c
  8639  0018D6                     	endif
  8640  0018D6  0009               	tblrd		*+
  8641  0018D8  CFF5 F025          	movff	tablat,_inPipes	;volatile
  8642  0018DC  000A               	tblrd		*-
  8643  0018DE  CFF5 F026          	movff	tablat,_inPipes+1	;volatile
  8644                           
  8645                           ; BSR set to: 13
  8646                           ;usb_device.c: 2091: inPipes[0].wCount.Val = *inPipes[0].pSrc.bRom;
  8647  0018E2  C025  FFF6         	movff	_inPipes,tblptrl	;volatile
  8648  0018E6  C026  FFF7         	movff	_inPipes+1,tblptrh	;volatile
  8649  0018EA  0E00               	movlw	low (__smallconst shr (0+16))
  8650  0018EC  6EF8               	movwf	tblptru,c
  8651  0018EE  0E0E               	movlw	(high __ramtop+-1)
  8652  0018F0  64F7               	cpfsgt	tblptrh,c
  8653  0018F2  D003               	bra	i2u241_47
  8654  0018F4  0008               	tblrd		*
  8655  0018F6  50F5               	movf	tablat,w,c
  8656  0018F8  D005               	bra	i2u241_40
  8657  0018FA                     i2u241_47:
  8658  0018FA  CFF6 FFE9          	movff	tblptrl,fsr0l
  8659  0018FE  CFF7 FFEA          	movff	tblptrh,fsr0h
  8660  001902  50EF               	movf	indf0,w,c
  8661  001904                     i2u241_40:
  8662  001904  6E2D               	movwf	??_USBStdGetDscHandler& (0+255),c
  8663  001906  502D               	movf	??_USBStdGetDscHandler,w,c
  8664  001908  6E29               	movwf	_inPipes+4,c	;volatile
  8665  00190A  6A2A               	clrf	_inPipes+5,c	;volatile
  8666                           
  8667                           ;usb_device.c: 2092: }
  8668  00190C  0012               	return	
  8669  00190E                     i2l3548:
  8670                           
  8671                           ;usb_device.c: 2102: else
  8672                           ;usb_device.c: 2103: {
  8673                           ;usb_device.c: 2104: inPipes[0].info.Val = 0;
  8674  00190E  0E00               	movlw	0
  8675  001910  6E28               	movwf	_inPipes+3,c	;volatile
  8676                           
  8677                           ;usb_device.c: 2105: }
  8678                           ;usb_device.c: 2106: break;
  8679  001912  0012               	return	
  8680  001914                     i2l3550:
  8681                           
  8682                           ;usb_device.c: 2108: inPipes[0].info.Val = 0;
  8683  001914  0E00               	movlw	0
  8684  001916  6E28               	movwf	_inPipes+3,c	;volatile
  8685                           
  8686                           ;usb_device.c: 2110: }
  8687                           
  8688                           ;usb_device.c: 2109: break;
  8689  001918  0012               	return	
  8690  00191A                     i2l3554:
  8691  00191A  010D               	movlb	13	; () banked
  8692  00191C  5133               	movf	51,w,b	;volatile
  8693                           
  8694                           ; Switch size 1, requested type "space"
  8695                           ; Number of cases is 3, Range of values is 1 to 3
  8696                           ; switch strategies available:
  8697                           ; Name         Instructions Cycles
  8698                           ; simple_byte           10     6 (average)
  8699                           ;	Chosen strategy is simple_byte
  8700  00191E  0A01               	xorlw	1	; case 1
  8701  001920  B4D8               	btfsc	status,2,c
  8702  001922  D776               	goto	i2l3528
  8703  001924  0A03               	xorlw	3	; case 2
  8704  001926  B4D8               	btfsc	status,2,c
  8705  001928  D77C               	goto	i2l3532
  8706  00192A  0A01               	xorlw	1	; case 3
  8707  00192C  B4D8               	btfsc	status,2,c
  8708  00192E  D7C3               	goto	i2l3542
  8709  001930  D7F1               	goto	i2l3550
  8710                           
  8711                           ; BSR set to: 13
  8712  001932  0012               	return	
  8713                           
  8714                           ; BSR set to: 13
  8715  001934  0012               	return		;funcret
  8716  001936                     __end_of_USBStdGetDscHandler:
  8717                           	opt stack 0
  8718                           pclatu	equ	0xFFB
  8719                           pclath	equ	0xFFA
  8720                           tblptru	equ	0xFF8
  8721                           tblptrh	equ	0xFF7
  8722                           tblptrl	equ	0xFF6
  8723                           tablat	equ	0xFF5
  8724                           prodh	equ	0xFF4
  8725                           prodl	equ	0xFF3
  8726                           intcon	equ	0xFF2
  8727                           intcon2	equ	0xFF1
  8728                           indf0	equ	0xFEF
  8729                           postinc0	equ	0xFEE
  8730                           fsr0h	equ	0xFEA
  8731                           fsr0l	equ	0xFE9
  8732                           wreg	equ	0xFE8
  8733                           indf1	equ	0xFE7
  8734                           postinc1	equ	0xFE6
  8735                           postdec1	equ	0xFE5
  8736                           fsr1h	equ	0xFE2
  8737                           fsr1l	equ	0xFE1
  8738                           indf2	equ	0xFDF
  8739                           postinc2	equ	0xFDE
  8740                           postdec2	equ	0xFDD
  8741                           plusw2	equ	0xFDB
  8742                           fsr2h	equ	0xFDA
  8743                           fsr2l	equ	0xFD9
  8744                           status	equ	0xFD8
  8745                           
  8746 ;; *************** function _USBStdFeatureReqHandler *****************
  8747 ;; Defined at:
  8748 ;;		line 2757 in file "../My_header/usb_cdc/usb/usb_device.c"
  8749 ;; Parameters:    Size  Location     Type
  8750 ;;		None
  8751 ;; Auto vars:     Size  Location     Type
  8752 ;;  p               2   24[COMRAM] PTR struct __BDT
  8753 ;;		 -> NULL(0), BDT(48), 
  8754 ;;  pUEP            2   21[COMRAM] PTR unsigned char 
  8755 ;;		 -> UEP0(1), 
  8756 ;;  current_ep_d    1   23[COMRAM] struct .
  8757 ;; Return value:  Size  Location     Type
  8758 ;;		None               void
  8759 ;; Registers used:
  8760 ;;		wreg, fsr2l, fsr2h, status,2, status,0, prodl, prodh, cstack
  8761 ;; Tracked objects:
  8762 ;;		On entry : 0/0
  8763 ;;		On exit  : 0/0
  8764 ;;		Unchanged: 0/0
  8765 ;; Data sizes:     COMRAM   BANK0   BANK1   BANK2   BANK3   BANK4   BANK5   BANK6   BANK7   BANK8   BANK9  BANK10  BANK1
      +1  BANK12  BANK13  BANK14
  8766 ;;      Params:         0       0       0       0       0       0       0       0       0       0       0       0       
      +0       0       0       0
  8767 ;;      Locals:         5       0       0       0       0       0       0       0       0       0       0       0       
      +0       0       0       0
  8768 ;;      Temps:          1       0       0       0       0       0       0       0       0       0       0       0       
      +0       0       0       0
  8769 ;;      Totals:         6       0       0       0       0       0       0       0       0       0       0       0       
      +0       0       0       0
  8770 ;;Total ram usage:        6 bytes
  8771 ;; Hardware stack levels used:    1
  8772 ;; Hardware stack levels required when called:    4
  8773 ;; This function calls:
  8774 ;;		_USER_USB_CALLBACK_EVENT_HANDLER
  8775 ;; This function is called by:
  8776 ;;		_USBCheckStdRequest
  8777 ;; This function uses a non-reentrant model
  8778 ;;
  8779                           
  8780                           	psect	text49
  8781  000FDC                     __ptext49:
  8782                           	opt stack 0
  8783  000FDC                     _USBStdFeatureReqHandler:
  8784                           	opt stack 14
  8785                           
  8786                           ;usb_device.c: 2759: BDT_ENTRY *p;
  8787                           ;usb_device.c: 2760: EP_STATUS current_ep_data;
  8788                           ;usb_device.c: 2764: unsigned char* pUEP;
  8789                           ;usb_device.c: 2802: if((SetupPkt.bFeature == 1)&&
  8790                           ;usb_device.c: 2803: (SetupPkt.Recipient == (0x00)))
  8791                           
  8792                           ;incstack = 0
  8793  000FDC  010D               	movlb	13	; () banked
  8794  000FDE  0532               	decf	50,w,b	;volatile
  8795  000FE0  A4D8               	btfss	status,2,c
  8796  000FE2  D011               	goto	i2l360
  8797                           
  8798                           ; BSR set to: 13
  8799  000FE4  010D               	movlb	13	; () banked
  8800  000FE6  5130               	movf	48,w,b	;volatile
  8801  000FE8  0B1F               	andlw	31
  8802  000FEA  0900               	iorlw	0
  8803  000FEC  A4D8               	btfss	status,2,c
  8804  000FEE  D00B               	goto	i2l360
  8805                           
  8806                           ; BSR set to: 13
  8807                           ;usb_device.c: 2804: {
  8808                           ;usb_device.c: 2805: inPipes[0].info.bits.busy = 1;
  8809  000FF0  8E28               	bsf	_inPipes+3,7,c	;volatile
  8810                           
  8811                           ; BSR set to: 13
  8812                           ;usb_device.c: 2806: if(SetupPkt.bRequest == 3)
  8813  000FF2  0E03               	movlw	3
  8814  000FF4  010D               	movlb	13	; () banked
  8815  000FF6  1931               	xorwf	49,w,b	;volatile
  8816  000FF8  A4D8               	btfss	status,2,c
  8817  000FFA  D002               	goto	i2l3594
  8818                           
  8819                           ; BSR set to: 13
  8820                           ;usb_device.c: 2807: RemoteWakeup = 1;
  8821  000FFC  0E01               	movlw	1
  8822  000FFE  D001               	goto	L6
  8823  001000                     i2l3594:
  8824                           
  8825                           ; BSR set to: 13
  8826                           ;usb_device.c: 2808: else
  8827                           ;usb_device.c: 2809: RemoteWakeup = 0;
  8828  001000  0E00               	movlw	0
  8829  001002                     L6:
  8830  001002  6E18               	movwf	_RemoteWakeup,c	;volatile
  8831  001004  D000               	goto	i2l360
  8832  001006                     i2l360:
  8833                           
  8834                           ; BSR set to: 13
  8835                           ;usb_device.c: 2810: }
  8836                           ;usb_device.c: 2813: if((SetupPkt.bFeature == 0)&&
  8837                           ;usb_device.c: 2814: (SetupPkt.Recipient == (0x02))&&
  8838                           ;usb_device.c: 2815: (SetupPkt.EPNum != 0) && (SetupPkt.EPNum <= 2)&&
  8839                           ;usb_device.c: 2816: (USBDeviceState == CONFIGURED_STATE))
  8840  001006  010D               	movlb	13	; () banked
  8841  001008  5132               	movf	50,w,b	;volatile
  8842  00100A  A4D8               	btfss	status,2,c
  8843  00100C  0012               	return	
  8844                           
  8845                           ; BSR set to: 13
  8846  00100E  010D               	movlb	13	; () banked
  8847  001010  5130               	movf	48,w,b	;volatile
  8848  001012  0B1F               	andlw	31
  8849  001014  0A02               	xorlw	2
  8850  001016  A4D8               	btfss	status,2,c
  8851  001018  0012               	return	
  8852                           
  8853                           ; BSR set to: 13
  8854  00101A  010D               	movlb	13	; () banked
  8855  00101C  5134               	movf	52,w,b	;volatile
  8856  00101E  0B0F               	andlw	15
  8857  001020  0900               	iorlw	0
  8858  001022  B4D8               	btfsc	status,2,c
  8859  001024  0012               	return	
  8860                           
  8861                           ; BSR set to: 13
  8862  001026  010D               	movlb	13	; () banked
  8863  001028  5134               	movf	52,w,b	;volatile
  8864  00102A  0B0F               	andlw	15
  8865  00102C  6E41               	movwf	??_USBStdFeatureReqHandler& (0+255),c
  8866  00102E  0E03               	movlw	3
  8867  001030  6041               	cpfslt	??_USBStdFeatureReqHandler,c
  8868  001032  0012               	return	
  8869                           
  8870                           ; BSR set to: 13
  8871  001034  0E20               	movlw	32
  8872  001036  181D               	xorwf	_USBDeviceState,w,c	;volatile
  8873  001038  A4D8               	btfss	status,2,c
  8874  00103A  0012               	return	
  8875                           
  8876                           ; BSR set to: 13
  8877                           ;usb_device.c: 2817: {
  8878                           ;usb_device.c: 2820: inPipes[0].info.bits.busy = 1;
  8879  00103C  8E28               	bsf	_inPipes+3,7,c	;volatile
  8880                           
  8881                           ;usb_device.c: 2823: if(SetupPkt.EPDir == 0)
  8882  00103E  010D               	movlb	13	; () banked
  8883  001040  BF34               	btfsc	52,7,b	;volatile
  8884  001042  D01B               	goto	i2l3608
  8885                           
  8886                           ; BSR set to: 13
  8887                           ;usb_device.c: 2824: {
  8888                           ;usb_device.c: 2825: p = (BDT_ENTRY*)pBDTEntryOut[SetupPkt.EPNum];
  8889  001044  010D               	movlb	13	; () banked
  8890  001046  5134               	movf	52,w,b	;volatile
  8891  001048  0B0F               	andlw	15
  8892  00104A  6E41               	movwf	??_USBStdFeatureReqHandler& (0+255),c
  8893  00104C  5041               	movf	??_USBStdFeatureReqHandler,w,c
  8894  00104E  0D02               	mullw	2
  8895  001050  0E6A               	movlw	low _pBDTEntryOut
  8896  001052  24F3               	addwf	prodl,w,c
  8897  001054  6ED9               	movwf	fsr2l,c
  8898  001056  0E00               	movlw	high _pBDTEntryOut
  8899  001058  20F4               	addwfc	prodh,w,c
  8900  00105A  6EDA               	movwf	fsr2h,c
  8901  00105C  CFDE F045          	movff	postinc2,USBStdFeatureReqHandler@p
  8902  001060  CFDD F046          	movff	postdec2,USBStdFeatureReqHandler@p+1
  8903                           
  8904                           ;usb_device.c: 2826: current_ep_data.Val = ep_data_out[SetupPkt.EPNum].Val;
  8905  001064  010D               	movlb	13	; () banked
  8906  001066  5134               	movf	52,w,b	;volatile
  8907  001068  0B0F               	andlw	15
  8908  00106A  6E41               	movwf	??_USBStdFeatureReqHandler& (0+255),c
  8909  00106C  5041               	movf	??_USBStdFeatureReqHandler,w,c
  8910  00106E  0D01               	mullw	1
  8911  001070  0E77               	movlw	low _ep_data_out
  8912  001072  24F3               	addwf	prodl,w,c
  8913  001074  6ED9               	movwf	fsr2l,c
  8914  001076  0E00               	movlw	high _ep_data_out
  8915  001078  D01A               	goto	L7
  8916  00107A                     i2l3608:
  8917                           
  8918                           ; BSR set to: 13
  8919                           ;usb_device.c: 2828: else
  8920                           ;usb_device.c: 2829: {
  8921                           ;usb_device.c: 2830: p = (BDT_ENTRY*)pBDTEntryIn[SetupPkt.EPNum];
  8922  00107A  010D               	movlb	13	; () banked
  8923  00107C  5134               	movf	52,w,b	;volatile
  8924  00107E  0B0F               	andlw	15
  8925  001080  6E41               	movwf	??_USBStdFeatureReqHandler& (0+255),c
  8926  001082  5041               	movf	??_USBStdFeatureReqHandler,w,c
  8927  001084  0D02               	mullw	2
  8928  001086  0E0A               	movlw	low _pBDTEntryIn
  8929  001088  24F3               	addwf	prodl,w,c
  8930  00108A  6ED9               	movwf	fsr2l,c
  8931  00108C  0E00               	movlw	high _pBDTEntryIn
  8932  00108E  20F4               	addwfc	prodh,w,c
  8933  001090  6EDA               	movwf	fsr2h,c
  8934  001092  CFDE F045          	movff	postinc2,USBStdFeatureReqHandler@p
  8935  001096  CFDD F046          	movff	postdec2,USBStdFeatureReqHandler@p+1
  8936                           
  8937                           ;usb_device.c: 2831: current_ep_data.Val = ep_data_in[SetupPkt.EPNum].Val;
  8938  00109A  010D               	movlb	13	; () banked
  8939  00109C  5134               	movf	52,w,b	;volatile
  8940  00109E  0B0F               	andlw	15
  8941  0010A0  6E41               	movwf	??_USBStdFeatureReqHandler& (0+255),c
  8942  0010A2  5041               	movf	??_USBStdFeatureReqHandler,w,c
  8943  0010A4  0D01               	mullw	1
  8944  0010A6  0E10               	movlw	low _ep_data_in
  8945  0010A8  24F3               	addwf	prodl,w,c
  8946  0010AA  6ED9               	movwf	fsr2l,c
  8947  0010AC  0E00               	movlw	high _ep_data_in
  8948  0010AE                     L7:
  8949  0010AE  20F4               	addwfc	prodh,w,c
  8950  0010B0  6EDA               	movwf	fsr2h,c
  8951  0010B2  50DF               	movf	indf2,w,c
  8952  0010B4  6E44               	movwf	USBStdFeatureReqHandler@current_ep_data,c
  8953  0010B6  D000               	goto	i2l3610
  8954  0010B8                     i2l3610:
  8955                           
  8956                           ; BSR set to: 13
  8957                           ;usb_device.c: 2832: }
  8958                           ;usb_device.c: 2838: if(current_ep_data.bits.ping_pong_state == 0)
  8959  0010B8  B044               	btfsc	USBStdFeatureReqHandler@current_ep_data,0,c
  8960  0010BA  D002               	goto	i2l3614
  8961                           
  8962                           ; BSR set to: 13
  8963                           ;usb_device.c: 2839: {
  8964                           ;usb_device.c: 2840: {((uint8_t_VAL*)&p)->Val &= ~0x0004;};
  8965  0010BC  9445               	bcf	USBStdFeatureReqHandler@p,2,c
  8966                           
  8967                           ;usb_device.c: 2841: }
  8968  0010BE  D002               	goto	i2l3616
  8969  0010C0                     i2l3614:
  8970                           
  8971                           ; BSR set to: 13
  8972                           ;usb_device.c: 2842: else
  8973                           ;usb_device.c: 2843: {
  8974                           ;usb_device.c: 2844: {((uint8_t_VAL*)&p)->Val |= 0x0004;};
  8975  0010C0  8445               	bsf	USBStdFeatureReqHandler@p,2,c
  8976  0010C2  D000               	goto	i2l3616
  8977  0010C4                     i2l3616:
  8978                           
  8979                           ; BSR set to: 13
  8980                           ;usb_device.c: 2845: }
  8981                           ;usb_device.c: 2850: if(SetupPkt.EPDir == 0)
  8982  0010C4  010D               	movlb	13	; () banked
  8983  0010C6  BF34               	btfsc	52,7,b	;volatile
  8984  0010C8  D00B               	goto	i2l3620
  8985                           
  8986                           ; BSR set to: 13
  8987                           ;usb_device.c: 2851: {
  8988                           ;usb_device.c: 2852: pBDTEntryOut[SetupPkt.EPNum] = (volatile BDT_ENTRY *)p;
  8989  0010CA  010D               	movlb	13	; () banked
  8990  0010CC  5134               	movf	52,w,b	;volatile
  8991  0010CE  0B0F               	andlw	15
  8992  0010D0  6E41               	movwf	??_USBStdFeatureReqHandler& (0+255),c
  8993  0010D2  5041               	movf	??_USBStdFeatureReqHandler,w,c
  8994  0010D4  0D02               	mullw	2
  8995  0010D6  0E6A               	movlw	low _pBDTEntryOut
  8996  0010D8  24F3               	addwf	prodl,w,c
  8997  0010DA  6ED9               	movwf	fsr2l,c
  8998  0010DC  0E00               	movlw	high _pBDTEntryOut
  8999  0010DE  D00A               	goto	L8
  9000  0010E0                     i2l3620:
  9001                           
  9002                           ; BSR set to: 13
  9003                           ;usb_device.c: 2854: else
  9004                           ;usb_device.c: 2855: {
  9005                           ;usb_device.c: 2856: pBDTEntryIn[SetupPkt.EPNum] = (volatile BDT_ENTRY *)p;
  9006  0010E0  010D               	movlb	13	; () banked
  9007  0010E2  5134               	movf	52,w,b	;volatile
  9008  0010E4  0B0F               	andlw	15
  9009  0010E6  6E41               	movwf	??_USBStdFeatureReqHandler& (0+255),c
  9010  0010E8  5041               	movf	??_USBStdFeatureReqHandler,w,c
  9011  0010EA  0D02               	mullw	2
  9012  0010EC  0E0A               	movlw	low _pBDTEntryIn
  9013  0010EE  24F3               	addwf	prodl,w,c
  9014  0010F0  6ED9               	movwf	fsr2l,c
  9015  0010F2  0E00               	movlw	high _pBDTEntryIn
  9016  0010F4                     L8:
  9017  0010F4  20F4               	addwfc	prodh,w,c
  9018  0010F6  6EDA               	movwf	fsr2h,c
  9019  0010F8  C045  FFDE         	movff	USBStdFeatureReqHandler@p,postinc2
  9020  0010FC  C046  FFDD         	movff	USBStdFeatureReqHandler@p+1,postdec2
  9021  001100  D000               	goto	i2l3622
  9022  001102                     i2l3622:
  9023                           
  9024                           ; BSR set to: 13
  9025                           ;usb_device.c: 2857: }
  9026                           ;usb_device.c: 2860: if(SetupPkt.bRequest == 3)
  9027  001102  0E03               	movlw	3
  9028  001104  010D               	movlb	13	; () banked
  9029  001106  1931               	xorwf	49,w,b	;volatile
  9030  001108  A4D8               	btfss	status,2,c
  9031  00110A  D032               	goto	i2l3636
  9032                           
  9033                           ; BSR set to: 13
  9034                           ;usb_device.c: 2861: {
  9035                           ;usb_device.c: 2862: if(p->STAT.UOWN == 1)
  9036  00110C  C045  FFD9         	movff	USBStdFeatureReqHandler@p,fsr2l
  9037  001110  C046  FFDA         	movff	USBStdFeatureReqHandler@p+1,fsr2h
  9038  001114  AEDF               	btfss	indf2,7,c
  9039  001116  D01F               	goto	i2l3632
  9040                           
  9041                           ; BSR set to: 13
  9042                           ;usb_device.c: 2863: {
  9043                           ;usb_device.c: 2866: if(SetupPkt.EPDir == 0)
  9044  001118  010D               	movlb	13	; () banked
  9045  00111A  BF34               	btfsc	52,7,b	;volatile
  9046  00111C  D00E               	goto	i2l3630
  9047                           
  9048                           ; BSR set to: 13
  9049                           ;usb_device.c: 2867: {
  9050                           ;usb_device.c: 2868: ep_data_out[SetupPkt.EPNum].bits.transfer_terminated = 1;
  9051  00111E  010D               	movlb	13	; () banked
  9052  001120  5134               	movf	52,w,b	;volatile
  9053  001122  0B0F               	andlw	15
  9054  001124  6E41               	movwf	??_USBStdFeatureReqHandler& (0+255),c
  9055  001126  5041               	movf	??_USBStdFeatureReqHandler,w,c
  9056  001128  0D01               	mullw	1
  9057  00112A  0E77               	movlw	low _ep_data_out
  9058  00112C  24F3               	addwf	prodl,w,c
  9059  00112E  6ED9               	movwf	fsr2l,c
  9060  001130  0E00               	movlw	high _ep_data_out
  9061  001132  20F4               	addwfc	prodh,w,c
  9062  001134  6EDA               	movwf	fsr2h,c
  9063  001136  0100               	movlb	0	; () banked
  9064  001138  D00C               	goto	L9
  9065  00113A                     i2l3630:
  9066                           
  9067                           ;usb_device.c: 2870: else
  9068                           ;usb_device.c: 2871: {
  9069                           ;usb_device.c: 2872: ep_data_in[SetupPkt.EPNum].bits.transfer_terminated = 1;
  9070  00113A  010D               	movlb	13	; () banked
  9071  00113C  5134               	movf	52,w,b	;volatile
  9072  00113E  0B0F               	andlw	15
  9073  001140  6E41               	movwf	??_USBStdFeatureReqHandler& (0+255),c
  9074  001142  5041               	movf	??_USBStdFeatureReqHandler,w,c
  9075  001144  0D01               	mullw	1
  9076  001146  0E10               	movlw	low _ep_data_in
  9077  001148  24F3               	addwf	prodl,w,c
  9078  00114A  6ED9               	movwf	fsr2l,c
  9079  00114C  0E00               	movlw	high _ep_data_in
  9080  00114E  20F4               	addwfc	prodh,w,c
  9081  001150  6EDA               	movwf	fsr2h,c
  9082  001152                     L9:
  9083  001152  82DF               	bsf	indf2,1,c
  9084                           
  9085                           ; BSR set to: 13
  9086  001154  D000               	goto	i2l3632
  9087  001156                     i2l3632:
  9088                           
  9089                           ;usb_device.c: 2873: }
  9090                           ;usb_device.c: 2874: }
  9091                           ;usb_device.c: 2877: p->STAT.Val |= 0x04;
  9092  001156  C045  FFD9         	movff	USBStdFeatureReqHandler@p,fsr2l
  9093  00115A  C046  FFDA         	movff	USBStdFeatureReqHandler@p+1,fsr2h
  9094  00115E  0E00               	movlw	0
  9095  001160  84DB               	bsf	plusw2,2,c
  9096                           
  9097                           ;usb_device.c: 2878: p->STAT.Val |= 0x80;
  9098  001162  C045  FFD9         	movff	USBStdFeatureReqHandler@p,fsr2l
  9099  001166  C046  FFDA         	movff	USBStdFeatureReqHandler@p+1,fsr2h
  9100  00116A  0E00               	movlw	0
  9101  00116C  8EDB               	bsf	plusw2,7,c
  9102                           
  9103                           ;usb_device.c: 2879: }
  9104  00116E  0012               	return	
  9105  001170                     i2l3636:
  9106                           
  9107                           ;usb_device.c: 2880: else
  9108                           ;usb_device.c: 2881: {
  9109                           ;usb_device.c: 2885: {((uint8_t_VAL*)&p)->Val ^= 0x0004;};
  9110  001170  0E04               	movlw	4
  9111  001172  1A45               	xorwf	USBStdFeatureReqHandler@p,f,c
  9112                           
  9113                           ;usb_device.c: 2887: if(p->STAT.UOWN == 1)
  9114  001174  C045  FFD9         	movff	USBStdFeatureReqHandler@p,fsr2l
  9115  001178  C046  FFDA         	movff	USBStdFeatureReqHandler@p+1,fsr2h
  9116  00117C  AEDF               	btfss	indf2,7,c
  9117  00117E  D01B               	goto	i2l3646
  9118                           
  9119                           ;usb_device.c: 2888: {
  9120                           ;usb_device.c: 2891: p->STAT.Val &= (~0x80);
  9121  001180  C045  FFD9         	movff	USBStdFeatureReqHandler@p,fsr2l
  9122  001184  C046  FFDA         	movff	USBStdFeatureReqHandler@p+1,fsr2h
  9123  001188  0E7F               	movlw	127
  9124  00118A  16DF               	andwf	indf2,f,c
  9125                           
  9126                           ;usb_device.c: 2892: p->STAT.Val |= 0x40;
  9127  00118C  C045  FFD9         	movff	USBStdFeatureReqHandler@p,fsr2l
  9128  001190  C046  FFDA         	movff	USBStdFeatureReqHandler@p+1,fsr2h
  9129  001194  0E00               	movlw	0
  9130  001196  8CDB               	bsf	plusw2,6,c
  9131                           
  9132                           ;usb_device.c: 2893: USER_USB_CALLBACK_EVENT_HANDLER(EVENT_TRANSFER_TERMINATED,p,sizeof(
      +                          p));
  9133  001198  0E00               	movlw	0
  9134  00119A  6E3A               	movwf	USER_USB_CALLBACK_EVENT_HANDLER@event+1,c
  9135  00119C  0E05               	movlw	5
  9136  00119E  6E39               	movwf	USER_USB_CALLBACK_EVENT_HANDLER@event,c
  9137  0011A0  C045  F03B         	movff	USBStdFeatureReqHandler@p,USER_USB_CALLBACK_EVENT_HANDLER@pdata
  9138  0011A4  C046  F03C         	movff	USBStdFeatureReqHandler@p+1,USER_USB_CALLBACK_EVENT_HANDLER@pdata+1
  9139  0011A8  0E00               	movlw	0
  9140  0011AA  6E3E               	movwf	USER_USB_CALLBACK_EVENT_HANDLER@size+1,c
  9141  0011AC  0E02               	movlw	2
  9142  0011AE  6E3D               	movwf	USER_USB_CALLBACK_EVENT_HANDLER@size,c
  9143  0011B0  ECA4  F017         	call	_USER_USB_CALLBACK_EVENT_HANDLER	;wreg free
  9144                           
  9145                           ;usb_device.c: 2894: }
  9146  0011B4  D007               	goto	i2l3648
  9147  0011B6                     i2l3646:
  9148                           
  9149                           ;usb_device.c: 2895: else
  9150                           ;usb_device.c: 2896: {
  9151                           ;usb_device.c: 2898: p->STAT.Val |= 0x40;
  9152  0011B6  C045  FFD9         	movff	USBStdFeatureReqHandler@p,fsr2l
  9153  0011BA  C046  FFDA         	movff	USBStdFeatureReqHandler@p+1,fsr2h
  9154  0011BE  0E00               	movlw	0
  9155  0011C0  8CDB               	bsf	plusw2,6,c
  9156  0011C2  D000               	goto	i2l3648
  9157  0011C4                     i2l3648:
  9158                           
  9159                           ;usb_device.c: 2899: }
  9160                           ;usb_device.c: 2903: {((uint8_t_VAL*)&p)->Val ^= 0x0004;};
  9161  0011C4  0E04               	movlw	4
  9162  0011C6  1A45               	xorwf	USBStdFeatureReqHandler@p,f,c
  9163                           
  9164                           ;usb_device.c: 2909: if((current_ep_data.bits.transfer_terminated != 0) || (p->STAT.UOWN
      +                           == 1))
  9165  0011C8  B244               	btfsc	USBStdFeatureReqHandler@current_ep_data,1,c
  9166  0011CA  D006               	goto	i2l379
  9167  0011CC  C045  FFD9         	movff	USBStdFeatureReqHandler@p,fsr2l
  9168  0011D0  C046  FFDA         	movff	USBStdFeatureReqHandler@p+1,fsr2h
  9169  0011D4  AEDF               	btfss	indf2,7,c
  9170  0011D6  D034               	goto	i2l3662
  9171  0011D8                     i2l379:
  9172                           
  9173                           ;usb_device.c: 2910: {
  9174                           ;usb_device.c: 2911: if(SetupPkt.EPDir == 0)
  9175  0011D8  010D               	movlb	13	; () banked
  9176  0011DA  BF34               	btfsc	52,7,b	;volatile
  9177  0011DC  D00E               	goto	i2l3656
  9178                           
  9179                           ; BSR set to: 13
  9180                           ;usb_device.c: 2912: {
  9181                           ;usb_device.c: 2913: ep_data_out[SetupPkt.EPNum].bits.transfer_terminated = 0;
  9182  0011DE  010D               	movlb	13	; () banked
  9183  0011E0  5134               	movf	52,w,b	;volatile
  9184  0011E2  0B0F               	andlw	15
  9185  0011E4  6E41               	movwf	??_USBStdFeatureReqHandler& (0+255),c
  9186  0011E6  5041               	movf	??_USBStdFeatureReqHandler,w,c
  9187  0011E8  0D01               	mullw	1
  9188  0011EA  0E77               	movlw	low _ep_data_out
  9189  0011EC  24F3               	addwf	prodl,w,c
  9190  0011EE  6ED9               	movwf	fsr2l,c
  9191  0011F0  0E00               	movlw	high _ep_data_out
  9192  0011F2  20F4               	addwfc	prodh,w,c
  9193  0011F4  6EDA               	movwf	fsr2h,c
  9194  0011F6  0100               	movlb	0	; () banked
  9195  0011F8  D00C               	goto	L10
  9196  0011FA                     i2l3656:
  9197                           
  9198                           ;usb_device.c: 2915: else
  9199                           ;usb_device.c: 2916: {
  9200                           ;usb_device.c: 2917: ep_data_in[SetupPkt.EPNum].bits.transfer_terminated = 0;
  9201  0011FA  010D               	movlb	13	; () banked
  9202  0011FC  5134               	movf	52,w,b	;volatile
  9203  0011FE  0B0F               	andlw	15
  9204  001200  6E41               	movwf	??_USBStdFeatureReqHandler& (0+255),c
  9205  001202  5041               	movf	??_USBStdFeatureReqHandler,w,c
  9206  001204  0D01               	mullw	1
  9207  001206  0E10               	movlw	low _ep_data_in
  9208  001208  24F3               	addwf	prodl,w,c
  9209  00120A  6ED9               	movwf	fsr2l,c
  9210  00120C  0E00               	movlw	high _ep_data_in
  9211  00120E  20F4               	addwfc	prodh,w,c
  9212  001210  6EDA               	movwf	fsr2h,c
  9213  001212                     L10:
  9214  001212  92DF               	bcf	indf2,1,c
  9215  001214  D000               	goto	i2l3658
  9216  001216                     i2l3658:
  9217                           
  9218                           ;usb_device.c: 2918: }
  9219                           ;usb_device.c: 2920: p->STAT.Val &= ~(0x80 | 0x40 | 0x04);
  9220  001216  C045  FFD9         	movff	USBStdFeatureReqHandler@p,fsr2l
  9221  00121A  C046  FFDA         	movff	USBStdFeatureReqHandler@p+1,fsr2h
  9222  00121E  0E3B               	movlw	59
  9223  001220  16DF               	andwf	indf2,f,c
  9224                           
  9225                           ;usb_device.c: 2923: USER_USB_CALLBACK_EVENT_HANDLER(EVENT_TRANSFER_TERMINATED,p,sizeof(
      +                          p));
  9226  001222  0E00               	movlw	0
  9227  001224  6E3A               	movwf	USER_USB_CALLBACK_EVENT_HANDLER@event+1,c
  9228  001226  0E05               	movlw	5
  9229  001228  6E39               	movwf	USER_USB_CALLBACK_EVENT_HANDLER@event,c
  9230  00122A  C045  F03B         	movff	USBStdFeatureReqHandler@p,USER_USB_CALLBACK_EVENT_HANDLER@pdata
  9231  00122E  C046  F03C         	movff	USBStdFeatureReqHandler@p+1,USER_USB_CALLBACK_EVENT_HANDLER@pdata+1
  9232  001232  0E00               	movlw	0
  9233  001234  6E3E               	movwf	USER_USB_CALLBACK_EVENT_HANDLER@size+1,c
  9234  001236  0E02               	movlw	2
  9235  001238  6E3D               	movwf	USER_USB_CALLBACK_EVENT_HANDLER@size,c
  9236  00123A  ECA4  F017         	call	_USER_USB_CALLBACK_EVENT_HANDLER	;wreg free
  9237                           
  9238                           ;usb_device.c: 2924: }
  9239  00123E  D007               	goto	i2l3664
  9240  001240                     i2l3662:
  9241                           
  9242                           ;usb_device.c: 2925: else
  9243                           ;usb_device.c: 2926: {
  9244                           ;usb_device.c: 2928: p->STAT.Val &= ~(0x80 | 0x40 | 0x04);
  9245  001240  C045  FFD9         	movff	USBStdFeatureReqHandler@p,fsr2l
  9246  001244  C046  FFDA         	movff	USBStdFeatureReqHandler@p+1,fsr2h
  9247  001248  0E3B               	movlw	59
  9248  00124A  16DF               	andwf	indf2,f,c
  9249  00124C  D000               	goto	i2l3664
  9250  00124E                     i2l3664:
  9251                           
  9252                           ;usb_device.c: 2929: }
  9253                           ;usb_device.c: 2976: pUEP = (unsigned char*)(&UEP0+SetupPkt.EPNum);
  9254  00124E  010D               	movlb	13	; () banked
  9255  001250  5134               	movf	52,w,b	;volatile
  9256  001252  0B0F               	andlw	15
  9257  001254  6E41               	movwf	??_USBStdFeatureReqHandler& (0+255),c
  9258  001256  5041               	movf	??_USBStdFeatureReqHandler,w,c
  9259  001258  0D01               	mullw	1
  9260  00125A  0E26               	movlw	38
  9261  00125C  24F3               	addwf	prodl,w,c
  9262  00125E  6E42               	movwf	USBStdFeatureReqHandler@pUEP,c
  9263  001260  0E0F               	movlw	15
  9264  001262  20F4               	addwfc	prodh,w,c
  9265  001264  6E43               	movwf	USBStdFeatureReqHandler@pUEP+1,c
  9266                           
  9267                           ; BSR set to: 13
  9268                           ;usb_device.c: 2980: *pUEP &= ~0x0001;
  9269  001266  C042  FFD9         	movff	USBStdFeatureReqHandler@pUEP,fsr2l
  9270  00126A  C043  FFDA         	movff	USBStdFeatureReqHandler@pUEP+1,fsr2h
  9271  00126E  0EFE               	movlw	254
  9272  001270  16DF               	andwf	indf2,f,c
  9273                           
  9274                           ; BSR set to: 13
  9275  001272  0012               	return	
  9276                           
  9277                           ; BSR set to: 13
  9278  001274  0012               	return		;funcret
  9279  001276                     __end_of_USBStdFeatureReqHandler:
  9280                           	opt stack 0
  9281                           pclatu	equ	0xFFB
  9282                           pclath	equ	0xFFA
  9283                           tblptru	equ	0xFF8
  9284                           tblptrh	equ	0xFF7
  9285                           tblptrl	equ	0xFF6
  9286                           tablat	equ	0xFF5
  9287                           prodh	equ	0xFF4
  9288                           prodl	equ	0xFF3
  9289                           intcon	equ	0xFF2
  9290                           intcon2	equ	0xFF1
  9291                           indf0	equ	0xFEF
  9292                           postinc0	equ	0xFEE
  9293                           fsr0h	equ	0xFEA
  9294                           fsr0l	equ	0xFE9
  9295                           wreg	equ	0xFE8
  9296                           indf1	equ	0xFE7
  9297                           postinc1	equ	0xFE6
  9298                           postdec1	equ	0xFE5
  9299                           fsr1h	equ	0xFE2
  9300                           fsr1l	equ	0xFE1
  9301                           indf2	equ	0xFDF
  9302                           postinc2	equ	0xFDE
  9303                           postdec2	equ	0xFDD
  9304                           plusw2	equ	0xFDB
  9305                           fsr2h	equ	0xFDA
  9306                           fsr2l	equ	0xFD9
  9307                           status	equ	0xFD8
  9308                           
  9309 ;; *************** function _USER_USB_CALLBACK_EVENT_HANDLER *****************
  9310 ;; Defined at:
  9311 ;;		line 39 in file "../My_header/usb_cdc/my_usb_cdc.c"
  9312 ;; Parameters:    Size  Location     Type
  9313 ;;  event           2   12[COMRAM] enum E9723
  9314 ;;  pdata           2   14[COMRAM] PTR void 
  9315 ;;		 -> USTATcopy(1), USBActiveConfiguration(1), NULL(0), BDT(48), 
  9316 ;;  size            2   16[COMRAM] unsigned int 
  9317 ;; Auto vars:     Size  Location     Type
  9318 ;;		None
  9319 ;; Return value:  Size  Location     Type
  9320 ;;                  1    wreg      unsigned char 
  9321 ;; Registers used:
  9322 ;;		wreg, fsr2l, fsr2h, status,2, status,0, prodl, prodh, cstack
  9323 ;; Tracked objects:
  9324 ;;		On entry : 0/0
  9325 ;;		On exit  : 0/0
  9326 ;;		Unchanged: 0/0
  9327 ;; Data sizes:     COMRAM   BANK0   BANK1   BANK2   BANK3   BANK4   BANK5   BANK6   BANK7   BANK8   BANK9  BANK10  BANK1
      +1  BANK12  BANK13  BANK14
  9328 ;;      Params:         6       0       0       0       0       0       0       0       0       0       0       0       
      +0       0       0       0
  9329 ;;      Locals:         0       0       0       0       0       0       0       0       0       0       0       0       
      +0       0       0       0
  9330 ;;      Temps:          2       0       0       0       0       0       0       0       0       0       0       0       
      +0       0       0       0
  9331 ;;      Totals:         8       0       0       0       0       0       0       0       0       0       0       0       
      +0       0       0       0
  9332 ;;Total ram usage:        8 bytes
  9333 ;; Hardware stack levels used:    1
  9334 ;; Hardware stack levels required when called:    3
  9335 ;; This function calls:
  9336 ;;		_CDCInitEP
  9337 ;;		_USBCheckCDCRequest
  9338 ;; This function is called by:
  9339 ;;		_USBDeviceTasks
  9340 ;;		_USBStdSetCfgHandler
  9341 ;;		_USBSuspend
  9342 ;;		_USBWakeFromSuspend
  9343 ;;		_USBCtrlTrfSetupHandler
  9344 ;;		_USBCheckStdRequest
  9345 ;;		_USBStdFeatureReqHandler
  9346 ;; This function uses a non-reentrant model
  9347 ;;
  9348                           
  9349                           	psect	text50
  9350  002F48                     __ptext50:
  9351                           	opt stack 0
  9352  002F48                     _USER_USB_CALLBACK_EVENT_HANDLER:
  9353                           	opt stack 18
  9354                           
  9355                           ;my_usb_cdc.c: 40: switch ((int) event) {
  9356                           
  9357                           ;incstack = 0
  9358  002F48  D006               	goto	i2l3372
  9359  002F4A                     i2l3366:
  9360                           
  9361                           ;my_usb_cdc.c: 42: CDCInitEP();
  9362  002F4A  EC5F  F015         	call	_CDCInitEP	;wreg free
  9363                           
  9364                           ;my_usb_cdc.c: 43: break;
  9365  002F4E  0012               	return	
  9366  002F50                     i2l3368:
  9367                           
  9368                           ;my_usb_cdc.c: 45: USBCheckCDCRequest();
  9369  002F50  ECB2  F012         	call	_USBCheckCDCRequest	;wreg free
  9370                           
  9371                           ;my_usb_cdc.c: 47: }
  9372                           
  9373                           ;my_usb_cdc.c: 46: break;
  9374  002F54  0012               	return	
  9375  002F56                     i2l3372:
  9376  002F56  C039  F03F         	movff	USER_USB_CALLBACK_EVENT_HANDLER@event,??_USER_USB_CALLBACK_EVENT_HANDLER
  9377  002F5A  C03A  F040         	movff	USER_USB_CALLBACK_EVENT_HANDLER@event+1,??_USER_USB_CALLBACK_EVENT_HANDLER+1
  9378                           
  9379                           ; Switch on 2 bytes has been partitioned into a top level switch of size 1, and 1 sub-sw
      +                          itches
  9380                           ; Switch size 1, requested type "space"
  9381                           ; Number of cases is 1, Range of values is 0 to 0
  9382                           ; switch strategies available:
  9383                           ; Name         Instructions Cycles
  9384                           ; simple_byte            4     3 (average)
  9385                           ;	Chosen strategy is simple_byte
  9386  002F5E  5040               	movf	??_USER_USB_CALLBACK_EVENT_HANDLER+1,w,c
  9387  002F60  0A00               	xorlw	0	; case 0
  9388  002F62  A4D8               	btfss	status,2,c
  9389  002F64  0012               	return	
  9390                           
  9391                           ; Switch size 1, requested type "space"
  9392                           ; Number of cases is 2, Range of values is 1 to 3
  9393                           ; switch strategies available:
  9394                           ; Name         Instructions Cycles
  9395                           ; simple_byte            7     4 (average)
  9396                           ;	Chosen strategy is simple_byte
  9397  002F66  503F               	movf	??_USER_USB_CALLBACK_EVENT_HANDLER,w,c
  9398  002F68  0A01               	xorlw	1	; case 1
  9399  002F6A  B4D8               	btfsc	status,2,c
  9400  002F6C  D7EE               	goto	i2l3366
  9401  002F6E  0A02               	xorlw	2	; case 3
  9402  002F70  A4D8               	btfss	status,2,c
  9403  002F72  0012               	return	
  9404  002F74  D7ED               	goto	i2l3368
  9405                           
  9406                           ;my_usb_cdc.c: 48: return 1;
  9407                           ;	Return value of _USER_USB_CALLBACK_EVENT_HANDLER is never used
  9408  002F76  0012               	return		;funcret
  9409  002F78                     __end_of_USER_USB_CALLBACK_EVENT_HANDLER:
  9410                           	opt stack 0
  9411                           pclatu	equ	0xFFB
  9412                           pclath	equ	0xFFA
  9413                           tblptru	equ	0xFF8
  9414                           tblptrh	equ	0xFF7
  9415                           tblptrl	equ	0xFF6
  9416                           tablat	equ	0xFF5
  9417                           prodh	equ	0xFF4
  9418                           prodl	equ	0xFF3
  9419                           intcon	equ	0xFF2
  9420                           intcon2	equ	0xFF1
  9421                           indf0	equ	0xFEF
  9422                           postinc0	equ	0xFEE
  9423                           fsr0h	equ	0xFEA
  9424                           fsr0l	equ	0xFE9
  9425                           wreg	equ	0xFE8
  9426                           indf1	equ	0xFE7
  9427                           postinc1	equ	0xFE6
  9428                           postdec1	equ	0xFE5
  9429                           fsr1h	equ	0xFE2
  9430                           fsr1l	equ	0xFE1
  9431                           indf2	equ	0xFDF
  9432                           postinc2	equ	0xFDE
  9433                           postdec2	equ	0xFDD
  9434                           plusw2	equ	0xFDB
  9435                           fsr2h	equ	0xFDA
  9436                           fsr2l	equ	0xFD9
  9437                           status	equ	0xFD8
  9438                           
  9439 ;; *************** function _USBCheckCDCRequest *****************
  9440 ;; Defined at:
  9441 ;;		line 204 in file "../My_header/usb_cdc/usb/usb_device_cdc.c"
  9442 ;; Parameters:    Size  Location     Type
  9443 ;;		None
  9444 ;; Auto vars:     Size  Location     Type
  9445 ;;		None
  9446 ;; Return value:  Size  Location     Type
  9447 ;;		None               void
  9448 ;; Registers used:
  9449 ;;		wreg, status,2, status,0
  9450 ;; Tracked objects:
  9451 ;;		On entry : 0/0
  9452 ;;		On exit  : 0/0
  9453 ;;		Unchanged: 0/0
  9454 ;; Data sizes:     COMRAM   BANK0   BANK1   BANK2   BANK3   BANK4   BANK5   BANK6   BANK7   BANK8   BANK9  BANK10  BANK1
      +1  BANK12  BANK13  BANK14
  9455 ;;      Params:         0       0       0       0       0       0       0       0       0       0       0       0       
      +0       0       0       0
  9456 ;;      Locals:         0       0       0       0       0       0       0       0       0       0       0       0       
      +0       0       0       0
  9457 ;;      Temps:          0       0       0       0       0       0       0       0       0       0       0       0       
      +0       0       0       0
  9458 ;;      Totals:         0       0       0       0       0       0       0       0       0       0       0       0       
      +0       0       0       0
  9459 ;;Total ram usage:        0 bytes
  9460 ;; Hardware stack levels used:    1
  9461 ;; This function calls:
  9462 ;;		Nothing
  9463 ;; This function is called by:
  9464 ;;		_USER_USB_CALLBACK_EVENT_HANDLER
  9465 ;; This function uses a non-reentrant model
  9466 ;;
  9467                           
  9468                           	psect	text51
  9469  002564                     __ptext51:
  9470                           	opt stack 0
  9471  002564                     _USBCheckCDCRequest:
  9472                           	opt stack 20
  9473                           
  9474                           ;usb_device_cdc.c: 209: if(SetupPkt.Recipient != (0x01)) return;
  9475                           
  9476                           ;incstack = 0
  9477  002564  010D               	movlb	13	; () banked
  9478  002566  5130               	movf	48,w,b	;volatile
  9479  002568  0B1F               	andlw	31
  9480  00256A  06E8               	decf	wreg,f,c
  9481  00256C  A4D8               	btfss	status,2,c
  9482  00256E  0012               	return	
  9483  002570  D001               	goto	i2l3316
  9484                           
  9485                           ; BSR set to: 13
  9486  002572  0012               	return	
  9487  002574                     i2l3316:
  9488                           
  9489                           ; BSR set to: 13
  9490                           ;usb_device_cdc.c: 214: if(SetupPkt.RequestType != (0x20>>5)) return;
  9491  002574  010D               	movlb	13	; () banked
  9492  002576  3930               	swapf	48,w,b	;volatile
  9493  002578  32E8               	rrcf	wreg,f,c
  9494  00257A  0B03               	andlw	3
  9495  00257C  06E8               	decf	wreg,f,c
  9496  00257E  A4D8               	btfss	status,2,c
  9497  002580  0012               	return	
  9498  002582  D001               	goto	i2l3320
  9499                           
  9500                           ; BSR set to: 13
  9501  002584  0012               	return	
  9502  002586                     i2l3320:
  9503                           
  9504                           ; BSR set to: 13
  9505                           ;usb_device_cdc.c: 220: if((SetupPkt.bIntfID != 0x0)&&
  9506                           ;usb_device_cdc.c: 221: (SetupPkt.bIntfID != 0x01)) return;
  9507  002586  010D               	movlb	13	; () banked
  9508  002588  5134               	movf	52,w,b	;volatile
  9509  00258A  B4D8               	btfsc	status,2,c
  9510  00258C  D037               	goto	i2l3350
  9511                           
  9512                           ; BSR set to: 13
  9513  00258E  010D               	movlb	13	; () banked
  9514  002590  0534               	decf	52,w,b	;volatile
  9515  002592  A4D8               	btfss	status,2,c
  9516  002594  0012               	return	
  9517  002596  D032               	goto	i2l3350
  9518                           
  9519                           ; BSR set to: 13
  9520  002598  0012               	return	
  9521                           
  9522                           ; BSR set to: 13
  9523                           ;usb_device_cdc.c: 223: switch(SetupPkt.bRequest)
  9524  00259A  D030               	goto	i2l3350
  9525  00259C                     i2l3326:
  9526                           
  9527                           ; BSR set to: 13
  9528                           ;usb_device_cdc.c: 228: inPipes[0].pSrc.bRam = (uint8_t*)&dummy_encapsulated_cmd_respons
      +                          e;
  9529  00259C  0E8C               	movlw	low _dummy_encapsulated_cmd_response
  9530  00259E  6E25               	movwf	_inPipes,c	;volatile
  9531  0025A0  0E00               	movlw	high _dummy_encapsulated_cmd_response
  9532  0025A2  6E26               	movwf	_inPipes+1,c	;volatile
  9533                           
  9534                           ; BSR set to: 13
  9535                           ;usb_device_cdc.c: 229: inPipes[0].wCount.Val = 0x08;
  9536  0025A4  0E00               	movlw	0
  9537  0025A6  6E2A               	movwf	_inPipes+5,c	;volatile
  9538  0025A8  0E08               	movlw	8
  9539  0025AA  6E29               	movwf	_inPipes+4,c	;volatile
  9540                           
  9541                           ; BSR set to: 13
  9542                           ;usb_device_cdc.c: 230: inPipes[0].info.bits.ctrl_trf_mem = 0x01;
  9543  0025AC  8028               	bsf	_inPipes+3,0,c	;volatile
  9544                           
  9545                           ; BSR set to: 13
  9546                           ;usb_device_cdc.c: 231: inPipes[0].info.bits.busy = 1;
  9547  0025AE  8E28               	bsf	_inPipes+3,7,c	;volatile
  9548                           
  9549                           ;usb_device_cdc.c: 232: break;
  9550  0025B0  0012               	return	
  9551  0025B2                     i2l3334:
  9552                           
  9553                           ; BSR set to: 13
  9554                           ;usb_device_cdc.c: 235: inPipes[0].pSrc.bRam = (uint8_t*)&dummy_encapsulated_cmd_respons
      +                          e;
  9555  0025B2  0E8C               	movlw	low _dummy_encapsulated_cmd_response
  9556  0025B4  6E25               	movwf	_inPipes,c	;volatile
  9557  0025B6  0E00               	movlw	high _dummy_encapsulated_cmd_response
  9558  0025B8  6E26               	movwf	_inPipes+1,c	;volatile
  9559                           
  9560                           ; BSR set to: 13
  9561                           ;usb_device_cdc.c: 236: inPipes[0].info.bits.busy = 1;
  9562  0025BA  8E28               	bsf	_inPipes+3,7,c	;volatile
  9563                           
  9564                           ;usb_device_cdc.c: 237: break;
  9565  0025BC  0012               	return	
  9566  0025BE                     i2l436:
  9567                           
  9568                           ; BSR set to: 13
  9569                           ;usb_device_cdc.c: 242: outPipes[0].wCount.Val = SetupPkt.wLength;
  9570  0025BE  CD36 F005          	movff	3382,_outPipes+4	;volatile
  9571  0025C2  CD37 F006          	movff	3383,_outPipes+5	;volatile
  9572                           
  9573                           ; BSR set to: 13
  9574                           ;usb_device_cdc.c: 243: outPipes[0].pDst.bRam = (uint8_t*)&line_coding._byte[0];
  9575  0025C6  0EB4               	movlw	low _line_coding
  9576  0025C8  6E01               	movwf	_outPipes,c	;volatile
  9577  0025CA  0E00               	movlw	high _line_coding
  9578  0025CC  6E02               	movwf	_outPipes+1,c	;volatile
  9579                           
  9580                           ;usb_device_cdc.c: 244: outPipes[0].pFunc = (0);
  9581  0025CE  0E00               	movlw	0
  9582  0025D0  6E07               	movwf	_outPipes+6,c	;volatile
  9583  0025D2  0E00               	movlw	0
  9584  0025D4  6E08               	movwf	_outPipes+7,c	;volatile
  9585  0025D6  0E00               	movlw	0
  9586  0025D8  6E09               	movwf	_outPipes+8,c	;volatile
  9587                           
  9588                           ; BSR set to: 13
  9589                           ;usb_device_cdc.c: 245: outPipes[0].info.bits.busy = 1;
  9590  0025DA  8E04               	bsf	_outPipes+3,7,c	;volatile
  9591                           
  9592                           ;usb_device_cdc.c: 246: break;
  9593  0025DC  0012               	return	
  9594  0025DE                     i2l3342:
  9595                           
  9596                           ; BSR set to: 13
  9597                           ;usb_device_cdc.c: 249: { inPipes[0].pSrc.bRam = (uint8_t*)&line_coding; inPipes[0].wCou
      +                          nt.Val = 0x07; inPipes[0].info.Val = 0x40 | 0x80 | 0x01; };
  9598  0025DE  0EB4               	movlw	low _line_coding
  9599  0025E0  6E25               	movwf	_inPipes,c	;volatile
  9600  0025E2  0E00               	movlw	high _line_coding
  9601  0025E4  6E26               	movwf	_inPipes+1,c	;volatile
  9602                           
  9603                           ; BSR set to: 13
  9604  0025E6  0E00               	movlw	0
  9605  0025E8  6E2A               	movwf	_inPipes+5,c	;volatile
  9606  0025EA  0E07               	movlw	7
  9607  0025EC  6E29               	movwf	_inPipes+4,c	;volatile
  9608                           
  9609                           ; BSR set to: 13
  9610  0025EE  0EC1               	movlw	193
  9611  0025F0  6E28               	movwf	_inPipes+3,c	;volatile
  9612                           
  9613                           ;usb_device_cdc.c: 253: break;
  9614  0025F2  0012               	return	
  9615  0025F4                     i2l438:
  9616                           
  9617                           ; BSR set to: 13
  9618                           ;usb_device_cdc.c: 256: control_signal_bitmap._byte = (uint8_t)SetupPkt.wValue;
  9619  0025F4  CD32 F08B          	movff	3378,_control_signal_bitmap	;volatile
  9620                           
  9621                           ;usb_device_cdc.c: 288: inPipes[0].info.bits.busy = 1;
  9622  0025F8  8E28               	bsf	_inPipes+3,7,c	;volatile
  9623                           
  9624                           ; BSR set to: 13
  9625                           ;usb_device_cdc.c: 315: }
  9626                           
  9627                           ; BSR set to: 13
  9628                           ;usb_device_cdc.c: 314: break;
  9629                           
  9630                           ;usb_device_cdc.c: 313: default:
  9631                           
  9632                           ;usb_device_cdc.c: 289: break;
  9633  0025FA  0012               	return	
  9634  0025FC                     i2l3350:
  9635                           
  9636                           ; BSR set to: 13
  9637  0025FC  010D               	movlb	13	; () banked
  9638  0025FE  5131               	movf	49,w,b	;volatile
  9639                           
  9640                           ; Switch size 1, requested type "space"
  9641                           ; Number of cases is 5, Range of values is 0 to 34
  9642                           ; switch strategies available:
  9643                           ; Name         Instructions Cycles
  9644                           ; simple_byte           16     9 (average)
  9645                           ;	Chosen strategy is simple_byte
  9646  002600  0A00               	xorlw	0	; case 0
  9647  002602  B4D8               	btfsc	status,2,c
  9648  002604  D7CB               	goto	i2l3326
  9649  002606  0A01               	xorlw	1	; case 1
  9650  002608  B4D8               	btfsc	status,2,c
  9651  00260A  D7D3               	goto	i2l3334
  9652  00260C  0A21               	xorlw	33	; case 32
  9653  00260E  B4D8               	btfsc	status,2,c
  9654  002610  D7D6               	goto	i2l436
  9655  002612  0A01               	xorlw	1	; case 33
  9656  002614  B4D8               	btfsc	status,2,c
  9657  002616  D7E3               	goto	i2l3342
  9658  002618  0A03               	xorlw	3	; case 34
  9659  00261A  A4D8               	btfss	status,2,c
  9660  00261C  0012               	return	
  9661  00261E  D7EA               	goto	i2l438
  9662                           
  9663                           ; BSR set to: 13
  9664                           
  9665                           ; BSR set to: 13
  9666  002620  0012               	return		;funcret
  9667  002622                     __end_of_USBCheckCDCRequest:
  9668                           	opt stack 0
  9669                           pclatu	equ	0xFFB
  9670                           pclath	equ	0xFFA
  9671                           tblptru	equ	0xFF8
  9672                           tblptrh	equ	0xFF7
  9673                           tblptrl	equ	0xFF6
  9674                           tablat	equ	0xFF5
  9675                           prodh	equ	0xFF4
  9676                           prodl	equ	0xFF3
  9677                           intcon	equ	0xFF2
  9678                           intcon2	equ	0xFF1
  9679                           indf0	equ	0xFEF
  9680                           postinc0	equ	0xFEE
  9681                           fsr0h	equ	0xFEA
  9682                           fsr0l	equ	0xFE9
  9683                           wreg	equ	0xFE8
  9684                           indf1	equ	0xFE7
  9685                           postinc1	equ	0xFE6
  9686                           postdec1	equ	0xFE5
  9687                           fsr1h	equ	0xFE2
  9688                           fsr1l	equ	0xFE1
  9689                           indf2	equ	0xFDF
  9690                           postinc2	equ	0xFDE
  9691                           postdec2	equ	0xFDD
  9692                           plusw2	equ	0xFDB
  9693                           fsr2h	equ	0xFDA
  9694                           fsr2l	equ	0xFD9
  9695                           status	equ	0xFD8
  9696                           
  9697 ;; *************** function _CDCInitEP *****************
  9698 ;; Defined at:
  9699 ;;		line 351 in file "../My_header/usb_cdc/usb/usb_device_cdc.c"
  9700 ;; Parameters:    Size  Location     Type
  9701 ;;		None
  9702 ;; Auto vars:     Size  Location     Type
  9703 ;;		None
  9704 ;; Return value:  Size  Location     Type
  9705 ;;		None               void
  9706 ;; Registers used:
  9707 ;;		wreg, fsr2l, fsr2h, status,2, status,0, prodl, prodh, cstack
  9708 ;; Tracked objects:
  9709 ;;		On entry : 0/0
  9710 ;;		On exit  : 0/0
  9711 ;;		Unchanged: 0/0
  9712 ;; Data sizes:     COMRAM   BANK0   BANK1   BANK2   BANK3   BANK4   BANK5   BANK6   BANK7   BANK8   BANK9  BANK10  BANK1
      +1  BANK12  BANK13  BANK14
  9713 ;;      Params:         0       0       0       0       0       0       0       0       0       0       0       0       
      +0       0       0       0
  9714 ;;      Locals:         0       0       0       0       0       0       0       0       0       0       0       0       
      +0       0       0       0
  9715 ;;      Temps:          0       0       0       0       0       0       0       0       0       0       0       0       
      +0       0       0       0
  9716 ;;      Totals:         0       0       0       0       0       0       0       0       0       0       0       0       
      +0       0       0       0
  9717 ;;Total ram usage:        0 bytes
  9718 ;; Hardware stack levels used:    1
  9719 ;; Hardware stack levels required when called:    2
  9720 ;; This function calls:
  9721 ;;		_USBEnableEndpoint
  9722 ;;		i2_USBTransferOnePacket
  9723 ;; This function is called by:
  9724 ;;		_USER_USB_CALLBACK_EVENT_HANDLER
  9725 ;; This function uses a non-reentrant model
  9726 ;;
  9727                           
  9728                           	psect	text52
  9729  002ABE                     __ptext52:
  9730                           	opt stack 0
  9731  002ABE                     _CDCInitEP:
  9732                           	opt stack 18
  9733                           
  9734                           ;usb_device_cdc.c: 354: line_coding.dwDTERate = 19200;
  9735                           
  9736                           ; BSR set to: 13
  9737                           ;incstack = 0
  9738  002ABE  0E00               	movlw	0
  9739  002AC0  0100               	movlb	0	; () banked
  9740  002AC2  6FB4               	movwf	_line_coding& (0+255),b
  9741  002AC4  0E4B               	movlw	75
  9742  002AC6  6FB5               	movwf	(_line_coding+1)& (0+255),b
  9743  002AC8  0E00               	movlw	0
  9744  002ACA  6FB6               	movwf	(_line_coding+2)& (0+255),b
  9745  002ACC  0E00               	movlw	0
  9746  002ACE  6FB7               	movwf	(_line_coding+3)& (0+255),b
  9747                           
  9748                           ;usb_device_cdc.c: 355: line_coding.bCharFormat = 0x00;
  9749  002AD0  0E00               	movlw	0
  9750  002AD2  0100               	movlb	0	; () banked
  9751  002AD4  6FB8               	movwf	(_line_coding+4)& (0+255),b
  9752                           
  9753                           ;usb_device_cdc.c: 356: line_coding.bParityType = 0x00;
  9754  002AD6  0E00               	movlw	0
  9755  002AD8  0100               	movlb	0	; () banked
  9756  002ADA  6FB9               	movwf	(_line_coding+5)& (0+255),b
  9757                           
  9758                           ;usb_device_cdc.c: 357: line_coding.bDataBits = 0x08;
  9759  002ADC  0E08               	movlw	8
  9760  002ADE  0100               	movlb	0	; () banked
  9761  002AE0  6FBA               	movwf	(_line_coding+6)& (0+255),b
  9762                           
  9763                           ;usb_device_cdc.c: 359: cdc_rx_len = 0;
  9764  002AE2  0E00               	movlw	0
  9765  002AE4  0100               	movlb	0	; () banked
  9766  002AE6  6F89               	movwf	_cdc_rx_len& (0+255),b
  9767                           
  9768                           ; BSR set to: 0
  9769                           ;usb_device_cdc.c: 372: USBEnableEndpoint(1,0x02|0x10|0x08);
  9770  002AE8  0E1A               	movlw	26
  9771  002AEA  6E35               	movwf	USBEnableEndpoint@options,c
  9772  002AEC  0E01               	movlw	1
  9773  002AEE  ECDF  F016         	call	_USBEnableEndpoint
  9774                           
  9775                           ;usb_device_cdc.c: 373: USBEnableEndpoint(2,0x02|0x04|0x10|0x08);
  9776  002AF2  0E1E               	movlw	30
  9777  002AF4  6E35               	movwf	USBEnableEndpoint@options,c
  9778  002AF6  0E02               	movlw	2
  9779  002AF8  ECDF  F016         	call	_USBEnableEndpoint
  9780                           
  9781                           ;usb_device_cdc.c: 375: CDCDataOutHandle = USBTransferOnePacket(2,0,(uint8_t*)&cdc_data_
      +                          rx,sizeof(cdc_data_rx));
  9782  002AFC  0E00               	movlw	0
  9783  002AFE  6E2D               	movwf	i2USBTransferOnePacket@dir,c
  9784  002B00  0E64               	movlw	low _cdc_data_rx
  9785  002B02  6E2E               	movwf	i2USBTransferOnePacket@data,c
  9786  002B04  0E01               	movlw	high _cdc_data_rx
  9787  002B06  6E2F               	movwf	i2USBTransferOnePacket@data+1,c
  9788  002B08  0E40               	movlw	64
  9789  002B0A  6E30               	movwf	i2USBTransferOnePacket@len,c
  9790  002B0C  0E02               	movlw	2
  9791  002B0E  EC52  F012         	call	i2_USBTransferOnePacket
  9792  002B12  C02D  F084         	movff	?i2_USBTransferOnePacket,_CDCDataOutHandle
  9793  002B16  C02E  F085         	movff	?i2_USBTransferOnePacket+1,_CDCDataOutHandle+1
  9794                           
  9795                           ;usb_device_cdc.c: 376: CDCDataInHandle = (0);
  9796  002B1A  0E00               	movlw	0
  9797  002B1C  0100               	movlb	0	; () banked
  9798  002B1E  6F82               	movwf	_CDCDataInHandle& (0+255),b
  9799  002B20  0E00               	movlw	0
  9800  002B22  0100               	movlb	0	; () banked
  9801  002B24  6F83               	movwf	(_CDCDataInHandle+1)& (0+255),b
  9802                           
  9803                           ; BSR set to: 0
  9804                           ;usb_device_cdc.c: 403: cdc_trf_state = 0;
  9805  002B26  0E00               	movlw	0
  9806  002B28  6E21               	movwf	_cdc_trf_state,c
  9807                           
  9808                           ; BSR set to: 0
  9809  002B2A  0012               	return		;funcret
  9810  002B2C                     __end_of_CDCInitEP:
  9811                           	opt stack 0
  9812                           pclatu	equ	0xFFB
  9813                           pclath	equ	0xFFA
  9814                           tblptru	equ	0xFF8
  9815                           tblptrh	equ	0xFF7
  9816                           tblptrl	equ	0xFF6
  9817                           tablat	equ	0xFF5
  9818                           prodh	equ	0xFF4
  9819                           prodl	equ	0xFF3
  9820                           intcon	equ	0xFF2
  9821                           intcon2	equ	0xFF1
  9822                           indf0	equ	0xFEF
  9823                           postinc0	equ	0xFEE
  9824                           fsr0h	equ	0xFEA
  9825                           fsr0l	equ	0xFE9
  9826                           wreg	equ	0xFE8
  9827                           indf1	equ	0xFE7
  9828                           postinc1	equ	0xFE6
  9829                           postdec1	equ	0xFE5
  9830                           fsr1h	equ	0xFE2
  9831                           fsr1l	equ	0xFE1
  9832                           indf2	equ	0xFDF
  9833                           postinc2	equ	0xFDE
  9834                           postdec2	equ	0xFDD
  9835                           plusw2	equ	0xFDB
  9836                           fsr2h	equ	0xFDA
  9837                           fsr2l	equ	0xFD9
  9838                           status	equ	0xFD8
  9839                           
  9840 ;; *************** function i2_USBTransferOnePacket *****************
  9841 ;; Defined at:
  9842 ;;		line 995 in file "../My_header/usb_cdc/usb/usb_device.c"
  9843 ;; Parameters:    Size  Location     Type
  9844 ;;  ep              1    wreg     unsigned char 
  9845 ;;  dir             1    0[COMRAM] unsigned char 
  9846 ;;  data            2    1[COMRAM] PTR unsigned char 
  9847 ;;		 -> cdc_data_tx(64), cdc_data_rx(64), NULL(0), 
  9848 ;;  len             1    3[COMRAM] unsigned char 
  9849 ;; Auto vars:     Size  Location     Type
  9850 ;;  ep              1    4[COMRAM] unsigned char 
  9851 ;;  USBTransferO    2    5[COMRAM] PTR volatile struct __BD
  9852 ;;		 -> NULL(0), BDT(48), 
  9853 ;; Return value:  Size  Location     Type
  9854 ;;                  2    0[COMRAM] PTR void 
  9855 ;; Registers used:
  9856 ;;		wreg, fsr2l, fsr2h, status,2, status,0, prodl, prodh
  9857 ;; Tracked objects:
  9858 ;;		On entry : 0/0
  9859 ;;		On exit  : 0/0
  9860 ;;		Unchanged: 0/0
  9861 ;; Data sizes:     COMRAM   BANK0   BANK1   BANK2   BANK3   BANK4   BANK5   BANK6   BANK7   BANK8   BANK9  BANK10  BANK1
      +1  BANK12  BANK13  BANK14
  9862 ;;      Params:         4       0       0       0       0       0       0       0       0       0       0       0       
      +0       0       0       0
  9863 ;;      Locals:         3       0       0       0       0       0       0       0       0       0       0       0       
      +0       0       0       0
  9864 ;;      Temps:          0       0       0       0       0       0       0       0       0       0       0       0       
      +0       0       0       0
  9865 ;;      Totals:         7       0       0       0       0       0       0       0       0       0       0       0       
      +0       0       0       0
  9866 ;;Total ram usage:        7 bytes
  9867 ;; Hardware stack levels used:    1
  9868 ;; This function calls:
  9869 ;;		Nothing
  9870 ;; This function is called by:
  9871 ;;		_CDCInitEP
  9872 ;; This function uses a non-reentrant model
  9873 ;;
  9874                           
  9875                           	psect	text53
  9876  0024A4                     __ptext53:
  9877                           	opt stack 0
  9878  0024A4                     i2_USBTransferOnePacket:
  9879                           	opt stack 19
  9880                           
  9881                           ; BSR set to: 0
  9882                           ;incstack = 0
  9883                           ;i2USBTransferOnePacket@ep stored from wreg
  9884  0024A4  6E31               	movwf	i2USBTransferOnePacket@ep,c
  9885                           
  9886                           ;usb_device.c: 997: volatile BDT_ENTRY* handle;
  9887                           ;usb_device.c: 1000: if(dir != 0)
  9888  0024A6  502D               	movf	i2USBTransferOnePacket@dir,w,c
  9889  0024A8  B4D8               	btfsc	status,2,c
  9890  0024AA  D007               	goto	i2l3286
  9891                           
  9892                           ;usb_device.c: 1001: {
  9893                           ;usb_device.c: 1003: handle = pBDTEntryIn[ep];
  9894  0024AC  5031               	movf	i2USBTransferOnePacket@ep,w,c
  9895  0024AE  0D02               	mullw	2
  9896  0024B0  0E0A               	movlw	low _pBDTEntryIn
  9897  0024B2  24F3               	addwf	prodl,w,c
  9898  0024B4  6ED9               	movwf	fsr2l,c
  9899  0024B6  0E00               	movlw	high _pBDTEntryIn
  9900  0024B8  D006               	goto	L11
  9901  0024BA                     i2l3286:
  9902                           
  9903                           ;usb_device.c: 1005: else
  9904                           ;usb_device.c: 1006: {
  9905                           ;usb_device.c: 1008: handle = pBDTEntryOut[ep];
  9906  0024BA  5031               	movf	i2USBTransferOnePacket@ep,w,c
  9907  0024BC  0D02               	mullw	2
  9908  0024BE  0E6A               	movlw	low _pBDTEntryOut
  9909  0024C0  24F3               	addwf	prodl,w,c
  9910  0024C2  6ED9               	movwf	fsr2l,c
  9911  0024C4  0E00               	movlw	high _pBDTEntryOut
  9912  0024C6                     L11:
  9913  0024C6  20F4               	addwfc	prodh,w,c
  9914  0024C8  6EDA               	movwf	fsr2h,c
  9915  0024CA  CFDE F032          	movff	postinc2,i2USBTransferOnePacket@handle
  9916  0024CE  CFDD F033          	movff	postdec2,i2USBTransferOnePacket@handle+1
  9917  0024D2  D000               	goto	i2l3288
  9918  0024D4                     i2l3288:
  9919                           
  9920                           ;usb_device.c: 1009: }
  9921                           ;usb_device.c: 1013: if(handle == 0)
  9922  0024D4  5032               	movf	i2USBTransferOnePacket@handle,w,c
  9923  0024D6  1033               	iorwf	i2USBTransferOnePacket@handle+1,w,c
  9924  0024D8  A4D8               	btfss	status,2,c
  9925  0024DA  D005               	goto	i2l3294
  9926                           
  9927                           ;usb_device.c: 1014: {
  9928                           ;usb_device.c: 1015: return 0;
  9929  0024DC  0E00               	movlw	0
  9930  0024DE  6E2D               	movwf	?i2_USBTransferOnePacket,c
  9931  0024E0  0E00               	movlw	0
  9932  0024E2  6E2E               	movwf	?i2_USBTransferOnePacket+1,c
  9933  0024E4  0012               	return	
  9934  0024E6                     i2l3294:
  9935                           
  9936                           ;usb_device.c: 1016: }
  9937                           ;usb_device.c: 1029: handle->ADR = ((uint16_t)(data));
  9938  0024E6  EE20 F002          	lfsr	2,2
  9939  0024EA  5032               	movf	i2USBTransferOnePacket@handle,w,c
  9940  0024EC  26D9               	addwf	fsr2l,f,c
  9941  0024EE  5033               	movf	i2USBTransferOnePacket@handle+1,w,c
  9942  0024F0  22DA               	addwfc	fsr2h,f,c
  9943  0024F2  C02E  FFDE         	movff	i2USBTransferOnePacket@data,postinc2
  9944  0024F6  C02F  FFDD         	movff	i2USBTransferOnePacket@data+1,postdec2
  9945                           
  9946                           ;usb_device.c: 1030: handle->CNT = len;
  9947  0024FA  EE20 F001          	lfsr	2,1
  9948  0024FE  5032               	movf	i2USBTransferOnePacket@handle,w,c
  9949  002500  26D9               	addwf	fsr2l,f,c
  9950  002502  5033               	movf	i2USBTransferOnePacket@handle+1,w,c
  9951  002504  22DA               	addwfc	fsr2h,f,c
  9952  002506  C030  FFDF         	movff	i2USBTransferOnePacket@len,indf2
  9953                           
  9954                           ;usb_device.c: 1031: handle->STAT.Val &= 0x40;
  9955  00250A  C032  FFD9         	movff	i2USBTransferOnePacket@handle,fsr2l
  9956  00250E  C033  FFDA         	movff	i2USBTransferOnePacket@handle+1,fsr2h
  9957  002512  0E40               	movlw	64
  9958  002514  16DF               	andwf	indf2,f,c
  9959                           
  9960                           ;usb_device.c: 1032: handle->STAT.Val |= (0x08 & 0x08);
  9961  002516  C032  FFD9         	movff	i2USBTransferOnePacket@handle,fsr2l
  9962  00251A  C033  FFDA         	movff	i2USBTransferOnePacket@handle+1,fsr2h
  9963  00251E  0E00               	movlw	0
  9964  002520  86DB               	bsf	plusw2,3,c
  9965                           
  9966                           ;usb_device.c: 1033: handle->STAT.Val |= 0x80;
  9967  002522  C032  FFD9         	movff	i2USBTransferOnePacket@handle,fsr2l
  9968  002526  C033  FFDA         	movff	i2USBTransferOnePacket@handle+1,fsr2h
  9969  00252A  0E00               	movlw	0
  9970  00252C  8EDB               	bsf	plusw2,7,c
  9971                           
  9972                           ;usb_device.c: 1036: if(dir != 0)
  9973  00252E  502D               	movf	i2USBTransferOnePacket@dir,w,c
  9974  002530  B4D8               	btfsc	status,2,c
  9975  002532  D007               	goto	i2l3306
  9976                           
  9977                           ;usb_device.c: 1037: {
  9978                           ;usb_device.c: 1039: {((uint8_t_VAL*)&pBDTEntryIn[ep])->Val ^= 0x0004;};
  9979  002534  5031               	movf	i2USBTransferOnePacket@ep,w,c
  9980  002536  0D02               	mullw	2
  9981  002538  0E0A               	movlw	low _pBDTEntryIn
  9982  00253A  24F3               	addwf	prodl,w,c
  9983  00253C  6ED9               	movwf	fsr2l,c
  9984  00253E  0E00               	movlw	high _pBDTEntryIn
  9985  002540  D006               	goto	L12
  9986  002542                     i2l3306:
  9987                           
  9988                           ;usb_device.c: 1041: else
  9989                           ;usb_device.c: 1042: {
  9990                           ;usb_device.c: 1044: {((uint8_t_VAL*)&pBDTEntryOut[ep])->Val ^= 0x0004;};
  9991  002542  5031               	movf	i2USBTransferOnePacket@ep,w,c
  9992  002544  0D02               	mullw	2
  9993  002546  0E6A               	movlw	low _pBDTEntryOut
  9994  002548  24F3               	addwf	prodl,w,c
  9995  00254A  6ED9               	movwf	fsr2l,c
  9996  00254C  0E00               	movlw	high _pBDTEntryOut
  9997  00254E                     L12:
  9998  00254E  20F4               	addwfc	prodh,w,c
  9999  002550  6EDA               	movwf	fsr2h,c
 10000  002552  0E04               	movlw	4
 10001  002554  1ADF               	xorwf	indf2,f,c
 10002  002556  D000               	goto	i2l3308
 10003  002558                     i2l3308:
 10004                           
 10005                           ;usb_device.c: 1045: }
 10006                           ;usb_device.c: 1046: return (void*)handle;
 10007  002558  C032  F02D         	movff	i2USBTransferOnePacket@handle,?i2_USBTransferOnePacket
 10008  00255C  C033  F02E         	movff	i2USBTransferOnePacket@handle+1,?i2_USBTransferOnePacket+1
 10009  002560  0012               	return	
 10010  002562  0012               	return		;funcret
 10011  002564                     __end_ofi2_USBTransferOnePacket:
 10012                           	opt stack 0
 10013                           pclatu	equ	0xFFB
 10014                           pclath	equ	0xFFA
 10015                           tblptru	equ	0xFF8
 10016                           tblptrh	equ	0xFF7
 10017                           tblptrl	equ	0xFF6
 10018                           tablat	equ	0xFF5
 10019                           prodh	equ	0xFF4
 10020                           prodl	equ	0xFF3
 10021                           intcon	equ	0xFF2
 10022                           intcon2	equ	0xFF1
 10023                           indf0	equ	0xFEF
 10024                           postinc0	equ	0xFEE
 10025                           fsr0h	equ	0xFEA
 10026                           fsr0l	equ	0xFE9
 10027                           wreg	equ	0xFE8
 10028                           indf1	equ	0xFE7
 10029                           postinc1	equ	0xFE6
 10030                           postdec1	equ	0xFE5
 10031                           fsr1h	equ	0xFE2
 10032                           fsr1l	equ	0xFE1
 10033                           indf2	equ	0xFDF
 10034                           postinc2	equ	0xFDE
 10035                           postdec2	equ	0xFDD
 10036                           plusw2	equ	0xFDB
 10037                           fsr2h	equ	0xFDA
 10038                           fsr2l	equ	0xFD9
 10039                           status	equ	0xFD8
 10040                           
 10041 ;; *************** function _USBEnableEndpoint *****************
 10042 ;; Defined at:
 10043 ;;		line 878 in file "../My_header/usb_cdc/usb/usb_device.c"
 10044 ;; Parameters:    Size  Location     Type
 10045 ;;  ep              1    wreg     unsigned char 
 10046 ;;  options         1    8[COMRAM] unsigned char 
 10047 ;; Auto vars:     Size  Location     Type
 10048 ;;  ep              1   11[COMRAM] unsigned char 
 10049 ;;  p               2    9[COMRAM] PTR unsigned char 
 10050 ;;		 -> UEP0(1), 
 10051 ;; Return value:  Size  Location     Type
 10052 ;;		None               void
 10053 ;; Registers used:
 10054 ;;		wreg, fsr2l, fsr2h, status,2, status,0, prodl, prodh, cstack
 10055 ;; Tracked objects:
 10056 ;;		On entry : 0/0
 10057 ;;		On exit  : 0/0
 10058 ;;		Unchanged: 0/0
 10059 ;; Data sizes:     COMRAM   BANK0   BANK1   BANK2   BANK3   BANK4   BANK5   BANK6   BANK7   BANK8   BANK9  BANK10  BANK1
      +1  BANK12  BANK13  BANK14
 10060 ;;      Params:         1       0       0       0       0       0       0       0       0       0       0       0       
      +0       0       0       0
 10061 ;;      Locals:         3       0       0       0       0       0       0       0       0       0       0       0       
      +0       0       0       0
 10062 ;;      Temps:          0       0       0       0       0       0       0       0       0       0       0       0       
      +0       0       0       0
 10063 ;;      Totals:         4       0       0       0       0       0       0       0       0       0       0       0       
      +0       0       0       0
 10064 ;;Total ram usage:        4 bytes
 10065 ;; Hardware stack levels used:    1
 10066 ;; Hardware stack levels required when called:    1
 10067 ;; This function calls:
 10068 ;;		_USBConfigureEndpoint
 10069 ;; This function is called by:
 10070 ;;		_CDCInitEP
 10071 ;; This function uses a non-reentrant model
 10072 ;;
 10073                           
 10074                           	psect	text54
 10075  002DBE                     __ptext54:
 10076                           	opt stack 0
 10077  002DBE                     _USBEnableEndpoint:
 10078                           	opt stack 18
 10079                           
 10080                           ;incstack = 0
 10081                           ;USBEnableEndpoint@ep stored from wreg
 10082  002DBE  6E38               	movwf	USBEnableEndpoint@ep,c
 10083                           
 10084                           ;usb_device.c: 880: unsigned char* p;
 10085                           ;usb_device.c: 884: if(options & 0x04)
 10086  002DC0  A435               	btfss	USBEnableEndpoint@options,2,c
 10087  002DC2  D006               	goto	i2l3274
 10088                           
 10089                           ;usb_device.c: 885: {
 10090                           ;usb_device.c: 886: USBConfigureEndpoint(ep, 0);
 10091  002DC4  0E00               	movlw	0
 10092  002DC6  6E2D               	movwf	USBConfigureEndpoint@direction,c
 10093  002DC8  5038               	movf	USBEnableEndpoint@ep,w,c
 10094  002DCA  EC0A  F014         	call	_USBConfigureEndpoint
 10095  002DCE  D000               	goto	i2l3274
 10096  002DD0                     i2l3274:
 10097                           
 10098                           ;usb_device.c: 887: }
 10099                           ;usb_device.c: 888: if(options & 0x02)
 10100  002DD0  A235               	btfss	USBEnableEndpoint@options,1,c
 10101  002DD2  D006               	goto	i2l3278
 10102                           
 10103                           ;usb_device.c: 889: {
 10104                           ;usb_device.c: 890: USBConfigureEndpoint(ep, 1);
 10105  002DD4  0E01               	movlw	1
 10106  002DD6  6E2D               	movwf	USBConfigureEndpoint@direction,c
 10107  002DD8  5038               	movf	USBEnableEndpoint@ep,w,c
 10108  002DDA  EC0A  F014         	call	_USBConfigureEndpoint
 10109  002DDE  D000               	goto	i2l3278
 10110  002DE0                     i2l3278:
 10111                           
 10112                           ;usb_device.c: 891: }
 10113                           ;usb_device.c: 899: p = (unsigned char*)(&UEP0+ep);
 10114  002DE0  5038               	movf	USBEnableEndpoint@ep,w,c
 10115  002DE2  0D01               	mullw	1
 10116  002DE4  0E26               	movlw	38
 10117  002DE6  24F3               	addwf	prodl,w,c
 10118  002DE8  6E36               	movwf	USBEnableEndpoint@p,c
 10119  002DEA  0E0F               	movlw	15
 10120  002DEC  20F4               	addwfc	prodh,w,c
 10121  002DEE  6E37               	movwf	USBEnableEndpoint@p+1,c
 10122                           
 10123                           ;usb_device.c: 901: *p = options;
 10124  002DF0  C036  FFD9         	movff	USBEnableEndpoint@p,fsr2l
 10125  002DF4  C037  FFDA         	movff	USBEnableEndpoint@p+1,fsr2h
 10126  002DF8  C035  FFDF         	movff	USBEnableEndpoint@options,indf2
 10127  002DFC  0012               	return		;funcret
 10128  002DFE                     __end_of_USBEnableEndpoint:
 10129                           	opt stack 0
 10130                           pclatu	equ	0xFFB
 10131                           pclath	equ	0xFFA
 10132                           tblptru	equ	0xFF8
 10133                           tblptrh	equ	0xFF7
 10134                           tblptrl	equ	0xFF6
 10135                           tablat	equ	0xFF5
 10136                           prodh	equ	0xFF4
 10137                           prodl	equ	0xFF3
 10138                           intcon	equ	0xFF2
 10139                           intcon2	equ	0xFF1
 10140                           indf0	equ	0xFEF
 10141                           postinc0	equ	0xFEE
 10142                           fsr0h	equ	0xFEA
 10143                           fsr0l	equ	0xFE9
 10144                           wreg	equ	0xFE8
 10145                           indf1	equ	0xFE7
 10146                           postinc1	equ	0xFE6
 10147                           postdec1	equ	0xFE5
 10148                           fsr1h	equ	0xFE2
 10149                           fsr1l	equ	0xFE1
 10150                           indf2	equ	0xFDF
 10151                           postinc2	equ	0xFDE
 10152                           postdec2	equ	0xFDD
 10153                           plusw2	equ	0xFDB
 10154                           fsr2h	equ	0xFDA
 10155                           fsr2l	equ	0xFD9
 10156                           status	equ	0xFD8
 10157                           
 10158 ;; *************** function _USBConfigureEndpoint *****************
 10159 ;; Defined at:
 10160 ;;		line 1543 in file "../My_header/usb_cdc/usb/usb_device.c"
 10161 ;; Parameters:    Size  Location     Type
 10162 ;;  EPNum           1    wreg     unsigned char 
 10163 ;;  direction       1    0[COMRAM] unsigned char 
 10164 ;; Auto vars:     Size  Location     Type
 10165 ;;  EPNum           1    5[COMRAM] unsigned char 
 10166 ;;  handle          2    6[COMRAM] PTR volatile struct __BD
 10167 ;;		 -> BDT(48), 
 10168 ;; Return value:  Size  Location     Type
 10169 ;;		None               void
 10170 ;; Registers used:
 10171 ;;		wreg, fsr2l, fsr2h, status,2, status,0, prodl, prodh
 10172 ;; Tracked objects:
 10173 ;;		On entry : 0/0
 10174 ;;		On exit  : 0/0
 10175 ;;		Unchanged: 0/0
 10176 ;; Data sizes:     COMRAM   BANK0   BANK1   BANK2   BANK3   BANK4   BANK5   BANK6   BANK7   BANK8   BANK9  BANK10  BANK1
      +1  BANK12  BANK13  BANK14
 10177 ;;      Params:         1       0       0       0       0       0       0       0       0       0       0       0       
      +0       0       0       0
 10178 ;;      Locals:         3       0       0       0       0       0       0       0       0       0       0       0       
      +0       0       0       0
 10179 ;;      Temps:          4       0       0       0       0       0       0       0       0       0       0       0       
      +0       0       0       0
 10180 ;;      Totals:         8       0       0       0       0       0       0       0       0       0       0       0       
      +0       0       0       0
 10181 ;;Total ram usage:        8 bytes
 10182 ;; Hardware stack levels used:    1
 10183 ;; This function calls:
 10184 ;;		Nothing
 10185 ;; This function is called by:
 10186 ;;		_USBEnableEndpoint
 10187 ;; This function uses a non-reentrant model
 10188 ;;
 10189                           
 10190                           	psect	text55
 10191  002814                     __ptext55:
 10192                           	opt stack 0
 10193  002814                     _USBConfigureEndpoint:
 10194                           	opt stack 18
 10195                           
 10196                           ;incstack = 0
 10197                           ;USBConfigureEndpoint@EPNum stored from wreg
 10198  002814  6E32               	movwf	USBConfigureEndpoint@EPNum,c
 10199                           
 10200                           ;usb_device.c: 1545: volatile BDT_ENTRY* handle;
 10201                           ;usb_device.c: 1549: handle = (volatile BDT_ENTRY*)&BDT[0];
 10202  002816  0E00               	movlw	0
 10203  002818  6E33               	movwf	USBConfigureEndpoint@handle,c
 10204  00281A  0E0D               	movlw	13
 10205  00281C  6E34               	movwf	USBConfigureEndpoint@handle+1,c
 10206                           
 10207                           ;usb_device.c: 1550: handle += (4*EPNum+2*direction+0u);
 10208  00281E  502D               	movf	USBConfigureEndpoint@direction,w,c
 10209  002820  6E2E               	movwf	??_USBConfigureEndpoint& (0+255),c
 10210  002822  6A2F               	clrf	(??_USBConfigureEndpoint+1)& (0+255),c
 10211  002824  90D8               	bcf	status,0,c
 10212  002826  362E               	rlcf	??_USBConfigureEndpoint,f,c
 10213  002828  362F               	rlcf	??_USBConfigureEndpoint+1,f,c
 10214  00282A  5032               	movf	USBConfigureEndpoint@EPNum,w,c
 10215  00282C  6E30               	movwf	(??_USBConfigureEndpoint+2)& (0+255),c
 10216  00282E  6A31               	clrf	(??_USBConfigureEndpoint+3)& (0+255),c
 10217  002830  90D8               	bcf	status,0,c
 10218  002832  3630               	rlcf	??_USBConfigureEndpoint+2,f,c
 10219  002834  3631               	rlcf	??_USBConfigureEndpoint+3,f,c
 10220  002836  90D8               	bcf	status,0,c
 10221  002838  3630               	rlcf	??_USBConfigureEndpoint+2,f,c
 10222  00283A  3631               	rlcf	??_USBConfigureEndpoint+3,f,c
 10223  00283C  502E               	movf	??_USBConfigureEndpoint,w,c
 10224  00283E  2630               	addwf	??_USBConfigureEndpoint+2,f,c
 10225  002840  502F               	movf	??_USBConfigureEndpoint+1,w,c
 10226  002842  2231               	addwfc	??_USBConfigureEndpoint+3,f,c
 10227  002844  90D8               	bcf	status,0,c
 10228  002846  3630               	rlcf	??_USBConfigureEndpoint+2,f,c
 10229  002848  3631               	rlcf	??_USBConfigureEndpoint+3,f,c
 10230  00284A  90D8               	bcf	status,0,c
 10231  00284C  3630               	rlcf	??_USBConfigureEndpoint+2,f,c
 10232  00284E  3631               	rlcf	??_USBConfigureEndpoint+3,f,c
 10233  002850  5030               	movf	??_USBConfigureEndpoint+2,w,c
 10234  002852  2633               	addwf	USBConfigureEndpoint@handle,f,c
 10235  002854  5031               	movf	??_USBConfigureEndpoint+3,w,c
 10236  002856  2234               	addwfc	USBConfigureEndpoint@handle+1,f,c
 10237                           
 10238                           ;usb_device.c: 1552: handle->STAT.UOWN = 0;
 10239  002858  C033  FFD9         	movff	USBConfigureEndpoint@handle,fsr2l
 10240  00285C  C034  FFDA         	movff	USBConfigureEndpoint@handle+1,fsr2h
 10241  002860  9EDF               	bcf	indf2,7,c
 10242                           
 10243                           ;usb_device.c: 1557: if(direction == 0)
 10244  002862  502D               	movf	USBConfigureEndpoint@direction,w,c
 10245  002864  A4D8               	btfss	status,2,c
 10246  002866  D007               	goto	i2l3264
 10247                           
 10248                           ;usb_device.c: 1558: {
 10249                           ;usb_device.c: 1559: pBDTEntryOut[EPNum] = handle;
 10250  002868  5032               	movf	USBConfigureEndpoint@EPNum,w,c
 10251  00286A  0D02               	mullw	2
 10252  00286C  0E6A               	movlw	low _pBDTEntryOut
 10253  00286E  24F3               	addwf	prodl,w,c
 10254  002870  6ED9               	movwf	fsr2l,c
 10255  002872  0E00               	movlw	high _pBDTEntryOut
 10256  002874  D006               	goto	L13
 10257  002876                     i2l3264:
 10258                           
 10259                           ;usb_device.c: 1561: else
 10260                           ;usb_device.c: 1562: {
 10261                           ;usb_device.c: 1563: pBDTEntryIn[EPNum] = handle;
 10262  002876  5032               	movf	USBConfigureEndpoint@EPNum,w,c
 10263  002878  0D02               	mullw	2
 10264  00287A  0E0A               	movlw	low _pBDTEntryIn
 10265  00287C  24F3               	addwf	prodl,w,c
 10266  00287E  6ED9               	movwf	fsr2l,c
 10267  002880  0E00               	movlw	high _pBDTEntryIn
 10268  002882                     L13:
 10269  002882  20F4               	addwfc	prodh,w,c
 10270  002884  6EDA               	movwf	fsr2h,c
 10271  002886  C033  FFDE         	movff	USBConfigureEndpoint@handle,postinc2
 10272  00288A  C034  FFDD         	movff	USBConfigureEndpoint@handle+1,postdec2
 10273  00288E  D000               	goto	i2l3266
 10274  002890                     i2l3266:
 10275                           
 10276                           ;usb_device.c: 1564: }
 10277                           ;usb_device.c: 1567: handle->STAT.DTS = 0;
 10278  002890  C033  FFD9         	movff	USBConfigureEndpoint@handle,fsr2l
 10279  002894  C034  FFDA         	movff	USBConfigureEndpoint@handle+1,fsr2h
 10280  002898  9CDF               	bcf	indf2,6,c
 10281                           
 10282                           ;usb_device.c: 1568: (handle+1)->STAT.DTS = 1;
 10283  00289A  EE20 F004          	lfsr	2,4
 10284  00289E  5033               	movf	USBConfigureEndpoint@handle,w,c
 10285  0028A0  26D9               	addwf	fsr2l,f,c
 10286  0028A2  5034               	movf	USBConfigureEndpoint@handle+1,w,c
 10287  0028A4  22DA               	addwfc	fsr2h,f,c
 10288  0028A6  8CDF               	bsf	indf2,6,c
 10289  0028A8  0012               	return		;funcret
 10290  0028AA                     __end_of_USBConfigureEndpoint:
 10291                           	opt stack 0
 10292                           pclatu	equ	0xFFB
 10293                           pclath	equ	0xFFA
 10294                           tblptru	equ	0xFF8
 10295                           tblptrh	equ	0xFF7
 10296                           tblptrl	equ	0xFF6
 10297                           tablat	equ	0xFF5
 10298                           prodh	equ	0xFF4
 10299                           prodl	equ	0xFF3
 10300                           intcon	equ	0xFF2
 10301                           intcon2	equ	0xFF1
 10302                           indf0	equ	0xFEF
 10303                           postinc0	equ	0xFEE
 10304                           fsr0h	equ	0xFEA
 10305                           fsr0l	equ	0xFE9
 10306                           wreg	equ	0xFE8
 10307                           indf1	equ	0xFE7
 10308                           postinc1	equ	0xFE6
 10309                           postdec1	equ	0xFE5
 10310                           fsr1h	equ	0xFE2
 10311                           fsr1l	equ	0xFE1
 10312                           indf2	equ	0xFDF
 10313                           postinc2	equ	0xFDE
 10314                           postdec2	equ	0xFDD
 10315                           plusw2	equ	0xFDB
 10316                           fsr2h	equ	0xFDA
 10317                           fsr2l	equ	0xFD9
 10318                           status	equ	0xFD8
 10319                           
 10320 ;; *************** function _USBCtrlTrfOutHandler *****************
 10321 ;; Defined at:
 10322 ;;		line 2541 in file "../My_header/usb_cdc/usb/usb_device.c"
 10323 ;; Parameters:    Size  Location     Type
 10324 ;;		None
 10325 ;; Auto vars:     Size  Location     Type
 10326 ;;		None
 10327 ;; Return value:  Size  Location     Type
 10328 ;;		None               void
 10329 ;; Registers used:
 10330 ;;		wreg, fsr1l, fsr1h, fsr2l, fsr2h, status,2, status,0, prodl, prodh, cstack
 10331 ;; Tracked objects:
 10332 ;;		On entry : 0/0
 10333 ;;		On exit  : 0/0
 10334 ;;		Unchanged: 0/0
 10335 ;; Data sizes:     COMRAM   BANK0   BANK1   BANK2   BANK3   BANK4   BANK5   BANK6   BANK7   BANK8   BANK9  BANK10  BANK1
      +1  BANK12  BANK13  BANK14
 10336 ;;      Params:         0       0       0       0       0       0       0       0       0       0       0       0       
      +0       0       0       0
 10337 ;;      Locals:         0       0       0       0       0       0       0       0       0       0       0       0       
      +0       0       0       0
 10338 ;;      Temps:          0       0       0       0       0       0       0       0       0       0       0       0       
      +0       0       0       0
 10339 ;;      Totals:         0       0       0       0       0       0       0       0       0       0       0       0       
      +0       0       0       0
 10340 ;;Total ram usage:        0 bytes
 10341 ;; Hardware stack levels used:    1
 10342 ;; Hardware stack levels required when called:    2
 10343 ;; This function calls:
 10344 ;;		_USBCtrlTrfRxService
 10345 ;; This function is called by:
 10346 ;;		_USBCtrlEPService
 10347 ;; This function uses a non-reentrant model
 10348 ;;
 10349                           
 10350                           	psect	text56
 10351  002B2C                     __ptext56:
 10352                           	opt stack 0
 10353  002B2C                     _USBCtrlTrfOutHandler:
 10354                           	opt stack 18
 10355                           
 10356                           ;usb_device.c: 2543: if(controlTransferState == 2)
 10357                           
 10358                           ;incstack = 0
 10359  002B2C  0E02               	movlw	2
 10360  002B2E  1822               	xorwf	_controlTransferState,w,c	;volatile
 10361  002B30  A4D8               	btfss	status,2,c
 10362  002B32  D003               	goto	i2l3898
 10363                           
 10364                           ;usb_device.c: 2544: {
 10365                           ;usb_device.c: 2545: USBCtrlTrfRxService();
 10366  002B34  EC9B  F00C         	call	_USBCtrlTrfRxService	;wreg free
 10367                           
 10368                           ;usb_device.c: 2546: }
 10369  002B38  0012               	return	
 10370  002B3A                     i2l3898:
 10371                           
 10372                           ;usb_device.c: 2547: else
 10373                           ;usb_device.c: 2548: {
 10374                           ;usb_device.c: 2551: controlTransferState = 0;
 10375  002B3A  0E00               	movlw	0
 10376  002B3C  6E22               	movwf	_controlTransferState,c	;volatile
 10377                           
 10378                           ;usb_device.c: 2558: if(BothEP0OutUOWNsSet == 0)
 10379  002B3E  5017               	movf	_BothEP0OutUOWNsSet,w,c	;volatile
 10380  002B40  A4D8               	btfss	status,2,c
 10381  002B42  D01F               	goto	i2l3906
 10382                           
 10383                           ;usb_device.c: 2559: {
 10384                           ;usb_device.c: 2560: pBDTEntryEP0OutNext->CNT = 8;
 10385  002B44  EE20 F001          	lfsr	2,1
 10386  002B48  5015               	movf	_pBDTEntryEP0OutNext,w,c
 10387  002B4A  26D9               	addwf	fsr2l,f,c
 10388  002B4C  5016               	movf	_pBDTEntryEP0OutNext+1,w,c
 10389  002B4E  22DA               	addwfc	fsr2h,f,c
 10390  002B50  0E08               	movlw	8
 10391  002B52  6EDF               	movwf	indf2,c
 10392                           
 10393                           ;usb_device.c: 2561: pBDTEntryEP0OutNext->ADR = ((uint16_t)(&SetupPkt));
 10394  002B54  EE20 F002          	lfsr	2,2
 10395  002B58  5015               	movf	_pBDTEntryEP0OutNext,w,c
 10396  002B5A  26D9               	addwf	fsr2l,f,c
 10397  002B5C  5016               	movf	_pBDTEntryEP0OutNext+1,w,c
 10398  002B5E  22DA               	addwfc	fsr2h,f,c
 10399  002B60  0E30               	movlw	48
 10400  002B62  6EDE               	movwf	postinc2,c
 10401  002B64  0E0D               	movlw	13
 10402  002B66  6EDD               	movwf	postdec2,c
 10403                           
 10404                           ;usb_device.c: 2562: pBDTEntryEP0OutNext->STAT.Val = 0x00|(0x08 & 0x08)|0x04;
 10405  002B68  C015  FFD9         	movff	_pBDTEntryEP0OutNext,fsr2l
 10406  002B6C  C016  FFDA         	movff	_pBDTEntryEP0OutNext+1,fsr2h
 10407  002B70  0E0C               	movlw	12
 10408  002B72  6EDF               	movwf	indf2,c
 10409                           
 10410                           ;usb_device.c: 2563: pBDTEntryEP0OutNext->STAT.Val |= 0x80;
 10411  002B74  C015  FFD9         	movff	_pBDTEntryEP0OutNext,fsr2l
 10412  002B78  C016  FFDA         	movff	_pBDTEntryEP0OutNext+1,fsr2h
 10413  002B7C  0E00               	movlw	0
 10414  002B7E  8EDB               	bsf	plusw2,7,c
 10415                           
 10416                           ;usb_device.c: 2564: }
 10417  002B80  0012               	return	
 10418  002B82                     i2l3906:
 10419                           
 10420                           ;usb_device.c: 2565: else
 10421                           ;usb_device.c: 2566: {
 10422                           ;usb_device.c: 2567: BothEP0OutUOWNsSet = 0;
 10423  002B82  0E00               	movlw	0
 10424  002B84  6E17               	movwf	_BothEP0OutUOWNsSet,c	;volatile
 10425  002B86  0012               	return	
 10426  002B88  0012               	return		;funcret
 10427  002B8A                     __end_of_USBCtrlTrfOutHandler:
 10428                           	opt stack 0
 10429                           pclatu	equ	0xFFB
 10430                           pclath	equ	0xFFA
 10431                           tblptru	equ	0xFF8
 10432                           tblptrh	equ	0xFF7
 10433                           tblptrl	equ	0xFF6
 10434                           tablat	equ	0xFF5
 10435                           prodh	equ	0xFF4
 10436                           prodl	equ	0xFF3
 10437                           intcon	equ	0xFF2
 10438                           intcon2	equ	0xFF1
 10439                           indf0	equ	0xFEF
 10440                           postinc0	equ	0xFEE
 10441                           fsr0h	equ	0xFEA
 10442                           fsr0l	equ	0xFE9
 10443                           wreg	equ	0xFE8
 10444                           indf1	equ	0xFE7
 10445                           postinc1	equ	0xFE6
 10446                           postdec1	equ	0xFE5
 10447                           fsr1h	equ	0xFE2
 10448                           fsr1l	equ	0xFE1
 10449                           indf2	equ	0xFDF
 10450                           postinc2	equ	0xFDE
 10451                           postdec2	equ	0xFDD
 10452                           plusw2	equ	0xFDB
 10453                           fsr2h	equ	0xFDA
 10454                           fsr2l	equ	0xFD9
 10455                           status	equ	0xFD8
 10456                           
 10457 ;; *************** function _USBCtrlTrfRxService *****************
 10458 ;; Defined at:
 10459 ;;		line 1852 in file "../My_header/usb_cdc/usb/usb_device.c"
 10460 ;; Parameters:    Size  Location     Type
 10461 ;;		None
 10462 ;; Auto vars:     Size  Location     Type
 10463 ;;  byteToRead      1    1[COMRAM] unsigned char 
 10464 ;;  i               1    0[COMRAM] unsigned char 
 10465 ;; Return value:  Size  Location     Type
 10466 ;;		None               void
 10467 ;; Registers used:
 10468 ;;		wreg, fsr1l, fsr1h, fsr2l, fsr2h, status,2, status,0, prodl, prodh, cstack
 10469 ;; Tracked objects:
 10470 ;;		On entry : 0/0
 10471 ;;		On exit  : 0/0
 10472 ;;		Unchanged: 0/0
 10473 ;; Data sizes:     COMRAM   BANK0   BANK1   BANK2   BANK3   BANK4   BANK5   BANK6   BANK7   BANK8   BANK9  BANK10  BANK1
      +1  BANK12  BANK13  BANK14
 10474 ;;      Params:         0       0       0       0       0       0       0       0       0       0       0       0       
      +0       0       0       0
 10475 ;;      Locals:         2       0       0       0       0       0       0       0       0       0       0       0       
      +0       0       0       0
 10476 ;;      Temps:          0       0       0       0       0       0       0       0       0       0       0       0       
      +0       0       0       0
 10477 ;;      Totals:         2       0       0       0       0       0       0       0       0       0       0       0       
      +0       0       0       0
 10478 ;;Total ram usage:        2 bytes
 10479 ;; Hardware stack levels used:    1
 10480 ;; Hardware stack levels required when called:    1
 10481 ;; This function calls:
 10482 ;;		_USBCtrlEPAllowStatusStage
 10483 ;; This function is called by:
 10484 ;;		_USBCtrlTrfOutHandler
 10485 ;; This function uses a non-reentrant model
 10486 ;;
 10487                           
 10488                           	psect	text57
 10489  001936                     __ptext57:
 10490                           	opt stack 0
 10491  001936                     _USBCtrlTrfRxService:
 10492                           	opt stack 18
 10493                           
 10494                           ;usb_device.c: 1854: uint8_t byteToRead;
 10495                           ;usb_device.c: 1855: uint8_t i;
 10496                           ;usb_device.c: 1859: byteToRead = pBDTEntryEP0OutCurrent->CNT;
 10497                           
 10498                           ;incstack = 0
 10499  001936  EE20 F001          	lfsr	2,1
 10500  00193A  5013               	movf	_pBDTEntryEP0OutCurrent,w,c
 10501  00193C  26D9               	addwf	fsr2l,f,c
 10502  00193E  5014               	movf	_pBDTEntryEP0OutCurrent+1,w,c
 10503  001940  22DA               	addwfc	fsr2h,f,c
 10504  001942  50DF               	movf	indf2,w,c
 10505  001944  6E2E               	movwf	USBCtrlTrfRxService@byteToRead,c
 10506                           
 10507                           ;usb_device.c: 1865: if(byteToRead > outPipes[0].wCount.Val)
 10508  001946  502E               	movf	USBCtrlTrfRxService@byteToRead,w,c
 10509  001948  5C05               	subwf	_outPipes+4,w,c	;volatile
 10510  00194A  0E00               	movlw	0
 10511  00194C  5806               	subwfb	_outPipes+5,w,c	;volatile
 10512  00194E  B0D8               	btfsc	status,0,c
 10513  001950  D003               	goto	i2l3728
 10514                           
 10515                           ;usb_device.c: 1866: {
 10516                           ;usb_device.c: 1867: byteToRead = outPipes[0].wCount.Val;
 10517  001952  C005  F02E         	movff	_outPipes+4,USBCtrlTrfRxService@byteToRead	;volatile
 10518  001956  D000               	goto	i2l3728
 10519  001958                     i2l3728:
 10520                           
 10521                           ;usb_device.c: 1868: }
 10522                           ;usb_device.c: 1870: outPipes[0].wCount.Val -= byteToRead;
 10523  001958  502E               	movf	USBCtrlTrfRxService@byteToRead,w,c
 10524  00195A  5E05               	subwf	_outPipes+4,f,c	;volatile
 10525  00195C  0E00               	movlw	0
 10526  00195E  5A06               	subwfb	_outPipes+5,f,c	;volatile
 10527                           
 10528                           ;usb_device.c: 1874: for(i=0;i<byteToRead;i++)
 10529  001960  0E00               	movlw	0
 10530  001962  6E2D               	movwf	USBCtrlTrfRxService@i,c
 10531  001964  D012               	goto	i2l3738
 10532  001966                     i2l3732:
 10533                           
 10534                           ;usb_device.c: 1875: {
 10535                           ;usb_device.c: 1876: *outPipes[0].pDst.bRam++ = CtrlTrfData[i];
 10536  001966  502D               	movf	USBCtrlTrfRxService@i,w,c
 10537  001968  0D01               	mullw	1
 10538  00196A  0E38               	movlw	56
 10539  00196C  24F3               	addwf	prodl,w,c
 10540  00196E  6ED9               	movwf	fsr2l,c
 10541  001970  0E0D               	movlw	13
 10542  001972  20F4               	addwfc	prodh,w,c
 10543  001974  6EDA               	movwf	fsr2h,c
 10544  001976  C001  FFE1         	movff	_outPipes,fsr1l	;volatile
 10545  00197A  C002  FFE2         	movff	_outPipes+1,fsr1h	;volatile
 10546  00197E  CFDF FFE7          	movff	indf2,indf1
 10547  001982  4A01               	infsnz	_outPipes,f,c	;volatile
 10548  001984  2A02               	incf	_outPipes+1,f,c	;volatile
 10549  001986  2A2D               	incf	USBCtrlTrfRxService@i,f,c
 10550  001988  D000               	goto	i2l3738
 10551  00198A                     i2l3738:
 10552  00198A  502E               	movf	USBCtrlTrfRxService@byteToRead,w,c
 10553  00198C  5C2D               	subwf	USBCtrlTrfRxService@i,w,c
 10554  00198E  A0D8               	btfss	status,0,c
 10555  001990  D7EA               	goto	i2l3732
 10556                           
 10557                           ;usb_device.c: 1877: }
 10558                           ;usb_device.c: 1881: if(outPipes[0].wCount.Val > 0)
 10559  001992  5005               	movf	_outPipes+4,w,c	;volatile
 10560  001994  1006               	iorwf	_outPipes+5,w,c	;volatile
 10561  001996  B4D8               	btfsc	status,2,c
 10562  001998  D032               	goto	i2l3754
 10563                           
 10564                           ;usb_device.c: 1882: {
 10565                           ;usb_device.c: 1883: pBDTEntryEP0OutNext->CNT = 8;
 10566  00199A  EE20 F001          	lfsr	2,1
 10567  00199E  5015               	movf	_pBDTEntryEP0OutNext,w,c
 10568  0019A0  26D9               	addwf	fsr2l,f,c
 10569  0019A2  5016               	movf	_pBDTEntryEP0OutNext+1,w,c
 10570  0019A4  22DA               	addwfc	fsr2h,f,c
 10571  0019A6  0E08               	movlw	8
 10572  0019A8  6EDF               	movwf	indf2,c
 10573                           
 10574                           ;usb_device.c: 1884: pBDTEntryEP0OutNext->ADR = ((uint16_t)(&CtrlTrfData));
 10575  0019AA  EE20 F002          	lfsr	2,2
 10576  0019AE  5015               	movf	_pBDTEntryEP0OutNext,w,c
 10577  0019B0  26D9               	addwf	fsr2l,f,c
 10578  0019B2  5016               	movf	_pBDTEntryEP0OutNext+1,w,c
 10579  0019B4  22DA               	addwfc	fsr2h,f,c
 10580  0019B6  0E38               	movlw	56
 10581  0019B8  6EDE               	movwf	postinc2,c
 10582  0019BA  0E0D               	movlw	13
 10583  0019BC  6EDD               	movwf	postdec2,c
 10584                           
 10585                           ;usb_device.c: 1885: if(pBDTEntryEP0OutCurrent->STAT.DTS == 0)
 10586  0019BE  C013  FFD9         	movff	_pBDTEntryEP0OutCurrent,fsr2l
 10587  0019C2  C014  FFDA         	movff	_pBDTEntryEP0OutCurrent+1,fsr2h
 10588  0019C6  BCDF               	btfsc	indf2,6,c
 10589  0019C8  D00D               	goto	i2l3750
 10590                           
 10591                           ;usb_device.c: 1886: {
 10592                           ;usb_device.c: 1887: pBDTEntryEP0OutNext->STAT.Val = 0x40|(0x08 & 0x08);
 10593  0019CA  C015  FFD9         	movff	_pBDTEntryEP0OutNext,fsr2l
 10594  0019CE  C016  FFDA         	movff	_pBDTEntryEP0OutNext+1,fsr2h
 10595  0019D2  0E48               	movlw	72
 10596  0019D4  6EDF               	movwf	indf2,c
 10597                           
 10598                           ;usb_device.c: 1888: pBDTEntryEP0OutNext->STAT.Val |= 0x80;
 10599  0019D6  C015  FFD9         	movff	_pBDTEntryEP0OutNext,fsr2l
 10600  0019DA  C016  FFDA         	movff	_pBDTEntryEP0OutNext+1,fsr2h
 10601  0019DE  0E00               	movlw	0
 10602  0019E0  8EDB               	bsf	plusw2,7,c
 10603                           
 10604                           ;usb_device.c: 1889: }
 10605  0019E2  0012               	return	
 10606  0019E4                     i2l3750:
 10607                           
 10608                           ;usb_device.c: 1890: else
 10609                           ;usb_device.c: 1891: {
 10610                           ;usb_device.c: 1892: pBDTEntryEP0OutNext->STAT.Val = 0x00|(0x08 & 0x08);
 10611  0019E4  C015  FFD9         	movff	_pBDTEntryEP0OutNext,fsr2l
 10612  0019E8  C016  FFDA         	movff	_pBDTEntryEP0OutNext+1,fsr2h
 10613  0019EC  0E08               	movlw	8
 10614  0019EE  6EDF               	movwf	indf2,c
 10615                           
 10616                           ;usb_device.c: 1893: pBDTEntryEP0OutNext->STAT.Val |= 0x80;
 10617  0019F0  C015  FFD9         	movff	_pBDTEntryEP0OutNext,fsr2l
 10618  0019F4  C016  FFDA         	movff	_pBDTEntryEP0OutNext+1,fsr2h
 10619  0019F8  0E00               	movlw	0
 10620  0019FA  8EDB               	bsf	plusw2,7,c
 10621                           
 10622                           ;usb_device.c: 1894: }
 10623                           ;usb_device.c: 1895: }
 10624  0019FC  0012               	return	
 10625  0019FE                     i2l3754:
 10626                           
 10627                           ;usb_device.c: 1896: else
 10628                           ;usb_device.c: 1897: {
 10629                           ;usb_device.c: 1901: pBDTEntryEP0OutNext->CNT = 8;
 10630  0019FE  EE20 F001          	lfsr	2,1
 10631  001A02  5015               	movf	_pBDTEntryEP0OutNext,w,c
 10632  001A04  26D9               	addwf	fsr2l,f,c
 10633  001A06  5016               	movf	_pBDTEntryEP0OutNext+1,w,c
 10634  001A08  22DA               	addwfc	fsr2h,f,c
 10635  001A0A  0E08               	movlw	8
 10636  001A0C  6EDF               	movwf	indf2,c
 10637                           
 10638                           ;usb_device.c: 1902: pBDTEntryEP0OutNext->ADR = ((uint16_t)(&SetupPkt));
 10639  001A0E  EE20 F002          	lfsr	2,2
 10640  001A12  5015               	movf	_pBDTEntryEP0OutNext,w,c
 10641  001A14  26D9               	addwf	fsr2l,f,c
 10642  001A16  5016               	movf	_pBDTEntryEP0OutNext+1,w,c
 10643  001A18  22DA               	addwfc	fsr2h,f,c
 10644  001A1A  0E30               	movlw	48
 10645  001A1C  6EDE               	movwf	postinc2,c
 10646  001A1E  0E0D               	movlw	13
 10647  001A20  6EDD               	movwf	postdec2,c
 10648                           
 10649                           ;usb_device.c: 1906: pBDTEntryEP0OutNext->STAT.Val = 0x04;
 10650  001A22  C015  FFD9         	movff	_pBDTEntryEP0OutNext,fsr2l
 10651  001A26  C016  FFDA         	movff	_pBDTEntryEP0OutNext+1,fsr2h
 10652  001A2A  0E04               	movlw	4
 10653  001A2C  6EDF               	movwf	indf2,c
 10654                           
 10655                           ;usb_device.c: 1907: pBDTEntryEP0OutNext->STAT.Val |= 0x80;
 10656  001A2E  C015  FFD9         	movff	_pBDTEntryEP0OutNext,fsr2l
 10657  001A32  C016  FFDA         	movff	_pBDTEntryEP0OutNext+1,fsr2h
 10658  001A36  0E00               	movlw	0
 10659  001A38  8EDB               	bsf	plusw2,7,c
 10660                           
 10661                           ;usb_device.c: 1926: }
 10662                           ;usb_device.c: 1927: outPipes[0].info.bits.busy = 0;
 10663                           
 10664                           ;usb_device.c: 1915: {
 10665                           ;usb_device.c: 1921: outPipes[0].pFunc();
 10666  001A3A  9E04               	bcf	_outPipes+3,7,c	;volatile
 10667                           
 10668                           ;usb_device.c: 1941: if(USBDeferStatusStagePacket == 0)
 10669  001A3C  501C               	movf	_USBDeferStatusStagePacket,w,c	;volatile
 10670  001A3E  A4D8               	btfss	status,2,c
 10671  001A40  0012               	return	
 10672                           
 10673                           ;usb_device.c: 1942: {
 10674                           ;usb_device.c: 1943: USBCtrlEPAllowStatusStage();
 10675  001A42  EC8F  F011         	call	_USBCtrlEPAllowStatusStage	;wreg free
 10676  001A46  0012               	return	
 10677  001A48  0012               	return		;funcret
 10678  001A4A                     __end_of_USBCtrlTrfRxService:
 10679                           	opt stack 0
 10680                           pclatu	equ	0xFFB
 10681                           pclath	equ	0xFFA
 10682                           tblptru	equ	0xFF8
 10683                           tblptrh	equ	0xFF7
 10684                           tblptrl	equ	0xFF6
 10685                           tablat	equ	0xFF5
 10686                           prodh	equ	0xFF4
 10687                           prodl	equ	0xFF3
 10688                           intcon	equ	0xFF2
 10689                           intcon2	equ	0xFF1
 10690                           indf0	equ	0xFEF
 10691                           postinc0	equ	0xFEE
 10692                           fsr0h	equ	0xFEA
 10693                           fsr0l	equ	0xFE9
 10694                           wreg	equ	0xFE8
 10695                           indf1	equ	0xFE7
 10696                           postinc1	equ	0xFE6
 10697                           postdec1	equ	0xFE5
 10698                           fsr1h	equ	0xFE2
 10699                           fsr1l	equ	0xFE1
 10700                           indf2	equ	0xFDF
 10701                           postinc2	equ	0xFDE
 10702                           postdec2	equ	0xFDD
 10703                           plusw2	equ	0xFDB
 10704                           fsr2h	equ	0xFDA
 10705                           fsr2l	equ	0xFD9
 10706                           status	equ	0xFD8
 10707                           
 10708 ;; *************** function _USBCtrlEPAllowStatusStage *****************
 10709 ;; Defined at:
 10710 ;;		line 1416 in file "../My_header/usb_cdc/usb/usb_device.c"
 10711 ;; Parameters:    Size  Location     Type
 10712 ;;		None
 10713 ;; Auto vars:     Size  Location     Type
 10714 ;;		None
 10715 ;; Return value:  Size  Location     Type
 10716 ;;		None               void
 10717 ;; Registers used:
 10718 ;;		wreg, fsr2l, fsr2h, status,2, status,0
 10719 ;; Tracked objects:
 10720 ;;		On entry : 0/0
 10721 ;;		On exit  : 0/0
 10722 ;;		Unchanged: 0/0
 10723 ;; Data sizes:     COMRAM   BANK0   BANK1   BANK2   BANK3   BANK4   BANK5   BANK6   BANK7   BANK8   BANK9  BANK10  BANK1
      +1  BANK12  BANK13  BANK14
 10724 ;;      Params:         0       0       0       0       0       0       0       0       0       0       0       0       
      +0       0       0       0
 10725 ;;      Locals:         0       0       0       0       0       0       0       0       0       0       0       0       
      +0       0       0       0
 10726 ;;      Temps:          0       0       0       0       0       0       0       0       0       0       0       0       
      +0       0       0       0
 10727 ;;      Totals:         0       0       0       0       0       0       0       0       0       0       0       0       
      +0       0       0       0
 10728 ;;Total ram usage:        0 bytes
 10729 ;; Hardware stack levels used:    1
 10730 ;; This function calls:
 10731 ;;		Nothing
 10732 ;; This function is called by:
 10733 ;;		_USBDeviceTasks
 10734 ;;		_USBCtrlEPServiceComplete
 10735 ;;		_USBCtrlTrfRxService
 10736 ;; This function uses a non-reentrant model
 10737 ;;
 10738                           
 10739                           	psect	text58
 10740  00231E                     __ptext58:
 10741                           	opt stack 0
 10742  00231E                     _USBCtrlEPAllowStatusStage:
 10743                           	opt stack 18
 10744                           
 10745                           ;usb_device.c: 1423: if(USBStatusStageEnabledFlag1 == 0)
 10746                           
 10747                           ;incstack = 0
 10748  00231E  501E               	movf	_USBStatusStageEnabledFlag1,w,c	;volatile
 10749  002320  A4D8               	btfss	status,2,c
 10750  002322  0012               	return	
 10751                           
 10752                           ;usb_device.c: 1424: {
 10753                           ;usb_device.c: 1425: USBStatusStageEnabledFlag1 = 1;
 10754  002324  0E01               	movlw	1
 10755  002326  6E1E               	movwf	_USBStatusStageEnabledFlag1,c	;volatile
 10756                           
 10757                           ;usb_device.c: 1426: if(USBStatusStageEnabledFlag2 == 0)
 10758  002328  501F               	movf	_USBStatusStageEnabledFlag2,w,c	;volatile
 10759  00232A  A4D8               	btfss	status,2,c
 10760  00232C  0012               	return	
 10761                           
 10762                           ;usb_device.c: 1427: {
 10763                           ;usb_device.c: 1428: USBStatusStageEnabledFlag2 = 1;
 10764  00232E  0E01               	movlw	1
 10765  002330  6E1F               	movwf	_USBStatusStageEnabledFlag2,c	;volatile
 10766                           
 10767                           ;usb_device.c: 1432: if(controlTransferState == 2)
 10768  002332  0E02               	movlw	2
 10769  002334  1822               	xorwf	_controlTransferState,w,c	;volatile
 10770  002336  A4D8               	btfss	status,2,c
 10771  002338  D015               	goto	i2l3444
 10772                           
 10773                           ;usb_device.c: 1433: {
 10774                           ;usb_device.c: 1434: pBDTEntryIn[0]->CNT = 0;
 10775  00233A  EE20 F001          	lfsr	2,1
 10776  00233E  500A               	movf	_pBDTEntryIn,w,c
 10777  002340  26D9               	addwf	fsr2l,f,c
 10778  002342  500B               	movf	_pBDTEntryIn+1,w,c
 10779  002344  22DA               	addwfc	fsr2h,f,c
 10780  002346  0E00               	movlw	0
 10781  002348  6EDF               	movwf	indf2,c
 10782                           
 10783                           ;usb_device.c: 1435: pBDTEntryIn[0]->STAT.Val = 0x40|(0x08 & 0x08);
 10784  00234A  C00A  FFD9         	movff	_pBDTEntryIn,fsr2l
 10785  00234E  C00B  FFDA         	movff	_pBDTEntryIn+1,fsr2h
 10786  002352  0E48               	movlw	72
 10787  002354  6EDF               	movwf	indf2,c
 10788                           
 10789                           ;usb_device.c: 1436: pBDTEntryIn[0]->STAT.Val |= 0x80;
 10790  002356  C00A  FFD9         	movff	_pBDTEntryIn,fsr2l
 10791  00235A  C00B  FFDA         	movff	_pBDTEntryIn+1,fsr2h
 10792  00235E  0E00               	movlw	0
 10793  002360  8EDB               	bsf	plusw2,7,c
 10794                           
 10795                           ;usb_device.c: 1437: }
 10796  002362  0012               	return	
 10797  002364                     i2l3444:
 10798                           
 10799                           ;usb_device.c: 1438: else if(controlTransferState == 1)
 10800  002364  0422               	decf	_controlTransferState,w,c	;volatile
 10801  002366  A4D8               	btfss	status,2,c
 10802  002368  0012               	return	
 10803                           
 10804                           ;usb_device.c: 1439: {
 10805                           ;usb_device.c: 1440: BothEP0OutUOWNsSet = 0;
 10806  00236A  0E00               	movlw	0
 10807  00236C  6E17               	movwf	_BothEP0OutUOWNsSet,c	;volatile
 10808                           
 10809                           ;usb_device.c: 1445: pBDTEntryEP0OutCurrent->CNT = 8;
 10810  00236E  EE20 F001          	lfsr	2,1
 10811  002372  5013               	movf	_pBDTEntryEP0OutCurrent,w,c
 10812  002374  26D9               	addwf	fsr2l,f,c
 10813  002376  5014               	movf	_pBDTEntryEP0OutCurrent+1,w,c
 10814  002378  22DA               	addwfc	fsr2h,f,c
 10815  00237A  0E08               	movlw	8
 10816  00237C  6EDF               	movwf	indf2,c
 10817                           
 10818                           ;usb_device.c: 1446: pBDTEntryEP0OutCurrent->ADR = ((uint16_t)(&SetupPkt));
 10819  00237E  EE20 F002          	lfsr	2,2
 10820  002382  5013               	movf	_pBDTEntryEP0OutCurrent,w,c
 10821  002384  26D9               	addwf	fsr2l,f,c
 10822  002386  5014               	movf	_pBDTEntryEP0OutCurrent+1,w,c
 10823  002388  22DA               	addwfc	fsr2h,f,c
 10824  00238A  0E30               	movlw	48
 10825  00238C  6EDE               	movwf	postinc2,c
 10826  00238E  0E0D               	movlw	13
 10827  002390  6EDD               	movwf	postdec2,c
 10828                           
 10829                           ;usb_device.c: 1447: pBDTEntryEP0OutCurrent->STAT.Val = 0x04;
 10830  002392  C013  FFD9         	movff	_pBDTEntryEP0OutCurrent,fsr2l
 10831  002396  C014  FFDA         	movff	_pBDTEntryEP0OutCurrent+1,fsr2h
 10832  00239A  0E04               	movlw	4
 10833  00239C  6EDF               	movwf	indf2,c
 10834                           
 10835                           ;usb_device.c: 1448: pBDTEntryEP0OutCurrent->STAT.Val |= 0x80;
 10836  00239E  C013  FFD9         	movff	_pBDTEntryEP0OutCurrent,fsr2l
 10837  0023A2  C014  FFDA         	movff	_pBDTEntryEP0OutCurrent+1,fsr2h
 10838  0023A6  0E00               	movlw	0
 10839  0023A8  8EDB               	bsf	plusw2,7,c
 10840                           
 10841                           ;usb_device.c: 1449: BothEP0OutUOWNsSet = 1;
 10842  0023AA  0E01               	movlw	1
 10843  0023AC  6E17               	movwf	_BothEP0OutUOWNsSet,c	;volatile
 10844                           
 10845                           ;usb_device.c: 1453: pBDTEntryEP0OutNext->CNT = 8;
 10846  0023AE  EE20 F001          	lfsr	2,1
 10847  0023B2  5015               	movf	_pBDTEntryEP0OutNext,w,c
 10848  0023B4  26D9               	addwf	fsr2l,f,c
 10849  0023B6  5016               	movf	_pBDTEntryEP0OutNext+1,w,c
 10850  0023B8  22DA               	addwfc	fsr2h,f,c
 10851  0023BA  0E08               	movlw	8
 10852  0023BC  6EDF               	movwf	indf2,c
 10853                           
 10854                           ;usb_device.c: 1454: pBDTEntryEP0OutNext->ADR = ((uint16_t)(&SetupPkt));
 10855  0023BE  EE20 F002          	lfsr	2,2
 10856  0023C2  5015               	movf	_pBDTEntryEP0OutNext,w,c
 10857  0023C4  26D9               	addwf	fsr2l,f,c
 10858  0023C6  5016               	movf	_pBDTEntryEP0OutNext+1,w,c
 10859  0023C8  22DA               	addwfc	fsr2h,f,c
 10860  0023CA  0E30               	movlw	48
 10861  0023CC  6EDE               	movwf	postinc2,c
 10862  0023CE  0E0D               	movlw	13
 10863  0023D0  6EDD               	movwf	postdec2,c
 10864                           
 10865                           ;usb_device.c: 1455: pBDTEntryEP0OutNext->STAT.Val = 0x80;
 10866  0023D2  C015  FFD9         	movff	_pBDTEntryEP0OutNext,fsr2l
 10867  0023D6  C016  FFDA         	movff	_pBDTEntryEP0OutNext+1,fsr2h
 10868  0023DA  0E80               	movlw	128
 10869  0023DC  6EDF               	movwf	indf2,c
 10870  0023DE  0012               	return	
 10871  0023E0  0012               	return		;funcret
 10872  0023E2                     __end_of_USBCtrlEPAllowStatusStage:
 10873                           	opt stack 0
 10874                           pclatu	equ	0xFFB
 10875                           pclath	equ	0xFFA
 10876                           tblptru	equ	0xFF8
 10877                           tblptrh	equ	0xFF7
 10878                           tblptrl	equ	0xFF6
 10879                           tablat	equ	0xFF5
 10880                           prodh	equ	0xFF4
 10881                           prodl	equ	0xFF3
 10882                           intcon	equ	0xFF2
 10883                           intcon2	equ	0xFF1
 10884                           indf0	equ	0xFEF
 10885                           postinc0	equ	0xFEE
 10886                           fsr0h	equ	0xFEA
 10887                           fsr0l	equ	0xFE9
 10888                           wreg	equ	0xFE8
 10889                           indf1	equ	0xFE7
 10890                           postinc1	equ	0xFE6
 10891                           postdec1	equ	0xFE5
 10892                           fsr1h	equ	0xFE2
 10893                           fsr1l	equ	0xFE1
 10894                           indf2	equ	0xFDF
 10895                           postinc2	equ	0xFDE
 10896                           postdec2	equ	0xFDD
 10897                           plusw2	equ	0xFDB
 10898                           fsr2h	equ	0xFDA
 10899                           fsr2l	equ	0xFD9
 10900                           status	equ	0xFD8
 10901                           
 10902 ;; *************** function _USBCtrlTrfInHandler *****************
 10903 ;; Defined at:
 10904 ;;		line 2595 in file "../My_header/usb_cdc/usb/usb_device.c"
 10905 ;; Parameters:    Size  Location     Type
 10906 ;;		None
 10907 ;; Auto vars:     Size  Location     Type
 10908 ;;  lastDTS         1    1[COMRAM] unsigned char 
 10909 ;; Return value:  Size  Location     Type
 10910 ;;		None               void
 10911 ;; Registers used:
 10912 ;;		wreg, fsr0l, fsr0h, fsr2l, fsr2h, status,2, status,0, tblptrl, tblptrh, tblptru, cstack
 10913 ;; Tracked objects:
 10914 ;;		On entry : 0/0
 10915 ;;		On exit  : 0/0
 10916 ;;		Unchanged: 0/0
 10917 ;; Data sizes:     COMRAM   BANK0   BANK1   BANK2   BANK3   BANK4   BANK5   BANK6   BANK7   BANK8   BANK9  BANK10  BANK1
      +1  BANK12  BANK13  BANK14
 10918 ;;      Params:         0       0       0       0       0       0       0       0       0       0       0       0       
      +0       0       0       0
 10919 ;;      Locals:         1       0       0       0       0       0       0       0       0       0       0       0       
      +0       0       0       0
 10920 ;;      Temps:          0       0       0       0       0       0       0       0       0       0       0       0       
      +0       0       0       0
 10921 ;;      Totals:         1       0       0       0       0       0       0       0       0       0       0       0       
      +0       0       0       0
 10922 ;;Total ram usage:        1 bytes
 10923 ;; Hardware stack levels used:    1
 10924 ;; Hardware stack levels required when called:    1
 10925 ;; This function calls:
 10926 ;;		_USBCtrlTrfTxService
 10927 ;; This function is called by:
 10928 ;;		_USBCtrlEPService
 10929 ;; This function uses a non-reentrant model
 10930 ;;
 10931                           
 10932                           	psect	text59
 10933  0023E2                     __ptext59:
 10934                           	opt stack 0
 10935  0023E2                     _USBCtrlTrfInHandler:
 10936                           	opt stack 19
 10937                           
 10938                           ;usb_device.c: 2597: uint8_t lastDTS;
 10939                           ;usb_device.c: 2599: lastDTS = pBDTEntryIn[0]->STAT.DTS;
 10940                           
 10941                           ;incstack = 0
 10942  0023E2  C00A  FFD9         	movff	_pBDTEntryIn,fsr2l
 10943  0023E6  C00B  FFDA         	movff	_pBDTEntryIn+1,fsr2h
 10944  0023EA  0E00               	movlw	0
 10945  0023EC  BCDF               	btfsc	indf2,6,c
 10946  0023EE  0E01               	movlw	1
 10947  0023F0  6E2E               	movwf	USBCtrlTrfInHandler@lastDTS,c
 10948                           
 10949                           ;usb_device.c: 2602: ((uint8_t_VAL*)&pBDTEntryIn[0])->Val ^= 0x0004;
 10950  0023F2  0E04               	movlw	4
 10951  0023F4  1A0A               	xorwf	_pBDTEntryIn,f,c
 10952                           
 10953                           ;usb_device.c: 2607: if(USBDeviceState == ADR_PENDING_STATE)
 10954  0023F6  0E08               	movlw	8
 10955  0023F8  181D               	xorwf	_USBDeviceState,w,c	;volatile
 10956  0023FA  A4D8               	btfss	status,2,c
 10957  0023FC  D00E               	goto	i2l3922
 10958                           
 10959                           ;usb_device.c: 2608: {
 10960                           ;usb_device.c: 2609: UADDR = (SetupPkt.bDevADR & 0x7F);
 10961  0023FE  010D               	movlb	13	; () banked
 10962  002400  5132               	movf	50,w,b	;volatile
 10963  002402  0B7F               	andlw	127
 10964  002404  010F               	movlb	15	; () banked
 10965  002406  6F38               	movwf	56,b	;volatile
 10966                           
 10967                           ; BSR set to: 15
 10968                           ;usb_device.c: 2610: if(UADDR != 0u)
 10969  002408  010F               	movlb	15	; () banked
 10970  00240A  5138               	movf	56,w,b	;volatile
 10971  00240C  B4D8               	btfsc	status,2,c
 10972  00240E  D002               	goto	i2l3920
 10973                           
 10974                           ; BSR set to: 15
 10975                           ;usb_device.c: 2611: {
 10976                           ;usb_device.c: 2612: USBDeviceState=ADDRESS_STATE;
 10977  002410  0E10               	movlw	16
 10978  002412  D001               	goto	L14
 10979  002414                     i2l3920:
 10980                           
 10981                           ; BSR set to: 15
 10982                           ;usb_device.c: 2614: else
 10983                           ;usb_device.c: 2615: {
 10984                           ;usb_device.c: 2616: USBDeviceState=DEFAULT_STATE;
 10985  002414  0E04               	movlw	4
 10986  002416                     L14:
 10987  002416  6E1D               	movwf	_USBDeviceState,c	;volatile
 10988                           
 10989                           ; BSR set to: 15
 10990  002418  D000               	goto	i2l3922
 10991  00241A                     i2l3922:
 10992                           
 10993                           ;usb_device.c: 2617: }
 10994                           ;usb_device.c: 2618: }
 10995                           ;usb_device.c: 2621: if(controlTransferState == 1)
 10996  00241A  0422               	decf	_controlTransferState,w,c	;volatile
 10997  00241C  A4D8               	btfss	status,2,c
 10998  00241E  D03A               	goto	i2l331
 10999                           
 11000                           ;usb_device.c: 2622: {
 11001                           ;usb_device.c: 2623: pBDTEntryIn[0]->ADR = ((uint16_t)(CtrlTrfData));
 11002  002420  EE20 F002          	lfsr	2,2
 11003  002424  500A               	movf	_pBDTEntryIn,w,c
 11004  002426  26D9               	addwf	fsr2l,f,c
 11005  002428  500B               	movf	_pBDTEntryIn+1,w,c
 11006  00242A  22DA               	addwfc	fsr2h,f,c
 11007  00242C  0E38               	movlw	56
 11008  00242E  6EDE               	movwf	postinc2,c
 11009  002430  0E0D               	movlw	13
 11010  002432  6EDD               	movwf	postdec2,c
 11011                           
 11012                           ;usb_device.c: 2624: USBCtrlTrfTxService();
 11013  002434  EC05  F00F         	call	_USBCtrlTrfTxService	;wreg free
 11014                           
 11015                           ;usb_device.c: 2630: if(shortPacketStatus == 2)
 11016  002438  0E02               	movlw	2
 11017  00243A  1824               	xorwf	_shortPacketStatus,w,c	;volatile
 11018  00243C  A4D8               	btfss	status,2,c
 11019  00243E  D00D               	goto	i2l3934
 11020                           
 11021                           ;usb_device.c: 2631: {
 11022                           ;usb_device.c: 2634: pBDTEntryIn[0]->STAT.Val = 0x04;
 11023  002440  C00A  FFD9         	movff	_pBDTEntryIn,fsr2l
 11024  002444  C00B  FFDA         	movff	_pBDTEntryIn+1,fsr2h
 11025  002448  0E04               	movlw	4
 11026  00244A  6EDF               	movwf	indf2,c
 11027                           
 11028                           ;usb_device.c: 2635: pBDTEntryIn[0]->STAT.Val |= 0x80;
 11029  00244C  C00A  FFD9         	movff	_pBDTEntryIn,fsr2l
 11030  002450  C00B  FFDA         	movff	_pBDTEntryIn+1,fsr2h
 11031  002454  0E00               	movlw	0
 11032  002456  8EDB               	bsf	plusw2,7,c
 11033                           
 11034                           ;usb_device.c: 2636: }
 11035  002458  0012               	return	
 11036  00245A                     i2l3934:
 11037                           
 11038                           ;usb_device.c: 2637: else
 11039                           ;usb_device.c: 2638: {
 11040                           ;usb_device.c: 2639: if(lastDTS == 0)
 11041  00245A  502E               	movf	USBCtrlTrfInHandler@lastDTS,w,c
 11042  00245C  A4D8               	btfss	status,2,c
 11043  00245E  D00D               	goto	i2l3940
 11044                           
 11045                           ;usb_device.c: 2640: {
 11046                           ;usb_device.c: 2641: pBDTEntryIn[0]->STAT.Val = 0x40|(0x08 & 0x08);
 11047  002460  C00A  FFD9         	movff	_pBDTEntryIn,fsr2l
 11048  002464  C00B  FFDA         	movff	_pBDTEntryIn+1,fsr2h
 11049  002468  0E48               	movlw	72
 11050  00246A  6EDF               	movwf	indf2,c
 11051                           
 11052                           ;usb_device.c: 2642: pBDTEntryIn[0]->STAT.Val |= 0x80;
 11053  00246C  C00A  FFD9         	movff	_pBDTEntryIn,fsr2l
 11054  002470  C00B  FFDA         	movff	_pBDTEntryIn+1,fsr2h
 11055  002474  0E00               	movlw	0
 11056  002476  8EDB               	bsf	plusw2,7,c
 11057                           
 11058                           ;usb_device.c: 2643: }
 11059  002478  0012               	return	
 11060  00247A                     i2l3940:
 11061                           
 11062                           ;usb_device.c: 2644: else
 11063                           ;usb_device.c: 2645: {
 11064                           ;usb_device.c: 2646: pBDTEntryIn[0]->STAT.Val = 0x00|(0x08 & 0x08);
 11065  00247A  C00A  FFD9         	movff	_pBDTEntryIn,fsr2l
 11066  00247E  C00B  FFDA         	movff	_pBDTEntryIn+1,fsr2h
 11067  002482  0E08               	movlw	8
 11068  002484  6EDF               	movwf	indf2,c
 11069                           
 11070                           ;usb_device.c: 2647: pBDTEntryIn[0]->STAT.Val |= 0x80;
 11071  002486  C00A  FFD9         	movff	_pBDTEntryIn,fsr2l
 11072  00248A  C00B  FFDA         	movff	_pBDTEntryIn+1,fsr2h
 11073  00248E  0E00               	movlw	0
 11074  002490  8EDB               	bsf	plusw2,7,c
 11075                           
 11076                           ;usb_device.c: 2648: }
 11077                           ;usb_device.c: 2649: }
 11078                           ;usb_device.c: 2650: }
 11079  002492  0012               	return	
 11080  002494                     i2l331:
 11081                           
 11082                           ;usb_device.c: 2651: else
 11083                           ;usb_device.c: 2652: {
 11084                           ;usb_device.c: 2656: if(outPipes[0].info.bits.busy == 1)
 11085  002494  AE04               	btfss	_outPipes+3,7,c	;volatile
 11086  002496  D002               	goto	i2l3946
 11087                           
 11088                           ;usb_device.c: 2661: }
 11089                           ;usb_device.c: 2662: outPipes[0].info.bits.busy = 0;
 11090                           
 11091                           ;usb_device.c: 2659: {
 11092                           ;usb_device.c: 2660: outPipes[0].pFunc();
 11093  002498  9E04               	bcf	_outPipes+3,7,c	;volatile
 11094  00249A  D000               	goto	i2l3946
 11095  00249C                     i2l3946:
 11096                           
 11097                           ;usb_device.c: 2663: }
 11098                           ;usb_device.c: 2665: controlTransferState = 0;
 11099  00249C  0E00               	movlw	0
 11100  00249E  6E22               	movwf	_controlTransferState,c	;volatile
 11101  0024A0  0012               	return	
 11102  0024A2  0012               	return		;funcret
 11103  0024A4                     __end_of_USBCtrlTrfInHandler:
 11104                           	opt stack 0
 11105                           pclatu	equ	0xFFB
 11106                           pclath	equ	0xFFA
 11107                           tblptru	equ	0xFF8
 11108                           tblptrh	equ	0xFF7
 11109                           tblptrl	equ	0xFF6
 11110                           tablat	equ	0xFF5
 11111                           prodh	equ	0xFF4
 11112                           prodl	equ	0xFF3
 11113                           intcon	equ	0xFF2
 11114                           intcon2	equ	0xFF1
 11115                           indf0	equ	0xFEF
 11116                           postinc0	equ	0xFEE
 11117                           fsr0h	equ	0xFEA
 11118                           fsr0l	equ	0xFE9
 11119                           wreg	equ	0xFE8
 11120                           indf1	equ	0xFE7
 11121                           postinc1	equ	0xFE6
 11122                           postdec1	equ	0xFE5
 11123                           fsr1h	equ	0xFE2
 11124                           fsr1l	equ	0xFE1
 11125                           indf2	equ	0xFDF
 11126                           postinc2	equ	0xFDE
 11127                           postdec2	equ	0xFDD
 11128                           plusw2	equ	0xFDB
 11129                           fsr2h	equ	0xFDA
 11130                           fsr2l	equ	0xFD9
 11131                           status	equ	0xFD8
 11132                           
 11133 ;; *************** function _USBCtrlTrfTxService *****************
 11134 ;; Defined at:
 11135 ;;		line 1771 in file "../My_header/usb_cdc/usb/usb_device.c"
 11136 ;; Parameters:    Size  Location     Type
 11137 ;;		None
 11138 ;; Auto vars:     Size  Location     Type
 11139 ;;  byteToSend      1    0[COMRAM] unsigned char 
 11140 ;; Return value:  Size  Location     Type
 11141 ;;		None               void
 11142 ;; Registers used:
 11143 ;;		wreg, fsr0l, fsr0h, fsr2l, fsr2h, status,2, status,0, tblptrl, tblptrh, tblptru
 11144 ;; Tracked objects:
 11145 ;;		On entry : 0/0
 11146 ;;		On exit  : 0/0
 11147 ;;		Unchanged: 0/0
 11148 ;; Data sizes:     COMRAM   BANK0   BANK1   BANK2   BANK3   BANK4   BANK5   BANK6   BANK7   BANK8   BANK9  BANK10  BANK1
      +1  BANK12  BANK13  BANK14
 11149 ;;      Params:         0       0       0       0       0       0       0       0       0       0       0       0       
      +0       0       0       0
 11150 ;;      Locals:         1       0       0       0       0       0       0       0       0       0       0       0       
      +0       0       0       0
 11151 ;;      Temps:          0       0       0       0       0       0       0       0       0       0       0       0       
      +0       0       0       0
 11152 ;;      Totals:         1       0       0       0       0       0       0       0       0       0       0       0       
      +0       0       0       0
 11153 ;;Total ram usage:        1 bytes
 11154 ;; Hardware stack levels used:    1
 11155 ;; This function calls:
 11156 ;;		Nothing
 11157 ;; This function is called by:
 11158 ;;		_USBCtrlEPAllowDataStage
 11159 ;;		_USBCtrlTrfInHandler
 11160 ;; This function uses a non-reentrant model
 11161 ;;
 11162                           
 11163                           	psect	text60
 11164  001E0A                     __ptext60:
 11165                           	opt stack 0
 11166  001E0A                     _USBCtrlTrfTxService:
 11167                           	opt stack 17
 11168                           
 11169                           ;usb_device.c: 1773: uint8_t byteToSend;
 11170                           ;usb_device.c: 1777: byteToSend = 8;
 11171                           
 11172                           ;incstack = 0
 11173  001E0A  0E08               	movlw	8
 11174  001E0C  6E2D               	movwf	USBCtrlTrfTxService@byteToSend,c
 11175                           
 11176                           ;usb_device.c: 1778: if(inPipes[0].wCount.Val < (uint8_t)8)
 11177  001E0E  502A               	movf	_inPipes+5,w,c	;volatile
 11178  001E10  E111               	bnz	i2l3392
 11179  001E12  0E08               	movlw	8
 11180  001E14  5C29               	subwf	_inPipes+4,w,c	;volatile
 11181  001E16  B0D8               	btfsc	status,0,c
 11182  001E18  D00D               	goto	i2l3392
 11183                           
 11184                           ;usb_device.c: 1779: {
 11185                           ;usb_device.c: 1780: byteToSend = inPipes[0].wCount.Val;
 11186  001E1A  C029  F02D         	movff	_inPipes+4,USBCtrlTrfTxService@byteToSend	;volatile
 11187                           
 11188                           ;usb_device.c: 1787: if(shortPacketStatus == 0)
 11189  001E1E  5024               	movf	_shortPacketStatus,w,c	;volatile
 11190  001E20  A4D8               	btfss	status,2,c
 11191  001E22  D002               	goto	i2l3388
 11192                           
 11193                           ;usb_device.c: 1788: {
 11194                           ;usb_device.c: 1789: shortPacketStatus = 1;
 11195  001E24  0E01               	movlw	1
 11196  001E26  D004               	goto	L15
 11197  001E28                     i2l3388:
 11198                           
 11199                           ;usb_device.c: 1791: else if(shortPacketStatus == 1)
 11200  001E28  0424               	decf	_shortPacketStatus,w,c	;volatile
 11201  001E2A  A4D8               	btfss	status,2,c
 11202  001E2C  D003               	goto	i2l3392
 11203                           
 11204                           ;usb_device.c: 1792: {
 11205                           ;usb_device.c: 1793: shortPacketStatus = 2;
 11206  001E2E  0E02               	movlw	2
 11207  001E30                     L15:
 11208  001E30  6E24               	movwf	_shortPacketStatus,c	;volatile
 11209  001E32  D000               	goto	i2l3392
 11210  001E34                     i2l3392:
 11211                           
 11212                           ;usb_device.c: 1794: }
 11213                           ;usb_device.c: 1795: }
 11214                           ;usb_device.c: 1799: inPipes[0].wCount.Val -= byteToSend;
 11215  001E34  502D               	movf	USBCtrlTrfTxService@byteToSend,w,c
 11216  001E36  5E29               	subwf	_inPipes+4,f,c	;volatile
 11217  001E38  0E00               	movlw	0
 11218  001E3A  5A2A               	subwfb	_inPipes+5,f,c	;volatile
 11219                           
 11220                           ;usb_device.c: 1804: pBDTEntryIn[0]->CNT = byteToSend;
 11221  001E3C  EE20 F001          	lfsr	2,1
 11222  001E40  500A               	movf	_pBDTEntryIn,w,c
 11223  001E42  26D9               	addwf	fsr2l,f,c
 11224  001E44  500B               	movf	_pBDTEntryIn+1,w,c
 11225  001E46  22DA               	addwfc	fsr2h,f,c
 11226  001E48  C02D  FFDF         	movff	USBCtrlTrfTxService@byteToSend,indf2
 11227                           
 11228                           ;usb_device.c: 1808: pDst = (volatile uint8_t*)CtrlTrfData;
 11229  001E4C  0E38               	movlw	56
 11230  001E4E  0100               	movlb	0	; () banked
 11231  001E50  6F86               	movwf	_pDst& (0+255),b
 11232  001E52  0E0D               	movlw	13
 11233  001E54  0100               	movlb	0	; () banked
 11234  001E56  6F87               	movwf	(_pDst+1)& (0+255),b
 11235                           
 11236                           ; BSR set to: 0
 11237                           ;usb_device.c: 1809: if(inPipes[0].info.bits.ctrl_trf_mem == 0x00)
 11238  001E58  A028               	btfss	_inPipes+3,0,c	;volatile
 11239  001E5A  D01F               	goto	i2l3410
 11240  001E5C  D041               	goto	i2l3420
 11241                           
 11242                           ; BSR set to: 0
 11243                           ;usb_device.c: 1810: {
 11244                           ;usb_device.c: 1811: while(byteToSend)
 11245  001E5E  D01D               	goto	i2l3410
 11246  001E60                     i2l3402:
 11247                           
 11248                           ; BSR set to: 0
 11249                           ;usb_device.c: 1812: {
 11250                           ;usb_device.c: 1813: *pDst++ = *inPipes[0].pSrc.bRom++;
 11251  001E60  C025  FFF6         	movff	_inPipes,tblptrl	;volatile
 11252  001E64  C026  FFF7         	movff	_inPipes+1,tblptrh	;volatile
 11253  001E68  0E00               	movlw	low (__smallconst shr (0+16))
 11254  001E6A  6EF8               	movwf	tblptru,c
 11255  001E6C  C086  FFD9         	movff	_pDst,fsr2l
 11256  001E70  C087  FFDA         	movff	_pDst+1,fsr2h
 11257  001E74  0E0E               	movlw	(high __ramtop+-1)
 11258  001E76  64F7               	cpfsgt	tblptrh,c
 11259  001E78  D003               	bra	i2u222_47
 11260  001E7A  0008               	tblrd		*
 11261  001E7C  50F5               	movf	tablat,w,c
 11262  001E7E  D005               	bra	i2u222_40
 11263  001E80                     i2u222_47:
 11264  001E80  CFF6 FFE9          	movff	tblptrl,fsr0l
 11265  001E84  CFF7 FFEA          	movff	tblptrh,fsr0h
 11266  001E88  50EF               	movf	indf0,w,c
 11267  001E8A                     i2u222_40:
 11268  001E8A  6EDF               	movwf	indf2,c
 11269  001E8C  4A25               	infsnz	_inPipes,f,c	;volatile
 11270  001E8E  2A26               	incf	_inPipes+1,f,c	;volatile
 11271  001E90  0100               	movlb	0	; () banked
 11272  001E92  4B86               	infsnz	_pDst& (0+255),f,b
 11273  001E94  2B87               	incf	(_pDst+1)& (0+255),f,b
 11274                           
 11275                           ; BSR set to: 0
 11276                           ;usb_device.c: 1814: byteToSend--;
 11277  001E96  062D               	decf	USBCtrlTrfTxService@byteToSend,f,c
 11278  001E98  D000               	goto	i2l3410
 11279  001E9A                     i2l3410:
 11280                           
 11281                           ; BSR set to: 0
 11282  001E9A  502D               	movf	USBCtrlTrfTxService@byteToSend,w,c
 11283  001E9C  B4D8               	btfsc	status,2,c
 11284  001E9E  0012               	return	
 11285  001EA0  D7DF               	goto	i2l3402
 11286                           
 11287                           ; BSR set to: 0
 11288                           ;usb_device.c: 1815: }
 11289                           ;usb_device.c: 1816: }
 11290  001EA2  0012               	return	
 11291                           
 11292                           ; BSR set to: 0
 11293                           ;usb_device.c: 1817: else
 11294                           ;usb_device.c: 1818: {
 11295                           ;usb_device.c: 1819: while(byteToSend)
 11296  001EA4  D01D               	goto	i2l3420
 11297  001EA6                     i2l3412:
 11298                           
 11299                           ; BSR set to: 0
 11300                           ;usb_device.c: 1820: {
 11301                           ;usb_device.c: 1821: *pDst++ = *inPipes[0].pSrc.bRam++;
 11302  001EA6  C025  FFF6         	movff	_inPipes,tblptrl	;volatile
 11303  001EAA  C026  FFF7         	movff	_inPipes+1,tblptrh	;volatile
 11304  001EAE  0E00               	movlw	low (__smallconst shr (0+16))
 11305  001EB0  6EF8               	movwf	tblptru,c
 11306  001EB2  C086  FFD9         	movff	_pDst,fsr2l
 11307  001EB6  C087  FFDA         	movff	_pDst+1,fsr2h
 11308  001EBA  0E0E               	movlw	(high __ramtop+-1)
 11309  001EBC  64F7               	cpfsgt	tblptrh,c
 11310  001EBE  D003               	bra	i2u224_47
 11311  001EC0  0008               	tblrd		*
 11312  001EC2  50F5               	movf	tablat,w,c
 11313  001EC4  D005               	bra	i2u224_40
 11314  001EC6                     i2u224_47:
 11315  001EC6  CFF6 FFE9          	movff	tblptrl,fsr0l
 11316  001ECA  CFF7 FFEA          	movff	tblptrh,fsr0h
 11317  001ECE  50EF               	movf	indf0,w,c
 11318  001ED0                     i2u224_40:
 11319  001ED0  6EDF               	movwf	indf2,c
 11320  001ED2  4A25               	infsnz	_inPipes,f,c	;volatile
 11321  001ED4  2A26               	incf	_inPipes+1,f,c	;volatile
 11322  001ED6  0100               	movlb	0	; () banked
 11323  001ED8  4B86               	infsnz	_pDst& (0+255),f,b
 11324  001EDA  2B87               	incf	(_pDst+1)& (0+255),f,b
 11325                           
 11326                           ; BSR set to: 0
 11327                           ;usb_device.c: 1822: byteToSend--;
 11328  001EDC  062D               	decf	USBCtrlTrfTxService@byteToSend,f,c
 11329  001EDE  D000               	goto	i2l3420
 11330  001EE0                     i2l3420:
 11331                           
 11332                           ; BSR set to: 0
 11333  001EE0  502D               	movf	USBCtrlTrfTxService@byteToSend,w,c
 11334  001EE2  B4D8               	btfsc	status,2,c
 11335  001EE4  0012               	return	
 11336  001EE6  D7DF               	goto	i2l3412
 11337                           
 11338                           ; BSR set to: 0
 11339  001EE8  0012               	return	
 11340                           
 11341                           ; BSR set to: 0
 11342                           
 11343                           ; BSR set to: 0
 11344  001EEA  0012               	return		;funcret
 11345  001EEC                     __end_of_USBCtrlTrfTxService:
 11346                           	opt stack 0
 11347                           pclatu	equ	0xFFB
 11348                           pclath	equ	0xFFA
 11349                           tblptru	equ	0xFF8
 11350                           tblptrh	equ	0xFF7
 11351                           tblptrl	equ	0xFF6
 11352                           tablat	equ	0xFF5
 11353                           prodh	equ	0xFF4
 11354                           prodl	equ	0xFF3
 11355                           intcon	equ	0xFF2
 11356                           intcon2	equ	0xFF1
 11357                           indf0	equ	0xFEF
 11358                           postinc0	equ	0xFEE
 11359                           fsr0h	equ	0xFEA
 11360                           fsr0l	equ	0xFE9
 11361                           wreg	equ	0xFE8
 11362                           indf1	equ	0xFE7
 11363                           postinc1	equ	0xFE6
 11364                           postdec1	equ	0xFE5
 11365                           fsr1h	equ	0xFE2
 11366                           fsr1l	equ	0xFE1
 11367                           indf2	equ	0xFDF
 11368                           postinc2	equ	0xFDE
 11369                           postdec2	equ	0xFDD
 11370                           plusw2	equ	0xFDB
 11371                           fsr2h	equ	0xFDA
 11372                           fsr2l	equ	0xFD9
 11373                           status	equ	0xFD8
 11374                           pclatu	equ	0xFFB
 11375                           pclath	equ	0xFFA
 11376                           tblptru	equ	0xFF8
 11377                           tblptrh	equ	0xFF7
 11378                           tblptrl	equ	0xFF6
 11379                           tablat	equ	0xFF5
 11380                           prodh	equ	0xFF4
 11381                           prodl	equ	0xFF3
 11382                           intcon	equ	0xFF2
 11383                           intcon2	equ	0xFF1
 11384                           indf0	equ	0xFEF
 11385                           postinc0	equ	0xFEE
 11386                           fsr0h	equ	0xFEA
 11387                           fsr0l	equ	0xFE9
 11388                           wreg	equ	0xFE8
 11389                           indf1	equ	0xFE7
 11390                           postinc1	equ	0xFE6
 11391                           postdec1	equ	0xFE5
 11392                           fsr1h	equ	0xFE2
 11393                           fsr1l	equ	0xFE1
 11394                           indf2	equ	0xFDF
 11395                           postinc2	equ	0xFDE
 11396                           postdec2	equ	0xFDD
 11397                           plusw2	equ	0xFDB
 11398                           fsr2h	equ	0xFDA
 11399                           fsr2l	equ	0xFD9
 11400                           status	equ	0xFD8
 11401                           
 11402                           	psect	rparam
 11403  0000                     pclatu	equ	0xFFB
 11404                           pclath	equ	0xFFA
 11405                           tblptru	equ	0xFF8
 11406                           tblptrh	equ	0xFF7
 11407                           tblptrl	equ	0xFF6
 11408                           tablat	equ	0xFF5
 11409                           prodh	equ	0xFF4
 11410                           prodl	equ	0xFF3
 11411                           intcon	equ	0xFF2
 11412                           intcon2	equ	0xFF1
 11413                           indf0	equ	0xFEF
 11414                           postinc0	equ	0xFEE
 11415                           fsr0h	equ	0xFEA
 11416                           fsr0l	equ	0xFE9
 11417                           wreg	equ	0xFE8
 11418                           indf1	equ	0xFE7
 11419                           postinc1	equ	0xFE6
 11420                           postdec1	equ	0xFE5
 11421                           fsr1h	equ	0xFE2
 11422                           fsr1l	equ	0xFE1
 11423                           indf2	equ	0xFDF
 11424                           postinc2	equ	0xFDE
 11425                           postdec2	equ	0xFDD
 11426                           plusw2	equ	0xFDB
 11427                           fsr2h	equ	0xFDA
 11428                           fsr2l	equ	0xFD9
 11429                           status	equ	0xFD8


Data Sizes:
    Strings     17
    Constant    201
    Data        2
    BSS         1365
    Persistent  0
    Stack       0

Auto Spaces:
    Space          Size  Autos    Used
    COMRAM           95     44      88
    BANK0           160     25     120
    BANK1           256      0     228
    BANK2           256      0       0
    BANK3           256      0       0
    BANK4           256      0       0
    BANK5           256      0       0
    BANK6           256      0       0
    BANK7           256      0       0
    BANK8           256      0       0
    BANK9           256      0       0
    BANK10          256      0       0
    BANK11          256      0       0
    BANK12          256      0       0
    BANK13          192      0       0
    BANK14          176      0       0

Pointer List with Targets:

    USER_USB_CALLBACK_EVENT_HANDLER@pdata	PTR void  size(2) Largest target is 48
		 -> USTATcopy(COMRAM[1]), USBActiveConfiguration(COMRAM[1]), NULL(NULL[0]), BDT(BIGRAMl[48]), 

    memset@p1	PTR void  size(2) Largest target is 48
		 -> USBAlternateInterface(BANK0[2]), BDT(BIGRAMl[48]), UEP1(SFR_1[1]), 

    memset@p	PTR unsigned char  size(2) Largest target is 48
		 -> USBAlternateInterface(BANK0[2]), BDT(BIGRAMl[48]), UEP1(SFR_1[1]), 

    usb_rx.buf	PTR unsigned char  size(2) Largest target is 1000
		 -> main_init@usbrx(BANK1[100]), main_init@usbtx(BIGRAMl[1000]), 

    usb_tx.buf	PTR unsigned char  size(2) Largest target is 1000
		 -> main_init@usbrx(BANK1[100]), main_init@usbtx(BIGRAMl[1000]), 

    I2C_LCD_Puts@s	PTR const unsigned char  size(2) Largest target is 9
		 -> STR_2(CODE[8]), STR_1(CODE[9]), 

    rx_buf.buf	PTR unsigned char  size(2) Largest target is 1000
		 -> main_init@usbrx(BANK1[100]), main_init@usbtx(BIGRAMl[1000]), 

    tx_buf.buf	PTR unsigned char  size(2) Largest target is 1000
		 -> main_init@usbrx(BANK1[100]), main_init@usbtx(BIGRAMl[1000]), 

    ringbuf_delete@rb.buf	PTR unsigned char  size(2) Largest target is 1000
		 -> main_init@usbrx(BANK1[100]), main_init@usbtx(BIGRAMl[1000]), 

    ringbuf_backspace@rb.buf	PTR unsigned char  size(2) Largest target is 1000
		 -> main_init@usbrx(BANK1[100]), main_init@usbtx(BIGRAMl[1000]), 

    ringbuf_pop@rb.buf	PTR unsigned char  size(2) Largest target is 1000
		 -> main_init@usbrx(BANK1[100]), main_init@usbtx(BIGRAMl[1000]), 

    ringbuf_pop@rb	PTR struct ringbuf size(2) Largest target is 9
		 -> usb_tx(BANK0[8]), usb_rx(BANK0[8]), tx_buf(BANK0[8]), 

    ringbuf_put@rb.buf	PTR unsigned char  size(2) Largest target is 1000
		 -> main_init@usbrx(BANK1[100]), main_init@usbtx(BIGRAMl[1000]), 

    ringbuf_put@rb	PTR struct ringbuf size(2) Largest target is 9
		 -> usb_tx(BANK0[8]), usb_rx(BANK0[8]), rx_buf(BANK0[8]), tx_buf(BANK0[8]), 

    ringbuf_num@rb.buf	PTR unsigned char  size(2) Largest target is 1000
		 -> main_init@usbrx(BANK1[100]), main_init@usbtx(BIGRAMl[1000]), 

    ringbuf_num@rb	PTR struct ringbuf size(2) Largest target is 9
		 -> usb_tx(BANK0[8]), usb_rx(BANK0[8]), rx_buf(BANK0[8]), tx_buf(BANK0[8]), 

    S2787ringbuf$buf	PTR unsigned char  size(2) Largest target is 1000
		 -> main_init@usbrx(BANK1[100]), main_init@usbtx(BIGRAMl[1000]), 

    ringbuf_init@rb.buf	PTR unsigned char  size(2) Largest target is 1000
		 -> main_init@usbrx(BANK1[100]), main_init@usbtx(BIGRAMl[1000]), 

    ringbuf_init@internal_buf	PTR unsigned char  size(2) Largest target is 1000
		 -> main_init@usbrx(BANK1[100]), main_init@usbtx(BIGRAMl[1000]), 

    ringbuf_init@rb	PTR struct ringbuf size(2) Largest target is 9
		 -> usb_tx(BANK0[8]), usb_rx(BANK0[8]), 

    get_string_usb@s	PTR unsigned char  size(2) Largest target is 1
		 -> USB_loop@data(BANK0[1]), 

    put_string_usb@s	PTR unsigned char  size(2) Largest target is 1
		 -> USB_loop@data(BANK0[1]), 

    putUSBUSART@data	PTR unsigned char  size(2) Largest target is 1
		 -> USB_loop@data(BANK0[1]), 

    getsUSBUSART@buffer	PTR unsigned char  size(2) Largest target is 1
		 -> USB_loop@data(BANK0[1]), 

    CDCDataInHandle	PTR void  size(2) Largest target is 48
		 -> NULL(NULL[0]), BDT(BIGRAMl[48]), 

    CDCDataOutHandle	PTR void  size(2) Largest target is 48
		 -> NULL(NULL[0]), BDT(BIGRAMl[48]), 

    pCDCDst.wRom	PTR const unsigned int  size(2) Largest target is 0

    pCDCDst.bRom	PTR const unsigned char  size(2) Largest target is 0

    pCDCDst.wRam	PTR unsigned int  size(2) Largest target is 0

    pCDCDst.bRam	PTR unsigned char  size(2) Largest target is 0

    S1497_POINTER$wRom	PTR const unsigned int  size(2) Largest target is 0

    pCDCSrc.wRom	PTR const unsigned int  size(2) Largest target is 0

    S1497_POINTER$bRom	PTR const unsigned char  size(2) Largest target is 0

    pCDCSrc.bRom	PTR const unsigned char  size(2) Largest target is 0

    S1497_POINTER$wRam	PTR unsigned int  size(2) Largest target is 0

    pCDCSrc.wRam	PTR unsigned int  size(2) Largest target is 0

    S1497_POINTER$bRam	PTR unsigned char  size(2) Largest target is 0

    pCDCSrc.bRam	PTR unsigned char  size(2) Largest target is 0

    USBStdFeatureReqHandler@pUEP	PTR unsigned char  size(2) Largest target is 1
		 -> UEP0(SFR_1[1]), 

    USBStdFeatureReqHandler@p	PTR struct __BDT size(2) Largest target is 48
		 -> NULL(NULL[0]), BDT(BIGRAMl[48]), 

    USBStdGetStatusHandler@p	PTR struct __BDT size(2) Largest target is 48
		 -> NULL(NULL[0]), BDT(BIGRAMl[48]), 

    USB_SD_Ptr	const PTR const unsigned char [3] size(2) Largest target is 52
		 -> sd002(CODE[52]), sd001(CODE[52]), sd000(CODE[4]), 

    USB_CD_Ptr	const PTR const unsigned char [1] size(2) Largest target is 67
		 -> configDescriptor1(CODE[67]), 

    pDst	PTR volatile unsigned char  size(2) Largest target is 8
		 -> CtrlTrfData(BIGRAMh[8]), NULL(NULL[0]), 

    USBConfigureEndpoint@handle	PTR volatile struct __BDT size(2) Largest target is 48
		 -> BDT(BIGRAMl[48]), 

    pBDTEntryEP0OutCurrent	PTR volatile struct __BDT size(2) Largest target is 48
		 -> NULL(NULL[0]), BDT(BIGRAMl[48]), 

    pBDTEntryEP0OutNext	PTR volatile struct __BDT size(2) Largest target is 48
		 -> NULL(NULL[0]), BDT(BIGRAMl[48]), 

    USBTransferOnePacket@data	PTR unsigned char  size(2) Largest target is 64
		 -> cdc_data_tx(BANK1[64]), cdc_data_rx(BANK1[64]), NULL(NULL[0]), 

    sp__USBTransferOnePacket	PTR void  size(2) Largest target is 48
		 -> NULL(NULL[0]), BDT(BIGRAMl[48]), 

    USBTransferOnePacket@handle	PTR volatile struct __BDT size(2) Largest target is 48
		 -> NULL(NULL[0]), BDT(BIGRAMl[48]), 

    USBEnableEndpoint@p	PTR unsigned char  size(2) Largest target is 1
		 -> UEP0(SFR_1[1]), 

    pBDTEntryOut	PTR volatile struct __BDT[3] size(2) Largest target is 48
		 -> NULL(NULL[0]), BDT(BIGRAMl[48]), 

    pBDTEntryIn	PTR volatile struct __BDT[3] size(2) Largest target is 48
		 -> NULL(NULL[0]), BDT(BIGRAMl[48]), 

    S102$pFunc	PTR FTN()void  size(3) Largest target is 0
		 -> Absolute function(), 

    outPipes.pFunc	PTR FTN()void  size(3) Largest target is 0
		 -> Absolute function(), 

    S92$wRam	PTR unsigned int  size(2) Largest target is 0

    outPipes.pDst.wRam	PTR unsigned int  size(2) Largest target is 0

    S92$bRam	PTR unsigned char  size(2) Largest target is 0

    outPipes.pDst.bRam	PTR unsigned char  size(2) Largest target is 0

    S68$wRom	PTR const unsigned int  size(2) Largest target is 0

    inPipes.pSrc.wRom	PTR const unsigned int  size(2) Largest target is 0

    S68$wRam	PTR unsigned int  size(2) Largest target is 0

    inPipes.pSrc.wRam	PTR unsigned int  size(2) Largest target is 0

    S68$bRom	PTR const unsigned char  size(2) Largest target is 0

    inPipes.pSrc.bRom	PTR const unsigned char  size(2) Largest target is 0

    S68$bRam	PTR unsigned char  size(2) Largest target is 0

    inPipes.pSrc.bRam	PTR unsigned char  size(2) Largest target is 0

    sp__memset	PTR void  size(2) Largest target is 48
		 -> USBAlternateInterface(BANK0[2]), BDT(BIGRAMl[48]), UEP1(SFR_1[1]), 


Critical Paths under _main in COMRAM

    None.

Critical Paths under _ISR in COMRAM

    _USB_ISR->_USBDeviceTasks
    _USBDeviceTasks->_USBCtrlEPService
    i2_USBDeviceInit->i2_memset
    _USBWakeFromSuspend->_USER_USB_CALLBACK_EVENT_HANDLER
    _USBSuspend->_USER_USB_CALLBACK_EVENT_HANDLER
    _USBCtrlEPAllowDataStage->_USBCtrlTrfTxService
    _USBCheckStdRequest->_USBStdFeatureReqHandler
    _USBStdSetCfgHandler->_USER_USB_CALLBACK_EVENT_HANDLER
    _USBStdFeatureReqHandler->_USER_USB_CALLBACK_EVENT_HANDLER
    _CDCInitEP->_USBEnableEndpoint
    _USBEnableEndpoint->_USBConfigureEndpoint
    _USBCtrlTrfOutHandler->_USBCtrlTrfRxService
    _USBCtrlTrfInHandler->_USBCtrlTrfTxService

Critical Paths under _main in BANK0

    _main->_USB_loop
    _USB_init->_USBDeviceInit
    _USBDeviceInit->_memset
    _I2C_LCD_init->_I2C_LCD_Clear
    _I2C_LCD_Clear->_I2C_LCD_Command
    _USB_loop->_ringbuf_put
    _ringbuf_put->_ringbuf_pop
    _ringbuf_pop->_ringbuf_num
    _put_string_usb->_CDCTxService
    _get_string_usb->_getsUSBUSART
    _getsUSBUSART->_USBTransferOnePacket
    _CDCTxService->_USBTransferOnePacket
    _I2C_LCD_SetCursor->_I2C_LCD_Command
    _I2C_LCD_Command->_I2C_Start
    _I2C_LCD_Puts->_I2C_Start
    _I2C_Stop->_I2C_IdleCheck
    _I2C_Start->_I2C_IdleCheck
    _I2C_Send->_I2C_IdleCheck

Critical Paths under _ISR in BANK0

    None.

Critical Paths under _main in BANK1

    None.

Critical Paths under _ISR in BANK1

    None.

Critical Paths under _main in BANK2

    None.

Critical Paths under _ISR in BANK2

    None.

Critical Paths under _main in BANK3

    None.

Critical Paths under _ISR in BANK3

    None.

Critical Paths under _main in BANK4

    None.

Critical Paths under _ISR in BANK4

    None.

Critical Paths under _main in BANK5

    None.

Critical Paths under _ISR in BANK5

    None.

Critical Paths under _main in BANK6

    None.

Critical Paths under _ISR in BANK6

    None.

Critical Paths under _main in BANK7

    None.

Critical Paths under _ISR in BANK7

    None.

Critical Paths under _main in BANK8

    None.

Critical Paths under _ISR in BANK8

    None.

Critical Paths under _main in BANK9

    None.

Critical Paths under _ISR in BANK9

    None.

Critical Paths under _main in BANK10

    None.

Critical Paths under _ISR in BANK10

    None.

Critical Paths under _main in BANK11

    None.

Critical Paths under _ISR in BANK11

    None.

Critical Paths under _main in BANK12

    None.

Critical Paths under _ISR in BANK12

    None.

Critical Paths under _main in BANK13

    None.

Critical Paths under _ISR in BANK13

    None.

Critical Paths under _main in BANK14

    None.

Critical Paths under _ISR in BANK14

    None.

Call Graph Tables:

 ---------------------------------------------------------------------------------
 (Depth) Function   	        Calls       Base Space   Used Autos Params    Refs
 ---------------------------------------------------------------------------------
 (0) _main                                                 0     0      0   23881
                      _I2C_LCD_Clear
                       _I2C_LCD_Puts
                  _I2C_LCD_SetCursor
                           _USB_loop
                          _main_init
                        _ringbuf_num
                        _ringbuf_pop
                        _ringbuf_put
 ---------------------------------------------------------------------------------
 (1) _main_init                                            0     0      0    4034
                       _I2C_LCD_init
                           _I2C_init
                           _OSC_init
                           _USB_init
                       _ringbuf_init
                        _timer0_init
                        _timer1_init
                        _timer3_init
 ---------------------------------------------------------------------------------
 (2) _timer3_init                                          2     2      0      31
                                              0 BANK0      2     2      0
 ---------------------------------------------------------------------------------
 (2) _timer1_init                                          3     2      1     197
                                              0 BANK0      3     2      1
 ---------------------------------------------------------------------------------
 (2) _timer0_init                                          2     2      0      62
                                              0 BANK0      2     2      0
 ---------------------------------------------------------------------------------
 (2) _ringbuf_init                                         6     0      6     810
                                              0 BANK0      6     0      6
 ---------------------------------------------------------------------------------
 (2) _USB_init                                             0     0      0    1361
                    _USBDeviceAttach
                      _USBDeviceInit
 ---------------------------------------------------------------------------------
 (3) _USBDeviceInit                                        1     1      0    1361
                                              8 BANK0      1     1      0
                             _memset
 ---------------------------------------------------------------------------------
 (4) _memset                                               8     2      6    1070
                                              0 BANK0      8     2      6
 ---------------------------------------------------------------------------------
 (3) _USBDeviceAttach                                      0     0      0       0
 ---------------------------------------------------------------------------------
 (2) _OSC_init                                             0     0      0       0
 ---------------------------------------------------------------------------------
 (2) _I2C_init                                             0     0      0       0
 ---------------------------------------------------------------------------------
 (2) _I2C_LCD_init                                         0     0      0    1573
                           _Delay_ms
                      _I2C_LCD_Clear
                    _I2C_LCD_Command
 ---------------------------------------------------------------------------------
 (3) _I2C_LCD_Clear                                        1     1      0     667
                                              6 BANK0      1     1      0
                    _I2C_LCD_Command
 ---------------------------------------------------------------------------------
 (3) _Delay_ms                                             3     1      2     239
                                              0 BANK0      3     1      2
 ---------------------------------------------------------------------------------
 (1) _USB_loop                                             3     3      0   12476
                                             22 BANK0      3     3      0
                     _get_string_usb
                     _put_string_usb
                        _ringbuf_num
                        _ringbuf_pop
                        _ringbuf_put
 ---------------------------------------------------------------------------------
 (1) _ringbuf_put                                          7     4      3    2576
                                             15 BANK0      7     4      3
                        _ringbuf_num
                        _ringbuf_pop (ARG)
 ---------------------------------------------------------------------------------
 (1) _ringbuf_pop                                          7     5      2    1404
                                              8 BANK0      7     5      2
                        _ringbuf_num
 ---------------------------------------------------------------------------------
 (2) _ringbuf_num                                          8     6      2     841
                                              0 BANK0      8     6      2
 ---------------------------------------------------------------------------------
 (2) _put_string_usb                                       4     0      4    2741
                                             12 BANK0      4     0      4
                       _CDCTxService
                   _is_usb_available
                        _putUSBUSART
 ---------------------------------------------------------------------------------
 (3) _putUSBUSART                                          3     0      3     270
                                              0 BANK0      3     0      3
 ---------------------------------------------------------------------------------
 (2) _get_string_usb                                       7     3      4    4772
                                             13 BANK0      7     3      4
                       _CDCTxService
                       _getsUSBUSART
                   _is_usb_available
 ---------------------------------------------------------------------------------
 (3) _is_usb_available                                     1     1      0      37
                                              0 BANK0      1     1      0
 ---------------------------------------------------------------------------------
 (3) _getsUSBUSART                                         6     3      3    2267
                                              7 BANK0      6     3      3
               _USBTransferOnePacket
 ---------------------------------------------------------------------------------
 (3) _CDCTxService                                         5     5      0    2164
                                              7 BANK0      5     5      0
               _USBTransferOnePacket
 ---------------------------------------------------------------------------------
 (4) _USBTransferOnePacket                                 7     3      4    1926
                                              0 BANK0      7     3      4
 ---------------------------------------------------------------------------------
 (1) _I2C_LCD_SetCursor                                    4     3      1     974
                                              6 BANK0      4     3      1
                    _I2C_LCD_Command
 ---------------------------------------------------------------------------------
 (3) _I2C_LCD_Command                                      2     2      0     667
                                              4 BANK0      2     2      0
                           _I2C_Send
                          _I2C_Start
                           _I2C_Stop
 ---------------------------------------------------------------------------------
 (1) _I2C_LCD_Puts                                         5     3      2     909
                                              4 BANK0      5     3      2
                           _I2C_Send
                          _I2C_Start
                           _I2C_Stop
 ---------------------------------------------------------------------------------
 (4) _I2C_Stop                                             0     0      0      31
                      _I2C_IdleCheck
 ---------------------------------------------------------------------------------
 (4) _I2C_Start                                            2     1      1     509
                                              2 BANK0      2     1      1
                      _I2C_IdleCheck
 ---------------------------------------------------------------------------------
 (4) _I2C_Send                                             1     1      0      62
                                              2 BANK0      1     1      0
                      _I2C_IdleCheck
 ---------------------------------------------------------------------------------
 (5) _I2C_IdleCheck                                        2     2      0      31
                                              0 BANK0      2     2      0
 ---------------------------------------------------------------------------------
 Estimated maximum stack depth 5
 ---------------------------------------------------------------------------------
 (Depth) Function   	        Calls       Base Space   Used Autos Params    Refs
 ---------------------------------------------------------------------------------
 (7) _ISR                                                 14    14      0   28817
                                             30 COMRAM    14    14      0
                            _USB_ISR
 ---------------------------------------------------------------------------------
 (8) _USB_ISR                                              0     0      0   28817
                     _USBDeviceTasks
 ---------------------------------------------------------------------------------
 (9) _USBDeviceTasks                                       1     1      0   28817
                                             29 COMRAM     1     1      0
          _USBCtrlEPAllowStatusStage
                   _USBCtrlEPService
                    _USBStallHandler
                         _USBSuspend
                 _USBWakeFromSuspend
    _USER_USB_CALLBACK_EVENT_HANDLER
                    i2_USBDeviceInit
 ---------------------------------------------------------------------------------
 (10) i2_USBDeviceInit                                     1     1      0     610
                                              8 COMRAM     1     1      0
                           i2_memset
 ---------------------------------------------------------------------------------
 (10) _USBWakeFromSuspend                                  0     0      0    3835
    _USER_USB_CALLBACK_EVENT_HANDLER
 ---------------------------------------------------------------------------------
 (10) _USBSuspend                                          0     0      0    3835
    _USER_USB_CALLBACK_EVENT_HANDLER
 ---------------------------------------------------------------------------------
 (10) _USBStallHandler                                     1     1      0       0
                                              0 COMRAM     1     1      0
 ---------------------------------------------------------------------------------
 (10) _USBCtrlEPService                                    3     3      0   16656
                                             26 COMRAM     3     3      0
                _USBCtrlTrfInHandler
               _USBCtrlTrfOutHandler
             _USBCtrlTrfSetupHandler
 ---------------------------------------------------------------------------------
 (11) _USBCtrlTrfSetupHandler                              0     0      0   16359
                 _USBCheckStdRequest
           _USBCtrlEPServiceComplete
    _USER_USB_CALLBACK_EVENT_HANDLER
 ---------------------------------------------------------------------------------
 (12) _USBCtrlEPServiceComplete                            0     0      0      92
            _USBCtrlEPAllowDataStage
          _USBCtrlEPAllowStatusStage
 ---------------------------------------------------------------------------------
 (13) _USBCtrlEPAllowDataStage                             0     0      0      92
                _USBCtrlTrfTxService
 ---------------------------------------------------------------------------------
 (12) _USBCheckStdRequest                                  0     0      0   12432
            _USBStdFeatureReqHandler
                _USBStdGetDscHandler
             _USBStdGetStatusHandler
                _USBStdSetCfgHandler
    _USER_USB_CALLBACK_EVENT_HANDLER
 ---------------------------------------------------------------------------------
 (13) _USBStdSetCfgHandler                                 1     1      0    4333
                                             20 COMRAM     1     1      0
    _USER_USB_CALLBACK_EVENT_HANDLER
                           i2_memset
 ---------------------------------------------------------------------------------
 (11) i2_memset                                            8     2      6     408
                                              0 COMRAM     8     2      6
 ---------------------------------------------------------------------------------
 (13) _USBStdGetStatusHandler                              3     3      0      46
                                              0 COMRAM     3     3      0
 ---------------------------------------------------------------------------------
 (13) _USBStdGetDscHandler                                 2     2      0       0
                                              0 COMRAM     2     2      0
 ---------------------------------------------------------------------------------
 (13) _USBStdFeatureReqHandler                             6     6      0    4218
                                             20 COMRAM     6     6      0
    _USER_USB_CALLBACK_EVENT_HANDLER
 ---------------------------------------------------------------------------------
 (10) _USER_USB_CALLBACK_EVENT_HANDLER                     8     2      6    3835
                                             12 COMRAM     8     2      6
                          _CDCInitEP
                 _USBCheckCDCRequest
 ---------------------------------------------------------------------------------
 (11) _USBCheckCDCRequest                                  0     0      0       0
 ---------------------------------------------------------------------------------
 (11) _CDCInitEP                                           0     0      0    1143
                  _USBEnableEndpoint
             i2_USBTransferOnePacket
 ---------------------------------------------------------------------------------
 (12) i2_USBTransferOnePacket                              7     3      4     410
                                              0 COMRAM     7     3      4
 ---------------------------------------------------------------------------------
 (12) _USBEnableEndpoint                                   4     3      1     733
                                              8 COMRAM     4     3      1
               _USBConfigureEndpoint
 ---------------------------------------------------------------------------------
 (13) _USBConfigureEndpoint                                8     7      1     400
                                              0 COMRAM     8     7      1
 ---------------------------------------------------------------------------------
 (11) _USBCtrlTrfOutHandler                                0     0      0     114
                _USBCtrlTrfRxService
 ---------------------------------------------------------------------------------
 (12) _USBCtrlTrfRxService                                 2     2      0     114
                                              0 COMRAM     2     2      0
          _USBCtrlEPAllowStatusStage
 ---------------------------------------------------------------------------------
 (13) _USBCtrlEPAllowStatusStage                           0     0      0       0
 ---------------------------------------------------------------------------------
 (11) _USBCtrlTrfInHandler                                 1     1      0     115
                                              1 COMRAM     1     1      0
                _USBCtrlTrfTxService
 ---------------------------------------------------------------------------------
 (14) _USBCtrlTrfTxService                                 1     1      0      92
                                              0 COMRAM     1     1      0
 ---------------------------------------------------------------------------------
 Estimated maximum stack depth 14
 ---------------------------------------------------------------------------------

 Call Graph Graphs:

 _main (ROOT)
   _I2C_LCD_Clear
     _I2C_LCD_Command
       _I2C_Send
         _I2C_IdleCheck
       _I2C_Start
         _I2C_IdleCheck
       _I2C_Stop
         _I2C_IdleCheck
   _I2C_LCD_Puts
     _I2C_Send
       _I2C_IdleCheck
     _I2C_Start
       _I2C_IdleCheck
     _I2C_Stop
       _I2C_IdleCheck
   _I2C_LCD_SetCursor
     _I2C_LCD_Command
       _I2C_Send
         _I2C_IdleCheck
       _I2C_Start
         _I2C_IdleCheck
       _I2C_Stop
         _I2C_IdleCheck
   _USB_loop
     _get_string_usb
       _CDCTxService
         _USBTransferOnePacket
       _getsUSBUSART
         _USBTransferOnePacket
       _is_usb_available
     _put_string_usb
       _CDCTxService
         _USBTransferOnePacket
       _is_usb_available
       _putUSBUSART
     _ringbuf_num
     _ringbuf_pop
       _ringbuf_num
     _ringbuf_put
       _ringbuf_num
       _ringbuf_pop (ARG)
         _ringbuf_num
   _main_init
     _I2C_LCD_init
       _Delay_ms
       _I2C_LCD_Clear
         _I2C_LCD_Command
           _I2C_Send
             _I2C_IdleCheck
           _I2C_Start
             _I2C_IdleCheck
           _I2C_Stop
             _I2C_IdleCheck
       _I2C_LCD_Command
         _I2C_Send
           _I2C_IdleCheck
         _I2C_Start
           _I2C_IdleCheck
         _I2C_Stop
           _I2C_IdleCheck
     _I2C_init
     _OSC_init
     _USB_init
       _USBDeviceAttach
       _USBDeviceInit
         _memset
     _ringbuf_init
     _timer0_init
     _timer1_init
     _timer3_init
   _ringbuf_num
   _ringbuf_pop
     _ringbuf_num
   _ringbuf_put
     _ringbuf_num
     _ringbuf_pop (ARG)
       _ringbuf_num

 _ISR (ROOT)
   _USB_ISR
     _USBDeviceTasks
       _USBCtrlEPAllowStatusStage
       _USBCtrlEPService
         _USBCtrlTrfInHandler
           _USBCtrlTrfTxService
         _USBCtrlTrfOutHandler
           _USBCtrlTrfRxService
             _USBCtrlEPAllowStatusStage
         _USBCtrlTrfSetupHandler
           _USBCheckStdRequest
             _USBStdFeatureReqHandler
               _USER_USB_CALLBACK_EVENT_HANDLER
                 _CDCInitEP
                   _USBEnableEndpoint
                     _USBConfigureEndpoint
                   i2_USBTransferOnePacket
                 _USBCheckCDCRequest
             _USBStdGetDscHandler
             _USBStdGetStatusHandler
             _USBStdSetCfgHandler
               _USER_USB_CALLBACK_EVENT_HANDLER
                 _CDCInitEP
                   _USBEnableEndpoint
                     _USBConfigureEndpoint
                   i2_USBTransferOnePacket
                 _USBCheckCDCRequest
               i2_memset
             _USER_USB_CALLBACK_EVENT_HANDLER
               _CDCInitEP
                 _USBEnableEndpoint
                   _USBConfigureEndpoint
                 i2_USBTransferOnePacket
               _USBCheckCDCRequest
           _USBCtrlEPServiceComplete
             _USBCtrlEPAllowDataStage
               _USBCtrlTrfTxService
             _USBCtrlEPAllowStatusStage
           _USER_USB_CALLBACK_EVENT_HANDLER
             _CDCInitEP
               _USBEnableEndpoint
                 _USBConfigureEndpoint
               i2_USBTransferOnePacket
             _USBCheckCDCRequest
       _USBStallHandler
       _USBSuspend
         _USER_USB_CALLBACK_EVENT_HANDLER
           _CDCInitEP
             _USBEnableEndpoint
               _USBConfigureEndpoint
             i2_USBTransferOnePacket
           _USBCheckCDCRequest
       _USBWakeFromSuspend
         _USER_USB_CALLBACK_EVENT_HANDLER
           _CDCInitEP
             _USBEnableEndpoint
               _USBConfigureEndpoint
             i2_USBTransferOnePacket
           _USBCheckCDCRequest
       _USER_USB_CALLBACK_EVENT_HANDLER
         _CDCInitEP
           _USBEnableEndpoint
             _USBConfigureEndpoint
           i2_USBTransferOnePacket
         _USBCheckCDCRequest
       i2_USBDeviceInit
         i2_memset

 Address spaces:
Name               Size   Autos  Total    Cost      Usage
BIGRAMl            CFF      0     3E8      36       30.1%
BIGRAMh            170      0       0      35        0.0%
BITBANK12          100      0       0      29        0.0%
BANK12             100      0       0      30        0.0%
BITBANK11          100      0       0      27        0.0%
BANK11             100      0       0      28        0.0%
BITBANK10          100      0       0      25        0.0%
BANK10             100      0       0      26        0.0%
BITBANK9           100      0       0      23        0.0%
BANK9              100      0       0      24        0.0%
BITBANK8           100      0       0      21        0.0%
BANK8              100      0       0      22        0.0%
BITBANK7           100      0       0      19        0.0%
BANK7              100      0       0      20        0.0%
BITBANK6           100      0       0      17        0.0%
BANK6              100      0       0      18        0.0%
BITBANK5           100      0       0      15        0.0%
BANK5              100      0       0      16        0.0%
BITBANK4           100      0       0      13        0.0%
BANK4              100      0       0      14        0.0%
BITBANK3           100      0       0      11        0.0%
BANK3              100      0       0      12        0.0%
BITBANK2           100      0       0       9        0.0%
BANK2              100      0       0      10        0.0%
BITBANK1           100      0       0       6        0.0%
BANK1              100      0      E4       7       89.1%
BITBANK13           C0      0       0      31        0.0%
BANK13              C0      0       0      32        0.0%
BITBANK14           B0      0       0      33        0.0%
BANK14              B0      0       0      34        0.0%
BITBANK0            A0      0       0       4        0.0%
BANK0               A0     19      78       5       75.0%
BITCOMRAM           5F      0       0       0        0.0%
COMRAM              5F     2C      58       1       92.6%
BITSFR_2             0      0       0      40        0.0%
SFR_2                0      0       0      40        0.0%
BITSFR_1             0      0       0      40        0.0%
SFR_1                0      0       0      40        0.0%
BITSFR               0      0       0      40        0.0%
SFR                  0      0       0      40        0.0%
STACK                0      0       0       2        0.0%
NULL                 0      0       0       0        0.0%
ABS                  0      0     1B4       8        0.0%
DATA                 0      0     59C       3        0.0%
CODE                 0      0       0       0        0.0%


Microchip Technology PIC18 Macro Assembler V1.34 build -361300703 
Symbol Table                                                                                   Sat Jul 18 18:31:09 2015

                         get_string_usb@s 00CA                                _USB_SD_Ptr 0F01  
                      __size_of_I2C_Start 0034                                        _d1 0074  
                           _USBDeviceInit 156E                        __size_of_CDCInitEP 006E  
                            __CFG_CP0$OFF 000000      USER_USB_CALLBACK_EVENT_HANDLER@event 0039  
    USER_USB_CALLBACK_EVENT_HANDLER@pdata 003B                                       l132 15E4  
             __end_of_USBStdGetDscHandler 1936                                       l193 2E68  
                                     l194 2E66                                       l490 12D2  
                                     l811 2F04                                       l539 30B0  
                                     l495 1326                                       l681 2E16  
                                     l826 30CA                                       l835 2EA0  
                                     _BDT 000D00                                       l686 2CB6  
                                     l877 271A                                       _ISR 0008  
                                     _UIE 000F36                                       _UIR 000F62  
                       get_string_usb@len 00CC                                _USBSuspend 302C  
                    USBStdSetCfgHandler@i 0041                                       prod 000FF3  
                                     wreg 000FE8                            _USBDeviceTasks 1406  
                              _TXSTA1bits 000FAD                            _USBDeviceState 001D  
                   ??_USBCtrlTrfRxService 002D                              _I2C_LCD_Puts 2A4E  
                __size_ofi2_USBDeviceInit 013A                            ??_getsUSBUSART 00C7  
                USBEnableEndpoint@options 0035                         ??_I2C_LCD_Command 00C1  
                                    ?_ISR 002D                    __end_of_get_string_usb 2D30  
                            _I2C_LCD_init 2B8A                                      l5000 15BE  
                                    l5012 15F2                                      l5020 1606  
                                    l5004 15DC                USBConfigureEndpoint@handle 0033  
                                    l5112 12AA                                      l5104 3076  
                                    l5200 2F7A                                      l5024 1624  
                                    l5130 1310                                      l5114 12B6  
                                    l5202 2F8E                                      l5034 1694  
                                    l5124 12DC                                      l5220 2D96  
                                    l5028 162E                                      l5118 12C6  
                                    l5070 1B7C                                      l5144 1356  
                                    l5152 137C                                      l5136 132C  
                                    l5080 1BCA                                      l5072 1B88  
                                    l5320 2164                                      l5170 13D6  
                                    l5154 138C                                      l5162 13B2  
                                    l5218 2D90                                      l5330 222A  
                                    l5172 13DC                                      l5164 13C0  
                                    l5084 1BFC                                      l5236 2CF6  
                                    l5332 2242                                      l5174 1402  
                                    l5078 1BC2                                      l5238 2CFC  
                                    l5254 2E30                                      l5088 1C30  
                                    l5370 2A9E                                      l5194 1CB0  
                                    l5338 2248                                      l5266 2CBA  
                                    l5364 2A7C                                      l5372 2AB8  
                                    l5382 274C                                      l4908 3080  
                                    l5572 28EC                                      l4950 1F26  
                                    l4942 2ECA                                      l5582 2936  
                      __CFG_WPFP$PAGE_127 000000                                      l4970 1FBE  
                                    l4938 2EB6                                      l4956 1F40  
                                    l4948 1F0A                                      l4968 1FA6  
                                    STR_1 0FCA                                      STR_2 0FD3  
                                    u4130 2F10                                      u4340 129A  
                                    u4280 1B6C                                      u4348 129E  
                                    u4288 1B70                     ??_USBCtrlTrfTxService 002D  
                                    u4857 30E2                                      u4867 2F82  
                                    u4877 2EA6                                      u4887 2A98  
                                    _UCFG 000F39                                      _UEP0 000F26  
                                    _UEP1 000F27                                      _UEIE 000F37  
                                    _UEIR 000F63                                      _UCON 000F65  
                         _CDCDataInHandle 0082    USBStdFeatureReqHandler@current_ep_data 0044  
                                    _pDst 0086                                      _main 28AA  
                ??i2_USBTransferOnePacket 0031                                      fsr0h 000FEA  
                                    fsr1h 000FE2                                      indf0 000FEF  
                                    fsr0l 000FE9                                      fsr2h 000FDA  
                                    indf1 000FE7                               _BaudRateGen 0070  
                                    fsr1l 000FE1                                      indf2 000FDF  
                                    fsr2l 000FD9                          __end_of_I2C_Send 30D4  
                         _USBDeviceAttach 2E3A                    __CFG_DSWDTOSC$T1OSCREF 000000  
                         __end_of_USB_ISR 3128                          __end_of_I2C_Stop 3122  
                                    pclat 000FFA                          __end_of_I2C_init 3100  
                                    prodh 000FF4                                      prodl 000FF3  
                                    start 00A2                             __CFG_IESO$OFF 000000  
              __end_of_USBCheckStdRequest 1E0A                    ??_USBCtrlTrfOutHandler 002F  
                            ___param_bank 000010                 ??_USBStdFeatureReqHandler 0041  
                           _I2C_LCD_Clear 30D4                                     ??_ISR 004B  
                  __size_of_I2C_IdleCheck 0020                  ??_USBStdGetStatusHandler 002D  
                          ?_USBDeviceInit 002D                             __CFG_PLLDIV$2 000000  
                            _BAUDCON1bits 000F7E                                     ?_main 002D  
                 __size_of_put_string_usb 0046                                     _ADRES 000FC3  
       __size_of_USBCtrlEPServiceComplete 00FA                    __end_of_USBDeviceTasks 156E  
               ?_USBCtrlEPServiceComplete 002D                                     i2l132 172C  
                                   i2l144 143A                                     i2l218 1AC4  
                                   i2l154 14E8                                     i2l331 2494  
                                   i2l155 156A                                     i2l156 14FA  
                                   i2l360 1006                                     i2l281 2630  
                                   i2l345 1D3C                                     i2l354 1D8C  
                                   i2l436 25BE                                     i2l284 26C2  
                                   i2l285 2646                                     i2l438 25F4  
                                   i2l286 264A                                     i2l294 2D74  
                                   i2l379 11D8                                     i2l871 004E  
                                   i2l874 0068                                     _UADDR 000F38  
                                   _TMR1H 000FCF                                     _TRISA 000F92  
                                   _TRISB 000F93                                     _TRISC 000F94  
                                   _USTAT 000F64        __size_of_USBCtrlEPAllowStatusStage 00C4  
                          __CFG_FCMEN$OFF 000000           __end_of_USBCtrlEPAllowDataStage 2814  
                                   _sd000 0FC6                                     _sd001 0F4C  
                                   _sd002 0F80                                i2memset@p1 002D  
                        __end_of_OSC_init 310E                           ?_get_string_usb 00CA  
                       __end_of_I2C_Start 2F16                                     tablat 000FF5  
                                   plusw2 000FDB                         __end_of_CDCInitEP 2B2C  
                        __end_of_USB_init 3118                          __end_of_USB_loop 2778  
                                   status 000FD8                          __end_ofi2_memset 2FD4  
                        __end_of_Delay_ms 2FA6                           putUSBUSART@data 00BD  
            __size_of_USBStdSetCfgHandler 00DE                            ?_I2C_LCD_Clear 002D  
                         __initialization 2BE2                              __end_of_main 293E  
                   _control_signal_bitmap 008B                       ringbuf_init@bufsize 00C1  
               __size_of_USBCtrlEPService 00D0                                    ??_main 00D6  
                           __activetblptr 000003                           ?_USBDeviceTasks 002D  
                             ?_USBSuspend 002D                              _cdc_mem_type 0088  
                                  _BCL1IF 007D0B                             _I2C_IdleCheck 307A  
                 __end_of_USBDeviceAttach 2E74                          _CDCDataOutHandle 0084  
                       _getsUSBUSART$1886 00C8                         _I2C_LCD_SetCursor 3000  
                                  _ANCON0 000F48                                    _ANCON1 000F49  
                               ??_USB_ISR 004B                        I2C_LCD_Command@ans 00C2  
                         getsUSBUSART@len 00C6                     __size_of_CDCTxService 0190  
                                  i2l3320 2586                                    i2l4032 2F3E  
                                  i2l3402 1E60                                    i2l3410 1E9A  
                                  i2l3306 2542                                    i2l4034 2F42  
                                  i2l3412 1EA6                                    i2l3420 1EE0  
                                  i2l3308 2558                                    i2l3316 2574  
                                  i2l3342 25DE                                    i2l3334 25B2  
                                  i2l3326 259C                                    i2l3350 25FC  
                          __CFG_WDTEN$OFF 000000                                    i2l3264 2876  
                                  i2l3424 2FB0                                    i2l3520 2084  
                                  i2l3504 203E                                    i2l4072 229E  
                                  i2l4056 2D70                                    i2l4304 17CE  
                                  i2l3266 2890                                    i2l3274 2DD0  
                                  i2l3610 10B8                                    i2l4090 230C  
                                  i2l4410 1526                                    i2l4330 1420  
                                  i2l3444 2364                                    i2l3372 2F56  
                                  i2l3620 10E0                                    i2l3540 18B0  
                                  i2l3532 1822                                    i2l3428 2FC2  
                                  i2l4084 22EC                                    i2l4076 22A6  
                                  i2l4412 153A                                    i2l3278 2DE0  
                                  i2l3294 24E6                                    i2l3286 24BA  
                                  i2l3366 2F4A                                    i2l3630 113A  
                                  i2l3622 1102                                    i2l3614 10C0  
                                  i2l3550 1914                                    i2l3542 18B6  
                                  i2l4270 170C                                    i2l3392 1E34  
                                  i2l3288 24D4                                    i2l3368 2F50  
                                  i2l3632 1156                                    i2l3616 10C4  
                                  i2l3608 107A                                    i2l3528 1810  
                                  i2l3560 263A                                    i2l3704 1AEE  
                                  i2l4088 2306                                    i2l4416 1546  
                                  i2l4360 1464                                    i2l4352 1452  
                                  i2l3554 191A                                    i2l3802 1DC4  
                                  i2l3474 27C6                                    i2l4282 173A  
                                  i2l4290 174E                                    i2l4274 1726  
                                  i2l4418 1566                                    i2l4338 1432  
                                  i2l3388 1E28                                    i2l3732 1966  
                                  i2l3636 1170                                    i2l3548 190E  
                                  i2l4372 1498                                    i2l3750 19E4  
                                  i2l3662 1240                                    i2l3646 11B6  
                                  i2l3566 2668                                    i2l3494 200A  
                                  i2l3478 27E0                                    i2l4294 176A  
                                  i2l4390 14DE                                    i2l4382 14B4  
                                  i2l4366 148C                                    i2l3920 2414  
                                  i2l3728 1958                                    i2l3664 124E  
                                  i2l3656 11FA                                    i2l3648 11C4  
                                  i2l3568 268A                                    i2l3576 26AA  
                                  i2l3680 1A64                                    i2l4376 14A4  
                                  i2l3922 241A                                    i2l3754 19FE  
                                  i2l3738 198A                                    i2l3906 2B82  
                                  i2l3658 1216                                    i2l3594 1000  
                                  i2l3498 2012                                    i2l4298 1772  
                                  i2l3940 247A                                    i2l3772 1D44  
                                  i2l3684 1A6E                                    i2l4396 14F2  
                                  i2l3934 245A                                    i2l3774 1D4A  
                                  i2l3784 1D62                                    i2l3776 1D50  
                                  i2l3696 1ADA                                    i2l3946 249C  
                                  i2l3786 1D6A                                    i2l3788 1D70  
                                  i2l3798 1DA6                                    i2l4854 005E  
                                  i2l3898 2B3A                        ?_I2C_LCD_SetCursor 00C3  
                                  _RCREG1 000FAF                             CDCTxService@i 00C7  
                                  _SPBRG1 000FB0                                    _SSP1IF 007CF3  
                          __CFG_WPCFG$OFF 000000                                    _TXREG1 000FAE  
                i2USBTransferOnePacket@ep 0031                         ??i2_USBDeviceInit 0035  
         __size_ofi2_USBTransferOnePacket 00C0                            __CFG_WPDIS$OFF 000000  
                __end_of_is_usb_available 30B8                      get_string_usb@rx_len 00CF  
                       _shortPacketStatus 0024                       ??_I2C_LCD_SetCursor 00C4  
                          __CFG_XINST$OFF 000000                           USBDeviceTasks@i 004A  
             USBStdFeatureReqHandler@pUEP 0042                  USBTransferOnePacket@data 00BE  
              USBCtrlTrfInHandler@lastDTS 002E                           ??_USBDeviceInit 00C5  
                            ?_ringbuf_pop 00C5                              ?_ringbuf_num 00BD  
                            ?_ringbuf_put 00CC                              ?_putUSBUSART 00BD  
                    __end_of_getsUSBUSART 1C38                              ?_timer0_init 002D  
                            ?_timer1_init 00BD                              ?_timer3_init 002D  
                       _USBEnableEndpoint 2DBE           __size_of_USBStdGetStatusHandler 00B6  
                                  _memset 2EAC                                    clear_0 2BEA  
                                  clear_1 2BFC                                    clear_2 2C08  
                         put_string_usb@s 00C9                                    clear_3 2C14  
                         __CFG_CLKOEC$OFF 000000                        ?_USBEnableEndpoint 0035  
                                  _rx_buf 0094                                    _usb_rx 00A4  
                                  _usb_tx 00AC                                    _tx_buf 009C  
           __size_of_USBTransferOnePacket 00DE                                 ?_I2C_Send 002D  
                            _CDCTxService 1276                                 ?_I2C_Stop 002D  
                            __mediumconst 0000                                 ?_I2C_init 002D  
               __end_of_I2C_LCD_SetCursor 302C                                    tblptrh 000FF7  
                                  tblptrl 000FF6                                    tblptru 000FF8  
                     ??_USBEnableEndpoint 0036                            ?_I2C_IdleCheck 002D  
                             _CtrlTrfData 000D38                      _controlTransferState 0022  
                    __CFG_LS48MHZ$SYS48X8 000000                                __accesstop 0060  
                 __end_of__initialization 2C32                              __pbssBIGRAMl 01E4  
                           ___rparam_used 000001                           ??_I2C_LCD_Clear 00C3  
                __size_of_USBStallHandler 0048                      __CFG_WPEND$PAGE_WPFP 000000  
                     __size_of_USBSuspend 002A                            __pcstackCOMRAM 002D  
               __end_of_USBEnableEndpoint 2DFE                             __end_of_sd000 0FCA  
                           __end_of_sd001 0F80                             __end_of_sd002 0FB4  
                            __pidataBANK0 3128          __size_of_USBCtrlEPAllowDataStage 009C  
           __size_of_USBConfigureEndpoint 0096                                 ?_OSC_init 002D  
             __end_of_USBCtrlTrfInHandler 24A4                           __CFG_DSWDTPS$G2 000000  
                         _I2C_LCD_Command 2E74                            _put_string_usb 2D78  
                  i2_USBTransferOnePacket 24A4                                 ?_USB_init 002D  
                               ?_USB_loop 002D                          I2C_LCD_Command@c 00C1  
                              ??_I2C_Send 00BF                         _CDCTxService$1934 00C5  
                              ??_I2C_Stop 00BF                                _cdc_notice 0060  
                               ?i2_memset 002D                                _cdc_rx_len 0089  
                              ??_I2C_init 00BD                                 ?_Delay_ms 00BD  
                              _cdc_tx_len 008A                  ??_USBCtrlTrfSetupHandler 0047  
                        ?_USBDeviceAttach 002D                    _USBStdGetStatusHandler 2622  
                      __size_of_main_init 008E                                __pbssBANK0 0060  
                              __pbssBANK1 0100               __size_of_USBWakeFromSuspend 0032  
                             _pBDTEntryIn 000A          __end_of_USBCtrlEPServiceComplete 1B44  
             __size_of_USBCheckCDCRequest 00BE                      USBCtrlTrfRxService@i 002D  
                  __end_of_put_string_usb 2DBE                                ??_OSC_init 00BD  
                                 ?_memset 00BD                      I2C_LCD_SetCursor@col 00C6  
                              _device_dsc 0FB4                      I2C_LCD_SetCursor@row 00C3  
                        _USBCtrlEPService 224E                              I2C_Send@data 00BF  
                              _ep_data_in 0010               __end_of_USBCtrlTrfRxService 1A4A  
                      _USBCheckStdRequest 1D28                                ??_USB_init 00C6  
                       _configDescriptor1 0F09                                ??_USB_loop 00D3  
                        ??_get_string_usb 00CE                        __CFG_OSC$INTOSCPLL 000000  
                         ??_I2C_IdleCheck 00BD                                ??i2_memset 0033  
             __end_of_USBCtrlTrfTxService 1EEC                                ??_Delay_ms 00BF  
                     _USBStdSetCfgHandler 1FCA                __size_of_I2C_LCD_SetCursor 002C  
                  I2C_LCD_SetCursor@F9810 00D6                           __CFG_WDTPS$1024 000000  
                                 _SPBRGH1 000F7F                                   _SSP1ADD 000FC8  
                                 _SSP1BUF 000FC9                       ?_USBCheckStdRequest 002D  
            __size_of_USBStdGetDscHandler 0136                                   _UIEbits 000F36  
                                 _USB_ISR 3122                      timer1_init@prescaler 00BF  
                                 _UIRbits 000F62                          __CFG_CFGPLLEN$ON 000000  
                           _cdc_trf_state 0021                                 _I2C_Start 2EE2  
                                 _pCDCDst 007A                                   _pCDCSrc 007D  
                   __size_of_getsUSBUSART 00F4                                   __Hparam 0000  
                    ?_USBStdSetCfgHandler 002D                                 _CDCInitEP 2ABE  
                                 __Lparam 0000                              USB_loop@data 00D5  
                 __end_of_I2C_LCD_Command 2EAC                __size_of_USBEnableEndpoint 0040  
                    ??_USBCheckStdRequest 0047             __size_of_USBCtrlTrfOutHandler 005E  
                           ?_ringbuf_init 00BD                          ??_USBDeviceTasks 004A  
                         ?_put_string_usb 00C9                         ??_USBStallHandler 002D  
                            __psmallconst 0F00                      __size_of_ringbuf_pop 00D0  
                    __size_of_ringbuf_num 00F0                      __size_of_ringbuf_put 00D6  
                         __CFG_STVREN$OFF 000000                         __end_of_main_init 29CC  
                    __size_of_putUSBUSART 0024                                   __pcinit 2BE2  
                      getsUSBUSART@buffer 00C4                           __size_of_memset 0036  
               __end_of_configDescriptor1 0F4C                                   __ramtop 0F00  
                    __size_of_timer0_init 003C                      __size_of_timer1_init 0052  
                                 __ptext0 28AA                                   __ptext1 293E  
                                 __ptext2 2FD4                                   __ptext3 2C8C  
                                 __ptext4 2DFE                                   __ptext5 2C38  
                                 __ptext6 310E                                   __ptext7 156E  
                                 __ptext8 2EAC                                   __ptext9 2E3A  
                                 _inPipes 0025                      __size_of_timer3_init 002C  
                           I2C_LCD_Puts@s 00C1               _USBDeferOUTDataStagePackets 001B  
                               _T0CONbits 000FD5                              __size_of_ISR 009A  
                               _T1CONbits 000FCD                              ??_USBSuspend 0041  
                               _T3CONbits 000F79                                 _T5CONbits 000F22  
                         i2_USBDeviceInit 16C6                          i2USBDeviceInit@i 0035  
                      __end_of_USB_CD_Ptr 0F09           __size_of_USBCtrlTrfSetupHandler 0082  
                    end_of_initialization 2C32                              _getsUSBUSART 1B44  
                      __end_of_USB_SD_Ptr 0F07                       _pBDTEntryEP0OutNext 0015  
                                 memset@c 00BF                                   memset@n 00C1  
                                 memset@p 00C3           _dummy_encapsulated_cmd_response 008C  
                ?_USBStdFeatureReqHandler 002D                                ?_I2C_Start 00BF  
                   ??_USBStdSetCfgHandler 0041                      timer3_init@prescaler 00BE  
                              ?_CDCInitEP 002D                         ?_is_usb_available 002D  
                      __end_of_USBSuspend 3056                            ??_ringbuf_init 00C3  
                 _USBCtrlEPAllowDataStage 2778                        ??_is_usb_available 00BD  
                                 postdec1 000FE5                                   postdec2 000FDD  
                                 postinc0 000FEE                                   postinc1 000FE6  
                                 postinc2 000FDE                  _USBCtrlEPServiceComplete 1A4A  
              _USBStatusStageEnabledFlag1 001E                _USBStatusStageEnabledFlag2 001F  
                      USBEnableEndpoint@p 0036                          __CFG_DSBOREN$OFF 000000  
                        __CFG_CPUDIV$OSC1 000000                        _BothEP0OutUOWNsSet 0017  
                       __size_of_I2C_Send 001C                         __size_of_I2C_Stop 000A  
                       __size_of_I2C_init 0012                 USBConfigureEndpoint@EPNum 0032  
              ?_USBCtrlEPAllowStatusStage 002D       USER_USB_CALLBACK_EVENT_HANDLER@size 003D  
                               _USTATcopy 002C                   timer1_init@clock_select 00BD  
            __end_of_USBTransferOnePacket 1FCA                          __CFG_IOL1WAY$OFF 000000  
                       putUSBUSART@length 00BF                       __CFG_MSSP7B_EN$MSK7 000000  
                        ?_I2C_LCD_Command 002D                            ringbuf_init@rb 00BD  
                  _USBCtrlTrfSetupHandler 29CC                            ringbuf_pop@ret 00CB  
                 ?i2_USBTransferOnePacket 002D                     __end_of_USBDeviceInit 16C6  
                 __end_ofi2_USBDeviceInit 1800                                 i2memset@c 002F  
                               i2memset@n 0031                                 i2memset@p 0033  
                          __end_of_memset 2EE2                         __size_of_OSC_init 000E  
                        __CFG_DSWDTEN$OFF 000000                         _USBBusIsSuspended 0019  
                     start_initialization 2BE2                   ?_USBStdGetStatusHandler 002D  
                             __end_of_ISR 00A2             USBCtrlTrfRxService@byteToRead 002E  
                       __size_of_USB_init 000A                         __size_of_USB_loop 00A0  
                           ?_I2C_LCD_Puts 00C1                             ?_I2C_LCD_init 002D  
                             _cdc_data_rx 0164                               _cdc_data_tx 01A4  
                       __size_ofi2_memset 002E              __end_of_USBConfigureEndpoint 28AA  
                       __size_of_Delay_ms 002E           __end_of_USBStdFeatureReqHandler 1276  
       __end_of_USBCtrlEPAllowStatusStage 23E2                  __end_of_USBCtrlEPService 231E  
                             ??_I2C_Start 00C0                 ??_USBCtrlEPAllowDataStage 002E  
                             ??_CDCInitEP 0039                            USBDeviceInit@i 00C5  
                   __end_of_I2C_LCD_Clear 30EE                    _pBDTEntryEP0OutCurrent 0013  
                 USBTransferOnePacket@dir 00BD                   USBTransferOnePacket@len 00C0  
          __end_ofi2_USBTransferOnePacket 2564                            USB_loop@rx_len 00D3  
                     _USBStdGetDscHandler 1800                         __CFG_ADCSEL$BIT12 000000  
                             __pdataBANK0 00D6                                  ??_memset 00C3  
                  _USBActiveConfiguration 002B            __end_of_USBStdGetStatusHandler 26D8  
                             __pbssCOMRAM 0001                             __pcstackBANK0 00BD  
            __size_of_USBCtrlTrfInHandler 00C2                            ??_I2C_LCD_Puts 00C3  
                          ??_I2C_LCD_init 00C4                      __end_of_ringbuf_init 2C8C  
                    ?_USBStdGetDscHandler 002D                                  ?_USB_ISR 002D  
              __end_of_USBWakeFromSuspend 2F48                           _USBStallHandler 2D30  
                            _pBDTEntryOut 006A                __end_of_USBCheckCDCRequest 2622  
                __size_of_USBDeviceAttach 003A                          ??_put_string_usb 00CD  
                               __pintcode 0008                     _is_usb_available$2010 00BD  
                         I2C_LCD_Puts@ans 00C4                          ?i2_USBDeviceInit 002D  
              USBCBSendResume@delay_count 0080                      _USBTransferOnePacket 1EEC  
                             __smallconst 0F00                                 _main_init 293E  
                             I2C_Start@rw 00BF                                  _I2C_Send 30B8  
                                _I2C_Stop 3118                      __CFG_RTCOSC$T1OSCREF 000000  
                                _I2C_init 30EE                     __end_of_I2C_IdleCheck 309A  
            __end_of_USBCtrlTrfOutHandler 2B8A                     ??_USBStdGetDscHandler 002D  
                             _ep_data_out 0077              __size_of_USBCtrlTrfRxService 0114  
           USBConfigureEndpoint@direction 002D              __size_of_USBCtrlTrfTxService 00E2  
                ringbuf_init@internal_buf 00BF                                  _LATAbits 000F89  
                                _LATBbits 000F8A                ??_USBCtrlEPServiceComplete 002E  
                                _IPR1bits 000F9F                                  _IPR2bits 000FA2  
                                _PIE1bits 000F9D                                  _PIE2bits 000FA0  
                                _IPR5bits 000F99                                  _PIE5bits 000F91  
                                i2u222_40 1E8A                                  i2u222_47 1E80  
                                i2u224_40 1ED0                                  i2u224_47 1EC6  
                                i2u241_40 1904                                  i2u241_47 18FA  
                                i2u238_40 187C                                  i2u238_47 1872  
                                i2u239_40 18AC                                  i2u239_47 18A2  
                                _PIR1bits 000F9E                                  _PIR2bits 000FA1  
                                _PIR5bits 000F98                 USBCtrlEPService@setup_cnt 0049  
                           ??_ringbuf_pop 00C7                             ??_ringbuf_num 00BF  
                           ??_ringbuf_put 00CF                                  _RCONbits 000FD0  
                           ??_putUSBUSART 00C0                                  _UEP0bits 000F26  
              _USBDeferINDataStagePackets 001A                                  _SSP1CON1 000FC6  
                                _SSP1CON2 000FC5                             ??_timer0_init 00BD  
                           ??_timer1_init 00BE               __size_of_USBCheckStdRequest 00E2  
                           ??_timer3_init 00BD                                  _SSP1STAT 000FC7  
                                _UCONbits 000F65                      _USBConfigureEndpoint 2814  
                                _OSC_init 3100          __size_of_USBStdFeatureReqHandler 029A  
                              _ADCON0bits 000FC2                                _ADCON1bits 000FC1  
                   ?_USBTransferOnePacket 00BD                          __CFG_SOSCSEL$LOW 000000  
                                _USB_init 310E                                  _USB_loop 26D8  
                              ?_main_init 002D                 __size_of_is_usb_available 001E  
                           ?_CDCTxService 002D                              _RemoteWakeup 0018  
                                i2_memset 2FA6                                  _Delay_ms 2F78  
                           ringbuf_pop@rb 00C5                             ringbuf_num@rb 00BD  
                 __end_of_USBStallHandler 2D78                             I2C_Start@adrs 00C0  
                           ringbuf_put@rb 00CC                               _INTCON2bits 000FF1  
             ??_USBCtrlEPAllowStatusStage 002D               __end_of_USBStdSetCfgHandler 20A8  
                        __size_of_USB_ISR 0006                   __size_of_get_string_usb 0052  
                      __end_of_device_dsc 0FC6                   ?_USBCtrlTrfSetupHandler 002D  
                 USBStdGetStatusHandler@p 002E                                  __Hrparam 0000  
                                __Lrparam 0000                    USBTransferOnePacket@ep 00C1  
                    __end_of_I2C_LCD_Puts 2ABE                                  _SetupPkt 000D30  
                    __end_of_I2C_LCD_init 2BE2                     ?_USBConfigureEndpoint 002D  
                       ??_USBDeviceAttach 00BD                         I2C_IdleCheck@mask 00BE  
                     __end_of_ringbuf_pop 224E                       __end_of_ringbuf_num 1D28  
                     __end_of_ringbuf_put 217E                       __end_of_putUSBUSART 307A  
                             _line_coding 00B4                            ??_CDCTxService 00C4  
                     __end_of_timer0_init 2E3A                     __size_of_ringbuf_init 0054  
                     __end_of_timer1_init 2CDE                       __end_of_timer3_init 3000  
                 __size_of_USBDeviceTasks 0168                      timer0_init@prescaler 00BE  
                                __ptext10 3100                                  __ptext11 30EE  
                                __ptext20 3056                                  __ptext12 2B8A  
                                __ptext21 2CDE                                  __ptext13 30D4  
                                __ptext30 2EE2                                  __ptext22 309A  
                                __ptext14 2F78                                  __ptext31 30B8  
                                __ptext23 1B44                                  __ptext15 26D8  
                                __ptext40 224E                                  __ptext32 307A  
                                __ptext24 1276                                  __ptext16 20A8  
                                __ptext41 29CC                                  __ptext25 1EEC  
                                __ptext17 217E                                  __ptext50 2F48  
                                __ptext42 1A4A                                  __ptext34 3122  
                                __ptext26 3000                                  __ptext18 1C38  
                                __ptext51 2564                                  __ptext43 2778  
                                __ptext35 1406                                  __ptext27 2E74  
                                __ptext19 2D78                                  __ptext60 1E0A  
                                __ptext52 2ABE                                  __ptext44 1D28  
                                __ptext36 16C6                                  __ptext28 2A4E  
                                __ptext53 24A4                                  __ptext45 1FCA  
                                __ptext37 2F16                                  __ptext29 3118  
                                __ptext54 2DBE                                  __ptext46 2FA6  
                                __ptext38 302C                                  __ptext55 2814  
                                __ptext47 2622                                  __ptext39 2D30  
                                __ptext56 2B2C                                  __ptext48 1800  
                                __ptext57 1936                                  __ptext49 0FDC  
                                __ptext58 231E                                  __ptext59 23E2  
                            _SSP1CON2bits 000FC5            __end_of_USBCtrlTrfSetupHandler 2A4E  
                           __size_of_main 0094                         ?_USBCtrlEPService 002D  
                       put_string_usb@len 00CB                        ??_USBCtrlEPService 0047  
                     _USBCtrlTrfInHandler 23E2                                  _outPipes 0001  
                    _USBCtrlTrfOutHandler 2B2C                              _ringbuf_init 2C38  
               _USBCtrlEPAllowStatusStage 231E                    ??_USBTransferOnePacket 00C1  
                __size_of_I2C_LCD_Command 0038                 _USBDeferStatusStagePacket 001C  
                CDCTxService@byte_to_send 00C8                            main_init@usbrx 0100  
                          main_init@usbtx 01E4                               ??_main_init 00C6  
                             _OSCTUNEbits 000F9B                                _INTCONbits 000FF2  
                    ringbuf_put@asciicode 00CE                      ?_USBCtrlTrfInHandler 002D  
           USBCtrlTrfTxService@byteToSend 002D              I2C_LCD_SetCursor@row_offsets 00C4  
                              Delay_ms@ms 00BD                                  memset@p1 00BD  
                        ?_USBStallHandler 002D                  USBStdFeatureReqHandler@p 0045  
                                intlevel2 0000                    __size_of_USBDeviceInit 0158  
 __end_of_USER_USB_CALLBACK_EVENT_HANDLER 2F78  __size_of_USER_USB_CALLBACK_EVENT_HANDLER 0030  
       ??_USER_USB_CALLBACK_EVENT_HANDLER 003F          ?_USER_USB_CALLBACK_EVENT_HANDLER 0039  
         _USER_USB_CALLBACK_EVENT_HANDLER 2F48              i2USBTransferOnePacket@handle 0032  
                              _RCSTA1bits 000FAC                                _OSCCONbits 000FD3  
              i2USBTransferOnePacket@data 002E                    ??_USBConfigureEndpoint 002E  
                   ?_USBCtrlTrfOutHandler 002D                               _ringbuf_pop 217E  
                             _ringbuf_num 1C38                               _ringbuf_put 20A8  
                             _putUSBUSART 3056                       _USBCtrlTrfRxService 1936  
                             _timer0_init 2DFE                        _USBWakeFromSuspend 2F16  
                             _timer1_init 2C8C                               _timer3_init 2FD4  
                 _USBStdFeatureReqHandler 0FDC                        _USBCheckCDCRequest 2564  
                     _USBCtrlTrfTxService 1E0A                       ?_USBWakeFromSuspend 002D  
                        _is_usb_available 309A                     ??_USBCtrlTrfInHandler 002E  
                   _USBAlternateInterface 00BB                       ?_USBCheckCDCRequest 002D  
               i2USBTransferOnePacket@dir 002D                 i2USBTransferOnePacket@len 0030  
                     USBEnableEndpoint@ep 0038                           _endpoint_number 0023  
                  __size_of_I2C_LCD_Clear 001A                      ?_USBCtrlTrfRxService 002D  
                           ?_getsUSBUSART 00C4                  ?_USBCtrlEPAllowDataStage 002D  
                          _get_string_usb 2CDE                      ?_USBCtrlTrfTxService 002D  
            _USBStatusStageTimeoutCounter 0020                     __size_of_I2C_LCD_Puts 0070  
                   __size_of_I2C_LCD_init 0058                      ??_USBWakeFromSuspend 0041  
              USBTransferOnePacket@handle 00C2                      __end_of_CDCTxService 1406  
                    ??_USBCheckCDCRequest 002D                                _USB_CD_Ptr 0F07  
