Microchip MPLAB XC8 Compiler V1.35 ()

Linker command line:

--edf=C:\Program Files (x86)\Microchip\xc8\v1.35\dat\en_msgs.txt -cs \
  -h+dist/default/production\PIC18F27J53-CTMU01.X.production.sym \
  --cmf=dist/default/production\PIC18F27J53-CTMU01.X.production.cmf -z \
  -Q18F27J53 -oC:\Users\KERIKU~1\AppData\Local\Temp\s6rs.2 \
  -Mdist/default/production/PIC18F27J53-CTMU01.X.production.map -E1 \
  -ver=XC8 -ASTACK=02FAh-0eafh -pstack=STACK -ACODE=00h-01FFF7h \
  -ACONST=00h-01FFF7h -ASMALLCONST=0F00h-0FFFhx496,01FF00h-01FFF7h \
  -AMEDIUMCONST=0F00h-0FFFFh,010F00h-01FFF7h -ACOMRAM=01h-05Fh \
  -AABS1=00h-0EAFh -ABIGRAM=01h-0EAFh \
  -ARAM=060h-0FFh,0100h-01FFhx13,0E00h-0EAFh -ABANK0=060h-0FFh \
  -ABANK1=0100h-01FFh -ABANK2=0200h-02FFh -ABANK3=0300h-03FFh \
  -ABANK4=0400h-04FFh -ABANK5=0500h-05FFh -ABANK6=0600h-06FFh \
  -ABANK7=0700h-07FFh -ABANK8=0800h-08FFh -ABANK9=0900h-09FFh \
  -ABANK10=0A00h-0AFFh -ABANK11=0B00h-0BFFh -ABANK12=0C00h-0CFFh \
  -ABANK13=0D00h-0DFFh -ABANK14=0E00h-0EAFh \
  -ASFR=0EB0h-0EFFh,0F00h-0F5Fh,0F60h-0FFFh \
  -preset_vec=00h,intcode=08h,intcodelo,powerup,init,end_init \
  -pramtop=0F00h -psmallconst=SMALLCONST -pmediumconst=MEDIUMCONST \
  -pconst=CONST -AFARRAM=00h-00h -ACONFIG=01FFF8h-01FFFFh -pconfig=CONFIG \
  -pjflash_buffer=01F800h \
  -prdata=COMRAM,nvrram=COMRAM,nvbit=COMRAM,rbss=COMRAM,rbit=COMRAM \
  -pfarbss=FARRAM,fardata=FARRAM,nvFARRAM=FARRAM \
  -pintsave_regs=BIGRAM,bigbss=BIGRAM,bigdata=BIGRAM -pbss=RAM \
  -pidata=CODE,irdata=CODE,ibigdata=CODE,ifardata=CODE -prparam=COMRAM \
  C:\Users\KERIKU~1\AppData\Local\Temp\s6rs.obj \
  dist/default/production\PIC18F27J53-CTMU01.X.production.obj 

Object code version is 3.11

Machine type is 18F27J53

Call graph: (short form)




                Name                               Link     Load   Length Selector   Space Scale
C:\Users\KERIKU~1\AppData\Local\Temp\s6rs.obj
                end_init                             CC       CC        4        4       0
                reset_vec                             0        0        4        0       0
                config                            1FFF8    1FFF8        8    1FFF8       0
dist/default/production\PIC18F27J53-CTMU01.X.production.obj
                intcode                               8        8       C4        4       0
                temp                                 50       50        1        1       1
                smallconst                          F00      F00       14      780       0
                text35                             1680     1680       BC      78A       0
                text34                             17F2     17F2       AC      78A       0
                text33                             173C     173C       B6      78A       0
                text32                             1CD0     1CD0       4A      78A       0
                text31                              F14      F14      282      78A       0
                text30                             19D8     19D8       82      78A       0
                text29                             189E     189E       A6      78A       0
                text28                             1BE0     1BE0       52      78A       0
                text26                             15C4     15C4       BC      78A       0
                text25                             1502     1502       C2      78A       0
                text24                             1E88     1E88       1E      78A       0
                text23                             1EDC     1EDC       18      78A       0
                text22                             1D8C     1D8C       30      78A       0
                text21                             1F14     1F14        A      78A       0
                text20                             1AD2     1AD2       62      78A       0
                text19                             1D54     1D54       38      78A       0
                text18                             1E14     1E14       2C      78A       0
                text17                             1A5A     1A5A       78      78A       0
                text16                             1E40     1E40       28      78A       0
                text15                             1DE8     1DE8       2C      78A       0
                text14                             1EC2     1EC2       1A      78A       0
                text13                             1B34     1B34       58      78A       0
                text12                             1EF4     1EF4       12      78A       0
                text11                             1F06     1F06        E      78A       0
                text10                             1E68     1E68       20      78A       0
                text9                              1B8C     1B8C       54      78A       0
                text8                              1D1A     1D1A       3A      78A       0
                text7                              1C32     1C32       50      78A       0
                text6                              1DBC     1DBC       2C      78A       0
                text5                              1944     1944       94      78A       0
                text4                              1196     1196       EE      78A       0
                text3                              1436     1436       CC      78A       0
                text2                              1362     1362       D4      78A       0
                text1                              1EA6     1EA6       1C      78A       0
                text0                              1284     1284       DE      78A       0
                cstackCOMRAM                          1        1       30        1       1
                cstackBANK0                          60       60       1D       60       1
                bssBANK2                            200      200       FA      200       1
                bssBANK1                            100      100       FA      100       1
                dataBANK0                            7D       7D        2       60       1
                bssCOMRAM                            31       31       1F        1       1
                cinit                              1C82     1C82       4E      78A       0
                idataBANK0                         1F1E     1F1E        2      78A       0

TOTAL           Name                               Link     Load   Length     Space
        CLASS   STACK          

        CLASS   CODE           
                end_init                             CC       CC        4         0
                intcode                               8        8       C4         0
                reset_vec                             0        0        4         0
                text35                             1680     1680       BC         0
                text34                             17F2     17F2       AC         0
                text33                             173C     173C       B6         0
                text32                             1CD0     1CD0       4A         0
                text31                              F14      F14      282         0
                text30                             19D8     19D8       82         0
                text29                             189E     189E       A6         0
                text28                             1BE0     1BE0       52         0
                text26                             15C4     15C4       BC         0
                text25                             1502     1502       C2         0
                text24                             1E88     1E88       1E         0
                text23                             1EDC     1EDC       18         0
                text22                             1D8C     1D8C       30         0
                text21                             1F14     1F14        A         0
                text20                             1AD2     1AD2       62         0
                text19                             1D54     1D54       38         0
                text18                             1E14     1E14       2C         0
                text17                             1A5A     1A5A       78         0
                text16                             1E40     1E40       28         0
                text15                             1DE8     1DE8       2C         0
                text14                             1EC2     1EC2       1A         0
                text13                             1B34     1B34       58         0
                text12                             1EF4     1EF4       12         0
                text11                             1F06     1F06        E         0
                text10                             1E68     1E68       20         0
                text9                              1B8C     1B8C       54         0
                text8                              1D1A     1D1A       3A         0
                text7                              1C32     1C32       50         0
                text6                              1DBC     1DBC       2C         0
                text5                              1944     1944       94         0
                text4                              1196     1196       EE         0
                text3                              1436     1436       CC         0
                text2                              1362     1362       D4         0
                text1                              1EA6     1EA6       1C         0
                text0                              1284     1284       DE         0
                cinit                              1C82     1C82       4E         0
                idataBANK0                         1F1E     1F1E        2         0

        CLASS   CONST          

        CLASS   SMALLCONST     
                smallconst                          F00      F00       14         0

        CLASS   MEDIUMCONST    

        CLASS   COMRAM         
                temp                                 50       50        1         1
                cstackCOMRAM                          1        1       30         1
                bssCOMRAM                            31       31       1F         1

        CLASS   ABS1           

        CLASS   BIGRAM         

        CLASS   RAM            

        CLASS   BANK0          
                cstackBANK0                          60       60       1D         1
                dataBANK0                            7D       7D        2         1

        CLASS   BANK1          
                bssBANK1                            100      100       FA         1

        CLASS   BANK2          
                bssBANK2                            200      200       FA         1

        CLASS   BANK3          

        CLASS   BANK4          

        CLASS   BANK5          

        CLASS   BANK6          

        CLASS   BANK7          

        CLASS   BANK8          

        CLASS   BANK9          

        CLASS   BANK10         

        CLASS   BANK11         

        CLASS   BANK12         

        CLASS   BANK13         

        CLASS   BANK14         

        CLASS   SFR            

        CLASS   FARRAM         

        CLASS   CONFIG         
                config                            1FFF8    1FFF8        8         0

        CLASS   IDLOC          



SEGMENTS        Name                           Load    Length   Top    Selector   Space  Class

                reset_vec                      000000  000004  000004         0       0  CODE    
                cstackCOMRAM                   000001  000050  000051         1       1  COMRAM  
                intcode                        000008  0000C8  0000D0         4       0  CODE    
                cstackBANK0                    000060  00001F  00007F        60       1  BANK0   
                bssBANK1                       000100  0000FA  0001FA       100       1  BANK1   
                bssBANK2                       000200  0000FA  0002FA       200       1  BANK2   
                smallconst                     000F00  000014  000F14       780       0  SMALLCON
                text31                         000F14  00100C  001F20       78A       0  CODE    
                config                         01FFF8  000008  020000     1FFF8       0  CONFIG  


UNUSED ADDRESS RANGES

        Name                Unused          Largest block    Delta
        BANK0            0007F-000FF              81
        BANK1            001FA-001FF               6
        BANK10           00A00-00AFF             100
        BANK11           00B00-00BFF             100
        BANK12           00C00-00CFF             100
        BANK13           00D00-00DFF             100
        BANK14           00E00-00EAF              B0
        BANK2            002FA-002FF               6
        BANK3            00300-003FF             100
        BANK4            00400-004FF             100
        BANK5            00500-005FF             100
        BANK6            00600-006FF             100
        BANK7            00700-007FF             100
        BANK8            00800-008FF             100
        BANK9            00900-009FF             100
        BIGRAM           00051-0005F               F
                         0007F-000FF              81
                         001FA-001FF               6
                         002FA-00EAF             BB6
        CODE             00004-00007               4
                         000D0-00EFF             E30
                         01F20-1FFF7           1E0D8
        COMRAM           00051-0005F               F
        CONST            00004-00007               4
                         000D0-00EFF             E30
                         01F20-1FFF7           1E0D8
        MEDIUMCONST      01F20-0FFFF            E0E0
                         10F00-1FFF7            F0F8
        RAM              0007F-000FF              81
                         001FA-001FF               6
                         002FA-00EAF             100
        SFR              00EB0-00FFF              60
        SMALLCONST       01F20-1FFF7             100
        STACK            002FA-00EAF             BB6

                                  Symbol Table

?_CTMU_read                      cstackBANK0   0006D
?___lldiv                        cstackBANK0   00060
?___lwdiv                        cstackBANK0   00076
?_ringbuf_num                    cstackBANK0   00060
?i2_CTMU_read                    cstackCOMRAM  0000E
?i2___lldiv                      cstackCOMRAM  00001
?i2___lwdiv                      cstackCOMRAM  00017
?i2_ringbuf_num                  cstackCOMRAM  00001
CTMU_read@ch                     cstackBANK0   00070
CTMU_read@i                      cstackBANK0   00075
CTMU_read@sum                    cstackBANK0   00071
Delay_ms@ms                      cstackBANK0   00060
I2C_IdleCheck@mask               cstackBANK0   00061
I2C_LCD_Command@ans              cstackBANK0   00065
I2C_LCD_Command@c                cstackBANK0   00064
I2C_LCD_Puts@ans                 cstackBANK0   00067
I2C_LCD_Puts@s                   cstackBANK0   00064
I2C_LCD_SetCursor@F8672          dataBANK0     0007D
I2C_LCD_SetCursor@col            cstackBANK0   00069
I2C_LCD_SetCursor@row            cstackBANK0   00066
I2C_LCD_SetCursor@row_offsets    cstackBANK0   00067
I2C_Send@data                    cstackBANK0   00062
I2C_Start@adrs                   cstackBANK0   00063
I2C_Start@rw                     cstackBANK0   00062
UART_ISR@ascii                   cstackCOMRAM  00010
_ADCON0bits                      (abs)         00FC2
_ADCON1bits                      (abs)         00FC1
_ADRES                           (abs)         00FC3
_ANCON0                          (abs)         00F48
_ANCON1                          (abs)         00F49
_BAUDCON1bits                    (abs)         00F7E
_BCL1IF                          (abs)         07D0B
_CTMUCONH                        (abs)         00FB3
_CTMUCONHbits                    (abs)         00FB3
_CTMUCONL                        (abs)         00FB2
_CTMUCONLbits                    (abs)         00FB2
_CTMUICON                        (abs)         00FB1
_CTMU_init                       text16        01E40
_CTMU_read                       text25        01502
_Delay_ms                        text15        01DE8
_I2C_IdleCheck                   text24        01E88
_I2C_LCD_Clear                   text14        01EC2
_I2C_LCD_Command                 text19        01D54
_I2C_LCD_Puts                    text20        01AD2
_I2C_LCD_SetCursor               text18        01E14
_I2C_LCD_init                    text13        01B34
_I2C_Send                        text23        01EDC
_I2C_Start                       text22        01D8C
_I2C_Stop                        text21        01F14
_I2C_init                        text12        01EF4
_INTCON2bits                     (abs)         00FF1
_INTCONbits                      (abs)         00FF2
_IPR1bits                        (abs)         00F9F
_IPR2bits                        (abs)         00FA2
_IPR5bits                        (abs)         00F99
_ISR                             intcode       00008
_LATB2                           (abs)         07C52
_LATB3                           (abs)         07C53
_LATB6                           (abs)         07C56
_LATB7                           (abs)         07C57
_OSCCONbits                      (abs)         00FD3
_OSCTUNEbits                     (abs)         00F9B
_OSC_init                        text11        01F06
_PIE1bits                        (abs)         00F9D
_PIE2bits                        (abs)         00FA0
_PIE5bits                        (abs)         00F91
_PIR1bits                        (abs)         00F9E
_PIR2bits                        (abs)         00FA1
_PIR5bits                        (abs)         00F98
_RCREG1                          (abs)         00FAF
_RCSTA1bits                      (abs)         00FAC
_SPBRG1                          (abs)         00FB0
_SPBRGH1                         (abs)         00F7F
_SSP1ADD                         (abs)         00FC8
_SSP1BUF                         (abs)         00FC9
_SSP1CON1                        (abs)         00FC6
_SSP1CON2                        (abs)         00FC5
_SSP1CON2bits                    (abs)         00FC5
_SSP1IF                          (abs)         07CF3
_SSP1STAT                        (abs)         00FC7
_T0CONbits                       (abs)         00FD5
_T1CONbits                       (abs)         00FCD
_T3CONbits                       (abs)         00F79
_T5CONbits                       (abs)         00F22
_TMR1H                           (abs)         00FCF
_TRISA                           (abs)         00F92
_TRISB                           (abs)         00F93
_TRISC                           (abs)         00F94
_TXREG1                          (abs)         00FAE
_TXSTA1bits                      (abs)         00FAD
_UART_ISR                        text32        01CD0
_UART_init                       text10        01E68
__CFG_ADCSEL$BIT12               (abs)         00000
__CFG_CFGPLLEN$ON                (abs)         00000
__CFG_CLKOEC$OFF                 (abs)         00000
__CFG_CP0$OFF                    (abs)         00000
__CFG_CPUDIV$OSC1                (abs)         00000
__CFG_DSBOREN$OFF                (abs)         00000
__CFG_DSWDTEN$OFF                (abs)         00000
__CFG_DSWDTOSC$T1OSCREF          (abs)         00000
__CFG_DSWDTPS$G2                 (abs)         00000
__CFG_FCMEN$OFF                  (abs)         00000
__CFG_IESO$OFF                   (abs)         00000
__CFG_IOL1WAY$OFF                (abs)         00000
__CFG_LS48MHZ$SYS48X8            (abs)         00000
__CFG_MSSP7B_EN$MSK7             (abs)         00000
__CFG_OSC$INTOSCPLL              (abs)         00000
__CFG_PLLDIV$2                   (abs)         00000
__CFG_RTCOSC$T1OSCREF            (abs)         00000
__CFG_SOSCSEL$LOW                (abs)         00000
__CFG_STVREN$OFF                 (abs)         00000
__CFG_WDTEN$OFF                  (abs)         00000
__CFG_WDTPS$1024                 (abs)         00000
__CFG_WPCFG$OFF                  (abs)         00000
__CFG_WPDIS$OFF                  (abs)         00000
__CFG_WPEND$PAGE_WPFP            (abs)         00000
__CFG_WPFP$PAGE_127              (abs)         00000
__CFG_XINST$OFF                  (abs)         00000
__HRAM                           (abs)         00000
__Habs1                          abs1          00000
__Hbank0                         bank0         00000
__Hbank1                         bank1         00000
__Hbank10                        bank10        00000
__Hbank11                        bank11        00000
__Hbank12                        bank12        00000
__Hbank13                        bank13        00000
__Hbank14                        bank14        00000
__Hbank2                         bank2         00000
__Hbank3                         bank3         00000
__Hbank4                         bank4         00000
__Hbank5                         bank5         00000
__Hbank6                         bank6         00000
__Hbank7                         bank7         00000
__Hbank8                         bank8         00000
__Hbank9                         bank9         00000
__Hbigbss                        bigbss        00000
__Hbigdata                       bigdata       00000
__Hbigram                        bigram        00000
__Hbss                           bss           00000
__HbssBANK1                      bssBANK1      00000
__HbssBANK2                      bssBANK2      00000
__HbssCOMRAM                     bssCOMRAM     00000
__Hcinit                         cinit         00000
__Hclrtext                       clrtext       00000
__Hcomram                        comram        00000
__Hconfig                        config        20000
__Hconst                         const         00000
__HcstackBANK0                   cstackBANK0   00000
__HcstackCOMRAM                  cstackCOMRAM  00000
__Hdata                          data          00000
__HdataBANK0                     dataBANK0     00000
__Hend_init                      end_init      000D0
__Hfarbss                        farbss        00000
__Hfardata                       fardata       00000
__Hibigdata                      ibigdata      00000
__Hidata                         idata         00000
__HidataBANK0                    idataBANK0    00000
__Hidloc                         idloc         00000
__Hifardata                      ifardata      00000
__Hinit                          init          000CC
__Hintcode                       intcode       000CC
__Hintcode_body                  intcode_body  00000
__Hintcodelo                     intcodelo     000CC
__Hintentry                      intentry      00000
__Hintret                        intret        00000
__Hintsave_regs                  intsave_regs  00000
__Hirdata                        irdata        00000
__Hjflash_buffer                 jflash_buffer 1F800
__Hmediumconst                   mediumconst   00000
__HnvFARRAM                      nvFARRAM      00000
__Hnvbit                         nvbit         00000
__Hnvrram                        nvrram        00000
__Hparam                         rparam        00000
__Hpowerup                       powerup       000CC
__Hram                           ram           00000
__Hramtop                        ramtop        00F00
__Hrbit                          rbit          00000
__Hrbss                          rbss          00000
__Hrdata                         rdata         00000
__Hreset_vec                     reset_vec     00004
__Hrparam                        rparam        00000
__Hsfr                           sfr           00000
__Hsmallconst                    smallconst    00F14
__Hspace_0                       (abs)         20000
__Hspace_1                       (abs)         002FA
__Hspace_2                       (abs)         00000
__Hstack                         stack         00000
__Hstruct                        struct        00000
__Htemp                          temp          00051
__Htext                          text          00000
__Htext0                         text0         00000
__Htext1                         text1         00000
__Htext10                        text10        00000
__Htext11                        text11        00000
__Htext12                        text12        00000
__Htext13                        text13        00000
__Htext14                        text14        00000
__Htext15                        text15        00000
__Htext16                        text16        00000
__Htext17                        text17        00000
__Htext18                        text18        00000
__Htext19                        text19        00000
__Htext2                         text2         00000
__Htext20                        text20        00000
__Htext21                        text21        00000
__Htext22                        text22        00000
__Htext23                        text23        00000
__Htext24                        text24        00000
__Htext25                        text25        00000
__Htext26                        text26        00000
__Htext28                        text28        00000
__Htext29                        text29        00000
__Htext3                         text3         00000
__Htext30                        text30        00000
__Htext31                        text31        00000
__Htext32                        text32        00000
__Htext33                        text33        00000
__Htext34                        text34        00000
__Htext35                        text35        00000
__Htext4                         text4         00000
__Htext5                         text5         00000
__Htext6                         text6         00000
__Htext7                         text7         00000
__Htext8                         text8         00000
__Htext9                         text9         00000
__LRAM                           (abs)         00001
__Labs1                          abs1          00000
__Lbank0                         bank0         00000
__Lbank1                         bank1         00000
__Lbank10                        bank10        00000
__Lbank11                        bank11        00000
__Lbank12                        bank12        00000
__Lbank13                        bank13        00000
__Lbank14                        bank14        00000
__Lbank2                         bank2         00000
__Lbank3                         bank3         00000
__Lbank4                         bank4         00000
__Lbank5                         bank5         00000
__Lbank6                         bank6         00000
__Lbank7                         bank7         00000
__Lbank8                         bank8         00000
__Lbank9                         bank9         00000
__Lbigbss                        bigbss        00000
__Lbigdata                       bigdata       00000
__Lbigram                        bigram        00000
__Lbss                           bss           00000
__LbssBANK1                      bssBANK1      00000
__LbssBANK2                      bssBANK2      00000
__LbssCOMRAM                     bssCOMRAM     00000
__Lcinit                         cinit         00000
__Lclrtext                       clrtext       00000
__Lcomram                        comram        00000
__Lconfig                        config        1FFF8
__Lconst                         const         00000
__LcstackBANK0                   cstackBANK0   00000
__LcstackCOMRAM                  cstackCOMRAM  00000
__Ldata                          data          00000
__LdataBANK0                     dataBANK0     00000
__Lend_init                      end_init      000CC
__Lfarbss                        farbss        00000
__Lfardata                       fardata       00000
__Libigdata                      ibigdata      00000
__Lidata                         idata         00000
__LidataBANK0                    idataBANK0    00000
__Lidloc                         idloc         00000
__Lifardata                      ifardata      00000
__Linit                          init          000CC
__Lintcode                       intcode       00008
__Lintcode_body                  intcode_body  00000
__Lintcodelo                     intcodelo     000CC
__Lintentry                      intentry      00000
__Lintret                        intret        00000
__Lintsave_regs                  intsave_regs  00000
__Lirdata                        irdata        00000
__Ljflash_buffer                 jflash_buffer 1F800
__Lmediumconst                   mediumconst   00000
__LnvFARRAM                      nvFARRAM      00000
__Lnvbit                         nvbit         00000
__Lnvrram                        nvrram        00000
__Lparam                         rparam        00000
__Lpowerup                       powerup       000CC
__Lram                           ram           00000
__Lramtop                        ramtop        00F00
__Lrbit                          rbit          00000
__Lrbss                          rbss          00000
__Lrdata                         rdata         00000
__Lreset_vec                     reset_vec     00000
__Lrparam                        rparam        00000
__Lsfr                           sfr           00000
__Lsmallconst                    smallconst    00F00
__Lspace_0                       (abs)         00000
__Lspace_1                       (abs)         00000
__Lspace_2                       (abs)         00000
__Lstack                         stack         00000
__Lstruct                        struct        00000
__Ltemp                          temp          00050
__Ltext                          text          00000
__Ltext0                         text0         00000
__Ltext1                         text1         00000
__Ltext10                        text10        00000
__Ltext11                        text11        00000
__Ltext12                        text12        00000
__Ltext13                        text13        00000
__Ltext14                        text14        00000
__Ltext15                        text15        00000
__Ltext16                        text16        00000
__Ltext17                        text17        00000
__Ltext18                        text18        00000
__Ltext19                        text19        00000
__Ltext2                         text2         00000
__Ltext20                        text20        00000
__Ltext21                        text21        00000
__Ltext22                        text22        00000
__Ltext23                        text23        00000
__Ltext24                        text24        00000
__Ltext25                        text25        00000
__Ltext26                        text26        00000
__Ltext28                        text28        00000
__Ltext29                        text29        00000
__Ltext3                         text3         00000
__Ltext30                        text30        00000
__Ltext31                        text31        00000
__Ltext32                        text32        00000
__Ltext33                        text33        00000
__Ltext34                        text34        00000
__Ltext35                        text35        00000
__Ltext4                         text4         00000
__Ltext5                         text5         00000
__Ltext6                         text6         00000
__Ltext7                         text7         00000
__Ltext8                         text8         00000
__Ltext9                         text9         00000
__S0                             (abs)         20000
__S1                             (abs)         002FA
__S2                             (abs)         00000
___inthi_sp                      stack         00000
___intlo_sp                      stack         00000
___lldiv                         text26        015C4
___lldiv@counter                 cstackBANK0   0006C
___lldiv@dividend                cstackBANK0   00060
___lldiv@divisor                 cstackBANK0   00064
___lldiv@quotient                cstackBANK0   00068
___lwdiv                         text17        01A5A
___lwdiv@counter                 cstackBANK0   0007C
___lwdiv@dividend                cstackBANK0   00076
___lwdiv@divisor                 cstackBANK0   00078
___lwdiv@quotient                cstackBANK0   0007A
___param_bank                    (abs)         00010
___rparam_used                   (abs)         00001
___sp                            stack         00000
__accesstop                      (abs)         00060
__activetblptr                   (abs)         00001
__end_of_CTMU_init               text16        01E68
__end_of_CTMU_read               text25        015C4
__end_of_Delay_ms                text15        01E14
__end_of_I2C_IdleCheck           text24        01EA6
__end_of_I2C_LCD_Clear           text14        01EDC
__end_of_I2C_LCD_Command         text19        01D8C
__end_of_I2C_LCD_Puts            text20        01B34
__end_of_I2C_LCD_SetCursor       text18        01E40
__end_of_I2C_LCD_init            text13        01B8C
__end_of_I2C_Send                text23        01EF4
__end_of_I2C_Start               text22        01DBC
__end_of_I2C_Stop                text21        01F1E
__end_of_I2C_init                text12        01F06
__end_of_ISR                     intcode       000CC
__end_of_OSC_init                text11        01F14
__end_of_UART_ISR                text32        01D1A
__end_of_UART_init               text10        01E88
__end_of___lldiv                 text26        01680
__end_of___lwdiv                 text17        01AD2
__end_of__initialization         cinit         01CBE
__end_of_button_timer_interrupt  text31        01196
__end_of_main                    text0         01362
__end_of_main_init               text5         019D8
__end_of_ringbuf_init            text9         01BE0
__end_of_ringbuf_num             text4         01284
__end_of_ringbuf_pop             text3         01502
__end_of_ringbuf_put             text2         01436
__end_of_timer0_init             text8         01D54
__end_of_timer1_init             text7         01C82
__end_of_timer3_init             text6         01DE8
__end_of_tx_send                 text1         01EC2
__end_ofi2_CTMU_read             text29        01944
__end_ofi2___lldiv               text30        01A5A
__end_ofi2___lwdiv               text28        01C32
__end_ofi2_ringbuf_num           text35        0173C
__end_ofi2_ringbuf_pop           text34        0189E
__end_ofi2_ringbuf_put           text33        017F2
__initialization                 cinit         01C82
__mediumconst                    mediumconst   00000
__pbssBANK1                      bssBANK1      00100
__pbssBANK2                      bssBANK2      00200
__pbssCOMRAM                     bssCOMRAM     00031
__pcinit                         cinit         01C82
__pcstackBANK0                   cstackBANK0   00060
__pcstackCOMRAM                  cstackCOMRAM  00001
__pdataBANK0                     dataBANK0     0007D
__pidataBANK0                    idataBANK0    01F1E
__pintcode                       intcode       00008
__psmallconst                    smallconst    00F00
__ptext0                         text0         01284
__ptext1                         text1         01EA6
__ptext10                        text10        01E68
__ptext11                        text11        01F06
__ptext12                        text12        01EF4
__ptext13                        text13        01B34
__ptext14                        text14        01EC2
__ptext15                        text15        01DE8
__ptext16                        text16        01E40
__ptext17                        text17        01A5A
__ptext18                        text18        01E14
__ptext19                        text19        01D54
__ptext2                         text2         01362
__ptext20                        text20        01AD2
__ptext21                        text21        01F14
__ptext22                        text22        01D8C
__ptext23                        text23        01EDC
__ptext24                        text24        01E88
__ptext25                        text25        01502
__ptext26                        text26        015C4
__ptext28                        text28        01BE0
__ptext29                        text29        0189E
__ptext3                         text3         01436
__ptext30                        text30        019D8
__ptext31                        text31        00F14
__ptext32                        text32        01CD0
__ptext33                        text33        0173C
__ptext34                        text34        017F2
__ptext35                        text35        01680
__ptext4                         text4         01196
__ptext5                         text5         01944
__ptext6                         text6         01DBC
__ptext7                         text7         01C32
__ptext8                         text8         01D1A
__ptext9                         text9         01B8C
__ramtop                         ramtop        00F00
__size_of_CTMU_init              (abs)         00000
__size_of_CTMU_read              (abs)         00000
__size_of_Delay_ms               (abs)         00000
__size_of_I2C_IdleCheck          (abs)         00000
__size_of_I2C_LCD_Clear          (abs)         00000
__size_of_I2C_LCD_Command        (abs)         00000
__size_of_I2C_LCD_Puts           (abs)         00000
__size_of_I2C_LCD_SetCursor      (abs)         00000
__size_of_I2C_LCD_init           (abs)         00000
__size_of_I2C_Send               (abs)         00000
__size_of_I2C_Start              (abs)         00000
__size_of_I2C_Stop               (abs)         00000
__size_of_I2C_init               (abs)         00000
__size_of_ISR                    (abs)         00000
__size_of_OSC_init               (abs)         00000
__size_of_UART_ISR               (abs)         00000
__size_of_UART_init              (abs)         00000
__size_of___lldiv                (abs)         00000
__size_of___lwdiv                (abs)         00000
__size_of_button_timer_interrupt (abs)         00000
__size_of_main                   (abs)         00000
__size_of_main_init              (abs)         00000
__size_of_ringbuf_init           (abs)         00000
__size_of_ringbuf_num            (abs)         00000
__size_of_ringbuf_pop            (abs)         00000
__size_of_ringbuf_put            (abs)         00000
__size_of_timer0_init            (abs)         00000
__size_of_timer1_init            (abs)         00000
__size_of_timer3_init            (abs)         00000
__size_of_tx_send                (abs)         00000
__size_ofi2_CTMU_read            (abs)         00000
__size_ofi2___lldiv              (abs)         00000
__size_ofi2___lwdiv              (abs)         00000
__size_ofi2_ringbuf_num          (abs)         00000
__size_ofi2_ringbuf_pop          (abs)         00000
__size_ofi2_ringbuf_put          (abs)         00000
__smallconst                     smallconst    00F00
_button_timer_interrupt          text31        00F14
_ct                              bssCOMRAM     0004C
_ctmu_value                      bssCOMRAM     00038
_d1                              bssCOMRAM     00035
_main                            text0         01284
_main_init                       text5         01944
_ms                              bssCOMRAM     00031
_ringbuf_init                    text9         01B8C
_ringbuf_num                     text4         01196
_ringbuf_pop                     text3         01436
_ringbuf_put                     text2         01362
_rx_buf                          bssCOMRAM     0003C
_timer0_init                     text8         01D1A
_timer1_init                     text7         01C32
_timer3_init                     text6         01DBC
_tx_buf                          bssCOMRAM     00044
_tx_send                         text1         01EA6
btemp                            temp          00050
button_timer_interrupt@bt        cstackCOMRAM  0001E
button_timer_interrupt@sw_value  cstackCOMRAM  00020
end_of_initialization            cinit         01CBE
i2CTMU_read@ch                   cstackCOMRAM  00011
i2CTMU_read@i                    cstackCOMRAM  00016
i2CTMU_read@sum                  cstackCOMRAM  00012
i2_CTMU_read                     text29        0189E
i2___lldiv                       text30        019D8
i2___lldiv@counter               cstackCOMRAM  0000D
i2___lldiv@dividend              cstackCOMRAM  00001
i2___lldiv@divisor               cstackCOMRAM  00005
i2___lldiv@quotient              cstackCOMRAM  00009
i2___lwdiv                       text28        01BE0
i2___lwdiv@counter               cstackCOMRAM  0001D
i2___lwdiv@dividend              cstackCOMRAM  00017
i2___lwdiv@divisor               cstackCOMRAM  00019
i2___lwdiv@quotient              cstackCOMRAM  0001B
i2_ringbuf_num                   text35        01680
i2_ringbuf_pop                   text34        017F2
i2_ringbuf_put                   text33        0173C
i2ringbuf_num@rb                 cstackCOMRAM  00001
i2ringbuf_pop@rb                 cstackCOMRAM  00009
i2ringbuf_pop@ret                cstackCOMRAM  0000F
i2ringbuf_put@asciicode          cstackCOMRAM  0000B
i2ringbuf_put@rb                 cstackCOMRAM  00009
int$flags                        temp          00050
intlevel0                        text          00000
intlevel1                        text          00000
intlevel2                        text          00000
intlevel3                        text          00000
main_init@rxbuf                  bssBANK2      00200
main_init@txbuf                  bssBANK1      00100
millis_timer@cnt                 bssCOMRAM     0003A
ringbuf_init@bufsize             cstackBANK0   00064
ringbuf_init@internal_buf        cstackBANK0   00062
ringbuf_init@rb                  cstackBANK0   00060
ringbuf_num@rb                   cstackBANK0   00060
ringbuf_pop@rb                   cstackBANK0   00068
ringbuf_pop@ret                  cstackBANK0   0006E
ringbuf_put@asciicode            cstackBANK0   0006A
ringbuf_put@rb                   cstackBANK0   00068
stackhi                          (abs)         00EAF
stacklo                          (abs)         002FA
start                            init          000CC
start_initialization             cinit         01C82
timer0_init@prescaler            cstackBANK0   00061
timer1_init@clock_select         cstackBANK0   00060
timer1_init@prescaler            cstackBANK0   00062
timer3_init@prescaler            cstackBANK0   00061
tx_send@asciicode                cstackBANK0   0006F


FUNCTION INFORMATION:

 *************** function _main *****************
 Defined at:
		line 83 in file "main.c"
 Parameters:    Size  Location     Type
		None
 Auto vars:     Size  Location     Type
		None
 Return value:  Size  Location     Type
		None               void
 Registers used:
		wreg, fsr1l, fsr1h, fsr2l, fsr2h, status,2, status,0, tblptrl, tblptrh, tblptru, prodl, prodh, cstack
 Tracked objects:
		On entry : 
		On exit  : 
		Unchanged: 
 Data sizes:     COMRAM   BANK0   BANK1   BANK2   BANK3   BANK4   BANK5   BANK6   BANK7   BANK8   BANK9  BANK10  BANK11  BANK12  BANK13  BANK14
      Params:         0       0       0       0       0       0       0       0       0       0       0       0       0       0       0       0
      Locals:         0       0       0       0       0       0       0       0       0       0       0       0       0       0       0       0
      Temps:          0       0       0       0       0       0       0       0       0       0       0       0       0       0       0       0
      Totals:         0       0       0       0       0       0       0       0       0       0       0       0       0       0       0       0
Total ram usage:        0 bytes
 Hardware stack levels required when called:   10
 This function calls:
		_CTMU_read
		_Delay_ms
		_I2C_LCD_Clear
		_I2C_LCD_Puts
		_I2C_LCD_SetCursor
		___lwdiv
		_main_init
		_ringbuf_num
		_ringbuf_pop
		_tx_send
 This function is called by:
		Startup code after reset
 This function uses a non-reentrant model


 *************** function _tx_send *****************
 Defined at:
		line 222 in file "../My_header\My_header.h"
 Parameters:    Size  Location     Type
  asciicode       1    wreg     const unsigned char 
 Auto vars:     Size  Location     Type
  asciicode       1   15[BANK0 ] const unsigned char 
 Return value:  Size  Location     Type
		None               void
 Registers used:
		wreg, fsr1l, fsr1h, fsr2l, fsr2h, status,2, status,0, cstack
 Tracked objects:
		On entry : 
		On exit  : 
		Unchanged: 
 Data sizes:     COMRAM   BANK0   BANK1   BANK2   BANK3   BANK4   BANK5   BANK6   BANK7   BANK8   BANK9  BANK10  BANK11  BANK12  BANK13  BANK14
      Params:         0       0       0       0       0       0       0       0       0       0       0       0       0       0       0       0
      Locals:         0       1       0       0       0       0       0       0       0       0       0       0       0       0       0       0
      Temps:          0       0       0       0       0       0       0       0       0       0       0       0       0       0       0       0
      Totals:         0       1       0       0       0       0       0       0       0       0       0       0       0       0       0       0
Total ram usage:        1 bytes
 Hardware stack levels used:    1
 Hardware stack levels required when called:    6
 This function calls:
		_ringbuf_put
 This function is called by:
		_main
		_tx_sendn
 This function uses a non-reentrant model


 *************** function _ringbuf_put *****************
 Defined at:
		line 39 in file "../My_header\My_ringbuf.h"
 Parameters:    Size  Location     Type
  rb              2    8[BANK0 ] PTR struct ringbuf
		 -> rx_buf(8), tx_buf(8), 
  asciicode       1   10[BANK0 ] unsigned char 
 Auto vars:     Size  Location     Type
		None
 Return value:  Size  Location     Type
		None               void
 Registers used:
		wreg, fsr1l, fsr1h, fsr2l, fsr2h, status,2, status,0, cstack
 Tracked objects:
		On entry : 
		On exit  : 
		Unchanged: 
 Data sizes:     COMRAM   BANK0   BANK1   BANK2   BANK3   BANK4   BANK5   BANK6   BANK7   BANK8   BANK9  BANK10  BANK11  BANK12  BANK13  BANK14
      Params:         0       3       0       0       0       0       0       0       0       0       0       0       0       0       0       0
      Locals:         0       0       0       0       0       0       0       0       0       0       0       0       0       0       0       0
      Temps:          0       4       0       0       0       0       0       0       0       0       0       0       0       0       0       0
      Totals:         0       7       0       0       0       0       0       0       0       0       0       0       0       0       0       0
Total ram usage:        7 bytes
 Hardware stack levels used:    1
 Hardware stack levels required when called:    5
 This function calls:
		_ringbuf_num
 This function is called by:
		_tx_send
		_ringbuf_put_num
		_ringbuf_put_str
		_tx_sends
 This function uses a non-reentrant model


 *************** function _ringbuf_pop *****************
 Defined at:
		line 64 in file "../My_header\My_ringbuf.h"
 Parameters:    Size  Location     Type
  rb              2    8[BANK0 ] PTR struct ringbuf
		 -> rx_buf(8), tx_buf(8), 
 Auto vars:     Size  Location     Type
  ret             1   14[BANK0 ] unsigned char 
 Return value:  Size  Location     Type
                  1    wreg      unsigned char 
 Registers used:
		wreg, fsr1l, fsr1h, fsr2l, fsr2h, status,2, status,0, cstack
 Tracked objects:
		On entry : 
		On exit  : 
		Unchanged: 
 Data sizes:     COMRAM   BANK0   BANK1   BANK2   BANK3   BANK4   BANK5   BANK6   BANK7   BANK8   BANK9  BANK10  BANK11  BANK12  BANK13  BANK14
      Params:         0       2       0       0       0       0       0       0       0       0       0       0       0       0       0       0
      Locals:         0       1       0       0       0       0       0       0       0       0       0       0       0       0       0       0
      Temps:          0       4       0       0       0       0       0       0       0       0       0       0       0       0       0       0
      Totals:         0       7       0       0       0       0       0       0       0       0       0       0       0       0       0       0
Total ram usage:        7 bytes
 Hardware stack levels used:    1
 Hardware stack levels required when called:    5
 This function calls:
		_ringbuf_num
 This function is called by:
		_main
 This function uses a non-reentrant model


 *************** function _ringbuf_num *****************
 Defined at:
		line 31 in file "../My_header\My_ringbuf.h"
 Parameters:    Size  Location     Type
  rb              2    0[BANK0 ] PTR struct ringbuf
		 -> rx_buf(8), tx_buf(8), 
 Auto vars:     Size  Location     Type
		None
 Return value:  Size  Location     Type
                  2    0[BANK0 ] unsigned int 
 Registers used:
		wreg, fsr1l, fsr1h, fsr2l, fsr2h, status,2, status,0
 Tracked objects:
		On entry : 
		On exit  : 
		Unchanged: 
 Data sizes:     COMRAM   BANK0   BANK1   BANK2   BANK3   BANK4   BANK5   BANK6   BANK7   BANK8   BANK9  BANK10  BANK11  BANK12  BANK13  BANK14
      Params:         0       2       0       0       0       0       0       0       0       0       0       0       0       0       0       0
      Locals:         0       0       0       0       0       0       0       0       0       0       0       0       0       0       0       0
      Temps:          0       6       0       0       0       0       0       0       0       0       0       0       0       0       0       0
      Totals:         0       8       0       0       0       0       0       0       0       0       0       0       0       0       0       0
Total ram usage:        8 bytes
 Hardware stack levels used:    1
 Hardware stack levels required when called:    4
 This function calls:
		Nothing
 This function is called by:
		_ringbuf_put
		_ringbuf_pop
		_main
		_ringbuf_backspace
 This function uses a non-reentrant model


 *************** function _main_init *****************
 Defined at:
		line 58 in file "main.c"
 Parameters:    Size  Location     Type
		None
 Auto vars:     Size  Location     Type
		None
 Return value:  Size  Location     Type
		None               void
 Registers used:
		wreg, fsr2l, fsr2h, status,2, status,0, cstack
 Tracked objects:
		On entry : 
		On exit  : 
		Unchanged: 
 Data sizes:     COMRAM   BANK0   BANK1   BANK2   BANK3   BANK4   BANK5   BANK6   BANK7   BANK8   BANK9  BANK10  BANK11  BANK12  BANK13  BANK14
      Params:         0       0       0       0       0       0       0       0       0       0       0       0       0       0       0       0
      Locals:         0       0       0       0       0       0       0       0       0       0       0       0       0       0       0       0
      Temps:          0       0       0       0       0       0       0       0       0       0       0       0       0       0       0       0
      Totals:         0       0       0       0       0       0       0       0       0       0       0       0       0       0       0       0
Total ram usage:        0 bytes
 Hardware stack levels used:    1
 Hardware stack levels required when called:    9
 This function calls:
		_CTMU_init
		_I2C_LCD_init
		_I2C_init
		_OSC_init
		_UART_init
		_ringbuf_init
		_timer0_init
		_timer1_init
		_timer3_init
 This function is called by:
		_main
 This function uses a non-reentrant model


 *************** function _timer3_init *****************
 Defined at:
		line 85 in file "../My_header\My_header.h"
 Parameters:    Size  Location     Type
  prescaler       1    wreg     unsigned char 
 Auto vars:     Size  Location     Type
  prescaler       1    1[BANK0 ] unsigned char 
 Return value:  Size  Location     Type
		None               void
 Registers used:
		wreg, status,2, status,0
 Tracked objects:
		On entry : 
		On exit  : 
		Unchanged: 
 Data sizes:     COMRAM   BANK0   BANK1   BANK2   BANK3   BANK4   BANK5   BANK6   BANK7   BANK8   BANK9  BANK10  BANK11  BANK12  BANK13  BANK14
      Params:         0       0       0       0       0       0       0       0       0       0       0       0       0       0       0       0
      Locals:         0       1       0       0       0       0       0       0       0       0       0       0       0       0       0       0
      Temps:          0       1       0       0       0       0       0       0       0       0       0       0       0       0       0       0
      Totals:         0       2       0       0       0       0       0       0       0       0       0       0       0       0       0       0
Total ram usage:        2 bytes
 Hardware stack levels used:    1
 Hardware stack levels required when called:    4
 This function calls:
		Nothing
 This function is called by:
		_main_init
 This function uses a non-reentrant model


 *************** function _timer1_init *****************
 Defined at:
		line 54 in file "../My_header\My_header.h"
 Parameters:    Size  Location     Type
  prescaler       1    wreg     unsigned char 
  clock_select    1    0[BANK0 ] unsigned char 
 Auto vars:     Size  Location     Type
  prescaler       1    2[BANK0 ] unsigned char 
 Return value:  Size  Location     Type
		None               void
 Registers used:
		wreg, status,2, status,0
 Tracked objects:
		On entry : 
		On exit  : 
		Unchanged: 
 Data sizes:     COMRAM   BANK0   BANK1   BANK2   BANK3   BANK4   BANK5   BANK6   BANK7   BANK8   BANK9  BANK10  BANK11  BANK12  BANK13  BANK14
      Params:         0       1       0       0       0       0       0       0       0       0       0       0       0       0       0       0
      Locals:         0       1       0       0       0       0       0       0       0       0       0       0       0       0       0       0
      Temps:          0       1       0       0       0       0       0       0       0       0       0       0       0       0       0       0
      Totals:         0       3       0       0       0       0       0       0       0       0       0       0       0       0       0       0
Total ram usage:        3 bytes
 Hardware stack levels used:    1
 Hardware stack levels required when called:    4
 This function calls:
		Nothing
 This function is called by:
		_main_init
 This function uses a non-reentrant model


 *************** function _timer0_init *****************
 Defined at:
		line 15 in file "../My_header\My_header.h"
 Parameters:    Size  Location     Type
  prescaler       1    wreg     unsigned char 
 Auto vars:     Size  Location     Type
  prescaler       1    1[BANK0 ] unsigned char 
 Return value:  Size  Location     Type
		None               void
 Registers used:
		wreg, status,2, status,0
 Tracked objects:
		On entry : 
		On exit  : 
		Unchanged: 
 Data sizes:     COMRAM   BANK0   BANK1   BANK2   BANK3   BANK4   BANK5   BANK6   BANK7   BANK8   BANK9  BANK10  BANK11  BANK12  BANK13  BANK14
      Params:         0       0       0       0       0       0       0       0       0       0       0       0       0       0       0       0
      Locals:         0       1       0       0       0       0       0       0       0       0       0       0       0       0       0       0
      Temps:          0       1       0       0       0       0       0       0       0       0       0       0       0       0       0       0
      Totals:         0       2       0       0       0       0       0       0       0       0       0       0       0       0       0       0
Total ram usage:        2 bytes
 Hardware stack levels used:    1
 Hardware stack levels required when called:    4
 This function calls:
		Nothing
 This function is called by:
		_main_init
 This function uses a non-reentrant model


 *************** function _ringbuf_init *****************
 Defined at:
		line 24 in file "../My_header\My_ringbuf.h"
 Parameters:    Size  Location     Type
  rb              2    0[BANK0 ] PTR struct ringbuf
		 -> rx_buf(8), tx_buf(8), 
  internal_buf    2    2[BANK0 ] PTR unsigned char 
		 -> main_init@rxbuf(250), main_init@txbuf(250), 
  bufsize         2    4[BANK0 ] unsigned int 
 Auto vars:     Size  Location     Type
		None
 Return value:  Size  Location     Type
		None               void
 Registers used:
		wreg, fsr2l, fsr2h, status,2, status,0
 Tracked objects:
		On entry : 
		On exit  : 
		Unchanged: 
 Data sizes:     COMRAM   BANK0   BANK1   BANK2   BANK3   BANK4   BANK5   BANK6   BANK7   BANK8   BANK9  BANK10  BANK11  BANK12  BANK13  BANK14
      Params:         0       6       0       0       0       0       0       0       0       0       0       0       0       0       0       0
      Locals:         0       0       0       0       0       0       0       0       0       0       0       0       0       0       0       0
      Temps:          0       0       0       0       0       0       0       0       0       0       0       0       0       0       0       0
      Totals:         0       6       0       0       0       0       0       0       0       0       0       0       0       0       0       0
Total ram usage:        6 bytes
 Hardware stack levels used:    1
 Hardware stack levels required when called:    4
 This function calls:
		Nothing
 This function is called by:
		_main_init
 This function uses a non-reentrant model


 *************** function _UART_init *****************
 Defined at:
		line 192 in file "../My_header\My_header.h"
 Parameters:    Size  Location     Type
		None
 Auto vars:     Size  Location     Type
		None
 Return value:  Size  Location     Type
		None               void
 Registers used:
		wreg, status,2
 Tracked objects:
		On entry : 
		On exit  : 
		Unchanged: 
 Data sizes:     COMRAM   BANK0   BANK1   BANK2   BANK3   BANK4   BANK5   BANK6   BANK7   BANK8   BANK9  BANK10  BANK11  BANK12  BANK13  BANK14
      Params:         0       0       0       0       0       0       0       0       0       0       0       0       0       0       0       0
      Locals:         0       0       0       0       0       0       0       0       0       0       0       0       0       0       0       0
      Temps:          0       0       0       0       0       0       0       0       0       0       0       0       0       0       0       0
      Totals:         0       0       0       0       0       0       0       0       0       0       0       0       0       0       0       0
Total ram usage:        0 bytes
 Hardware stack levels used:    1
 Hardware stack levels required when called:    4
 This function calls:
		Nothing
 This function is called by:
		_main_init
 This function uses a non-reentrant model


 *************** function _OSC_init *****************
 Defined at:
		line 119 in file "../My_header\My_header.h"
 Parameters:    Size  Location     Type
		None
 Auto vars:     Size  Location     Type
		None
 Return value:  Size  Location     Type
		None               void
 Registers used:
		wreg, status,2
 Tracked objects:
		On entry : 
		On exit  : 
		Unchanged: 
 Data sizes:     COMRAM   BANK0   BANK1   BANK2   BANK3   BANK4   BANK5   BANK6   BANK7   BANK8   BANK9  BANK10  BANK11  BANK12  BANK13  BANK14
      Params:         0       0       0       0       0       0       0       0       0       0       0       0       0       0       0       0
      Locals:         0       0       0       0       0       0       0       0       0       0       0       0       0       0       0       0
      Temps:          0       0       0       0       0       0       0       0       0       0       0       0       0       0       0       0
      Totals:         0       0       0       0       0       0       0       0       0       0       0       0       0       0       0       0
Total ram usage:        0 bytes
 Hardware stack levels used:    1
 Hardware stack levels required when called:    4
 This function calls:
		Nothing
 This function is called by:
		_main_init
 This function uses a non-reentrant model


 *************** function _I2C_init *****************
 Defined at:
		line 25 in file "../My_header\My_I2C.h"
 Parameters:    Size  Location     Type
		None
 Auto vars:     Size  Location     Type
		None
 Return value:  Size  Location     Type
		None               void
 Registers used:
		wreg, status,2
 Tracked objects:
		On entry : 
		On exit  : 
		Unchanged: 
 Data sizes:     COMRAM   BANK0   BANK1   BANK2   BANK3   BANK4   BANK5   BANK6   BANK7   BANK8   BANK9  BANK10  BANK11  BANK12  BANK13  BANK14
      Params:         0       0       0       0       0       0       0       0       0       0       0       0       0       0       0       0
      Locals:         0       0       0       0       0       0       0       0       0       0       0       0       0       0       0       0
      Temps:          0       0       0       0       0       0       0       0       0       0       0       0       0       0       0       0
      Totals:         0       0       0       0       0       0       0       0       0       0       0       0       0       0       0       0
Total ram usage:        0 bytes
 Hardware stack levels used:    1
 Hardware stack levels required when called:    4
 This function calls:
		Nothing
 This function is called by:
		_main_init
 This function uses a non-reentrant model


 *************** function _I2C_LCD_init *****************
 Defined at:
		line 164 in file "../My_header\My_I2C.h"
 Parameters:    Size  Location     Type
		None
 Auto vars:     Size  Location     Type
		None
 Return value:  Size  Location     Type
		None               void
 Registers used:
		wreg, status,2, status,0, cstack
 Tracked objects:
		On entry : 
		On exit  : 
		Unchanged: 
 Data sizes:     COMRAM   BANK0   BANK1   BANK2   BANK3   BANK4   BANK5   BANK6   BANK7   BANK8   BANK9  BANK10  BANK11  BANK12  BANK13  BANK14
      Params:         0       0       0       0       0       0       0       0       0       0       0       0       0       0       0       0
      Locals:         0       0       0       0       0       0       0       0       0       0       0       0       0       0       0       0
      Temps:          0       0       0       0       0       0       0       0       0       0       0       0       0       0       0       0
      Totals:         0       0       0       0       0       0       0       0       0       0       0       0       0       0       0       0
Total ram usage:        0 bytes
 Hardware stack levels used:    1
 Hardware stack levels required when called:    8
 This function calls:
		_Delay_ms
		_I2C_LCD_Clear
		_I2C_LCD_Command
 This function is called by:
		_main_init
 This function uses a non-reentrant model


 *************** function _I2C_LCD_Clear *****************
 Defined at:
		line 107 in file "../My_header\My_I2C.h"
 Parameters:    Size  Location     Type
		None
 Auto vars:     Size  Location     Type
		None
 Return value:  Size  Location     Type
		None               void
 Registers used:
		wreg, status,2, status,0, cstack
 Tracked objects:
		On entry : 
		On exit  : 
		Unchanged: 
 Data sizes:     COMRAM   BANK0   BANK1   BANK2   BANK3   BANK4   BANK5   BANK6   BANK7   BANK8   BANK9  BANK10  BANK11  BANK12  BANK13  BANK14
      Params:         0       0       0       0       0       0       0       0       0       0       0       0       0       0       0       0
      Locals:         0       0       0       0       0       0       0       0       0       0       0       0       0       0       0       0
      Temps:          0       1       0       0       0       0       0       0       0       0       0       0       0       0       0       0
      Totals:         0       1       0       0       0       0       0       0       0       0       0       0       0       0       0       0
Total ram usage:        1 bytes
 Hardware stack levels used:    1
 Hardware stack levels required when called:    7
 This function calls:
		_I2C_LCD_Command
 This function is called by:
		_I2C_LCD_init
		_main
 This function uses a non-reentrant model


 *************** function _Delay_ms *****************
 Defined at:
		line 333 in file "../My_header\My_header.h"
 Parameters:    Size  Location     Type
  ms              2    0[BANK0 ] unsigned int 
 Auto vars:     Size  Location     Type
		None
 Return value:  Size  Location     Type
		None               void
 Registers used:
		wreg, status,2, status,0
 Tracked objects:
		On entry : 
		On exit  : 
		Unchanged: 
 Data sizes:     COMRAM   BANK0   BANK1   BANK2   BANK3   BANK4   BANK5   BANK6   BANK7   BANK8   BANK9  BANK10  BANK11  BANK12  BANK13  BANK14
      Params:         0       2       0       0       0       0       0       0       0       0       0       0       0       0       0       0
      Locals:         0       0       0       0       0       0       0       0       0       0       0       0       0       0       0       0
      Temps:          0       1       0       0       0       0       0       0       0       0       0       0       0       0       0       0
      Totals:         0       3       0       0       0       0       0       0       0       0       0       0       0       0       0       0
Total ram usage:        3 bytes
 Hardware stack levels used:    1
 Hardware stack levels required when called:    4
 This function calls:
		Nothing
 This function is called by:
		_I2C_LCD_init
		_main
 This function uses a non-reentrant model


 *************** function _CTMU_init *****************
 Defined at:
		line 289 in file "../My_header\My_header.h"
 Parameters:    Size  Location     Type
		None
 Auto vars:     Size  Location     Type
		None
 Return value:  Size  Location     Type
		None               void
 Registers used:
		wreg, status,2
 Tracked objects:
		On entry : 
		On exit  : 
		Unchanged: 
 Data sizes:     COMRAM   BANK0   BANK1   BANK2   BANK3   BANK4   BANK5   BANK6   BANK7   BANK8   BANK9  BANK10  BANK11  BANK12  BANK13  BANK14
      Params:         0       0       0       0       0       0       0       0       0       0       0       0       0       0       0       0
      Locals:         0       0       0       0       0       0       0       0       0       0       0       0       0       0       0       0
      Temps:          0       0       0       0       0       0       0       0       0       0       0       0       0       0       0       0
      Totals:         0       0       0       0       0       0       0       0       0       0       0       0       0       0       0       0
Total ram usage:        0 bytes
 Hardware stack levels used:    1
 Hardware stack levels required when called:    4
 This function calls:
		Nothing
 This function is called by:
		_main_init
 This function uses a non-reentrant model


 *************** function ___lwdiv *****************
 Defined at:
		line 8 in file "C:\Program Files (x86)\Microchip\xc8\v1.35\sources\common\lwdiv.c"
 Parameters:    Size  Location     Type
  dividend        2   22[BANK0 ] unsigned int 
  divisor         2   24[BANK0 ] unsigned int 
 Auto vars:     Size  Location     Type
  quotient        2   26[BANK0 ] unsigned int 
  counter         1   28[BANK0 ] unsigned char 
 Return value:  Size  Location     Type
                  2   22[BANK0 ] unsigned int 
 Registers used:
		wreg, status,2, status,0
 Tracked objects:
		On entry : 
		On exit  : 
		Unchanged: 
 Data sizes:     COMRAM   BANK0   BANK1   BANK2   BANK3   BANK4   BANK5   BANK6   BANK7   BANK8   BANK9  BANK10  BANK11  BANK12  BANK13  BANK14
      Params:         0       4       0       0       0       0       0       0       0       0       0       0       0       0       0       0
      Locals:         0       3       0       0       0       0       0       0       0       0       0       0       0       0       0       0
      Temps:          0       0       0       0       0       0       0       0       0       0       0       0       0       0       0       0
      Totals:         0       7       0       0       0       0       0       0       0       0       0       0       0       0       0       0
Total ram usage:        7 bytes
 Hardware stack levels used:    1
 Hardware stack levels required when called:    4
 This function calls:
		Nothing
 This function is called by:
		_main
		_ringbuf_put_num
		_tx_sendn
 This function uses a non-reentrant model


 *************** function _I2C_LCD_SetCursor *****************
 Defined at:
		line 112 in file "../My_header\My_I2C.h"
 Parameters:    Size  Location     Type
  col             1    wreg     unsigned char 
  row             1    6[BANK0 ] unsigned char 
 Auto vars:     Size  Location     Type
  col             1    9[BANK0 ] unsigned char 
  row_offsets     2    7[BANK0 ] unsigned char [2]
 Return value:  Size  Location     Type
		None               void
 Registers used:
		wreg, fsr2l, fsr2h, status,2, status,0, prodl, prodh, cstack
 Tracked objects:
		On entry : 
		On exit  : 
		Unchanged: 
 Data sizes:     COMRAM   BANK0   BANK1   BANK2   BANK3   BANK4   BANK5   BANK6   BANK7   BANK8   BANK9  BANK10  BANK11  BANK12  BANK13  BANK14
      Params:         0       1       0       0       0       0       0       0       0       0       0       0       0       0       0       0
      Locals:         0       3       0       0       0       0       0       0       0       0       0       0       0       0       0       0
      Temps:          0       0       0       0       0       0       0       0       0       0       0       0       0       0       0       0
      Totals:         0       4       0       0       0       0       0       0       0       0       0       0       0       0       0       0
Total ram usage:        4 bytes
 Hardware stack levels used:    1
 Hardware stack levels required when called:    7
 This function calls:
		_I2C_LCD_Command
 This function is called by:
		_main
 This function uses a non-reentrant model


 *************** function _I2C_LCD_Command *****************
 Defined at:
		line 94 in file "../My_header\My_I2C.h"
 Parameters:    Size  Location     Type
  c               1    wreg     unsigned char 
 Auto vars:     Size  Location     Type
  c               1    4[BANK0 ] unsigned char 
  ans             1    5[BANK0 ] unsigned char 
 Return value:  Size  Location     Type
		None               void
 Registers used:
		wreg, status,2, status,0, cstack
 Tracked objects:
		On entry : 
		On exit  : 
		Unchanged: 
 Data sizes:     COMRAM   BANK0   BANK1   BANK2   BANK3   BANK4   BANK5   BANK6   BANK7   BANK8   BANK9  BANK10  BANK11  BANK12  BANK13  BANK14
      Params:         0       0       0       0       0       0       0       0       0       0       0       0       0       0       0       0
      Locals:         0       2       0       0       0       0       0       0       0       0       0       0       0       0       0       0
      Temps:          0       0       0       0       0       0       0       0       0       0       0       0       0       0       0       0
      Totals:         0       2       0       0       0       0       0       0       0       0       0       0       0       0       0       0
Total ram usage:        2 bytes
 Hardware stack levels used:    1
 Hardware stack levels required when called:    6
 This function calls:
		_I2C_Send
		_I2C_Start
		_I2C_Stop
 This function is called by:
		_I2C_LCD_Clear
		_I2C_LCD_SetCursor
		_I2C_LCD_init
 This function uses a non-reentrant model


 *************** function _I2C_LCD_Puts *****************
 Defined at:
		line 131 in file "../My_header\My_I2C.h"
 Parameters:    Size  Location     Type
  s               2    4[BANK0 ] PTR const unsigned char 
		 -> STR_2(9), STR_1(9), 
 Auto vars:     Size  Location     Type
  ans             2    7[BANK0 ] int 
 Return value:  Size  Location     Type
		None               void
 Registers used:
		wreg, status,2, status,0, tblptrl, tblptrh, tblptru, cstack
 Tracked objects:
		On entry : 
		On exit  : 
		Unchanged: 
 Data sizes:     COMRAM   BANK0   BANK1   BANK2   BANK3   BANK4   BANK5   BANK6   BANK7   BANK8   BANK9  BANK10  BANK11  BANK12  BANK13  BANK14
      Params:         0       2       0       0       0       0       0       0       0       0       0       0       0       0       0       0
      Locals:         0       2       0       0       0       0       0       0       0       0       0       0       0       0       0       0
      Temps:          0       1       0       0       0       0       0       0       0       0       0       0       0       0       0       0
      Totals:         0       5       0       0       0       0       0       0       0       0       0       0       0       0       0       0
Total ram usage:        5 bytes
 Hardware stack levels used:    1
 Hardware stack levels required when called:    6
 This function calls:
		_I2C_Send
		_I2C_Start
		_I2C_Stop
 This function is called by:
		_main
 This function uses a non-reentrant model


 *************** function _I2C_Stop *****************
 Defined at:
		line 59 in file "../My_header\My_I2C.h"
 Parameters:    Size  Location     Type
		None
 Auto vars:     Size  Location     Type
		None
 Return value:  Size  Location     Type
		None               void
 Registers used:
		wreg, status,2, status,0, cstack
 Tracked objects:
		On entry : 
		On exit  : 
		Unchanged: 
 Data sizes:     COMRAM   BANK0   BANK1   BANK2   BANK3   BANK4   BANK5   BANK6   BANK7   BANK8   BANK9  BANK10  BANK11  BANK12  BANK13  BANK14
      Params:         0       0       0       0       0       0       0       0       0       0       0       0       0       0       0       0
      Locals:         0       0       0       0       0       0       0       0       0       0       0       0       0       0       0       0
      Temps:          0       0       0       0       0       0       0       0       0       0       0       0       0       0       0       0
      Totals:         0       0       0       0       0       0       0       0       0       0       0       0       0       0       0       0
Total ram usage:        0 bytes
 Hardware stack levels used:    1
 Hardware stack levels required when called:    5
 This function calls:
		_I2C_IdleCheck
 This function is called by:
		_I2C_LCD_Command
		_I2C_LCD_Puts
		_I2C_LCD_Putc
		_I2C_LCD_CreateChar
 This function uses a non-reentrant model


 *************** function _I2C_Start *****************
 Defined at:
		line 35 in file "../My_header\My_I2C.h"
 Parameters:    Size  Location     Type
  adrs            1    wreg     unsigned char 
  rw              1    2[BANK0 ] unsigned char 
 Auto vars:     Size  Location     Type
  adrs            1    3[BANK0 ] unsigned char 
 Return value:  Size  Location     Type
                  1    wreg      unsigned char 
 Registers used:
		wreg, status,2, status,0, cstack
 Tracked objects:
		On entry : 
		On exit  : 
		Unchanged: 
 Data sizes:     COMRAM   BANK0   BANK1   BANK2   BANK3   BANK4   BANK5   BANK6   BANK7   BANK8   BANK9  BANK10  BANK11  BANK12  BANK13  BANK14
      Params:         0       1       0       0       0       0       0       0       0       0       0       0       0       0       0       0
      Locals:         0       1       0       0       0       0       0       0       0       0       0       0       0       0       0       0
      Temps:          0       0       0       0       0       0       0       0       0       0       0       0       0       0       0       0
      Totals:         0       2       0       0       0       0       0       0       0       0       0       0       0       0       0       0
Total ram usage:        2 bytes
 Hardware stack levels used:    1
 Hardware stack levels required when called:    5
 This function calls:
		_I2C_IdleCheck
 This function is called by:
		_I2C_LCD_Command
		_I2C_LCD_Puts
		_I2C_LCD_Putc
		_I2C_LCD_CreateChar
 This function uses a non-reentrant model


 *************** function _I2C_Send *****************
 Defined at:
		line 65 in file "../My_header\My_I2C.h"
 Parameters:    Size  Location     Type
  data            1    wreg     unsigned char 
 Auto vars:     Size  Location     Type
  data            1    2[BANK0 ] unsigned char 
 Return value:  Size  Location     Type
                  1    wreg      unsigned char 
 Registers used:
		wreg, status,2, status,0, cstack
 Tracked objects:
		On entry : 
		On exit  : 
		Unchanged: 
 Data sizes:     COMRAM   BANK0   BANK1   BANK2   BANK3   BANK4   BANK5   BANK6   BANK7   BANK8   BANK9  BANK10  BANK11  BANK12  BANK13  BANK14
      Params:         0       0       0       0       0       0       0       0       0       0       0       0       0       0       0       0
      Locals:         0       1       0       0       0       0       0       0       0       0       0       0       0       0       0       0
      Temps:          0       0       0       0       0       0       0       0       0       0       0       0       0       0       0       0
      Totals:         0       1       0       0       0       0       0       0       0       0       0       0       0       0       0       0
Total ram usage:        1 bytes
 Hardware stack levels used:    1
 Hardware stack levels required when called:    5
 This function calls:
		_I2C_IdleCheck
 This function is called by:
		_I2C_LCD_Command
		_I2C_LCD_Puts
		_I2C_LCD_Putc
		_I2C_LCD_CreateChar
 This function uses a non-reentrant model


 *************** function _I2C_IdleCheck *****************
 Defined at:
		line 21 in file "../My_header\My_I2C.h"
 Parameters:    Size  Location     Type
  mask            1    wreg     unsigned char 
 Auto vars:     Size  Location     Type
  mask            1    1[BANK0 ] unsigned char 
 Return value:  Size  Location     Type
		None               void
 Registers used:
		wreg, status,2, status,0
 Tracked objects:
		On entry : 
		On exit  : 
		Unchanged: 
 Data sizes:     COMRAM   BANK0   BANK1   BANK2   BANK3   BANK4   BANK5   BANK6   BANK7   BANK8   BANK9  BANK10  BANK11  BANK12  BANK13  BANK14
      Params:         0       0       0       0       0       0       0       0       0       0       0       0       0       0       0       0
      Locals:         0       1       0       0       0       0       0       0       0       0       0       0       0       0       0       0
      Temps:          0       1       0       0       0       0       0       0       0       0       0       0       0       0       0       0
      Totals:         0       2       0       0       0       0       0       0       0       0       0       0       0       0       0       0
Total ram usage:        2 bytes
 Hardware stack levels used:    1
 Hardware stack levels required when called:    4
 This function calls:
		Nothing
 This function is called by:
		_I2C_Start
		_I2C_Stop
		_I2C_Send
		_I2C_rStart
		_I2C_Receive
 This function uses a non-reentrant model


 *************** function _CTMU_read *****************
 Defined at:
		line 304 in file "../My_header\My_header.h"
 Parameters:    Size  Location     Type
  ch              1    wreg     unsigned char 
 Auto vars:     Size  Location     Type
  ch              1   16[BANK0 ] unsigned char 
  i               1   21[BANK0 ] unsigned char 
  sum             4   17[BANK0 ] unsigned long 
 Return value:  Size  Location     Type
                  2   13[BANK0 ] unsigned int 
 Registers used:
		wreg, status,2, status,0, cstack
 Tracked objects:
		On entry : 
		On exit  : 
		Unchanged: 
 Data sizes:     COMRAM   BANK0   BANK1   BANK2   BANK3   BANK4   BANK5   BANK6   BANK7   BANK8   BANK9  BANK10  BANK11  BANK12  BANK13  BANK14
      Params:         0       2       0       0       0       0       0       0       0       0       0       0       0       0       0       0
      Locals:         0       6       0       0       0       0       0       0       0       0       0       0       0       0       0       0
      Temps:          0       1       0       0       0       0       0       0       0       0       0       0       0       0       0       0
      Totals:         0       9       0       0       0       0       0       0       0       0       0       0       0       0       0       0
Total ram usage:        9 bytes
 Hardware stack levels used:    1
 Hardware stack levels required when called:    5
 This function calls:
		___lldiv
 This function is called by:
		_main
 This function uses a non-reentrant model


 *************** function ___lldiv *****************
 Defined at:
		line 8 in file "C:\Program Files (x86)\Microchip\xc8\v1.35\sources\common\lldiv.c"
 Parameters:    Size  Location     Type
  dividend        4    0[BANK0 ] unsigned long 
  divisor         4    4[BANK0 ] unsigned long 
 Auto vars:     Size  Location     Type
  quotient        4    8[BANK0 ] unsigned long 
  counter         1   12[BANK0 ] unsigned char 
 Return value:  Size  Location     Type
                  4    0[BANK0 ] unsigned long 
 Registers used:
		wreg, status,2, status,0
 Tracked objects:
		On entry : 
		On exit  : 
		Unchanged: 
 Data sizes:     COMRAM   BANK0   BANK1   BANK2   BANK3   BANK4   BANK5   BANK6   BANK7   BANK8   BANK9  BANK10  BANK11  BANK12  BANK13  BANK14
      Params:         0       8       0       0       0       0       0       0       0       0       0       0       0       0       0       0
      Locals:         0       5       0       0       0       0       0       0       0       0       0       0       0       0       0       0
      Temps:          0       0       0       0       0       0       0       0       0       0       0       0       0       0       0       0
      Totals:         0      13       0       0       0       0       0       0       0       0       0       0       0       0       0       0
Total ram usage:       13 bytes
 Hardware stack levels used:    1
 Hardware stack levels required when called:    4
 This function calls:
		Nothing
 This function is called by:
		_CTMU_read
 This function uses a non-reentrant model


 *************** function _ISR *****************
 Defined at:
		line 43 in file "main.c"
 Parameters:    Size  Location     Type
		None
 Auto vars:     Size  Location     Type
		None
 Return value:  Size  Location     Type
		None               void
 Registers used:
		wreg, fsr1l, fsr1h, fsr2l, fsr2h, status,2, status,0, cstack
 Tracked objects:
		On entry : 
		On exit  : 
		Unchanged: 
 Data sizes:     COMRAM   BANK0   BANK1   BANK2   BANK3   BANK4   BANK5   BANK6   BANK7   BANK8   BANK9  BANK10  BANK11  BANK12  BANK13  BANK14
      Params:         0       0       0       0       0       0       0       0       0       0       0       0       0       0       0       0
      Locals:         0       0       0       0       0       0       0       0       0       0       0       0       0       0       0       0
      Temps:         14       0       0       0       0       0       0       0       0       0       0       0       0       0       0       0
      Totals:        14       0       0       0       0       0       0       0       0       0       0       0       0       0       0       0
Total ram usage:       14 bytes
 Hardware stack levels used:    1
 Hardware stack levels required when called:    3
 This function calls:
		_UART_ISR
		_button_timer_interrupt
		i2_CTMU_read
		i2___lwdiv
 This function is called by:
		Interrupt level 2
 This function uses a non-reentrant model


 *************** function i2___lwdiv *****************
 Defined at:
		line 8 in file "C:\Program Files (x86)\Microchip\xc8\v1.35\sources\common\lwdiv.c"
 Parameters:    Size  Location     Type
  dividend        2   22[COMRAM] unsigned int 
  divisor         2   24[COMRAM] unsigned int 
 Auto vars:     Size  Location     Type
  __lwdiv         2   26[COMRAM] unsigned int 
  __lwdiv         1   28[COMRAM] unsigned char 
 Return value:  Size  Location     Type
                  2   22[COMRAM] unsigned int 
 Registers used:
		wreg, status,2, status,0
 Tracked objects:
		On entry : 
		On exit  : 
		Unchanged: 
 Data sizes:     COMRAM   BANK0   BANK1   BANK2   BANK3   BANK4   BANK5   BANK6   BANK7   BANK8   BANK9  BANK10  BANK11  BANK12  BANK13  BANK14
      Params:         4       0       0       0       0       0       0       0       0       0       0       0       0       0       0       0
      Locals:         3       0       0       0       0       0       0       0       0       0       0       0       0       0       0       0
      Temps:          0       0       0       0       0       0       0       0       0       0       0       0       0       0       0       0
      Totals:         7       0       0       0       0       0       0       0       0       0       0       0       0       0       0       0
Total ram usage:        7 bytes
 Hardware stack levels used:    1
 This function calls:
		Nothing
 This function is called by:
		_ISR
 This function uses a non-reentrant model


 *************** function i2_CTMU_read *****************
 Defined at:
		line 304 in file "../My_header\My_header.h"
 Parameters:    Size  Location     Type
  ch              1    wreg     unsigned char 
 Auto vars:     Size  Location     Type
  ch              1   16[COMRAM] unsigned char 
  CTMU_read       4   17[COMRAM] unsigned long 
  CTMU_read       1   21[COMRAM] unsigned char 
 Return value:  Size  Location     Type
                  2   13[COMRAM] unsigned int 
 Registers used:
		wreg, status,2, status,0, cstack
 Tracked objects:
		On entry : 
		On exit  : 
		Unchanged: 
 Data sizes:     COMRAM   BANK0   BANK1   BANK2   BANK3   BANK4   BANK5   BANK6   BANK7   BANK8   BANK9  BANK10  BANK11  BANK12  BANK13  BANK14
      Params:         2       0       0       0       0       0       0       0       0       0       0       0       0       0       0       0
      Locals:         6       0       0       0       0       0       0       0       0       0       0       0       0       0       0       0
      Temps:          1       0       0       0       0       0       0       0       0       0       0       0       0       0       0       0
      Totals:         9       0       0       0       0       0       0       0       0       0       0       0       0       0       0       0
Total ram usage:        9 bytes
 Hardware stack levels used:    1
 Hardware stack levels required when called:    1
 This function calls:
		i2___lldiv
 This function is called by:
		_ISR
 This function uses a non-reentrant model


 *************** function i2___lldiv *****************
 Defined at:
		line 8 in file "C:\Program Files (x86)\Microchip\xc8\v1.35\sources\common\lldiv.c"
 Parameters:    Size  Location     Type
  dividend        4    0[COMRAM] unsigned long 
  divisor         4    4[COMRAM] unsigned long 
 Auto vars:     Size  Location     Type
  __lldiv         4    8[COMRAM] unsigned long 
  __lldiv         1   12[COMRAM] unsigned char 
 Return value:  Size  Location     Type
                  4    0[COMRAM] unsigned long 
 Registers used:
		wreg, status,2, status,0
 Tracked objects:
		On entry : 
		On exit  : 
		Unchanged: 
 Data sizes:     COMRAM   BANK0   BANK1   BANK2   BANK3   BANK4   BANK5   BANK6   BANK7   BANK8   BANK9  BANK10  BANK11  BANK12  BANK13  BANK14
      Params:         8       0       0       0       0       0       0       0       0       0       0       0       0       0       0       0
      Locals:         5       0       0       0       0       0       0       0       0       0       0       0       0       0       0       0
      Temps:          0       0       0       0       0       0       0       0       0       0       0       0       0       0       0       0
      Totals:        13       0       0       0       0       0       0       0       0       0       0       0       0       0       0       0
Total ram usage:       13 bytes
 Hardware stack levels used:    1
 This function calls:
		Nothing
 This function is called by:
		i2_CTMU_read
 This function uses a non-reentrant model


 *************** function _button_timer_interrupt *****************
 Defined at:
		line 51 in file "../My_header\My_button.h"
 Parameters:    Size  Location     Type
  bt              2   29[COMRAM] PTR struct button
		 -> ct(4), 
  sw_value        1   31[COMRAM] unsigned char 
 Auto vars:     Size  Location     Type
		None
 Return value:  Size  Location     Type
		None               void
 Registers used:
		wreg, fsr2l, fsr2h, status,2, status,0
 Tracked objects:
		On entry : 
		On exit  : 
		Unchanged: 
 Data sizes:     COMRAM   BANK0   BANK1   BANK2   BANK3   BANK4   BANK5   BANK6   BANK7   BANK8   BANK9  BANK10  BANK11  BANK12  BANK13  BANK14
      Params:         3       0       0       0       0       0       0       0       0       0       0       0       0       0       0       0
      Locals:         0       0       0       0       0       0       0       0       0       0       0       0       0       0       0       0
      Temps:          2       0       0       0       0       0       0       0       0       0       0       0       0       0       0       0
      Totals:         5       0       0       0       0       0       0       0       0       0       0       0       0       0       0       0
Total ram usage:        5 bytes
 Hardware stack levels used:    1
 This function calls:
		Nothing
 This function is called by:
		_ISR
 This function uses a non-reentrant model


 *************** function _UART_ISR *****************
 Defined at:
		line 208 in file "../My_header\My_header.h"
 Parameters:    Size  Location     Type
		None
 Auto vars:     Size  Location     Type
  ascii           1   15[COMRAM] unsigned char 
 Return value:  Size  Location     Type
		None               void
 Registers used:
		wreg, fsr1l, fsr1h, fsr2l, fsr2h, status,2, status,0, cstack
 Tracked objects:
		On entry : 
		On exit  : 
		Unchanged: 
 Data sizes:     COMRAM   BANK0   BANK1   BANK2   BANK3   BANK4   BANK5   BANK6   BANK7   BANK8   BANK9  BANK10  BANK11  BANK12  BANK13  BANK14
      Params:         0       0       0       0       0       0       0       0       0       0       0       0       0       0       0       0
      Locals:         1       0       0       0       0       0       0       0       0       0       0       0       0       0       0       0
      Temps:          0       0       0       0       0       0       0       0       0       0       0       0       0       0       0       0
      Totals:         1       0       0       0       0       0       0       0       0       0       0       0       0       0       0       0
Total ram usage:        1 bytes
 Hardware stack levels used:    1
 Hardware stack levels required when called:    2
 This function calls:
		i2_ringbuf_num
		i2_ringbuf_pop
		i2_ringbuf_put
 This function is called by:
		_ISR
 This function uses a non-reentrant model


 *************** function i2_ringbuf_put *****************
 Defined at:
		line 39 in file "../My_header\My_ringbuf.h"
 Parameters:    Size  Location     Type
  rb              2    8[COMRAM] PTR struct ringbuf
		 -> rx_buf(8), tx_buf(8), 
  asciicode       1   10[COMRAM] unsigned char 
 Auto vars:     Size  Location     Type
		None
 Return value:  Size  Location     Type
		None               void
 Registers used:
		wreg, fsr1l, fsr1h, fsr2l, fsr2h, status,2, status,0, cstack
 Tracked objects:
		On entry : 
		On exit  : 
		Unchanged: 
 Data sizes:     COMRAM   BANK0   BANK1   BANK2   BANK3   BANK4   BANK5   BANK6   BANK7   BANK8   BANK9  BANK10  BANK11  BANK12  BANK13  BANK14
      Params:         3       0       0       0       0       0       0       0       0       0       0       0       0       0       0       0
      Locals:         0       0       0       0       0       0       0       0       0       0       0       0       0       0       0       0
      Temps:          4       0       0       0       0       0       0       0       0       0       0       0       0       0       0       0
      Totals:         7       0       0       0       0       0       0       0       0       0       0       0       0       0       0       0
Total ram usage:        7 bytes
 Hardware stack levels used:    1
 Hardware stack levels required when called:    1
 This function calls:
		i2_ringbuf_num
 This function is called by:
		_UART_ISR
 This function uses a non-reentrant model


 *************** function i2_ringbuf_pop *****************
 Defined at:
		line 64 in file "../My_header\My_ringbuf.h"
 Parameters:    Size  Location     Type
  rb              2    8[COMRAM] PTR struct ringbuf
		 -> rx_buf(8), tx_buf(8), 
 Auto vars:     Size  Location     Type
  ringbuf_pop     1   14[COMRAM] unsigned char 
 Return value:  Size  Location     Type
                  1    wreg      unsigned char 
 Registers used:
		wreg, fsr1l, fsr1h, fsr2l, fsr2h, status,2, status,0, cstack
 Tracked objects:
		On entry : 
		On exit  : 
		Unchanged: 
 Data sizes:     COMRAM   BANK0   BANK1   BANK2   BANK3   BANK4   BANK5   BANK6   BANK7   BANK8   BANK9  BANK10  BANK11  BANK12  BANK13  BANK14
      Params:         2       0       0       0       0       0       0       0       0       0       0       0       0       0       0       0
      Locals:         1       0       0       0       0       0       0       0       0       0       0       0       0       0       0       0
      Temps:          4       0       0       0       0       0       0       0       0       0       0       0       0       0       0       0
      Totals:         7       0       0       0       0       0       0       0       0       0       0       0       0       0       0       0
Total ram usage:        7 bytes
 Hardware stack levels used:    1
 Hardware stack levels required when called:    1
 This function calls:
		i2_ringbuf_num
 This function is called by:
		_UART_ISR
 This function uses a non-reentrant model


 *************** function i2_ringbuf_num *****************
 Defined at:
		line 31 in file "../My_header\My_ringbuf.h"
 Parameters:    Size  Location     Type
  rb              2    0[COMRAM] PTR struct ringbuf
		 -> rx_buf(8), tx_buf(8), 
 Auto vars:     Size  Location     Type
		None
 Return value:  Size  Location     Type
                  2    0[COMRAM] unsigned int 
 Registers used:
		wreg, fsr1l, fsr1h, fsr2l, fsr2h, status,2, status,0
 Tracked objects:
		On entry : 
		On exit  : 
		Unchanged: 
 Data sizes:     COMRAM   BANK0   BANK1   BANK2   BANK3   BANK4   BANK5   BANK6   BANK7   BANK8   BANK9  BANK10  BANK11  BANK12  BANK13  BANK14
      Params:         2       0       0       0       0       0       0       0       0       0       0       0       0       0       0       0
      Locals:         0       0       0       0       0       0       0       0       0       0       0       0       0       0       0       0
      Temps:          6       0       0       0       0       0       0       0       0       0       0       0       0       0       0       0
      Totals:         8       0       0       0       0       0       0       0       0       0       0       0       0       0       0       0
Total ram usage:        8 bytes
 Hardware stack levels used:    1
 This function calls:
		Nothing
 This function is called by:
		_UART_ISR
		i2_ringbuf_put
		i2_ringbuf_pop
 This function uses a non-reentrant model



MODULE INFORMATION

Module		Function		Class		Link	Load	Size
../My_header\My_button.h
		_button_timer_interrupt		CODE           	0F14	0000	643

../My_header\My_button.h estimated size: 643

../My_header\My_I2C.h
		_I2C_LCD_Clear 		CODE           	1EC2	0000	27
		_I2C_init      		CODE           	1EF4	0000	19
		_I2C_LCD_SetCursor		CODE           	1E14	0000	45
		_I2C_IdleCheck 		CODE           	1E88	0000	31
		_I2C_LCD_Command		CODE           	1D54	0000	57
		_I2C_Stop      		CODE           	1F14	0000	11
		_I2C_Send      		CODE           	1EDC	0000	25
		_I2C_Start     		CODE           	1D8C	0000	49
		_I2C_LCD_init  		CODE           	1B34	0000	89
		_I2C_LCD_Puts  		CODE           	1AD2	0000	99

../My_header\My_I2C.h estimated size: 452

shared
		i2___lwdiv     		CODE           	1BE0	0000	83
		i2___lldiv     		CODE           	19D8	0000	131
		__initialization		CODE           	1C82	0000	61
		i2_ringbuf_num 		CODE           	1680	0000	189
		i2_ringbuf_pop 		CODE           	17F2	0000	173
		i2_ringbuf_put 		CODE           	173C	0000	183
		i2_CTMU_read   		CODE           	189E	0000	167

shared estimated size: 987

../My_header\My_header.h
		_CTMU_read     		CODE           	1502	0000	195
		_UART_init     		CODE           	1E68	0000	33
		_CTMU_init     		CODE           	1E40	0000	41
		_Delay_ms      		CODE           	1DE8	0000	45
		_timer0_init   		CODE           	1D1A	0000	59
		_timer3_init   		CODE           	1DBC	0000	45
		_UART_ISR      		CODE           	1CD0	0000	75
		_timer1_init   		CODE           	1C32	0000	81
		_tx_send       		CODE           	1EA6	0000	29
		_OSC_init      		CODE           	1F06	0000	15

../My_header\My_header.h estimated size: 618

C:\Program Files (x86)\Microchip\xc8\v1.35\sources\common\lwdiv.c
		___lwdiv       		CODE           	1A5A	0000	121

C:\Program Files (x86)\Microchip\xc8\v1.35\sources\common\lwdiv.c estimated size: 121

C:\Program Files (x86)\Microchip\xc8\v1.35\sources\common\lldiv.c
		___lldiv       		CODE           	15C4	0000	189

C:\Program Files (x86)\Microchip\xc8\v1.35\sources\common\lldiv.c estimated size: 189

main.c
		_ISR           		CODE           	0008	0000	197
		_main          		CODE           	1284	0000	223
		_main_init     		CODE           	1944	0000	149

main.c estimated size: 569

../My_header\My_ringbuf.h
		_ringbuf_num   		CODE           	1196	0000	239
		_ringbuf_pop   		CODE           	1436	0000	205
		_ringbuf_put   		CODE           	1362	0000	213
		_ringbuf_init  		CODE           	1B8C	0000	85

../My_header\My_ringbuf.h estimated size: 742

