Microchip MPLAB XC8 Compiler V1.35 ()

Linker command line:

--edf=C:\Program Files (x86)\Microchip\xc8\v1.35\dat\en_msgs.txt -cs \
  -h+dist/default/production\PIC18F27J53-ChargeStation-2.2.10.X.production.sym \
  --cmf=dist/default/production\PIC18F27J53-ChargeStation-2.2.10.X.production.cmf \
  -z -Q18F27J53 -oC:\Users\KERIKU~1\AppData\Local\Temp\s5r0.2 \
  -Mdist/default/production/PIC18F27J53-ChargeStation-2.2.10.X.production.map \
  -E1 -ver=XC8 -ASTACK=0D40h-0eafh -pstack=STACK -ACODE=00h-01FFF7h \
  -ACONST=00h-01FFF7h -ASMALLCONST=0F00h-0FFFhx496,01FF00h-01FFF7h \
  -AMEDIUMCONST=0F00h-0FFFFh,010F00h-01FFF7h -ACOMRAM=01h-05Fh \
  -AABS1=00h-0EAFh -ABIGRAM=01h-0EAFh \
  -ARAM=060h-0FFh,0100h-01FFhx13,0E00h-0EAFh -ABANK0=060h-0FFh \
  -ABANK1=0100h-01FFh -ABANK2=0200h-02FFh -ABANK3=0300h-03FFh \
  -ABANK4=0400h-04FFh -ABANK5=0500h-05FFh -ABANK6=0600h-06FFh \
  -ABANK7=0700h-07FFh -ABANK8=0800h-08FFh -ABANK9=0900h-09FFh \
  -ABANK10=0A00h-0AFFh -ABANK11=0B00h-0BFFh -ABANK12=0C00h-0CFFh \
  -ABANK13=0D00h-0DFFh -ABANK14=0E00h-0EAFh \
  -ASFR=0EB0h-0EFFh,0F00h-0F5Fh,0F60h-0FFFh \
  -preset_vec=00h,intcode=08h,intcodelo,powerup,init,end_init \
  -pramtop=0F00h -psmallconst=SMALLCONST -pmediumconst=MEDIUMCONST \
  -pconst=CONST -AFARRAM=00h-00h -ACONFIG=01FFF8h-01FFFFh -pconfig=CONFIG \
  -pjflash_buffer=01F800h \
  -prdata=COMRAM,nvrram=COMRAM,nvbit=COMRAM,rbss=COMRAM,rbit=COMRAM \
  -pfarbss=FARRAM,fardata=FARRAM,nvFARRAM=FARRAM \
  -pintsave_regs=BIGRAM,bigbss=BIGRAM,bigdata=BIGRAM -pbss=RAM \
  -pidata=CODE,irdata=CODE,ibigdata=CODE,ifardata=CODE -prparam=COMRAM \
  C:\Users\KERIKU~1\AppData\Local\Temp\s5r0.obj \
  dist/default/production\PIC18F27J53-ChargeStation-2.2.10.X.production.obj 

Object code version is 3.11

Machine type is 18F27J53

Call graph: (short form)




                Name                               Link     Load   Length Selector   Space Scale
C:\Users\KERIKU~1\AppData\Local\Temp\s5r0.obj
                end_init                             BC       BC        4        4       0
                reset_vec                             0        0        4        0       0
                config                            1FFF8    1FFF8        8    1FFF8       0
dist/default/production\PIC18F27J53-ChargeStation-2.2.10.X.production.obj
                intcode                               8        8       B4        4       0
                temp                                 54       54        1        1       1
                mediumconst                        FA50     FA50      5B0     7D28       0
                text129                           13E2A    13E2A       4A     8000       0
                text128                           13DE0    13DE0       4A     8000       0
                text127                           123B4    123B4       AA     8000       0
                text126                           1230A    1230A       AA     8000       0
                text125                           130D6    130D6       8C     8000       0
                text124                           133FC    133FC       80     8000       0
                text123                           12248    12248       C2     8000       0
                text122                           14482    14482       20     8000       0
                text121                           135EA    135EA       78     8000       0
                text120                           140AE    140AE       36     8000       0
                text119                           132F6    132F6       84     8000       0
                text118                           13A9C    13A9C       52     8000       0
                text117                           13162    13162       8A     8000       0
                text116                           143E0    143E0       22     8000       0
                text115                           10E38    10E38      198     8000       0
                text114                           11EFA    11EFA       EC     8000       0
                text113                           13572    13572       78     8000       0
                text112                           14294    14294       2A     8000       0
                text111                           128C6    128C6       9C     8000       0
                text110                           12C5A    12C5A       94     8000       0
                text109                           13992    13992       5C     8000       0
                text108                           125A8    125A8       A2     8000       0
                text107                           13D96    13D96       4A     8000       0
                text106                           12BC4    12BC4       96     8000       0
                text105                           141E0    141E0       32     8000       0
                text104                           143BE    143BE       22     8000       0
                text103                           14462    14462       20     8000       0
                text102                           11FE6    11FE6       D2     8000       0
                text101                           117BA    117BA      11A     8000       0
                text100                           145AC    145AC        4     8000       0
                text99                            14580    14580       12     8000       0
                text97                            1453C    1453C       18     8000       0
                text96                            1304A    1304A       8C     8000       0
                text95                            13BD8    13BD8       4C     8000       0
                text94                            13740    13740       68     8000       0
                text93                            142E6    142E6       28     8000       0
                text92                            1347C    1347C       7C     8000       0
                text91                            11540    11540      13E     8000       0
                text90                            14524    14524       18     8000       0
                text89                            141AE    141AE       32     8000       0
                text88                            12FBC    12FBC       8E     8000       0
                text87                            12E9E    12E9E       90     8000       0
                text86                            11D0C    11D0C       FA     8000       0
                text85                            129FC    129FC       9A     8000       0
                text84                            11E06    11E06       F4     8000       0
                text83                            12E0E    12E0E       90     8000       0
                text82                            1456A    1456A       16     8000       0
                text81                            140E4    140E4       34     8000       0
                text80                            144C0    144C0       1C     8000       0
                text79                            1439C    1439C       22     8000       0
                text78                            1278A    1278A       A0     8000       0
                text77                            139EE    139EE       5A     8000       0
                text76                            13662    13662       76     8000       0
                text75                            12D7E    12D7E       90     8000       0
                text74                            13D4C    13D4C       4A     8000       0
                text73                            11150    11150      162     8000       0
                text72                            126EA    126EA       A0     8000       0
                text71                            14592    14592        E     8000       0
                text70                            14442    14442       20     8000       0
                text69                            1437A    1437A       22     8000       0
                text68                            14078    14078       36     8000       0
                text67                            14554    14554       16     8000       0
                text66                            12CEE    12CEE       90     8000       0
                text65                            12F2E    12F2E       8E     8000       0
                text64                            11B04    11B04      10C     8000       0
                text63                            1450C    1450C       18     8000       0
                text62                            13B3E    13B3E       4E     8000       0
                text61                            13EFE    13EFE       42     8000       0
                text60                            145A0    145A0        C     8000       0
                text59                            1403C    1403C       3C     8000       0
                text58                            1245E    1245E       A6     8000       0
                text57                            1417C    1417C       32     8000       0
                text56                            1426A    1426A       2A     8000       0
                text55                            12A96    12A96       98     8000       0
                text54                            144F4    144F4       18     8000       0
                text53                            14212    14212       2E     8000       0
                text52                            13EBA    13EBA       44     8000       0
                text51                            142BE    142BE       28     8000       0
                text50                            1337A    1337A       82     8000       0
                text49                            14240    14240       2A     8000       0
                text48                            144DC    144DC       18     8000       0
                text47                            13D02    13D02       4A     8000       0
                text46                            1430E    1430E       26     8000       0
                text45                            12504    12504       A4     8000       0
                text44                            13FFE    13FFE       3E     8000       0
                text43                            13B8C    13B8C       4C     8000       0
                text42                            13870    13870       62     8000       0
                text41                            144A2    144A2       1E     8000       0
                text40                            10000    10000      348     8000       0
                text39                            11C10    11C10       FC     8000       0
                text38                            14422    14422       20     8000       0
                text37                            13FC0    13FC0       3E     8000       0
                text36                            13F80    13F80       40     8000       0
                text35                            13AEE    13AEE       50     8000       0
                text34                            13CB8    13CB8       4A     8000       0
                text33                            1414A    1414A       32     8000       0
                text32                            10C8C    10C8C      1AC     8000       0
                text31                            10348    10348      302     8000       0
                text30                            13272    13272       84     8000       0
                text29                            13F40    13F40       40     8000       0
                text28                            13C6E    13C6E       4A     8000       0
                text27                            120B8    120B8       CC     8000       0
                text26                            12184    12184       C4     8000       0
                text25                            136D8    136D8       68     8000       0
                text24                            10FD0    10FD0      180     8000       0
                text23                            113FC    113FC      144     8000       0
                text22                            14402    14402       20     8000       0
                text21                            12B2E    12B2E       96     8000       0
                text20                            119EC    119EC      118     8000       0
                text19                            1167E    1167E      13C     8000       0
                text18                            118D4    118D4      118     8000       0
                text17                            112B2    112B2      14A     8000       0
                text16                            131EC    131EC       86     8000       0
                text15                            1282A    1282A       9C     8000       0
                text14                            1264A    1264A       A0     8000       0
                text13                            13932    13932       60     8000       0
                text12                            138D2    138D2       60     8000       0
                text11                            14358    14358       22     8000       0
                text10                            1380C    1380C       64     8000       0
                text9                             14118    14118       32     8000       0
                text8                             12962    12962       9A     8000       0
                text7                             13E74    13E74       46     8000       0
                text6                             14334    14334       24     8000       0
                text5                             13A48    13A48       54     8000       0
                text4                             13C24    13C24       4A     8000       0
                text3                             10892    10892      248     8000       0
                text2                             10ADA    10ADA      1B2     8000       0
                text1                             1064A    1064A      248     8000       0
                text0                             137A8    137A8       64     8000       0
                cstackCOMRAM                         2B       2B       29        1       1
                cstackBANK0                          60       60       8B       60       1
                cstackBANK1                         194      194       69      100       1
                bssBIGRAMl                          4C8      4C8      7D0      4C8       1
                bssBANK4                            400      400       C8      400       1
                bssBANK3                            300      300       E4      300       1
                bssBANK2                            200      200       CC      200       1
                dataBANK1                           1FD      1FD        2      100       1
                bssBANK1                            100      100       94      100       1
                bssBANK0                             EB       EB        3       60       1
                bssCOMRAM                             1        1       2A        1       1
                cinit                             134F8    134F8       7A     8000       0
                idataBANK1                        145B0    145B0        2     8000       0

TOTAL           Name                               Link     Load   Length     Space
        CLASS   STACK          

        CLASS   CODE           
                end_init                             BC       BC        4         0
                intcode                               8        8       B4         0
                reset_vec                             0        0        4         0
                text129                           13E2A    13E2A       4A         0
                text128                           13DE0    13DE0       4A         0
                text127                           123B4    123B4       AA         0
                text126                           1230A    1230A       AA         0
                text125                           130D6    130D6       8C         0
                text124                           133FC    133FC       80         0
                text123                           12248    12248       C2         0
                text122                           14482    14482       20         0
                text121                           135EA    135EA       78         0
                text120                           140AE    140AE       36         0
                text119                           132F6    132F6       84         0
                text118                           13A9C    13A9C       52         0
                text117                           13162    13162       8A         0
                text116                           143E0    143E0       22         0
                text115                           10E38    10E38      198         0
                text114                           11EFA    11EFA       EC         0
                text113                           13572    13572       78         0
                text112                           14294    14294       2A         0
                text111                           128C6    128C6       9C         0
                text110                           12C5A    12C5A       94         0
                text109                           13992    13992       5C         0
                text108                           125A8    125A8       A2         0
                text107                           13D96    13D96       4A         0
                text106                           12BC4    12BC4       96         0
                text105                           141E0    141E0       32         0
                text104                           143BE    143BE       22         0
                text103                           14462    14462       20         0
                text102                           11FE6    11FE6       D2         0
                text101                           117BA    117BA      11A         0
                text100                           145AC    145AC        4         0
                text99                            14580    14580       12         0
                text97                            1453C    1453C       18         0
                text96                            1304A    1304A       8C         0
                text95                            13BD8    13BD8       4C         0
                text94                            13740    13740       68         0
                text93                            142E6    142E6       28         0
                text92                            1347C    1347C       7C         0
                text91                            11540    11540      13E         0
                text90                            14524    14524       18         0
                text89                            141AE    141AE       32         0
                text88                            12FBC    12FBC       8E         0
                text87                            12E9E    12E9E       90         0
                text86                            11D0C    11D0C       FA         0
                text85                            129FC    129FC       9A         0
                text84                            11E06    11E06       F4         0
                text83                            12E0E    12E0E       90         0
                text82                            1456A    1456A       16         0
                text81                            140E4    140E4       34         0
                text80                            144C0    144C0       1C         0
                text79                            1439C    1439C       22         0
                text78                            1278A    1278A       A0         0
                text77                            139EE    139EE       5A         0
                text76                            13662    13662       76         0
                text75                            12D7E    12D7E       90         0
                text74                            13D4C    13D4C       4A         0
                text73                            11150    11150      162         0
                text72                            126EA    126EA       A0         0
                text71                            14592    14592        E         0
                text70                            14442    14442       20         0
                text69                            1437A    1437A       22         0
                text68                            14078    14078       36         0
                text67                            14554    14554       16         0
                text66                            12CEE    12CEE       90         0
                text65                            12F2E    12F2E       8E         0
                text64                            11B04    11B04      10C         0
                text63                            1450C    1450C       18         0
                text62                            13B3E    13B3E       4E         0
                text61                            13EFE    13EFE       42         0
                text60                            145A0    145A0        C         0
                text59                            1403C    1403C       3C         0
                text58                            1245E    1245E       A6         0
                text57                            1417C    1417C       32         0
                text56                            1426A    1426A       2A         0
                text55                            12A96    12A96       98         0
                text54                            144F4    144F4       18         0
                text53                            14212    14212       2E         0
                text52                            13EBA    13EBA       44         0
                text51                            142BE    142BE       28         0
                text50                            1337A    1337A       82         0
                text49                            14240    14240       2A         0
                text48                            144DC    144DC       18         0
                text47                            13D02    13D02       4A         0
                text46                            1430E    1430E       26         0
                text45                            12504    12504       A4         0
                text44                            13FFE    13FFE       3E         0
                text43                            13B8C    13B8C       4C         0
                text42                            13870    13870       62         0
                text41                            144A2    144A2       1E         0
                text40                            10000    10000      348         0
                text39                            11C10    11C10       FC         0
                text38                            14422    14422       20         0
                text37                            13FC0    13FC0       3E         0
                text36                            13F80    13F80       40         0
                text35                            13AEE    13AEE       50         0
                text34                            13CB8    13CB8       4A         0
                text33                            1414A    1414A       32         0
                text32                            10C8C    10C8C      1AC         0
                text31                            10348    10348      302         0
                text30                            13272    13272       84         0
                text29                            13F40    13F40       40         0
                text28                            13C6E    13C6E       4A         0
                text27                            120B8    120B8       CC         0
                text26                            12184    12184       C4         0
                text25                            136D8    136D8       68         0
                text24                            10FD0    10FD0      180         0
                text23                            113FC    113FC      144         0
                text22                            14402    14402       20         0
                text21                            12B2E    12B2E       96         0
                text20                            119EC    119EC      118         0
                text19                            1167E    1167E      13C         0
                text18                            118D4    118D4      118         0
                text17                            112B2    112B2      14A         0
                text16                            131EC    131EC       86         0
                text15                            1282A    1282A       9C         0
                text14                            1264A    1264A       A0         0
                text13                            13932    13932       60         0
                text12                            138D2    138D2       60         0
                text11                            14358    14358       22         0
                text10                            1380C    1380C       64         0
                text9                             14118    14118       32         0
                text8                             12962    12962       9A         0
                text7                             13E74    13E74       46         0
                text6                             14334    14334       24         0
                text5                             13A48    13A48       54         0
                text4                             13C24    13C24       4A         0
                text3                             10892    10892      248         0
                text2                             10ADA    10ADA      1B2         0
                text1                             1064A    1064A      248         0
                text0                             137A8    137A8       64         0
                cinit                             134F8    134F8       7A         0
                idataBANK1                        145B0    145B0        2         0

        CLASS   CONST          

        CLASS   SMALLCONST     

        CLASS   MEDIUMCONST    
                mediumconst                        FA50     FA50      5B0         0

        CLASS   COMRAM         
                temp                                 54       54        1         1
                cstackCOMRAM                         2B       2B       29         1
                bssCOMRAM                             1        1       2A         1

        CLASS   ABS1           
                abs_s1                              D00      D00       40         1

        CLASS   BIGRAM         
                bssBIGRAMl                          4C8      4C8      7D0         1

        CLASS   RAM            

        CLASS   BANK0          
                cstackBANK0                          60       60       8B         1
                bssBANK0                             EB       EB        3         1

        CLASS   BANK1          
                cstackBANK1                         194      194       69         1
                dataBANK1                           1FD      1FD        2         1
                bssBANK1                            100      100       94         1

        CLASS   BANK2          
                bssBANK2                            200      200       CC         1

        CLASS   BANK3          
                bssBANK3                            300      300       E4         1

        CLASS   BANK4          
                bssBANK4                            400      400       C8         1

        CLASS   BANK5          

        CLASS   BANK6          

        CLASS   BANK7          

        CLASS   BANK8          

        CLASS   BANK9          

        CLASS   BANK10         

        CLASS   BANK11         

        CLASS   BANK12         

        CLASS   BANK13         

        CLASS   BANK14         

        CLASS   SFR            

        CLASS   FARRAM         

        CLASS   CONFIG         
                config                            1FFF8    1FFF8        8         0

        CLASS   IDLOC          



SEGMENTS        Name                           Load    Length   Top    Selector   Space  Class

                reset_vec                      000000  000004  000004         0       0  CODE    
                bssCOMRAM                      000001  000054  000055         1       1  COMRAM  
                intcode                        000008  0000B8  0000C0         4       0  CODE    
                cstackBANK0                    000060  00008E  0000EE        60       1  BANK0   
                bssBANK1                       000100  0000FF  0001FF       100       1  BANK1   
                bssBANK2                       000200  0000CC  0002CC       200       1  BANK2   
                bssBANK3                       000300  0000E4  0003E4       300       1  BANK3   
                bssBANK4                       000400  0000C8  0004C8       400       1  BANK4   
                bssBIGRAMl                     0004C8  0007D0  000C98       4C8       1  BIGRAM  
                mediumconst                    00FA50  0005B0  010000      7D28       0  MEDIUMCO
                text40                         010000  0045B2  0145B2      8000       0  CODE    
                config                         01FFF8  000008  020000     1FFF8       0  CONFIG  


UNUSED ADDRESS RANGES

        Name                Unused          Largest block    Delta
        BANK0            000EE-000FF              12
        BANK1            001FF-001FF               1
        BANK12           00C98-00CFF              68
        BANK13           00D40-00DFF              C0
        BANK14           00E00-00EAF              B0
        BANK2            002CC-002FF              34
        BANK3            003E4-003FF              1C
        BIGRAM           00055-0005F               B
                         000EE-000FF              12
                         001FF-001FF               1
                         002CC-002FF              34
                         003E4-003FF              1C
                         00C98-00CFF              68
                         00D40-00EAF             170
        CODE             00004-00007               4
                         000C0-0FA4F            F990
                         145B2-1FFF7            BA46
        COMRAM           00055-0005F               B
        CONST            00004-00007               4
                         000C0-0FA4F            F990
                         145B2-1FFF7            BA46
        MEDIUMCONST      00F00-0FA4F            EB50
                         145B2-1FFF7            BA46
        RAM              000EE-000FF              12
                         001FF-001FF               1
                         002CC-002FF              34
                         003E4-003FF              1C
                         00C98-00CFF              68
                         00D40-00EAF              C0
        SFR              00EB0-00FFF              60
        SMALLCONST       00F00-0FA4F             100
                         145B2-1FFF7             100
        STACK            00D40-00EAF             170

                                  Symbol Table

?_ADC                                     cstackBANK0   00060
?_CTMU_read                               cstackBANK0   0006D
?_USBTransferOnePacket                    cstackBANK0   00060
?___awmod                                 cstackBANK0   00060
?___lldiv                                 cstackBANK0   00060
?___llmod                                 cstackBANK0   0006D
?___lmul                                  cstackBANK0   0006D
?___lwdiv                                 cstackBANK0   0007C
?___lwmod                                 cstackBANK0   00060
?___wmul                                  cstackBANK0   00076
?_atoi                                    cstackBANK0   0007C
?_get_quot_rem                            cstackBANK0   00079
?_get_string_usb                          cstackBANK0   0006C
?_ringbuf_num                             cstackBANK0   00060
?_sprintf                                 cstackBANK0   00083
?_strcmp                                  cstackBANK0   00060
?i2_USBTransferOnePacket                  cstackCOMRAM  0002B
?i2___lwdiv                               cstackCOMRAM  0002B
ADC@ch                                    cstackBANK0   00063
ADC_init@p_ref                            cstackBANK0   00060
ANALOG_IN@b                               cstackBANK0   00060
Auto_cut@i                                cstackBANK0   0007E
CDCTxService@byte_to_send                 cstackBANK0   0006A
CDCTxService@i                            cstackBANK0   00069
CTMU_read@ch                              cstackBANK0   00070
CTMU_read@i                               cstackBANK0   00075
CTMU_read@sum                             cstackBANK0   00071
ISR@cnt                                   bssBANK1      00121
ISR@cnt_t1                                bssBANK1      00122
LED_indicator@cnt                         bssBANK1      00106
LED_indicator@cntf                        bssBANK2      00200
LED_indicator@i                           cstackCOMRAM  00035
LED_output@b                              cstackBANK0   00061
LED_output@value                          cstackBANK0   00060
OUT@b                                     cstackBANK0   00061
OUT@value                                 cstackBANK0   00060
PL10                                      text123       122DC
PL100                                     text20        11AE8
PL102                                     text20        11AF6
PL104                                     text72        12772
PL106                                     text3         10AB4
PL108                                     text114       11FB4
PL110                                     text105       14208
PL112                                     text115       10FA0
PL114                                     text30        132EA
PL116                                     text64        11BDA
PL118                                     text102       12078
PL12                                      text32        10DD6
PL120                                     text124       13474
PL122                                     text1         10830
PL124                                     text27        12144
PL126                                     text115       10FB0
PL128                                     text8         129F2
PL130                                     text114       11FCE
PL132                                     text88        1302C
PL134                                     text125       13144
PL136                                     text17        113E8
PL138                                     text39        11CC0
PL14                                      text32        10DF0
PL140                                     text104       143D4
PL142                                     text125       13150
PL144                                     text96        130BE
PL146                                     text40        1030A
PL148                                     text3         10AC0
PL150                                     text22        14414
PL152                                     text27        1214E
PL154                                     text27        1215C
PL156                                     text111       12942
PL158                                     text102       12082
PL16                                      text21        12BB0
PL160                                     text87        12F20
PL162                                     text78        12804
PL164                                     text127       12444
PL166                                     text12        13924
PL168                                     text111       12950
PL170                                     text126       12386
PL172                                     text78        12812
PL174                                     text19        1177E
PL176                                     text31        1061A
PL178                                     text91        11658
PL18                                      text31        105D2
PL180                                     text32        10DFA
PL182                                     text24        11122
PL184                                     text3         10ACA
PL186                                     text115       10FC6
PL188                                     text39        11CD6
PL190                                     text1         1083C
PL192                                     text64        11BE4
PL194                                     text39        11CE8
PL196                                     text102       12090
PL198                                     text127       12452
PL2                                       text108       1261C
PL20                                      text25        13732
PL200                                     text32        10E04
PL202                                     text57        141A2
PL204                                     text1         1084E
PL206                                     text31        10622
PL208                                     text62        13B80
PL210                                     text31        1062A
PL212                                     text14        126E0
PL214                                     text83        12E8E
PL216                                     text72        12780
PL218                                     text1         1085A
PL22                                      text85        12A66
PL220                                     text3         10AD0
PL222                                     text126       1239A
PL224                                     text2         10C78
PL226                                     text1         10864
PL228                                     text43        13BC8
PL230                                     text36        13FB0
PL232                                     text123       12300
PL234                                     text126       123A4
PL236                                     text1         1086E
PL238                                     text65        12FA4
PL24                                      text114       11FA8
PL240                                     text102       1209C
PL242                                     text2         10C82
PL244                                     text27        12166
PL246                                     text125       1315C
PL248                                     text27        12176
PL250                                     text91        11662
PL252                                     text65        12FAE
PL254                                     text121       1364A
PL256                                     text119       13366
PL258                                     text39        11CFA
PL26                                      text19        1175E
PL260                                     text32        10E10
PL262                                     text19        11788
PL264                                     text101       118CA
PL266                                     text59        1406E
PL268                                     text32        10E1A
PL270                                     text40        10320
PL272                                     text85        12A82
PL274                                     text17        113F2
PL276                                     text111       12956
PL278                                     text7         13EAE
PL28                                      text31        105E2
PL280                                     text96        130CA
PL282                                     text40        1032A
PL284                                     text19        11792
PL286                                     text114       11FDA
PL288                                     text102       120AC
PL290                                     text19        1179E
PL292                                     text32        10E24
PL294                                     text31        10634
PL296                                     text29        13F74
PL298                                     text110       12CE4
PL30                                      text73        1128C
PL300                                     text19        117AA
PL302                                     text113       135E0
PL304                                     text19        117B0
PL306                                     text88        13036
PL308                                     text70        14458
PL310                                     text91        1166A
PL312                                     text35        13B34
PL314                                     text34        13CF8
PL316                                     text119       13370
PL318                                     text78        1281C
PL32                                      text73        1129A
PL320                                     text84        11EE6
PL322                                     text88        13040
PL324                                     text91        11674
PL326                                     text107       13DD6
PL328                                     text121       13658
PL330                                     text85        12A8C
PL332                                     text1         10878
PL334                                     text64        11BF6
PL336                                     text31        10640
PL338                                     text40        10336
PL34                                      text123       122E6
PL340                                     text24        11134
PL342                                     text24        1113C
PL344                                     text117       131E2
PL346                                     text24        11146
PL348                                     text84        11EF0
PL350                                     text1         10882
PL352                                     text40        10340
PL354                                     text58        124FE
PL356                                     text64        11C00
PL358                                     text78        12824
PL36                                      text124       13468
PL360                                     text64        11C08
PL362                                     text39        11D04
PL364                                     text1         1088A
PL366                                     text32        10E30
PL368                                     text86        11DFE
PL38                                      text73        112A4
PL4                                       text18        119DC
PL40                                      text123       122F6
PL42                                      text19        1176E
PL44                                      text29        13F64
PL46                                      text85        12A76
PL48                                      text125       1313A
PL50                                      text91        11646
PL52                                      text45        12598
PL54                                      text24        110E8
PL56                                      text23        11506
PL58                                      text40        102EE
PL6                                       text123       122D2
PL60                                      text24        110F6
PL62                                      text3         10AAA
PL64                                      text23        11514
PL66                                      text102       12052
PL68                                      text24        11102
PL70                                      text66        12D72
PL72                                      text37        13FF4
PL74                                      text23        11520
PL76                                      text55        12B20
PL78                                      text115       10F84
PL8                                       text24        110D0
PL80                                      text14        126D0
PL82                                      text84        11EC6
PL84                                      text23        11536
PL86                                      text24        11118
PL88                                      text40        10300
PL90                                      text31        10608
PL92                                      text115       10F8E
PL94                                      text2         10C6E
PL96                                      text106       12C4E
PL98                                      text96        130B0
RTCC_adjust_time_cursor@tm                cstackBANK0   00060
RTCC_adjust_time_dec@i                    cstackBANK0   00098
RTCC_adjust_time_dec@i_2973               cstackBANK0   00097
RTCC_adjust_time_dec@tm                   cstackBANK0   00091
RTCC_adjust_time_inc@i                    cstackBANK0   00098
RTCC_adjust_time_inc@i_2943               cstackBANK0   00097
RTCC_adjust_time_inc@tm                   cstackBANK0   00091
RTCC_adjust_time_toggle@tm                cstackBANK0   00060
RTCC_from_RTCC@tm                         cstackBANK0   00086
RTCC_from_caltime@tm                      cstackBANK0   0008F
RTCC_from_epoch@tm                        cstackBANK0   0008F
RTCC_task@prev_halfsec                    bssBANK1      00123
RTCC_to_caltime@tm                        cstackBANK0   00062
ST7032_command@command                    cstackBANK0   00070
ST7032_command@wait                       cstackBANK0   0006F
ST7032_cursor@F8592                       dataBANK1     001FD
ST7032_cursor@col                         cstackBANK0   00074
ST7032_cursor@row                         cstackBANK0   00071
ST7032_cursor@row_offsets                 cstackBANK0   00072
ST7032_init@buf                           bssBANK4      00400
ST7032_put@c                              cstackBANK0   0006F
ST7032_puts@s                             cstackBANK0   00070
ST7032_task@data                          cstackBANK0   00071
ST7032_task@st7032_state                  bssBANK1      00124
ST7032_task@wait                          bssBANK1      00115
USBConfigureEndpoint@EPNum                cstackCOMRAM  00030
USBConfigureEndpoint@direction            cstackCOMRAM  0002B
USBConfigureEndpoint@handle               cstackCOMRAM  00031
USBCtrlEPService@setup_cnt                cstackCOMRAM  00048
USBCtrlTrfInHandler@lastDTS               cstackCOMRAM  0002C
USBCtrlTrfRxService@byteToRead            cstackCOMRAM  0002C
USBCtrlTrfRxService@i                     cstackCOMRAM  0002B
USBCtrlTrfTxService@byteToSend            cstackCOMRAM  0002B
USBDeviceInit@i                           cstackBANK0   00068
USBDeviceTasks@i                          cstackCOMRAM  00049
USBEnableEndpoint@ep                      cstackCOMRAM  00036
USBEnableEndpoint@options                 cstackCOMRAM  00033
USBEnableEndpoint@p                       cstackCOMRAM  00034
USBStdFeatureReqHandler@current_ep_data   cstackCOMRAM  00043
USBStdFeatureReqHandler@p                 cstackCOMRAM  00044
USBStdFeatureReqHandler@pUEP              cstackCOMRAM  00041
USBStdGetStatusHandler@p                  cstackCOMRAM  0002B
USBStdSetCfgHandler@i                     cstackCOMRAM  0003F
USBTransferOnePacket@data                 cstackBANK0   00061
USBTransferOnePacket@dir                  cstackBANK0   00060
USBTransferOnePacket@ep                   cstackBANK0   00064
USBTransferOnePacket@handle               cstackBANK0   00065
USBTransferOnePacket@len                  cstackBANK0   00063
USB_task@data                             cstackBANK0   00073
USB_task@rx_len                           cstackBANK0   00071
USER_USB_CALLBACK_EVENT_HANDLER@event     cstackCOMRAM  00037
USER_USB_CALLBACK_EVENT_HANDLER@pdata     cstackCOMRAM  00039
USER_USB_CALLBACK_EVENT_HANDLER@size      cstackCOMRAM  0003B
_ADC                                      text49        14240
_ADCON0bits                               (abs)         00FC2
_ADCON1bits                               (abs)         00FC1
_ADC_init                                 text70        14442
_ADRES                                    (abs)         00FC3
_ANALOG_IN                                text48        144DC
_ANCON0                                   (abs)         00F48
_ANCON1                                   (abs)         00F49
_Auto_cut                                 text45        12504
_BDT                                      (abs)         00D00
_BothEP0OutUOWNsSet                       bssBANK1      00125
_CDCDataInHandle                          bssBANK1      00117
_CDCDataOutHandle                         bssBANK1      00119
_CDCInitEP                                text118       13A9C
_CDCTxService                             text84        11E06
_CDCTxService$6314                        cstackBANK0   00067
_CTMUCONH                                 (abs)         00FB3
_CTMUCONHbits                             (abs)         00FB3
_CTMUCONL                                 (abs)         00FB2
_CTMUCONLbits                             (abs)         00FB2
_CTMUICON                                 (abs)         00FB1
_CTMU_init                                text69        1437A
_CTMU_read                                text75        12D7E
_CtrlTrfData                              (abs)         00D38
_EECON2                                   (abs)         00FA7
_INTCON2bits                              (abs)         00FF1
_INTCONbits                               (abs)         00FF2
_IPR1bits                                 (abs)         00F9F
_IPR2bits                                 (abs)         00FA2
_ISR                                      intcode       00008
_LATA5                                    (abs)         07C4D
_LATA6                                    (abs)         07C4E
_LATA7                                    (abs)         07C4F
_LATB2                                    (abs)         07C52
_LATB6                                    (abs)         07C56
_LATB7                                    (abs)         07C57
_LATC2                                    (abs)         07C5A
_LED_indicator                            text127       123B4
_LED_output                               text28        13C6E
_OSCCONbits                               (abs)         00FD3
_OSCTUNEbits                              (abs)         00F9B
_OUT                                      text47        13D02
_PADCFG1bits                              (abs)         00F3C
_PIE1bits                                 (abs)         00F9D
_PIE2bits                                 (abs)         00FA0
_PIR1bits                                 (abs)         00F9E
_PIR2bits                                 (abs)         00FA1
_RCONbits                                 (abs)         00FD0
_RTCCAL                                   (abs)         00F3E
_RTCCFGbits                               (abs)         00F3F
_RTCC_adjust_time_cursor                  text25        136D8
_RTCC_adjust_time_dec                     text24        10FD0
_RTCC_adjust_time_inc                     text23        113FC
_RTCC_adjust_time_toggle                  text22        14402
_RTCC_from_RTCC                           text90        14524
_RTCC_from_caltime                        text6         14334
_RTCC_from_epoch                          text63        1450C
_RTCC_init                                text62        13B3E
_RTCC_task                                text89        141AE
_RTCC_to_caltime                          text96        1304A
_RTCVALH                                  (abs)         00F3B
_RTCVALL                                  (abs)         00F3A
_RemoteWakeup                             bssBANK1      00126
_SSP1ADD                                  (abs)         00FC8
_SSP1BUF                                  (abs)         00FC9
_SSP1CON1                                 (abs)         00FC6
_SSP1CON2                                 (abs)         00FC5
_SSP1CON2bits                             (abs)         00FC5
_SSP1STAT                                 (abs)         00FC7
_ST7032_clear                             text60        145A0
_ST7032_command                           text61        13EFE
_ST7032_cursor                            text38        14422
_ST7032_init                              text58        1245E
_ST7032_put                               text37        13FC0
_ST7032_puts                              text36        13F80
_ST7032_task                              text86        11D0C
_SetupPkt                                 (abs)         00D30
_T0CONbits                                (abs)         00FD5
_T1CONbits                                (abs)         00FCD
_T3CONbits                                (abs)         00F79
_TMR1H                                    (abs)         00FCF
_TRISA                                    (abs)         00F92
_TRISB                                    (abs)         00F93
_TRISC                                    (abs)         00F94
_UADDR                                    (abs)         00F38
_UCFG                                     (abs)         00F39
_UCON                                     (abs)         00F65
_UCONbits                                 (abs)         00F65
_UEIE                                     (abs)         00F37
_UEIR                                     (abs)         00F63
_UEP0                                     (abs)         00F26
_UEP0bits                                 (abs)         00F26
_UEP1                                     (abs)         00F27
_UIE                                      (abs)         00F36
_UIEbits                                  (abs)         00F36
_UIR                                      (abs)         00F62
_UIRbits                                  (abs)         00F62
_USBActiveConfiguration                   bssCOMRAM     00029
_USBAlternateInterface                    bssBANK1      00192
_USBBusIsSuspended                        bssBANK1      00127
_USBCheckCDCRequest                       text117       13162
_USBCheckStdRequest                       text110       12C5A
_USBConfigureEndpoint                     text121       135EA
_USBCtrlEPAllowDataStage                  text109       13992
_USBCtrlEPAllowStatusStage                text124       133FC
_USBCtrlEPService                         text106       12BC4
_USBCtrlEPServiceComplete                 text108       125A8
_USBCtrlTrfInHandler                      text125       130D6
_USBCtrlTrfOutHandler                     text122       14482
_USBCtrlTrfRxService                      text123       12248
_USBCtrlTrfSetupHandler                   text107       13D96
_USBCtrlTrfTxService                      text126       1230A
_USBDeferINDataStagePackets               bssBANK1      00128
_USBDeferOUTDataStagePackets              bssBANK1      00129
_USBDeferStatusStagePacket                bssCOMRAM     0001A
_USBDeviceAttach                          text57        1417C
_USBDeviceInit                            text55        12A96
_USBDeviceState                           bssCOMRAM     0001B
_USBDeviceTasks                           text101       117BA
_USBEnableEndpoint                        text120       140AE
_USBStallHandler                          text105       141E0
_USBStatusStageEnabledFlag1               bssBANK1      0012A
_USBStatusStageEnabledFlag2               bssBANK1      0012B
_USBStatusStageTimeoutCounter             bssCOMRAM     0001C
_USBStdFeatureReqHandler                  text115       10E38
_USBStdGetDscHandler                      text114       11EFA
_USBStdGetStatusHandler                   text113       13572
_USBStdSetCfgHandler                      text111       128C6
_USBSuspend                               text104       143BE
_USBTransferOnePacket                     text85        129FC
_USBWakeFromSuspend                       text103       14462
_USB_CD_Ptr                               mediumconst   0FA7F
_USB_ISR                                  text100       145AC
_USB_SD_Ptr                               mediumconst   0FA79
_USB_init                                 text54        144F4
_USB_task                                 text77        139EE
_USER_USB_CALLBACK_EVENT_HANDLER          text116       143E0
_USTAT                                    (abs)         00F64
_USTATcopy                                bssCOMRAM     0002A
__CFG_ADCSEL$BIT12                        (abs)         00000
__CFG_CFGPLLEN$ON                         (abs)         00000
__CFG_CLKOEC$OFF                          (abs)         00000
__CFG_CP0$OFF                             (abs)         00000
__CFG_CPUDIV$OSC1                         (abs)         00000
__CFG_DSBOREN$OFF                         (abs)         00000
__CFG_DSWDTEN$OFF                         (abs)         00000
__CFG_DSWDTOSC$T1OSCREF                   (abs)         00000
__CFG_DSWDTPS$G2                          (abs)         00000
__CFG_FCMEN$OFF                           (abs)         00000
__CFG_IESO$OFF                            (abs)         00000
__CFG_IOL1WAY$OFF                         (abs)         00000
__CFG_LS48MHZ$SYS48X8                     (abs)         00000
__CFG_MSSP7B_EN$MSK7                      (abs)         00000
__CFG_OSC$INTOSCPLL                       (abs)         00000
__CFG_PLLDIV$2                            (abs)         00000
__CFG_RTCOSC$T1OSCREF                     (abs)         00000
__CFG_SOSCSEL$LOW                         (abs)         00000
__CFG_STVREN$OFF                          (abs)         00000
__CFG_WDTEN$ON                            (abs)         00000
__CFG_WDTPS$8                             (abs)         00000
__CFG_WPCFG$OFF                           (abs)         00000
__CFG_WPDIS$OFF                           (abs)         00000
__CFG_WPEND$PAGE_WPFP                     (abs)         00000
__CFG_WPFP$PAGE_127                       (abs)         00000
__CFG_XINST$OFF                           (abs)         00000
__HRAM                                    (abs)         00000
__Habs1                                   abs1          00000
__Hbank0                                  bank0         00000
__Hbank1                                  bank1         00000
__Hbank10                                 bank10        00000
__Hbank11                                 bank11        00000
__Hbank12                                 bank12        00000
__Hbank13                                 bank13        00000
__Hbank14                                 bank14        00000
__Hbank2                                  bank2         00000
__Hbank3                                  bank3         00000
__Hbank4                                  bank4         00000
__Hbank5                                  bank5         00000
__Hbank6                                  bank6         00000
__Hbank7                                  bank7         00000
__Hbank8                                  bank8         00000
__Hbank9                                  bank9         00000
__Hbigbss                                 bigbss        00000
__Hbigdata                                bigdata       00000
__Hbigram                                 bigram        00000
__Hbss                                    bss           00000
__HbssBANK0                               bssBANK0      00000
__HbssBANK1                               bssBANK1      00000
__HbssBANK2                               bssBANK2      00000
__HbssBANK3                               bssBANK3      00000
__HbssBANK4                               bssBANK4      00000
__HbssBIGRAMl                             bssBIGRAMl    00000
__HbssCOMRAM                              bssCOMRAM     00000
__Hcinit                                  cinit         00000
__Hclrtext                                clrtext       00000
__Hcomram                                 comram        00000
__Hconfig                                 config        20000
__Hconst                                  const         00000
__HcstackBANK0                            cstackBANK0   00000
__HcstackBANK1                            cstackBANK1   00000
__HcstackCOMRAM                           cstackCOMRAM  00000
__Hdata                                   data          00000
__HdataBANK1                              dataBANK1     00000
__Hend_init                               end_init      000C0
__Hfarbss                                 farbss        00000
__Hfardata                                fardata       00000
__Hibigdata                               ibigdata      00000
__Hidata                                  idata         00000
__HidataBANK1                             idataBANK1    00000
__Hidloc                                  idloc         00000
__Hifardata                               ifardata      00000
__Hinit                                   init          000BC
__Hintcode                                intcode       000BC
__Hintcode_body                           intcode_body  00000
__Hintcodelo                              intcodelo     000BC
__Hintentry                               intentry      00000
__Hintret                                 intret        00000
__Hintsave_regs                           intsave_regs  00000
__Hirdata                                 irdata        00000
__Hjflash_buffer                          jflash_buffer 1F800
__Hmediumconst                            mediumconst   10000
__HnvFARRAM                               nvFARRAM      00000
__Hnvbit                                  nvbit         00000
__Hnvrram                                 nvrram        00000
__Hpa_nodes                               pa_nodes      00000
__Hparam                                  rparam        00000
__Hpowerup                                powerup       000BC
__Hram                                    ram           00000
__Hramtop                                 ramtop        00F00
__Hrbit                                   rbit          00000
__Hrbss                                   rbss          00000
__Hrdata                                  rdata         00000
__Hreset_vec                              reset_vec     00004
__Hrparam                                 rparam        00000
__Hsfr                                    sfr           00000
__Hsmallconst                             smallconst    00000
__Hspace_0                                (abs)         20000
__Hspace_1                                (abs)         00C98
__Hspace_2                                (abs)         00000
__Hstack                                  stack         00000
__Hstruct                                 struct        00000
__Htemp                                   temp          00055
__Htext                                   text          00000
__Htext0                                  text0         00000
__Htext1                                  text1         00000
__Htext10                                 text10        00000
__Htext100                                text100       00000
__Htext101                                text101       00000
__Htext102                                text102       00000
__Htext103                                text103       00000
__Htext104                                text104       00000
__Htext105                                text105       00000
__Htext106                                text106       00000
__Htext107                                text107       00000
__Htext108                                text108       00000
__Htext109                                text109       00000
__Htext11                                 text11        00000
__Htext110                                text110       00000
__Htext111                                text111       00000
__Htext112                                text112       00000
__Htext113                                text113       00000
__Htext114                                text114       00000
__Htext115                                text115       00000
__Htext116                                text116       00000
__Htext117                                text117       00000
__Htext118                                text118       00000
__Htext119                                text119       00000
__Htext12                                 text12        00000
__Htext120                                text120       00000
__Htext121                                text121       00000
__Htext122                                text122       00000
__Htext123                                text123       00000
__Htext124                                text124       00000
__Htext125                                text125       00000
__Htext126                                text126       00000
__Htext127                                text127       00000
__Htext128                                text128       00000
__Htext129                                text129       00000
__Htext13                                 text13        00000
__Htext14                                 text14        00000
__Htext15                                 text15        00000
__Htext16                                 text16        00000
__Htext17                                 text17        00000
__Htext18                                 text18        00000
__Htext19                                 text19        00000
__Htext2                                  text2         00000
__Htext20                                 text20        00000
__Htext21                                 text21        00000
__Htext22                                 text22        00000
__Htext23                                 text23        00000
__Htext24                                 text24        00000
__Htext25                                 text25        00000
__Htext26                                 text26        00000
__Htext27                                 text27        00000
__Htext28                                 text28        00000
__Htext29                                 text29        00000
__Htext3                                  text3         00000
__Htext30                                 text30        00000
__Htext31                                 text31        00000
__Htext32                                 text32        00000
__Htext33                                 text33        00000
__Htext34                                 text34        00000
__Htext35                                 text35        00000
__Htext36                                 text36        00000
__Htext37                                 text37        00000
__Htext38                                 text38        00000
__Htext39                                 text39        00000
__Htext4                                  text4         00000
__Htext40                                 text40        00000
__Htext41                                 text41        00000
__Htext42                                 text42        00000
__Htext43                                 text43        00000
__Htext44                                 text44        00000
__Htext45                                 text45        00000
__Htext46                                 text46        00000
__Htext47                                 text47        00000
__Htext48                                 text48        00000
__Htext49                                 text49        00000
__Htext5                                  text5         00000
__Htext50                                 text50        00000
__Htext51                                 text51        00000
__Htext52                                 text52        00000
__Htext53                                 text53        00000
__Htext54                                 text54        00000
__Htext55                                 text55        00000
__Htext56                                 text56        00000
__Htext57                                 text57        00000
__Htext58                                 text58        00000
__Htext59                                 text59        00000
__Htext6                                  text6         00000
__Htext60                                 text60        00000
__Htext61                                 text61        00000
__Htext62                                 text62        00000
__Htext63                                 text63        00000
__Htext64                                 text64        00000
__Htext65                                 text65        00000
__Htext66                                 text66        00000
__Htext67                                 text67        00000
__Htext68                                 text68        00000
__Htext69                                 text69        00000
__Htext7                                  text7         00000
__Htext70                                 text70        00000
__Htext71                                 text71        00000
__Htext72                                 text72        00000
__Htext73                                 text73        00000
__Htext74                                 text74        00000
__Htext75                                 text75        00000
__Htext76                                 text76        00000
__Htext77                                 text77        00000
__Htext78                                 text78        00000
__Htext79                                 text79        00000
__Htext8                                  text8         00000
__Htext80                                 text80        00000
__Htext81                                 text81        00000
__Htext82                                 text82        00000
__Htext83                                 text83        00000
__Htext84                                 text84        00000
__Htext85                                 text85        00000
__Htext86                                 text86        00000
__Htext87                                 text87        00000
__Htext88                                 text88        00000
__Htext89                                 text89        00000
__Htext9                                  text9         00000
__Htext90                                 text90        00000
__Htext91                                 text91        00000
__Htext92                                 text92        00000
__Htext93                                 text93        00000
__Htext94                                 text94        00000
__Htext95                                 text95        00000
__Htext96                                 text96        00000
__Htext97                                 text97        00000
__Htext99                                 text99        00000
__LRAM                                    (abs)         00001
__Labs1                                   abs1          00000
__Lbank0                                  bank0         00000
__Lbank1                                  bank1         00000
__Lbank10                                 bank10        00000
__Lbank11                                 bank11        00000
__Lbank12                                 bank12        00000
__Lbank13                                 bank13        00000
__Lbank14                                 bank14        00000
__Lbank2                                  bank2         00000
__Lbank3                                  bank3         00000
__Lbank4                                  bank4         00000
__Lbank5                                  bank5         00000
__Lbank6                                  bank6         00000
__Lbank7                                  bank7         00000
__Lbank8                                  bank8         00000
__Lbank9                                  bank9         00000
__Lbigbss                                 bigbss        00000
__Lbigdata                                bigdata       00000
__Lbigram                                 bigram        00000
__Lbss                                    bss           00000
__LbssBANK0                               bssBANK0      00000
__LbssBANK1                               bssBANK1      00000
__LbssBANK2                               bssBANK2      00000
__LbssBANK3                               bssBANK3      00000
__LbssBANK4                               bssBANK4      00000
__LbssBIGRAMl                             bssBIGRAMl    00000
__LbssCOMRAM                              bssCOMRAM     00000
__Lcinit                                  cinit         00000
__Lclrtext                                clrtext       00000
__Lcomram                                 comram        00000
__Lconfig                                 config        1FFF8
__Lconst                                  const         00000
__LcstackBANK0                            cstackBANK0   00000
__LcstackBANK1                            cstackBANK1   00000
__LcstackCOMRAM                           cstackCOMRAM  00000
__Ldata                                   data          00000
__LdataBANK1                              dataBANK1     00000
__Lend_init                               end_init      000BC
__Lfarbss                                 farbss        00000
__Lfardata                                fardata       00000
__Libigdata                               ibigdata      00000
__Lidata                                  idata         00000
__LidataBANK1                             idataBANK1    00000
__Lidloc                                  idloc         00000
__Lifardata                               ifardata      00000
__Linit                                   init          000BC
__Lintcode                                intcode       00008
__Lintcode_body                           intcode_body  00000
__Lintcodelo                              intcodelo     000BC
__Lintentry                               intentry      00000
__Lintret                                 intret        00000
__Lintsave_regs                           intsave_regs  00000
__Lirdata                                 irdata        00000
__Ljflash_buffer                          jflash_buffer 1F800
__Lmediumconst                            mediumconst   0FA50
__LnvFARRAM                               nvFARRAM      00000
__Lnvbit                                  nvbit         00000
__Lnvrram                                 nvrram        00000
__Lpa_nodes                               pa_nodes      00000
__Lparam                                  rparam        00000
__Lpowerup                                powerup       000BC
__Lram                                    ram           00000
__Lramtop                                 ramtop        00F00
__Lrbit                                   rbit          00000
__Lrbss                                   rbss          00000
__Lrdata                                  rdata         00000
__Lreset_vec                              reset_vec     00000
__Lrparam                                 rparam        00000
__Lsfr                                    sfr           00000
__Lsmallconst                             smallconst    00000
__Lspace_0                                (abs)         00000
__Lspace_1                                (abs)         00000
__Lspace_2                                (abs)         00000
__Lstack                                  stack         00000
__Lstruct                                 struct        00000
__Ltemp                                   temp          00054
__Ltext                                   text          00000
__Ltext0                                  text0         00000
__Ltext1                                  text1         00000
__Ltext10                                 text10        00000
__Ltext100                                text100       00000
__Ltext101                                text101       00000
__Ltext102                                text102       00000
__Ltext103                                text103       00000
__Ltext104                                text104       00000
__Ltext105                                text105       00000
__Ltext106                                text106       00000
__Ltext107                                text107       00000
__Ltext108                                text108       00000
__Ltext109                                text109       00000
__Ltext11                                 text11        00000
__Ltext110                                text110       00000
__Ltext111                                text111       00000
__Ltext112                                text112       00000
__Ltext113                                text113       00000
__Ltext114                                text114       00000
__Ltext115                                text115       00000
__Ltext116                                text116       00000
__Ltext117                                text117       00000
__Ltext118                                text118       00000
__Ltext119                                text119       00000
__Ltext12                                 text12        00000
__Ltext120                                text120       00000
__Ltext121                                text121       00000
__Ltext122                                text122       00000
__Ltext123                                text123       00000
__Ltext124                                text124       00000
__Ltext125                                text125       00000
__Ltext126                                text126       00000
__Ltext127                                text127       00000
__Ltext128                                text128       00000
__Ltext129                                text129       00000
__Ltext13                                 text13        00000
__Ltext14                                 text14        00000
__Ltext15                                 text15        00000
__Ltext16                                 text16        00000
__Ltext17                                 text17        00000
__Ltext18                                 text18        00000
__Ltext19                                 text19        00000
__Ltext2                                  text2         00000
__Ltext20                                 text20        00000
__Ltext21                                 text21        00000
__Ltext22                                 text22        00000
__Ltext23                                 text23        00000
__Ltext24                                 text24        00000
__Ltext25                                 text25        00000
__Ltext26                                 text26        00000
__Ltext27                                 text27        00000
__Ltext28                                 text28        00000
__Ltext29                                 text29        00000
__Ltext3                                  text3         00000
__Ltext30                                 text30        00000
__Ltext31                                 text31        00000
__Ltext32                                 text32        00000
__Ltext33                                 text33        00000
__Ltext34                                 text34        00000
__Ltext35                                 text35        00000
__Ltext36                                 text36        00000
__Ltext37                                 text37        00000
__Ltext38                                 text38        00000
__Ltext39                                 text39        00000
__Ltext4                                  text4         00000
__Ltext40                                 text40        00000
__Ltext41                                 text41        00000
__Ltext42                                 text42        00000
__Ltext43                                 text43        00000
__Ltext44                                 text44        00000
__Ltext45                                 text45        00000
__Ltext46                                 text46        00000
__Ltext47                                 text47        00000
__Ltext48                                 text48        00000
__Ltext49                                 text49        00000
__Ltext5                                  text5         00000
__Ltext50                                 text50        00000
__Ltext51                                 text51        00000
__Ltext52                                 text52        00000
__Ltext53                                 text53        00000
__Ltext54                                 text54        00000
__Ltext55                                 text55        00000
__Ltext56                                 text56        00000
__Ltext57                                 text57        00000
__Ltext58                                 text58        00000
__Ltext59                                 text59        00000
__Ltext6                                  text6         00000
__Ltext60                                 text60        00000
__Ltext61                                 text61        00000
__Ltext62                                 text62        00000
__Ltext63                                 text63        00000
__Ltext64                                 text64        00000
__Ltext65                                 text65        00000
__Ltext66                                 text66        00000
__Ltext67                                 text67        00000
__Ltext68                                 text68        00000
__Ltext69                                 text69        00000
__Ltext7                                  text7         00000
__Ltext70                                 text70        00000
__Ltext71                                 text71        00000
__Ltext72                                 text72        00000
__Ltext73                                 text73        00000
__Ltext74                                 text74        00000
__Ltext75                                 text75        00000
__Ltext76                                 text76        00000
__Ltext77                                 text77        00000
__Ltext78                                 text78        00000
__Ltext79                                 text79        00000
__Ltext8                                  text8         00000
__Ltext80                                 text80        00000
__Ltext81                                 text81        00000
__Ltext82                                 text82        00000
__Ltext83                                 text83        00000
__Ltext84                                 text84        00000
__Ltext85                                 text85        00000
__Ltext86                                 text86        00000
__Ltext87                                 text87        00000
__Ltext88                                 text88        00000
__Ltext89                                 text89        00000
__Ltext9                                  text9         00000
__Ltext90                                 text90        00000
__Ltext91                                 text91        00000
__Ltext92                                 text92        00000
__Ltext93                                 text93        00000
__Ltext94                                 text94        00000
__Ltext95                                 text95        00000
__Ltext96                                 text96        00000
__Ltext97                                 text97        00000
__Ltext99                                 text99        00000
__S0                                      (abs)         20000
__S1                                      (abs)         00C98
__S2                                      (abs)         00000
___awmod                                  text94        13740
___awmod@counter                          cstackBANK0   00064
___awmod@dividend                         cstackBANK0   00060
___awmod@divisor                          cstackBANK0   00062
___awmod@sign                             cstackBANK0   00065
___inthi_sp                               stack         00000
___intlo_sp                               stack         00000
___lbdiv                                  text68        14078
___lbdiv@counter                          cstackBANK0   00062
___lbdiv@dividend                         cstackBANK0   00061
___lbdiv@divisor                          cstackBANK0   00060
___lbdiv@quotient                         cstackBANK0   00063
___lbmod                                  text93        142E6
___lbmod@counter                          cstackBANK0   00062
___lbmod@dividend                         cstackBANK0   00061
___lbmod@divisor                          cstackBANK0   00060
___lbmod@rem                              cstackBANK0   00063
___lldiv                                  text76        13662
___lldiv@counter                          cstackBANK0   0006C
___lldiv@dividend                         cstackBANK0   00060
___lldiv@divisor                          cstackBANK0   00064
___lldiv@quotient                         cstackBANK0   00068
___llmod                                  text42        13870
___llmod@counter                          cstackBANK0   00075
___llmod@dividend                         cstackBANK0   0006D
___llmod@divisor                          cstackBANK0   00071
___lmul                                   text95        13BD8
___lmul@multiplicand                      cstackBANK0   00071
___lmul@multiplier                        cstackBANK0   0006D
___lmul@product                           cstackBANK0   00075
___lwdiv                                  text74        13D4C
___lwdiv@counter                          cstackBANK0   00080
___lwdiv@dividend                         cstackBANK0   0007C
___lwdiv@divisor                          cstackBANK0   0007E
___lwdiv@quotient                         cstackBANK0   00081
___lwmod                                  text44        13FFE
___lwmod@counter                          cstackBANK0   00064
___lwmod@dividend                         cstackBANK0   00060
___lwmod@divisor                          cstackBANK0   00062
___param_bank                             (abs)         00010
___rparam_used                            (abs)         00001
___sp                                     stack         00000
___wmul                                   text46        1430E
___wmul@multiplicand                      cstackBANK0   00078
___wmul@multiplier                        cstackBANK0   00076
___wmul@product                           cstackBANK0   0007A
__accesstop                               (abs)         00060
__activetblptr                            (abs)         00003
__end_ofPL10                              text123       122E6
__end_ofPL100                             text20        11AF6
__end_ofPL102                             text20        11B04
__end_ofPL104                             text72        12780
__end_ofPL106                             text3         10AC0
__end_ofPL108                             text114       11FCE
__end_ofPL110                             text105       14212
__end_ofPL112                             text115       10FB0
__end_ofPL114                             text30        132F6
__end_ofPL116                             text64        11BE4
__end_ofPL118                             text102       12082
__end_ofPL12                              text32        10DF0
__end_ofPL120                             text124       1347C
__end_ofPL122                             text1         1083C
__end_ofPL124                             text27        1214E
__end_ofPL126                             text115       10FC6
__end_ofPL128                             text8         129FC
__end_ofPL130                             text114       11FDA
__end_ofPL132                             text88        13036
__end_ofPL134                             text125       13150
__end_ofPL136                             text17        113F2
__end_ofPL138                             text39        11CD6
__end_ofPL14                              text32        10DFA
__end_ofPL140                             text104       143E0
__end_ofPL142                             text125       1315C
__end_ofPL144                             text96        130CA
__end_ofPL146                             text40        10320
__end_ofPL148                             text3         10ACA
__end_ofPL150                             text22        14422
__end_ofPL152                             text27        1215C
__end_ofPL154                             text27        12166
__end_ofPL156                             text111       12950
__end_ofPL158                             text102       12090
__end_ofPL16                              text21        12BC4
__end_ofPL160                             text87        12F2E
__end_ofPL162                             text78        12812
__end_ofPL164                             text127       12452
__end_ofPL166                             text12        13932
__end_ofPL168                             text111       12956
__end_ofPL170                             text126       1239A
__end_ofPL172                             text78        1281C
__end_ofPL174                             text19        11788
__end_ofPL176                             text31        10622
__end_ofPL178                             text91        11662
__end_ofPL18                              text31        105E2
__end_ofPL180                             text32        10E04
__end_ofPL182                             text24        11134
__end_ofPL184                             text3         10AD0
__end_ofPL186                             text115       10FD0
__end_ofPL188                             text39        11CE8
__end_ofPL190                             text1         1084E
__end_ofPL192                             text64        11BF6
__end_ofPL194                             text39        11CFA
__end_ofPL196                             text102       1209C
__end_ofPL198                             text127       1245E
__end_ofPL2                               text108       1264A
__end_ofPL20                              text25        13740
__end_ofPL200                             text32        10E10
__end_ofPL202                             text57        141AE
__end_ofPL204                             text1         1085A
__end_ofPL206                             text31        1062A
__end_ofPL208                             text62        13B8C
__end_ofPL210                             text31        10634
__end_ofPL212                             text14        126EA
__end_ofPL214                             text83        12E9E
__end_ofPL216                             text72        1278A
__end_ofPL218                             text1         10864
__end_ofPL22                              text85        12A76
__end_ofPL220                             text3         10ADA
__end_ofPL222                             text126       123A4
__end_ofPL224                             text2         10C82
__end_ofPL226                             text1         1086E
__end_ofPL228                             text43        13BD8
__end_ofPL230                             text36        13FC0
__end_ofPL232                             text123       1230A
__end_ofPL234                             text126       123B4
__end_ofPL236                             text1         10878
__end_ofPL238                             text65        12FAE
__end_ofPL24                              text114       11FB4
__end_ofPL240                             text102       120AC
__end_ofPL242                             text2         10C8C
__end_ofPL244                             text27        12176
__end_ofPL246                             text125       13162
__end_ofPL248                             text27        12184
__end_ofPL250                             text91        1166A
__end_ofPL252                             text65        12FBC
__end_ofPL254                             text121       13658
__end_ofPL256                             text119       13370
__end_ofPL258                             text39        11D04
__end_ofPL26                              text19        1176E
__end_ofPL260                             text32        10E1A
__end_ofPL262                             text19        11792
__end_ofPL264                             text101       118D4
__end_ofPL266                             text59        14078
__end_ofPL268                             text32        10E24
__end_ofPL270                             text40        1032A
__end_ofPL272                             text85        12A8C
__end_ofPL274                             text17        113FC
__end_ofPL276                             text111       12962
__end_ofPL278                             text7         13EBA
__end_ofPL28                              text31        10608
__end_ofPL280                             text96        130D6
__end_ofPL282                             text40        10336
__end_ofPL284                             text19        1179E
__end_ofPL286                             text114       11FE6
__end_ofPL288                             text102       120B8
__end_ofPL290                             text19        117AA
__end_ofPL292                             text32        10E30
__end_ofPL294                             text31        10640
__end_ofPL296                             text29        13F80
__end_ofPL298                             text110       12CEE
__end_ofPL30                              text73        1129A
__end_ofPL300                             text19        117B0
__end_ofPL302                             text113       135EA
__end_ofPL304                             text19        117BA
__end_ofPL306                             text88        13040
__end_ofPL308                             text70        14462
__end_ofPL310                             text91        11674
__end_ofPL312                             text35        13B3E
__end_ofPL314                             text34        13D02
__end_ofPL316                             text119       1337A
__end_ofPL318                             text78        12824
__end_ofPL32                              text73        112A4
__end_ofPL320                             text84        11EF0
__end_ofPL322                             text88        1304A
__end_ofPL324                             text91        1167E
__end_ofPL326                             text107       13DE0
__end_ofPL328                             text121       13662
__end_ofPL330                             text85        12A96
__end_ofPL332                             text1         10882
__end_ofPL334                             text64        11C00
__end_ofPL336                             text31        1064A
__end_ofPL338                             text40        10340
__end_ofPL34                              text123       122F6
__end_ofPL340                             text24        1113C
__end_ofPL342                             text24        11146
__end_ofPL344                             text117       131EC
__end_ofPL346                             text24        11150
__end_ofPL348                             text84        11EFA
__end_ofPL350                             text1         1088A
__end_ofPL352                             text40        10348
__end_ofPL354                             text58        12504
__end_ofPL356                             text64        11C08
__end_ofPL358                             text78        1282A
__end_ofPL36                              text124       13474
__end_ofPL360                             text64        11C10
__end_ofPL362                             text39        11D0C
__end_ofPL364                             text1         10892
__end_ofPL366                             text32        10E38
__end_ofPL368                             text86        11E06
__end_ofPL38                              text73        112B2
__end_ofPL4                               text18        119EC
__end_ofPL40                              text123       12300
__end_ofPL42                              text19        1177E
__end_ofPL44                              text29        13F74
__end_ofPL46                              text85        12A82
__end_ofPL48                              text125       13144
__end_ofPL50                              text91        11658
__end_ofPL52                              text45        125A8
__end_ofPL54                              text24        110F6
__end_ofPL56                              text23        11514
__end_ofPL58                              text40        10300
__end_ofPL6                               text123       122DC
__end_ofPL60                              text24        11102
__end_ofPL62                              text3         10AB4
__end_ofPL64                              text23        11520
__end_ofPL66                              text102       12078
__end_ofPL68                              text24        11118
__end_ofPL70                              text66        12D7E
__end_ofPL72                              text37        13FFE
__end_ofPL74                              text23        11536
__end_ofPL76                              text55        12B2E
__end_ofPL78                              text115       10F8E
__end_ofPL8                               text24        110E8
__end_ofPL80                              text14        126E0
__end_ofPL82                              text84        11EE6
__end_ofPL84                              text23        11540
__end_ofPL86                              text24        11122
__end_ofPL88                              text40        1030A
__end_ofPL90                              text31        1061A
__end_ofPL92                              text115       10FA0
__end_ofPL94                              text2         10C78
__end_ofPL96                              text106       12C5A
__end_ofPL98                              text96        130BE
__end_of_ADC                              text49        1426A
__end_of_ADC_init                         text70        14458
__end_of_ANALOG_IN                        text48        144F4
__end_of_Auto_cut                         text45        12598
__end_of_CDCInitEP                        text118       13AEE
__end_of_CDCTxService                     text84        11EC6
__end_of_CTMU_init                        text69        1439C
__end_of_CTMU_read                        text75        12E0E
__end_of_ISR                              intcode       000BC
__end_of_LED_indicator                    text127       12444
__end_of_LED_output                       text28        13CB8
__end_of_OUT                              text47        13D4C
__end_of_RTCC_adjust_time_cursor          text25        13732
__end_of_RTCC_adjust_time_dec             text24        110D0
__end_of_RTCC_adjust_time_inc             text23        11506
__end_of_RTCC_adjust_time_toggle          text22        14414
__end_of_RTCC_from_RTCC                   text90        1453C
__end_of_RTCC_from_caltime                text6         14358
__end_of_RTCC_from_epoch                  text63        14524
__end_of_RTCC_init                        text62        13B80
__end_of_RTCC_task                        text89        141E0
__end_of_RTCC_to_caltime                  text96        130B0
__end_of_ST7032_clear                     text60        145AC
__end_of_ST7032_command                   text61        13F40
__end_of_ST7032_cursor                    text38        14442
__end_of_ST7032_init                      text58        124FE
__end_of_ST7032_put                       text37        13FF4
__end_of_ST7032_puts                      text36        13FB0
__end_of_ST7032_task                      text86        11DFE
__end_of_USBCheckCDCRequest               text117       131E2
__end_of_USBCheckStdRequest               text110       12CE4
__end_of_USBConfigureEndpoint             text121       1364A
__end_of_USBCtrlEPAllowDataStage          text109       139EE
__end_of_USBCtrlEPAllowStatusStage        text124       13468
__end_of_USBCtrlEPService                 text106       12C4E
__end_of_USBCtrlEPServiceComplete         text108       1261C
__end_of_USBCtrlTrfInHandler              text125       1313A
__end_of_USBCtrlTrfOutHandler             text122       144A2
__end_of_USBCtrlTrfRxService              text123       122D2
__end_of_USBCtrlTrfSetupHandler           text107       13DD6
__end_of_USBCtrlTrfTxService              text126       12386
__end_of_USBDeviceAttach                  text57        141A2
__end_of_USBDeviceInit                    text55        12B20
__end_of_USBDeviceTasks                   text101       118CA
__end_of_USBEnableEndpoint                text120       140E4
__end_of_USBStallHandler                  text105       14208
__end_of_USBStdFeatureReqHandler          text115       10F84
__end_of_USBStdGetDscHandler              text114       11FA8
__end_of_USBStdGetStatusHandler           text113       135E0
__end_of_USBStdSetCfgHandler              text111       12942
__end_of_USBSuspend                       text104       143D4
__end_of_USBTransferOnePacket             text85        12A66
__end_of_USBWakeFromSuspend               text103       14482
__end_of_USB_CD_Ptr                       mediumconst   0FA81
__end_of_USB_ISR                          text100       145B0
__end_of_USB_SD_Ptr                       mediumconst   0FA7F
__end_of_USB_init                         text54        1450C
__end_of_USB_task                         text77        13A48
__end_of_USER_USB_CALLBACK_EVENT_HANDLER  text116       14402
__end_of___awmod                          text94        137A8
__end_of___lbdiv                          text68        140AE
__end_of___lbmod                          text93        1430E
__end_of___lldiv                          text76        136D8
__end_of___llmod                          text42        138D2
__end_of___lmul                           text95        13C24
__end_of___lwdiv                          text74        13D96
__end_of___lwmod                          text44        1403C
__end_of___wmul                           text46        14334
__end_of__initialization                  cinit         13568
__end_of_atoi                             text8         129F2
__end_of_bootload                         text9         1414A
__end_of_button_timer_interrupt           text73        1128C
__end_of_caltime_to_RTCC                  text66        12D72
__end_of_caltime_to_epoch                 text91        11646
__end_of_configDescriptor1                mediumconst   0FB3C
__end_of_ctmu_sampling                    text72        12772
__end_of_ctmu_set_ratio                   text14        126D0
__end_of_ctmu_task                        text71        145A0
__end_of_d_to_x                           text67        1456A
__end_of_data_out                         text39        11CC0
__end_of_device_dsc                       mediumconst   0FBD2
__end_of_display                          text27        12144
__end_of_display_LCD                      text31        105D2
__end_of_display_dec                      text34        13CF8
__end_of_display_time_1602                text32        10DD6
__end_of_dpowers                          mediumconst   0FA79
__end_of_epoch_to_caltime                 text64        11BDA
__end_of_get_quot_rem                     text65        12FA4
__end_of_get_string_usb                   text81        14118
__end_of_getsUSBUSART                     text83        12E8E
__end_of_hardware_init                    text50        133FC
__end_of_integrate_current                text30        132EA
__end_of_integrate_time                   text29        13F64
__end_of_is_usb_available                 text82        14580
__end_of_isdigit                          text41        144C0
__end_of_main                             text0         1380C
__end_of_memset                           text56        14294
__end_of_millis_timer                     text99        14592
__end_of_month_length                     text92        134F8
__end_of_normal_task                      text16        13272
__end_of_port_button_task                 text26        12248
__end_of_print_time                       text5         13A9C
__end_of_putUSBUSART                      text80        144DC
__end_of_put_string_usb                   text79        143BE
__end_of_ringbuf_backspace                text12        13924
__end_of_ringbuf_delete                   text11        1437A
__end_of_ringbuf_init                     text59        1406E
__end_of_ringbuf_num                      text88        1302C
__end_of_ringbuf_pop                      text87        12F20
__end_of_ringbuf_put                      text78        12804
__end_of_ringbuf_put_num                  text10        13870
__end_of_ringbuf_put_str                  text43        13BC8
__end_of_sd000                            mediumconst   0FBE6
__end_of_sd001                            mediumconst   0FB70
__end_of_sd002                            mediumconst   0FBA4
__end_of_settings_adjust_time             text21        12BB0
__end_of_settings_auto_stop               text20        11AE8
__end_of_settings_integrating_reset       text19        1175E
__end_of_settings_led_indicator           text18        119DC
__end_of_settings_task                    text17        113E8
__end_of_sleep_task                       text15        128C6
__end_of_software_init                    text13        13992
__end_of_sprintf                          text40        102EE
__end_of_strcat                           text35        13B34
__end_of_strcmp                           text7         13EAE
__end_of_strcpy                           text33        1417C
__end_of_terminal_at_hand                 text4         13C6E
__end_of_terminal_operation               text2         10C6E
__end_of_terminal_task                    text1         10830
__end_of_terminal_time                    text3         10AAA
__end_of_timer0_init                      text53        14240
__end_of_timer1_init                      text52        13EFE
__end_of_timer3_init                      text51        142E6
__end_of_weekday_3char                    mediumconst   0FBC0
__end_of_x_to_d                           text97        14554
__end_ofdata_out@p                        mediumconst   0FBE2
__end_ofdisplay_LCD@onoff                 mediumconst   0FBDC
__end_ofdisplay_LCD@port_char             mediumconst   0FAF9
__end_ofi2_LED_output                     text129       13E74
__end_ofi2_USBDeviceInit                  text102       12052
__end_ofi2_USBTransferOnePacket           text119       13366
__end_ofi2___lwdiv                        text128       13E2A
__end_ofi2_memset                         text112       142BE
__initialization                          cinit         134F8
__mediumconst                             mediumconst   0FA50
__pbssBANK0                               bssBANK0      000EB
__pbssBANK1                               bssBANK1      00100
__pbssBANK2                               bssBANK2      00200
__pbssBANK3                               bssBANK3      00300
__pbssBANK4                               bssBANK4      00400
__pbssBIGRAMl                             bssBIGRAMl    004C8
__pbssCOMRAM                              bssCOMRAM     00001
__pcinit                                  cinit         134F8
__pcstackBANK0                            cstackBANK0   00060
__pcstackBANK1                            cstackBANK1   00194
__pcstackCOMRAM                           cstackCOMRAM  0002B
__pdataBANK1                              dataBANK1     001FD
__pidataBANK1                             idataBANK1    145B0
__pintcode                                intcode       00008
__pmediumconst                            mediumconst   0FA50
__ptext0                                  text0         137A8
__ptext1                                  text1         1064A
__ptext10                                 text10        1380C
__ptext100                                text100       145AC
__ptext101                                text101       117BA
__ptext102                                text102       11FE6
__ptext103                                text103       14462
__ptext104                                text104       143BE
__ptext105                                text105       141E0
__ptext106                                text106       12BC4
__ptext107                                text107       13D96
__ptext108                                text108       125A8
__ptext109                                text109       13992
__ptext11                                 text11        14358
__ptext110                                text110       12C5A
__ptext111                                text111       128C6
__ptext112                                text112       14294
__ptext113                                text113       13572
__ptext114                                text114       11EFA
__ptext115                                text115       10E38
__ptext116                                text116       143E0
__ptext117                                text117       13162
__ptext118                                text118       13A9C
__ptext119                                text119       132F6
__ptext12                                 text12        138D2
__ptext120                                text120       140AE
__ptext121                                text121       135EA
__ptext122                                text122       14482
__ptext123                                text123       12248
__ptext124                                text124       133FC
__ptext125                                text125       130D6
__ptext126                                text126       1230A
__ptext127                                text127       123B4
__ptext128                                text128       13DE0
__ptext129                                text129       13E2A
__ptext13                                 text13        13932
__ptext14                                 text14        1264A
__ptext15                                 text15        1282A
__ptext16                                 text16        131EC
__ptext17                                 text17        112B2
__ptext18                                 text18        118D4
__ptext19                                 text19        1167E
__ptext2                                  text2         10ADA
__ptext20                                 text20        119EC
__ptext21                                 text21        12B2E
__ptext22                                 text22        14402
__ptext23                                 text23        113FC
__ptext24                                 text24        10FD0
__ptext25                                 text25        136D8
__ptext26                                 text26        12184
__ptext27                                 text27        120B8
__ptext28                                 text28        13C6E
__ptext29                                 text29        13F40
__ptext3                                  text3         10892
__ptext30                                 text30        13272
__ptext31                                 text31        10348
__ptext32                                 text32        10C8C
__ptext33                                 text33        1414A
__ptext34                                 text34        13CB8
__ptext35                                 text35        13AEE
__ptext36                                 text36        13F80
__ptext37                                 text37        13FC0
__ptext38                                 text38        14422
__ptext39                                 text39        11C10
__ptext4                                  text4         13C24
__ptext40                                 text40        10000
__ptext41                                 text41        144A2
__ptext42                                 text42        13870
__ptext43                                 text43        13B8C
__ptext44                                 text44        13FFE
__ptext45                                 text45        12504
__ptext46                                 text46        1430E
__ptext47                                 text47        13D02
__ptext48                                 text48        144DC
__ptext49                                 text49        14240
__ptext5                                  text5         13A48
__ptext50                                 text50        1337A
__ptext51                                 text51        142BE
__ptext52                                 text52        13EBA
__ptext53                                 text53        14212
__ptext54                                 text54        144F4
__ptext55                                 text55        12A96
__ptext56                                 text56        1426A
__ptext57                                 text57        1417C
__ptext58                                 text58        1245E
__ptext59                                 text59        1403C
__ptext6                                  text6         14334
__ptext60                                 text60        145A0
__ptext61                                 text61        13EFE
__ptext62                                 text62        13B3E
__ptext63                                 text63        1450C
__ptext64                                 text64        11B04
__ptext65                                 text65        12F2E
__ptext66                                 text66        12CEE
__ptext67                                 text67        14554
__ptext68                                 text68        14078
__ptext69                                 text69        1437A
__ptext7                                  text7         13E74
__ptext70                                 text70        14442
__ptext71                                 text71        14592
__ptext72                                 text72        126EA
__ptext73                                 text73        11150
__ptext74                                 text74        13D4C
__ptext75                                 text75        12D7E
__ptext76                                 text76        13662
__ptext77                                 text77        139EE
__ptext78                                 text78        1278A
__ptext79                                 text79        1439C
__ptext8                                  text8         12962
__ptext80                                 text80        144C0
__ptext81                                 text81        140E4
__ptext82                                 text82        1456A
__ptext83                                 text83        12E0E
__ptext84                                 text84        11E06
__ptext85                                 text85        129FC
__ptext86                                 text86        11D0C
__ptext87                                 text87        12E9E
__ptext88                                 text88        12FBC
__ptext89                                 text89        141AE
__ptext9                                  text9         14118
__ptext90                                 text90        14524
__ptext91                                 text91        11540
__ptext92                                 text92        1347C
__ptext93                                 text93        142E6
__ptext94                                 text94        13740
__ptext95                                 text95        13BD8
__ptext96                                 text96        1304A
__ptext97                                 text97        1453C
__ptext99                                 text99        14580
__ramtop                                  ramtop        00F00
__size_of_ADC                             (abs)         00000
__size_of_ADC_init                        (abs)         00000
__size_of_ANALOG_IN                       (abs)         00000
__size_of_Auto_cut                        (abs)         00000
__size_of_CDCInitEP                       (abs)         00000
__size_of_CDCTxService                    (abs)         00000
__size_of_CTMU_init                       (abs)         00000
__size_of_CTMU_read                       (abs)         00000
__size_of_ISR                             (abs)         00000
__size_of_LED_indicator                   (abs)         00000
__size_of_LED_output                      (abs)         00000
__size_of_OUT                             (abs)         00000
__size_of_RTCC_adjust_time_cursor         (abs)         00000
__size_of_RTCC_adjust_time_dec            (abs)         00000
__size_of_RTCC_adjust_time_inc            (abs)         00000
__size_of_RTCC_adjust_time_toggle         (abs)         00000
__size_of_RTCC_from_RTCC                  (abs)         00000
__size_of_RTCC_from_caltime               (abs)         00000
__size_of_RTCC_from_epoch                 (abs)         00000
__size_of_RTCC_init                       (abs)         00000
__size_of_RTCC_task                       (abs)         00000
__size_of_RTCC_to_caltime                 (abs)         00000
__size_of_ST7032_clear                    (abs)         00000
__size_of_ST7032_command                  (abs)         00000
__size_of_ST7032_cursor                   (abs)         00000
__size_of_ST7032_init                     (abs)         00000
__size_of_ST7032_put                      (abs)         00000
__size_of_ST7032_puts                     (abs)         00000
__size_of_ST7032_task                     (abs)         00000
__size_of_USBCheckCDCRequest              (abs)         00000
__size_of_USBCheckStdRequest              (abs)         00000
__size_of_USBConfigureEndpoint            (abs)         00000
__size_of_USBCtrlEPAllowDataStage         (abs)         00000
__size_of_USBCtrlEPAllowStatusStage       (abs)         00000
__size_of_USBCtrlEPService                (abs)         00000
__size_of_USBCtrlEPServiceComplete        (abs)         00000
__size_of_USBCtrlTrfInHandler             (abs)         00000
__size_of_USBCtrlTrfOutHandler            (abs)         00000
__size_of_USBCtrlTrfRxService             (abs)         00000
__size_of_USBCtrlTrfSetupHandler          (abs)         00000
__size_of_USBCtrlTrfTxService             (abs)         00000
__size_of_USBDeviceAttach                 (abs)         00000
__size_of_USBDeviceInit                   (abs)         00000
__size_of_USBDeviceTasks                  (abs)         00000
__size_of_USBEnableEndpoint               (abs)         00000
__size_of_USBStallHandler                 (abs)         00000
__size_of_USBStdFeatureReqHandler         (abs)         00000
__size_of_USBStdGetDscHandler             (abs)         00000
__size_of_USBStdGetStatusHandler          (abs)         00000
__size_of_USBStdSetCfgHandler             (abs)         00000
__size_of_USBSuspend                      (abs)         00000
__size_of_USBTransferOnePacket            (abs)         00000
__size_of_USBWakeFromSuspend              (abs)         00000
__size_of_USB_ISR                         (abs)         00000
__size_of_USB_init                        (abs)         00000
__size_of_USB_task                        (abs)         00000
__size_of_USER_USB_CALLBACK_EVENT_HANDLER (abs)         00000
__size_of___awmod                         (abs)         00000
__size_of___lbdiv                         (abs)         00000
__size_of___lbmod                         (abs)         00000
__size_of___lldiv                         (abs)         00000
__size_of___llmod                         (abs)         00000
__size_of___lmul                          (abs)         00000
__size_of___lwdiv                         (abs)         00000
__size_of___lwmod                         (abs)         00000
__size_of___wmul                          (abs)         00000
__size_of_atoi                            (abs)         00000
__size_of_bootload                        (abs)         00000
__size_of_button_timer_interrupt          (abs)         00000
__size_of_caltime_to_RTCC                 (abs)         00000
__size_of_caltime_to_epoch                (abs)         00000
__size_of_ctmu_sampling                   (abs)         00000
__size_of_ctmu_set_ratio                  (abs)         00000
__size_of_ctmu_task                       (abs)         00000
__size_of_d_to_x                          (abs)         00000
__size_of_data_out                        (abs)         00000
__size_of_display                         (abs)         00000
__size_of_display_LCD                     (abs)         00000
__size_of_display_dec                     (abs)         00000
__size_of_display_time_1602               (abs)         00000
__size_of_epoch_to_caltime                (abs)         00000
__size_of_get_quot_rem                    (abs)         00000
__size_of_get_string_usb                  (abs)         00000
__size_of_getsUSBUSART                    (abs)         00000
__size_of_hardware_init                   (abs)         00000
__size_of_integrate_current               (abs)         00000
__size_of_integrate_time                  (abs)         00000
__size_of_is_usb_available                (abs)         00000
__size_of_isdigit                         (abs)         00000
__size_of_main                            (abs)         00000
__size_of_memset                          (abs)         00000
__size_of_millis_timer                    (abs)         00000
__size_of_month_length                    (abs)         00000
__size_of_normal_task                     (abs)         00000
__size_of_port_button_task                (abs)         00000
__size_of_print_time                      (abs)         00000
__size_of_putUSBUSART                     (abs)         00000
__size_of_put_string_usb                  (abs)         00000
__size_of_ringbuf_backspace               (abs)         00000
__size_of_ringbuf_delete                  (abs)         00000
__size_of_ringbuf_init                    (abs)         00000
__size_of_ringbuf_num                     (abs)         00000
__size_of_ringbuf_pop                     (abs)         00000
__size_of_ringbuf_put                     (abs)         00000
__size_of_ringbuf_put_num                 (abs)         00000
__size_of_ringbuf_put_str                 (abs)         00000
__size_of_settings_adjust_time            (abs)         00000
__size_of_settings_auto_stop              (abs)         00000
__size_of_settings_integrating_reset      (abs)         00000
__size_of_settings_led_indicator          (abs)         00000
__size_of_settings_task                   (abs)         00000
__size_of_sleep_task                      (abs)         00000
__size_of_software_init                   (abs)         00000
__size_of_sprintf                         (abs)         00000
__size_of_strcat                          (abs)         00000
__size_of_strcmp                          (abs)         00000
__size_of_strcpy                          (abs)         00000
__size_of_terminal_at_hand                (abs)         00000
__size_of_terminal_operation              (abs)         00000
__size_of_terminal_task                   (abs)         00000
__size_of_terminal_time                   (abs)         00000
__size_of_timer0_init                     (abs)         00000
__size_of_timer1_init                     (abs)         00000
__size_of_timer3_init                     (abs)         00000
__size_of_x_to_d                          (abs)         00000
__size_ofi2_LED_output                    (abs)         00000
__size_ofi2_USBDeviceInit                 (abs)         00000
__size_ofi2_USBTransferOnePacket          (abs)         00000
__size_ofi2___lwdiv                       (abs)         00000
__size_ofi2_memset                        (abs)         00000
__smallconst                              smallconst    00000
_atoi                                     text8         12962
_bootload                                 text9         14118
_button_timer_interrupt                   text73        11150
_caltime_to_RTCC                          text66        12CEE
_caltime_to_epoch                         text91        11540
_cdc_data_rx                              bssBANK3      00364
_cdc_data_tx                              bssBANK3      003A4
_cdc_mem_type                             bssBANK1      0012C
_cdc_rx_len                               bssCOMRAM     0001D
_cdc_trf_state                            bssCOMRAM     0001E
_cdc_tx_len                               bssCOMRAM     0001F
_configDescriptor1                        mediumconst   0FAF9
_controlTransferState                     bssCOMRAM     00020
_ctmu_m                                   bssCOMRAM     00025
_ctmu_ratio                               bssBANK0      000EB
_ctmu_sampling                            text72        126EA
_ctmu_sampling_flag                       bssBANK1      0012D
_ctmu_set_ratio                           text14        1264A
_ctmu_task                                text71        14592
_ctmu_value_m                             bssBANK1      0011B
_cut_time_flag                            bssBANK1      0012E
_d_to_x                                   text67        14554
_data_item                                bssCOMRAM     00021
_data_out                                 text39        11C10
_device_dsc                               mediumconst   0FBC0
_display                                  text27        120B8
_display_LCD                              text31        10348
_display_LCD$7095                         cstackBANK1   001D0
_display_LCD$7096                         cstackBANK1   001D4
_display_LCD$7097                         cstackBANK1   001D8
_display_LCD$7098                         cstackBANK1   001DC
_display_LCD$7099                         cstackBANK1   001E0
_display_char                             bssBANK2      00203
_display_dec                              text34        13CB8
_display_flag                             bssBANK1      0012F
_display_time_1602                        text32        10C8C
_dpowers                                  mediumconst   0FA51
_dummy_encapsulated_cmd_response          bssBANK2      0029D
_endpoint_number                          bssCOMRAM     00022
_ep_data_in                               bssBANK1      00109
_ep_data_out                              bssBANK1      0010C
_epoch_to_caltime                         text64        11B04
_get_quot_rem                             text65        12F2E
_get_string_usb                           text81        140E4
_getsUSBUSART                             text83        12E0E
_getsUSBUSART$6266                        cstackBANK0   0006A
_hardware_init                            text50        1337A
_inPipes                                  bssCOMRAM     0000A
_integrate_current                        text30        13272
_integrate_flag                           bssBANK1      00130
_integrate_time                           text29        13F40
_is_usb_available                         text82        1456A
_is_usb_available$4449                    cstackBANK0   00060
_isdigit                                  text41        144A2
_isdigit$6567                             cstackBANK0   00061
_lcd_tx                                   bssBANK1      00182
_line_coding                              bssBANK2      002C5
_main                                     text0         137A8
_memset                                   text56        1426A
_millis_timer                             text99        14580
_month_length                             text92        1347C
_normal_task                              text16        131EC
_now                                      bssBANK2      0028F
_outPipes                                 bssCOMRAM     00001
_pBDTEntryEP0OutCurrent                   bssCOMRAM     00016
_pBDTEntryEP0OutNext                      bssCOMRAM     00018
_pBDTEntryIn                              bssCOMRAM     00010
_pBDTEntryOut                             bssBANK1      00100
_pCDCDst                                  bssBANK1      0010F
_pCDCSrc                                  bssBANK1      00112
_pDst                                     bssBANK1      0011D
_port                                     bssBANK1      0013D
_port_button_task                         text26        12184
_print_item                               bssBANK0      000EC
_print_port                               bssCOMRAM     00023
_print_time                               text5         13A48
_putUSBUSART                              text80        144C0
_put_string_usb                           text79        1439C
_ringbuf_backspace                        text12        138D2
_ringbuf_delete                           text11        14358
_ringbuf_init                             text59        1403C
_ringbuf_num                              text88        12FBC
_ringbuf_pop                              text87        12E9E
_ringbuf_put                              text78        1278A
_ringbuf_put_num                          text10        1380C
_ringbuf_put_str                          text43        13B8C
_sd000                                    mediumconst   0FBE2
_sd001                                    mediumconst   0FB3C
_sd002                                    mediumconst   0FB70
_settings_adjust_time                     text21        12B2E
_settings_auto_stop                       text20        119EC
_settings_flag                            bssBANK1      00131
_settings_integrating_reset               text19        1167E
_settings_item                            bssBANK0      000ED
_settings_led_indicator                   text18        118D4
_settings_task                            text17        112B2
_shortPacketStatus                        bssCOMRAM     00024
_sleep_task                               text15        1282A
_software_init                            text13        13932
_sprintf                                  text40        10000
_st7032_flag                              bssBANK1      00132
_strcat                                   text35        13AEE
_strcmp                                   text7         13E74
_strcpy                                   text33        1414A
_terminal_at_hand                         text4         13C24
_terminal_data_out                        bssBANK1      00133
_terminal_data_out_flag                   bssBANK1      00134
_terminal_operation                       text2         10ADA
_terminal_task                            text1         1064A
_terminal_task$7100                       cstackBANK1   001F8
_terminal_time                            text3         10892
_terminal_time$7101                       cstackBANK0   000D9
_time_change_flag                         bssBANK1      00135
_timer0_init                              text53        14212
_timer1_init                              text52        13EBA
_timer3_init                              text51        142BE
_uart_rx                                  bssBANK2      002A5
_uart_tx                                  bssBANK2      002AD
_usb_rx                                   bssBANK2      002B5
_usb_tx                                   bssBANK2      002BD
_weekday_3char                            mediumconst   0FBA4
_x_to_d                                   text97        1453C
atoi@a                                    cstackBANK0   00081
atoi@s                                    cstackBANK0   0007C
atoi@sign                                 cstackBANK0   00080
btemp                                     temp          00054
button_timer_interrupt@bt                 cstackBANK0   00083
button_timer_interrupt@sw_value           cstackBANK0   00085
caltime_to_RTCC@tm                        cstackBANK0   00065
caltime_to_epoch@epoch                    cstackBANK0   00081
caltime_to_epoch@month                    cstackBANK0   00085
caltime_to_epoch@month_2763               cstackBANK0   00080
caltime_to_epoch@tm                       cstackBANK0   00079
caltime_to_epoch@year                     cstackBANK0   0007F
ctmu_set_ratio@percentage                 cstackBANK0   00083
d_to_x@dec                                cstackBANK0   00064
data_out@i                                cstackBANK0   000CA
data_out@p                                mediumconst   0FBDC
data_out@str                              cstackBANK0   000AC
data_out@tx                               cstackBANK0   000AA
display@i                                 cstackBANK0   00065
display@item                              cstackBANK0   00064
display@str0                              cstackBANK0   00060
display@str1                              cstackBANK0   00062
display_LCD@onoff                         mediumconst   0FBD2
display_LCD@port_char                     mediumconst   0FA81
display_LCD@str                           cstackBANK1   00194
display_LCD@str_575                       cstackBANK1   001BC
display_dec@dec                           cstackBANK0   000AC
display_dec@edit                          cstackBANK0   000AD
display_dec@s                             cstackBANK0   000AE
display_dec@str                           cstackBANK0   000AA
display_time_1602@line0                   cstackBANK0   000B4
display_time_1602@line1                   cstackBANK0   000B6
display_time_1602@tm                      cstackBANK0   000B2
end_of_initialization                     cinit         13568
epoch_to_caltime@day                      cstackBANK0   00087
epoch_to_caltime@month                    cstackBANK0   0008A
epoch_to_caltime@num                      cstackBANK0   0008B
epoch_to_caltime@tm                       cstackBANK0   00082
epoch_to_caltime@year                     cstackBANK0   00089
get_quot_rem@div                          cstackBANK0   00079
get_quot_rem@num                          cstackBANK0   0007D
get_quot_rem@quot                         cstackBANK0   00081
get_string_usb@len                        cstackBANK0   0006C
get_string_usb@rx_len                     cstackBANK0   0006E
get_string_usb@s                          cstackBANK0   00070
getsUSBUSART@buffer                       cstackBANK0   00069
getsUSBUSART@len                          cstackBANK0   00067
hardware_init@usbrx                       bssBANK3      00300
hardware_init@usbtx                       bssBIGRAMl    004C8
i2LED_output@b                            cstackCOMRAM  0002C
i2LED_output@value                        cstackCOMRAM  0002B
i2USBDeviceInit@i                         cstackCOMRAM  00033
i2USBTransferOnePacket@data               cstackCOMRAM  0002C
i2USBTransferOnePacket@dir                cstackCOMRAM  0002B
i2USBTransferOnePacket@ep                 cstackCOMRAM  0002F
i2USBTransferOnePacket@handle             cstackCOMRAM  00030
i2USBTransferOnePacket@len                cstackCOMRAM  0002E
i2_LED_output                             text129       13E2A
i2_USBDeviceInit                          text102       11FE6
i2_USBTransferOnePacket                   text119       132F6
i2___lwdiv                                text128       13DE0
i2___lwdiv@counter                        cstackCOMRAM  00031
i2___lwdiv@dividend                       cstackCOMRAM  0002B
i2___lwdiv@divisor                        cstackCOMRAM  0002D
i2___lwdiv@quotient                       cstackCOMRAM  0002F
i2_memset                                 text112       14294
i2memset@c                                cstackCOMRAM  0002D
i2memset@n                                cstackCOMRAM  0002F
i2memset@p                                cstackCOMRAM  00031
i2memset@p1                               cstackCOMRAM  0002B
int$flags                                 temp          00054
integrate_current@i                       cstackBANK0   0006F
integrate_time@i                          cstackBANK0   00062
intlevel0                                 text          00000
intlevel1                                 text          00000
intlevel2                                 text          00000
intlevel3                                 text          00000
isdigit@c                                 cstackBANK0   00062
memset@c                                  cstackBANK0   00062
memset@n                                  cstackBANK0   00064
memset@p                                  cstackBANK0   00066
memset@p1                                 cstackBANK0   00060
millis_timer@cnt                          bssBANK1      0011F
month_length@month                        cstackBANK0   00066
month_length@year                         cstackBANK0   0006B
port_button_task@i                        cstackBANK0   00066
print_time@str                            cstackBANK0   000AC
print_time@tx                             cstackBANK0   000AA
putUSBUSART@data                          cstackBANK0   00061
putUSBUSART@length                        cstackBANK0   00060
put_string_usb@len                        cstackBANK0   0006B
put_string_usb@s                          cstackBANK0   0006D
ringbuf_backspace@rb                      cstackBANK0   00068
ringbuf_delete@rb                         cstackBANK0   00060
ringbuf_init@bufsize                      cstackBANK0   00064
ringbuf_init@internal_buf                 cstackBANK0   00062
ringbuf_init@rb                           cstackBANK0   00060
ringbuf_num@rb                            cstackBANK0   00060
ringbuf_pop@rb                            cstackBANK0   00068
ringbuf_pop@ret                           cstackBANK0   0006E
ringbuf_put@asciicode                     cstackBANK0   0006A
ringbuf_put@rb                            cstackBANK0   00068
ringbuf_put_num@digits                    cstackBANK0   00087
ringbuf_put_num@i                         cstackBANK0   00088
ringbuf_put_num@rb                        cstackBANK0   00083
ringbuf_put_num@temp                      cstackBANK0   00089
ringbuf_put_num@value                     cstackBANK0   00085
ringbuf_put_str@rb                        cstackBANK0   0006F
ringbuf_put_str@str                       cstackBANK0   00071
settings_adjust_time@state                bssBANK1      00136
settings_auto_stop@i                      cstackBANK0   00091
settings_auto_stop@i_1312                 cstackBANK0   00092
settings_auto_stop@j                      cstackBANK0   00093
settings_auto_stop@state                  bssBANK1      00137
settings_auto_stop@str                    cstackBANK0   00067
settings_auto_stop@str_1310               cstackBANK0   0007B
settings_auto_stop@strp                   cstackBANK0   0008F
settings_auto_stop@strp_1311              cstackBANK0   00090
settings_integrating_reset@i              cstackBANK0   00094
settings_integrating_reset@i_1346         cstackBANK0   00095
settings_integrating_reset@j              cstackBANK0   00096
settings_integrating_reset@state          bssBANK1      00138
settings_integrating_reset@str            cstackBANK0   0006A
settings_integrating_reset@str_1344       cstackBANK0   0007E
settings_integrating_reset@strp           cstackBANK0   00092
settings_integrating_reset@strp_1345      cstackBANK0   00093
settings_led_indicator@i                  cstackBANK0   00091
settings_led_indicator@i_1329             cstackBANK0   00092
settings_led_indicator@j                  cstackBANK0   00093
settings_led_indicator@state              bssBANK1      00139
settings_led_indicator@str                cstackBANK0   00067
settings_led_indicator@str_1327           cstackBANK0   0007B
settings_led_indicator@strp               cstackBANK0   0008F
settings_led_indicator@strp_1328          cstackBANK0   00090
settings_task@item_change_flag            cstackBANK0   00099
settings_task@settings_state              bssBANK1      0013A
sleep_task@i                              cstackBANK0   00075
sleep_task@sleep_flag                     bssBANK1      0013B
software_init@i                           cstackBANK0   00084
sprintf@ap                                cstackBANK0   0009F
sprintf@c                                 cstackBANK0   000A7
sprintf@cp                                cstackBANK0   0009D
sprintf@f                                 cstackBANK0   00085
sprintf@flag                              cstackBANK0   000A6
sprintf@len                               cstackBANK0   000A0
sprintf@prec                              cstackBANK0   0009B
sprintf@sp                                cstackBANK0   00083
sprintf@val                               cstackBANK0   000A2
sprintf@width                             cstackBANK0   000A8
stackhi                                   (abs)         00EAF
stacklo                                   (abs)         00D40
start                                     init          000BC
start_initialization                      cinit         134F8
strcat@cp                                 cstackBANK0   00064
strcat@from                               cstackBANK0   00062
strcat@to                                 cstackBANK0   00060
strcmp@r                                  cstackBANK0   00066
strcmp@s1                                 cstackBANK0   00060
strcmp@s2                                 cstackBANK0   00062
strcpy@cp                                 cstackBANK0   00064
strcpy@from                               cstackBANK0   00062
strcpy@to                                 cstackBANK0   00060
terminal_at_hand@hand                     cstackBANK0   000CC
terminal_at_hand@max                      cstackBANK0   000CF
terminal_at_hand@min                      cstackBANK0   000CE
terminal_at_hand@tx                       cstackBANK0   000CA
terminal_at_hand@value                    cstackBANK0   000D0
terminal_operation@op0                    cstackBANK0   000DC
terminal_operation@op1                    cstackBANK0   000DE
terminal_operation@op2                    cstackBANK0   000E0
terminal_operation@op3                    cstackBANK0   000E2
terminal_operation@percentage             cstackBANK0   000E4
terminal_operation@tx                     cstackBANK0   000DA
terminal_task@ascii                       cstackBANK1   001FB
terminal_task@buf                         cstackBANK1   00194
terminal_task@command                     bssBANK1      0018A
terminal_task@command_init                bssBANK1      0013C
terminal_task@i                           cstackBANK1   001FC
terminal_task@i_3830                      cstackBANK1   001FA
terminal_task@op0                         bssBANK2      0022B
terminal_task@op1                         bssBANK2      00244
terminal_task@op2                         bssBANK2      0025D
terminal_task@op3                         bssBANK2      00276
terminal_task@rx                          cstackBANK0   000E7
terminal_task@tx                          cstackBANK0   000E5
terminal_time@op0                         cstackBANK0   000D3
terminal_time@op1                         cstackBANK0   000D5
terminal_time@op2                         cstackBANK0   000D7
terminal_time@tx                          cstackBANK0   000D1
timer0_init@prescaler                     cstackBANK0   00061
timer1_init@clock_select                  cstackBANK0   00060
timer1_init@prescaler                     cstackBANK0   00062
timer3_init@prescaler                     cstackBANK0   00061
x_to_d@hex                                cstackBANK0   00061


FUNCTION INFORMATION:

 *************** function _main *****************
 Defined at:
		line 129 in file "main.c"
 Parameters:    Size  Location     Type
		None
 Auto vars:     Size  Location     Type
		None
 Return value:  Size  Location     Type
                  2  425[None  ] int 
 Registers used:
		wreg, fsr1l, fsr1h, fsr2l, fsr2h, status,2, status,0, tblptrl, tblptrh, tblptru, prodl, prodh, cstack
 Tracked objects:
		On entry : 
		On exit  : 
		Unchanged: 
 Data sizes:     COMRAM   BANK0   BANK1   BANK2   BANK3   BANK4   BANK5   BANK6   BANK7   BANK8   BANK9  BANK10  BANK11  BANK12  BANK13  BANK14
      Params:         0       0       0       0       0       0       0       0       0       0       0       0       0       0       0       0
      Locals:         0       0       0       0       0       0       0       0       0       0       0       0       0       0       0       0
      Temps:          0       0       0       0       0       0       0       0       0       0       0       0       0       0       0       0
      Totals:         0       0       0       0       0       0       0       0       0       0       0       0       0       0       0       0
Total ram usage:        0 bytes
 Hardware stack levels required when called:   20
 This function calls:
		_RTCC_task
		_ST7032_task
		_USB_task
		_bootload
		_ctmu_task
		_hardware_init
		_normal_task
		_sleep_task
		_software_init
		_terminal_task
 This function is called by:
		Startup code after reset
 This function uses a non-reentrant model


 *************** function _terminal_task *****************
 Defined at:
		line 8 in file "../My_library/My_terminal.c"
 Parameters:    Size  Location     Type
  tx              2  133[BANK0 ] PTR struct ringbuf
		 -> usb_tx(8), 
  rx              2  135[BANK0 ] PTR struct ringbuf
		 -> usb_rx(8), 
 Auto vars:     Size  Location     Type
  i               1  102[BANK1 ] unsigned char 
  i               1  104[BANK1 ] unsigned char 
  ascii           1  103[BANK1 ] unsigned char 
  buf           100    0[BANK1 ] unsigned char [100]
 Return value:  Size  Location     Type
		None               void
 Registers used:
		wreg, fsr1l, fsr1h, fsr2l, fsr2h, status,2, status,0, tblptrl, tblptrh, tblptru, prodl, prodh, cstack
 Tracked objects:
		On entry : 
		On exit  : 
		Unchanged: 
 Data sizes:     COMRAM   BANK0   BANK1   BANK2   BANK3   BANK4   BANK5   BANK6   BANK7   BANK8   BANK9  BANK10  BANK11  BANK12  BANK13  BANK14
      Params:         0       4       0       0       0       0       0       0       0       0       0       0       0       0       0       0
      Locals:         0       0     105       0       0       0       0       0       0       0       0       0       0       0       0       0
      Temps:          0       2       0       0       0       0       0       0       0       0       0       0       0       0       0       0
      Totals:         0       6     105       0       0       0       0       0       0       0       0       0       0       0       0       0
Total ram usage:      111 bytes
 Hardware stack levels used:    1
 Hardware stack levels required when called:   19
 This function calls:
		_ringbuf_backspace
		_ringbuf_delete
		_ringbuf_init
		_ringbuf_num
		_ringbuf_pop
		_ringbuf_put
		_ringbuf_put_num
		_ringbuf_put_str
		_terminal_operation
 This function is called by:
		_main
 This function uses a non-reentrant model


 *************** function _terminal_operation *****************
 Defined at:
		line 200 in file "ChargeStation_task.c"
 Parameters:    Size  Location     Type
  tx              2  122[BANK0 ] PTR struct ringbuf
		 -> usb_tx(8), 
  op0             2  124[BANK0 ] PTR unsigned char 
		 -> terminal_task@op0(25), 
  op1             2  126[BANK0 ] PTR unsigned char 
		 -> terminal_task@op1(25), 
  op2             2  128[BANK0 ] PTR unsigned char 
		 -> terminal_task@op2(25), 
  op3             2  130[BANK0 ] PTR unsigned char 
		 -> terminal_task@op3(25), 
 Auto vars:     Size  Location     Type
  percentage      1  132[BANK0 ] unsigned char 
 Return value:  Size  Location     Type
		None               void
 Registers used:
		wreg, fsr1l, fsr1h, fsr2l, fsr2h, status,2, status,0, tblptrl, tblptrh, tblptru, prodl, prodh, cstack
 Tracked objects:
		On entry : 
		On exit  : 
		Unchanged: 
 Data sizes:     COMRAM   BANK0   BANK1   BANK2   BANK3   BANK4   BANK5   BANK6   BANK7   BANK8   BANK9  BANK10  BANK11  BANK12  BANK13  BANK14
      Params:         0      10       0       0       0       0       0       0       0       0       0       0       0       0       0       0
      Locals:         0       1       0       0       0       0       0       0       0       0       0       0       0       0       0       0
      Temps:          0       0       0       0       0       0       0       0       0       0       0       0       0       0       0       0
      Totals:         0      11       0       0       0       0       0       0       0       0       0       0       0       0       0       0
Total ram usage:       11 bytes
 Hardware stack levels used:    1
 Hardware stack levels required when called:   18
 This function calls:
		_atoi
		_bootload
		_ctmu_set_ratio
		_ringbuf_put_str
		_strcmp
		_terminal_time
 This function is called by:
		_terminal_task
 This function uses a non-reentrant model


 *************** function _terminal_time *****************
 Defined at:
		line 93 in file "../My_library/My_terminal.c"
 Parameters:    Size  Location     Type
  tx              2  113[BANK0 ] PTR struct ringbuf
		 -> usb_tx(8), 
  op0             2  115[BANK0 ] PTR unsigned char 
		 -> terminal_task@op0(25), 
  op1             2  117[BANK0 ] PTR unsigned char 
		 -> terminal_task@op1(25), 
  op2             2  119[BANK0 ] PTR unsigned char 
		 -> terminal_task@op2(25), 
 Auto vars:     Size  Location     Type
		None
 Return value:  Size  Location     Type
		None               void
 Registers used:
		wreg, fsr1l, fsr1h, fsr2l, fsr2h, status,2, status,0, tblptrl, tblptrh, tblptru, prodl, prodh, cstack
 Tracked objects:
		On entry : 
		On exit  : 
		Unchanged: 
 Data sizes:     COMRAM   BANK0   BANK1   BANK2   BANK3   BANK4   BANK5   BANK6   BANK7   BANK8   BANK9  BANK10  BANK11  BANK12  BANK13  BANK14
      Params:         0       8       0       0       0       0       0       0       0       0       0       0       0       0       0       0
      Locals:         0       1       0       0       0       0       0       0       0       0       0       0       0       0       0       0
      Temps:          0       0       0       0       0       0       0       0       0       0       0       0       0       0       0       0
      Totals:         0       9       0       0       0       0       0       0       0       0       0       0       0       0       0       0
Total ram usage:        9 bytes
 Hardware stack levels used:    1
 Hardware stack levels required when called:   17
 This function calls:
		_atoi
		_month_length
		_print_time
		_strcmp
		_terminal_at_hand
 This function is called by:
		_terminal_operation
 This function uses a non-reentrant model


 *************** function _terminal_at_hand *****************
 Defined at:
		line 82 in file "../My_library/My_terminal.c"
 Parameters:    Size  Location     Type
  tx              2  106[BANK0 ] PTR struct ringbuf
		 -> usb_tx(8), 
  hand            2  108[BANK0 ] PTR unsigned char 
		 -> now(14), 
  min             1  110[BANK0 ] unsigned char 
  max             1  111[BANK0 ] unsigned char 
  value           1  112[BANK0 ] unsigned char 
 Auto vars:     Size  Location     Type
		None
 Return value:  Size  Location     Type
		None               void
 Registers used:
		wreg, fsr1l, fsr1h, fsr2l, fsr2h, status,2, status,0, tblptrl, tblptrh, tblptru, prodl, prodh, cstack
 Tracked objects:
		On entry : 
		On exit  : 
		Unchanged: 
 Data sizes:     COMRAM   BANK0   BANK1   BANK2   BANK3   BANK4   BANK5   BANK6   BANK7   BANK8   BANK9  BANK10  BANK11  BANK12  BANK13  BANK14
      Params:         0       7       0       0       0       0       0       0       0       0       0       0       0       0       0       0
      Locals:         0       0       0       0       0       0       0       0       0       0       0       0       0       0       0       0
      Temps:          0       0       0       0       0       0       0       0       0       0       0       0       0       0       0       0
      Totals:         0       7       0       0       0       0       0       0       0       0       0       0       0       0       0       0
Total ram usage:        7 bytes
 Hardware stack levels used:    1
 Hardware stack levels required when called:   16
 This function calls:
		_RTCC_from_caltime
		_print_time
		_ringbuf_put_str
 This function is called by:
		_terminal_time
 This function uses a non-reentrant model


 *************** function _print_time *****************
 Defined at:
		line 68 in file "../My_library/My_terminal.c"
 Parameters:    Size  Location     Type
  tx              2   74[BANK0 ] PTR struct ringbuf
		 -> usb_tx(8), 
 Auto vars:     Size  Location     Type
  str            30   76[BANK0 ] unsigned char [30]
 Return value:  Size  Location     Type
		None               void
 Registers used:
		wreg, fsr1l, fsr1h, fsr2l, fsr2h, status,2, status,0, tblptrl, tblptrh, tblptru, prodl, prodh, cstack
 Tracked objects:
		On entry : 
		On exit  : 
		Unchanged: 
 Data sizes:     COMRAM   BANK0   BANK1   BANK2   BANK3   BANK4   BANK5   BANK6   BANK7   BANK8   BANK9  BANK10  BANK11  BANK12  BANK13  BANK14
      Params:         0       2       0       0       0       0       0       0       0       0       0       0       0       0       0       0
      Locals:         0      30       0       0       0       0       0       0       0       0       0       0       0       0       0       0
      Temps:          0       0       0       0       0       0       0       0       0       0       0       0       0       0       0       0
      Totals:         0      32       0       0       0       0       0       0       0       0       0       0       0       0       0       0
Total ram usage:       32 bytes
 Hardware stack levels used:    1
 Hardware stack levels required when called:   15
 This function calls:
		_RTCC_from_RTCC
		_ringbuf_put_str
		_sprintf
 This function is called by:
		_terminal_at_hand
		_terminal_time
 This function uses a non-reentrant model


 *************** function _RTCC_from_caltime *****************
 Defined at:
		line 205 in file "../My_library/My_RTCC.c"
 Parameters:    Size  Location     Type
  tm              2   47[BANK0 ] PTR struct .
		 -> now(14), 
 Auto vars:     Size  Location     Type
		None
 Return value:  Size  Location     Type
		None               void
 Registers used:
		wreg, fsr2l, fsr2h, status,2, status,0, prodl, prodh, cstack
 Tracked objects:
		On entry : 
		On exit  : 
		Unchanged: 
 Data sizes:     COMRAM   BANK0   BANK1   BANK2   BANK3   BANK4   BANK5   BANK6   BANK7   BANK8   BANK9  BANK10  BANK11  BANK12  BANK13  BANK14
      Params:         0       2       0       0       0       0       0       0       0       0       0       0       0       0       0       0
      Locals:         0       0       0       0       0       0       0       0       0       0       0       0       0       0       0       0
      Temps:          0       0       0       0       0       0       0       0       0       0       0       0       0       0       0       0
      Totals:         0       2       0       0       0       0       0       0       0       0       0       0       0       0       0       0
Total ram usage:        2 bytes
 Hardware stack levels used:    1
 Hardware stack levels required when called:   14
 This function calls:
		_caltime_to_RTCC
		_caltime_to_epoch
		_epoch_to_caltime
 This function is called by:
		_terminal_at_hand
 This function uses a non-reentrant model


 *************** function _strcmp *****************
 Defined at:
		line 33 in file "C:\Program Files (x86)\Microchip\xc8\v1.35\sources\common\strcmp.c"
 Parameters:    Size  Location     Type
  s1              2    0[BANK0 ] PTR const unsigned char 
		 -> terminal_task@op1(25), terminal_task@op0(25), 
  s2              2    2[BANK0 ] PTR const unsigned char 
		 -> STR_117(7), STR_116(2), STR_115(7), STR_114(2), 
		 -> STR_113(5), STR_112(2), STR_111(4), STR_110(2), 
		 -> STR_109(6), STR_108(2), STR_107(5), STR_106(2), 
		 -> STR_105(12), STR_104(3), STR_103(2), STR_102(11), 
		 -> STR_25(2), STR_24(6), STR_21(5), STR_20(11), 
		 -> STR_19(6), STR_18(1), STR_17(12), STR_16(3), 
		 -> STR_15(9), STR_14(9), STR_12(2), STR_11(5), 
 Auto vars:     Size  Location     Type
  r               1    6[BANK0 ] char 
 Return value:  Size  Location     Type
                  2    0[BANK0 ] int 
 Registers used:
		wreg, fsr2l, fsr2h, status,2, status,0, tblptrl, tblptrh, tblptru
 Tracked objects:
		On entry : 
		On exit  : 
		Unchanged: 
 Data sizes:     COMRAM   BANK0   BANK1   BANK2   BANK3   BANK4   BANK5   BANK6   BANK7   BANK8   BANK9  BANK10  BANK11  BANK12  BANK13  BANK14
      Params:         0       4       0       0       0       0       0       0       0       0       0       0       0       0       0       0
      Locals:         0       1       0       0       0       0       0       0       0       0       0       0       0       0       0       0
      Temps:          0       2       0       0       0       0       0       0       0       0       0       0       0       0       0       0
      Totals:         0       7       0       0       0       0       0       0       0       0       0       0       0       0       0       0
Total ram usage:        7 bytes
 Hardware stack levels used:    1
 Hardware stack levels required when called:   11
 This function calls:
		Nothing
 This function is called by:
		_terminal_operation
		_terminal_time
 This function uses a non-reentrant model


 *************** function _atoi *****************
 Defined at:
		line 5 in file "C:\Program Files (x86)\Microchip\xc8\v1.35\sources\common\atoi.c"
 Parameters:    Size  Location     Type
  s               2   28[BANK0 ] PTR const unsigned char 
		 -> terminal_task@op2(25), 
 Auto vars:     Size  Location     Type
  a               2   33[BANK0 ] int 
  sign            1   32[BANK0 ] unsigned char 
 Return value:  Size  Location     Type
                  2   28[BANK0 ] int 
 Registers used:
		wreg, fsr2l, fsr2h, status,2, status,0, prodl, prodh, cstack
 Tracked objects:
		On entry : 
		On exit  : 
		Unchanged: 
 Data sizes:     COMRAM   BANK0   BANK1   BANK2   BANK3   BANK4   BANK5   BANK6   BANK7   BANK8   BANK9  BANK10  BANK11  BANK12  BANK13  BANK14
      Params:         0       2       0       0       0       0       0       0       0       0       0       0       0       0       0       0
      Locals:         0       3       0       0       0       0       0       0       0       0       0       0       0       0       0       0
      Temps:          0       2       0       0       0       0       0       0       0       0       0       0       0       0       0       0
      Totals:         0       7       0       0       0       0       0       0       0       0       0       0       0       0       0       0
Total ram usage:        7 bytes
 Hardware stack levels used:    1
 Hardware stack levels required when called:   12
 This function calls:
		___wmul
		_isdigit
 This function is called by:
		_terminal_operation
		_terminal_time
 This function uses a non-reentrant model


 *************** function _bootload *****************
 Defined at:
		line 191 in file "ChargeStation_task.c"
 Parameters:    Size  Location     Type
		None
 Auto vars:     Size  Location     Type
		None
 Return value:  Size  Location     Type
		None               void
 Registers used:
		wreg, fsr1l, fsr1h, fsr2l, fsr2h, status,2, status,0, tblptrl, tblptrh, tblptru, cstack
 Tracked objects:
		On entry : 
		On exit  : 
		Unchanged: 
 Data sizes:     COMRAM   BANK0   BANK1   BANK2   BANK3   BANK4   BANK5   BANK6   BANK7   BANK8   BANK9  BANK10  BANK11  BANK12  BANK13  BANK14
      Params:         0       0       0       0       0       0       0       0       0       0       0       0       0       0       0       0
      Locals:         0       0       0       0       0       0       0       0       0       0       0       0       0       0       0       0
      Temps:          0       0       0       0       0       0       0       0       0       0       0       0       0       0       0       0
      Totals:         0       0       0       0       0       0       0       0       0       0       0       0       0       0       0       0
Total ram usage:        0 bytes
 Hardware stack levels used:    1
 Hardware stack levels required when called:   15
 This function calls:
		_ST7032_clear
		_ST7032_cursor
		_ST7032_puts
 This function is called by:
		_terminal_operation
		_main
 This function uses a non-reentrant model


 *************** function _ringbuf_put_num *****************
 Defined at:
		line 28 in file "../My_library/My_ringbuf.c"
 Parameters:    Size  Location     Type
  rb              2   35[BANK0 ] PTR struct ringbuf
		 -> usb_tx(8), 
  value           2   37[BANK0 ] const unsigned int 
  digits          1   39[BANK0 ] unsigned char 
 Auto vars:     Size  Location     Type
  i               1   40[BANK0 ] unsigned char 
  temp            2   41[BANK0 ] unsigned int 
 Return value:  Size  Location     Type
		None               void
 Registers used:
		wreg, fsr1l, fsr1h, fsr2l, fsr2h, status,2, status,0, cstack
 Tracked objects:
		On entry : 
		On exit  : 
		Unchanged: 
 Data sizes:     COMRAM   BANK0   BANK1   BANK2   BANK3   BANK4   BANK5   BANK6   BANK7   BANK8   BANK9  BANK10  BANK11  BANK12  BANK13  BANK14
      Params:         0       5       0       0       0       0       0       0       0       0       0       0       0       0       0       0
      Locals:         0       3       0       0       0       0       0       0       0       0       0       0       0       0       0       0
      Temps:          0       0       0       0       0       0       0       0       0       0       0       0       0       0       0       0
      Totals:         0       8       0       0       0       0       0       0       0       0       0       0       0       0       0       0
Total ram usage:        8 bytes
 Hardware stack levels used:    1
 Hardware stack levels required when called:   13
 This function calls:
		___lwdiv
		___lwmod
		_ringbuf_put
 This function is called by:
		_terminal_task
 This function uses a non-reentrant model


 *************** function _ringbuf_delete *****************
 Defined at:
		line 66 in file "../My_library/My_ringbuf.c"
 Parameters:    Size  Location     Type
  rb              2    0[BANK0 ] PTR struct ringbuf
		 -> terminal_task@command(8), 
 Auto vars:     Size  Location     Type
		None
 Return value:  Size  Location     Type
		None               void
 Registers used:
		wreg, fsr1l, fsr1h, fsr2l, fsr2h, status,2, status,0
 Tracked objects:
		On entry : 
		On exit  : 
		Unchanged: 
 Data sizes:     COMRAM   BANK0   BANK1   BANK2   BANK3   BANK4   BANK5   BANK6   BANK7   BANK8   BANK9  BANK10  BANK11  BANK12  BANK13  BANK14
      Params:         0       2       0       0       0       0       0       0       0       0       0       0       0       0       0       0
      Locals:         0       0       0       0       0       0       0       0       0       0       0       0       0       0       0       0
      Temps:          0       0       0       0       0       0       0       0       0       0       0       0       0       0       0       0
      Totals:         0       2       0       0       0       0       0       0       0       0       0       0       0       0       0       0
Total ram usage:        2 bytes
 Hardware stack levels used:    1
 Hardware stack levels required when called:   11
 This function calls:
		Nothing
 This function is called by:
		_terminal_task
 This function uses a non-reentrant model


 *************** function _ringbuf_backspace *****************
 Defined at:
		line 59 in file "../My_library/My_ringbuf.c"
 Parameters:    Size  Location     Type
  rb              2    8[BANK0 ] PTR struct ringbuf
		 -> terminal_task@command(8), 
 Auto vars:     Size  Location     Type
		None
 Return value:  Size  Location     Type
		None               void
 Registers used:
		wreg, fsr1l, fsr1h, fsr2l, fsr2h, status,2, status,0, cstack
 Tracked objects:
		On entry : 
		On exit  : 
		Unchanged: 
 Data sizes:     COMRAM   BANK0   BANK1   BANK2   BANK3   BANK4   BANK5   BANK6   BANK7   BANK8   BANK9  BANK10  BANK11  BANK12  BANK13  BANK14
      Params:         0       2       0       0       0       0       0       0       0       0       0       0       0       0       0       0
      Locals:         0       0       0       0       0       0       0       0       0       0       0       0       0       0       0       0
      Temps:          0       4       0       0       0       0       0       0       0       0       0       0       0       0       0       0
      Totals:         0       6       0       0       0       0       0       0       0       0       0       0       0       0       0       0
Total ram usage:        6 bytes
 Hardware stack levels used:    1
 Hardware stack levels required when called:   12
 This function calls:
		_ringbuf_num
 This function is called by:
		_terminal_task
 This function uses a non-reentrant model


 *************** function _software_init *****************
 Defined at:
		line 108 in file "main.c"
 Parameters:    Size  Location     Type
		None
 Auto vars:     Size  Location     Type
  i               1   36[BANK0 ] unsigned char 
 Return value:  Size  Location     Type
		None               void
 Registers used:
		wreg, fsr1l, fsr1h, fsr2l, fsr2h, status,2, status,0, tblptrl, tblptrh, tblptru, prodl, prodh, cstack
 Tracked objects:
		On entry : 
		On exit  : 
		Unchanged: 
 Data sizes:     COMRAM   BANK0   BANK1   BANK2   BANK3   BANK4   BANK5   BANK6   BANK7   BANK8   BANK9  BANK10  BANK11  BANK12  BANK13  BANK14
      Params:         0       0       0       0       0       0       0       0       0       0       0       0       0       0       0       0
      Locals:         0       1       0       0       0       0       0       0       0       0       0       0       0       0       0       0
      Temps:          0       0       0       0       0       0       0       0       0       0       0       0       0       0       0       0
      Totals:         0       1       0       0       0       0       0       0       0       0       0       0       0       0       0       0
Total ram usage:        1 bytes
 Hardware stack levels used:    1
 Hardware stack levels required when called:   14
 This function calls:
		_LED_output
		_OUT
		_ctmu_set_ratio
		_display
 This function is called by:
		_main
 This function uses a non-reentrant model


 *************** function _ctmu_set_ratio *****************
 Defined at:
		line 14 in file "ctmu.c"
 Parameters:    Size  Location     Type
  percentage      1    wreg     unsigned char 
 Auto vars:     Size  Location     Type
  percentage      1   35[BANK0 ] unsigned char 
 Return value:  Size  Location     Type
		None               void
 Registers used:
		wreg, status,2, status,0, prodl, prodh, cstack
 Tracked objects:
		On entry : 
		On exit  : 
		Unchanged: 
 Data sizes:     COMRAM   BANK0   BANK1   BANK2   BANK3   BANK4   BANK5   BANK6   BANK7   BANK8   BANK9  BANK10  BANK11  BANK12  BANK13  BANK14
      Params:         0       0       0       0       0       0       0       0       0       0       0       0       0       0       0       0
      Locals:         0       1       0       0       0       0       0       0       0       0       0       0       0       0       0       0
      Temps:          0       0       0       0       0       0       0       0       0       0       0       0       0       0       0       0
      Totals:         0       1       0       0       0       0       0       0       0       0       0       0       0       0       0       0
Total ram usage:        1 bytes
 Hardware stack levels used:    1
 Hardware stack levels required when called:   13
 This function calls:
		_CTMU_read
		___lwdiv
		___wmul
 This function is called by:
		_terminal_operation
		_software_init
 This function uses a non-reentrant model


 *************** function _sleep_task *****************
 Defined at:
		line 164 in file "ChargeStation_task.c"
 Parameters:    Size  Location     Type
		None
 Auto vars:     Size  Location     Type
  i               1   21[BANK0 ] unsigned char 
 Return value:  Size  Location     Type
		None               void
 Registers used:
		wreg, fsr1l, fsr1h, fsr2l, fsr2h, status,2, status,0, tblptrl, tblptrh, tblptru, prodl, prodh, cstack
 Tracked objects:
		On entry : 
		On exit  : 
		Unchanged: 
 Data sizes:     COMRAM   BANK0   BANK1   BANK2   BANK3   BANK4   BANK5   BANK6   BANK7   BANK8   BANK9  BANK10  BANK11  BANK12  BANK13  BANK14
      Params:         0       0       0       0       0       0       0       0       0       0       0       0       0       0       0       0
      Locals:         0       1       0       0       0       0       0       0       0       0       0       0       0       0       0       0
      Temps:          0       0       0       0       0       0       0       0       0       0       0       0       0       0       0       0
      Totals:         0       1       0       0       0       0       0       0       0       0       0       0       0       0       0       0
Total ram usage:        1 bytes
 Hardware stack levels used:    1
 Hardware stack levels required when called:   15
 This function calls:
		_ADC
		_LED_output
		_OUT
		_ST7032_clear
		_ST7032_cursor
		_ST7032_puts
		_display
 This function is called by:
		_main
 This function uses a non-reentrant model


 *************** function _normal_task *****************
 Defined at:
		line 121 in file "ChargeStation_task.c"
 Parameters:    Size  Location     Type
		None
 Auto vars:     Size  Location     Type
		None
 Return value:  Size  Location     Type
		None               void
 Registers used:
		wreg, fsr1l, fsr1h, fsr2l, fsr2h, status,2, status,0, tblptrl, tblptrh, tblptru, prodl, prodh, cstack
 Tracked objects:
		On entry : 
		On exit  : 
		Unchanged: 
 Data sizes:     COMRAM   BANK0   BANK1   BANK2   BANK3   BANK4   BANK5   BANK6   BANK7   BANK8   BANK9  BANK10  BANK11  BANK12  BANK13  BANK14
      Params:         0       0       0       0       0       0       0       0       0       0       0       0       0       0       0       0
      Locals:         0       0       0       0       0       0       0       0       0       0       0       0       0       0       0       0
      Temps:          0       0       0       0       0       0       0       0       0       0       0       0       0       0       0       0
      Totals:         0       0       0       0       0       0       0       0       0       0       0       0       0       0       0       0
Total ram usage:        0 bytes
 Hardware stack levels used:    1
 Hardware stack levels required when called:   18
 This function calls:
		_Auto_cut
		_data_out
		_display
		_display_LCD
		_integrate_current
		_integrate_time
		_port_button_task
		_settings_task
 This function is called by:
		_main
 This function uses a non-reentrant model


 *************** function _settings_task *****************
 Defined at:
		line 193 in file "settings.c"
 Parameters:    Size  Location     Type
		None
 Auto vars:     Size  Location     Type
  item_change_    1   57[BANK0 ] unsigned char 
 Return value:  Size  Location     Type
		None               void
 Registers used:
		wreg, fsr1l, fsr1h, fsr2l, fsr2h, status,2, status,0, tblptrl, tblptrh, tblptru, prodl, prodh, cstack
 Tracked objects:
		On entry : 
		On exit  : 
		Unchanged: 
 Data sizes:     COMRAM   BANK0   BANK1   BANK2   BANK3   BANK4   BANK5   BANK6   BANK7   BANK8   BANK9  BANK10  BANK11  BANK12  BANK13  BANK14
      Params:         0       0       0       0       0       0       0       0       0       0       0       0       0       0       0       0
      Locals:         0       1       0       0       0       0       0       0       0       0       0       0       0       0       0       0
      Temps:          0       0       0       0       0       0       0       0       0       0       0       0       0       0       0       0
      Totals:         0       1       0       0       0       0       0       0       0       0       0       0       0       0       0       0
Total ram usage:        1 bytes
 Hardware stack levels used:    1
 Hardware stack levels required when called:   17
 This function calls:
		_display
		_settings_adjust_time
		_settings_auto_stop
		_settings_integrating_reset
		_settings_led_indicator
 This function is called by:
		_normal_task
 This function uses a non-reentrant model


 *************** function _settings_led_indicator *****************
 Defined at:
		line 96 in file "settings.c"
 Parameters:    Size  Location     Type
		None
 Auto vars:     Size  Location     Type
  i               1   50[BANK0 ] unsigned char 
  str            20   27[BANK0 ] unsigned char [20]
  strp            1   48[BANK0 ] PTR unsigned char 
		 -> settings_led_indicator@str_1327(20), 
  i               1   49[BANK0 ] unsigned char 
  j               1   51[BANK0 ] unsigned char 
  str            20    7[BANK0 ] unsigned char [20]
  strp            1   47[BANK0 ] PTR unsigned char 
		 -> settings_led_indicator@str(20), 
 Return value:  Size  Location     Type
                  1    wreg      unsigned char 
 Registers used:
		wreg, fsr1l, fsr1h, fsr2l, fsr2h, status,2, status,0, tblptrl, tblptrh, tblptru, prodl, prodh, cstack
 Tracked objects:
		On entry : 
		On exit  : 
		Unchanged: 
 Data sizes:     COMRAM   BANK0   BANK1   BANK2   BANK3   BANK4   BANK5   BANK6   BANK7   BANK8   BANK9  BANK10  BANK11  BANK12  BANK13  BANK14
      Params:         0       0       0       0       0       0       0       0       0       0       0       0       0       0       0       0
      Locals:         0      45       0       0       0       0       0       0       0       0       0       0       0       0       0       0
      Temps:          0       1       0       0       0       0       0       0       0       0       0       0       0       0       0       0
      Totals:         0      46       0       0       0       0       0       0       0       0       0       0       0       0       0       0
Total ram usage:       46 bytes
 Hardware stack levels used:    1
 Hardware stack levels required when called:   12
 This function calls:
		_LED_output
		_display
		_strcpy
 This function is called by:
		_settings_task
 This function uses a non-reentrant model


 *************** function _settings_integrating_reset *****************
 Defined at:
		line 144 in file "settings.c"
 Parameters:    Size  Location     Type
		None
 Auto vars:     Size  Location     Type
  i               1   53[BANK0 ] unsigned char 
  str            20   30[BANK0 ] unsigned char [20]
  strp            1   51[BANK0 ] PTR unsigned char 
		 -> settings_integrating_reset@str_1344(20), 
  i               1   52[BANK0 ] unsigned char 
  j               1   54[BANK0 ] unsigned char 
  str            20   10[BANK0 ] unsigned char [20]
  strp            1   50[BANK0 ] PTR unsigned char 
		 -> settings_integrating_reset@str(20), 
 Return value:  Size  Location     Type
                  1    wreg      unsigned char 
 Registers used:
		wreg, fsr1l, fsr1h, fsr2l, fsr2h, status,2, status,0, tblptrl, tblptrh, tblptru, prodl, prodh, cstack
 Tracked objects:
		On entry : 
		On exit  : 
		Unchanged: 
 Data sizes:     COMRAM   BANK0   BANK1   BANK2   BANK3   BANK4   BANK5   BANK6   BANK7   BANK8   BANK9  BANK10  BANK11  BANK12  BANK13  BANK14
      Params:         0       0       0       0       0       0       0       0       0       0       0       0       0       0       0       0
      Locals:         0      45       0       0       0       0       0       0       0       0       0       0       0       0       0       0
      Temps:          0       4       0       0       0       0       0       0       0       0       0       0       0       0       0       0
      Totals:         0      49       0       0       0       0       0       0       0       0       0       0       0       0       0       0
Total ram usage:       49 bytes
 Hardware stack levels used:    1
 Hardware stack levels required when called:   12
 This function calls:
		_display
		_strcpy
 This function is called by:
		_settings_task
 This function uses a non-reentrant model


 *************** function _settings_auto_stop *****************
 Defined at:
		line 49 in file "settings.c"
 Parameters:    Size  Location     Type
		None
 Auto vars:     Size  Location     Type
  i               1   50[BANK0 ] unsigned char 
  str            20   27[BANK0 ] unsigned char [20]
  strp            1   48[BANK0 ] PTR unsigned char 
		 -> settings_auto_stop@str_1310(20), 
  i               1   49[BANK0 ] unsigned char 
  j               1   51[BANK0 ] unsigned char 
  str            20    7[BANK0 ] unsigned char [20]
  strp            1   47[BANK0 ] PTR unsigned char 
		 -> settings_auto_stop@str(20), 
 Return value:  Size  Location     Type
                  1    wreg      unsigned char 
 Registers used:
		wreg, fsr1l, fsr1h, fsr2l, fsr2h, status,2, status,0, tblptrl, tblptrh, tblptru, prodl, prodh, cstack
 Tracked objects:
		On entry : 
		On exit  : 
		Unchanged: 
 Data sizes:     COMRAM   BANK0   BANK1   BANK2   BANK3   BANK4   BANK5   BANK6   BANK7   BANK8   BANK9  BANK10  BANK11  BANK12  BANK13  BANK14
      Params:         0       0       0       0       0       0       0       0       0       0       0       0       0       0       0       0
      Locals:         0      45       0       0       0       0       0       0       0       0       0       0       0       0       0       0
      Temps:          0       1       0       0       0       0       0       0       0       0       0       0       0       0       0       0
      Totals:         0      46       0       0       0       0       0       0       0       0       0       0       0       0       0       0
Total ram usage:       46 bytes
 Hardware stack levels used:    1
 Hardware stack levels required when called:   12
 This function calls:
		_display
		_strcpy
 This function is called by:
		_settings_task
 This function uses a non-reentrant model


 *************** function _settings_adjust_time *****************
 Defined at:
		line 13 in file "settings.c"
 Parameters:    Size  Location     Type
		None
 Auto vars:     Size  Location     Type
		None
 Return value:  Size  Location     Type
                  1    wreg      unsigned char 
 Registers used:
		wreg, fsr1l, fsr1h, fsr2l, fsr2h, status,2, status,0, tblptrl, tblptrh, tblptru, prodl, prodh, cstack
 Tracked objects:
		On entry : 
		On exit  : 
		Unchanged: 
 Data sizes:     COMRAM   BANK0   BANK1   BANK2   BANK3   BANK4   BANK5   BANK6   BANK7   BANK8   BANK9  BANK10  BANK11  BANK12  BANK13  BANK14
      Params:         0       0       0       0       0       0       0       0       0       0       0       0       0       0       0       0
      Locals:         0       0       0       0       0       0       0       0       0       0       0       0       0       0       0       0
      Temps:          0       0       0       0       0       0       0       0       0       0       0       0       0       0       0       0
      Totals:         0       0       0       0       0       0       0       0       0       0       0       0       0       0       0       0
Total ram usage:        0 bytes
 Hardware stack levels used:    1
 Hardware stack levels required when called:   16
 This function calls:
		_RTCC_adjust_time_cursor
		_RTCC_adjust_time_dec
		_RTCC_adjust_time_inc
		_RTCC_adjust_time_toggle
		_display
 This function is called by:
		_settings_task
 This function uses a non-reentrant model


 *************** function _RTCC_adjust_time_toggle *****************
 Defined at:
		line 269 in file "../My_library/My_RTCC.c"
 Parameters:    Size  Location     Type
  tm              2    0[BANK0 ] PTR struct .
		 -> now(14), 
 Auto vars:     Size  Location     Type
		None
 Return value:  Size  Location     Type
		None               void
 Registers used:
		wreg, fsr2l, fsr2h, status,2, status,0
 Tracked objects:
		On entry : 
		On exit  : 
		Unchanged: 
 Data sizes:     COMRAM   BANK0   BANK1   BANK2   BANK3   BANK4   BANK5   BANK6   BANK7   BANK8   BANK9  BANK10  BANK11  BANK12  BANK13  BANK14
      Params:         0       2       0       0       0       0       0       0       0       0       0       0       0       0       0       0
      Locals:         0       0       0       0       0       0       0       0       0       0       0       0       0       0       0       0
      Temps:          0       0       0       0       0       0       0       0       0       0       0       0       0       0       0       0
      Totals:         0       2       0       0       0       0       0       0       0       0       0       0       0       0       0       0
Total ram usage:        2 bytes
 Hardware stack levels used:    1
 Hardware stack levels required when called:   11
 This function calls:
		Nothing
 This function is called by:
		_settings_adjust_time
 This function uses a non-reentrant model


 *************** function _RTCC_adjust_time_inc *****************
 Defined at:
		line 287 in file "../My_library/My_RTCC.c"
 Parameters:    Size  Location     Type
  tm              2   49[BANK0 ] PTR struct .
		 -> now(14), 
 Auto vars:     Size  Location     Type
  i               1   55[BANK0 ] unsigned char 
  i               1   56[BANK0 ] unsigned char 
 Return value:  Size  Location     Type
		None               void
 Registers used:
		wreg, fsr2l, fsr2h, status,2, status,0, prodl, prodh, cstack
 Tracked objects:
		On entry : 
		On exit  : 
		Unchanged: 
 Data sizes:     COMRAM   BANK0   BANK1   BANK2   BANK3   BANK4   BANK5   BANK6   BANK7   BANK8   BANK9  BANK10  BANK11  BANK12  BANK13  BANK14
      Params:         0       2       0       0       0       0       0       0       0       0       0       0       0       0       0       0
      Locals:         0       2       0       0       0       0       0       0       0       0       0       0       0       0       0       0
      Temps:          0       4       0       0       0       0       0       0       0       0       0       0       0       0       0       0
      Totals:         0       8       0       0       0       0       0       0       0       0       0       0       0       0       0       0
Total ram usage:        8 bytes
 Hardware stack levels used:    1
 Hardware stack levels required when called:   15
 This function calls:
		_RTCC_from_RTCC
		_RTCC_from_epoch
		___lmul
		_month_length
 This function is called by:
		_settings_adjust_time
 This function uses a non-reentrant model


 *************** function _RTCC_adjust_time_dec *****************
 Defined at:
		line 308 in file "../My_library/My_RTCC.c"
 Parameters:    Size  Location     Type
  tm              2   49[BANK0 ] PTR struct .
		 -> now(14), 
 Auto vars:     Size  Location     Type
  i               1   55[BANK0 ] unsigned char 
  i               1   56[BANK0 ] unsigned char 
 Return value:  Size  Location     Type
		None               void
 Registers used:
		wreg, fsr2l, fsr2h, status,2, status,0, prodl, prodh, cstack
 Tracked objects:
		On entry : 
		On exit  : 
		Unchanged: 
 Data sizes:     COMRAM   BANK0   BANK1   BANK2   BANK3   BANK4   BANK5   BANK6   BANK7   BANK8   BANK9  BANK10  BANK11  BANK12  BANK13  BANK14
      Params:         0       2       0       0       0       0       0       0       0       0       0       0       0       0       0       0
      Locals:         0       2       0       0       0       0       0       0       0       0       0       0       0       0       0       0
      Temps:          0       4       0       0       0       0       0       0       0       0       0       0       0       0       0       0
      Totals:         0       8       0       0       0       0       0       0       0       0       0       0       0       0       0       0
Total ram usage:        8 bytes
 Hardware stack levels used:    1
 Hardware stack levels required when called:   15
 This function calls:
		_RTCC_from_RTCC
		_RTCC_from_epoch
		___lmul
		_month_length
 This function is called by:
		_settings_adjust_time
 This function uses a non-reentrant model


 *************** function _RTCC_adjust_time_cursor *****************
 Defined at:
		line 277 in file "../My_library/My_RTCC.c"
 Parameters:    Size  Location     Type
  tm              2    0[BANK0 ] PTR struct .
		 -> now(14), 
 Auto vars:     Size  Location     Type
		None
 Return value:  Size  Location     Type
		None               void
 Registers used:
		wreg, fsr2l, fsr2h, status,2, status,0
 Tracked objects:
		On entry : 
		On exit  : 
		Unchanged: 
 Data sizes:     COMRAM   BANK0   BANK1   BANK2   BANK3   BANK4   BANK5   BANK6   BANK7   BANK8   BANK9  BANK10  BANK11  BANK12  BANK13  BANK14
      Params:         0       2       0       0       0       0       0       0       0       0       0       0       0       0       0       0
      Locals:         0       0       0       0       0       0       0       0       0       0       0       0       0       0       0       0
      Temps:          0       0       0       0       0       0       0       0       0       0       0       0       0       0       0       0
      Totals:         0       2       0       0       0       0       0       0       0       0       0       0       0       0       0       0
Total ram usage:        2 bytes
 Hardware stack levels used:    1
 Hardware stack levels required when called:   11
 This function calls:
		Nothing
 This function is called by:
		_settings_adjust_time
 This function uses a non-reentrant model


 *************** function _port_button_task *****************
 Defined at:
		line 82 in file "ChargeStation_task.c"
 Parameters:    Size  Location     Type
		None
 Auto vars:     Size  Location     Type
  i               1    6[BANK0 ] unsigned char 
 Return value:  Size  Location     Type
		None               void
 Registers used:
		wreg, fsr1l, fsr1h, fsr2l, fsr2h, status,2, status,0, tblptrl, tblptrh, tblptru, prodl, prodh, cstack
 Tracked objects:
		On entry : 
		On exit  : 
		Unchanged: 
 Data sizes:     COMRAM   BANK0   BANK1   BANK2   BANK3   BANK4   BANK5   BANK6   BANK7   BANK8   BANK9  BANK10  BANK11  BANK12  BANK13  BANK14
      Params:         0       0       0       0       0       0       0       0       0       0       0       0       0       0       0       0
      Locals:         0       1       0       0       0       0       0       0       0       0       0       0       0       0       0       0
      Temps:          0       0       0       0       0       0       0       0       0       0       0       0       0       0       0       0
      Totals:         0       1       0       0       0       0       0       0       0       0       0       0       0       0       0       0
Total ram usage:        1 bytes
 Hardware stack levels used:    1
 Hardware stack levels required when called:   12
 This function calls:
		_LED_output
		_OUT
		_display
 This function is called by:
		_normal_task
 This function uses a non-reentrant model


 *************** function _display *****************
 Defined at:
		line 15 in file "LCD_print.c"
 Parameters:    Size  Location     Type
  item            1    wreg     enum E8527
  str0            2    0[BANK0 ] PTR const unsigned char 
		 -> STR_76(1), STR_74(9), STR_72(9), STR_70(9), 
		 -> STR_68(9), STR_66(9), STR_64(9), STR_62(1), 
		 -> STR_61(1), STR_58(17), STR_54(1), STR_53(1), 
		 -> STR_50(17), STR_46(1), STR_45(1), STR_42(17), 
		 -> STR_38(1), STR_36(1), STR_34(15), STR_7(15), 
		 -> STR_3(1), STR_1(1), 
  str1            2    2[BANK0 ] PTR const unsigned char 
		 -> STR_77(1), STR_75(15), STR_73(16), STR_71(17), 
		 -> STR_69(16), STR_67(17), STR_65(17), STR_63(1), 
		 -> settings_integrating_reset@str_1344(20), settings_integrating_reset@str(20), STR_55(1), settings_led_indicator@str_1327(20), 
		 -> settings_led_indicator@str(20), STR_47(1), settings_auto_stop@str_1310(20), settings_auto_stop@str(20), 
		 -> STR_39(1), STR_37(1), STR_35(13), STR_8(14), 
		 -> STR_4(1), STR_2(1), 
 Auto vars:     Size  Location     Type
  item            1    4[BANK0 ] enum E8527
  i               1    5[BANK0 ] unsigned char 
 Return value:  Size  Location     Type
		None               void
 Registers used:
		wreg, fsr1l, fsr1h, fsr2l, fsr2h, status,2, status,0, tblptrl, tblptrh, tblptru
 Tracked objects:
		On entry : 
		On exit  : 
		Unchanged: 
 Data sizes:     COMRAM   BANK0   BANK1   BANK2   BANK3   BANK4   BANK5   BANK6   BANK7   BANK8   BANK9  BANK10  BANK11  BANK12  BANK13  BANK14
      Params:         0       4       0       0       0       0       0       0       0       0       0       0       0       0       0       0
      Locals:         0       2       0       0       0       0       0       0       0       0       0       0       0       0       0       0
      Temps:          0       0       0       0       0       0       0       0       0       0       0       0       0       0       0       0
      Totals:         0       6       0       0       0       0       0       0       0       0       0       0       0       0       0       0
Total ram usage:        6 bytes
 Hardware stack levels used:    1
 Hardware stack levels required when called:   11
 This function calls:
		Nothing
 This function is called by:
		_port_button_task
		_normal_task
		_sleep_task
		_software_init
		_settings_adjust_time
		_settings_auto_stop
		_settings_led_indicator
		_settings_integrating_reset
		_settings_task
 This function uses a non-reentrant model


 *************** function _LED_output *****************
 Defined at:
		line 36 in file "io.c"
 Parameters:    Size  Location     Type
  b               1    wreg     unsigned char 
  value           1    0[BANK0 ] unsigned char 
 Auto vars:     Size  Location     Type
  b               1    1[BANK0 ] unsigned char 
 Return value:  Size  Location     Type
		None               void
 Registers used:
		wreg, fsr2l, fsr2h, status,2, status,0, prodl, prodh
 Tracked objects:
		On entry : 
		On exit  : 
		Unchanged: 
 Data sizes:     COMRAM   BANK0   BANK1   BANK2   BANK3   BANK4   BANK5   BANK6   BANK7   BANK8   BANK9  BANK10  BANK11  BANK12  BANK13  BANK14
      Params:         0       1       0       0       0       0       0       0       0       0       0       0       0       0       0       0
      Locals:         0       1       0       0       0       0       0       0       0       0       0       0       0       0       0       0
      Temps:          0       0       0       0       0       0       0       0       0       0       0       0       0       0       0       0
      Totals:         0       2       0       0       0       0       0       0       0       0       0       0       0       0       0       0
Total ram usage:        2 bytes
 Hardware stack levels used:    1
 Hardware stack levels required when called:   11
 This function calls:
		Nothing
 This function is called by:
		_port_button_task
		_sleep_task
		_software_init
		_settings_led_indicator
 This function uses a non-reentrant model


 *************** function _integrate_time *****************
 Defined at:
		line 76 in file "ChargeStation_task.c"
 Parameters:    Size  Location     Type
		None
 Auto vars:     Size  Location     Type
  i               1    2[BANK0 ] unsigned char 
 Return value:  Size  Location     Type
		None               void
 Registers used:
		wreg, fsr2l, fsr2h, status,2, status,0, prodl, prodh
 Tracked objects:
		On entry : 
		On exit  : 
		Unchanged: 
 Data sizes:     COMRAM   BANK0   BANK1   BANK2   BANK3   BANK4   BANK5   BANK6   BANK7   BANK8   BANK9  BANK10  BANK11  BANK12  BANK13  BANK14
      Params:         0       0       0       0       0       0       0       0       0       0       0       0       0       0       0       0
      Locals:         0       1       0       0       0       0       0       0       0       0       0       0       0       0       0       0
      Temps:          0       2       0       0       0       0       0       0       0       0       0       0       0       0       0       0
      Totals:         0       3       0       0       0       0       0       0       0       0       0       0       0       0       0       0
Total ram usage:        3 bytes
 Hardware stack levels used:    1
 Hardware stack levels required when called:   11
 This function calls:
		Nothing
 This function is called by:
		_normal_task
 This function uses a non-reentrant model


 *************** function _integrate_current *****************
 Defined at:
		line 67 in file "ChargeStation_task.c"
 Parameters:    Size  Location     Type
		None
 Auto vars:     Size  Location     Type
  i               1   15[BANK0 ] unsigned char 
 Return value:  Size  Location     Type
		None               void
 Registers used:
		wreg, fsr2l, fsr2h, status,2, status,0, prodl, prodh, cstack
 Tracked objects:
		On entry : 
		On exit  : 
		Unchanged: 
 Data sizes:     COMRAM   BANK0   BANK1   BANK2   BANK3   BANK4   BANK5   BANK6   BANK7   BANK8   BANK9  BANK10  BANK11  BANK12  BANK13  BANK14
      Params:         0       0       0       0       0       0       0       0       0       0       0       0       0       0       0       0
      Locals:         0       1       0       0       0       0       0       0       0       0       0       0       0       0       0       0
      Temps:          0       2       0       0       0       0       0       0       0       0       0       0       0       0       0       0
      Totals:         0       3       0       0       0       0       0       0       0       0       0       0       0       0       0       0
Total ram usage:        3 bytes
 Hardware stack levels used:    1
 Hardware stack levels required when called:   12
 This function calls:
		___lldiv
 This function is called by:
		_normal_task
 This function uses a non-reentrant model


 *************** function _display_LCD *****************
 Defined at:
		line 33 in file "LCD_print.c"
 Parameters:    Size  Location     Type
		None
 Auto vars:     Size  Location     Type
  str            20   40[BANK1 ] unsigned char [20]
  str            40    0[BANK1 ] unsigned char [20][2]
 Return value:  Size  Location     Type
		None               void
 Registers used:
		wreg, fsr1l, fsr1h, fsr2l, fsr2h, status,2, status,0, tblptrl, tblptrh, tblptru, prodl, prodh, cstack
 Tracked objects:
		On entry : 
		On exit  : 
		Unchanged: 
 Data sizes:     COMRAM   BANK0   BANK1   BANK2   BANK3   BANK4   BANK5   BANK6   BANK7   BANK8   BANK9  BANK10  BANK11  BANK12  BANK13  BANK14
      Params:         0       0       0       0       0       0       0       0       0       0       0       0       0       0       0       0
      Locals:         0       0      80       0       0       0       0       0       0       0       0       0       0       0       0       0
      Temps:          0       4       0       0       0       0       0       0       0       0       0       0       0       0       0       0
      Totals:         0       4      80       0       0       0       0       0       0       0       0       0       0       0       0       0
Total ram usage:       84 bytes
 Hardware stack levels used:    1
 Hardware stack levels required when called:   16
 This function calls:
		_ST7032_clear
		_ST7032_cursor
		_ST7032_puts
		___lldiv
		___llmod
		___lwdiv
		___lwmod
		_display_time_1602
		_sprintf
 This function is called by:
		_normal_task
 This function uses a non-reentrant model


 *************** function _display_time_1602 *****************
 Defined at:
		line 244 in file "../My_library/My_RTCC.c"
 Parameters:    Size  Location     Type
  tm              2   82[BANK0 ] PTR struct .
		 -> now(14), 
  line0           2   84[BANK0 ] PTR unsigned char 
		 -> display_LCD@str(40), 
  line1           2   86[BANK0 ] PTR unsigned char 
		 -> display_LCD@str(40), 
 Auto vars:     Size  Location     Type
		None
 Return value:  Size  Location     Type
		None               void
 Registers used:
		wreg, fsr1l, fsr1h, fsr2l, fsr2h, status,2, status,0, tblptrl, tblptrh, tblptru, prodl, prodh, cstack
 Tracked objects:
		On entry : 
		On exit  : 
		Unchanged: 
 Data sizes:     COMRAM   BANK0   BANK1   BANK2   BANK3   BANK4   BANK5   BANK6   BANK7   BANK8   BANK9  BANK10  BANK11  BANK12  BANK13  BANK14
      Params:         0       6       0       0       0       0       0       0       0       0       0       0       0       0       0       0
      Locals:         0       0       0       0       0       0       0       0       0       0       0       0       0       0       0       0
      Temps:          0       0       0       0       0       0       0       0       0       0       0       0       0       0       0       0
      Totals:         0       6       0       0       0       0       0       0       0       0       0       0       0       0       0       0
Total ram usage:        6 bytes
 Hardware stack levels used:    1
 Hardware stack levels required when called:   15
 This function calls:
		_RTCC_from_RTCC
		_display_dec
		_strcat
		_strcpy
 This function is called by:
		_display_LCD
 This function uses a non-reentrant model


 *************** function _strcpy *****************
 Defined at:
		line 8 in file "C:\Program Files (x86)\Microchip\xc8\v1.35\sources\common\strcpy.c"
 Parameters:    Size  Location     Type
  to              2    0[BANK0 ] PTR unsigned char 
		 -> settings_integrating_reset@str_1344(20), settings_integrating_reset@str(20), settings_led_indicator@str_1327(20), settings_led_indicator@str(20), 
		 -> settings_auto_stop@str_1310(20), settings_auto_stop@str(20), display_LCD@str(40), 
  from            2    2[BANK0 ] PTR const unsigned char 
		 -> STR_92(9), STR_87(1), STR_83(1), STR_80(1), 
		 -> STR_60(6), STR_59(6), STR_57(6), STR_56(6), 
		 -> STR_52(6), STR_51(6), STR_49(6), STR_48(6), 
		 -> STR_44(6), STR_43(6), STR_41(6), STR_40(6), 
 Auto vars:     Size  Location     Type
  cp              2    4[BANK0 ] PTR unsigned char 
		 -> settings_integrating_reset@str_1344(20), settings_integrating_reset@str(20), settings_led_indicator@str_1327(20), settings_led_indicator@str(20), 
		 -> settings_auto_stop@str_1310(20), settings_auto_stop@str(20), display_LCD@str(40), 
 Return value:  Size  Location     Type
                  2    0[BANK0 ] PTR unsigned char 
 Registers used:
		wreg, fsr2l, fsr2h, status,2, status,0, tblptrl, tblptrh, tblptru
 Tracked objects:
		On entry : 
		On exit  : 
		Unchanged: 
 Data sizes:     COMRAM   BANK0   BANK1   BANK2   BANK3   BANK4   BANK5   BANK6   BANK7   BANK8   BANK9  BANK10  BANK11  BANK12  BANK13  BANK14
      Params:         0       4       0       0       0       0       0       0       0       0       0       0       0       0       0       0
      Locals:         0       2       0       0       0       0       0       0       0       0       0       0       0       0       0       0
      Temps:          0       0       0       0       0       0       0       0       0       0       0       0       0       0       0       0
      Totals:         0       6       0       0       0       0       0       0       0       0       0       0       0       0       0       0
Total ram usage:        6 bytes
 Hardware stack levels used:    1
 Hardware stack levels required when called:   11
 This function calls:
		Nothing
 This function is called by:
		_settings_auto_stop
		_settings_led_indicator
		_settings_integrating_reset
		_display_time_1602
 This function uses a non-reentrant model


 *************** function _display_dec *****************
 Defined at:
		line 218 in file "../My_library/My_RTCC.c"
 Parameters:    Size  Location     Type
  str             2   74[BANK0 ] PTR unsigned char 
		 -> display_LCD@str(40), 
  dec             1   76[BANK0 ] unsigned char 
  edit            1   77[BANK0 ] unsigned char 
 Auto vars:     Size  Location     Type
  s               4   78[BANK0 ] unsigned char [4]
 Return value:  Size  Location     Type
		None               void
 Registers used:
		wreg, fsr1l, fsr1h, fsr2l, fsr2h, status,2, status,0, tblptrl, tblptrh, tblptru, prodl, prodh, cstack
 Tracked objects:
		On entry : 
		On exit  : 
		Unchanged: 
 Data sizes:     COMRAM   BANK0   BANK1   BANK2   BANK3   BANK4   BANK5   BANK6   BANK7   BANK8   BANK9  BANK10  BANK11  BANK12  BANK13  BANK14
      Params:         0       4       0       0       0       0       0       0       0       0       0       0       0       0       0       0
      Locals:         0       4       0       0       0       0       0       0       0       0       0       0       0       0       0       0
      Temps:          0       0       0       0       0       0       0       0       0       0       0       0       0       0       0       0
      Totals:         0       8       0       0       0       0       0       0       0       0       0       0       0       0       0       0
Total ram usage:        8 bytes
 Hardware stack levels used:    1
 Hardware stack levels required when called:   13
 This function calls:
		_sprintf
		_strcat
 This function is called by:
		_display_time_1602
 This function uses a non-reentrant model


 *************** function _strcat *****************
 Defined at:
		line 8 in file "C:\Program Files (x86)\Microchip\xc8\v1.35\sources\common\strcat.c"
 Parameters:    Size  Location     Type
  to              2    0[BANK0 ] PTR unsigned char 
		 -> display_LCD@str(40), 
  from            2    2[BANK0 ] PTR const unsigned char 
		 -> STR_95(2), STR_94(2), STR_93(2), STR_91(2), 
		 -> weekday_3char(28), STR_90(2), STR_89(2), STR_88(2), 
		 -> STR_86(2), STR_85(2), STR_84(2), STR_82(2), 
		 -> STR_81(2), STR_79(3), display_dec@s(4), 
 Auto vars:     Size  Location     Type
  cp              2    4[BANK0 ] PTR unsigned char 
		 -> display_LCD@str(40), 
 Return value:  Size  Location     Type
                  2    0[BANK0 ] PTR unsigned char 
 Registers used:
		wreg, fsr1l, fsr1h, fsr2l, fsr2h, status,2, status,0, tblptrl, tblptrh, tblptru
 Tracked objects:
		On entry : 
		On exit  : 
		Unchanged: 
 Data sizes:     COMRAM   BANK0   BANK1   BANK2   BANK3   BANK4   BANK5   BANK6   BANK7   BANK8   BANK9  BANK10  BANK11  BANK12  BANK13  BANK14
      Params:         0       4       0       0       0       0       0       0       0       0       0       0       0       0       0       0
      Locals:         0       2       0       0       0       0       0       0       0       0       0       0       0       0       0       0
      Temps:          0       0       0       0       0       0       0       0       0       0       0       0       0       0       0       0
      Totals:         0       6       0       0       0       0       0       0       0       0       0       0       0       0       0       0
Total ram usage:        6 bytes
 Hardware stack levels used:    1
 Hardware stack levels required when called:   11
 This function calls:
		Nothing
 This function is called by:
		_display_dec
		_display_time_1602
 This function uses a non-reentrant model


 *************** function _ST7032_puts *****************
 Defined at:
		line 43 in file "../My_library/My_ST7032.c"
 Parameters:    Size  Location     Type
  s               2   16[BANK0 ] PTR const unsigned char 
		 -> display_LCD@str_575(20), display_LCD@str(40), display_char(40), STR_10(16), 
		 -> STR_9(12), STR_6(13), STR_5(17), 
 Auto vars:     Size  Location     Type
		None
 Return value:  Size  Location     Type
		None               void
 Registers used:
		wreg, fsr1l, fsr1h, fsr2l, fsr2h, status,2, status,0, tblptrl, tblptrh, tblptru, cstack
 Tracked objects:
		On entry : 
		On exit  : 
		Unchanged: 
 Data sizes:     COMRAM   BANK0   BANK1   BANK2   BANK3   BANK4   BANK5   BANK6   BANK7   BANK8   BANK9  BANK10  BANK11  BANK12  BANK13  BANK14
      Params:         0       2       0       0       0       0       0       0       0       0       0       0       0       0       0       0
      Locals:         0       0       0       0       0       0       0       0       0       0       0       0       0       0       0       0
      Temps:          0       0       0       0       0       0       0       0       0       0       0       0       0       0       0       0
      Totals:         0       2       0       0       0       0       0       0       0       0       0       0       0       0       0       0
Total ram usage:        2 bytes
 Hardware stack levels used:    1
 Hardware stack levels required when called:   14
 This function calls:
		_ST7032_put
 This function is called by:
		_sleep_task
		_bootload
		_display_LCD
 This function uses a non-reentrant model


 *************** function _ST7032_put *****************
 Defined at:
		line 35 in file "../My_library/My_ST7032.c"
 Parameters:    Size  Location     Type
  c               1    wreg     unsigned char 
 Auto vars:     Size  Location     Type
  c               1   15[BANK0 ] unsigned char 
 Return value:  Size  Location     Type
		None               void
 Registers used:
		wreg, fsr1l, fsr1h, fsr2l, fsr2h, status,2, status,0, cstack
 Tracked objects:
		On entry : 
		On exit  : 
		Unchanged: 
 Data sizes:     COMRAM   BANK0   BANK1   BANK2   BANK3   BANK4   BANK5   BANK6   BANK7   BANK8   BANK9  BANK10  BANK11  BANK12  BANK13  BANK14
      Params:         0       0       0       0       0       0       0       0       0       0       0       0       0       0       0       0
      Locals:         0       1       0       0       0       0       0       0       0       0       0       0       0       0       0       0
      Temps:          0       0       0       0       0       0       0       0       0       0       0       0       0       0       0       0
      Totals:         0       1       0       0       0       0       0       0       0       0       0       0       0       0       0       0
Total ram usage:        1 bytes
 Hardware stack levels used:    1
 Hardware stack levels required when called:   13
 This function calls:
		_ringbuf_put
 This function is called by:
		_ST7032_puts
 This function uses a non-reentrant model


 *************** function _ST7032_cursor *****************
 Defined at:
		line 30 in file "../My_library/My_ST7032.c"
 Parameters:    Size  Location     Type
  col             1    wreg     unsigned char 
  row             1   17[BANK0 ] unsigned char 
 Auto vars:     Size  Location     Type
  col             1   20[BANK0 ] unsigned char 
  row_offsets     2   18[BANK0 ] unsigned char [2]
 Return value:  Size  Location     Type
		None               void
 Registers used:
		wreg, fsr1l, fsr1h, fsr2l, fsr2h, status,2, status,0, cstack
 Tracked objects:
		On entry : 
		On exit  : 
		Unchanged: 
 Data sizes:     COMRAM   BANK0   BANK1   BANK2   BANK3   BANK4   BANK5   BANK6   BANK7   BANK8   BANK9  BANK10  BANK11  BANK12  BANK13  BANK14
      Params:         0       1       0       0       0       0       0       0       0       0       0       0       0       0       0       0
      Locals:         0       3       0       0       0       0       0       0       0       0       0       0       0       0       0       0
      Temps:          0       0       0       0       0       0       0       0       0       0       0       0       0       0       0       0
      Totals:         0       4       0       0       0       0       0       0       0       0       0       0       0       0       0       0
Total ram usage:        4 bytes
 Hardware stack levels used:    1
 Hardware stack levels required when called:   14
 This function calls:
		_ST7032_command
 This function is called by:
		_sleep_task
		_bootload
		_display_LCD
 This function uses a non-reentrant model


 *************** function _data_out *****************
 Defined at:
		line 248 in file "ChargeStation_task.c"
 Parameters:    Size  Location     Type
  tx              2   74[BANK0 ] PTR struct ringbuf
		 -> usb_tx(8), 
 Auto vars:     Size  Location     Type
  i               1  106[BANK0 ] unsigned char 
  str            30   76[BANK0 ] unsigned char [30]
 Return value:  Size  Location     Type
		None               void
 Registers used:
		wreg, fsr1l, fsr1h, fsr2l, fsr2h, status,2, status,0, tblptrl, tblptrh, tblptru, prodl, prodh, cstack
 Tracked objects:
		On entry : 
		On exit  : 
		Unchanged: 
 Data sizes:     COMRAM   BANK0   BANK1   BANK2   BANK3   BANK4   BANK5   BANK6   BANK7   BANK8   BANK9  BANK10  BANK11  BANK12  BANK13  BANK14
      Params:         0       2       0       0       0       0       0       0       0       0       0       0       0       0       0       0
      Locals:         0      31       0       0       0       0       0       0       0       0       0       0       0       0       0       0
      Temps:          0       0       0       0       0       0       0       0       0       0       0       0       0       0       0       0
      Totals:         0      33       0       0       0       0       0       0       0       0       0       0       0       0       0       0
Total ram usage:       33 bytes
 Hardware stack levels used:    1
 Hardware stack levels required when called:   14
 This function calls:
		___lwdiv
		___lwmod
		_ringbuf_put_str
		_sprintf
 This function is called by:
		_normal_task
 This function uses a non-reentrant model


 *************** function _sprintf *****************
 Defined at:
		line 492 in file "C:\Program Files (x86)\Microchip\xc8\v1.35\sources\common\doprnt.c"
 Parameters:    Size  Location     Type
  sp              2   35[BANK0 ] PTR unsigned char 
		 -> print_time@str(30), print_time_dec@str(10), display_dec@s(4), display_LCD@str_575(20), 
		 -> data_out@str(30), 
  f               2   37[BANK0 ] PTR const unsigned char 
		 -> STR_100(37), STR_98(5), STR_78(5), STR_33(28), 
		 -> STR_32(9), STR_31(11), STR_30(6), STR_28(24), 
		 -> STR_27(32), 
 Auto vars:     Size  Location     Type
  val             4   66[BANK0 ] unsigned long 
  tmpval          4    0        struct .
  width           2   72[BANK0 ] int 
  len             2   64[BANK0 ] unsigned int 
  cp              2   61[BANK0 ] PTR const unsigned char 
		 -> STR_118(7), weekday_3char(28), display_LCD@onoff(10), display_LCD@port_char(120), 
		 -> data_out@p(6), sp__ADC(2), 
  prec            2   59[BANK0 ] int 
  c               1   71[BANK0 ] char 
  flag            1   70[BANK0 ] unsigned char 
  ap              1   63[BANK0 ] PTR void [1]
		 -> ?_sprintf(2), 
 Return value:  Size  Location     Type
                  2   35[BANK0 ] int 
 Registers used:
		wreg, fsr1l, fsr1h, fsr2l, fsr2h, status,2, status,0, tblptrl, tblptrh, tblptru, prodl, prodh, cstack
 Tracked objects:
		On entry : 
		On exit  : 
		Unchanged: 
 Data sizes:     COMRAM   BANK0   BANK1   BANK2   BANK3   BANK4   BANK5   BANK6   BANK7   BANK8   BANK9  BANK10  BANK11  BANK12  BANK13  BANK14
      Params:         0      20       0       0       0       0       0       0       0       0       0       0       0       0       0       0
      Locals:         0      15       0       0       0       0       0       0       0       0       0       0       0       0       0       0
      Temps:          0       4       0       0       0       0       0       0       0       0       0       0       0       0       0       0
      Totals:         0      39       0       0       0       0       0       0       0       0       0       0       0       0       0       0
Total ram usage:       39 bytes
 Hardware stack levels used:    1
 Hardware stack levels required when called:   12
 This function calls:
		___lldiv
		___llmod
		___wmul
		_isdigit
 This function is called by:
		_data_out
		_display_LCD
		_display_dec
		_print_time
 This function uses a non-reentrant model


 *************** function _isdigit *****************
 Defined at:
		line 8 in file "C:\Program Files (x86)\Microchip\xc8\v1.35\sources\common\isdigit.c"
 Parameters:    Size  Location     Type
  c               1    wreg     unsigned char 
 Auto vars:     Size  Location     Type
  c               1    2[BANK0 ] unsigned char 
 Return value:  Size  Location     Type
		None               void
 Registers used:
		wreg, status,2, status,0
 Tracked objects:
		On entry : 
		On exit  : 
		Unchanged: 
 Data sizes:     COMRAM   BANK0   BANK1   BANK2   BANK3   BANK4   BANK5   BANK6   BANK7   BANK8   BANK9  BANK10  BANK11  BANK12  BANK13  BANK14
      Params:         0       0       0       0       0       0       0       0       0       0       0       0       0       0       0       0
      Locals:         0       2       0       0       0       0       0       0       0       0       0       0       0       0       0       0
      Temps:          0       1       0       0       0       0       0       0       0       0       0       0       0       0       0       0
      Totals:         0       3       0       0       0       0       0       0       0       0       0       0       0       0       0       0
Total ram usage:        3 bytes
 Hardware stack levels used:    1
 Hardware stack levels required when called:   11
 This function calls:
		Nothing
 This function is called by:
		_sprintf
		_atoi
 This function uses a non-reentrant model


 *************** function ___llmod *****************
 Defined at:
		line 8 in file "C:\Program Files (x86)\Microchip\xc8\v1.35\sources\common\llmod.c"
 Parameters:    Size  Location     Type
  dividend        4   13[BANK0 ] unsigned long 
  divisor         4   17[BANK0 ] unsigned long 
 Auto vars:     Size  Location     Type
  counter         1   21[BANK0 ] unsigned char 
 Return value:  Size  Location     Type
                  4   13[BANK0 ] unsigned long 
 Registers used:
		wreg, status,2, status,0
 Tracked objects:
		On entry : 
		On exit  : 
		Unchanged: 
 Data sizes:     COMRAM   BANK0   BANK1   BANK2   BANK3   BANK4   BANK5   BANK6   BANK7   BANK8   BANK9  BANK10  BANK11  BANK12  BANK13  BANK14
      Params:         0       8       0       0       0       0       0       0       0       0       0       0       0       0       0       0
      Locals:         0       1       0       0       0       0       0       0       0       0       0       0       0       0       0       0
      Temps:          0       0       0       0       0       0       0       0       0       0       0       0       0       0       0       0
      Totals:         0       9       0       0       0       0       0       0       0       0       0       0       0       0       0       0
Total ram usage:        9 bytes
 Hardware stack levels used:    1
 Hardware stack levels required when called:   11
 This function calls:
		Nothing
 This function is called by:
		_display_LCD
		_sprintf
 This function uses a non-reentrant model


 *************** function _ringbuf_put_str *****************
 Defined at:
		line 39 in file "../My_library/My_ringbuf.c"
 Parameters:    Size  Location     Type
  rb              2   15[BANK0 ] PTR struct ringbuf
		 -> usb_tx(8), 
  str             2   17[BANK0 ] PTR const unsigned char 
		 -> STR_101(8), print_time@str(30), STR_99(3), print_time_dec@str(10), 
		 -> STR_97(4), STR_96(4), STR_29(2), data_out@str(30), 
		 -> STR_26(18), STR_23(36), STR_22(24), STR_13(434), 
 Auto vars:     Size  Location     Type
		None
 Return value:  Size  Location     Type
		None               void
 Registers used:
		wreg, fsr1l, fsr1h, fsr2l, fsr2h, status,2, status,0, tblptrl, tblptrh, tblptru, cstack
 Tracked objects:
		On entry : 
		On exit  : 
		Unchanged: 
 Data sizes:     COMRAM   BANK0   BANK1   BANK2   BANK3   BANK4   BANK5   BANK6   BANK7   BANK8   BANK9  BANK10  BANK11  BANK12  BANK13  BANK14
      Params:         0       4       0       0       0       0       0       0       0       0       0       0       0       0       0       0
      Locals:         0       0       0       0       0       0       0       0       0       0       0       0       0       0       0       0
      Temps:          0       0       0       0       0       0       0       0       0       0       0       0       0       0       0       0
      Totals:         0       4       0       0       0       0       0       0       0       0       0       0       0       0       0       0
Total ram usage:        4 bytes
 Hardware stack levels used:    1
 Hardware stack levels required when called:   13
 This function calls:
		_ringbuf_put
 This function is called by:
		_terminal_operation
		_data_out
		_terminal_task
		_print_time
		_terminal_at_hand
 This function uses a non-reentrant model


 *************** function ___lwmod *****************
 Defined at:
		line 8 in file "C:\Program Files (x86)\Microchip\xc8\v1.35\sources\common\lwmod.c"
 Parameters:    Size  Location     Type
  dividend        2    0[BANK0 ] unsigned int 
  divisor         2    2[BANK0 ] unsigned int 
 Auto vars:     Size  Location     Type
  counter         1    4[BANK0 ] unsigned char 
 Return value:  Size  Location     Type
                  2    0[BANK0 ] unsigned int 
 Registers used:
		wreg, status,2, status,0
 Tracked objects:
		On entry : 
		On exit  : 
		Unchanged: 
 Data sizes:     COMRAM   BANK0   BANK1   BANK2   BANK3   BANK4   BANK5   BANK6   BANK7   BANK8   BANK9  BANK10  BANK11  BANK12  BANK13  BANK14
      Params:         0       4       0       0       0       0       0       0       0       0       0       0       0       0       0       0
      Locals:         0       1       0       0       0       0       0       0       0       0       0       0       0       0       0       0
      Temps:          0       0       0       0       0       0       0       0       0       0       0       0       0       0       0       0
      Totals:         0       5       0       0       0       0       0       0       0       0       0       0       0       0       0       0
Total ram usage:        5 bytes
 Hardware stack levels used:    1
 Hardware stack levels required when called:   11
 This function calls:
		Nothing
 This function is called by:
		_data_out
		_display_LCD
		_ringbuf_put_num
 This function uses a non-reentrant model


 *************** function _Auto_cut *****************
 Defined at:
		line 49 in file "ChargeStation_task.c"
 Parameters:    Size  Location     Type
		None
 Auto vars:     Size  Location     Type
  i               1   30[BANK0 ] unsigned char 
 Return value:  Size  Location     Type
		None               void
 Registers used:
		wreg, fsr2l, fsr2h, status,2, status,0, prodl, prodh, cstack
 Tracked objects:
		On entry : 
		On exit  : 
		Unchanged: 
 Data sizes:     COMRAM   BANK0   BANK1   BANK2   BANK3   BANK4   BANK5   BANK6   BANK7   BANK8   BANK9  BANK10  BANK11  BANK12  BANK13  BANK14
      Params:         0       0       0       0       0       0       0       0       0       0       0       0       0       0       0       0
      Locals:         0       1       0       0       0       0       0       0       0       0       0       0       0       0       0       0
      Temps:          0       2       0       0       0       0       0       0       0       0       0       0       0       0       0       0
      Totals:         0       3       0       0       0       0       0       0       0       0       0       0       0       0       0       0
Total ram usage:        3 bytes
 Hardware stack levels used:    1
 Hardware stack levels required when called:   12
 This function calls:
		_ADC
		_ANALOG_IN
		_OUT
		___wmul
 This function is called by:
		_normal_task
 This function uses a non-reentrant model


 *************** function ___wmul *****************
 Defined at:
		line 15 in file "C:\Program Files (x86)\Microchip\xc8\v1.35\sources\common\Umul16.c"
 Parameters:    Size  Location     Type
  multiplier      2   22[BANK0 ] unsigned int 
  multiplicand    2   24[BANK0 ] unsigned int 
 Auto vars:     Size  Location     Type
  product         2   26[BANK0 ] unsigned int 
 Return value:  Size  Location     Type
                  2   22[BANK0 ] unsigned int 
 Registers used:
		wreg, status,2, status,0, prodl, prodh
 Tracked objects:
		On entry : 
		On exit  : 
		Unchanged: 
 Data sizes:     COMRAM   BANK0   BANK1   BANK2   BANK3   BANK4   BANK5   BANK6   BANK7   BANK8   BANK9  BANK10  BANK11  BANK12  BANK13  BANK14
      Params:         0       4       0       0       0       0       0       0       0       0       0       0       0       0       0       0
      Locals:         0       2       0       0       0       0       0       0       0       0       0       0       0       0       0       0
      Temps:          0       0       0       0       0       0       0       0       0       0       0       0       0       0       0       0
      Totals:         0       6       0       0       0       0       0       0       0       0       0       0       0       0       0       0
Total ram usage:        6 bytes
 Hardware stack levels used:    1
 Hardware stack levels required when called:   11
 This function calls:
		Nothing
 This function is called by:
		_Auto_cut
		_ctmu_set_ratio
		_sprintf
		_atoi
 This function uses a non-reentrant model


 *************** function _OUT *****************
 Defined at:
		line 7 in file "io.c"
 Parameters:    Size  Location     Type
  b               1    wreg     unsigned char 
  value           1    0[BANK0 ] unsigned char 
 Auto vars:     Size  Location     Type
  b               1    1[BANK0 ] unsigned char 
 Return value:  Size  Location     Type
		None               void
 Registers used:
		wreg, fsr2l, fsr2h, status,2, status,0, prodl, prodh
 Tracked objects:
		On entry : 
		On exit  : 
		Unchanged: 
 Data sizes:     COMRAM   BANK0   BANK1   BANK2   BANK3   BANK4   BANK5   BANK6   BANK7   BANK8   BANK9  BANK10  BANK11  BANK12  BANK13  BANK14
      Params:         0       1       0       0       0       0       0       0       0       0       0       0       0       0       0       0
      Locals:         0       1       0       0       0       0       0       0       0       0       0       0       0       0       0       0
      Temps:          0       0       0       0       0       0       0       0       0       0       0       0       0       0       0       0
      Totals:         0       2       0       0       0       0       0       0       0       0       0       0       0       0       0       0
Total ram usage:        2 bytes
 Hardware stack levels used:    1
 Hardware stack levels required when called:   11
 This function calls:
		Nothing
 This function is called by:
		_Auto_cut
		_port_button_task
		_sleep_task
		_software_init
 This function uses a non-reentrant model


 *************** function _ANALOG_IN *****************
 Defined at:
		line 23 in file "io.c"
 Parameters:    Size  Location     Type
  b               1    wreg     unsigned char 
 Auto vars:     Size  Location     Type
  b               1    0[BANK0 ] unsigned char 
 Return value:  Size  Location     Type
                  1    wreg      unsigned char 
 Registers used:
		wreg, status,2, status,0
 Tracked objects:
		On entry : 
		On exit  : 
		Unchanged: 
 Data sizes:     COMRAM   BANK0   BANK1   BANK2   BANK3   BANK4   BANK5   BANK6   BANK7   BANK8   BANK9  BANK10  BANK11  BANK12  BANK13  BANK14
      Params:         0       0       0       0       0       0       0       0       0       0       0       0       0       0       0       0
      Locals:         0       1       0       0       0       0       0       0       0       0       0       0       0       0       0       0
      Temps:          0       0       0       0       0       0       0       0       0       0       0       0       0       0       0       0
      Totals:         0       1       0       0       0       0       0       0       0       0       0       0       0       0       0       0
Total ram usage:        1 bytes
 Hardware stack levels used:    1
 Hardware stack levels required when called:   11
 This function calls:
		Nothing
 This function is called by:
		_Auto_cut
 This function uses a non-reentrant model


 *************** function _ADC *****************
 Defined at:
		line 156 in file "../My_library/My_PIC.c"
 Parameters:    Size  Location     Type
  ch              1    wreg     unsigned char 
 Auto vars:     Size  Location     Type
  ch              1    3[BANK0 ] unsigned char 
 Return value:  Size  Location     Type
                  2    0[BANK0 ] unsigned int 
 Registers used:
		wreg, status,2, status,0
 Tracked objects:
		On entry : 
		On exit  : 
		Unchanged: 
 Data sizes:     COMRAM   BANK0   BANK1   BANK2   BANK3   BANK4   BANK5   BANK6   BANK7   BANK8   BANK9  BANK10  BANK11  BANK12  BANK13  BANK14
      Params:         0       2       0       0       0       0       0       0       0       0       0       0       0       0       0       0
      Locals:         0       1       0       0       0       0       0       0       0       0       0       0       0       0       0       0
      Temps:          0       1       0       0       0       0       0       0       0       0       0       0       0       0       0       0
      Totals:         0       4       0       0       0       0       0       0       0       0       0       0       0       0       0       0
Total ram usage:        4 bytes
 Hardware stack levels used:    1
 Hardware stack levels required when called:   11
 This function calls:
		Nothing
 This function is called by:
		_Auto_cut
		_sleep_task
 This function uses a non-reentrant model


 *************** function _hardware_init *****************
 Defined at:
		line 82 in file "main.c"
 Parameters:    Size  Location     Type
		None
 Auto vars:     Size  Location     Type
		None
 Return value:  Size  Location     Type
		None               void
 Registers used:
		wreg, fsr1l, fsr1h, fsr2l, fsr2h, status,2, status,0, prodl, prodh, cstack
 Tracked objects:
		On entry : 
		On exit  : 
		Unchanged: 
 Data sizes:     COMRAM   BANK0   BANK1   BANK2   BANK3   BANK4   BANK5   BANK6   BANK7   BANK8   BANK9  BANK10  BANK11  BANK12  BANK13  BANK14
      Params:         0       0       0       0       0       0       0       0       0       0       0       0       0       0       0       0
      Locals:         0       0       0       0       0       0       0       0       0       0       0       0       0       0       0       0
      Temps:          0       0       0       0       0       0       0       0       0       0       0       0       0       0       0       0
      Totals:         0       0       0       0       0       0       0       0       0       0       0       0       0       0       0       0
Total ram usage:        0 bytes
 Hardware stack levels used:    1
 Hardware stack levels required when called:   16
 This function calls:
		_ADC_init
		_CTMU_init
		_RTCC_init
		_ST7032_init
		_USB_init
		_ringbuf_init
		_timer0_init
		_timer1_init
		_timer3_init
 This function is called by:
		_main
 This function uses a non-reentrant model


 *************** function _timer3_init *****************
 Defined at:
		line 101 in file "../My_library/My_PIC.c"
 Parameters:    Size  Location     Type
  prescaler       1    wreg     unsigned char 
 Auto vars:     Size  Location     Type
  prescaler       1    1[BANK0 ] unsigned char 
 Return value:  Size  Location     Type
		None               void
 Registers used:
		wreg, status,2, status,0
 Tracked objects:
		On entry : 
		On exit  : 
		Unchanged: 
 Data sizes:     COMRAM   BANK0   BANK1   BANK2   BANK3   BANK4   BANK5   BANK6   BANK7   BANK8   BANK9  BANK10  BANK11  BANK12  BANK13  BANK14
      Params:         0       0       0       0       0       0       0       0       0       0       0       0       0       0       0       0
      Locals:         0       1       0       0       0       0       0       0       0       0       0       0       0       0       0       0
      Temps:          0       1       0       0       0       0       0       0       0       0       0       0       0       0       0       0
      Totals:         0       2       0       0       0       0       0       0       0       0       0       0       0       0       0       0
Total ram usage:        2 bytes
 Hardware stack levels used:    1
 Hardware stack levels required when called:   11
 This function calls:
		Nothing
 This function is called by:
		_hardware_init
 This function uses a non-reentrant model


 *************** function _timer1_init *****************
 Defined at:
		line 70 in file "../My_library/My_PIC.c"
 Parameters:    Size  Location     Type
  prescaler       1    wreg     unsigned char 
  clock_select    1    0[BANK0 ] unsigned char 
 Auto vars:     Size  Location     Type
  prescaler       1    2[BANK0 ] unsigned char 
 Return value:  Size  Location     Type
		None               void
 Registers used:
		wreg, status,2, status,0
 Tracked objects:
		On entry : 
		On exit  : 
		Unchanged: 
 Data sizes:     COMRAM   BANK0   BANK1   BANK2   BANK3   BANK4   BANK5   BANK6   BANK7   BANK8   BANK9  BANK10  BANK11  BANK12  BANK13  BANK14
      Params:         0       1       0       0       0       0       0       0       0       0       0       0       0       0       0       0
      Locals:         0       1       0       0       0       0       0       0       0       0       0       0       0       0       0       0
      Temps:          0       1       0       0       0       0       0       0       0       0       0       0       0       0       0       0
      Totals:         0       3       0       0       0       0       0       0       0       0       0       0       0       0       0       0
Total ram usage:        3 bytes
 Hardware stack levels used:    1
 Hardware stack levels required when called:   11
 This function calls:
		Nothing
 This function is called by:
		_hardware_init
 This function uses a non-reentrant model


 *************** function _timer0_init *****************
 Defined at:
		line 34 in file "../My_library/My_PIC.c"
 Parameters:    Size  Location     Type
  prescaler       1    wreg     unsigned char 
 Auto vars:     Size  Location     Type
  prescaler       1    1[BANK0 ] unsigned char 
 Return value:  Size  Location     Type
		None               void
 Registers used:
		wreg, status,2, status,0
 Tracked objects:
		On entry : 
		On exit  : 
		Unchanged: 
 Data sizes:     COMRAM   BANK0   BANK1   BANK2   BANK3   BANK4   BANK5   BANK6   BANK7   BANK8   BANK9  BANK10  BANK11  BANK12  BANK13  BANK14
      Params:         0       0       0       0       0       0       0       0       0       0       0       0       0       0       0       0
      Locals:         0       1       0       0       0       0       0       0       0       0       0       0       0       0       0       0
      Temps:          0       1       0       0       0       0       0       0       0       0       0       0       0       0       0       0
      Totals:         0       2       0       0       0       0       0       0       0       0       0       0       0       0       0       0
Total ram usage:        2 bytes
 Hardware stack levels used:    1
 Hardware stack levels required when called:   11
 This function calls:
		Nothing
 This function is called by:
		_hardware_init
 This function uses a non-reentrant model


 *************** function _USB_init *****************
 Defined at:
		line 11 in file "../My_library/My_usb_cdc.c"
 Parameters:    Size  Location     Type
		None
 Auto vars:     Size  Location     Type
		None
 Return value:  Size  Location     Type
		None               void
 Registers used:
		wreg, fsr2l, fsr2h, status,2, status,0, prodl, prodh, cstack
 Tracked objects:
		On entry : 
		On exit  : 
		Unchanged: 
 Data sizes:     COMRAM   BANK0   BANK1   BANK2   BANK3   BANK4   BANK5   BANK6   BANK7   BANK8   BANK9  BANK10  BANK11  BANK12  BANK13  BANK14
      Params:         0       0       0       0       0       0       0       0       0       0       0       0       0       0       0       0
      Locals:         0       0       0       0       0       0       0       0       0       0       0       0       0       0       0       0
      Temps:          0       0       0       0       0       0       0       0       0       0       0       0       0       0       0       0
      Totals:         0       0       0       0       0       0       0       0       0       0       0       0       0       0       0       0
Total ram usage:        0 bytes
 Hardware stack levels used:    1
 Hardware stack levels required when called:   13
 This function calls:
		_USBDeviceAttach
		_USBDeviceInit
 This function is called by:
		_hardware_init
 This function uses a non-reentrant model


 *************** function _USBDeviceInit *****************
 Defined at:
		line 298 in file "../My_library/usb/usb_device.c"
 Parameters:    Size  Location     Type
		None
 Auto vars:     Size  Location     Type
  i               1    8[BANK0 ] unsigned char 
 Return value:  Size  Location     Type
		None               void
 Registers used:
		wreg, fsr2l, fsr2h, status,2, status,0, prodl, prodh, cstack
 Tracked objects:
		On entry : 
		On exit  : 
		Unchanged: 
 Data sizes:     COMRAM   BANK0   BANK1   BANK2   BANK3   BANK4   BANK5   BANK6   BANK7   BANK8   BANK9  BANK10  BANK11  BANK12  BANK13  BANK14
      Params:         0       0       0       0       0       0       0       0       0       0       0       0       0       0       0       0
      Locals:         0       1       0       0       0       0       0       0       0       0       0       0       0       0       0       0
      Temps:          0       0       0       0       0       0       0       0       0       0       0       0       0       0       0       0
      Totals:         0       1       0       0       0       0       0       0       0       0       0       0       0       0       0       0
Total ram usage:        1 bytes
 Hardware stack levels used:    1
 Hardware stack levels required when called:   12
 This function calls:
		_memset
 This function is called by:
		_USB_init
 This function uses a non-reentrant model


 *************** function _memset *****************
 Defined at:
		line 8 in file "C:\Program Files (x86)\Microchip\xc8\v1.35\sources\common\memset.c"
 Parameters:    Size  Location     Type
  p1              2    0[BANK0 ] PTR void 
		 -> USBAlternateInterface(2), BDT(48), UEP1(1), 
  c               2    2[BANK0 ] int 
  n               2    4[BANK0 ] unsigned int 
 Auto vars:     Size  Location     Type
  p               2    6[BANK0 ] PTR unsigned char 
		 -> USBAlternateInterface(2), BDT(48), UEP1(1), 
 Return value:  Size  Location     Type
                  2    0[BANK0 ] PTR void 
 Registers used:
		wreg, fsr2l, fsr2h, status,2, status,0
 Tracked objects:
		On entry : 
		On exit  : 
		Unchanged: 
 Data sizes:     COMRAM   BANK0   BANK1   BANK2   BANK3   BANK4   BANK5   BANK6   BANK7   BANK8   BANK9  BANK10  BANK11  BANK12  BANK13  BANK14
      Params:         0       6       0       0       0       0       0       0       0       0       0       0       0       0       0       0
      Locals:         0       2       0       0       0       0       0       0       0       0       0       0       0       0       0       0
      Temps:          0       0       0       0       0       0       0       0       0       0       0       0       0       0       0       0
      Totals:         0       8       0       0       0       0       0       0       0       0       0       0       0       0       0       0
Total ram usage:        8 bytes
 Hardware stack levels used:    1
 Hardware stack levels required when called:   11
 This function calls:
		Nothing
 This function is called by:
		_USBDeviceInit
 This function uses a non-reentrant model


 *************** function _USBDeviceAttach *****************
 Defined at:
		line 1352 in file "../My_library/usb/usb_device.c"
 Parameters:    Size  Location     Type
		None
 Auto vars:     Size  Location     Type
		None
 Return value:  Size  Location     Type
		None               void
 Registers used:
		wreg, status,2
 Tracked objects:
		On entry : 
		On exit  : 
		Unchanged: 
 Data sizes:     COMRAM   BANK0   BANK1   BANK2   BANK3   BANK4   BANK5   BANK6   BANK7   BANK8   BANK9  BANK10  BANK11  BANK12  BANK13  BANK14
      Params:         0       0       0       0       0       0       0       0       0       0       0       0       0       0       0       0
      Locals:         0       0       0       0       0       0       0       0       0       0       0       0       0       0       0       0
      Temps:          0       0       0       0       0       0       0       0       0       0       0       0       0       0       0       0
      Totals:         0       0       0       0       0       0       0       0       0       0       0       0       0       0       0       0
Total ram usage:        0 bytes
 Hardware stack levels used:    1
 Hardware stack levels required when called:   11
 This function calls:
		Nothing
 This function is called by:
		_USB_init
 This function uses a non-reentrant model


 *************** function _ST7032_init *****************
 Defined at:
		line 62 in file "../My_library/My_ST7032.c"
 Parameters:    Size  Location     Type
		None
 Auto vars:     Size  Location     Type
		None
 Return value:  Size  Location     Type
		None               void
 Registers used:
		wreg, fsr1l, fsr1h, fsr2l, fsr2h, status,2, status,0, cstack
 Tracked objects:
		On entry : 
		On exit  : 
		Unchanged: 
 Data sizes:     COMRAM   BANK0   BANK1   BANK2   BANK3   BANK4   BANK5   BANK6   BANK7   BANK8   BANK9  BANK10  BANK11  BANK12  BANK13  BANK14
      Params:         0       0       0       0       0       0       0       0       0       0       0       0       0       0       0       0
      Locals:         0       0       0       0       0       0       0       0       0       0       0       0       0       0       0       0
      Temps:          0       0       0       0       0       0       0       0       0       0       0       0       0       0       0       0
      Totals:         0       0       0       0       0       0       0       0       0       0       0       0       0       0       0       0
Total ram usage:        0 bytes
 Hardware stack levels used:    1
 Hardware stack levels required when called:   15
 This function calls:
		_ST7032_clear
		_ST7032_command
		_ringbuf_init
		_ringbuf_put
 This function is called by:
		_hardware_init
 This function uses a non-reentrant model


 *************** function _ringbuf_init *****************
 Defined at:
		line 5 in file "../My_library/My_ringbuf.c"
 Parameters:    Size  Location     Type
  rb              2    0[BANK0 ] PTR struct ringbuf
		 -> terminal_task@command(8), lcd_tx(8), usb_rx(8), usb_tx(8), 
  internal_buf    2    2[BANK0 ] PTR unsigned char 
		 -> terminal_task@buf(100), ST7032_init@buf(200), hardware_init@usbrx(100), hardware_init@usbtx(2000), 
  bufsize         2    4[BANK0 ] unsigned int 
 Auto vars:     Size  Location     Type
		None
 Return value:  Size  Location     Type
		None               void
 Registers used:
		wreg, fsr2l, fsr2h, status,2, status,0
 Tracked objects:
		On entry : 
		On exit  : 
		Unchanged: 
 Data sizes:     COMRAM   BANK0   BANK1   BANK2   BANK3   BANK4   BANK5   BANK6   BANK7   BANK8   BANK9  BANK10  BANK11  BANK12  BANK13  BANK14
      Params:         0       6       0       0       0       0       0       0       0       0       0       0       0       0       0       0
      Locals:         0       0       0       0       0       0       0       0       0       0       0       0       0       0       0       0
      Temps:          0       0       0       0       0       0       0       0       0       0       0       0       0       0       0       0
      Totals:         0       6       0       0       0       0       0       0       0       0       0       0       0       0       0       0
Total ram usage:        6 bytes
 Hardware stack levels used:    1
 Hardware stack levels required when called:   11
 This function calls:
		Nothing
 This function is called by:
		_hardware_init
		_ST7032_init
		_terminal_task
 This function uses a non-reentrant model


 *************** function _ST7032_clear *****************
 Defined at:
		line 26 in file "../My_library/My_ST7032.c"
 Parameters:    Size  Location     Type
		None
 Auto vars:     Size  Location     Type
		None
 Return value:  Size  Location     Type
		None               void
 Registers used:
		wreg, fsr1l, fsr1h, fsr2l, fsr2h, status,2, status,0, cstack
 Tracked objects:
		On entry : 
		On exit  : 
		Unchanged: 
 Data sizes:     COMRAM   BANK0   BANK1   BANK2   BANK3   BANK4   BANK5   BANK6   BANK7   BANK8   BANK9  BANK10  BANK11  BANK12  BANK13  BANK14
      Params:         0       0       0       0       0       0       0       0       0       0       0       0       0       0       0       0
      Locals:         0       0       0       0       0       0       0       0       0       0       0       0       0       0       0       0
      Temps:          0       0       0       0       0       0       0       0       0       0       0       0       0       0       0       0
      Totals:         0       0       0       0       0       0       0       0       0       0       0       0       0       0       0       0
Total ram usage:        0 bytes
 Hardware stack levels used:    1
 Hardware stack levels required when called:   14
 This function calls:
		_ST7032_command
 This function is called by:
		_sleep_task
		_bootload
		_display_LCD
		_ST7032_init
 This function uses a non-reentrant model


 *************** function _ST7032_command *****************
 Defined at:
		line 18 in file "../My_library/My_ST7032.c"
 Parameters:    Size  Location     Type
  command         1    wreg     unsigned char 
  wait            1   15[BANK0 ] unsigned char 
 Auto vars:     Size  Location     Type
  command         1   16[BANK0 ] unsigned char 
 Return value:  Size  Location     Type
		None               void
 Registers used:
		wreg, fsr1l, fsr1h, fsr2l, fsr2h, status,2, status,0, cstack
 Tracked objects:
		On entry : 
		On exit  : 
		Unchanged: 
 Data sizes:     COMRAM   BANK0   BANK1   BANK2   BANK3   BANK4   BANK5   BANK6   BANK7   BANK8   BANK9  BANK10  BANK11  BANK12  BANK13  BANK14
      Params:         0       1       0       0       0       0       0       0       0       0       0       0       0       0       0       0
      Locals:         0       1       0       0       0       0       0       0       0       0       0       0       0       0       0       0
      Temps:          0       0       0       0       0       0       0       0       0       0       0       0       0       0       0       0
      Totals:         0       2       0       0       0       0       0       0       0       0       0       0       0       0       0       0
Total ram usage:        2 bytes
 Hardware stack levels used:    1
 Hardware stack levels required when called:   13
 This function calls:
		_ringbuf_put
 This function is called by:
		_ST7032_clear
		_ST7032_cursor
		_ST7032_init
 This function uses a non-reentrant model


 *************** function _RTCC_init *****************
 Defined at:
		line 22 in file "../My_library/My_RTCC.c"
 Parameters:    Size  Location     Type
		None
 Auto vars:     Size  Location     Type
		None
 Return value:  Size  Location     Type
		None               void
 Registers used:
		wreg, fsr2l, fsr2h, status,2, status,0, prodl, prodh, cstack
 Tracked objects:
		On entry : 
		On exit  : 
		Unchanged: 
 Data sizes:     COMRAM   BANK0   BANK1   BANK2   BANK3   BANK4   BANK5   BANK6   BANK7   BANK8   BANK9  BANK10  BANK11  BANK12  BANK13  BANK14
      Params:         0       0       0       0       0       0       0       0       0       0       0       0       0       0       0       0
      Locals:         0       0       0       0       0       0       0       0       0       0       0       0       0       0       0       0
      Temps:          0       0       0       0       0       0       0       0       0       0       0       0       0       0       0       0
      Totals:         0       0       0       0       0       0       0       0       0       0       0       0       0       0       0       0
Total ram usage:        0 bytes
 Hardware stack levels used:    1
 Hardware stack levels required when called:   15
 This function calls:
		_RTCC_from_RTCC
		_RTCC_from_epoch
 This function is called by:
		_hardware_init
 This function uses a non-reentrant model


 *************** function _RTCC_from_epoch *****************
 Defined at:
		line 211 in file "../My_library/My_RTCC.c"
 Parameters:    Size  Location     Type
  tm              2   47[BANK0 ] PTR struct .
		 -> now(14), 
 Auto vars:     Size  Location     Type
		None
 Return value:  Size  Location     Type
		None               void
 Registers used:
		wreg, fsr2l, fsr2h, status,2, status,0, prodl, prodh, cstack
 Tracked objects:
		On entry : 
		On exit  : 
		Unchanged: 
 Data sizes:     COMRAM   BANK0   BANK1   BANK2   BANK3   BANK4   BANK5   BANK6   BANK7   BANK8   BANK9  BANK10  BANK11  BANK12  BANK13  BANK14
      Params:         0       2       0       0       0       0       0       0       0       0       0       0       0       0       0       0
      Locals:         0       0       0       0       0       0       0       0       0       0       0       0       0       0       0       0
      Temps:          0       0       0       0       0       0       0       0       0       0       0       0       0       0       0       0
      Totals:         0       2       0       0       0       0       0       0       0       0       0       0       0       0       0       0
Total ram usage:        2 bytes
 Hardware stack levels used:    1
 Hardware stack levels required when called:   14
 This function calls:
		_caltime_to_RTCC
		_epoch_to_caltime
 This function is called by:
		_RTCC_init
		_RTCC_adjust_time_inc
		_RTCC_adjust_time_dec
 This function uses a non-reentrant model


 *************** function _epoch_to_caltime *****************
 Defined at:
		line 126 in file "../My_library/My_RTCC.c"
 Parameters:    Size  Location     Type
  tm              2   34[BANK0 ] PTR struct .
		 -> now(14), 
 Auto vars:     Size  Location     Type
  num             4   43[BANK0 ] unsigned long 
  day             2   39[BANK0 ] unsigned int 
  day_since_ep    2    0        unsigned int 
  month           1   42[BANK0 ] unsigned char 
  year            1   41[BANK0 ] unsigned char 
 Return value:  Size  Location     Type
		None               void
 Registers used:
		wreg, fsr2l, fsr2h, status,2, status,0, cstack
 Tracked objects:
		On entry : 
		On exit  : 
		Unchanged: 
 Data sizes:     COMRAM   BANK0   BANK1   BANK2   BANK3   BANK4   BANK5   BANK6   BANK7   BANK8   BANK9  BANK10  BANK11  BANK12  BANK13  BANK14
      Params:         0       2       0       0       0       0       0       0       0       0       0       0       0       0       0       0
      Locals:         0      10       0       0       0       0       0       0       0       0       0       0       0       0       0       0
      Temps:          0       1       0       0       0       0       0       0       0       0       0       0       0       0       0       0
      Totals:         0      13       0       0       0       0       0       0       0       0       0       0       0       0       0       0
Total ram usage:       13 bytes
 Hardware stack levels used:    1
 Hardware stack levels required when called:   13
 This function calls:
		_get_quot_rem
		_month_length
 This function is called by:
		_RTCC_from_caltime
		_RTCC_from_epoch
 This function uses a non-reentrant model


 *************** function _get_quot_rem *****************
 Defined at:
		line 81 in file "../My_library/My_RTCC.c"
 Parameters:    Size  Location     Type
  quot            1    wreg     PTR unsigned long 
		 -> epoch_to_caltime@num(4), 
  div             1   25[BANK0 ] unsigned char 
 Auto vars:     Size  Location     Type
  quot            1   33[BANK0 ] PTR unsigned long 
		 -> epoch_to_caltime@num(4), 
  num             4   29[BANK0 ] unsigned long 
 Return value:  Size  Location     Type
                  4   25[BANK0 ] unsigned long 
 Registers used:
		wreg, fsr2l, fsr2h, status,2, status,0, cstack
 Tracked objects:
		On entry : 
		On exit  : 
		Unchanged: 
 Data sizes:     COMRAM   BANK0   BANK1   BANK2   BANK3   BANK4   BANK5   BANK6   BANK7   BANK8   BANK9  BANK10  BANK11  BANK12  BANK13  BANK14
      Params:         0       4       0       0       0       0       0       0       0       0       0       0       0       0       0       0
      Locals:         0       5       0       0       0       0       0       0       0       0       0       0       0       0       0       0
      Temps:          0       0       0       0       0       0       0       0       0       0       0       0       0       0       0       0
      Totals:         0       9       0       0       0       0       0       0       0       0       0       0       0       0       0       0
Total ram usage:        9 bytes
 Hardware stack levels used:    1
 Hardware stack levels required when called:   12
 This function calls:
		___lldiv
		___lmul
 This function is called by:
		_epoch_to_caltime
 This function uses a non-reentrant model


 *************** function _caltime_to_RTCC *****************
 Defined at:
		line 106 in file "../My_library/My_RTCC.c"
 Parameters:    Size  Location     Type
  tm              2    5[BANK0 ] PTR struct .
		 -> now(14), 
 Auto vars:     Size  Location     Type
		None
 Return value:  Size  Location     Type
		None               void
 Registers used:
		wreg, fsr2l, fsr2h, status,2, status,0, prodl, prodh, cstack
 Tracked objects:
		On entry : 
		On exit  : 
		Unchanged: 
 Data sizes:     COMRAM   BANK0   BANK1   BANK2   BANK3   BANK4   BANK5   BANK6   BANK7   BANK8   BANK9  BANK10  BANK11  BANK12  BANK13  BANK14
      Params:         0       2       0       0       0       0       0       0       0       0       0       0       0       0       0       0
      Locals:         0       0       0       0       0       0       0       0       0       0       0       0       0       0       0       0
      Temps:          0       0       0       0       0       0       0       0       0       0       0       0       0       0       0       0
      Totals:         0       2       0       0       0       0       0       0       0       0       0       0       0       0       0       0
Total ram usage:        2 bytes
 Hardware stack levels used:    1
 Hardware stack levels required when called:   13
 This function calls:
		_d_to_x
 This function is called by:
		_RTCC_from_caltime
		_RTCC_from_epoch
 This function uses a non-reentrant model


 *************** function _d_to_x *****************
 Defined at:
		line 46 in file "../My_library/My_RTCC.c"
 Parameters:    Size  Location     Type
  dec             1    wreg     unsigned char 
 Auto vars:     Size  Location     Type
  dec             1    4[BANK0 ] unsigned char 
 Return value:  Size  Location     Type
                  1    wreg      unsigned char 
 Registers used:
		wreg, status,2, status,0, prodl, prodh, cstack
 Tracked objects:
		On entry : 
		On exit  : 
		Unchanged: 
 Data sizes:     COMRAM   BANK0   BANK1   BANK2   BANK3   BANK4   BANK5   BANK6   BANK7   BANK8   BANK9  BANK10  BANK11  BANK12  BANK13  BANK14
      Params:         0       0       0       0       0       0       0       0       0       0       0       0       0       0       0       0
      Locals:         0       1       0       0       0       0       0       0       0       0       0       0       0       0       0       0
      Temps:          0       0       0       0       0       0       0       0       0       0       0       0       0       0       0       0
      Totals:         0       1       0       0       0       0       0       0       0       0       0       0       0       0       0       0
Total ram usage:        1 bytes
 Hardware stack levels used:    1
 Hardware stack levels required when called:   12
 This function calls:
		___lbdiv
 This function is called by:
		_caltime_to_RTCC
 This function uses a non-reentrant model


 *************** function ___lbdiv *****************
 Defined at:
		line 4 in file "C:\Program Files (x86)\Microchip\xc8\v1.35\sources\common\lbdiv.c"
 Parameters:    Size  Location     Type
  dividend        1    wreg     unsigned char 
  divisor         1    0[BANK0 ] unsigned char 
 Auto vars:     Size  Location     Type
  dividend        1    1[BANK0 ] unsigned char 
  quotient        1    3[BANK0 ] unsigned char 
  counter         1    2[BANK0 ] unsigned char 
 Return value:  Size  Location     Type
                  1    wreg      unsigned char 
 Registers used:
		wreg, status,2, status,0
 Tracked objects:
		On entry : 
		On exit  : 
		Unchanged: 
 Data sizes:     COMRAM   BANK0   BANK1   BANK2   BANK3   BANK4   BANK5   BANK6   BANK7   BANK8   BANK9  BANK10  BANK11  BANK12  BANK13  BANK14
      Params:         0       1       0       0       0       0       0       0       0       0       0       0       0       0       0       0
      Locals:         0       3       0       0       0       0       0       0       0       0       0       0       0       0       0       0
      Temps:          0       0       0       0       0       0       0       0       0       0       0       0       0       0       0       0
      Totals:         0       4       0       0       0       0       0       0       0       0       0       0       0       0       0       0
Total ram usage:        4 bytes
 Hardware stack levels used:    1
 Hardware stack levels required when called:   11
 This function calls:
		Nothing
 This function is called by:
		_d_to_x
 This function uses a non-reentrant model


 *************** function _CTMU_init *****************
 Defined at:
		line 169 in file "../My_library/My_PIC.c"
 Parameters:    Size  Location     Type
		None
 Auto vars:     Size  Location     Type
		None
 Return value:  Size  Location     Type
		None               void
 Registers used:
		wreg, status,2
 Tracked objects:
		On entry : 
		On exit  : 
		Unchanged: 
 Data sizes:     COMRAM   BANK0   BANK1   BANK2   BANK3   BANK4   BANK5   BANK6   BANK7   BANK8   BANK9  BANK10  BANK11  BANK12  BANK13  BANK14
      Params:         0       0       0       0       0       0       0       0       0       0       0       0       0       0       0       0
      Locals:         0       0       0       0       0       0       0       0       0       0       0       0       0       0       0       0
      Temps:          0       0       0       0       0       0       0       0       0       0       0       0       0       0       0       0
      Totals:         0       0       0       0       0       0       0       0       0       0       0       0       0       0       0       0
Total ram usage:        0 bytes
 Hardware stack levels used:    1
 Hardware stack levels required when called:   11
 This function calls:
		Nothing
 This function is called by:
		_hardware_init
 This function uses a non-reentrant model


 *************** function _ADC_init *****************
 Defined at:
		line 133 in file "../My_library/My_PIC.c"
 Parameters:    Size  Location     Type
  p_ref           1    wreg     unsigned char 
 Auto vars:     Size  Location     Type
  p_ref           1    0[BANK0 ] unsigned char 
 Return value:  Size  Location     Type
		None               void
 Registers used:
		wreg, status,2
 Tracked objects:
		On entry : 
		On exit  : 
		Unchanged: 
 Data sizes:     COMRAM   BANK0   BANK1   BANK2   BANK3   BANK4   BANK5   BANK6   BANK7   BANK8   BANK9  BANK10  BANK11  BANK12  BANK13  BANK14
      Params:         0       0       0       0       0       0       0       0       0       0       0       0       0       0       0       0
      Locals:         0       1       0       0       0       0       0       0       0       0       0       0       0       0       0       0
      Temps:          0       0       0       0       0       0       0       0       0       0       0       0       0       0       0       0
      Totals:         0       1       0       0       0       0       0       0       0       0       0       0       0       0       0       0
Total ram usage:        1 bytes
 Hardware stack levels used:    1
 Hardware stack levels required when called:   11
 This function calls:
		Nothing
 This function is called by:
		_hardware_init
 This function uses a non-reentrant model


 *************** function _ctmu_task *****************
 Defined at:
		line 29 in file "ctmu.c"
 Parameters:    Size  Location     Type
		None
 Auto vars:     Size  Location     Type
		None
 Return value:  Size  Location     Type
		None               void
 Registers used:
		wreg, fsr2l, fsr2h, status,2, status,0, cstack
 Tracked objects:
		On entry : 
		On exit  : 
		Unchanged: 
 Data sizes:     COMRAM   BANK0   BANK1   BANK2   BANK3   BANK4   BANK5   BANK6   BANK7   BANK8   BANK9  BANK10  BANK11  BANK12  BANK13  BANK14
      Params:         0       0       0       0       0       0       0       0       0       0       0       0       0       0       0       0
      Locals:         0       0       0       0       0       0       0       0       0       0       0       0       0       0       0       0
      Temps:          0       0       0       0       0       0       0       0       0       0       0       0       0       0       0       0
      Totals:         0       0       0       0       0       0       0       0       0       0       0       0       0       0       0       0
Total ram usage:        0 bytes
 Hardware stack levels used:    1
 Hardware stack levels required when called:   14
 This function calls:
		_ctmu_sampling
 This function is called by:
		_main
 This function uses a non-reentrant model


 *************** function _ctmu_sampling *****************
 Defined at:
		line 22 in file "ctmu.c"
 Parameters:    Size  Location     Type
		None
 Auto vars:     Size  Location     Type
		None
 Return value:  Size  Location     Type
		None               void
 Registers used:
		wreg, fsr2l, fsr2h, status,2, status,0, cstack
 Tracked objects:
		On entry : 
		On exit  : 
		Unchanged: 
 Data sizes:     COMRAM   BANK0   BANK1   BANK2   BANK3   BANK4   BANK5   BANK6   BANK7   BANK8   BANK9  BANK10  BANK11  BANK12  BANK13  BANK14
      Params:         0       0       0       0       0       0       0       0       0       0       0       0       0       0       0       0
      Locals:         0       0       0       0       0       0       0       0       0       0       0       0       0       0       0       0
      Temps:          0       0       0       0       0       0       0       0       0       0       0       0       0       0       0       0
      Totals:         0       0       0       0       0       0       0       0       0       0       0       0       0       0       0       0
Total ram usage:        0 bytes
 Hardware stack levels used:    1
 Hardware stack levels required when called:   13
 This function calls:
		_CTMU_read
		___lwdiv
		_button_timer_interrupt
 This function is called by:
		_ctmu_task
 This function uses a non-reentrant model


 *************** function _button_timer_interrupt *****************
 Defined at:
		line 3 in file "../My_library/My_button.c"
 Parameters:    Size  Location     Type
  bt              2   35[BANK0 ] PTR struct button
		 -> ctmu_m(4), port(69), 
  sw_value        1   37[BANK0 ] unsigned char 
 Auto vars:     Size  Location     Type
		None
 Return value:  Size  Location     Type
		None               void
 Registers used:
		wreg, fsr2l, fsr2h, status,2, status,0
 Tracked objects:
		On entry : 
		On exit  : 
		Unchanged: 
 Data sizes:     COMRAM   BANK0   BANK1   BANK2   BANK3   BANK4   BANK5   BANK6   BANK7   BANK8   BANK9  BANK10  BANK11  BANK12  BANK13  BANK14
      Params:         0       3       0       0       0       0       0       0       0       0       0       0       0       0       0       0
      Locals:         0       0       0       0       0       0       0       0       0       0       0       0       0       0       0       0
      Temps:          0       2       0       0       0       0       0       0       0       0       0       0       0       0       0       0
      Totals:         0       5       0       0       0       0       0       0       0       0       0       0       0       0       0       0
Total ram usage:        5 bytes
 Hardware stack levels used:    1
 Hardware stack levels required when called:   11
 This function calls:
		Nothing
 This function is called by:
		_ctmu_sampling
 This function uses a non-reentrant model


 *************** function ___lwdiv *****************
 Defined at:
		line 8 in file "C:\Program Files (x86)\Microchip\xc8\v1.35\sources\common\lwdiv.c"
 Parameters:    Size  Location     Type
  dividend        2   28[BANK0 ] unsigned int 
  divisor         2   30[BANK0 ] unsigned int 
 Auto vars:     Size  Location     Type
  quotient        2   33[BANK0 ] unsigned int 
  counter         1   32[BANK0 ] unsigned char 
 Return value:  Size  Location     Type
                  2   28[BANK0 ] unsigned int 
 Registers used:
		wreg, status,2, status,0
 Tracked objects:
		On entry : 
		On exit  : 
		Unchanged: 
 Data sizes:     COMRAM   BANK0   BANK1   BANK2   BANK3   BANK4   BANK5   BANK6   BANK7   BANK8   BANK9  BANK10  BANK11  BANK12  BANK13  BANK14
      Params:         0       4       0       0       0       0       0       0       0       0       0       0       0       0       0       0
      Locals:         0       3       0       0       0       0       0       0       0       0       0       0       0       0       0       0
      Temps:          0       0       0       0       0       0       0       0       0       0       0       0       0       0       0       0
      Totals:         0       7       0       0       0       0       0       0       0       0       0       0       0       0       0       0
Total ram usage:        7 bytes
 Hardware stack levels used:    1
 Hardware stack levels required when called:   11
 This function calls:
		Nothing
 This function is called by:
		_data_out
		_display_LCD
		_ctmu_set_ratio
		_ctmu_sampling
		_ringbuf_put_num
 This function uses a non-reentrant model


 *************** function _CTMU_read *****************
 Defined at:
		line 184 in file "../My_library/My_PIC.c"
 Parameters:    Size  Location     Type
  ch              1    wreg     unsigned char 
 Auto vars:     Size  Location     Type
  ch              1   16[BANK0 ] unsigned char 
  i               1   21[BANK0 ] unsigned char 
  sum             4   17[BANK0 ] unsigned long 
 Return value:  Size  Location     Type
                  2   13[BANK0 ] unsigned int 
 Registers used:
		wreg, status,2, status,0, cstack
 Tracked objects:
		On entry : 
		On exit  : 
		Unchanged: 
 Data sizes:     COMRAM   BANK0   BANK1   BANK2   BANK3   BANK4   BANK5   BANK6   BANK7   BANK8   BANK9  BANK10  BANK11  BANK12  BANK13  BANK14
      Params:         0       2       0       0       0       0       0       0       0       0       0       0       0       0       0       0
      Locals:         0       6       0       0       0       0       0       0       0       0       0       0       0       0       0       0
      Temps:          0       1       0       0       0       0       0       0       0       0       0       0       0       0       0       0
      Totals:         0       9       0       0       0       0       0       0       0       0       0       0       0       0       0       0
Total ram usage:        9 bytes
 Hardware stack levels used:    1
 Hardware stack levels required when called:   12
 This function calls:
		___lldiv
 This function is called by:
		_ctmu_set_ratio
		_ctmu_sampling
 This function uses a non-reentrant model


 *************** function ___lldiv *****************
 Defined at:
		line 8 in file "C:\Program Files (x86)\Microchip\xc8\v1.35\sources\common\lldiv.c"
 Parameters:    Size  Location     Type
  dividend        4    0[BANK0 ] unsigned long 
  divisor         4    4[BANK0 ] unsigned long 
 Auto vars:     Size  Location     Type
  quotient        4    8[BANK0 ] unsigned long 
  counter         1   12[BANK0 ] unsigned char 
 Return value:  Size  Location     Type
                  4    0[BANK0 ] unsigned long 
 Registers used:
		wreg, status,2, status,0
 Tracked objects:
		On entry : 
		On exit  : 
		Unchanged: 
 Data sizes:     COMRAM   BANK0   BANK1   BANK2   BANK3   BANK4   BANK5   BANK6   BANK7   BANK8   BANK9  BANK10  BANK11  BANK12  BANK13  BANK14
      Params:         0       8       0       0       0       0       0       0       0       0       0       0       0       0       0       0
      Locals:         0       5       0       0       0       0       0       0       0       0       0       0       0       0       0       0
      Temps:          0       0       0       0       0       0       0       0       0       0       0       0       0       0       0       0
      Totals:         0      13       0       0       0       0       0       0       0       0       0       0       0       0       0       0
Total ram usage:       13 bytes
 Hardware stack levels used:    1
 Hardware stack levels required when called:   11
 This function calls:
		Nothing
 This function is called by:
		_integrate_current
		_display_LCD
		_CTMU_read
		_get_quot_rem
		_sprintf
 This function uses a non-reentrant model


 *************** function _USB_task *****************
 Defined at:
		line 66 in file "../My_library/My_usb_cdc.c"
 Parameters:    Size  Location     Type
		None
 Auto vars:     Size  Location     Type
  rx_len          2   17[BANK0 ] int 
  data            1   19[BANK0 ] unsigned char 
 Return value:  Size  Location     Type
		None               void
 Registers used:
		wreg, fsr1l, fsr1h, fsr2l, fsr2h, status,2, status,0, prodl, prodh, cstack
 Tracked objects:
		On entry : 
		On exit  : 
		Unchanged: 
 Data sizes:     COMRAM   BANK0   BANK1   BANK2   BANK3   BANK4   BANK5   BANK6   BANK7   BANK8   BANK9  BANK10  BANK11  BANK12  BANK13  BANK14
      Params:         0       0       0       0       0       0       0       0       0       0       0       0       0       0       0       0
      Locals:         0       3       0       0       0       0       0       0       0       0       0       0       0       0       0       0
      Temps:          0       0       0       0       0       0       0       0       0       0       0       0       0       0       0       0
      Totals:         0       3       0       0       0       0       0       0       0       0       0       0       0       0       0       0
Total ram usage:        3 bytes
 Hardware stack levels used:    1
 Hardware stack levels required when called:   14
 This function calls:
		_get_string_usb
		_put_string_usb
		_ringbuf_num
		_ringbuf_pop
		_ringbuf_put
 This function is called by:
		_main
 This function uses a non-reentrant model


 *************** function _ringbuf_put *****************
 Defined at:
		line 20 in file "../My_library/My_ringbuf.c"
 Parameters:    Size  Location     Type
  rb              2    8[BANK0 ] PTR struct ringbuf
		 -> uart_rx(8), terminal_task@command(8), lcd_tx(8), usb_rx(8), 
		 -> usb_tx(8), 
  asciicode       1   10[BANK0 ] unsigned char 
 Auto vars:     Size  Location     Type
		None
 Return value:  Size  Location     Type
		None               void
 Registers used:
		wreg, fsr1l, fsr1h, fsr2l, fsr2h, status,2, status,0, cstack
 Tracked objects:
		On entry : 
		On exit  : 
		Unchanged: 
 Data sizes:     COMRAM   BANK0   BANK1   BANK2   BANK3   BANK4   BANK5   BANK6   BANK7   BANK8   BANK9  BANK10  BANK11  BANK12  BANK13  BANK14
      Params:         0       3       0       0       0       0       0       0       0       0       0       0       0       0       0       0
      Locals:         0       0       0       0       0       0       0       0       0       0       0       0       0       0       0       0
      Temps:          0       4       0       0       0       0       0       0       0       0       0       0       0       0       0       0
      Totals:         0       7       0       0       0       0       0       0       0       0       0       0       0       0       0       0
Total ram usage:        7 bytes
 Hardware stack levels used:    1
 Hardware stack levels required when called:   12
 This function calls:
		_ringbuf_num
 This function is called by:
		_ringbuf_put_num
		_ringbuf_put_str
		_ST7032_command
		_ST7032_put
		_ST7032_init
		_terminal_task
		_USB_task
 This function uses a non-reentrant model


 *************** function _put_string_usb *****************
 Defined at:
		line 21 in file "../My_library/My_usb_cdc.c"
 Parameters:    Size  Location     Type
  s               1    wreg     PTR unsigned char 
		 -> USB_task@data(1), 
  len             2   11[BANK0 ] int 
 Auto vars:     Size  Location     Type
  s               1   13[BANK0 ] PTR unsigned char 
		 -> USB_task@data(1), 
 Return value:  Size  Location     Type
                  2   11[BANK0 ] int 
 Registers used:
		wreg, fsr1l, fsr1h, fsr2l, fsr2h, status,2, status,0, prodl, prodh, cstack
 Tracked objects:
		On entry : 
		On exit  : 
		Unchanged: 
 Data sizes:     COMRAM   BANK0   BANK1   BANK2   BANK3   BANK4   BANK5   BANK6   BANK7   BANK8   BANK9  BANK10  BANK11  BANK12  BANK13  BANK14
      Params:         0       2       0       0       0       0       0       0       0       0       0       0       0       0       0       0
      Locals:         0       1       0       0       0       0       0       0       0       0       0       0       0       0       0       0
      Temps:          0       0       0       0       0       0       0       0       0       0       0       0       0       0       0       0
      Totals:         0       3       0       0       0       0       0       0       0       0       0       0       0       0       0       0
Total ram usage:        3 bytes
 Hardware stack levels used:    1
 Hardware stack levels required when called:   13
 This function calls:
		_CDCTxService
		_is_usb_available
		_putUSBUSART
 This function is called by:
		_USB_task
 This function uses a non-reentrant model


 *************** function _putUSBUSART *****************
 Defined at:
		line 613 in file "../My_library/usb/usb_device_cdc.c"
 Parameters:    Size  Location     Type
  data            1    wreg     PTR unsigned char 
		 -> USB_task@data(1), 
  length          1    0[BANK0 ] unsigned char 
 Auto vars:     Size  Location     Type
  data            1    1[BANK0 ] PTR unsigned char 
		 -> USB_task@data(1), 
 Return value:  Size  Location     Type
		None               void
 Registers used:
		wreg, status,2, status,0
 Tracked objects:
		On entry : 
		On exit  : 
		Unchanged: 
 Data sizes:     COMRAM   BANK0   BANK1   BANK2   BANK3   BANK4   BANK5   BANK6   BANK7   BANK8   BANK9  BANK10  BANK11  BANK12  BANK13  BANK14
      Params:         0       1       0       0       0       0       0       0       0       0       0       0       0       0       0       0
      Locals:         0       1       0       0       0       0       0       0       0       0       0       0       0       0       0       0
      Temps:          0       0       0       0       0       0       0       0       0       0       0       0       0       0       0       0
      Totals:         0       2       0       0       0       0       0       0       0       0       0       0       0       0       0       0
Total ram usage:        2 bytes
 Hardware stack levels used:    1
 Hardware stack levels required when called:   11
 This function calls:
		Nothing
 This function is called by:
		_put_string_usb
 This function uses a non-reentrant model


 *************** function _get_string_usb *****************
 Defined at:
		line 32 in file "../My_library/My_usb_cdc.c"
 Parameters:    Size  Location     Type
  s               1    wreg     PTR unsigned char 
		 -> USB_task@data(1), 
  len             2   12[BANK0 ] int 
 Auto vars:     Size  Location     Type
  s               1   16[BANK0 ] PTR unsigned char 
		 -> USB_task@data(1), 
  rx_len          2   14[BANK0 ] int 
 Return value:  Size  Location     Type
                  2   12[BANK0 ] int 
 Registers used:
		wreg, fsr1l, fsr1h, fsr2l, fsr2h, status,2, status,0, prodl, prodh, cstack
 Tracked objects:
		On entry : 
		On exit  : 
		Unchanged: 
 Data sizes:     COMRAM   BANK0   BANK1   BANK2   BANK3   BANK4   BANK5   BANK6   BANK7   BANK8   BANK9  BANK10  BANK11  BANK12  BANK13  BANK14
      Params:         0       2       0       0       0       0       0       0       0       0       0       0       0       0       0       0
      Locals:         0       3       0       0       0       0       0       0       0       0       0       0       0       0       0       0
      Temps:          0       0       0       0       0       0       0       0       0       0       0       0       0       0       0       0
      Totals:         0       5       0       0       0       0       0       0       0       0       0       0       0       0       0       0
Total ram usage:        5 bytes
 Hardware stack levels used:    1
 Hardware stack levels required when called:   13
 This function calls:
		_CDCTxService
		_getsUSBUSART
		_is_usb_available
 This function is called by:
		_USB_task
 This function uses a non-reentrant model


 *************** function _is_usb_available *****************
 Defined at:
		line 17 in file "../My_library/My_usb_cdc.c"
 Parameters:    Size  Location     Type
		None
 Auto vars:     Size  Location     Type
		None
 Return value:  Size  Location     Type
                  1    wreg      unsigned char 
 Registers used:
		wreg, status,2, status,0
 Tracked objects:
		On entry : 
		On exit  : 
		Unchanged: 
 Data sizes:     COMRAM   BANK0   BANK1   BANK2   BANK3   BANK4   BANK5   BANK6   BANK7   BANK8   BANK9  BANK10  BANK11  BANK12  BANK13  BANK14
      Params:         0       0       0       0       0       0       0       0       0       0       0       0       0       0       0       0
      Locals:         0       1       0       0       0       0       0       0       0       0       0       0       0       0       0       0
      Temps:          0       0       0       0       0       0       0       0       0       0       0       0       0       0       0       0
      Totals:         0       1       0       0       0       0       0       0       0       0       0       0       0       0       0       0
Total ram usage:        1 bytes
 Hardware stack levels used:    1
 Hardware stack levels required when called:   11
 This function calls:
		Nothing
 This function is called by:
		_put_string_usb
		_get_string_usb
 This function uses a non-reentrant model


 *************** function _getsUSBUSART *****************
 Defined at:
		line 542 in file "../My_library/usb/usb_device_cdc.c"
 Parameters:    Size  Location     Type
  buffer          1    wreg     PTR unsigned char 
		 -> USB_task@data(1), 
  len             1    7[BANK0 ] unsigned char 
 Auto vars:     Size  Location     Type
  buffer          1    9[BANK0 ] PTR unsigned char 
		 -> USB_task@data(1), 
 Return value:  Size  Location     Type
                  1    wreg      unsigned char 
 Registers used:
		wreg, fsr1l, fsr1h, fsr2l, fsr2h, status,2, status,0, prodl, prodh, cstack
 Tracked objects:
		On entry : 
		On exit  : 
		Unchanged: 
 Data sizes:     COMRAM   BANK0   BANK1   BANK2   BANK3   BANK4   BANK5   BANK6   BANK7   BANK8   BANK9  BANK10  BANK11  BANK12  BANK13  BANK14
      Params:         0       1       0       0       0       0       0       0       0       0       0       0       0       0       0       0
      Locals:         0       3       0       0       0       0       0       0       0       0       0       0       0       0       0       0
      Temps:          0       1       0       0       0       0       0       0       0       0       0       0       0       0       0       0
      Totals:         0       5       0       0       0       0       0       0       0       0       0       0       0       0       0       0
Total ram usage:        5 bytes
 Hardware stack levels used:    1
 Hardware stack levels required when called:   12
 This function calls:
		_USBTransferOnePacket
 This function is called by:
		_get_string_usb
 This function uses a non-reentrant model


 *************** function _CDCTxService *****************
 Defined at:
		line 893 in file "../My_library/usb/usb_device_cdc.c"
 Parameters:    Size  Location     Type
		None
 Auto vars:     Size  Location     Type
  byte_to_send    1   10[BANK0 ] unsigned char 
  i               1    9[BANK0 ] unsigned char 
 Return value:  Size  Location     Type
		None               void
 Registers used:
		wreg, fsr1l, fsr1h, fsr2l, fsr2h, status,2, status,0, prodl, prodh, cstack
 Tracked objects:
		On entry : 
		On exit  : 
		Unchanged: 
 Data sizes:     COMRAM   BANK0   BANK1   BANK2   BANK3   BANK4   BANK5   BANK6   BANK7   BANK8   BANK9  BANK10  BANK11  BANK12  BANK13  BANK14
      Params:         0       0       0       0       0       0       0       0       0       0       0       0       0       0       0       0
      Locals:         0       4       0       0       0       0       0       0       0       0       0       0       0       0       0       0
      Temps:          0       0       0       0       0       0       0       0       0       0       0       0       0       0       0       0
      Totals:         0       4       0       0       0       0       0       0       0       0       0       0       0       0       0       0
Total ram usage:        4 bytes
 Hardware stack levels used:    1
 Hardware stack levels required when called:   12
 This function calls:
		_USBTransferOnePacket
 This function is called by:
		_put_string_usb
		_get_string_usb
 This function uses a non-reentrant model


 *************** function _USBTransferOnePacket *****************
 Defined at:
		line 995 in file "../My_library/usb/usb_device.c"
 Parameters:    Size  Location     Type
  ep              1    wreg     unsigned char 
  dir             1    0[BANK0 ] unsigned char 
  data            2    1[BANK0 ] PTR unsigned char 
		 -> cdc_data_tx(64), cdc_data_rx(64), NULL(0), 
  len             1    3[BANK0 ] unsigned char 
 Auto vars:     Size  Location     Type
  ep              1    4[BANK0 ] unsigned char 
  handle          2    5[BANK0 ] PTR volatile struct __BD
		 -> NULL(0), BDT(48), 
 Return value:  Size  Location     Type
                  2    0[BANK0 ] PTR void 
 Registers used:
		wreg, fsr2l, fsr2h, status,2, status,0, prodl, prodh
 Tracked objects:
		On entry : 
		On exit  : 
		Unchanged: 
 Data sizes:     COMRAM   BANK0   BANK1   BANK2   BANK3   BANK4   BANK5   BANK6   BANK7   BANK8   BANK9  BANK10  BANK11  BANK12  BANK13  BANK14
      Params:         0       4       0       0       0       0       0       0       0       0       0       0       0       0       0       0
      Locals:         0       3       0       0       0       0       0       0       0       0       0       0       0       0       0       0
      Temps:          0       0       0       0       0       0       0       0       0       0       0       0       0       0       0       0
      Totals:         0       7       0       0       0       0       0       0       0       0       0       0       0       0       0       0
Total ram usage:        7 bytes
 Hardware stack levels used:    1
 Hardware stack levels required when called:   11
 This function calls:
		Nothing
 This function is called by:
		_getsUSBUSART
		_CDCTxService
 This function uses a non-reentrant model


 *************** function _ST7032_task *****************
 Defined at:
		line 102 in file "../My_library/My_ST7032.c"
 Parameters:    Size  Location     Type
		None
 Auto vars:     Size  Location     Type
  data            1   17[BANK0 ] unsigned char 
 Return value:  Size  Location     Type
		None               void
 Registers used:
		wreg, fsr1l, fsr1h, fsr2l, fsr2h, status,2, status,0, cstack
 Tracked objects:
		On entry : 
		On exit  : 
		Unchanged: 
 Data sizes:     COMRAM   BANK0   BANK1   BANK2   BANK3   BANK4   BANK5   BANK6   BANK7   BANK8   BANK9  BANK10  BANK11  BANK12  BANK13  BANK14
      Params:         0       0       0       0       0       0       0       0       0       0       0       0       0       0       0       0
      Locals:         0       1       0       0       0       0       0       0       0       0       0       0       0       0       0       0
      Temps:          0       2       0       0       0       0       0       0       0       0       0       0       0       0       0       0
      Totals:         0       3       0       0       0       0       0       0       0       0       0       0       0       0       0       0
Total ram usage:        3 bytes
 Hardware stack levels used:    1
 Hardware stack levels required when called:   13
 This function calls:
		_ringbuf_num
		_ringbuf_pop
 This function is called by:
		_main
 This function uses a non-reentrant model


 *************** function _ringbuf_pop *****************
 Defined at:
		line 45 in file "../My_library/My_ringbuf.c"
 Parameters:    Size  Location     Type
  rb              2    8[BANK0 ] PTR struct ringbuf
		 -> uart_tx(8), terminal_task@command(8), lcd_tx(8), usb_rx(8), 
		 -> usb_tx(8), 
 Auto vars:     Size  Location     Type
  ret             1   14[BANK0 ] unsigned char 
 Return value:  Size  Location     Type
                  1    wreg      unsigned char 
 Registers used:
		wreg, fsr1l, fsr1h, fsr2l, fsr2h, status,2, status,0, cstack
 Tracked objects:
		On entry : 
		On exit  : 
		Unchanged: 
 Data sizes:     COMRAM   BANK0   BANK1   BANK2   BANK3   BANK4   BANK5   BANK6   BANK7   BANK8   BANK9  BANK10  BANK11  BANK12  BANK13  BANK14
      Params:         0       2       0       0       0       0       0       0       0       0       0       0       0       0       0       0
      Locals:         0       1       0       0       0       0       0       0       0       0       0       0       0       0       0       0
      Temps:          0       4       0       0       0       0       0       0       0       0       0       0       0       0       0       0
      Totals:         0       7       0       0       0       0       0       0       0       0       0       0       0       0       0       0
Total ram usage:        7 bytes
 Hardware stack levels used:    1
 Hardware stack levels required when called:   12
 This function calls:
		_ringbuf_num
 This function is called by:
		_ST7032_task
		_terminal_task
		_USB_task
 This function uses a non-reentrant model


 *************** function _ringbuf_num *****************
 Defined at:
		line 12 in file "../My_library/My_ringbuf.c"
 Parameters:    Size  Location     Type
  rb              2    0[BANK0 ] PTR struct ringbuf
		 -> uart_rx(8), uart_tx(8), terminal_task@command(8), lcd_tx(8), 
		 -> usb_rx(8), usb_tx(8), 
 Auto vars:     Size  Location     Type
		None
 Return value:  Size  Location     Type
                  2    0[BANK0 ] unsigned int 
 Registers used:
		wreg, fsr1l, fsr1h, fsr2l, fsr2h, status,2, status,0
 Tracked objects:
		On entry : 
		On exit  : 
		Unchanged: 
 Data sizes:     COMRAM   BANK0   BANK1   BANK2   BANK3   BANK4   BANK5   BANK6   BANK7   BANK8   BANK9  BANK10  BANK11  BANK12  BANK13  BANK14
      Params:         0       2       0       0       0       0       0       0       0       0       0       0       0       0       0       0
      Locals:         0       0       0       0       0       0       0       0       0       0       0       0       0       0       0       0
      Temps:          0       6       0       0       0       0       0       0       0       0       0       0       0       0       0       0
      Totals:         0       8       0       0       0       0       0       0       0       0       0       0       0       0       0       0
Total ram usage:        8 bytes
 Hardware stack levels used:    1
 Hardware stack levels required when called:   11
 This function calls:
		Nothing
 This function is called by:
		_ringbuf_put
		_ringbuf_pop
		_ringbuf_backspace
		_ST7032_task
		_terminal_task
		_USB_task
 This function uses a non-reentrant model


 *************** function _RTCC_task *****************
 Defined at:
		line 353 in file "../My_library/My_RTCC.c"
 Parameters:    Size  Location     Type
		None
 Auto vars:     Size  Location     Type
		None
 Return value:  Size  Location     Type
		None               void
 Registers used:
		wreg, fsr2l, fsr2h, status,2, status,0, prodl, prodh, cstack
 Tracked objects:
		On entry : 
		On exit  : 
		Unchanged: 
 Data sizes:     COMRAM   BANK0   BANK1   BANK2   BANK3   BANK4   BANK5   BANK6   BANK7   BANK8   BANK9  BANK10  BANK11  BANK12  BANK13  BANK14
      Params:         0       0       0       0       0       0       0       0       0       0       0       0       0       0       0       0
      Locals:         0       0       0       0       0       0       0       0       0       0       0       0       0       0       0       0
      Temps:          0       0       0       0       0       0       0       0       0       0       0       0       0       0       0       0
      Totals:         0       0       0       0       0       0       0       0       0       0       0       0       0       0       0       0
Total ram usage:        0 bytes
 Hardware stack levels used:    1
 Hardware stack levels required when called:   15
 This function calls:
		_RTCC_from_RTCC
 This function is called by:
		_main
 This function uses a non-reentrant model


 *************** function _RTCC_from_RTCC *****************
 Defined at:
		line 200 in file "../My_library/My_RTCC.c"
 Parameters:    Size  Location     Type
  tm              2   38[BANK0 ] PTR struct .
		 -> now(14), 
 Auto vars:     Size  Location     Type
		None
 Return value:  Size  Location     Type
		None               void
 Registers used:
		wreg, fsr2l, fsr2h, status,2, status,0, prodl, prodh, cstack
 Tracked objects:
		On entry : 
		On exit  : 
		Unchanged: 
 Data sizes:     COMRAM   BANK0   BANK1   BANK2   BANK3   BANK4   BANK5   BANK6   BANK7   BANK8   BANK9  BANK10  BANK11  BANK12  BANK13  BANK14
      Params:         0       2       0       0       0       0       0       0       0       0       0       0       0       0       0       0
      Locals:         0       0       0       0       0       0       0       0       0       0       0       0       0       0       0       0
      Temps:          0       0       0       0       0       0       0       0       0       0       0       0       0       0       0       0
      Totals:         0       2       0       0       0       0       0       0       0       0       0       0       0       0       0       0
Total ram usage:        2 bytes
 Hardware stack levels used:    1
 Hardware stack levels required when called:   14
 This function calls:
		_RTCC_to_caltime
		_caltime_to_epoch
 This function is called by:
		_RTCC_init
		_display_time_1602
		_RTCC_adjust_time_inc
		_RTCC_adjust_time_dec
		_RTCC_task
		_print_time
 This function uses a non-reentrant model


 *************** function _caltime_to_epoch *****************
 Defined at:
		line 180 in file "../My_library/My_RTCC.c"
 Parameters:    Size  Location     Type
  tm              2   25[BANK0 ] PTR struct .
		 -> now(14), 
 Auto vars:     Size  Location     Type
  month           1   37[BANK0 ] unsigned char 
  month           1   32[BANK0 ] unsigned char 
  year            1   31[BANK0 ] unsigned char 
  epoch           4   33[BANK0 ] unsigned long 
 Return value:  Size  Location     Type
		None               void
 Registers used:
		wreg, fsr2l, fsr2h, status,2, status,0, cstack
 Tracked objects:
		On entry : 
		On exit  : 
		Unchanged: 
 Data sizes:     COMRAM   BANK0   BANK1   BANK2   BANK3   BANK4   BANK5   BANK6   BANK7   BANK8   BANK9  BANK10  BANK11  BANK12  BANK13  BANK14
      Params:         0       2       0       0       0       0       0       0       0       0       0       0       0       0       0       0
      Locals:         0       7       0       0       0       0       0       0       0       0       0       0       0       0       0       0
      Temps:          0       4       0       0       0       0       0       0       0       0       0       0       0       0       0       0
      Totals:         0      13       0       0       0       0       0       0       0       0       0       0       0       0       0       0
Total ram usage:       13 bytes
 Hardware stack levels used:    1
 Hardware stack levels required when called:   13
 This function calls:
		___lmul
		_month_length
 This function is called by:
		_RTCC_from_RTCC
		_RTCC_from_caltime
 This function uses a non-reentrant model


 *************** function _month_length *****************
 Defined at:
		line 56 in file "../My_library/My_RTCC.c"
 Parameters:    Size  Location     Type
  year            1    wreg     unsigned char 
  month           1    6[BANK0 ] unsigned char 
 Auto vars:     Size  Location     Type
  year            1   11[BANK0 ] unsigned char 
 Return value:  Size  Location     Type
                  1    wreg      unsigned char 
 Registers used:
		wreg, status,2, status,0, cstack
 Tracked objects:
		On entry : 
		On exit  : 
		Unchanged: 
 Data sizes:     COMRAM   BANK0   BANK1   BANK2   BANK3   BANK4   BANK5   BANK6   BANK7   BANK8   BANK9  BANK10  BANK11  BANK12  BANK13  BANK14
      Params:         0       1       0       0       0       0       0       0       0       0       0       0       0       0       0       0
      Locals:         0       1       0       0       0       0       0       0       0       0       0       0       0       0       0       0
      Temps:          0       4       0       0       0       0       0       0       0       0       0       0       0       0       0       0
      Totals:         0       6       0       0       0       0       0       0       0       0       0       0       0       0       0       0
Total ram usage:        6 bytes
 Hardware stack levels used:    1
 Hardware stack levels required when called:   12
 This function calls:
		___awmod
		___lbmod
 This function is called by:
		_epoch_to_caltime
		_caltime_to_epoch
		_RTCC_adjust_time_inc
		_RTCC_adjust_time_dec
		_terminal_time
 This function uses a non-reentrant model


 *************** function ___lbmod *****************
 Defined at:
		line 4 in file "C:\Program Files (x86)\Microchip\xc8\v1.35\sources\common\lbmod.c"
 Parameters:    Size  Location     Type
  dividend        1    wreg     unsigned char 
  divisor         1    0[BANK0 ] unsigned char 
 Auto vars:     Size  Location     Type
  dividend        1    1[BANK0 ] unsigned char 
  rem             1    3[BANK0 ] unsigned char 
  counter         1    2[BANK0 ] unsigned char 
 Return value:  Size  Location     Type
                  1    wreg      unsigned char 
 Registers used:
		wreg, status,2, status,0
 Tracked objects:
		On entry : 
		On exit  : 
		Unchanged: 
 Data sizes:     COMRAM   BANK0   BANK1   BANK2   BANK3   BANK4   BANK5   BANK6   BANK7   BANK8   BANK9  BANK10  BANK11  BANK12  BANK13  BANK14
      Params:         0       1       0       0       0       0       0       0       0       0       0       0       0       0       0       0
      Locals:         0       3       0       0       0       0       0       0       0       0       0       0       0       0       0       0
      Temps:          0       0       0       0       0       0       0       0       0       0       0       0       0       0       0       0
      Totals:         0       4       0       0       0       0       0       0       0       0       0       0       0       0       0       0
Total ram usage:        4 bytes
 Hardware stack levels used:    1
 Hardware stack levels required when called:   11
 This function calls:
		Nothing
 This function is called by:
		_month_length
 This function uses a non-reentrant model


 *************** function ___awmod *****************
 Defined at:
		line 8 in file "C:\Program Files (x86)\Microchip\xc8\v1.35\sources\common\awmod.c"
 Parameters:    Size  Location     Type
  dividend        2    0[BANK0 ] int 
  divisor         2    2[BANK0 ] int 
 Auto vars:     Size  Location     Type
  sign            1    5[BANK0 ] unsigned char 
  counter         1    4[BANK0 ] unsigned char 
 Return value:  Size  Location     Type
                  2    0[BANK0 ] int 
 Registers used:
		wreg, status,2, status,0
 Tracked objects:
		On entry : 
		On exit  : 
		Unchanged: 
 Data sizes:     COMRAM   BANK0   BANK1   BANK2   BANK3   BANK4   BANK5   BANK6   BANK7   BANK8   BANK9  BANK10  BANK11  BANK12  BANK13  BANK14
      Params:         0       4       0       0       0       0       0       0       0       0       0       0       0       0       0       0
      Locals:         0       2       0       0       0       0       0       0       0       0       0       0       0       0       0       0
      Temps:          0       0       0       0       0       0       0       0       0       0       0       0       0       0       0       0
      Totals:         0       6       0       0       0       0       0       0       0       0       0       0       0       0       0       0
Total ram usage:        6 bytes
 Hardware stack levels used:    1
 Hardware stack levels required when called:   11
 This function calls:
		Nothing
 This function is called by:
		_month_length
 This function uses a non-reentrant model


 *************** function ___lmul *****************
 Defined at:
		line 15 in file "C:\Program Files (x86)\Microchip\xc8\v1.35\sources\common\Umul32.c"
 Parameters:    Size  Location     Type
  multiplier      4   13[BANK0 ] unsigned long 
  multiplicand    4   17[BANK0 ] unsigned long 
 Auto vars:     Size  Location     Type
  product         4   21[BANK0 ] unsigned long 
 Return value:  Size  Location     Type
                  4   13[BANK0 ] unsigned long 
 Registers used:
		wreg, status,2, status,0
 Tracked objects:
		On entry : 
		On exit  : 
		Unchanged: 
 Data sizes:     COMRAM   BANK0   BANK1   BANK2   BANK3   BANK4   BANK5   BANK6   BANK7   BANK8   BANK9  BANK10  BANK11  BANK12  BANK13  BANK14
      Params:         0       8       0       0       0       0       0       0       0       0       0       0       0       0       0       0
      Locals:         0       4       0       0       0       0       0       0       0       0       0       0       0       0       0       0
      Temps:          0       0       0       0       0       0       0       0       0       0       0       0       0       0       0       0
      Totals:         0      12       0       0       0       0       0       0       0       0       0       0       0       0       0       0
Total ram usage:       12 bytes
 Hardware stack levels used:    1
 Hardware stack levels required when called:   11
 This function calls:
		Nothing
 This function is called by:
		_get_quot_rem
		_caltime_to_epoch
		_RTCC_adjust_time_inc
		_RTCC_adjust_time_dec
 This function uses a non-reentrant model


 *************** function _RTCC_to_caltime *****************
 Defined at:
		line 90 in file "../My_library/My_RTCC.c"
 Parameters:    Size  Location     Type
  tm              2    2[BANK0 ] PTR struct .
		 -> now(14), 
 Auto vars:     Size  Location     Type
  dumy            1    0        unsigned char 
 Return value:  Size  Location     Type
		None               void
 Registers used:
		wreg, fsr2l, fsr2h, status,2, status,0, prodl, prodh, cstack
 Tracked objects:
		On entry : 
		On exit  : 
		Unchanged: 
 Data sizes:     COMRAM   BANK0   BANK1   BANK2   BANK3   BANK4   BANK5   BANK6   BANK7   BANK8   BANK9  BANK10  BANK11  BANK12  BANK13  BANK14
      Params:         0       2       0       0       0       0       0       0       0       0       0       0       0       0       0       0
      Locals:         0       0       0       0       0       0       0       0       0       0       0       0       0       0       0       0
      Temps:          0       0       0       0       0       0       0       0       0       0       0       0       0       0       0       0
      Totals:         0       2       0       0       0       0       0       0       0       0       0       0       0       0       0       0
Total ram usage:        2 bytes
 Hardware stack levels used:    1
 Hardware stack levels required when called:   12
 This function calls:
		_x_to_d
 This function is called by:
		_RTCC_from_RTCC
 This function uses a non-reentrant model


 *************** function _x_to_d *****************
 Defined at:
		line 52 in file "../My_library/My_RTCC.c"
 Parameters:    Size  Location     Type
  hex             1    wreg     unsigned char 
 Auto vars:     Size  Location     Type
  hex             1    1[BANK0 ] unsigned char 
 Return value:  Size  Location     Type
                  1    wreg      unsigned char 
 Registers used:
		wreg, status,2, status,0, prodl, prodh
 Tracked objects:
		On entry : 
		On exit  : 
		Unchanged: 
 Data sizes:     COMRAM   BANK0   BANK1   BANK2   BANK3   BANK4   BANK5   BANK6   BANK7   BANK8   BANK9  BANK10  BANK11  BANK12  BANK13  BANK14
      Params:         0       0       0       0       0       0       0       0       0       0       0       0       0       0       0       0
      Locals:         0       1       0       0       0       0       0       0       0       0       0       0       0       0       0       0
      Temps:          0       1       0       0       0       0       0       0       0       0       0       0       0       0       0       0
      Totals:         0       2       0       0       0       0       0       0       0       0       0       0       0       0       0       0
Total ram usage:        2 bytes
 Hardware stack levels used:    1
 Hardware stack levels required when called:   11
 This function calls:
		Nothing
 This function is called by:
		_RTCC_to_caltime
 This function uses a non-reentrant model


 *************** function _ISR *****************
 Defined at:
		line 49 in file "main.c"
 Parameters:    Size  Location     Type
		None
 Auto vars:     Size  Location     Type
		None
 Return value:  Size  Location     Type
		None               void
 Registers used:
		wreg, fsr1l, fsr1h, fsr2l, fsr2h, status,2, status,0, tblptrl, tblptrh, tblptru, prodl, prodh, cstack
 Tracked objects:
		On entry : 
		On exit  : 
		Unchanged: 
 Data sizes:     COMRAM   BANK0   BANK1   BANK2   BANK3   BANK4   BANK5   BANK6   BANK7   BANK8   BANK9  BANK10  BANK11  BANK12  BANK13  BANK14
      Params:         0       0       0       0       0       0       0       0       0       0       0       0       0       0       0       0
      Locals:         0       0       0       0       0       0       0       0       0       0       0       0       0       0       0       0
      Temps:         10       0       0       0       0       0       0       0       0       0       0       0       0       0       0       0
      Totals:        10       0       0       0       0       0       0       0       0       0       0       0       0       0       0       0
Total ram usage:       10 bytes
 Hardware stack levels used:    1
 Hardware stack levels required when called:   10
 This function calls:
		_LED_indicator
		_USB_ISR
		_millis_timer
 This function is called by:
		Interrupt level 2
 This function uses a non-reentrant model


 *************** function _millis_timer *****************
 Defined at:
		line 219 in file "../My_library/My_PIC.c"
 Parameters:    Size  Location     Type
		None
 Auto vars:     Size  Location     Type
		None
 Return value:  Size  Location     Type
		None               void
 Registers used:
		wreg, status,2, status,0
 Tracked objects:
		On entry : 
		On exit  : 
		Unchanged: 
 Data sizes:     COMRAM   BANK0   BANK1   BANK2   BANK3   BANK4   BANK5   BANK6   BANK7   BANK8   BANK9  BANK10  BANK11  BANK12  BANK13  BANK14
      Params:         0       0       0       0       0       0       0       0       0       0       0       0       0       0       0       0
      Locals:         0       0       0       0       0       0       0       0       0       0       0       0       0       0       0       0
      Temps:          0       0       0       0       0       0       0       0       0       0       0       0       0       0       0       0
      Totals:         0       0       0       0       0       0       0       0       0       0       0       0       0       0       0       0
Total ram usage:        0 bytes
 Hardware stack levels used:    1
 This function calls:
		Nothing
 This function is called by:
		_ISR
 This function uses a non-reentrant model


 *************** function _USB_ISR *****************
 Defined at:
		line 7 in file "../My_library/My_usb_cdc.c"
 Parameters:    Size  Location     Type
		None
 Auto vars:     Size  Location     Type
		None
 Return value:  Size  Location     Type
		None               void
 Registers used:
		wreg, fsr1l, fsr1h, fsr2l, fsr2h, status,2, status,0, tblptrl, tblptrh, tblptru, prodl, prodh, cstack
 Tracked objects:
		On entry : 
		On exit  : 
		Unchanged: 
 Data sizes:     COMRAM   BANK0   BANK1   BANK2   BANK3   BANK4   BANK5   BANK6   BANK7   BANK8   BANK9  BANK10  BANK11  BANK12  BANK13  BANK14
      Params:         0       0       0       0       0       0       0       0       0       0       0       0       0       0       0       0
      Locals:         0       0       0       0       0       0       0       0       0       0       0       0       0       0       0       0
      Temps:          0       0       0       0       0       0       0       0       0       0       0       0       0       0       0       0
      Totals:         0       0       0       0       0       0       0       0       0       0       0       0       0       0       0       0
Total ram usage:        0 bytes
 Hardware stack levels used:    1
 Hardware stack levels required when called:    9
 This function calls:
		_USBDeviceTasks
 This function is called by:
		_ISR
 This function uses a non-reentrant model


 *************** function _USBDeviceTasks *****************
 Defined at:
		line 489 in file "../My_library/usb/usb_device.c"
 Parameters:    Size  Location     Type
		None
 Auto vars:     Size  Location     Type
  i               1   30[COMRAM] unsigned char 
 Return value:  Size  Location     Type
		None               void
 Registers used:
		wreg, fsr1l, fsr1h, fsr2l, fsr2h, status,2, status,0, tblptrl, tblptrh, tblptru, prodl, prodh, cstack
 Tracked objects:
		On entry : 
		On exit  : 
		Unchanged: 
 Data sizes:     COMRAM   BANK0   BANK1   BANK2   BANK3   BANK4   BANK5   BANK6   BANK7   BANK8   BANK9  BANK10  BANK11  BANK12  BANK13  BANK14
      Params:         0       0       0       0       0       0       0       0       0       0       0       0       0       0       0       0
      Locals:         1       0       0       0       0       0       0       0       0       0       0       0       0       0       0       0
      Temps:          0       0       0       0       0       0       0       0       0       0       0       0       0       0       0       0
      Totals:         1       0       0       0       0       0       0       0       0       0       0       0       0       0       0       0
Total ram usage:        1 bytes
 Hardware stack levels used:    1
 Hardware stack levels required when called:    8
 This function calls:
		_USBCtrlEPAllowStatusStage
		_USBCtrlEPService
		_USBStallHandler
		_USBSuspend
		_USBWakeFromSuspend
		_USER_USB_CALLBACK_EVENT_HANDLER
		i2_USBDeviceInit
 This function is called by:
		_USB_ISR
 This function uses a non-reentrant model


 *************** function i2_USBDeviceInit *****************
 Defined at:
		line 298 in file "../My_library/usb/usb_device.c"
 Parameters:    Size  Location     Type
		None
 Auto vars:     Size  Location     Type
  USBDeviceIni    1    8[COMRAM] unsigned char 
 Return value:  Size  Location     Type
		None               void
 Registers used:
		wreg, fsr2l, fsr2h, status,2, status,0, prodl, prodh, cstack
 Tracked objects:
		On entry : 
		On exit  : 
		Unchanged: 
 Data sizes:     COMRAM   BANK0   BANK1   BANK2   BANK3   BANK4   BANK5   BANK6   BANK7   BANK8   BANK9  BANK10  BANK11  BANK12  BANK13  BANK14
      Params:         0       0       0       0       0       0       0       0       0       0       0       0       0       0       0       0
      Locals:         1       0       0       0       0       0       0       0       0       0       0       0       0       0       0       0
      Temps:          0       0       0       0       0       0       0       0       0       0       0       0       0       0       0       0
      Totals:         1       0       0       0       0       0       0       0       0       0       0       0       0       0       0       0
Total ram usage:        1 bytes
 Hardware stack levels used:    1
 Hardware stack levels required when called:    1
 This function calls:
		i2_memset
 This function is called by:
		_USBDeviceTasks
 This function uses a non-reentrant model


 *************** function _USBWakeFromSuspend *****************
 Defined at:
		line 2302 in file "../My_library/usb/usb_device.c"
 Parameters:    Size  Location     Type
		None
 Auto vars:     Size  Location     Type
		None
 Return value:  Size  Location     Type
		None               void
 Registers used:
		wreg, fsr2l, fsr2h, status,2, status,0, prodl, prodh, cstack
 Tracked objects:
		On entry : 
		On exit  : 
		Unchanged: 
 Data sizes:     COMRAM   BANK0   BANK1   BANK2   BANK3   BANK4   BANK5   BANK6   BANK7   BANK8   BANK9  BANK10  BANK11  BANK12  BANK13  BANK14
      Params:         0       0       0       0       0       0       0       0       0       0       0       0       0       0       0       0
      Locals:         0       0       0       0       0       0       0       0       0       0       0       0       0       0       0       0
      Temps:          0       0       0       0       0       0       0       0       0       0       0       0       0       0       0       0
      Totals:         0       0       0       0       0       0       0       0       0       0       0       0       0       0       0       0
Total ram usage:        0 bytes
 Hardware stack levels used:    1
 Hardware stack levels required when called:    4
 This function calls:
		_USER_USB_CALLBACK_EVENT_HANDLER
 This function is called by:
		_USBDeviceTasks
 This function uses a non-reentrant model


 *************** function _USBSuspend *****************
 Defined at:
		line 2245 in file "../My_library/usb/usb_device.c"
 Parameters:    Size  Location     Type
		None
 Auto vars:     Size  Location     Type
		None
 Return value:  Size  Location     Type
		None               void
 Registers used:
		wreg, fsr2l, fsr2h, status,2, status,0, prodl, prodh, cstack
 Tracked objects:
		On entry : 
		On exit  : 
		Unchanged: 
 Data sizes:     COMRAM   BANK0   BANK1   BANK2   BANK3   BANK4   BANK5   BANK6   BANK7   BANK8   BANK9  BANK10  BANK11  BANK12  BANK13  BANK14
      Params:         0       0       0       0       0       0       0       0       0       0       0       0       0       0       0       0
      Locals:         0       0       0       0       0       0       0       0       0       0       0       0       0       0       0       0
      Temps:          0       0       0       0       0       0       0       0       0       0       0       0       0       0       0       0
      Totals:         0       0       0       0       0       0       0       0       0       0       0       0       0       0       0       0
Total ram usage:        0 bytes
 Hardware stack levels used:    1
 Hardware stack levels required when called:    4
 This function calls:
		_USER_USB_CALLBACK_EVENT_HANDLER
 This function is called by:
		_USBDeviceTasks
 This function uses a non-reentrant model


 *************** function _USBStallHandler *****************
 Defined at:
		line 2202 in file "../My_library/usb/usb_device.c"
 Parameters:    Size  Location     Type
		None
 Auto vars:     Size  Location     Type
		None
 Return value:  Size  Location     Type
		None               void
 Registers used:
		wreg, fsr2l, fsr2h, status,2, status,0
 Tracked objects:
		On entry : 
		On exit  : 
		Unchanged: 
 Data sizes:     COMRAM   BANK0   BANK1   BANK2   BANK3   BANK4   BANK5   BANK6   BANK7   BANK8   BANK9  BANK10  BANK11  BANK12  BANK13  BANK14
      Params:         0       0       0       0       0       0       0       0       0       0       0       0       0       0       0       0
      Locals:         0       0       0       0       0       0       0       0       0       0       0       0       0       0       0       0
      Temps:          1       0       0       0       0       0       0       0       0       0       0       0       0       0       0       0
      Totals:         1       0       0       0       0       0       0       0       0       0       0       0       0       0       0       0
Total ram usage:        1 bytes
 Hardware stack levels used:    1
 This function calls:
		Nothing
 This function is called by:
		_USBDeviceTasks
 This function uses a non-reentrant model


 *************** function _USBCtrlEPService *****************
 Defined at:
		line 2369 in file "../My_library/usb/usb_device.c"
 Parameters:    Size  Location     Type
		None
 Auto vars:     Size  Location     Type
  setup_cnt       1   29[COMRAM] unsigned char 
 Return value:  Size  Location     Type
		None               void
 Registers used:
		wreg, fsr1l, fsr1h, fsr2l, fsr2h, status,2, status,0, tblptrl, tblptrh, tblptru, prodl, prodh, cstack
 Tracked objects:
		On entry : 
		On exit  : 
		Unchanged: 
 Data sizes:     COMRAM   BANK0   BANK1   BANK2   BANK3   BANK4   BANK5   BANK6   BANK7   BANK8   BANK9  BANK10  BANK11  BANK12  BANK13  BANK14
      Params:         0       0       0       0       0       0       0       0       0       0       0       0       0       0       0       0
      Locals:         1       0       0       0       0       0       0       0       0       0       0       0       0       0       0       0
      Temps:          2       0       0       0       0       0       0       0       0       0       0       0       0       0       0       0
      Totals:         3       0       0       0       0       0       0       0       0       0       0       0       0       0       0       0
Total ram usage:        3 bytes
 Hardware stack levels used:    1
 Hardware stack levels required when called:    7
 This function calls:
		_USBCtrlTrfInHandler
		_USBCtrlTrfOutHandler
		_USBCtrlTrfSetupHandler
 This function is called by:
		_USBDeviceTasks
 This function uses a non-reentrant model


 *************** function _USBCtrlTrfSetupHandler *****************
 Defined at:
		line 2469 in file "../My_library/usb/usb_device.c"
 Parameters:    Size  Location     Type
		None
 Auto vars:     Size  Location     Type
		None
 Return value:  Size  Location     Type
		None               void
 Registers used:
		wreg, fsr1l, fsr1h, fsr2l, fsr2h, status,2, status,0, tblptrl, tblptrh, tblptru, prodl, prodh, cstack
 Tracked objects:
		On entry : 
		On exit  : 
		Unchanged: 
 Data sizes:     COMRAM   BANK0   BANK1   BANK2   BANK3   BANK4   BANK5   BANK6   BANK7   BANK8   BANK9  BANK10  BANK11  BANK12  BANK13  BANK14
      Params:         0       0       0       0       0       0       0       0       0       0       0       0       0       0       0       0
      Locals:         0       0       0       0       0       0       0       0       0       0       0       0       0       0       0       0
      Temps:          0       0       0       0       0       0       0       0       0       0       0       0       0       0       0       0
      Totals:         0       0       0       0       0       0       0       0       0       0       0       0       0       0       0       0
Total ram usage:        0 bytes
 Hardware stack levels used:    1
 Hardware stack levels required when called:    6
 This function calls:
		_USBCheckStdRequest
		_USBCtrlEPServiceComplete
		_USER_USB_CALLBACK_EVENT_HANDLER
 This function is called by:
		_USBCtrlEPService
 This function uses a non-reentrant model


 *************** function _USBCtrlEPServiceComplete *****************
 Defined at:
		line 1616 in file "../My_library/usb/usb_device.c"
 Parameters:    Size  Location     Type
		None
 Auto vars:     Size  Location     Type
		None
 Return value:  Size  Location     Type
		None               void
 Registers used:
		wreg, fsr1l, fsr1h, fsr2l, fsr2h, status,2, status,0, tblptrl, tblptrh, tblptru, cstack
 Tracked objects:
		On entry : 
		On exit  : 
		Unchanged: 
 Data sizes:     COMRAM   BANK0   BANK1   BANK2   BANK3   BANK4   BANK5   BANK6   BANK7   BANK8   BANK9  BANK10  BANK11  BANK12  BANK13  BANK14
      Params:         0       0       0       0       0       0       0       0       0       0       0       0       0       0       0       0
      Locals:         0       0       0       0       0       0       0       0       0       0       0       0       0       0       0       0
      Temps:          0       0       0       0       0       0       0       0       0       0       0       0       0       0       0       0
      Totals:         0       0       0       0       0       0       0       0       0       0       0       0       0       0       0       0
Total ram usage:        0 bytes
 Hardware stack levels used:    1
 Hardware stack levels required when called:    2
 This function calls:
		_USBCtrlEPAllowDataStage
		_USBCtrlEPAllowStatusStage
 This function is called by:
		_USBCtrlTrfSetupHandler
 This function uses a non-reentrant model


 *************** function _USBCtrlEPAllowDataStage *****************
 Defined at:
		line 1488 in file "../My_library/usb/usb_device.c"
 Parameters:    Size  Location     Type
		None
 Auto vars:     Size  Location     Type
		None
 Return value:  Size  Location     Type
		None               void
 Registers used:
		wreg, fsr1l, fsr1h, fsr2l, fsr2h, status,2, status,0, tblptrl, tblptrh, tblptru, cstack
 Tracked objects:
		On entry : 
		On exit  : 
		Unchanged: 
 Data sizes:     COMRAM   BANK0   BANK1   BANK2   BANK3   BANK4   BANK5   BANK6   BANK7   BANK8   BANK9  BANK10  BANK11  BANK12  BANK13  BANK14
      Params:         0       0       0       0       0       0       0       0       0       0       0       0       0       0       0       0
      Locals:         0       0       0       0       0       0       0       0       0       0       0       0       0       0       0       0
      Temps:          0       0       0       0       0       0       0       0       0       0       0       0       0       0       0       0
      Totals:         0       0       0       0       0       0       0       0       0       0       0       0       0       0       0       0
Total ram usage:        0 bytes
 Hardware stack levels used:    1
 Hardware stack levels required when called:    1
 This function calls:
		_USBCtrlTrfTxService
 This function is called by:
		_USBCtrlEPServiceComplete
 This function uses a non-reentrant model


 *************** function _USBCheckStdRequest *****************
 Defined at:
		line 2689 in file "../My_library/usb/usb_device.c"
 Parameters:    Size  Location     Type
		None
 Auto vars:     Size  Location     Type
		None
 Return value:  Size  Location     Type
		None               void
 Registers used:
		wreg, fsr1l, fsr1h, fsr2l, fsr2h, status,2, status,0, tblptrl, tblptrh, tblptru, prodl, prodh, cstack
 Tracked objects:
		On entry : 
		On exit  : 
		Unchanged: 
 Data sizes:     COMRAM   BANK0   BANK1   BANK2   BANK3   BANK4   BANK5   BANK6   BANK7   BANK8   BANK9  BANK10  BANK11  BANK12  BANK13  BANK14
      Params:         0       0       0       0       0       0       0       0       0       0       0       0       0       0       0       0
      Locals:         0       0       0       0       0       0       0       0       0       0       0       0       0       0       0       0
      Temps:          0       0       0       0       0       0       0       0       0       0       0       0       0       0       0       0
      Totals:         0       0       0       0       0       0       0       0       0       0       0       0       0       0       0       0
Total ram usage:        0 bytes
 Hardware stack levels used:    1
 Hardware stack levels required when called:    5
 This function calls:
		_USBStdFeatureReqHandler
		_USBStdGetDscHandler
		_USBStdGetStatusHandler
		_USBStdSetCfgHandler
		_USER_USB_CALLBACK_EVENT_HANDLER
 This function is called by:
		_USBCtrlTrfSetupHandler
 This function uses a non-reentrant model


 *************** function _USBStdSetCfgHandler *****************
 Defined at:
		line 1968 in file "../My_library/usb/usb_device.c"
 Parameters:    Size  Location     Type
		None
 Auto vars:     Size  Location     Type
  i               1   20[COMRAM] unsigned char 
 Return value:  Size  Location     Type
		None               void
 Registers used:
		wreg, fsr2l, fsr2h, status,2, status,0, prodl, prodh, cstack
 Tracked objects:
		On entry : 
		On exit  : 
		Unchanged: 
 Data sizes:     COMRAM   BANK0   BANK1   BANK2   BANK3   BANK4   BANK5   BANK6   BANK7   BANK8   BANK9  BANK10  BANK11  BANK12  BANK13  BANK14
      Params:         0       0       0       0       0       0       0       0       0       0       0       0       0       0       0       0
      Locals:         1       0       0       0       0       0       0       0       0       0       0       0       0       0       0       0
      Temps:          0       0       0       0       0       0       0       0       0       0       0       0       0       0       0       0
      Totals:         1       0       0       0       0       0       0       0       0       0       0       0       0       0       0       0
Total ram usage:        1 bytes
 Hardware stack levels used:    1
 Hardware stack levels required when called:    4
 This function calls:
		_USER_USB_CALLBACK_EVENT_HANDLER
		i2_memset
 This function is called by:
		_USBCheckStdRequest
 This function uses a non-reentrant model


 *************** function i2_memset *****************
 Defined at:
		line 8 in file "C:\Program Files (x86)\Microchip\xc8\v1.35\sources\common\memset.c"
 Parameters:    Size  Location     Type
  p1              2    0[COMRAM] PTR void 
		 -> USBAlternateInterface(2), BDT(48), UEP1(1), 
  c               2    2[COMRAM] int 
  n               2    4[COMRAM] unsigned int 
 Auto vars:     Size  Location     Type
  memset          2    6[COMRAM] PTR unsigned char 
		 -> USBAlternateInterface(2), BDT(48), UEP1(1), 
 Return value:  Size  Location     Type
                  2    0[COMRAM] PTR void 
 Registers used:
		wreg, fsr2l, fsr2h, status,2, status,0
 Tracked objects:
		On entry : 
		On exit  : 
		Unchanged: 
 Data sizes:     COMRAM   BANK0   BANK1   BANK2   BANK3   BANK4   BANK5   BANK6   BANK7   BANK8   BANK9  BANK10  BANK11  BANK12  BANK13  BANK14
      Params:         6       0       0       0       0       0       0       0       0       0       0       0       0       0       0       0
      Locals:         2       0       0       0       0       0       0       0       0       0       0       0       0       0       0       0
      Temps:          0       0       0       0       0       0       0       0       0       0       0       0       0       0       0       0
      Totals:         8       0       0       0       0       0       0       0       0       0       0       0       0       0       0       0
Total ram usage:        8 bytes
 Hardware stack levels used:    1
 This function calls:
		Nothing
 This function is called by:
		_USBStdSetCfgHandler
		i2_USBDeviceInit
 This function uses a non-reentrant model


 *************** function _USBStdGetStatusHandler *****************
 Defined at:
		line 2129 in file "../My_library/usb/usb_device.c"
 Parameters:    Size  Location     Type
		None
 Auto vars:     Size  Location     Type
  p               2    0[COMRAM] PTR struct __BDT
		 -> NULL(0), BDT(48), 
 Return value:  Size  Location     Type
		None               void
 Registers used:
		wreg, fsr2l, fsr2h, status,2, status,0, prodl, prodh
 Tracked objects:
		On entry : 
		On exit  : 
		Unchanged: 
 Data sizes:     COMRAM   BANK0   BANK1   BANK2   BANK3   BANK4   BANK5   BANK6   BANK7   BANK8   BANK9  BANK10  BANK11  BANK12  BANK13  BANK14
      Params:         0       0       0       0       0       0       0       0       0       0       0       0       0       0       0       0
      Locals:         2       0       0       0       0       0       0       0       0       0       0       0       0       0       0       0
      Temps:          0       0       0       0       0       0       0       0       0       0       0       0       0       0       0       0
      Totals:         2       0       0       0       0       0       0       0       0       0       0       0       0       0       0       0
Total ram usage:        2 bytes
 Hardware stack levels used:    1
 This function calls:
		Nothing
 This function is called by:
		_USBCheckStdRequest
 This function uses a non-reentrant model


 *************** function _USBStdGetDscHandler *****************
 Defined at:
		line 2043 in file "../My_library/usb/usb_device.c"
 Parameters:    Size  Location     Type
		None
 Auto vars:     Size  Location     Type
		None
 Return value:  Size  Location     Type
		None               void
 Registers used:
		wreg, fsr1l, fsr1h, status,2, status,0, tblptrl, tblptrh, tblptru, prodl, prodh
 Tracked objects:
		On entry : 
		On exit  : 
		Unchanged: 
 Data sizes:     COMRAM   BANK0   BANK1   BANK2   BANK3   BANK4   BANK5   BANK6   BANK7   BANK8   BANK9  BANK10  BANK11  BANK12  BANK13  BANK14
      Params:         0       0       0       0       0       0       0       0       0       0       0       0       0       0       0       0
      Locals:         0       0       0       0       0       0       0       0       0       0       0       0       0       0       0       0
      Temps:          2       0       0       0       0       0       0       0       0       0       0       0       0       0       0       0
      Totals:         2       0       0       0       0       0       0       0       0       0       0       0       0       0       0       0
Total ram usage:        2 bytes
 Hardware stack levels used:    1
 This function calls:
		Nothing
 This function is called by:
		_USBCheckStdRequest
 This function uses a non-reentrant model


 *************** function _USBStdFeatureReqHandler *****************
 Defined at:
		line 2757 in file "../My_library/usb/usb_device.c"
 Parameters:    Size  Location     Type
		None
 Auto vars:     Size  Location     Type
  p               2   25[COMRAM] PTR struct __BDT
		 -> NULL(0), BDT(48), 
  pUEP            2   22[COMRAM] PTR unsigned char 
		 -> UEP0(1), 
  current_ep_d    1   24[COMRAM] struct .
 Return value:  Size  Location     Type
		None               void
 Registers used:
		wreg, fsr2l, fsr2h, status,2, status,0, prodl, prodh, cstack
 Tracked objects:
		On entry : 
		On exit  : 
		Unchanged: 
 Data sizes:     COMRAM   BANK0   BANK1   BANK2   BANK3   BANK4   BANK5   BANK6   BANK7   BANK8   BANK9  BANK10  BANK11  BANK12  BANK13  BANK14
      Params:         0       0       0       0       0       0       0       0       0       0       0       0       0       0       0       0
      Locals:         5       0       0       0       0       0       0       0       0       0       0       0       0       0       0       0
      Temps:          2       0       0       0       0       0       0       0       0       0       0       0       0       0       0       0
      Totals:         7       0       0       0       0       0       0       0       0       0       0       0       0       0       0       0
Total ram usage:        7 bytes
 Hardware stack levels used:    1
 Hardware stack levels required when called:    4
 This function calls:
		_USER_USB_CALLBACK_EVENT_HANDLER
 This function is called by:
		_USBCheckStdRequest
 This function uses a non-reentrant model


 *************** function _USER_USB_CALLBACK_EVENT_HANDLER *****************
 Defined at:
		line 44 in file "../My_library/My_usb_cdc.c"
 Parameters:    Size  Location     Type
  event           2   12[COMRAM] enum E8545
  pdata           2   14[COMRAM] PTR void 
		 -> USTATcopy(1), USBActiveConfiguration(1), NULL(0), BDT(48), 
  size            2   16[COMRAM] unsigned int 
 Auto vars:     Size  Location     Type
		None
 Return value:  Size  Location     Type
                  1    wreg      unsigned char 
 Registers used:
		wreg, fsr2l, fsr2h, status,2, status,0, prodl, prodh, cstack
 Tracked objects:
		On entry : 
		On exit  : 
		Unchanged: 
 Data sizes:     COMRAM   BANK0   BANK1   BANK2   BANK3   BANK4   BANK5   BANK6   BANK7   BANK8   BANK9  BANK10  BANK11  BANK12  BANK13  BANK14
      Params:         6       0       0       0       0       0       0       0       0       0       0       0       0       0       0       0
      Locals:         0       0       0       0       0       0       0       0       0       0       0       0       0       0       0       0
      Temps:          2       0       0       0       0       0       0       0       0       0       0       0       0       0       0       0
      Totals:         8       0       0       0       0       0       0       0       0       0       0       0       0       0       0       0
Total ram usage:        8 bytes
 Hardware stack levels used:    1
 Hardware stack levels required when called:    3
 This function calls:
		_CDCInitEP
		_USBCheckCDCRequest
 This function is called by:
		_USBDeviceTasks
		_USBStdSetCfgHandler
		_USBSuspend
		_USBWakeFromSuspend
		_USBCtrlTrfSetupHandler
		_USBCheckStdRequest
		_USBStdFeatureReqHandler
 This function uses a non-reentrant model


 *************** function _USBCheckCDCRequest *****************
 Defined at:
		line 204 in file "../My_library/usb/usb_device_cdc.c"
 Parameters:    Size  Location     Type
		None
 Auto vars:     Size  Location     Type
		None
 Return value:  Size  Location     Type
		None               void
 Registers used:
		wreg, status,2, status,0
 Tracked objects:
		On entry : 
		On exit  : 
		Unchanged: 
 Data sizes:     COMRAM   BANK0   BANK1   BANK2   BANK3   BANK4   BANK5   BANK6   BANK7   BANK8   BANK9  BANK10  BANK11  BANK12  BANK13  BANK14
      Params:         0       0       0       0       0       0       0       0       0       0       0       0       0       0       0       0
      Locals:         0       0       0       0       0       0       0       0       0       0       0       0       0       0       0       0
      Temps:          0       0       0       0       0       0       0       0       0       0       0       0       0       0       0       0
      Totals:         0       0       0       0       0       0       0       0       0       0       0       0       0       0       0       0
Total ram usage:        0 bytes
 Hardware stack levels used:    1
 This function calls:
		Nothing
 This function is called by:
		_USER_USB_CALLBACK_EVENT_HANDLER
 This function uses a non-reentrant model


 *************** function _CDCInitEP *****************
 Defined at:
		line 351 in file "../My_library/usb/usb_device_cdc.c"
 Parameters:    Size  Location     Type
		None
 Auto vars:     Size  Location     Type
		None
 Return value:  Size  Location     Type
		None               void
 Registers used:
		wreg, fsr2l, fsr2h, status,2, status,0, prodl, prodh, cstack
 Tracked objects:
		On entry : 
		On exit  : 
		Unchanged: 
 Data sizes:     COMRAM   BANK0   BANK1   BANK2   BANK3   BANK4   BANK5   BANK6   BANK7   BANK8   BANK9  BANK10  BANK11  BANK12  BANK13  BANK14
      Params:         0       0       0       0       0       0       0       0       0       0       0       0       0       0       0       0
      Locals:         0       0       0       0       0       0       0       0       0       0       0       0       0       0       0       0
      Temps:          0       0       0       0       0       0       0       0       0       0       0       0       0       0       0       0
      Totals:         0       0       0       0       0       0       0       0       0       0       0       0       0       0       0       0
Total ram usage:        0 bytes
 Hardware stack levels used:    1
 Hardware stack levels required when called:    2
 This function calls:
		_USBEnableEndpoint
		i2_USBTransferOnePacket
 This function is called by:
		_USER_USB_CALLBACK_EVENT_HANDLER
 This function uses a non-reentrant model


 *************** function i2_USBTransferOnePacket *****************
 Defined at:
		line 995 in file "../My_library/usb/usb_device.c"
 Parameters:    Size  Location     Type
  ep              1    wreg     unsigned char 
  dir             1    0[COMRAM] unsigned char 
  data            2    1[COMRAM] PTR unsigned char 
		 -> cdc_data_tx(64), cdc_data_rx(64), NULL(0), 
  len             1    3[COMRAM] unsigned char 
 Auto vars:     Size  Location     Type
  ep              1    4[COMRAM] unsigned char 
  USBTransferO    2    5[COMRAM] PTR volatile struct __BD
		 -> NULL(0), BDT(48), 
 Return value:  Size  Location     Type
                  2    0[COMRAM] PTR void 
 Registers used:
		wreg, fsr2l, fsr2h, status,2, status,0, prodl, prodh
 Tracked objects:
		On entry : 
		On exit  : 
		Unchanged: 
 Data sizes:     COMRAM   BANK0   BANK1   BANK2   BANK3   BANK4   BANK5   BANK6   BANK7   BANK8   BANK9  BANK10  BANK11  BANK12  BANK13  BANK14
      Params:         4       0       0       0       0       0       0       0       0       0       0       0       0       0       0       0
      Locals:         3       0       0       0       0       0       0       0       0       0       0       0       0       0       0       0
      Temps:          0       0       0       0       0       0       0       0       0       0       0       0       0       0       0       0
      Totals:         7       0       0       0       0       0       0       0       0       0       0       0       0       0       0       0
Total ram usage:        7 bytes
 Hardware stack levels used:    1
 This function calls:
		Nothing
 This function is called by:
		_CDCInitEP
 This function uses a non-reentrant model


 *************** function _USBEnableEndpoint *****************
 Defined at:
		line 878 in file "../My_library/usb/usb_device.c"
 Parameters:    Size  Location     Type
  ep              1    wreg     unsigned char 
  options         1    8[COMRAM] unsigned char 
 Auto vars:     Size  Location     Type
  ep              1   11[COMRAM] unsigned char 
  p               2    9[COMRAM] PTR unsigned char 
		 -> UEP0(1), 
 Return value:  Size  Location     Type
		None               void
 Registers used:
		wreg, fsr2l, fsr2h, status,2, status,0, prodl, prodh, cstack
 Tracked objects:
		On entry : 
		On exit  : 
		Unchanged: 
 Data sizes:     COMRAM   BANK0   BANK1   BANK2   BANK3   BANK4   BANK5   BANK6   BANK7   BANK8   BANK9  BANK10  BANK11  BANK12  BANK13  BANK14
      Params:         1       0       0       0       0       0       0       0       0       0       0       0       0       0       0       0
      Locals:         3       0       0       0       0       0       0       0       0       0       0       0       0       0       0       0
      Temps:          0       0       0       0       0       0       0       0       0       0       0       0       0       0       0       0
      Totals:         4       0       0       0       0       0       0       0       0       0       0       0       0       0       0       0
Total ram usage:        4 bytes
 Hardware stack levels used:    1
 Hardware stack levels required when called:    1
 This function calls:
		_USBConfigureEndpoint
 This function is called by:
		_CDCInitEP
 This function uses a non-reentrant model


 *************** function _USBConfigureEndpoint *****************
 Defined at:
		line 1543 in file "../My_library/usb/usb_device.c"
 Parameters:    Size  Location     Type
  EPNum           1    wreg     unsigned char 
  direction       1    0[COMRAM] unsigned char 
 Auto vars:     Size  Location     Type
  EPNum           1    5[COMRAM] unsigned char 
  handle          2    6[COMRAM] PTR volatile struct __BD
		 -> BDT(48), 
 Return value:  Size  Location     Type
		None               void
 Registers used:
		wreg, fsr2l, fsr2h, status,2, status,0, prodl, prodh
 Tracked objects:
		On entry : 
		On exit  : 
		Unchanged: 
 Data sizes:     COMRAM   BANK0   BANK1   BANK2   BANK3   BANK4   BANK5   BANK6   BANK7   BANK8   BANK9  BANK10  BANK11  BANK12  BANK13  BANK14
      Params:         1       0       0       0       0       0       0       0       0       0       0       0       0       0       0       0
      Locals:         3       0       0       0       0       0       0       0       0       0       0       0       0       0       0       0
      Temps:          4       0       0       0       0       0       0       0       0       0       0       0       0       0       0       0
      Totals:         8       0       0       0       0       0       0       0       0       0       0       0       0       0       0       0
Total ram usage:        8 bytes
 Hardware stack levels used:    1
 This function calls:
		Nothing
 This function is called by:
		_USBEnableEndpoint
 This function uses a non-reentrant model


 *************** function _USBCtrlTrfOutHandler *****************
 Defined at:
		line 2541 in file "../My_library/usb/usb_device.c"
 Parameters:    Size  Location     Type
		None
 Auto vars:     Size  Location     Type
		None
 Return value:  Size  Location     Type
		None               void
 Registers used:
		wreg, fsr1l, fsr1h, fsr2l, fsr2h, status,2, status,0, cstack
 Tracked objects:
		On entry : 
		On exit  : 
		Unchanged: 
 Data sizes:     COMRAM   BANK0   BANK1   BANK2   BANK3   BANK4   BANK5   BANK6   BANK7   BANK8   BANK9  BANK10  BANK11  BANK12  BANK13  BANK14
      Params:         0       0       0       0       0       0       0       0       0       0       0       0       0       0       0       0
      Locals:         0       0       0       0       0       0       0       0       0       0       0       0       0       0       0       0
      Temps:          0       0       0       0       0       0       0       0       0       0       0       0       0       0       0       0
      Totals:         0       0       0       0       0       0       0       0       0       0       0       0       0       0       0       0
Total ram usage:        0 bytes
 Hardware stack levels used:    1
 Hardware stack levels required when called:    2
 This function calls:
		_USBCtrlTrfRxService
 This function is called by:
		_USBCtrlEPService
 This function uses a non-reentrant model


 *************** function _USBCtrlTrfRxService *****************
 Defined at:
		line 1852 in file "../My_library/usb/usb_device.c"
 Parameters:    Size  Location     Type
		None
 Auto vars:     Size  Location     Type
  byteToRead      1    1[COMRAM] unsigned char 
  i               1    0[COMRAM] unsigned char 
 Return value:  Size  Location     Type
		None               void
 Registers used:
		wreg, fsr1l, fsr1h, fsr2l, fsr2h, status,2, status,0, cstack
 Tracked objects:
		On entry : 
		On exit  : 
		Unchanged: 
 Data sizes:     COMRAM   BANK0   BANK1   BANK2   BANK3   BANK4   BANK5   BANK6   BANK7   BANK8   BANK9  BANK10  BANK11  BANK12  BANK13  BANK14
      Params:         0       0       0       0       0       0       0       0       0       0       0       0       0       0       0       0
      Locals:         2       0       0       0       0       0       0       0       0       0       0       0       0       0       0       0
      Temps:          0       0       0       0       0       0       0       0       0       0       0       0       0       0       0       0
      Totals:         2       0       0       0       0       0       0       0       0       0       0       0       0       0       0       0
Total ram usage:        2 bytes
 Hardware stack levels used:    1
 Hardware stack levels required when called:    1
 This function calls:
		_USBCtrlEPAllowStatusStage
 This function is called by:
		_USBCtrlTrfOutHandler
 This function uses a non-reentrant model


 *************** function _USBCtrlEPAllowStatusStage *****************
 Defined at:
		line 1416 in file "../My_library/usb/usb_device.c"
 Parameters:    Size  Location     Type
		None
 Auto vars:     Size  Location     Type
		None
 Return value:  Size  Location     Type
		None               void
 Registers used:
		wreg, fsr2l, fsr2h, status,2, status,0
 Tracked objects:
		On entry : 
		On exit  : 
		Unchanged: 
 Data sizes:     COMRAM   BANK0   BANK1   BANK2   BANK3   BANK4   BANK5   BANK6   BANK7   BANK8   BANK9  BANK10  BANK11  BANK12  BANK13  BANK14
      Params:         0       0       0       0       0       0       0       0       0       0       0       0       0       0       0       0
      Locals:         0       0       0       0       0       0       0       0       0       0       0       0       0       0       0       0
      Temps:          0       0       0       0       0       0       0       0       0       0       0       0       0       0       0       0
      Totals:         0       0       0       0       0       0       0       0       0       0       0       0       0       0       0       0
Total ram usage:        0 bytes
 Hardware stack levels used:    1
 This function calls:
		Nothing
 This function is called by:
		_USBDeviceTasks
		_USBCtrlEPServiceComplete
		_USBCtrlTrfRxService
 This function uses a non-reentrant model


 *************** function _USBCtrlTrfInHandler *****************
 Defined at:
		line 2595 in file "../My_library/usb/usb_device.c"
 Parameters:    Size  Location     Type
		None
 Auto vars:     Size  Location     Type
  lastDTS         1    1[COMRAM] unsigned char 
 Return value:  Size  Location     Type
		None               void
 Registers used:
		wreg, fsr1l, fsr1h, fsr2l, fsr2h, status,2, status,0, tblptrl, tblptrh, tblptru, cstack
 Tracked objects:
		On entry : 
		On exit  : 
		Unchanged: 
 Data sizes:     COMRAM   BANK0   BANK1   BANK2   BANK3   BANK4   BANK5   BANK6   BANK7   BANK8   BANK9  BANK10  BANK11  BANK12  BANK13  BANK14
      Params:         0       0       0       0       0       0       0       0       0       0       0       0       0       0       0       0
      Locals:         1       0       0       0       0       0       0       0       0       0       0       0       0       0       0       0
      Temps:          0       0       0       0       0       0       0       0       0       0       0       0       0       0       0       0
      Totals:         1       0       0       0       0       0       0       0       0       0       0       0       0       0       0       0
Total ram usage:        1 bytes
 Hardware stack levels used:    1
 Hardware stack levels required when called:    1
 This function calls:
		_USBCtrlTrfTxService
 This function is called by:
		_USBCtrlEPService
 This function uses a non-reentrant model


 *************** function _USBCtrlTrfTxService *****************
 Defined at:
		line 1771 in file "../My_library/usb/usb_device.c"
 Parameters:    Size  Location     Type
		None
 Auto vars:     Size  Location     Type
  byteToSend      1    0[COMRAM] unsigned char 
 Return value:  Size  Location     Type
		None               void
 Registers used:
		wreg, fsr1l, fsr1h, fsr2l, fsr2h, status,2, status,0, tblptrl, tblptrh, tblptru
 Tracked objects:
		On entry : 
		On exit  : 
		Unchanged: 
 Data sizes:     COMRAM   BANK0   BANK1   BANK2   BANK3   BANK4   BANK5   BANK6   BANK7   BANK8   BANK9  BANK10  BANK11  BANK12  BANK13  BANK14
      Params:         0       0       0       0       0       0       0       0       0       0       0       0       0       0       0       0
      Locals:         1       0       0       0       0       0       0       0       0       0       0       0       0       0       0       0
      Temps:          0       0       0       0       0       0       0       0       0       0       0       0       0       0       0       0
      Totals:         1       0       0       0       0       0       0       0       0       0       0       0       0       0       0       0
Total ram usage:        1 bytes
 Hardware stack levels used:    1
 This function calls:
		Nothing
 This function is called by:
		_USBCtrlEPAllowDataStage
		_USBCtrlTrfInHandler
 This function uses a non-reentrant model


 *************** function _LED_indicator *****************
 Defined at:
		line 22 in file "ChargeStation_task.c"
 Parameters:    Size  Location     Type
		None
 Auto vars:     Size  Location     Type
  i               1   10[COMRAM] unsigned char 
 Return value:  Size  Location     Type
		None               void
 Registers used:
		wreg, fsr2l, fsr2h, status,2, status,0, prodl, prodh, cstack
 Tracked objects:
		On entry : 
		On exit  : 
		Unchanged: 
 Data sizes:     COMRAM   BANK0   BANK1   BANK2   BANK3   BANK4   BANK5   BANK6   BANK7   BANK8   BANK9  BANK10  BANK11  BANK12  BANK13  BANK14
      Params:         0       0       0       0       0       0       0       0       0       0       0       0       0       0       0       0
      Locals:         1       0       0       0       0       0       0       0       0       0       0       0       0       0       0       0
      Temps:          3       0       0       0       0       0       0       0       0       0       0       0       0       0       0       0
      Totals:         4       0       0       0       0       0       0       0       0       0       0       0       0       0       0       0
Total ram usage:        4 bytes
 Hardware stack levels used:    1
 Hardware stack levels required when called:    1
 This function calls:
		i2_LED_output
		i2___lwdiv
 This function is called by:
		_ISR
 This function uses a non-reentrant model


 *************** function i2___lwdiv *****************
 Defined at:
		line 8 in file "C:\Program Files (x86)\Microchip\xc8\v1.35\sources\common\lwdiv.c"
 Parameters:    Size  Location     Type
  dividend        2    0[COMRAM] unsigned int 
  divisor         2    2[COMRAM] unsigned int 
 Auto vars:     Size  Location     Type
  __lwdiv         2    4[COMRAM] unsigned int 
  __lwdiv         1    6[COMRAM] unsigned char 
 Return value:  Size  Location     Type
                  2    0[COMRAM] unsigned int 
 Registers used:
		wreg, status,2, status,0
 Tracked objects:
		On entry : 
		On exit  : 
		Unchanged: 
 Data sizes:     COMRAM   BANK0   BANK1   BANK2   BANK3   BANK4   BANK5   BANK6   BANK7   BANK8   BANK9  BANK10  BANK11  BANK12  BANK13  BANK14
      Params:         4       0       0       0       0       0       0       0       0       0       0       0       0       0       0       0
      Locals:         3       0       0       0       0       0       0       0       0       0       0       0       0       0       0       0
      Temps:          0       0       0       0       0       0       0       0       0       0       0       0       0       0       0       0
      Totals:         7       0       0       0       0       0       0       0       0       0       0       0       0       0       0       0
Total ram usage:        7 bytes
 Hardware stack levels used:    1
 This function calls:
		Nothing
 This function is called by:
		_LED_indicator
 This function uses a non-reentrant model


 *************** function i2_LED_output *****************
 Defined at:
		line 36 in file "io.c"
 Parameters:    Size  Location     Type
  b               1    wreg     unsigned char 
  value           1    0[COMRAM] unsigned char 
 Auto vars:     Size  Location     Type
  b               1    1[COMRAM] unsigned char 
 Return value:  Size  Location     Type
		None               void
 Registers used:
		wreg, fsr2l, fsr2h, status,2, status,0, prodl, prodh
 Tracked objects:
		On entry : 
		On exit  : 
		Unchanged: 
 Data sizes:     COMRAM   BANK0   BANK1   BANK2   BANK3   BANK4   BANK5   BANK6   BANK7   BANK8   BANK9  BANK10  BANK11  BANK12  BANK13  BANK14
      Params:         1       0       0       0       0       0       0       0       0       0       0       0       0       0       0       0
      Locals:         1       0       0       0       0       0       0       0       0       0       0       0       0       0       0       0
      Temps:          0       0       0       0       0       0       0       0       0       0       0       0       0       0       0       0
      Totals:         2       0       0       0       0       0       0       0       0       0       0       0       0       0       0       0
Total ram usage:        2 bytes
 Hardware stack levels used:    1
 This function calls:
		Nothing
 This function is called by:
		_LED_indicator
 This function uses a non-reentrant model



MODULE INFORMATION

Module		Function		Class		Link	Load	Size
../My_library/My_terminal.c
		_print_time    		CODE           	13A48	0000	85
		_terminal_at_hand		CODE           	13C24	0000	75
		_terminal_time 		CODE           	10892	0000	537
		_terminal_task 		CODE           	1064A	0000	487

../My_library/My_terminal.c estimated size: 1184

../My_library/My_ringbuf.c
		_ringbuf_put_num		CODE           	1380C	0000	101
		_ringbuf_put_str		CODE           	13B8C	0000	61
		_ringbuf_num   		CODE           	12FBC	0000	113
		_ringbuf_pop   		CODE           	12E9E	0000	131
		_ringbuf_put   		CODE           	1278A	0000	123
		_ringbuf_init  		CODE           	1403C	0000	51
		_ringbuf_backspace		CODE           	138D2	0000	83
		_ringbuf_delete		CODE           	14358	0000	35

../My_library/My_ringbuf.c estimated size: 698

../My_library/My_usb_cdc.c
		_USB_task      		CODE           	139EE	0000	91
		_USB_ISR       		CODE           	145AC	0000	5
		_USER_USB_CALLBACK_EVENT_HANDLER		CODE           	143E0	0000	35
		_put_string_usb		CODE           	1439C	0000	35
		_is_usb_available		CODE           	1456A	0000	23
		_get_string_usb		CODE           	140E4	0000	53
		_USB_init      		CODE           	144F4	0000	25

../My_library/My_usb_cdc.c estimated size: 267

C:\Program Files (x86)\Microchip\xc8\v1.35\sources\common\Umul32.c
		___lmul        		CODE           	13BD8	0000	77

C:\Program Files (x86)\Microchip\xc8\v1.35\sources\common\Umul32.c estimated size: 77

settings.c
		_settings_auto_stop		CODE           	119EC	0000	253
		_settings_led_indicator		CODE           	118D4	0000	265
		_settings_adjust_time		CODE           	12B2E	0000	131
		_settings_task 		CODE           	112B2	0000	311
		_settings_integrating_reset		CODE           	1167E	0000	225

settings.c estimated size: 1185

C:\Program Files (x86)\Microchip\xc8\v1.35\sources\common\isdigit.c
		_isdigit       		CODE           	144A2	0000	31

C:\Program Files (x86)\Microchip\xc8\v1.35\sources\common\isdigit.c estimated size: 31

C:\Program Files (x86)\Microchip\xc8\v1.35\sources\common\strcat.c
		_strcat        		CODE           	13AEE	0000	71

C:\Program Files (x86)\Microchip\xc8\v1.35\sources\common\strcat.c estimated size: 71

../My_library/My_PIC.c
		_ADC           		CODE           	14240	0000	43
		_CTMU_read     		CODE           	12D7E	0000	145
		_CTMU_init     		CODE           	1437A	0000	35
		_ADC_init      		CODE           	14442	0000	23
		_timer0_init   		CODE           	14212	0000	47
		_millis_timer  		CODE           	14580	0000	19
		_timer3_init   		CODE           	142BE	0000	41
		_timer1_init   		CODE           	13EBA	0000	69

../My_library/My_PIC.c estimated size: 422

../My_library/usb/usb_device_cdc.c
		_CDCTxService  		CODE           	11E06	0000	193
		_CDCInitEP     		CODE           	13A9C	0000	83
		_putUSBUSART   		CODE           	144C0	0000	29
		_getsUSBUSART  		CODE           	12E0E	0000	129
		_USBCheckCDCRequest		CODE           	13162	0000	129

../My_library/usb/usb_device_cdc.c estimated size: 563

C:\Program Files (x86)\Microchip\xc8\v1.35\sources\common\lbdiv.c
		___lbdiv       		CODE           	14078	0000	55

C:\Program Files (x86)\Microchip\xc8\v1.35\sources\common\lbdiv.c estimated size: 55

io.c
		_ANALOG_IN     		CODE           	144DC	0000	25
		_OUT           		CODE           	13D02	0000	75
		_LED_output    		CODE           	13C6E	0000	75

io.c estimated size: 175

../My_library/My_RTCC.c
		_RTCC_adjust_time_dec		CODE           	10FD0	0000	257
		_display_dec   		CODE           	13CB8	0000	65
		_caltime_to_RTCC		CODE           	12CEE	0000	133
		_month_length  		CODE           	1347C	0000	125
		_display_time_1602		CODE           	10C8C	0000	331
		_d_to_x        		CODE           	14554	0000	23
		_epoch_to_caltime		CODE           	11B04	0000	215
		_RTCC_task     		CODE           	141AE	0000	51
		_RTCC_adjust_time_cursor		CODE           	136D8	0000	91
		_RTCC_from_RTCC		CODE           	14524	0000	25
		_RTCC_from_caltime		CODE           	14334	0000	37
		_RTCC_adjust_time_toggle		CODE           	14402	0000	19
		_RTCC_init     		CODE           	13B3E	0000	67
		_RTCC_adjust_time_inc		CODE           	113FC	0000	267
		_RTCC_to_caltime		CODE           	1304A	0000	103
		_get_quot_rem  		CODE           	12F2E	0000	119
		_x_to_d        		CODE           	1453C	0000	25
		_RTCC_from_epoch		CODE           	1450C	0000	25
		_caltime_to_epoch		CODE           	11540	0000	263

../My_library/My_RTCC.c estimated size: 2241

C:\Program Files (x86)\Microchip\xc8\v1.35\sources\common\strcmp.c
		_strcmp        		CODE           	13E74	0000	59

C:\Program Files (x86)\Microchip\xc8\v1.35\sources\common\strcmp.c estimated size: 59

C:\Program Files (x86)\Microchip\xc8\v1.35\sources\common\strcpy.c
		_strcpy        		CODE           	1414A	0000	51

C:\Program Files (x86)\Microchip\xc8\v1.35\sources\common\strcpy.c estimated size: 51

C:\Program Files (x86)\Microchip\xc8\v1.35\sources\common\memset.c
		_memset        		CODE           	1426A	0000	43

C:\Program Files (x86)\Microchip\xc8\v1.35\sources\common\memset.c estimated size: 43

C:\Program Files (x86)\Microchip\xc8\v1.35\sources\common\atoi.c
		_atoi          		CODE           	12962	0000	145

C:\Program Files (x86)\Microchip\xc8\v1.35\sources\common\atoi.c estimated size: 145

C:\Program Files (x86)\Microchip\xc8\v1.35\sources\common\lwmod.c
		___lwmod       		CODE           	13FFE	0000	63

C:\Program Files (x86)\Microchip\xc8\v1.35\sources\common\lwmod.c estimated size: 63

../My_library/usb/usb_device.c
		_USBCtrlTrfInHandler		CODE           	130D6	0000	101
		_USBTransferOnePacket		CODE           	129FC	0000	107
		_USBDeviceAttach		CODE           	1417C	0000	39
		_USBStdGetDscHandler		CODE           	11EFA	0000	175
		_USBCtrlEPAllowDataStage		CODE           	13992	0000	93
		_USBStdFeatureReqHandler		CODE           	10E38	0000	333
		_USBCtrlEPAllowStatusStage		CODE           	133FC	0000	109
		_USBCtrlTrfSetupHandler		CODE           	13D96	0000	65
		_USBCtrlTrfOutHandler		CODE           	14482	0000	33
		_USBCtrlEPServiceComplete		CODE           	125A8	0000	117
		_USBSuspend    		CODE           	143BE	0000	23
		_USBStdSetCfgHandler		CODE           	128C6	0000	125
		_USBStdGetStatusHandler		CODE           	13572	0000	111
		_USBWakeFromSuspend		CODE           	14462	0000	33
		_USBCtrlTrfRxService		CODE           	12248	0000	139
		_USBCtrlTrfTxService		CODE           	1230A	0000	125
		_USBEnableEndpoint		CODE           	140AE	0000	55
		_USBConfigureEndpoint		CODE           	135EA	0000	97
		_USBDeviceInit 		CODE           	12A96	0000	139
		_USBCtrlEPService		CODE           	12BC4	0000	139
		_USBStallHandler		CODE           	141E0	0000	41
		_USBDeviceTasks		CODE           	117BA	0000	273
		_USBCheckStdRequest		CODE           	12C5A	0000	139

../My_library/usb/usb_device.c estimated size: 2611

C:\Program Files (x86)\Microchip\xc8\v1.35\sources\common\doprnt.c
		_sprintf       		CODE           	10000	0000	751

C:\Program Files (x86)\Microchip\xc8\v1.35\sources\common\doprnt.c estimated size: 751

C:\Program Files (x86)\Microchip\xc8\v1.35\sources\common\llmod.c
		___llmod       		CODE           	13870	0000	99

C:\Program Files (x86)\Microchip\xc8\v1.35\sources\common\llmod.c estimated size: 99

shared
		PL12           		CODE           	10DD6	0000	27
		PL50           		CODE           	11646	0000	19
		PL8            		CODE           	110D0	0000	25
		_weekday_3char 		MEDIUMCONST    	FBA4	0000	29
		PL268          		CODE           	10E1A	0000	11
		PL22           		CODE           	12A66	0000	17
		PL60           		CODE           	110F6	0000	13
		_configDescriptor1		MEDIUMCONST    	FAF9	0000	68
		PL178          		CODE           	11658	0000	11
		PL368          		CODE           	11DFE	0000	9
		PL100          		CODE           	11AE8	0000	15
		PL32           		CODE           	1129A	0000	11
		PL70           		CODE           	12D72	0000	13
		PL278          		CODE           	13EAE	0000	13
		_USB_CD_Ptr    		MEDIUMCONST    	FA7F	0000	3
		PL200          		CODE           	10E04	0000	13
		PL42           		CODE           	1176E	0000	17
		PL80           		CODE           	126D0	0000	17
		_sd001         		MEDIUMCONST    	FB3C	0000	53
		PL188          		CODE           	11CD6	0000	19
		PL110          		CODE           	14208	0000	11
		PL300          		CODE           	117AA	0000	7
		PL14           		CODE           	10DF0	0000	11
		PL52           		CODE           	12598	0000	17
		PL90           		CODE           	10608	0000	19
		PL288          		CODE           	120AC	0000	13
		PL210          		CODE           	1062A	0000	11
		PL24           		CODE           	11FA8	0000	13
		PL62           		CODE           	10AAA	0000	11
		data_out@p     		MEDIUMCONST    	FBDC	0000	7
		PL198          		CODE           	12452	0000	13
		PL120          		CODE           	13474	0000	9
		PL310          		CODE           	1166A	0000	11
		PL34           		CODE           	122E6	0000	17
		PL72           		CODE           	13FF4	0000	11
		PL298          		CODE           	12CE4	0000	11
		PL220          		CODE           	10AD0	0000	11
		PL44           		CODE           	13F64	0000	17
		PL82           		CODE           	11EC6	0000	33
		PL130          		CODE           	11FCE	0000	13
		PL320          		CODE           	11EE6	0000	11
		PL16           		CODE           	12BB0	0000	21
		PL54           		CODE           	110E8	0000	15
		PL92           		CODE           	10F8E	0000	19
		PL230          		CODE           	13FB0	0000	17
		PL26           		CODE           	1175E	0000	17
		PL64           		CODE           	11514	0000	13
		PL102          		CODE           	11AF6	0000	15
		PL140          		CODE           	143D4	0000	13
		PL330          		CODE           	12A8C	0000	11
		PL36           		CODE           	13468	0000	13
		PL74           		CODE           	11520	0000	23
		PL202          		CODE           	141A2	0000	13
		PL240          		CODE           	1209C	0000	17
		PL46           		CODE           	12A76	0000	13
		PL84           		CODE           	11536	0000	11
		_sd002         		MEDIUMCONST    	FB70	0000	53
		_dpowers       		MEDIUMCONST    	FA51	0000	41
		PL112          		CODE           	10FA0	0000	17
		PL302          		CODE           	135E0	0000	11
		PL150          		CODE           	14414	0000	15
		PL340          		CODE           	11134	0000	9
		PL18           		CODE           	105D2	0000	17
		PL56           		CODE           	11506	0000	15
		PL94           		CODE           	10C6E	0000	11
		i2___lwdiv     		CODE           	13DE0	0000	75
		PL212          		CODE           	126E0	0000	11
		PL250          		CODE           	11662	0000	9
		PL28           		CODE           	105E2	0000	39
		PL66           		CODE           	12052	0000	39
		i2_USBDeviceInit		CODE           	11FE6	0000	109
		PL122          		CODE           	10830	0000	13
		PL312          		CODE           	13B34	0000	11
		PL160          		CODE           	12F20	0000	15
		PL350          		CODE           	10882	0000	9
		PL38           		CODE           	112A4	0000	15
		PL76           		CODE           	12B20	0000	15
		PL222          		CODE           	1239A	0000	11
		PL260          		CODE           	10E10	0000	11
		PL48           		CODE           	1313A	0000	11
		PL86           		CODE           	11118	0000	11
		PL132          		CODE           	1302C	0000	11
		PL322          		CODE           	13040	0000	11
		PL170          		CODE           	12386	0000	21
		PL360          		CODE           	11C08	0000	9
		PL58           		CODE           	102EE	0000	19
		PL96           		CODE           	12C4E	0000	13
		PL232          		CODE           	12300	0000	11
		PL270          		CODE           	10320	0000	11
		PL68           		CODE           	11102	0000	23
		PL104          		CODE           	12772	0000	15
		PL142          		CODE           	13150	0000	13
		PL332          		CODE           	10878	0000	11
		PL180          		CODE           	10DFA	0000	11
		PL78           		CODE           	10F84	0000	11
		PL204          		CODE           	1084E	0000	13
		PL242          		CODE           	10C82	0000	11
		PL280          		CODE           	130CA	0000	13
		PL88           		CODE           	10300	0000	11
		PL114          		CODE           	132EA	0000	13
		PL304          		CODE           	117B0	0000	11
		PL152          		CODE           	1214E	0000	15
		PL342          		CODE           	1113C	0000	11
		PL190          		CODE           	1083C	0000	19
		PL98           		CODE           	130B0	0000	15
		PL214          		CODE           	12E8E	0000	17
		PL252          		CODE           	12FAE	0000	15
		PL290          		CODE           	1179E	0000	13
		PL124          		CODE           	12144	0000	11
		PL314          		CODE           	13CF8	0000	11
		PL162          		CODE           	12804	0000	15
		PL352          		CODE           	10340	0000	9
		__initialization		CODE           	134F8	0000	113
		PL224          		CODE           	10C78	0000	11
		PL262          		CODE           	11788	0000	11
		PL134          		CODE           	13144	0000	13
		PL324          		CODE           	11674	0000	11
		PL172          		CODE           	12812	0000	11
		PL362          		CODE           	11D04	0000	9
		PL234          		CODE           	123A4	0000	17
		PL272          		CODE           	12A82	0000	11
		_device_dsc    		MEDIUMCONST    	FBC0	0000	19
		PL106          		CODE           	10AB4	0000	13
		PL144          		CODE           	130BE	0000	13
		PL334          		CODE           	11BF6	0000	11
		PL182          		CODE           	11122	0000	19
		display_LCD@onoff		MEDIUMCONST    	FBD2	0000	11
		PL206          		CODE           	10622	0000	9
		PL244          		CODE           	12166	0000	17
		PL282          		CODE           	1032A	0000	13
		PL116          		CODE           	11BDA	0000	11
		PL306          		CODE           	13036	0000	11
		PL154          		CODE           	1215C	0000	11
		PL344          		CODE           	131E2	0000	11
		PL192          		CODE           	11BE4	0000	19
		PL216          		CODE           	12780	0000	11
		PL254          		CODE           	1364A	0000	15
		PL292          		CODE           	10E24	0000	13
		PL126          		CODE           	10FB0	0000	23
		PL316          		CODE           	13370	0000	11
		PL164          		CODE           	12444	0000	15
		PL354          		CODE           	124FE	0000	7
		PL226          		CODE           	10864	0000	11
		PL264          		CODE           	118CA	0000	11
		PL136          		CODE           	113E8	0000	11
		PL326          		CODE           	13DD6	0000	11
		PL174          		CODE           	1177E	0000	11
		PL364          		CODE           	1088A	0000	9
		PL236          		CODE           	1086E	0000	11
		PL274          		CODE           	113F2	0000	11
		i2_LED_output  		CODE           	13E2A	0000	75
		PL108          		CODE           	11FB4	0000	27
		PL146          		CODE           	1030A	0000	23
		PL336          		CODE           	10640	0000	11
		PL184          		CODE           	10ACA	0000	7
		PL208          		CODE           	13B80	0000	13
		PL246          		CODE           	1315C	0000	7
		PL284          		CODE           	11792	0000	13
		PL118          		CODE           	12078	0000	11
		PL308          		CODE           	14458	0000	11
		PL156          		CODE           	12942	0000	15
		PL346          		CODE           	11146	0000	11
		PL194          		CODE           	11CE8	0000	19
		PL218          		CODE           	1085A	0000	11
		PL256          		CODE           	13366	0000	11
		PL294          		CODE           	10634	0000	13
		_USB_SD_Ptr    		MEDIUMCONST    	FA79	0000	7
		PL128          		CODE           	129F2	0000	11
		PL318          		CODE           	1281C	0000	9
		PL166          		CODE           	13924	0000	15
		PL356          		CODE           	11C00	0000	9
		PL228          		CODE           	13BC8	0000	17
		PL266          		CODE           	1406E	0000	11
		display_LCD@port_char		MEDIUMCONST    	FA81	0000	121
		PL138          		CODE           	11CC0	0000	23
		PL328          		CODE           	13658	0000	11
		PL176          		CODE           	1061A	0000	9
		PL366          		CODE           	10E30	0000	9
		i2_memset      		CODE           	14294	0000	43
		PL2            		CODE           	1261C	0000	47
		PL238          		CODE           	12FA4	0000	11
		PL276          		CODE           	12956	0000	13
		_sd000         		MEDIUMCONST    	FBE2	0000	5
		PL148          		CODE           	10AC0	0000	11
		PL338          		CODE           	10336	0000	11
		PL186          		CODE           	10FC6	0000	11
		PL10           		CODE           	122DC	0000	11
		PL4            		CODE           	119DC	0000	17
		PL248          		CODE           	12176	0000	15
		PL286          		CODE           	11FDA	0000	13
		i2_USBTransferOnePacket		CODE           	132F6	0000	113
		PL20           		CODE           	13732	0000	15
		PL158          		CODE           	12082	0000	15
		PL348          		CODE           	11EF0	0000	11
		PL196          		CODE           	12090	0000	13
		PL30           		CODE           	1128C	0000	15
		PL6            		CODE           	122D2	0000	11
		PL258          		CODE           	11CFA	0000	11
		PL296          		CODE           	13F74	0000	13
		PL40           		CODE           	122F6	0000	11
		PL168          		CODE           	12950	0000	7
		PL358          		CODE           	12824	0000	7

shared estimated size: 3473

C:\Program Files (x86)\Microchip\xc8\v1.35\sources\common\awmod.c
		___awmod       		CODE           	13740	0000	105

C:\Program Files (x86)\Microchip\xc8\v1.35\sources\common\awmod.c estimated size: 105

ctmu.c
		_ctmu_set_ratio		CODE           	1264A	0000	135
		_ctmu_sampling 		CODE           	126EA	0000	137
		_ctmu_task     		CODE           	14592	0000	15

ctmu.c estimated size: 287

../My_library/My_ST7032.c
		_ST7032_put    		CODE           	13FC0	0000	53
		_ST7032_task   		CODE           	11D0C	0000	243
		_ST7032_init   		CODE           	1245E	0000	161
		_ST7032_puts   		CODE           	13F80	0000	49
		_ST7032_clear  		CODE           	145A0	0000	13
		_ST7032_cursor 		CODE           	14422	0000	33
		_ST7032_command		CODE           	13EFE	0000	67

../My_library/My_ST7032.c estimated size: 619

LCD_print.c
		_display       		CODE           	120B8	0000	141
		_display_LCD   		CODE           	10348	0000	651

LCD_print.c estimated size: 792

../My_library/My_button.c
		_button_timer_interrupt		CODE           	11150	0000	317

../My_library/My_button.c estimated size: 317

ChargeStation_task.c
		_terminal_operation		CODE           	10ADA	0000	405
		_normal_task   		CODE           	131EC	0000	135
		_integrate_time		CODE           	13F40	0000	37
		_port_button_task		CODE           	12184	0000	197
		_LED_indicator 		CODE           	123B4	0000	145
		_integrate_current		CODE           	13272	0000	121
		_sleep_task    		CODE           	1282A	0000	157
		_data_out      		CODE           	11C10	0000	177
		_Auto_cut      		CODE           	12504	0000	149
		_bootload      		CODE           	14118	0000	51

ChargeStation_task.c estimated size: 1574

C:\Program Files (x86)\Microchip\xc8\v1.35\sources\common\lwdiv.c
		___lwdiv       		CODE           	13D4C	0000	75

C:\Program Files (x86)\Microchip\xc8\v1.35\sources\common\lwdiv.c estimated size: 75

C:\Program Files (x86)\Microchip\xc8\v1.35\sources\common\Umul16.c
		___wmul        		CODE           	1430E	0000	39

C:\Program Files (x86)\Microchip\xc8\v1.35\sources\common\Umul16.c estimated size: 39

C:\Program Files (x86)\Microchip\xc8\v1.35\sources\common\lbmod.c
		___lbmod       		CODE           	142E6	0000	41

C:\Program Files (x86)\Microchip\xc8\v1.35\sources\common\lbmod.c estimated size: 41

C:\Program Files (x86)\Microchip\xc8\v1.35\sources\common\lldiv.c
		___lldiv       		CODE           	13662	0000	119

C:\Program Files (x86)\Microchip\xc8\v1.35\sources\common\lldiv.c estimated size: 119

main.c
		_ISR           		CODE           	0008	0000	181
		_hardware_init 		CODE           	1337A	0000	131
		_main          		CODE           	137A8	0000	101
		_software_init 		CODE           	13932	0000	97

main.c estimated size: 510

