

Microchip Technology PIC18 PRO Macro Assembler V1.35 build -356382666 
                                                                                               Sat Jan 09 22:49:42 2016

Microchip Technology Omniscient Code Generator v1.35 (PRO mode) build 201507080246
     1                           	processor	18F47J53
     2                           	fnconf	rparam,??,?,0
     3                           	opt	pw 120
     4                           	opt	pm
     5                           	psect	idataBANK0,global,class=CODE,delta=1
     6                           	psect	smallconst,global,reloc=2,class=SMALLCONST,delta=1
     7                           	psect	cinit,global,reloc=2,class=CODE,delta=1
     8                           	psect	bssCOMRAM,global,class=COMRAM,space=1,delta=1
     9                           	psect	bssBANK0,global,class=BANK0,space=1,delta=1
    10                           	psect	dataBANK0,global,class=BANK0,space=1,delta=1
    11                           	psect	bssBANK1,global,class=BANK1,space=1,delta=1
    12                           	psect	cstackBANK0,global,class=BANK0,space=1,delta=1
    13                           	psect	cstackCOMRAM,global,class=COMRAM,space=1,delta=1
    14                           	psect	text0,global,reloc=2,class=CODE,delta=1
    15                           	psect	text1,global,reloc=2,class=CODE,delta=1
    16                           	psect	text2,global,reloc=2,class=CODE,delta=1
    17                           	psect	text3,global,reloc=2,class=CODE,delta=1
    18                           	psect	text4,global,reloc=2,class=CODE,delta=1
    19                           	psect	text5,global,reloc=2,class=CODE,delta=1
    20                           	psect	text6,global,reloc=2,class=CODE,delta=1
    21                           	psect	text7,global,reloc=2,class=CODE,delta=1
    22                           	psect	text8,global,reloc=2,class=CODE,delta=1
    23                           	psect	text9,global,reloc=2,class=CODE,delta=1
    24                           	psect	text10,global,reloc=2,class=CODE,delta=1
    25                           	psect	text11,global,reloc=2,class=CODE,delta=1
    26                           	psect	text12,global,reloc=2,class=CODE,delta=1
    27                           	psect	text13,global,reloc=2,class=CODE,delta=1
    28                           	psect	intcode,global,reloc=2,class=CODE,delta=1
    29                           	psect	text15,global,reloc=2,class=CODE,delta=1
    30                           	psect	text16,global,reloc=2,class=CODE,delta=1
    31                           	psect	text17,global,reloc=2,class=CODE,delta=1
    32                           	psect	text18,global,reloc=2,class=CODE,delta=1
    33                           	psect	text19,global,reloc=2,class=CODE,delta=1
    34                           	psect	text20,global,reloc=2,class=CODE,delta=1
    35                           	psect	text21,global,reloc=2,class=CODE,delta=1
    36                           	psect	text22,global,reloc=2,class=CODE,delta=1
    37                           	psect	text23,global,reloc=2,class=CODE,delta=1
    38                           	psect	text24,global,reloc=2,class=CODE,delta=1
    39                           	psect	text25,global,reloc=2,class=CODE,delta=1
    40                           	psect	text26,global,reloc=2,class=CODE,delta=1
    41                           	psect	text27,global,reloc=2,class=CODE,delta=1
    42                           	psect	text28,global,reloc=2,class=CODE,delta=1
    43                           	psect	text29,global,reloc=2,class=CODE,delta=1
    44                           	psect	text30,global,reloc=2,class=CODE,delta=1
    45                           	psect	text31,global,reloc=2,class=CODE,delta=1
    46                           	psect	text32,global,reloc=2,class=CODE,delta=1
    47                           	psect	text33,global,reloc=2,class=CODE,delta=1
    48                           	psect	text34,global,reloc=2,class=CODE,delta=1
    49                           	psect	text35,global,reloc=2,class=CODE,delta=1
    50                           	psect	text36,global,reloc=2,class=CODE,delta=1
    51                           	psect	text37,global,reloc=2,class=CODE,delta=1
    52                           	psect	text38,global,reloc=2,class=CODE,delta=1
    53                           	psect	text39,global,reloc=2,class=CODE,delta=1
    54                           	psect	text40,global,reloc=2,class=CODE,delta=1
    55                           	psect	text41,global,reloc=2,class=CODE,delta=1
    56                           	psect	text42,global,reloc=2,class=CODE,delta=1
    57                           	psect	text43,global,reloc=2,class=CODE,delta=1
    58                           	psect	text44,global,reloc=2,class=CODE,delta=1
    59                           	psect	intsave_regs,global,class=BIGRAM,space=1,delta=1
    60                           	psect	rparam,global,class=COMRAM,space=1,delta=1
    61                           	psect	temp,global,ovrld,common,class=COMRAM,space=1,delta=1
    62                           	dabs	1,0xD00,48,_BDT
    63                           	dabs	1,0xD38,8,_CtrlTrfData
    64                           	dabs	1,0xD30,8,_SetupPkt
    65  0000                     
    66                           	psect	idataBANK0
    67  0027E0                     __pidataBANK0:
    68                           	opt stack 0
    69                           
    70                           ;initializer for _buttonMessage
    71  0027E0  42                 	db	66
    72  0027E1  75                 	db	117
    73  0027E2  74                 	db	116
    74  0027E3  74                 	db	116
    75  0027E4  6F                 	db	111
    76  0027E5  6E                 	db	110
    77  0027E6  20                 	db	32
    78  0027E7  70                 	db	112
    79  0027E8  72                 	db	114
    80  0027E9  65                 	db	101
    81  0027EA  73                 	db	115
    82  0027EB  73                 	db	115
    83  0027EC  65                 	db	101
    84  0027ED  64                 	db	100
    85  0027EE  2E                 	db	46
    86  0027EF  0D                 	db	13
    87  0027F0  0A                 	db	10
    88  0027F1  00                 	db	0
    89                           
    90                           	psect	smallconst
    91  001100                     __psmallconst:
    92                           	opt stack 0
    93  001100  00                 	db	0
    94  001101                     _USB_SD_Ptr:
    95                           	opt stack 0
    96  001101  C2                 	db	low _sd000
    97  001102  48                 	db	low _sd001
    98  001103  7C                 	db	low _sd002
    99  001104                     __end_of_USB_SD_Ptr:
   100                           	opt stack 0
   101  001104                     _USB_CD_Ptr:
   102                           	opt stack 0
   103  001104  05                 	db	low _configDescriptor1
   104  001105                     __end_of_USB_CD_Ptr:
   105                           	opt stack 0
   106  001105                     _configDescriptor1:
   107                           	opt stack 0
   108  001105  09                 	db	9
   109  001106  02                 	db	2
   110  001107  43                 	db	67
   111  001108  00                 	db	0
   112  001109  02                 	db	2
   113  00110A  01                 	db	1
   114  00110B  00                 	db	0
   115  00110C  C0                 	db	192
   116  00110D  32                 	db	50
   117  00110E  09                 	db	9
   118  00110F  04                 	db	4
   119  001110  00                 	db	0
   120  001111  00                 	db	0
   121  001112  01                 	db	1
   122  001113  02                 	db	2
   123  001114  02                 	db	2
   124  001115  01                 	db	1
   125  001116  00                 	db	0
   126  001117  05                 	db	5
   127  001118  24                 	db	36
   128  001119  00                 	db	0
   129  00111A  10                 	db	16
   130  00111B  01                 	db	1
   131  00111C  04                 	db	4
   132  00111D  24                 	db	36
   133  00111E  02                 	db	2
   134  00111F  02                 	db	2
   135  001120  05                 	db	5
   136  001121  24                 	db	36
   137  001122  06                 	db	6
   138  001123  00                 	db	0
   139  001124  01                 	db	1
   140  001125  05                 	db	5
   141  001126  24                 	db	36
   142  001127  01                 	db	1
   143  001128  00                 	db	0
   144  001129  01                 	db	1
   145  00112A  07                 	db	7
   146  00112B  05                 	db	5
   147  00112C  81                 	db	129
   148  00112D  03                 	db	3
   149  00112E  08                 	db	8
   150  00112F  00                 	db	0
   151  001130  02                 	db	2
   152  001131  09                 	db	9
   153  001132  04                 	db	4
   154  001133  01                 	db	1
   155  001134  00                 	db	0
   156  001135  02                 	db	2
   157  001136  0A                 	db	10
   158  001137  00                 	db	0
   159  001138  00                 	db	0
   160  001139  00                 	db	0
   161  00113A  07                 	db	7
   162  00113B  05                 	db	5
   163  00113C  02                 	db	2
   164  00113D  02                 	db	2
   165  00113E  40                 	db	64
   166  00113F  00                 	db	0
   167  001140  00                 	db	0
   168  001141  07                 	db	7
   169  001142  05                 	db	5
   170  001143  82                 	db	130
   171  001144  02                 	db	2
   172  001145  40                 	db	64
   173  001146  00                 	db	0
   174  001147  00                 	db	0
   175  001148                     __end_of_configDescriptor1:
   176                           	opt stack 0
   177  001148                     _sd001:
   178                           	opt stack 0
   179  001148  34                 	db	52
   180  001149  03                 	db	3
   181  00114A  004D               	dw	77
   182  00114C  0069               	dw	105
   183  00114E  0063               	dw	99
   184  001150  0072               	dw	114
   185  001152  006F               	dw	111
   186  001154  0063               	dw	99
   187  001156  0068               	dw	104
   188  001158  0069               	dw	105
   189  00115A  0070               	dw	112
   190  00115C  0020               	dw	32
   191  00115E  0054               	dw	84
   192  001160  0065               	dw	101
   193  001162  0063               	dw	99
   194  001164  0068               	dw	104
   195  001166  006E               	dw	110
   196  001168  006F               	dw	111
   197  00116A  006C               	dw	108
   198  00116C  006F               	dw	111
   199  00116E  0067               	dw	103
   200  001170  0079               	dw	121
   201  001172  0020               	dw	32
   202  001174  0049               	dw	73
   203  001176  006E               	dw	110
   204  001178  0063               	dw	99
   205  00117A  002E               	dw	46
   206  00117C                     __end_of_sd001:
   207                           	opt stack 0
   208  00117C                     _sd002:
   209                           	opt stack 0
   210  00117C  34                 	db	52
   211  00117D  03                 	db	3
   212  00117E  0043               	dw	67
   213  001180  0044               	dw	68
   214  001182  0043               	dw	67
   215  001184  0020               	dw	32
   216  001186  0052               	dw	82
   217  001188  0053               	dw	83
   218  00118A  002D               	dw	45
   219  00118C  0032               	dw	50
   220  00118E  0033               	dw	51
   221  001190  0032               	dw	50
   222  001192  0020               	dw	32
   223  001194  0045               	dw	69
   224  001196  006D               	dw	109
   225  001198  0075               	dw	117
   226  00119A  006C               	dw	108
   227  00119C  0061               	dw	97
   228  00119E  0074               	dw	116
   229  0011A0  0069               	dw	105
   230  0011A2  006F               	dw	111
   231  0011A4  006E               	dw	110
   232  0011A6  0020               	dw	32
   233  0011A8  0044               	dw	68
   234  0011AA  0065               	dw	101
   235  0011AC  006D               	dw	109
   236  0011AE  006F               	dw	111
   237  0011B0                     __end_of_sd002:
   238                           	opt stack 0
   239  0011B0                     _device_dsc:
   240                           	opt stack 0
   241  0011B0  12                 	db	18
   242  0011B1  01                 	db	1
   243  0011B2  0200               	dw	512
   244  0011B4  02                 	db	2
   245  0011B5  00                 	db	0
   246  0011B6  00                 	db	0
   247  0011B7  08                 	db	8
   248  0011B8  04D8               	dw	1240
   249  0011BA  000A               	dw	10
   250  0011BC  0100               	dw	256
   251  0011BE  01                 	db	1
   252  0011BF  02                 	db	2
   253  0011C0  00                 	db	0
   254  0011C1  01                 	db	1
   255  0011C2                     __end_of_device_dsc:
   256                           	opt stack 0
   257  0011C2                     _sd000:
   258                           	opt stack 0
   259  0011C2  04                 	db	4
   260  0011C3  03                 	db	3
   261  0011C4  0409               	dw	1033
   262  0011C6                     __end_of_sd000:
   263                           	opt stack 0
   264  0000                     _ANCON1bits	set	3913
   265  0000                     _UADDR	set	3896
   266  0000                     _UCFG	set	3897
   267  0000                     _UEIE	set	3895
   268  0000                     _UEP0bits	set	3878
   269  0000                     _UIE	set	3894
   270  0000                     _UIEbits	set	3894
   271  0000                     _UEP0	set	3878
   272  0000                     _UEP1	set	3879
   273  0000                     _INTCONbits	set	4082
   274  0000                     _IPR2bits	set	4002
   275  0000                     _LATAbits	set	3977
   276  0000                     _OSCCON	set	4051
   277  0000                     _OSCTUNEbits	set	3995
   278  0000                     _PIE2bits	set	4000
   279  0000                     _PIR2bits	set	4001
   280  0000                     _PORTBbits	set	3969
   281  0000                     _RCONbits	set	4048
   282  0000                     _TRISAbits	set	3986
   283  0000                     _TRISBbits	set	3987
   284  0000                     _UCON	set	3941
   285  0000                     _UCONbits	set	3941
   286  0000                     _UEIR	set	3939
   287  0000                     _UIR	set	3938
   288  0000                     _UIRbits	set	3938
   289  0000                     _USTAT	set	3940
   290                           
   291                           ; #config settings
   292  0011C6  00                 	db	0	; dummy byte at the end
   293  0000                     
   294                           	psect	cinit
   295  0024EC                     __pcinit:
   296                           	opt stack 0
   297  0024EC                     start_initialization:
   298                           	opt stack 0
   299  0024EC                     __initialization:
   300                           	opt stack 0
   301                           
   302                           ; Clear objects allocated to BANK1 (192 bytes)
   303  0024EC  EE01  F000         	lfsr	0,__pbssBANK1
   304  0024F0  0EC0               	movlw	192
   305  0024F2                     clear_0:
   306  0024F2  6AEE               	clrf	postinc0,c
   307  0024F4  06E8               	decf	wreg,f,c
   308  0024F6  E1FD               	bnz	clear_0
   309                           
   310                           ; Clear objects allocated to BANK0 (110 bytes)
   311  0024F8  EE00  F060         	lfsr	0,__pbssBANK0
   312  0024FC  0E6E               	movlw	110
   313  0024FE                     clear_1:
   314  0024FE  6AEE               	clrf	postinc0,c
   315  002500  06E8               	decf	wreg,f,c
   316  002502  E1FD               	bnz	clear_1
   317                           
   318                           ; Clear objects allocated to COMRAM (42 bytes)
   319  002504  EE00  F001         	lfsr	0,__pbssCOMRAM
   320  002508  0E2A               	movlw	42
   321  00250A                     clear_2:
   322  00250A  6AEE               	clrf	postinc0,c
   323  00250C  06E8               	decf	wreg,f,c
   324  00250E  E1FD               	bnz	clear_2
   325                           
   326                           ; Initialize objects allocated to BANK0 (18 bytes)
   327                           ; load TBLPTR registers with __pidataBANK0
   328  002510  0EE0               	movlw	low __pidataBANK0
   329  002512  6EF6               	movwf	tblptrl,c
   330  002514  0E27               	movlw	high __pidataBANK0
   331  002516  6EF7               	movwf	tblptrh,c
   332  002518  0E00               	movlw	low (__pidataBANK0 shr (0+16))
   333  00251A  6EF8               	movwf	tblptru,c
   334  00251C  EE00  F0CE         	lfsr	0,__pdataBANK0
   335  002520  EE10 F012          	lfsr	1,18
   336  002524                     copy_data0:
   337  002524  0009               	tblrd		*+
   338  002526  CFF5 FFEE          	movff	tablat,postinc0
   339  00252A  50E5               	movf	postdec1,w,c
   340  00252C  50E1               	movf	fsr1l,w,c
   341  00252E  E1FA               	bnz	copy_data0
   342  002530                     end_of_initialization:
   343                           	opt stack 0
   344  002530                     __end_of__initialization:
   345                           	opt stack 0
   346  002530  9055               	bcf	int$flags,0,c	;clear compiler interrupt flag (level 1)
   347  002532  9255               	bcf	int$flags,1,c	;clear compiler interrupt flag (level 2)
   348  002534  0100               	movlb	0
   349  002536  EF6F  F013         	goto	_main	;jump to C main() function
   350                           tblptru	equ	0xFF8
   351                           tblptrh	equ	0xFF7
   352                           tblptrl	equ	0xFF6
   353                           tablat	equ	0xFF5
   354                           postinc0	equ	0xFEE
   355                           wreg	equ	0xFE8
   356                           postdec1	equ	0xFE5
   357                           fsr1l	equ	0xFE1
   358                           
   359                           	psect	bssCOMRAM
   360  000001                     __pbssCOMRAM:
   361                           	opt stack 0
   362  000001                     _outPipes:
   363                           	opt stack 0
   364  000001                     	ds	9
   365  00000A                     _inPipes:
   366                           	opt stack 0
   367  00000A                     	ds	6
   368  000010                     _pBDTEntryIn:
   369                           	opt stack 0
   370  000010                     	ds	6
   371  000016                     APP_LEDUpdateUSBStatus@ledCount:
   372                           	opt stack 0
   373  000016                     	ds	2
   374  000018                     _pBDTEntryEP0OutCurrent:
   375                           	opt stack 0
   376  000018                     	ds	2
   377  00001A                     _pBDTEntryEP0OutNext:
   378                           	opt stack 0
   379  00001A                     	ds	2
   380  00001C                     _BothEP0OutUOWNsSet:
   381                           	opt stack 0
   382  00001C                     	ds	1
   383  00001D                     _RemoteWakeup:
   384                           	opt stack 0
   385  00001D                     	ds	1
   386  00001E                     _USBDeferINDataStagePackets:
   387                           	opt stack 0
   388  00001E                     	ds	1
   389  00001F                     _USBDeferOUTDataStagePackets:
   390                           	opt stack 0
   391  00001F                     	ds	1
   392  000020                     _USBDeferStatusStagePacket:
   393                           	opt stack 0
   394  000020                     	ds	1
   395  000021                     _USBDeviceState:
   396                           	opt stack 0
   397  000021                     	ds	1
   398  000022                     _USBStatusStageEnabledFlag1:
   399                           	opt stack 0
   400  000022                     	ds	1
   401  000023                     _USBStatusStageEnabledFlag2:
   402                           	opt stack 0
   403  000023                     	ds	1
   404  000024                     _USBStatusStageTimeoutCounter:
   405                           	opt stack 0
   406  000024                     	ds	1
   407  000025                     _cdc_rx_len:
   408                           	opt stack 0
   409  000025                     	ds	1
   410  000026                     _controlTransferState:
   411                           	opt stack 0
   412  000026                     	ds	1
   413  000027                     _endpoint_number:
   414                           	opt stack 0
   415  000027                     	ds	1
   416  000028                     _shortPacketStatus:
   417                           	opt stack 0
   418  000028                     	ds	1
   419  000029                     _USBActiveConfiguration:
   420                           	opt stack 0
   421  000029                     	ds	1
   422  00002A                     _USTATcopy:
   423                           	opt stack 0
   424  00002A                     	ds	1
   425                           tblptru	equ	0xFF8
   426                           tblptrh	equ	0xFF7
   427                           tblptrl	equ	0xFF6
   428                           tablat	equ	0xFF5
   429                           postinc0	equ	0xFEE
   430                           wreg	equ	0xFE8
   431                           postdec1	equ	0xFE5
   432                           fsr1l	equ	0xFE1
   433                           
   434                           	psect	bssBANK0
   435  000060                     __pbssBANK0:
   436                           	opt stack 0
   437  000060                     _pBDTEntryOut:
   438                           	opt stack 0
   439  000060                     	ds	6
   440  000066                     _ep_data_in:
   441                           	opt stack 0
   442  000066                     	ds	3
   443  000069                     _ep_data_out:
   444                           	opt stack 0
   445  000069                     	ds	3
   446  00006C                     _pCDCDst:
   447                           	opt stack 0
   448  00006C                     	ds	3
   449  00006F                     _pCDCSrc:
   450                           	opt stack 0
   451  00006F                     	ds	3
   452  000072                     _CDCDataInHandle:
   453                           	opt stack 0
   454  000072                     	ds	2
   455  000074                     _CDCDataOutHandle:
   456                           	opt stack 0
   457  000074                     	ds	2
   458  000076                     _pDst:
   459                           	opt stack 0
   460  000076                     	ds	2
   461  000078                     _USBBusIsSuspended:
   462                           	opt stack 0
   463  000078                     	ds	1
   464  000079                     _buttonPressed:
   465                           	opt stack 0
   466  000079                     	ds	1
   467  00007A                     _cdc_mem_type:
   468                           	opt stack 0
   469  00007A                     	ds	1
   470  00007B                     _cdc_trf_state:
   471                           	opt stack 0
   472  00007B                     	ds	1
   473  00007C                     _cdc_tx_len:
   474                           	opt stack 0
   475  00007C                     	ds	1
   476  00007D                     _cdc_data_rx:
   477                           	opt stack 0
   478  00007D                     	ds	64
   479  0000BD                     _dummy_encapsulated_cmd_response:
   480                           	opt stack 0
   481  0000BD                     	ds	8
   482  0000C5                     _line_coding:
   483                           	opt stack 0
   484  0000C5                     	ds	7
   485  0000CC                     _USBAlternateInterface:
   486                           	opt stack 0
   487  0000CC                     	ds	2
   488                           tblptru	equ	0xFF8
   489                           tblptrh	equ	0xFF7
   490                           tblptrl	equ	0xFF6
   491                           tablat	equ	0xFF5
   492                           postinc0	equ	0xFEE
   493                           wreg	equ	0xFE8
   494                           postdec1	equ	0xFE5
   495                           fsr1l	equ	0xFE1
   496                           
   497                           	psect	dataBANK0
   498  0000CE                     __pdataBANK0:
   499                           	opt stack 0
   500  0000CE                     _buttonMessage:
   501                           	opt stack 0
   502  0000CE                     	ds	18
   503                           tblptru	equ	0xFF8
   504                           tblptrh	equ	0xFF7
   505                           tblptrl	equ	0xFF6
   506                           tablat	equ	0xFF5
   507                           postinc0	equ	0xFEE
   508                           wreg	equ	0xFE8
   509                           postdec1	equ	0xFE5
   510                           fsr1l	equ	0xFE1
   511                           
   512                           	psect	bssBANK1
   513  000100                     __pbssBANK1:
   514                           	opt stack 0
   515  000100                     _cdc_data_tx:
   516                           	opt stack 0
   517  000100                     	ds	64
   518  000140                     _readBuffer:
   519                           	opt stack 0
   520  000140                     	ds	64
   521  000180                     _writeBuffer:
   522                           	opt stack 0
   523  000180                     	ds	64
   524                           tblptru	equ	0xFF8
   525                           tblptrh	equ	0xFF7
   526                           tblptrl	equ	0xFF6
   527                           tablat	equ	0xFF5
   528                           postinc0	equ	0xFEE
   529                           wreg	equ	0xFE8
   530                           postdec1	equ	0xFE5
   531                           fsr1l	equ	0xFE1
   532                           
   533                           	psect	cstackBANK0
   534  0000E0                     __pcstackBANK0:
   535                           	opt stack 0
   536  0000E0                     ?_USBTransferOnePacket:
   537                           	opt stack 0
   538  0000E0                     BUTTON_IsPressed@button:
   539                           	opt stack 0
   540  0000E0                     BUTTON_Enable@button:
   541                           	opt stack 0
   542  0000E0                     LED_Enable@led:
   543                           	opt stack 0
   544  0000E0                     USBTransferOnePacket@dir:
   545                           	opt stack 0
   546  0000E0                     putrsUSBUSART@pData:
   547                           	opt stack 0
   548  0000E0                     putUSBUSART@data:
   549                           	opt stack 0
   550  0000E0                     memset@p1:
   551                           	opt stack 0
   552                           
   553                           ; 2 bytes @ 0x0
   554  0000E0                     	ds	1
   555  0000E1                     putrsUSBUSART@data:
   556                           	opt stack 0
   557  0000E1                     SYSTEM_Initialize@pll_startup_counter:
   558                           	opt stack 0
   559  0000E1                     USBTransferOnePacket@data:
   560                           	opt stack 0
   561                           
   562                           ; 2 bytes @ 0x1
   563  0000E1                     	ds	1
   564  0000E2                     putUSBUSART@length:
   565                           	opt stack 0
   566  0000E2                     putrsUSBUSART@len:
   567                           	opt stack 0
   568  0000E2                     memset@c:
   569                           	opt stack 0
   570                           
   571                           ; 2 bytes @ 0x2
   572  0000E2                     	ds	1
   573  0000E3                     USBTransferOnePacket@len:
   574                           	opt stack 0
   575  0000E3                     SYSTEM_Initialize@pll_startup_counter_79:
   576                           	opt stack 0
   577                           
   578                           ; 2 bytes @ 0x3
   579  0000E3                     	ds	1
   580  0000E4                     USBTransferOnePacket@ep:
   581                           	opt stack 0
   582  0000E4                     memset@n:
   583                           	opt stack 0
   584                           
   585                           ; 2 bytes @ 0x4
   586  0000E4                     	ds	1
   587  0000E5                     SYSTEM_Initialize@state:
   588                           	opt stack 0
   589  0000E5                     USBTransferOnePacket@handle:
   590                           	opt stack 0
   591                           
   592                           ; 2 bytes @ 0x5
   593  0000E5                     	ds	1
   594  0000E6                     memset@p:
   595                           	opt stack 0
   596                           
   597                           ; 2 bytes @ 0x6
   598  0000E6                     	ds	1
   599  0000E7                     getsUSBUSART@buffer:
   600                           	opt stack 0
   601  0000E7                     _CDCTxService$2736:
   602                           	opt stack 0
   603                           
   604                           ; 2 bytes @ 0x7
   605  0000E7                     	ds	1
   606  0000E8                     USBDeviceInit@i:
   607                           	opt stack 0
   608                           
   609                           ; 1 bytes @ 0x8
   610  0000E8                     	ds	1
   611  0000E9                     getsUSBUSART@len:
   612                           	opt stack 0
   613  0000E9                     CDCTxService@i:
   614                           	opt stack 0
   615                           
   616                           ; 1 bytes @ 0x9
   617  0000E9                     	ds	1
   618  0000EA                     CDCTxService@byte_to_send:
   619                           	opt stack 0
   620                           
   621                           ; 1 bytes @ 0xA
   622  0000EA                     	ds	1
   623  0000EB                     _getsUSBUSART$2688:
   624                           	opt stack 0
   625                           
   626                           ; 2 bytes @ 0xB
   627  0000EB                     	ds	2
   628  0000ED                     ??_APP_DeviceCDCBasicDemoTasks:
   629                           
   630                           ; 0 bytes @ 0xD
   631  0000ED                     	ds	1
   632  0000EE                     APP_DeviceCDCBasicDemoTasks@numBytesRead:
   633                           	opt stack 0
   634                           
   635                           ; 1 bytes @ 0xE
   636  0000EE                     	ds	1
   637  0000EF                     APP_DeviceCDCBasicDemoTasks@i:
   638                           	opt stack 0
   639                           
   640                           ; 1 bytes @ 0xF
   641  0000EF                     	ds	1
   642  0000F0                     tblptru	equ	0xFF8
   643                           tblptrh	equ	0xFF7
   644                           tblptrl	equ	0xFF6
   645                           tablat	equ	0xFF5
   646                           postinc0	equ	0xFEE
   647                           wreg	equ	0xFE8
   648                           postdec1	equ	0xFE5
   649                           fsr1l	equ	0xFE1
   650                           
   651                           ; 0 bytes @ 0x10
   652                           
   653                           	psect	cstackCOMRAM
   654  00002B                     __pcstackCOMRAM:
   655                           	opt stack 0
   656  00002B                     ??_USBStdGetDscHandler:
   657  00002B                     ?i2_USBTransferOnePacket:
   658                           	opt stack 0
   659  00002B                     LED_On@led:
   660                           	opt stack 0
   661  00002B                     LED_Off@led:
   662                           	opt stack 0
   663  00002B                     USBConfigureEndpoint@direction:
   664                           	opt stack 0
   665  00002B                     USBCtrlTrfTxService@byteToSend:
   666                           	opt stack 0
   667  00002B                     USBCtrlTrfRxService@i:
   668                           	opt stack 0
   669  00002B                     i2USBTransferOnePacket@dir:
   670                           	opt stack 0
   671  00002B                     USBStdGetStatusHandler@p:
   672                           	opt stack 0
   673  00002B                     i2memset@p1:
   674                           	opt stack 0
   675                           
   676                           ; 2 bytes @ 0x0
   677  00002B                     	ds	1
   678  00002C                     ??_USBConfigureEndpoint:
   679  00002C                     USBCtrlTrfRxService@byteToRead:
   680                           	opt stack 0
   681  00002C                     USBCtrlTrfInHandler@lastDTS:
   682                           	opt stack 0
   683  00002C                     i2USBTransferOnePacket@data:
   684                           	opt stack 0
   685                           
   686                           ; 2 bytes @ 0x1
   687  00002C                     	ds	1
   688  00002D                     i2memset@c:
   689                           	opt stack 0
   690                           
   691                           ; 2 bytes @ 0x2
   692  00002D                     	ds	1
   693  00002E                     i2USBTransferOnePacket@len:
   694                           	opt stack 0
   695                           
   696                           ; 1 bytes @ 0x3
   697  00002E                     	ds	1
   698  00002F                     i2USBTransferOnePacket@ep:
   699                           	opt stack 0
   700  00002F                     i2memset@n:
   701                           	opt stack 0
   702                           
   703                           ; 2 bytes @ 0x4
   704  00002F                     	ds	1
   705  000030                     USBConfigureEndpoint@EPNum:
   706                           	opt stack 0
   707  000030                     i2USBTransferOnePacket@handle:
   708                           	opt stack 0
   709                           
   710                           ; 2 bytes @ 0x5
   711  000030                     	ds	1
   712  000031                     USBConfigureEndpoint@handle:
   713                           	opt stack 0
   714  000031                     i2memset@p:
   715                           	opt stack 0
   716                           
   717                           ; 2 bytes @ 0x6
   718  000031                     	ds	2
   719  000033                     USBEnableEndpoint@options:
   720                           	opt stack 0
   721  000033                     i2USBDeviceInit@i:
   722                           	opt stack 0
   723                           
   724                           ; 1 bytes @ 0x8
   725  000033                     	ds	1
   726  000034                     USBEnableEndpoint@p:
   727                           	opt stack 0
   728                           
   729                           ; 2 bytes @ 0x9
   730  000034                     	ds	2
   731  000036                     USBEnableEndpoint@ep:
   732                           	opt stack 0
   733                           
   734                           ; 1 bytes @ 0xB
   735  000036                     	ds	1
   736  000037                     USER_USB_CALLBACK_EVENT_HANDLER@event:
   737                           	opt stack 0
   738                           
   739                           ; 2 bytes @ 0xC
   740  000037                     	ds	2
   741  000039                     USER_USB_CALLBACK_EVENT_HANDLER@pdata:
   742                           	opt stack 0
   743                           
   744                           ; 2 bytes @ 0xE
   745  000039                     	ds	2
   746  00003B                     USER_USB_CALLBACK_EVENT_HANDLER@size:
   747                           	opt stack 0
   748                           
   749                           ; 2 bytes @ 0x10
   750  00003B                     	ds	2
   751  00003D                     ??_USER_USB_CALLBACK_EVENT_HANDLER:
   752                           
   753                           ; 0 bytes @ 0x12
   754  00003D                     	ds	2
   755  00003F                     ??_USBStdFeatureReqHandler:
   756  00003F                     USBStdSetCfgHandler@i:
   757                           	opt stack 0
   758                           
   759                           ; 1 bytes @ 0x14
   760  00003F                     	ds	2
   761  000041                     USBStdFeatureReqHandler@pUEP:
   762                           	opt stack 0
   763                           
   764                           ; 2 bytes @ 0x16
   765  000041                     	ds	2
   766  000043                     USBStdFeatureReqHandler@current_ep_data:
   767                           	opt stack 0
   768                           
   769                           ; 1 bytes @ 0x18
   770  000043                     	ds	1
   771  000044                     USBStdFeatureReqHandler@p:
   772                           	opt stack 0
   773                           
   774                           ; 2 bytes @ 0x19
   775  000044                     	ds	2
   776  000046                     ??_USBCheckStdRequest:
   777                           
   778                           ; 0 bytes @ 0x1B
   779  000046                     	ds	1
   780  000047                     ??_USBCtrlEPService:
   781  000047                     
   782                           ; 0 bytes @ 0x1C
   783  000047                     	ds	2
   784  000049                     USBCtrlEPService@setup_cnt:
   785                           	opt stack 0
   786                           
   787                           ; 1 bytes @ 0x1E
   788  000049                     	ds	1
   789  00004A                     USBDeviceTasks@i:
   790                           	opt stack 0
   791                           
   792                           ; 1 bytes @ 0x1F
   793  00004A                     	ds	1
   794  00004B                     ??_SYS_InterruptHigh:
   795                           
   796                           ; 0 bytes @ 0x20
   797  00004B                     	ds	10
   798                           tblptru	equ	0xFF8
   799                           tblptrh	equ	0xFF7
   800                           tblptrl	equ	0xFF6
   801                           tablat	equ	0xFF5
   802                           postinc0	equ	0xFEE
   803                           wreg	equ	0xFE8
   804                           postdec1	equ	0xFE5
   805                           fsr1l	equ	0xFE1
   806                           
   807 ;;
   808 ;;Main: autosize = 0, tempsize = 0, incstack = 0, save=0
   809 ;;
   810 ;; *************** function _main *****************
   811 ;; Defined at:
   812 ;;		line 49 in file "../src/main.c"
   813 ;; Parameters:    Size  Location     Type
   814 ;;		None
   815 ;; Auto vars:     Size  Location     Type
   816 ;;		None
   817 ;; Return value:  Size  Location     Type
   818 ;;		None               void
   819 ;; Registers used:
   820 ;;		wreg, fsr1l, fsr1h, fsr2l, fsr2h, status,2, status,0, prodl, prodh, cstack
   821 ;; Tracked objects:
   822 ;;		On entry : 0/0
   823 ;;		On exit  : F/0
   824 ;;		Unchanged: 0/0
   825 ;; Data sizes:     COMRAM   BANK0   BANK1   BANK2   BANK3   BANK4   BANK5   BANK6   BANK7   BANK8   BANK9  BANK10  BANK1
      +1  BANK12  BANK13  BANK14
   826 ;;      Params:         0       0       0       0       0       0       0       0       0       0       0       0       
      +0       0       0       0
   827 ;;      Locals:         0       0       0       0       0       0       0       0       0       0       0       0       
      +0       0       0       0
   828 ;;      Temps:          0       0       0       0       0       0       0       0       0       0       0       0       
      +0       0       0       0
   829 ;;      Totals:         0       0       0       0       0       0       0       0       0       0       0       0       
      +0       0       0       0
   830 ;;Total ram usage:        0 bytes
   831 ;; Hardware stack levels required when called:   14
   832 ;; This function calls:
   833 ;;		_APP_DeviceCDCBasicDemoTasks
   834 ;;		_SYSTEM_Initialize
   835 ;;		_USBDeviceAttach
   836 ;;		_USBDeviceInit
   837 ;; This function is called by:
   838 ;;		Startup code after reset
   839 ;; This function uses a non-reentrant model
   840 ;;
   841                           
   842                           	psect	text0
   843  0026DE                     __ptext0:
   844                           	opt stack 0
   845  0026DE                     _main:
   846                           	opt stack 17
   847                           
   848                           ;main.c: 51: SYSTEM_Initialize(SYSTEM_STATE_USB_START);
   849                           
   850                           ; BSR set to: 0
   851                           ;incstack = 0
   852  0026DE  0E00               	movlw	0
   853  0026E0  ECF6  F011         	call	_SYSTEM_Initialize
   854                           
   855                           ;main.c: 53: USBDeviceInit();
   856  0026E4  ECE8  F00B         	call	_USBDeviceInit	;wreg free
   857                           
   858                           ; BSR set to: 13
   859                           ;main.c: 54: USBDeviceAttach();
   860  0026E8  EC1B  F013         	call	_USBDeviceAttach	;wreg free
   861  0026EC                     l4354:
   862                           
   863                           ;main.c: 57: {
   864                           ;main.c: 58: ;
   865                           ;main.c: 80: if( USBDeviceState < CONFIGURED_STATE )
   866  0026EC  0E20               	movlw	32
   867  0026EE  6021               	cpfslt	_USBDeviceState,c	;volatile
   868  0026F0  D001               	goto	l121
   869  0026F2  D7FC               	goto	l4354
   870  0026F4                     l121:
   871                           
   872                           ;main.c: 84: }
   873                           ;main.c: 90: if( UCONbits.SUSPND== 1 )
   874  0026F4  A265               	btfss	3941,1,c	;volatile
   875                           
   876                           ;main.c: 94: }
   877                           ;main.c: 97: APP_DeviceCDCBasicDemoTasks();
   878  0026F6  ECF7  F00D         	call	_APP_DeviceCDCBasicDemoTasks	;wreg free
   879  0026FA  D7F8               	goto	l4354
   880  0026FC                     __end_of_main:
   881                           	opt stack 0
   882                           tblptru	equ	0xFF8
   883                           tblptrh	equ	0xFF7
   884                           tblptrl	equ	0xFF6
   885                           tablat	equ	0xFF5
   886                           postinc0	equ	0xFEE
   887                           wreg	equ	0xFE8
   888                           postdec1	equ	0xFE5
   889                           fsr1l	equ	0xFE1
   890                           
   891 ;; *************** function _USBDeviceInit *****************
   892 ;; Defined at:
   893 ;;		line 298 in file "../../../../../../framework/usb/src/usb_device.c"
   894 ;; Parameters:    Size  Location     Type
   895 ;;		None
   896 ;; Auto vars:     Size  Location     Type
   897 ;;  i               1    8[BANK0 ] unsigned char 
   898 ;; Return value:  Size  Location     Type
   899 ;;		None               void
   900 ;; Registers used:
   901 ;;		wreg, fsr2l, fsr2h, status,2, status,0, prodl, prodh, cstack
   902 ;; Tracked objects:
   903 ;;		On entry : 0/0
   904 ;;		On exit  : F/D
   905 ;;		Unchanged: 0/0
   906 ;; Data sizes:     COMRAM   BANK0   BANK1   BANK2   BANK3   BANK4   BANK5   BANK6   BANK7   BANK8   BANK9  BANK10  BANK1
      +1  BANK12  BANK13  BANK14
   907 ;;      Params:         0       0       0       0       0       0       0       0       0       0       0       0       
      +0       0       0       0
   908 ;;      Locals:         0       1       0       0       0       0       0       0       0       0       0       0       
      +0       0       0       0
   909 ;;      Temps:          0       0       0       0       0       0       0       0       0       0       0       0       
      +0       0       0       0
   910 ;;      Totals:         0       1       0       0       0       0       0       0       0       0       0       0       
      +0       0       0       0
   911 ;;Total ram usage:        1 bytes
   912 ;; Hardware stack levels used:    1
   913 ;; Hardware stack levels required when called:   12
   914 ;; This function calls:
   915 ;;		_memset
   916 ;; This function is called by:
   917 ;;		_main
   918 ;; This function uses a non-reentrant model
   919 ;;
   920                           
   921                           	psect	text1
   922  0017D0                     __ptext1:
   923                           	opt stack 0
   924  0017D0                     _USBDeviceInit:
   925                           	opt stack 18
   926                           
   927                           ;usb_device.c: 300: uint8_t i;
   928                           ;usb_device.c: 302: {PIE2bits.USBIE = 0;};
   929                           
   930                           ; BSR set to: 0
   931                           ;incstack = 0
   932  0017D0  98A0               	bcf	4000,4,c	;volatile
   933                           
   934                           ;usb_device.c: 305: {UEIR = 0;};
   935  0017D2  6A63               	clrf	3939,c	;volatile
   936                           
   937                           ;usb_device.c: 308: {UIR = 0;};
   938  0017D4  6A62               	clrf	3938,c	;volatile
   939                           
   940                           ;usb_device.c: 311: UEP0 = 0;
   941  0017D6  010F               	movlb	15	; () banked
   942  0017D8  6B26               	clrf	38,b	;volatile
   943                           
   944                           ; BSR set to: 15
   945                           ;usb_device.c: 313: memset((void*)&UEP1,0x00,(2));;
   946  0017DA  0E27               	movlw	39
   947  0017DC  0100               	movlb	0	; () banked
   948  0017DE  6FE0               	movwf	memset@p1& (0+255),b
   949  0017E0  0E0F               	movlw	15
   950  0017E2  6FE1               	movwf	(memset@p1+1)& (0+255),b
   951  0017E4  6BE3               	clrf	(memset@c+1)& (0+255),b
   952  0017E6  6BE2               	clrf	memset@c& (0+255),b
   953  0017E8  6BE5               	clrf	(memset@n+1)& (0+255),b
   954  0017EA  0E02               	movlw	2
   955  0017EC  6FE4               	movwf	memset@n& (0+255),b
   956  0017EE  EC32  F013         	call	_memset	;wreg free
   957                           
   958                           ; BSR set to: 0
   959                           ;usb_device.c: 315: { UCFG = 0x10 | 0x00 | 0x04 | 0x02; UEIE = 0x9F; UIE = 0x39 | 0x40 |
      +                           0x02; };
   960  0017F2  0E16               	movlw	22
   961  0017F4  010F               	movlb	15	; () banked
   962  0017F6  6F39               	movwf	57,b	;volatile
   963                           
   964                           ; BSR set to: 15
   965  0017F8  0E9F               	movlw	159
   966  0017FA  6F37               	movwf	55,b	;volatile
   967                           
   968                           ; BSR set to: 15
   969  0017FC  0E7B               	movlw	123
   970  0017FE  6F36               	movwf	54,b	;volatile
   971                           
   972                           ; BSR set to: 15
   973                           ;usb_device.c: 318: ;
   974                           ;usb_device.c: 321: ;
   975                           ;usb_device.c: 324: for(i=0;i<(sizeof(BDT)/sizeof(BDT_ENTRY));i++)
   976  001800  0100               	movlb	0	; () banked
   977  001802  6BE8               	clrf	USBDeviceInit@i& (0+255),b
   978  001804                     l4276:
   979                           
   980                           ; BSR set to: 0
   981                           ;usb_device.c: 325: {
   982                           ;usb_device.c: 326: BDT[i].Val = 0x00;
   983  001804  51E8               	movf	USBDeviceInit@i& (0+255),w,b
   984  001806  0D04               	mullw	4
   985  001808  0E00               	movlw	0
   986  00180A  24F3               	addwf	prodl,w,c
   987  00180C  6ED9               	movwf	fsr2l,c
   988  00180E  0E0D               	movlw	13
   989  001810  20F4               	addwfc	prodh,w,c
   990  001812  6EDA               	movwf	fsr2h,c
   991  001814  6ADE               	clrf	postinc2,c
   992  001816  6ADE               	clrf	postinc2,c
   993  001818  6ADE               	clrf	postinc2,c
   994  00181A  6ADD               	clrf	postdec2,c
   995                           
   996                           ; BSR set to: 0
   997  00181C  2BE8               	incf	USBDeviceInit@i& (0+255),f,b
   998                           
   999                           ; BSR set to: 0
  1000  00181E  0E0B               	movlw	11
  1001  001820  65E8               	cpfsgt	USBDeviceInit@i& (0+255),b
  1002  001822  D7F0               	goto	l4276
  1003                           
  1004                           ; BSR set to: 0
  1005                           ;usb_device.c: 327: }
  1006                           ;usb_device.c: 330: UCONbits.PPBRST = 1;
  1007  001824  8C65               	bsf	3941,6,c	;volatile
  1008                           
  1009                           ;usb_device.c: 333: UADDR = 0x00;
  1010  001826  010F               	movlb	15	; () banked
  1011  001828  6B38               	clrf	56,b	;volatile
  1012                           
  1013                           ;usb_device.c: 336: UCONbits.PKTDIS = 0;
  1014  00182A  9865               	bcf	3941,4,c	;volatile
  1015                           
  1016                           ;usb_device.c: 339: UCONbits.PPBRST = 0;
  1017  00182C  9C65               	bcf	3941,6,c	;volatile
  1018                           
  1019                           ;usb_device.c: 342: while(UIRbits.TRNIF == 1)
  1020  00182E  D005               	goto	l4290
  1021  001830                     l4282:
  1022                           
  1023                           ;usb_device.c: 343: {
  1024                           ;usb_device.c: 344: (UIR &= 0xF7);
  1025  001830  9662               	bcf	3938,3,c	;volatile
  1026                           
  1027                           ;usb_device.c: 346: inPipes[0].info.Val = 0;
  1028  001832  6A0D               	clrf	_inPipes+3,c	;volatile
  1029                           
  1030                           ;usb_device.c: 347: outPipes[0].info.Val = 0;
  1031  001834  6A04               	clrf	_outPipes+3,c	;volatile
  1032                           
  1033                           ;usb_device.c: 348: outPipes[0].wCount.Val = 0;
  1034  001836  6A05               	clrf	_outPipes+4,c	;volatile
  1035  001838  6A06               	clrf	_outPipes+5,c	;volatile
  1036  00183A                     l4290:
  1037  00183A  B662               	btfsc	3938,3,c	;volatile
  1038  00183C  D7F9               	goto	l4282
  1039                           
  1040                           ;usb_device.c: 349: }
  1041                           ;usb_device.c: 353: USBStatusStageEnabledFlag1 = 1;
  1042  00183E  0E01               	movlw	1
  1043  001840  6E22               	movwf	_USBStatusStageEnabledFlag1,c	;volatile
  1044                           
  1045                           ;usb_device.c: 354: USBStatusStageEnabledFlag2 = 1;
  1046  001842  6E23               	movwf	_USBStatusStageEnabledFlag2,c	;volatile
  1047                           
  1048                           ;usb_device.c: 356: USBDeferINDataStagePackets = 0;
  1049  001844  6A1E               	clrf	_USBDeferINDataStagePackets,c	;volatile
  1050                           
  1051                           ;usb_device.c: 357: USBDeferOUTDataStagePackets = 0;
  1052  001846  6A1F               	clrf	_USBDeferOUTDataStagePackets,c	;volatile
  1053                           
  1054                           ;usb_device.c: 358: USBBusIsSuspended = 0;
  1055  001848  0100               	movlb	0	; () banked
  1056  00184A  6B78               	clrf	_USBBusIsSuspended& (0+255),b	;volatile
  1057                           
  1058                           ; BSR set to: 0
  1059                           ;usb_device.c: 362: for(i = 0; i < (uint8_t)(2+1u); i++)
  1060  00184C  6BE8               	clrf	USBDeviceInit@i& (0+255),b
  1061  00184E                     l4306:
  1062                           
  1063                           ; BSR set to: 0
  1064                           ;usb_device.c: 363: {
  1065                           ;usb_device.c: 364: pBDTEntryIn[i] = 0u;
  1066  00184E  51E8               	movf	USBDeviceInit@i& (0+255),w,b
  1067  001850  0D02               	mullw	2
  1068  001852  50F3               	movf	prodl,w,c
  1069  001854  0F10               	addlw	low _pBDTEntryIn
  1070  001856  6ED9               	movwf	fsr2l,c
  1071  001858  6ADA               	clrf	fsr2h,c
  1072  00185A  6ADE               	clrf	postinc2,c
  1073  00185C  6ADD               	clrf	postdec2,c
  1074                           
  1075                           ;usb_device.c: 365: pBDTEntryOut[i] = 0u;
  1076  00185E  51E8               	movf	USBDeviceInit@i& (0+255),w,b
  1077  001860  0D02               	mullw	2
  1078  001862  50F3               	movf	prodl,w,c
  1079  001864  0F60               	addlw	low _pBDTEntryOut
  1080  001866  6ED9               	movwf	fsr2l,c
  1081  001868  6ADA               	clrf	fsr2h,c
  1082  00186A  6ADE               	clrf	postinc2,c
  1083  00186C  6ADD               	clrf	postdec2,c
  1084                           
  1085                           ; BSR set to: 0
  1086                           ;usb_device.c: 366: ep_data_in[i].Val = 0u;
  1087  00186E  51E8               	movf	USBDeviceInit@i& (0+255),w,b
  1088  001870  0F66               	addlw	low _ep_data_in
  1089  001872  6ED9               	movwf	fsr2l,c
  1090  001874  6ADA               	clrf	fsr2h,c
  1091  001876  6ADF               	clrf	indf2,c
  1092                           
  1093                           ; BSR set to: 0
  1094                           ;usb_device.c: 367: ep_data_out[i].Val = 0u;
  1095  001878  51E8               	movf	USBDeviceInit@i& (0+255),w,b
  1096  00187A  0F69               	addlw	low _ep_data_out
  1097  00187C  6ED9               	movwf	fsr2l,c
  1098  00187E  6ADA               	clrf	fsr2h,c
  1099  001880  6ADF               	clrf	indf2,c
  1100                           
  1101                           ; BSR set to: 0
  1102  001882  2BE8               	incf	USBDeviceInit@i& (0+255),f,b
  1103                           
  1104                           ; BSR set to: 0
  1105  001884  0E02               	movlw	2
  1106  001886  65E8               	cpfsgt	USBDeviceInit@i& (0+255),b
  1107  001888  D7E2               	goto	l4306
  1108                           
  1109                           ; BSR set to: 0
  1110                           ;usb_device.c: 368: }
  1111                           ;usb_device.c: 371: pBDTEntryIn[0] = (volatile BDT_ENTRY*)&BDT[2];
  1112  00188A  0E08               	movlw	8
  1113  00188C  6E10               	movwf	_pBDTEntryIn,c
  1114  00188E  0E0D               	movlw	13
  1115  001890  6E11               	movwf	_pBDTEntryIn+1,c
  1116                           
  1117                           ; BSR set to: 0
  1118                           ;usb_device.c: 373: UEP0 = 0x06|0x10;
  1119  001892  0E16               	movlw	22
  1120  001894  010F               	movlb	15	; () banked
  1121  001896  6F26               	movwf	38,b	;volatile
  1122                           
  1123                           ; BSR set to: 15
  1124                           ;usb_device.c: 375: BDT[0].ADR = ((uint16_t)(&SetupPkt));
  1125  001898  0E0D               	movlw	13
  1126  00189A  010D               	movlb	13	; () banked
  1127  00189C  6F03               	movwf	3,b	;volatile
  1128  00189E  0E30               	movlw	48
  1129  0018A0  6F02               	movwf	2,b	;volatile
  1130                           
  1131                           ; BSR set to: 13
  1132                           ;usb_device.c: 376: BDT[0].CNT = 8;
  1133  0018A2  0E08               	movlw	8
  1134  0018A4  6F01               	movwf	1,b	;volatile
  1135                           
  1136                           ; BSR set to: 13
  1137                           ;usb_device.c: 377: BDT[0].STAT.Val = 0x00|0x04;
  1138  0018A6  0E04               	movlw	4
  1139  0018A8  6F00               	movwf	0,b	;volatile
  1140                           
  1141                           ; BSR set to: 13
  1142                           ;usb_device.c: 378: BDT[0].STAT.Val |= 0x80;
  1143  0018AA  8F00               	bsf	0,7,b	;volatile
  1144                           
  1145                           ; BSR set to: 13
  1146                           ;usb_device.c: 381: USBActiveConfiguration = 0;
  1147  0018AC  6A29               	clrf	_USBActiveConfiguration,c	;volatile
  1148                           
  1149                           ; BSR set to: 13
  1150                           ;usb_device.c: 384: USBDeviceState = DETACHED_STATE;
  1151  0018AE  6A21               	clrf	_USBDeviceState,c	;volatile
  1152                           
  1153                           ; BSR set to: 13
  1154  0018B0  0012               	return		;funcret
  1155  0018B2                     __end_of_USBDeviceInit:
  1156                           	opt stack 0
  1157                           tblptru	equ	0xFF8
  1158                           tblptrh	equ	0xFF7
  1159                           tblptrl	equ	0xFF6
  1160                           tablat	equ	0xFF5
  1161                           prodh	equ	0xFF4
  1162                           prodl	equ	0xFF3
  1163                           postinc0	equ	0xFEE
  1164                           wreg	equ	0xFE8
  1165                           postdec1	equ	0xFE5
  1166                           fsr1l	equ	0xFE1
  1167                           indf2	equ	0xFDF
  1168                           postinc2	equ	0xFDE
  1169                           postdec2	equ	0xFDD
  1170                           fsr2h	equ	0xFDA
  1171                           fsr2l	equ	0xFD9
  1172                           
  1173 ;; *************** function _memset *****************
  1174 ;; Defined at:
  1175 ;;		line 8 in file "C:\Program Files (x86)\Microchip\xc8\v1.35\sources\common\memset.c"
  1176 ;; Parameters:    Size  Location     Type
  1177 ;;  p1              2    0[BANK0 ] PTR void 
  1178 ;;		 -> USBAlternateInterface(2), BDT(48), UEP1(1), 
  1179 ;;  c               2    2[BANK0 ] int 
  1180 ;;  n               2    4[BANK0 ] unsigned int 
  1181 ;; Auto vars:     Size  Location     Type
  1182 ;;  p               2    6[BANK0 ] PTR unsigned char 
  1183 ;;		 -> USBAlternateInterface(2), BDT(48), UEP1(1), 
  1184 ;; Return value:  Size  Location     Type
  1185 ;;                  2    0[BANK0 ] PTR void 
  1186 ;; Registers used:
  1187 ;;		wreg, fsr2l, fsr2h, status,2, status,0
  1188 ;; Tracked objects:
  1189 ;;		On entry : F/0
  1190 ;;		On exit  : F/0
  1191 ;;		Unchanged: 0/0
  1192 ;; Data sizes:     COMRAM   BANK0   BANK1   BANK2   BANK3   BANK4   BANK5   BANK6   BANK7   BANK8   BANK9  BANK10  BANK1
      +1  BANK12  BANK13  BANK14
  1193 ;;      Params:         0       6       0       0       0       0       0       0       0       0       0       0       
      +0       0       0       0
  1194 ;;      Locals:         0       2       0       0       0       0       0       0       0       0       0       0       
      +0       0       0       0
  1195 ;;      Temps:          0       0       0       0       0       0       0       0       0       0       0       0       
      +0       0       0       0
  1196 ;;      Totals:         0       8       0       0       0       0       0       0       0       0       0       0       
      +0       0       0       0
  1197 ;;Total ram usage:        8 bytes
  1198 ;; Hardware stack levels used:    1
  1199 ;; Hardware stack levels required when called:   11
  1200 ;; This function calls:
  1201 ;;		Nothing
  1202 ;; This function is called by:
  1203 ;;		_USBDeviceInit
  1204 ;; This function uses a non-reentrant model
  1205 ;;
  1206                           
  1207                           	psect	text2
  1208  002664                     __ptext2:
  1209                           	opt stack 0
  1210  002664                     _memset:
  1211                           	opt stack 18
  1212                           
  1213                           ; BSR set to: 0
  1214                           
  1215                           ; BSR set to: 13
  1216                           ;incstack = 0
  1217  002664  C0E0  F0E6         	movff	memset@p1,memset@p
  1218  002668  C0E1  F0E7         	movff	memset@p1+1,memset@p+1
  1219  00266C  D008               	goto	l4206
  1220  00266E                     l4202:
  1221                           
  1222                           ; BSR set to: 0
  1223  00266E  C0E6  FFD9         	movff	memset@p,fsr2l
  1224  002672  C0E7  FFDA         	movff	memset@p+1,fsr2h
  1225  002676  C0E2  FFDF         	movff	memset@c,indf2
  1226                           
  1227                           ; BSR set to: 0
  1228  00267A  4BE6               	infsnz	memset@p& (0+255),f,b
  1229  00267C  2BE7               	incf	(memset@p+1)& (0+255),f,b
  1230  00267E                     l4206:
  1231                           
  1232                           ; BSR set to: 0
  1233  00267E  07E4               	decf	memset@n& (0+255),f,b
  1234  002680  A0D8               	btfss	status,0,c
  1235  002682  07E5               	decf	(memset@n+1)& (0+255),f,b
  1236  002684  29E4               	incf	memset@n& (0+255),w,b
  1237  002686  E1F3               	bnz	l4202
  1238  002688  29E5               	incf	(memset@n+1)& (0+255),w,b
  1239  00268A  E1F1               	bnz	l4202
  1240                           
  1241                           ; BSR set to: 0
  1242  00268C  0012               	return		;funcret
  1243  00268E                     __end_of_memset:
  1244                           	opt stack 0
  1245                           tblptru	equ	0xFF8
  1246                           tblptrh	equ	0xFF7
  1247                           tblptrl	equ	0xFF6
  1248                           tablat	equ	0xFF5
  1249                           prodh	equ	0xFF4
  1250                           prodl	equ	0xFF3
  1251                           postinc0	equ	0xFEE
  1252                           wreg	equ	0xFE8
  1253                           postdec1	equ	0xFE5
  1254                           fsr1l	equ	0xFE1
  1255                           indf2	equ	0xFDF
  1256                           postinc2	equ	0xFDE
  1257                           postdec2	equ	0xFDD
  1258                           fsr2h	equ	0xFDA
  1259                           fsr2l	equ	0xFD9
  1260                           status	equ	0xFD8
  1261                           
  1262 ;; *************** function _USBDeviceAttach *****************
  1263 ;; Defined at:
  1264 ;;		line 1352 in file "../../../../../../framework/usb/src/usb_device.c"
  1265 ;; Parameters:    Size  Location     Type
  1266 ;;		None
  1267 ;; Auto vars:     Size  Location     Type
  1268 ;;		None
  1269 ;; Return value:  Size  Location     Type
  1270 ;;		None               void
  1271 ;; Registers used:
  1272 ;;		wreg, status,2
  1273 ;; Tracked objects:
  1274 ;;		On entry : F/D
  1275 ;;		On exit  : D/D
  1276 ;;		Unchanged: 0/0
  1277 ;; Data sizes:     COMRAM   BANK0   BANK1   BANK2   BANK3   BANK4   BANK5   BANK6   BANK7   BANK8   BANK9  BANK10  BANK1
      +1  BANK12  BANK13  BANK14
  1278 ;;      Params:         0       0       0       0       0       0       0       0       0       0       0       0       
      +0       0       0       0
  1279 ;;      Locals:         0       0       0       0       0       0       0       0       0       0       0       0       
      +0       0       0       0
  1280 ;;      Temps:          0       0       0       0       0       0       0       0       0       0       0       0       
      +0       0       0       0
  1281 ;;      Totals:         0       0       0       0       0       0       0       0       0       0       0       0       
      +0       0       0       0
  1282 ;;Total ram usage:        0 bytes
  1283 ;; Hardware stack levels used:    1
  1284 ;; Hardware stack levels required when called:   11
  1285 ;; This function calls:
  1286 ;;		Nothing
  1287 ;; This function is called by:
  1288 ;;		_main
  1289 ;; This function uses a non-reentrant model
  1290 ;;
  1291                           
  1292                           	psect	text3
  1293  002636                     __ptext3:
  1294                           	opt stack 0
  1295  002636                     _USBDeviceAttach:
  1296                           	opt stack 19
  1297                           
  1298                           ; BSR set to: 13
  1299                           ;usb_device.c: 1356: {
  1300                           ;usb_device.c: 1357: if(1 == 1)
  1301                           
  1302                           ; BSR set to: 0
  1303                           ;incstack = 0
  1304  002636  5021               	movf	_USBDeviceState,w,c	;volatile
  1305  002638  A4D8               	btfss	status,2,c
  1306  00263A  0012               	return	
  1307                           
  1308                           ; BSR set to: 13
  1309                           ;usb_device.c: 1358: {
  1310                           ;usb_device.c: 1360: UCON = 0;
  1311  00263C  6A65               	clrf	3941,c	;volatile
  1312                           
  1313                           ;usb_device.c: 1363: UIE = 0;
  1314  00263E  010F               	movlb	15	; () banked
  1315  002640  6B36               	clrf	54,b	;volatile
  1316                           
  1317                           ; BSR set to: 15
  1318                           ;usb_device.c: 1367: { UCFG = 0x10 | 0x00 | 0x04 | 0x02; UEIE = 0x9F; UIE = 0x39 | 0x40 
      +                          | 0x02; };
  1319  002642  0E16               	movlw	22
  1320  002644  6F39               	movwf	57,b	;volatile
  1321  002646  0E9F               	movlw	159
  1322  002648  6F37               	movwf	55,b	;volatile
  1323  00264A  0E7B               	movlw	123
  1324  00264C  6F36               	movwf	54,b	;volatile
  1325                           
  1326                           ; BSR set to: 15
  1327                           ;usb_device.c: 1369: {RCONbits.IPEN = 1;IPR2bits.USBIP = 1;PIE2bits.USBIE = 1;INTCONbits
      +                          .GIEH = 1;};
  1328  00264E  8ED0               	bsf	4048,7,c	;volatile
  1329                           
  1330                           ; BSR set to: 15
  1331  002650  88A2               	bsf	4002,4,c	;volatile
  1332                           
  1333                           ; BSR set to: 15
  1334  002652  88A0               	bsf	4000,4,c	;volatile
  1335                           
  1336                           ; BSR set to: 15
  1337  002654  8EF2               	bsf	intcon,7,c	;volatile
  1338                           
  1339                           ;usb_device.c: 1372: while(!UCONbits.USBEN){UCONbits.USBEN = 1;}
  1340  002656  D001               	goto	l456
  1341  002658                     l457:
  1342  002658  8665               	bsf	3941,3,c	;volatile
  1343  00265A                     l456:
  1344  00265A  A665               	btfss	3941,3,c	;volatile
  1345  00265C  D7FD               	goto	l457
  1346                           
  1347                           ;usb_device.c: 1375: USBDeviceState = ATTACHED_STATE;
  1348  00265E  0E01               	movlw	1
  1349  002660  6E21               	movwf	_USBDeviceState,c	;volatile
  1350  002662  0C01               	retlw	1	;funcret
  1351  002664                     __end_of_USBDeviceAttach:
  1352                           	opt stack 0
  1353                           tblptru	equ	0xFF8
  1354                           tblptrh	equ	0xFF7
  1355                           tblptrl	equ	0xFF6
  1356                           tablat	equ	0xFF5
  1357                           prodh	equ	0xFF4
  1358                           prodl	equ	0xFF3
  1359                           intcon	equ	0xFF2
  1360                           postinc0	equ	0xFEE
  1361                           wreg	equ	0xFE8
  1362                           postdec1	equ	0xFE5
  1363                           fsr1l	equ	0xFE1
  1364                           indf2	equ	0xFDF
  1365                           postinc2	equ	0xFDE
  1366                           postdec2	equ	0xFDD
  1367                           fsr2h	equ	0xFDA
  1368                           fsr2l	equ	0xFD9
  1369                           status	equ	0xFD8
  1370                           
  1371 ;; *************** function _SYSTEM_Initialize *****************
  1372 ;; Defined at:
  1373 ;;		line 57 in file "../src/system_config/pic18f27j53_pim/system.c"
  1374 ;; Parameters:    Size  Location     Type
  1375 ;;  state           1    wreg     enum E9353
  1376 ;; Auto vars:     Size  Location     Type
  1377 ;;  state           1    5[BANK0 ] enum E9353
  1378 ;;  pll_startup_    2    3[BANK0 ] unsigned int 
  1379 ;;  pll_startup_    2    1[BANK0 ] unsigned int 
  1380 ;; Return value:  Size  Location     Type
  1381 ;;		None               void
  1382 ;; Registers used:
  1383 ;;		wreg, status,2, status,0, cstack
  1384 ;; Tracked objects:
  1385 ;;		On entry : 0/0
  1386 ;;		On exit  : 0/0
  1387 ;;		Unchanged: 0/0
  1388 ;; Data sizes:     COMRAM   BANK0   BANK1   BANK2   BANK3   BANK4   BANK5   BANK6   BANK7   BANK8   BANK9  BANK10  BANK1
      +1  BANK12  BANK13  BANK14
  1389 ;;      Params:         0       0       0       0       0       0       0       0       0       0       0       0       
      +0       0       0       0
  1390 ;;      Locals:         0       5       0       0       0       0       0       0       0       0       0       0       
      +0       0       0       0
  1391 ;;      Temps:          0       0       0       0       0       0       0       0       0       0       0       0       
      +0       0       0       0
  1392 ;;      Totals:         0       5       0       0       0       0       0       0       0       0       0       0       
      +0       0       0       0
  1393 ;;Total ram usage:        5 bytes
  1394 ;; Hardware stack levels used:    1
  1395 ;; Hardware stack levels required when called:   12
  1396 ;; This function calls:
  1397 ;;		_BUTTON_Enable
  1398 ;;		_LED_Enable
  1399 ;; This function is called by:
  1400 ;;		_main
  1401 ;; This function uses a non-reentrant model
  1402 ;;
  1403                           
  1404                           	psect	text4
  1405  0023EC                     __ptext4:
  1406                           	opt stack 0
  1407  0023EC                     _SYSTEM_Initialize:
  1408                           	opt stack 18
  1409                           
  1410                           ;incstack = 0
  1411                           ;SYSTEM_Initialize@state stored from wreg
  1412  0023EC  0100               	movlb	0	; () banked
  1413  0023EE  6FE5               	movwf	SYSTEM_Initialize@state& (0+255),b
  1414                           
  1415                           ;system.c: 59: switch(state)
  1416  0023F0  D020               	goto	l4224
  1417  0023F2                     l4210:
  1418                           
  1419                           ; BSR set to: 0
  1420                           ;system.c: 68: {
  1421                           ;system.c: 69: unsigned int pll_startup_counter = 600;
  1422  0023F2  0E02               	movlw	2
  1423  0023F4  6FE2               	movwf	(SYSTEM_Initialize@pll_startup_counter+1)& (0+255),b
  1424  0023F6  0E58               	movlw	88
  1425  0023F8  6FE1               	movwf	SYSTEM_Initialize@pll_startup_counter& (0+255),b
  1426                           
  1427                           ; BSR set to: 0
  1428                           ;system.c: 70: OSCTUNEbits.PLLEN = 1;
  1429  0023FA  8C9B               	bsf	3995,6,c	;volatile
  1430  0023FC                     l4214:
  1431                           
  1432                           ; BSR set to: 0
  1433  0023FC  07E1               	decf	SYSTEM_Initialize@pll_startup_counter& (0+255),f,b
  1434  0023FE  A0D8               	btfss	status,0,c
  1435  002400  07E2               	decf	(SYSTEM_Initialize@pll_startup_counter+1)& (0+255),f,b
  1436  002402  29E1               	incf	SYSTEM_Initialize@pll_startup_counter& (0+255),w,b
  1437  002404  E1FB               	bnz	l4214
  1438  002406  29E2               	incf	(SYSTEM_Initialize@pll_startup_counter+1)& (0+255),w,b
  1439  002408  E1F9               	bnz	l4214
  1440                           
  1441                           ; BSR set to: 0
  1442                           ;system.c: 72: }
  1443                           ;system.c: 75: LED_Enable(LED_D1);
  1444  00240A  0E01               	movlw	1
  1445  00240C  EC7E  F013         	call	_LED_Enable
  1446                           
  1447                           ;system.c: 76: BUTTON_Enable(BUTTON_S2);
  1448  002410  0E01               	movlw	1
  1449  002412  EFE3  F013         	goto	_BUTTON_Enable
  1450  002416                     l4218:
  1451                           
  1452                           ; BSR set to: 0
  1453                           ;system.c: 82: OSCCON = 0x70;
  1454  002416  0E70               	movlw	112
  1455  002418  6ED3               	movwf	4051,c	;volatile
  1456                           
  1457                           ;system.c: 88: {
  1458                           ;system.c: 89: unsigned int pll_startup_counter = 800;
  1459  00241A  0E03               	movlw	3
  1460  00241C  6FE4               	movwf	(SYSTEM_Initialize@pll_startup_counter_79+1)& (0+255),b
  1461  00241E  0E20               	movlw	32
  1462  002420  6FE3               	movwf	SYSTEM_Initialize@pll_startup_counter_79& (0+255),b
  1463  002422                     l4220:
  1464                           
  1465                           ; BSR set to: 0
  1466  002422  07E3               	decf	SYSTEM_Initialize@pll_startup_counter_79& (0+255),f,b
  1467  002424  A0D8               	btfss	status,0,c
  1468  002426  07E4               	decf	(SYSTEM_Initialize@pll_startup_counter_79+1)& (0+255),f,b
  1469  002428  29E3               	incf	SYSTEM_Initialize@pll_startup_counter_79& (0+255),w,b
  1470  00242A  E1FB               	bnz	l4220
  1471  00242C  29E4               	incf	(SYSTEM_Initialize@pll_startup_counter_79+1)& (0+255),w,b
  1472  00242E  E1F9               	bnz	l4220
  1473  002430  0012               	return	
  1474  002432                     l4224:
  1475  002432  0100               	movlb	0	; () banked
  1476  002434  51E5               	movf	SYSTEM_Initialize@state& (0+255),w,b
  1477                           
  1478                           ; Switch size 1, requested type "speed"
  1479                           ; Number of cases is 3, Range of values is 0 to 2
  1480                           ; switch strategies available:
  1481                           ; Name         Instructions Cycles
  1482                           ; simple_byte           10     6 (average)
  1483                           ;	Chosen strategy is simple_byte
  1484  002436  E0DD               	bz	l4210
  1485  002438  0A01               	xorlw	1	; case 1
  1486  00243A  B4D8               	btfsc	status,2,c
  1487  00243C  0012               	return	
  1488  00243E  0A03               	xorlw	3	; case 2
  1489  002440  E0EA               	bz	l4218
  1490  002442  0012               	return		;funcret
  1491  002444                     __end_of_SYSTEM_Initialize:
  1492                           	opt stack 0
  1493                           tblptru	equ	0xFF8
  1494                           tblptrh	equ	0xFF7
  1495                           tblptrl	equ	0xFF6
  1496                           tablat	equ	0xFF5
  1497                           prodh	equ	0xFF4
  1498                           prodl	equ	0xFF3
  1499                           intcon	equ	0xFF2
  1500                           postinc0	equ	0xFEE
  1501                           wreg	equ	0xFE8
  1502                           postdec1	equ	0xFE5
  1503                           fsr1l	equ	0xFE1
  1504                           indf2	equ	0xFDF
  1505                           postinc2	equ	0xFDE
  1506                           postdec2	equ	0xFDD
  1507                           fsr2h	equ	0xFDA
  1508                           fsr2l	equ	0xFD9
  1509                           status	equ	0xFD8
  1510                           
  1511 ;; *************** function _LED_Enable *****************
  1512 ;; Defined at:
  1513 ;;		line 186 in file "../../../../../../bsp/pic18f27j53_pim/leds.c"
  1514 ;; Parameters:    Size  Location     Type
  1515 ;;  led             1    wreg     enum E2
  1516 ;; Auto vars:     Size  Location     Type
  1517 ;;  led             1    0[BANK0 ] enum E2
  1518 ;; Return value:  Size  Location     Type
  1519 ;;		None               void
  1520 ;; Registers used:
  1521 ;;		wreg, status,2, status,0
  1522 ;; Tracked objects:
  1523 ;;		On entry : F/0
  1524 ;;		On exit  : F/0
  1525 ;;		Unchanged: 0/0
  1526 ;; Data sizes:     COMRAM   BANK0   BANK1   BANK2   BANK3   BANK4   BANK5   BANK6   BANK7   BANK8   BANK9  BANK10  BANK1
      +1  BANK12  BANK13  BANK14
  1527 ;;      Params:         0       0       0       0       0       0       0       0       0       0       0       0       
      +0       0       0       0
  1528 ;;      Locals:         0       1       0       0       0       0       0       0       0       0       0       0       
      +0       0       0       0
  1529 ;;      Temps:          0       0       0       0       0       0       0       0       0       0       0       0       
      +0       0       0       0
  1530 ;;      Totals:         0       1       0       0       0       0       0       0       0       0       0       0       
      +0       0       0       0
  1531 ;;Total ram usage:        1 bytes
  1532 ;; Hardware stack levels used:    1
  1533 ;; Hardware stack levels required when called:   11
  1534 ;; This function calls:
  1535 ;;		Nothing
  1536 ;; This function is called by:
  1537 ;;		_SYSTEM_Initialize
  1538 ;; This function uses a non-reentrant model
  1539 ;;
  1540                           
  1541                           	psect	text5
  1542  0026FC                     __ptext5:
  1543                           	opt stack 0
  1544  0026FC                     _LED_Enable:
  1545                           	opt stack 18
  1546                           
  1547                           ;incstack = 0
  1548                           ;LED_Enable@led stored from wreg
  1549  0026FC  6FE0               	movwf	LED_Enable@led& (0+255),b
  1550                           
  1551                           ;leds.c: 188: switch(led)
  1552  0026FE  D004               	goto	l4042
  1553  002700                     l259:
  1554                           
  1555                           ; BSR set to: 0
  1556                           ;leds.c: 191: TRISAbits.TRISA0 = 0;
  1557  002700  9092               	bcf	3986,0,c	;volatile
  1558                           
  1559                           ;leds.c: 192: break;
  1560  002702  0012               	return	
  1561  002704                     l261:
  1562                           
  1563                           ; BSR set to: 0
  1564                           ;leds.c: 195: TRISAbits.TRISA1 = 0;
  1565  002704  9292               	bcf	3986,1,c	;volatile
  1566                           
  1567                           ;leds.c: 196: break;
  1568  002706  0012               	return	
  1569  002708                     l4042:
  1570  002708  0100               	movlb	0	; () banked
  1571  00270A  51E0               	movf	LED_Enable@led& (0+255),w,b
  1572                           
  1573                           ; Switch size 1, requested type "speed"
  1574                           ; Number of cases is 3, Range of values is 0 to 2
  1575                           ; switch strategies available:
  1576                           ; Name         Instructions Cycles
  1577                           ; simple_byte           10     6 (average)
  1578                           ;	Chosen strategy is simple_byte
  1579  00270C  B4D8               	btfsc	status,2,c
  1580  00270E  0012               	return	
  1581  002710  0A01               	xorlw	1	; case 1
  1582  002712  E0F6               	bz	l259
  1583  002714  0A03               	xorlw	3	; case 2
  1584  002716  E0F6               	bz	l261
  1585                           
  1586                           ; BSR set to: 0
  1587  002718  0012               	return		;funcret
  1588  00271A                     __end_of_LED_Enable:
  1589                           	opt stack 0
  1590                           tblptru	equ	0xFF8
  1591                           tblptrh	equ	0xFF7
  1592                           tblptrl	equ	0xFF6
  1593                           tablat	equ	0xFF5
  1594                           prodh	equ	0xFF4
  1595                           prodl	equ	0xFF3
  1596                           intcon	equ	0xFF2
  1597                           postinc0	equ	0xFEE
  1598                           wreg	equ	0xFE8
  1599                           postdec1	equ	0xFE5
  1600                           fsr1l	equ	0xFE1
  1601                           indf2	equ	0xFDF
  1602                           postinc2	equ	0xFDE
  1603                           postdec2	equ	0xFDD
  1604                           fsr2h	equ	0xFDA
  1605                           fsr2l	equ	0xFD9
  1606                           status	equ	0xFD8
  1607                           
  1608 ;; *************** function _BUTTON_Enable *****************
  1609 ;; Defined at:
  1610 ;;		line 89 in file "../../../../../../bsp/pic18f27j53_pim/buttons.c"
  1611 ;; Parameters:    Size  Location     Type
  1612 ;;  button          1    wreg     enum E9324
  1613 ;; Auto vars:     Size  Location     Type
  1614 ;;  button          1    0[BANK0 ] enum E9324
  1615 ;; Return value:  Size  Location     Type
  1616 ;;		None               void
  1617 ;; Registers used:
  1618 ;;		wreg, status,2, status,0
  1619 ;; Tracked objects:
  1620 ;;		On entry : F/0
  1621 ;;		On exit  : 0/0
  1622 ;;		Unchanged: 0/0
  1623 ;; Data sizes:     COMRAM   BANK0   BANK1   BANK2   BANK3   BANK4   BANK5   BANK6   BANK7   BANK8   BANK9  BANK10  BANK1
      +1  BANK12  BANK13  BANK14
  1624 ;;      Params:         0       0       0       0       0       0       0       0       0       0       0       0       
      +0       0       0       0
  1625 ;;      Locals:         0       1       0       0       0       0       0       0       0       0       0       0       
      +0       0       0       0
  1626 ;;      Temps:          0       0       0       0       0       0       0       0       0       0       0       0       
      +0       0       0       0
  1627 ;;      Totals:         0       1       0       0       0       0       0       0       0       0       0       0       
      +0       0       0       0
  1628 ;;Total ram usage:        1 bytes
  1629 ;; Hardware stack levels used:    1
  1630 ;; Hardware stack levels required when called:   11
  1631 ;; This function calls:
  1632 ;;		Nothing
  1633 ;; This function is called by:
  1634 ;;		_SYSTEM_Initialize
  1635 ;; This function uses a non-reentrant model
  1636 ;;
  1637                           
  1638                           	psect	text6
  1639  0027C6                     __ptext6:
  1640                           	opt stack 0
  1641  0027C6                     _BUTTON_Enable:
  1642                           	opt stack 18
  1643                           
  1644                           ; BSR set to: 0
  1645                           ;incstack = 0
  1646                           ;BUTTON_Enable@button stored from wreg
  1647  0027C6  6FE0               	movwf	BUTTON_Enable@button& (0+255),b
  1648                           
  1649                           ;buttons.c: 91: switch(button)
  1650  0027C8  D004               	goto	l4048
  1651  0027CA                     l216:
  1652                           
  1653                           ; BSR set to: 0
  1654                           ;buttons.c: 94: TRISBbits.TRISB0 = 1;
  1655  0027CA  8093               	bsf	3987,0,c	;volatile
  1656                           
  1657                           ;buttons.c: 95: ANCON1bits.PCFG12 = 1;
  1658  0027CC  010F               	movlb	15	; () banked
  1659  0027CE  8949               	bsf	73,4,b	;volatile
  1660                           
  1661                           ;buttons.c: 96: break;
  1662  0027D0  0012               	return	
  1663  0027D2                     l4048:
  1664  0027D2  0100               	movlb	0	; () banked
  1665  0027D4  51E0               	movf	BUTTON_Enable@button& (0+255),w,b
  1666                           
  1667                           ; Switch size 1, requested type "speed"
  1668                           ; Number of cases is 2, Range of values is 0 to 1
  1669                           ; switch strategies available:
  1670                           ; Name         Instructions Cycles
  1671                           ; simple_byte            7     4 (average)
  1672                           ;	Chosen strategy is simple_byte
  1673  0027D6  B4D8               	btfsc	status,2,c
  1674  0027D8  0012               	return	
  1675  0027DA  0A01               	xorlw	1	; case 1
  1676  0027DC  E0F6               	bz	l216
  1677  0027DE  0012               	return		;funcret
  1678  0027E0                     __end_of_BUTTON_Enable:
  1679                           	opt stack 0
  1680                           tblptru	equ	0xFF8
  1681                           tblptrh	equ	0xFF7
  1682                           tblptrl	equ	0xFF6
  1683                           tablat	equ	0xFF5
  1684                           prodh	equ	0xFF4
  1685                           prodl	equ	0xFF3
  1686                           intcon	equ	0xFF2
  1687                           postinc0	equ	0xFEE
  1688                           wreg	equ	0xFE8
  1689                           postdec1	equ	0xFE5
  1690                           fsr1l	equ	0xFE1
  1691                           indf2	equ	0xFDF
  1692                           postinc2	equ	0xFDE
  1693                           postdec2	equ	0xFDD
  1694                           fsr2h	equ	0xFDA
  1695                           fsr2l	equ	0xFD9
  1696                           status	equ	0xFD8
  1697                           
  1698 ;; *************** function _APP_DeviceCDCBasicDemoTasks *****************
  1699 ;; Defined at:
  1700 ;;		line 82 in file "../src/app_device_cdc_basic.c"
  1701 ;; Parameters:    Size  Location     Type
  1702 ;;		None
  1703 ;; Auto vars:     Size  Location     Type
  1704 ;;  i               1   15[BANK0 ] unsigned char 
  1705 ;;  numBytesRead    1   14[BANK0 ] unsigned char 
  1706 ;; Return value:  Size  Location     Type
  1707 ;;		None               void
  1708 ;; Registers used:
  1709 ;;		wreg, fsr1l, fsr1h, fsr2l, fsr2h, status,2, status,0, prodl, prodh, cstack
  1710 ;; Tracked objects:
  1711 ;;		On entry : 0/D
  1712 ;;		On exit  : F/0
  1713 ;;		Unchanged: 0/0
  1714 ;; Data sizes:     COMRAM   BANK0   BANK1   BANK2   BANK3   BANK4   BANK5   BANK6   BANK7   BANK8   BANK9  BANK10  BANK1
      +1  BANK12  BANK13  BANK14
  1715 ;;      Params:         0       0       0       0       0       0       0       0       0       0       0       0       
      +0       0       0       0
  1716 ;;      Locals:         0       2       0       0       0       0       0       0       0       0       0       0       
      +0       0       0       0
  1717 ;;      Temps:          0       1       0       0       0       0       0       0       0       0       0       0       
      +0       0       0       0
  1718 ;;      Totals:         0       3       0       0       0       0       0       0       0       0       0       0       
      +0       0       0       0
  1719 ;;Total ram usage:        3 bytes
  1720 ;; Hardware stack levels used:    1
  1721 ;; Hardware stack levels required when called:   13
  1722 ;; This function calls:
  1723 ;;		_BUTTON_IsPressed
  1724 ;;		_CDCTxService
  1725 ;;		_getsUSBUSART
  1726 ;;		_putUSBUSART
  1727 ;;		_putrsUSBUSART
  1728 ;; This function is called by:
  1729 ;;		_main
  1730 ;; This function uses a non-reentrant model
  1731 ;;
  1732                           
  1733                           	psect	text7
  1734  001BEE                     __ptext7:
  1735                           	opt stack 0
  1736  001BEE                     _APP_DeviceCDCBasicDemoTasks:
  1737                           	opt stack 17
  1738                           
  1739                           ;app_device_cdc_basic.c: 87: if(BUTTON_IsPressed(BUTTON_S2) == 1)
  1740                           
  1741                           ;incstack = 0
  1742  001BEE  0E01               	movlw	1
  1743  001BF0  ECB9  F013         	call	_BUTTON_IsPressed
  1744  001BF4  06E8               	decf	wreg,f,c
  1745  001BF6  E10A               	bnz	l57
  1746                           
  1747                           ; BSR set to: 0
  1748                           ;app_device_cdc_basic.c: 88: {
  1749                           ;app_device_cdc_basic.c: 92: if(buttonPressed == 0)
  1750  001BF8  5179               	movf	_buttonPressed& (0+255),w,b
  1751  001BFA  E109               	bnz	l4236
  1752                           
  1753                           ; BSR set to: 0
  1754                           ;app_device_cdc_basic.c: 93: {
  1755                           ;app_device_cdc_basic.c: 96: if((cdc_trf_state == 0) == 1)
  1756  001BFC  517B               	movf	_cdc_trf_state& (0+255),w,b
  1757  001BFE  E107               	bnz	l4236
  1758                           
  1759                           ; BSR set to: 0
  1760                           ;app_device_cdc_basic.c: 97: {
  1761                           ;app_device_cdc_basic.c: 98: putrsUSBUSART(buttonMessage);
  1762  001C00  0ECE               	movlw	_buttonMessage& (0+255)
  1763  001C02  ECE3  F012         	call	_putrsUSBUSART
  1764                           
  1765                           ; BSR set to: 0
  1766                           ;app_device_cdc_basic.c: 99: buttonPressed = 1;
  1767  001C06  0E01               	movlw	1
  1768  001C08  6F79               	movwf	_buttonPressed& (0+255),b
  1769  001C0A  D001               	goto	l4236
  1770  001C0C                     l57:
  1771                           
  1772                           ; BSR set to: 0
  1773                           ;app_device_cdc_basic.c: 103: else
  1774                           ;app_device_cdc_basic.c: 104: {
  1775                           ;app_device_cdc_basic.c: 108: buttonPressed = 0;
  1776  001C0C  6B79               	clrf	_buttonPressed& (0+255),b
  1777  001C0E                     l4236:
  1778                           
  1779                           ; BSR set to: 0
  1780                           ;app_device_cdc_basic.c: 109: }
  1781                           ;app_device_cdc_basic.c: 114: if( (cdc_trf_state == 0) == 1)
  1782  001C0E  517B               	movf	_cdc_trf_state& (0+255),w,b
  1783  001C10  E002 EFEB  F00A    	bnz	_CDCTxService
  1784                           
  1785                           ; BSR set to: 0
  1786                           ;app_device_cdc_basic.c: 115: {
  1787                           ;app_device_cdc_basic.c: 116: uint8_t i;
  1788                           ;app_device_cdc_basic.c: 117: uint8_t numBytesRead;
  1789                           ;app_device_cdc_basic.c: 119: numBytesRead = getsUSBUSART(readBuffer, sizeof(readBuffer)
      +                          );
  1790  001C16  0E40               	movlw	low _readBuffer
  1791  001C18  6FE7               	movwf	getsUSBUSART@buffer& (0+255),b
  1792  001C1A  0E01               	movlw	high _readBuffer
  1793  001C1C  6FE8               	movwf	(getsUSBUSART@buffer+1)& (0+255),b
  1794  001C1E  0E40               	movlw	64
  1795  001C20  6FE9               	movwf	getsUSBUSART@len& (0+255),b
  1796  001C22  EC88  F010         	call	_getsUSBUSART	;wreg free
  1797  001C26  6FEE               	movwf	APP_DeviceCDCBasicDemoTasks@numBytesRead& (0+255),b
  1798                           
  1799                           ; BSR set to: 0
  1800                           ;app_device_cdc_basic.c: 122: for(i=0; i<numBytesRead; i++)
  1801  001C28  6BEF               	clrf	APP_DeviceCDCBasicDemoTasks@i& (0+255),b
  1802  001C2A  D02D               	goto	l4252
  1803  001C2C                     l4242:
  1804                           
  1805                           ; BSR set to: 0
  1806                           ;app_device_cdc_basic.c: 130: case 0x0D:
  1807                           ;app_device_cdc_basic.c: 131: writeBuffer[i] = readBuffer[i];
  1808  001C2C  0E40               	movlw	low _readBuffer
  1809  001C2E  25EF               	addwf	APP_DeviceCDCBasicDemoTasks@i& (0+255),w,b
  1810  001C30  6ED9               	movwf	fsr2l,c
  1811  001C32  6ADA               	clrf	fsr2h,c
  1812  001C34  0E01               	movlw	high _readBuffer
  1813  001C36  22DA               	addwfc	fsr2h,f,c
  1814  001C38  0E80               	movlw	low _writeBuffer
  1815  001C3A  25EF               	addwf	APP_DeviceCDCBasicDemoTasks@i& (0+255),w,b
  1816  001C3C  6EE1               	movwf	fsr1l,c
  1817  001C3E  6AE2               	clrf	fsr1h,c
  1818  001C40  0E01               	movlw	high _writeBuffer
  1819  001C42  22E2               	addwfc	fsr1h,f,c
  1820  001C44  CFDF FFE7          	movff	indf2,indf1
  1821                           
  1822                           ;app_device_cdc_basic.c: 132: break;
  1823  001C48  D01D               	goto	l4250
  1824  001C4A                     l4244:
  1825                           
  1826                           ; BSR set to: 0
  1827                           ;app_device_cdc_basic.c: 140: writeBuffer[i] = readBuffer[i] + 1;
  1828  001C4A  0E80               	movlw	low _writeBuffer
  1829  001C4C  25EF               	addwf	APP_DeviceCDCBasicDemoTasks@i& (0+255),w,b
  1830  001C4E  6ED9               	movwf	fsr2l,c
  1831  001C50  6ADA               	clrf	fsr2h,c
  1832  001C52  0E01               	movlw	high _writeBuffer
  1833  001C54  22DA               	addwfc	fsr2h,f,c
  1834  001C56  0E40               	movlw	low _readBuffer
  1835  001C58  25EF               	addwf	APP_DeviceCDCBasicDemoTasks@i& (0+255),w,b
  1836  001C5A  6EE1               	movwf	fsr1l,c
  1837  001C5C  6AE2               	clrf	fsr1h,c
  1838  001C5E  0E01               	movlw	high _readBuffer
  1839  001C60  22E2               	addwfc	fsr1h,f,c
  1840  001C62  50E7               	movf	indf1,w,c
  1841  001C64  6FED               	movwf	??_APP_DeviceCDCBasicDemoTasks& (0+255),b
  1842  001C66  29ED               	incf	??_APP_DeviceCDCBasicDemoTasks& (0+255),w,b
  1843  001C68  6EDF               	movwf	indf2,c
  1844                           
  1845                           ;app_device_cdc_basic.c: 141: break;
  1846  001C6A  D00C               	goto	l4250
  1847  001C6C                     l4248:
  1848                           
  1849                           ; BSR set to: 0
  1850  001C6C  0E40               	movlw	low _readBuffer
  1851  001C6E  25EF               	addwf	APP_DeviceCDCBasicDemoTasks@i& (0+255),w,b
  1852  001C70  6ED9               	movwf	fsr2l,c
  1853  001C72  6ADA               	clrf	fsr2h,c
  1854  001C74  0E01               	movlw	high _readBuffer
  1855  001C76  22DA               	addwfc	fsr2h,f,c
  1856  001C78  50DF               	movf	indf2,w,c
  1857                           
  1858                           ; Switch size 1, requested type "speed"
  1859                           ; Number of cases is 2, Range of values is 10 to 13
  1860                           ; switch strategies available:
  1861                           ; Name         Instructions Cycles
  1862                           ; simple_byte            7     4 (average)
  1863                           ;	Chosen strategy is simple_byte
  1864  001C7A  0A0A               	xorlw	10	; case 10
  1865  001C7C  E0D7               	bz	l4242
  1866  001C7E  0A07               	xorlw	7	; case 13
  1867  001C80  E0D5               	bz	l4242
  1868  001C82  D7E3               	goto	l4244
  1869  001C84                     l4250:
  1870                           
  1871                           ; BSR set to: 0
  1872  001C84  2BEF               	incf	APP_DeviceCDCBasicDemoTasks@i& (0+255),f,b
  1873  001C86                     l4252:
  1874                           
  1875                           ; BSR set to: 0
  1876  001C86  51EE               	movf	APP_DeviceCDCBasicDemoTasks@numBytesRead& (0+255),w,b
  1877  001C88  5DEF               	subwf	APP_DeviceCDCBasicDemoTasks@i& (0+255),w,b
  1878  001C8A  E3F0               	bnc	l4248
  1879                           
  1880                           ; BSR set to: 0
  1881                           ;app_device_cdc_basic.c: 143: }
  1882                           ;app_device_cdc_basic.c: 145: if(numBytesRead > 0)
  1883  001C8C  51EE               	movf	APP_DeviceCDCBasicDemoTasks@numBytesRead& (0+255),w,b
  1884  001C8E  E102 EFEB  F00A    	bz	_CDCTxService
  1885                           
  1886                           ; BSR set to: 0
  1887                           ;app_device_cdc_basic.c: 146: {
  1888                           ;app_device_cdc_basic.c: 150: putUSBUSART(writeBuffer,numBytesRead);
  1889  001C94  0E80               	movlw	low _writeBuffer
  1890  001C96  6FE0               	movwf	putUSBUSART@data& (0+255),b
  1891  001C98  0E01               	movlw	high _writeBuffer
  1892  001C9A  6FE1               	movwf	(putUSBUSART@data+1)& (0+255),b
  1893  001C9C  C0EE  F0E2         	movff	APP_DeviceCDCBasicDemoTasks@numBytesRead,putUSBUSART@length
  1894  001CA0  ECAB  F013         	call	_putUSBUSART	;wreg free
  1895                           
  1896                           ; BSR set to: 0
  1897                           ;app_device_cdc_basic.c: 151: }
  1898                           ;app_device_cdc_basic.c: 152: }
  1899                           ;app_device_cdc_basic.c: 154: CDCTxService();
  1900  001CA4  EFEB  F00A         	goto	_CDCTxService	;wreg free
  1901  001CA8                     __end_of_APP_DeviceCDCBasicDemoTasks:
  1902                           	opt stack 0
  1903                           tblptru	equ	0xFF8
  1904                           tblptrh	equ	0xFF7
  1905                           tblptrl	equ	0xFF6
  1906                           tablat	equ	0xFF5
  1907                           prodh	equ	0xFF4
  1908                           prodl	equ	0xFF3
  1909                           intcon	equ	0xFF2
  1910                           postinc0	equ	0xFEE
  1911                           wreg	equ	0xFE8
  1912                           indf1	equ	0xFE7
  1913                           postdec1	equ	0xFE5
  1914                           fsr1h	equ	0xFE2
  1915                           fsr1l	equ	0xFE1
  1916                           indf2	equ	0xFDF
  1917                           postinc2	equ	0xFDE
  1918                           postdec2	equ	0xFDD
  1919                           fsr2h	equ	0xFDA
  1920                           fsr2l	equ	0xFD9
  1921                           status	equ	0xFD8
  1922                           
  1923 ;; *************** function _putrsUSBUSART *****************
  1924 ;; Defined at:
  1925 ;;		line 783 in file "../../../../../../framework/usb/src/usb_device_cdc.c"
  1926 ;; Parameters:    Size  Location     Type
  1927 ;;  data            1    wreg     PTR const unsigned char 
  1928 ;;		 -> buttonMessage(18), 
  1929 ;; Auto vars:     Size  Location     Type
  1930 ;;  data            1    1[BANK0 ] PTR const unsigned char 
  1931 ;;		 -> buttonMessage(18), 
  1932 ;;  len             1    2[BANK0 ] unsigned char 
  1933 ;;  pData           1    0[BANK0 ] PTR const unsigned char 
  1934 ;;		 -> buttonMessage(18), 
  1935 ;; Return value:  Size  Location     Type
  1936 ;;		None               void
  1937 ;; Registers used:
  1938 ;;		wreg, fsr2l, fsr2h, status,2, status,0
  1939 ;; Tracked objects:
  1940 ;;		On entry : F/0
  1941 ;;		On exit  : F/0
  1942 ;;		Unchanged: 0/0
  1943 ;; Data sizes:     COMRAM   BANK0   BANK1   BANK2   BANK3   BANK4   BANK5   BANK6   BANK7   BANK8   BANK9  BANK10  BANK1
      +1  BANK12  BANK13  BANK14
  1944 ;;      Params:         0       0       0       0       0       0       0       0       0       0       0       0       
      +0       0       0       0
  1945 ;;      Locals:         0       3       0       0       0       0       0       0       0       0       0       0       
      +0       0       0       0
  1946 ;;      Temps:          0       0       0       0       0       0       0       0       0       0       0       0       
      +0       0       0       0
  1947 ;;      Totals:         0       3       0       0       0       0       0       0       0       0       0       0       
      +0       0       0       0
  1948 ;;Total ram usage:        3 bytes
  1949 ;; Hardware stack levels used:    1
  1950 ;; Hardware stack levels required when called:   11
  1951 ;; This function calls:
  1952 ;;		Nothing
  1953 ;; This function is called by:
  1954 ;;		_APP_DeviceCDCBasicDemoTasks
  1955 ;; This function uses a non-reentrant model
  1956 ;;
  1957                           
  1958                           	psect	text8
  1959  0025C6                     __ptext8:
  1960                           	opt stack 0
  1961  0025C6                     _putrsUSBUSART:
  1962                           	opt stack 18
  1963                           
  1964                           ; BSR set to: 0
  1965                           ;incstack = 0
  1966                           ;putrsUSBUSART@data stored from wreg
  1967  0025C6  6FE1               	movwf	putrsUSBUSART@data& (0+255),b
  1968                           
  1969                           ;usb_device_cdc.c: 785: uint8_t len;
  1970                           ;usb_device_cdc.c: 786: const const char *pData;
  1971                           ;usb_device_cdc.c: 811: {PIE2bits.USBIE = 0;};
  1972  0025C8  98A0               	bcf	4000,4,c	;volatile
  1973                           
  1974                           ;usb_device_cdc.c: 812: if(cdc_trf_state != 0)
  1975  0025CA  0100               	movlb	0	; () banked
  1976  0025CC  517B               	movf	_cdc_trf_state& (0+255),w,b
  1977  0025CE  E002               	bz	l740
  1978                           
  1979                           ; BSR set to: 0
  1980                           ;usb_device_cdc.c: 813: {
  1981                           ;usb_device_cdc.c: 814: {PIE2bits.USBIE = 1;};
  1982  0025D0  88A0               	bsf	4000,4,c	;volatile
  1983                           
  1984                           ;usb_device_cdc.c: 815: return;
  1985  0025D2  0012               	return	
  1986  0025D4                     l740:
  1987                           
  1988                           ; BSR set to: 0
  1989                           ;usb_device_cdc.c: 816: }
  1990                           ;usb_device_cdc.c: 822: len = 0;
  1991  0025D4  6BE2               	clrf	putrsUSBUSART@len& (0+255),b
  1992                           
  1993                           ; BSR set to: 0
  1994                           ;usb_device_cdc.c: 823: pData = data;
  1995  0025D6  C0E1  F0E0         	movff	putrsUSBUSART@data,putrsUSBUSART@pData
  1996  0025DA                     l4072:
  1997                           
  1998                           ; BSR set to: 0
  1999                           ;usb_device_cdc.c: 825: {
  2000                           ;usb_device_cdc.c: 826: len++;
  2001  0025DA  2BE2               	incf	putrsUSBUSART@len& (0+255),f,b
  2002                           
  2003                           ; BSR set to: 0
  2004                           ;usb_device_cdc.c: 827: if(len == 255) break;
  2005  0025DC  29E2               	incf	putrsUSBUSART@len& (0+255),w,b
  2006  0025DE  E006               	bz	l4080
  2007                           
  2008                           ; BSR set to: 0
  2009                           ;usb_device_cdc.c: 828: }while(*pData++);
  2010  0025E0  2BE0               	incf	putrsUSBUSART@pData& (0+255),f,b
  2011  0025E2  05E0               	decf	putrsUSBUSART@pData& (0+255),w,b
  2012  0025E4  6ED9               	movwf	fsr2l,c
  2013  0025E6  6ADA               	clrf	fsr2h,c
  2014  0025E8  50DF               	movf	indf2,w,c
  2015  0025EA  E1F7               	bnz	l4072
  2016  0025EC                     l4080:
  2017                           
  2018                           ; BSR set to: 0
  2019                           ;usb_device_cdc.c: 837: { pCDCSrc.bRom = (const uint8_t*)data; cdc_tx_len = len; cdc_mem
      +                          _type = 0x00; cdc_trf_state = 1; };
  2020  0025EC  C0E1  F06F         	movff	putrsUSBUSART@data,_pCDCSrc
  2021  0025F0  6B70               	clrf	(_pCDCSrc+1)& (0+255),b
  2022                           
  2023                           ; BSR set to: 0
  2024  0025F2  C0E2  F07C         	movff	putrsUSBUSART@len,_cdc_tx_len
  2025                           
  2026                           ; BSR set to: 0
  2027  0025F6  6B7A               	clrf	_cdc_mem_type& (0+255),b
  2028                           
  2029                           ; BSR set to: 0
  2030  0025F8  0E01               	movlw	1
  2031  0025FA  6F7B               	movwf	_cdc_trf_state& (0+255),b
  2032                           
  2033                           ; BSR set to: 0
  2034                           ;usb_device_cdc.c: 838: {PIE2bits.USBIE = 1;};
  2035  0025FC  88A0               	bsf	4000,4,c	;volatile
  2036                           
  2037                           ; BSR set to: 0
  2038  0025FE  0C01               	retlw	1	;funcret
  2039  002600                     __end_of_putrsUSBUSART:
  2040                           	opt stack 0
  2041                           tblptru	equ	0xFF8
  2042                           tblptrh	equ	0xFF7
  2043                           tblptrl	equ	0xFF6
  2044                           tablat	equ	0xFF5
  2045                           prodh	equ	0xFF4
  2046                           prodl	equ	0xFF3
  2047                           intcon	equ	0xFF2
  2048                           postinc0	equ	0xFEE
  2049                           wreg	equ	0xFE8
  2050                           indf1	equ	0xFE7
  2051                           postdec1	equ	0xFE5
  2052                           fsr1h	equ	0xFE2
  2053                           fsr1l	equ	0xFE1
  2054                           indf2	equ	0xFDF
  2055                           postinc2	equ	0xFDE
  2056                           postdec2	equ	0xFDD
  2057                           fsr2h	equ	0xFDA
  2058                           fsr2l	equ	0xFD9
  2059                           status	equ	0xFD8
  2060                           
  2061 ;; *************** function _putUSBUSART *****************
  2062 ;; Defined at:
  2063 ;;		line 613 in file "../../../../../../framework/usb/src/usb_device_cdc.c"
  2064 ;; Parameters:    Size  Location     Type
  2065 ;;  data            2    0[BANK0 ] PTR unsigned char 
  2066 ;;		 -> writeBuffer(64), 
  2067 ;;  length          1    2[BANK0 ] unsigned char 
  2068 ;; Auto vars:     Size  Location     Type
  2069 ;;		None
  2070 ;; Return value:  Size  Location     Type
  2071 ;;		None               void
  2072 ;; Registers used:
  2073 ;;		wreg, status,2, status,0
  2074 ;; Tracked objects:
  2075 ;;		On entry : F/0
  2076 ;;		On exit  : F/0
  2077 ;;		Unchanged: 0/0
  2078 ;; Data sizes:     COMRAM   BANK0   BANK1   BANK2   BANK3   BANK4   BANK5   BANK6   BANK7   BANK8   BANK9  BANK10  BANK1
      +1  BANK12  BANK13  BANK14
  2079 ;;      Params:         0       3       0       0       0       0       0       0       0       0       0       0       
      +0       0       0       0
  2080 ;;      Locals:         0       0       0       0       0       0       0       0       0       0       0       0       
      +0       0       0       0
  2081 ;;      Temps:          0       0       0       0       0       0       0       0       0       0       0       0       
      +0       0       0       0
  2082 ;;      Totals:         0       3       0       0       0       0       0       0       0       0       0       0       
      +0       0       0       0
  2083 ;;Total ram usage:        3 bytes
  2084 ;; Hardware stack levels used:    1
  2085 ;; Hardware stack levels required when called:   11
  2086 ;; This function calls:
  2087 ;;		Nothing
  2088 ;; This function is called by:
  2089 ;;		_APP_DeviceCDCBasicDemoTasks
  2090 ;; This function uses a non-reentrant model
  2091 ;;
  2092                           
  2093                           	psect	text9
  2094  002756                     __ptext9:
  2095                           	opt stack 0
  2096  002756                     _putUSBUSART:
  2097                           	opt stack 18
  2098                           
  2099                           ; BSR set to: 0
  2100                           ;usb_device_cdc.c: 638: {PIE2bits.USBIE = 0;};
  2101                           
  2102                           ; BSR set to: 0
  2103                           ;incstack = 0
  2104  002756  98A0               	bcf	4000,4,c	;volatile
  2105                           
  2106                           ; BSR set to: 0
  2107                           ;usb_device_cdc.c: 639: if(cdc_trf_state == 0)
  2108  002758  517B               	movf	_cdc_trf_state& (0+255),w,b
  2109  00275A  E109               	bnz	l4128
  2110                           
  2111                           ; BSR set to: 0
  2112                           ;usb_device_cdc.c: 640: {
  2113                           ;usb_device_cdc.c: 641: { pCDCSrc.bRam = (uint8_t*)data; cdc_tx_len = length; cdc_mem_ty
      +                          pe = 0x01; cdc_trf_state = 1; };
  2114  00275C  C0E0  F06F         	movff	putUSBUSART@data,_pCDCSrc
  2115  002760  C0E1  F070         	movff	putUSBUSART@data+1,_pCDCSrc+1
  2116                           
  2117                           ; BSR set to: 0
  2118  002764  C0E2  F07C         	movff	putUSBUSART@length,_cdc_tx_len
  2119                           
  2120                           ; BSR set to: 0
  2121  002768  0E01               	movlw	1
  2122  00276A  6F7A               	movwf	_cdc_mem_type& (0+255),b
  2123                           
  2124                           ; BSR set to: 0
  2125  00276C  6F7B               	movwf	_cdc_trf_state& (0+255),b
  2126  00276E                     l4128:
  2127                           
  2128                           ; BSR set to: 0
  2129                           ;usb_device_cdc.c: 642: }
  2130                           ;usb_device_cdc.c: 643: {PIE2bits.USBIE = 1;};
  2131  00276E  88A0               	bsf	4000,4,c	;volatile
  2132                           
  2133                           ; BSR set to: 0
  2134  002770  0012               	return		;funcret
  2135  002772                     __end_of_putUSBUSART:
  2136                           	opt stack 0
  2137                           tblptru	equ	0xFF8
  2138                           tblptrh	equ	0xFF7
  2139                           tblptrl	equ	0xFF6
  2140                           tablat	equ	0xFF5
  2141                           prodh	equ	0xFF4
  2142                           prodl	equ	0xFF3
  2143                           intcon	equ	0xFF2
  2144                           postinc0	equ	0xFEE
  2145                           wreg	equ	0xFE8
  2146                           indf1	equ	0xFE7
  2147                           postdec1	equ	0xFE5
  2148                           fsr1h	equ	0xFE2
  2149                           fsr1l	equ	0xFE1
  2150                           indf2	equ	0xFDF
  2151                           postinc2	equ	0xFDE
  2152                           postdec2	equ	0xFDD
  2153                           fsr2h	equ	0xFDA
  2154                           fsr2l	equ	0xFD9
  2155                           status	equ	0xFD8
  2156                           
  2157 ;; *************** function _getsUSBUSART *****************
  2158 ;; Defined at:
  2159 ;;		line 542 in file "../../../../../../framework/usb/src/usb_device_cdc.c"
  2160 ;; Parameters:    Size  Location     Type
  2161 ;;  buffer          2    7[BANK0 ] PTR unsigned char 
  2162 ;;		 -> readBuffer(64), 
  2163 ;;  len             1    9[BANK0 ] unsigned char 
  2164 ;; Auto vars:     Size  Location     Type
  2165 ;;		None
  2166 ;; Return value:  Size  Location     Type
  2167 ;;                  1    wreg      unsigned char 
  2168 ;; Registers used:
  2169 ;;		wreg, fsr1l, fsr1h, fsr2l, fsr2h, status,2, status,0, prodl, prodh, cstack
  2170 ;; Tracked objects:
  2171 ;;		On entry : F/0
  2172 ;;		On exit  : F/0
  2173 ;;		Unchanged: 0/0
  2174 ;; Data sizes:     COMRAM   BANK0   BANK1   BANK2   BANK3   BANK4   BANK5   BANK6   BANK7   BANK8   BANK9  BANK10  BANK1
      +1  BANK12  BANK13  BANK14
  2175 ;;      Params:         0       3       0       0       0       0       0       0       0       0       0       0       
      +0       0       0       0
  2176 ;;      Locals:         0       2       0       0       0       0       0       0       0       0       0       0       
      +0       0       0       0
  2177 ;;      Temps:          0       1       0       0       0       0       0       0       0       0       0       0       
      +0       0       0       0
  2178 ;;      Totals:         0       6       0       0       0       0       0       0       0       0       0       0       
      +0       0       0       0
  2179 ;;Total ram usage:        6 bytes
  2180 ;; Hardware stack levels used:    1
  2181 ;; Hardware stack levels required when called:   12
  2182 ;; This function calls:
  2183 ;;		_USBTransferOnePacket
  2184 ;; This function is called by:
  2185 ;;		_APP_DeviceCDCBasicDemoTasks
  2186 ;; This function uses a non-reentrant model
  2187 ;;
  2188                           
  2189                           	psect	text10
  2190  002110                     __ptext10:
  2191                           	opt stack 0
  2192  002110                     _getsUSBUSART:
  2193                           	opt stack 17
  2194                           
  2195                           ; BSR set to: 0
  2196                           ;usb_device_cdc.c: 544: cdc_rx_len = 0;
  2197                           
  2198                           ; BSR set to: 0
  2199                           ;incstack = 0
  2200  002110  6A25               	clrf	_cdc_rx_len,c
  2201                           
  2202                           ; BSR set to: 0
  2203                           ;usb_device_cdc.c: 546: if(!(CDCDataOutHandle==0?0:((volatile BDT_ENTRY*)CDCDataOutHandl
      +                          e)->STAT.UOWN))
  2204  002112  5174               	movf	_CDCDataOutHandle& (0+255),w,b
  2205  002114  1175               	iorwf	(_CDCDataOutHandle+1)& (0+255),w,b
  2206  002116  E009               	bz	l719
  2207                           
  2208                           ; BSR set to: 0
  2209  002118  C074  FFD9         	movff	_CDCDataOutHandle,fsr2l
  2210  00211C  C075  FFDA         	movff	_CDCDataOutHandle+1,fsr2h
  2211  002120  0E01               	movlw	1
  2212  002122  AEDF               	btfss	indf2,7,c
  2213  002124  0E00               	movlw	0
  2214  002126  6FEB               	movwf	_getsUSBUSART$2688& (0+255),b
  2215  002128  D001               	goto	L1
  2216  00212A                     l719:
  2217                           
  2218                           ; BSR set to: 0
  2219  00212A  6BEB               	clrf	_getsUSBUSART$2688& (0+255),b
  2220  00212C                     L1:
  2221  00212C  6BEC               	clrf	(_getsUSBUSART$2688+1)& (0+255),b
  2222                           
  2223                           ; BSR set to: 0
  2224  00212E  51EB               	movf	_getsUSBUSART$2688& (0+255),w,b
  2225  002130  11EC               	iorwf	(_getsUSBUSART$2688+1)& (0+255),w,b
  2226  002132  E130               	bnz	l4112
  2227                           
  2228                           ; BSR set to: 0
  2229                           ;usb_device_cdc.c: 547: {
  2230                           ;usb_device_cdc.c: 552: if(len > (((volatile BDT_ENTRY*)CDCDataOutHandle)->CNT))
  2231  002134  EE20 F001          	lfsr	2,1
  2232  002138  5174               	movf	_CDCDataOutHandle& (0+255),w,b
  2233  00213A  26D9               	addwf	fsr2l,f,c
  2234  00213C  5175               	movf	(_CDCDataOutHandle+1)& (0+255),w,b
  2235  00213E  22DA               	addwfc	fsr2h,f,c
  2236  002140  51E9               	movf	getsUSBUSART@len& (0+255),w,b
  2237  002142  5CDE               	subwf	postinc2,w,c
  2238  002144  E208               	bc	l4102
  2239                           
  2240                           ; BSR set to: 0
  2241                           ;usb_device_cdc.c: 553: len = (((volatile BDT_ENTRY*)CDCDataOutHandle)->CNT);
  2242  002146  EE20 F001          	lfsr	2,1
  2243  00214A  5174               	movf	_CDCDataOutHandle& (0+255),w,b
  2244  00214C  26D9               	addwf	fsr2l,f,c
  2245  00214E  5175               	movf	(_CDCDataOutHandle+1)& (0+255),w,b
  2246  002150  22DA               	addwfc	fsr2h,f,c
  2247  002152  50DF               	movf	indf2,w,c
  2248  002154  6FE9               	movwf	getsUSBUSART@len& (0+255),b
  2249  002156                     l4102:
  2250                           
  2251                           ; BSR set to: 0
  2252                           ;usb_device_cdc.c: 558: for(cdc_rx_len = 0; cdc_rx_len < len; cdc_rx_len++)
  2253  002156  6A25               	clrf	_cdc_rx_len,c
  2254  002158  D00D               	goto	l4108
  2255  00215A                     l4104:
  2256                           
  2257                           ; BSR set to: 0
  2258                           ;usb_device_cdc.c: 559: buffer[cdc_rx_len] = cdc_data_rx[cdc_rx_len];
  2259  00215A  5025               	movf	_cdc_rx_len,w,c
  2260  00215C  0F7D               	addlw	low _cdc_data_rx
  2261  00215E  6ED9               	movwf	fsr2l,c
  2262  002160  6ADA               	clrf	fsr2h,c
  2263  002162  5025               	movf	_cdc_rx_len,w,c
  2264  002164  25E7               	addwf	getsUSBUSART@buffer& (0+255),w,b
  2265  002166  6EE1               	movwf	fsr1l,c
  2266  002168  0E00               	movlw	0
  2267  00216A  21E8               	addwfc	(getsUSBUSART@buffer+1)& (0+255),w,b
  2268  00216C  6EE2               	movwf	fsr1h,c
  2269  00216E  CFDF FFE7          	movff	indf2,indf1
  2270                           
  2271                           ; BSR set to: 0
  2272  002172  2A25               	incf	_cdc_rx_len,f,c
  2273  002174                     l4108:
  2274                           
  2275                           ; BSR set to: 0
  2276  002174  51E9               	movf	getsUSBUSART@len& (0+255),w,b
  2277  002176  5C25               	subwf	_cdc_rx_len,w,c
  2278  002178  E3F0               	bnc	l4104
  2279                           
  2280                           ; BSR set to: 0
  2281                           ;usb_device_cdc.c: 565: CDCDataOutHandle = USBTransferOnePacket(2,0,(uint8_t*)&cdc_data_
      +                          rx,sizeof(cdc_data_rx));
  2282  00217A  6BE0               	clrf	USBTransferOnePacket@dir& (0+255),b
  2283  00217C  0E7D               	movlw	low _cdc_data_rx
  2284  00217E  6FE1               	movwf	USBTransferOnePacket@data& (0+255),b
  2285  002180  6BE2               	clrf	(USBTransferOnePacket@data+1)& (0+255),b
  2286  002182  0E40               	movlw	64
  2287  002184  6FE3               	movwf	USBTransferOnePacket@len& (0+255),b
  2288  002186  0E02               	movlw	2
  2289  002188  EC54  F00F         	call	_USBTransferOnePacket
  2290  00218C  C0E0  F074         	movff	?_USBTransferOnePacket,_CDCDataOutHandle
  2291  002190  C0E1  F075         	movff	?_USBTransferOnePacket+1,_CDCDataOutHandle+1
  2292  002194                     l4112:
  2293                           
  2294                           ; BSR set to: 0
  2295                           ;usb_device_cdc.c: 567: }
  2296                           ;usb_device_cdc.c: 569: return cdc_rx_len;
  2297  002194  5025               	movf	_cdc_rx_len,w,c
  2298                           
  2299                           ; BSR set to: 0
  2300  002196  0012               	return		;funcret
  2301  002198                     __end_of_getsUSBUSART:
  2302                           	opt stack 0
  2303                           tblptru	equ	0xFF8
  2304                           tblptrh	equ	0xFF7
  2305                           tblptrl	equ	0xFF6
  2306                           tablat	equ	0xFF5
  2307                           prodh	equ	0xFF4
  2308                           prodl	equ	0xFF3
  2309                           intcon	equ	0xFF2
  2310                           postinc0	equ	0xFEE
  2311                           wreg	equ	0xFE8
  2312                           indf1	equ	0xFE7
  2313                           postdec1	equ	0xFE5
  2314                           fsr1h	equ	0xFE2
  2315                           fsr1l	equ	0xFE1
  2316                           indf2	equ	0xFDF
  2317                           postinc2	equ	0xFDE
  2318                           postdec2	equ	0xFDD
  2319                           fsr2h	equ	0xFDA
  2320                           fsr2l	equ	0xFD9
  2321                           status	equ	0xFD8
  2322                           
  2323 ;; *************** function _CDCTxService *****************
  2324 ;; Defined at:
  2325 ;;		line 893 in file "../../../../../../framework/usb/src/usb_device_cdc.c"
  2326 ;; Parameters:    Size  Location     Type
  2327 ;;		None
  2328 ;; Auto vars:     Size  Location     Type
  2329 ;;  byte_to_send    1   10[BANK0 ] unsigned char 
  2330 ;;  i               1    9[BANK0 ] unsigned char 
  2331 ;; Return value:  Size  Location     Type
  2332 ;;		None               void
  2333 ;; Registers used:
  2334 ;;		wreg, fsr1l, fsr1h, fsr2l, fsr2h, status,2, status,0, prodl, prodh, cstack
  2335 ;; Tracked objects:
  2336 ;;		On entry : F/0
  2337 ;;		On exit  : F/0
  2338 ;;		Unchanged: 0/0
  2339 ;; Data sizes:     COMRAM   BANK0   BANK1   BANK2   BANK3   BANK4   BANK5   BANK6   BANK7   BANK8   BANK9  BANK10  BANK1
      +1  BANK12  BANK13  BANK14
  2340 ;;      Params:         0       0       0       0       0       0       0       0       0       0       0       0       
      +0       0       0       0
  2341 ;;      Locals:         0       4       0       0       0       0       0       0       0       0       0       0       
      +0       0       0       0
  2342 ;;      Temps:          0       0       0       0       0       0       0       0       0       0       0       0       
      +0       0       0       0
  2343 ;;      Totals:         0       4       0       0       0       0       0       0       0       0       0       0       
      +0       0       0       0
  2344 ;;Total ram usage:        4 bytes
  2345 ;; Hardware stack levels used:    1
  2346 ;; Hardware stack levels required when called:   12
  2347 ;; This function calls:
  2348 ;;		_USBTransferOnePacket
  2349 ;; This function is called by:
  2350 ;;		_APP_DeviceCDCBasicDemoTasks
  2351 ;; This function uses a non-reentrant model
  2352 ;;
  2353                           
  2354                           	psect	text11
  2355  0015D6                     __ptext11:
  2356                           	opt stack 0
  2357  0015D6                     _CDCTxService:
  2358                           	opt stack 17
  2359                           
  2360                           ; BSR set to: 0
  2361                           ;usb_device_cdc.c: 895: uint8_t byte_to_send;
  2362                           ;usb_device_cdc.c: 896: uint8_t i;
  2363                           ;usb_device_cdc.c: 898: {PIE2bits.USBIE = 0;};
  2364                           
  2365                           ; BSR set to: 0
  2366                           ;incstack = 0
  2367  0015D6  98A0               	bcf	4000,4,c	;volatile
  2368                           
  2369                           ; BSR set to: 0
  2370                           ;usb_device_cdc.c: 900: {};
  2371                           ;usb_device_cdc.c: 902: if((CDCDataInHandle==0?0:((volatile BDT_ENTRY*)CDCDataInHandle)-
      +                          >STAT.UOWN))
  2372  0015D8  5172               	movf	_CDCDataInHandle& (0+255),w,b
  2373  0015DA  1173               	iorwf	(_CDCDataInHandle+1)& (0+255),w,b
  2374  0015DC  E009               	bz	l749
  2375                           
  2376                           ; BSR set to: 0
  2377  0015DE  C072  FFD9         	movff	_CDCDataInHandle,fsr2l
  2378  0015E2  C073  FFDA         	movff	_CDCDataInHandle+1,fsr2h
  2379  0015E6  0E01               	movlw	1
  2380  0015E8  AEDF               	btfss	indf2,7,c
  2381  0015EA  0E00               	movlw	0
  2382  0015EC  6FE7               	movwf	_CDCTxService$2736& (0+255),b
  2383  0015EE  D001               	goto	L2
  2384  0015F0                     l749:
  2385                           
  2386                           ; BSR set to: 0
  2387  0015F0  6BE7               	clrf	_CDCTxService$2736& (0+255),b
  2388  0015F2                     L2:
  2389  0015F2  6BE8               	clrf	(_CDCTxService$2736+1)& (0+255),b
  2390                           
  2391                           ; BSR set to: 0
  2392  0015F4  51E7               	movf	_CDCTxService$2736& (0+255),w,b
  2393  0015F6  11E8               	iorwf	(_CDCTxService$2736+1)& (0+255),w,b
  2394  0015F8  E002               	bz	l4140
  2395                           
  2396                           ; BSR set to: 0
  2397                           ;usb_device_cdc.c: 903: {
  2398                           ;usb_device_cdc.c: 904: {PIE2bits.USBIE = 1;};
  2399  0015FA  88A0               	bsf	4000,4,c	;volatile
  2400                           
  2401                           ;usb_device_cdc.c: 905: return;
  2402  0015FC  0012               	return	
  2403  0015FE                     l4140:
  2404                           
  2405                           ; BSR set to: 0
  2406                           ;usb_device_cdc.c: 906: }
  2407                           ;usb_device_cdc.c: 913: if(cdc_trf_state == 3)
  2408  0015FE  0E03               	movlw	3
  2409  001600  197B               	xorwf	_cdc_trf_state& (0+255),w,b
  2410  001602  E101               	bnz	l4144
  2411                           
  2412                           ; BSR set to: 0
  2413                           ;usb_device_cdc.c: 914: cdc_trf_state = 0;
  2414  001604  6B7B               	clrf	_cdc_trf_state& (0+255),b
  2415  001606                     l4144:
  2416                           
  2417                           ; BSR set to: 0
  2418                           ;usb_device_cdc.c: 919: if(cdc_trf_state == 0)
  2419  001606  517B               	movf	_cdc_trf_state& (0+255),w,b
  2420  001608  E102               	bnz	l4148
  2421                           
  2422                           ; BSR set to: 0
  2423                           ;usb_device_cdc.c: 920: {
  2424                           ;usb_device_cdc.c: 921: {PIE2bits.USBIE = 1;};
  2425  00160A  88A0               	bsf	4000,4,c	;volatile
  2426                           
  2427                           ;usb_device_cdc.c: 922: return;
  2428  00160C  0012               	return	
  2429  00160E                     l4148:
  2430                           
  2431                           ; BSR set to: 0
  2432                           ;usb_device_cdc.c: 923: }
  2433                           ;usb_device_cdc.c: 928: if(cdc_trf_state == 2)
  2434  00160E  0E02               	movlw	2
  2435  001610  197B               	xorwf	_cdc_trf_state& (0+255),w,b
  2436  001612  E110               	bnz	l4154
  2437                           
  2438                           ; BSR set to: 0
  2439                           ;usb_device_cdc.c: 929: {
  2440                           ;usb_device_cdc.c: 930: CDCDataInHandle = USBTransferOnePacket(2,1,(0),0);
  2441  001614  0E01               	movlw	1
  2442  001616  6FE0               	movwf	USBTransferOnePacket@dir& (0+255),b
  2443  001618  0E00               	movlw	0
  2444  00161A  6FE1               	movwf	USBTransferOnePacket@data& (0+255),b
  2445  00161C  6FE2               	movwf	(USBTransferOnePacket@data+1)& (0+255),b
  2446  00161E  6FE3               	movwf	USBTransferOnePacket@len& (0+255),b
  2447  001620  0E02               	movlw	2
  2448  001622  EC54  F00F         	call	_USBTransferOnePacket
  2449  001626  C0E0  F072         	movff	?_USBTransferOnePacket,_CDCDataInHandle
  2450  00162A  C0E1  F073         	movff	?_USBTransferOnePacket+1,_CDCDataInHandle+1
  2451                           
  2452                           ; BSR set to: 0
  2453                           ;usb_device_cdc.c: 932: cdc_trf_state = 3;
  2454  00162E  0E03               	movlw	3
  2455  001630  6F7B               	movwf	_cdc_trf_state& (0+255),b
  2456                           
  2457                           ;usb_device_cdc.c: 933: }
  2458  001632  D04E               	goto	l4198
  2459  001634                     l4154:
  2460                           
  2461                           ; BSR set to: 0
  2462                           ;usb_device_cdc.c: 934: else if(cdc_trf_state == 1)
  2463  001634  057B               	decf	_cdc_trf_state& (0+255),w,b
  2464  001636  E14C               	bnz	l4198
  2465                           
  2466                           ; BSR set to: 0
  2467                           ;usb_device_cdc.c: 935: {
  2468                           ;usb_device_cdc.c: 939: if(cdc_tx_len > sizeof(cdc_data_tx))
  2469  001638  0E40               	movlw	64
  2470  00163A  657C               	cpfsgt	_cdc_tx_len& (0+255),b
  2471  00163C  D002               	goto	l758
  2472                           
  2473                           ; BSR set to: 0
  2474                           ;usb_device_cdc.c: 940: byte_to_send = sizeof(cdc_data_tx);
  2475  00163E  6FEA               	movwf	CDCTxService@byte_to_send& (0+255),b
  2476  001640  D002               	goto	l4160
  2477  001642                     l758:
  2478                           
  2479                           ; BSR set to: 0
  2480                           ;usb_device_cdc.c: 941: else
  2481                           ;usb_device_cdc.c: 942: byte_to_send = cdc_tx_len;
  2482  001642  C07C  F0EA         	movff	_cdc_tx_len,CDCTxService@byte_to_send
  2483  001646                     l4160:
  2484                           
  2485                           ; BSR set to: 0
  2486                           ;usb_device_cdc.c: 947: cdc_tx_len = cdc_tx_len - byte_to_send;
  2487  001646  51EA               	movf	CDCTxService@byte_to_send& (0+255),w,b
  2488  001648  5F7C               	subwf	_cdc_tx_len& (0+255),f,b
  2489                           
  2490                           ;usb_device_cdc.c: 949: pCDCDst.bRam = (uint8_t*)&cdc_data_tx;
  2491  00164A  0E00               	movlw	low _cdc_data_tx
  2492  00164C  6F6C               	movwf	_pCDCDst& (0+255),b
  2493  00164E  0E01               	movlw	high _cdc_data_tx
  2494  001650  6F6D               	movwf	(_pCDCDst+1)& (0+255),b
  2495                           
  2496                           ; BSR set to: 0
  2497                           ;usb_device_cdc.c: 951: i = byte_to_send;
  2498  001652  C0EA  F0E9         	movff	CDCTxService@byte_to_send,CDCTxService@i
  2499                           
  2500                           ; BSR set to: 0
  2501                           ;usb_device_cdc.c: 952: if(cdc_mem_type == 0x00)
  2502  001656  517A               	movf	_cdc_mem_type& (0+255),w,b
  2503  001658  E010               	bz	l4176
  2504  00165A  D021               	goto	l4186
  2505  00165C                     l4168:
  2506                           
  2507                           ; BSR set to: 0
  2508                           ;usb_device_cdc.c: 955: {
  2509                           ;usb_device_cdc.c: 956: *pCDCDst.bRam = *pCDCSrc.bRom;
  2510  00165C  C06F  FFD9         	movff	_pCDCSrc,fsr2l
  2511  001660  C070  FFDA         	movff	_pCDCSrc+1,fsr2h
  2512  001664  C06C  FFE1         	movff	_pCDCDst,fsr1l
  2513  001668  C06D  FFE2         	movff	_pCDCDst+1,fsr1h
  2514  00166C  CFDF FFE7          	movff	indf2,indf1
  2515                           
  2516                           ; BSR set to: 0
  2517                           ;usb_device_cdc.c: 957: pCDCDst.bRam++;
  2518  001670  4B6C               	infsnz	_pCDCDst& (0+255),f,b
  2519  001672  2B6D               	incf	(_pCDCDst+1)& (0+255),f,b
  2520                           
  2521                           ; BSR set to: 0
  2522                           ;usb_device_cdc.c: 958: pCDCSrc.bRom++;
  2523  001674  4B6F               	infsnz	_pCDCSrc& (0+255),f,b
  2524  001676  2B70               	incf	(_pCDCSrc+1)& (0+255),f,b
  2525                           
  2526                           ; BSR set to: 0
  2527                           ;usb_device_cdc.c: 959: i--;
  2528  001678  07E9               	decf	CDCTxService@i& (0+255),f,b
  2529  00167A                     l4176:
  2530                           
  2531                           ; BSR set to: 0
  2532  00167A  51E9               	movf	CDCTxService@i& (0+255),w,b
  2533  00167C  E012               	bz	l4188
  2534  00167E  D7EE               	goto	l4168
  2535  001680                     l4178:
  2536                           
  2537                           ; BSR set to: 0
  2538                           ;usb_device_cdc.c: 965: {
  2539                           ;usb_device_cdc.c: 966: *pCDCDst.bRam = *pCDCSrc.bRam;
  2540  001680  C06F  FFD9         	movff	_pCDCSrc,fsr2l
  2541  001684  C070  FFDA         	movff	_pCDCSrc+1,fsr2h
  2542  001688  C06C  FFE1         	movff	_pCDCDst,fsr1l
  2543  00168C  C06D  FFE2         	movff	_pCDCDst+1,fsr1h
  2544  001690  CFDF FFE7          	movff	indf2,indf1
  2545                           
  2546                           ; BSR set to: 0
  2547                           ;usb_device_cdc.c: 967: pCDCDst.bRam++;
  2548  001694  4B6C               	infsnz	_pCDCDst& (0+255),f,b
  2549  001696  2B6D               	incf	(_pCDCDst+1)& (0+255),f,b
  2550                           
  2551                           ; BSR set to: 0
  2552                           ;usb_device_cdc.c: 968: pCDCSrc.bRam++;
  2553  001698  4B6F               	infsnz	_pCDCSrc& (0+255),f,b
  2554  00169A  2B70               	incf	(_pCDCSrc+1)& (0+255),f,b
  2555                           
  2556                           ; BSR set to: 0
  2557                           ;usb_device_cdc.c: 969: i--;
  2558  00169C  07E9               	decf	CDCTxService@i& (0+255),f,b
  2559  00169E                     l4186:
  2560                           
  2561                           ; BSR set to: 0
  2562  00169E  51E9               	movf	CDCTxService@i& (0+255),w,b
  2563  0016A0  E1EF               	bnz	l4178
  2564  0016A2                     l4188:
  2565                           
  2566                           ; BSR set to: 0
  2567                           ;usb_device_cdc.c: 970: }
  2568                           ;usb_device_cdc.c: 971: }
  2569                           ;usb_device_cdc.c: 977: if(cdc_tx_len == 0)
  2570  0016A2  517C               	movf	_cdc_tx_len& (0+255),w,b
  2571  0016A4  E106               	bnz	l4196
  2572                           
  2573                           ; BSR set to: 0
  2574                           ;usb_device_cdc.c: 978: {
  2575                           ;usb_device_cdc.c: 979: if(byte_to_send == 64)
  2576  0016A6  0E40               	movlw	64
  2577  0016A8  19EA               	xorwf	CDCTxService@byte_to_send& (0+255),w,b
  2578                           
  2579                           ; BSR set to: 0
  2580                           ;usb_device_cdc.c: 980: cdc_trf_state = 2;
  2581  0016AA  0E02               	movlw	2
  2582  0016AC  A4D8               	btfss	status,2,c
  2583                           
  2584                           ; BSR set to: 0
  2585                           ;usb_device_cdc.c: 981: else
  2586                           ;usb_device_cdc.c: 982: cdc_trf_state = 3;
  2587  0016AE  0E03               	movlw	3
  2588  0016B0  6F7B               	movwf	_cdc_trf_state& (0+255),b
  2589  0016B2                     l4196:
  2590                           
  2591                           ; BSR set to: 0
  2592                           ;usb_device_cdc.c: 983: }
  2593                           ;usb_device_cdc.c: 984: CDCDataInHandle = USBTransferOnePacket(2,1,(uint8_t*)&cdc_data_t
      +                          x,byte_to_send);
  2594  0016B2  0E01               	movlw	1
  2595  0016B4  6FE0               	movwf	USBTransferOnePacket@dir& (0+255),b
  2596  0016B6  0E00               	movlw	low _cdc_data_tx
  2597  0016B8  6FE1               	movwf	USBTransferOnePacket@data& (0+255),b
  2598  0016BA  0E01               	movlw	high _cdc_data_tx
  2599  0016BC  6FE2               	movwf	(USBTransferOnePacket@data+1)& (0+255),b
  2600  0016BE  C0EA  F0E3         	movff	CDCTxService@byte_to_send,USBTransferOnePacket@len
  2601  0016C2  0E02               	movlw	2
  2602  0016C4  EC54  F00F         	call	_USBTransferOnePacket
  2603  0016C8  C0E0  F072         	movff	?_USBTransferOnePacket,_CDCDataInHandle
  2604  0016CC  C0E1  F073         	movff	?_USBTransferOnePacket+1,_CDCDataInHandle+1
  2605  0016D0                     l4198:
  2606                           
  2607                           ; BSR set to: 0
  2608                           ;usb_device_cdc.c: 986: }
  2609                           ;usb_device_cdc.c: 988: {PIE2bits.USBIE = 1;};
  2610  0016D0  88A0               	bsf	4000,4,c	;volatile
  2611                           
  2612                           ; BSR set to: 0
  2613  0016D2  0012               	return		;funcret
  2614  0016D4                     __end_of_CDCTxService:
  2615                           	opt stack 0
  2616                           tblptru	equ	0xFF8
  2617                           tblptrh	equ	0xFF7
  2618                           tblptrl	equ	0xFF6
  2619                           tablat	equ	0xFF5
  2620                           prodh	equ	0xFF4
  2621                           prodl	equ	0xFF3
  2622                           intcon	equ	0xFF2
  2623                           postinc0	equ	0xFEE
  2624                           wreg	equ	0xFE8
  2625                           indf1	equ	0xFE7
  2626                           postdec1	equ	0xFE5
  2627                           fsr1h	equ	0xFE2
  2628                           fsr1l	equ	0xFE1
  2629                           indf2	equ	0xFDF
  2630                           postinc2	equ	0xFDE
  2631                           postdec2	equ	0xFDD
  2632                           fsr2h	equ	0xFDA
  2633                           fsr2l	equ	0xFD9
  2634                           status	equ	0xFD8
  2635                           
  2636 ;; *************** function _USBTransferOnePacket *****************
  2637 ;; Defined at:
  2638 ;;		line 995 in file "../../../../../../framework/usb/src/usb_device.c"
  2639 ;; Parameters:    Size  Location     Type
  2640 ;;  ep              1    wreg     unsigned char 
  2641 ;;  dir             1    0[BANK0 ] unsigned char 
  2642 ;;  data            2    1[BANK0 ] PTR unsigned char 
  2643 ;;		 -> cdc_data_tx(64), cdc_data_rx(64), NULL(0), 
  2644 ;;  len             1    3[BANK0 ] unsigned char 
  2645 ;; Auto vars:     Size  Location     Type
  2646 ;;  ep              1    4[BANK0 ] unsigned char 
  2647 ;;  handle          2    5[BANK0 ] PTR volatile struct __BD
  2648 ;;		 -> NULL(0), BDT(48), 
  2649 ;; Return value:  Size  Location     Type
  2650 ;;                  2    0[BANK0 ] PTR void 
  2651 ;; Registers used:
  2652 ;;		wreg, fsr2l, fsr2h, status,2, status,0, prodl, prodh
  2653 ;; Tracked objects:
  2654 ;;		On entry : F/0
  2655 ;;		On exit  : F/0
  2656 ;;		Unchanged: 0/0
  2657 ;; Data sizes:     COMRAM   BANK0   BANK1   BANK2   BANK3   BANK4   BANK5   BANK6   BANK7   BANK8   BANK9  BANK10  BANK1
      +1  BANK12  BANK13  BANK14
  2658 ;;      Params:         0       4       0       0       0       0       0       0       0       0       0       0       
      +0       0       0       0
  2659 ;;      Locals:         0       3       0       0       0       0       0       0       0       0       0       0       
      +0       0       0       0
  2660 ;;      Temps:          0       0       0       0       0       0       0       0       0       0       0       0       
      +0       0       0       0
  2661 ;;      Totals:         0       7       0       0       0       0       0       0       0       0       0       0       
      +0       0       0       0
  2662 ;;Total ram usage:        7 bytes
  2663 ;; Hardware stack levels used:    1
  2664 ;; Hardware stack levels required when called:   11
  2665 ;; This function calls:
  2666 ;;		Nothing
  2667 ;; This function is called by:
  2668 ;;		_getsUSBUSART
  2669 ;;		_CDCTxService
  2670 ;; This function uses a non-reentrant model
  2671 ;;
  2672                           
  2673                           	psect	text12
  2674  001EA8                     __ptext12:
  2675                           	opt stack 0
  2676  001EA8                     _USBTransferOnePacket:
  2677                           	opt stack 17
  2678                           
  2679                           ; BSR set to: 0
  2680                           ;incstack = 0
  2681                           ;USBTransferOnePacket@ep stored from wreg
  2682  001EA8  6FE4               	movwf	USBTransferOnePacket@ep& (0+255),b
  2683                           
  2684                           ;usb_device.c: 997: volatile BDT_ENTRY* handle;
  2685                           ;usb_device.c: 1000: if(dir != 0)
  2686  001EAA  0100               	movlb	0	; () banked
  2687  001EAC  51E0               	movf	USBTransferOnePacket@dir& (0+255),w,b
  2688  001EAE  E005               	bz	l4014
  2689                           
  2690                           ; BSR set to: 0
  2691                           ;usb_device.c: 1001: {
  2692                           ;usb_device.c: 1003: handle = pBDTEntryIn[ep];
  2693  001EB0  51E4               	movf	USBTransferOnePacket@ep& (0+255),w,b
  2694  001EB2  0D02               	mullw	2
  2695  001EB4  50F3               	movf	prodl,w,c
  2696  001EB6  0F10               	addlw	low _pBDTEntryIn
  2697  001EB8  D004               	goto	L4
  2698  001EBA                     l4014:
  2699                           
  2700                           ; BSR set to: 0
  2701                           ;usb_device.c: 1005: else
  2702                           ;usb_device.c: 1006: {
  2703                           ;usb_device.c: 1008: handle = pBDTEntryOut[ep];
  2704  001EBA  51E4               	movf	USBTransferOnePacket@ep& (0+255),w,b
  2705  001EBC  0D02               	mullw	2
  2706  001EBE  50F3               	movf	prodl,w,c
  2707  001EC0  0F60               	addlw	low _pBDTEntryOut
  2708  001EC2                     L4:
  2709  001EC2  6ED9               	movwf	fsr2l,c
  2710  001EC4  6ADA               	clrf	fsr2h,c
  2711  001EC6  CFDE F0E5          	movff	postinc2,USBTransferOnePacket@handle
  2712  001ECA  CFDD F0E6          	movff	postdec2,USBTransferOnePacket@handle+1
  2713                           
  2714                           ; BSR set to: 0
  2715                           ;usb_device.c: 1009: }
  2716                           ;usb_device.c: 1013: if(handle == 0)
  2717  001ECE  51E5               	movf	USBTransferOnePacket@handle& (0+255),w,b
  2718  001ED0  11E6               	iorwf	(USBTransferOnePacket@handle+1)& (0+255),w,b
  2719  001ED2  E103               	bnz	l4020
  2720                           
  2721                           ; BSR set to: 0
  2722                           ;usb_device.c: 1014: {
  2723                           ;usb_device.c: 1015: return 0;
  2724  001ED4  6BE0               	clrf	?_USBTransferOnePacket& (0+255),b
  2725  001ED6  6BE1               	clrf	(?_USBTransferOnePacket+1)& (0+255),b
  2726  001ED8  0012               	return	
  2727  001EDA                     l4020:
  2728                           
  2729                           ; BSR set to: 0
  2730                           ;usb_device.c: 1016: }
  2731                           ;usb_device.c: 1029: handle->ADR = ((uint16_t)(data));
  2732  001EDA  EE20 F002          	lfsr	2,2
  2733  001EDE  51E5               	movf	USBTransferOnePacket@handle& (0+255),w,b
  2734  001EE0  26D9               	addwf	fsr2l,f,c
  2735  001EE2  51E6               	movf	(USBTransferOnePacket@handle+1)& (0+255),w,b
  2736  001EE4  22DA               	addwfc	fsr2h,f,c
  2737  001EE6  C0E1  FFDE         	movff	USBTransferOnePacket@data,postinc2
  2738  001EEA  C0E2  FFDD         	movff	USBTransferOnePacket@data+1,postdec2
  2739                           
  2740                           ;usb_device.c: 1030: handle->CNT = len;
  2741  001EEE  EE20 F001          	lfsr	2,1
  2742  001EF2  51E5               	movf	USBTransferOnePacket@handle& (0+255),w,b
  2743  001EF4  26D9               	addwf	fsr2l,f,c
  2744  001EF6  51E6               	movf	(USBTransferOnePacket@handle+1)& (0+255),w,b
  2745  001EF8  22DA               	addwfc	fsr2h,f,c
  2746  001EFA  C0E3  FFDF         	movff	USBTransferOnePacket@len,indf2
  2747                           
  2748                           ; BSR set to: 0
  2749                           ;usb_device.c: 1031: handle->STAT.Val &= 0x40;
  2750  001EFE  C0E5  FFD9         	movff	USBTransferOnePacket@handle,fsr2l
  2751  001F02  C0E6  FFDA         	movff	USBTransferOnePacket@handle+1,fsr2h
  2752  001F06  0E40               	movlw	64
  2753  001F08  16DF               	andwf	indf2,f,c
  2754                           
  2755                           ; BSR set to: 0
  2756                           ;usb_device.c: 1032: handle->STAT.Val |= (0x08 & 0x08);
  2757  001F0A  C0E5  FFD9         	movff	USBTransferOnePacket@handle,fsr2l
  2758  001F0E  C0E6  FFDA         	movff	USBTransferOnePacket@handle+1,fsr2h
  2759  001F12  0E00               	movlw	0
  2760  001F14  86DB               	bsf	plusw2,3,c
  2761                           
  2762                           ; BSR set to: 0
  2763                           ;usb_device.c: 1033: handle->STAT.Val |= 0x80;
  2764  001F16  C0E5  FFD9         	movff	USBTransferOnePacket@handle,fsr2l
  2765  001F1A  C0E6  FFDA         	movff	USBTransferOnePacket@handle+1,fsr2h
  2766  001F1E  8EDB               	bsf	plusw2,7,c
  2767                           
  2768                           ; BSR set to: 0
  2769                           ;usb_device.c: 1036: if(dir != 0)
  2770  001F20  51E0               	movf	USBTransferOnePacket@dir& (0+255),w,b
  2771  001F22  E005               	bz	l4032
  2772                           
  2773                           ; BSR set to: 0
  2774                           ;usb_device.c: 1037: {
  2775                           ;usb_device.c: 1039: {((uint8_t_VAL*)&pBDTEntryIn[ep])->Val ^= 0x0004;};
  2776  001F24  51E4               	movf	USBTransferOnePacket@ep& (0+255),w,b
  2777  001F26  0D02               	mullw	2
  2778  001F28  50F3               	movf	prodl,w,c
  2779  001F2A  0F10               	addlw	low _pBDTEntryIn
  2780  001F2C  D004               	goto	L5
  2781  001F2E                     l4032:
  2782                           
  2783                           ; BSR set to: 0
  2784                           ;usb_device.c: 1041: else
  2785                           ;usb_device.c: 1042: {
  2786                           ;usb_device.c: 1044: {((uint8_t_VAL*)&pBDTEntryOut[ep])->Val ^= 0x0004;};
  2787  001F2E  51E4               	movf	USBTransferOnePacket@ep& (0+255),w,b
  2788  001F30  0D02               	mullw	2
  2789  001F32  50F3               	movf	prodl,w,c
  2790  001F34  0F60               	addlw	low _pBDTEntryOut
  2791  001F36                     L5:
  2792  001F36  6ED9               	movwf	fsr2l,c
  2793  001F38  6ADA               	clrf	fsr2h,c
  2794  001F3A  0E04               	movlw	4
  2795  001F3C  1ADF               	xorwf	indf2,f,c
  2796                           
  2797                           ; BSR set to: 0
  2798                           ;usb_device.c: 1045: }
  2799                           ;usb_device.c: 1046: return (void*)handle;
  2800  001F3E  C0E5  F0E0         	movff	USBTransferOnePacket@handle,?_USBTransferOnePacket
  2801  001F42  C0E6  F0E1         	movff	USBTransferOnePacket@handle+1,?_USBTransferOnePacket+1
  2802                           
  2803                           ; BSR set to: 0
  2804  001F46  0C04               	retlw	4	;funcret
  2805  001F48                     __end_of_USBTransferOnePacket:
  2806                           	opt stack 0
  2807                           tblptru	equ	0xFF8
  2808                           tblptrh	equ	0xFF7
  2809                           tblptrl	equ	0xFF6
  2810                           tablat	equ	0xFF5
  2811                           prodh	equ	0xFF4
  2812                           prodl	equ	0xFF3
  2813                           intcon	equ	0xFF2
  2814                           postinc0	equ	0xFEE
  2815                           wreg	equ	0xFE8
  2816                           indf1	equ	0xFE7
  2817                           postdec1	equ	0xFE5
  2818                           fsr1h	equ	0xFE2
  2819                           fsr1l	equ	0xFE1
  2820                           indf2	equ	0xFDF
  2821                           postinc2	equ	0xFDE
  2822                           postdec2	equ	0xFDD
  2823                           plusw2	equ	0xFDB
  2824                           fsr2h	equ	0xFDA
  2825                           fsr2l	equ	0xFD9
  2826                           status	equ	0xFD8
  2827                           
  2828 ;; *************** function _BUTTON_IsPressed *****************
  2829 ;; Defined at:
  2830 ;;		line 59 in file "../../../../../../bsp/pic18f27j53_pim/buttons.c"
  2831 ;; Parameters:    Size  Location     Type
  2832 ;;  button          1    wreg     enum E9324
  2833 ;; Auto vars:     Size  Location     Type
  2834 ;;  button          1    0[BANK0 ] enum E9324
  2835 ;; Return value:  Size  Location     Type
  2836 ;;                  1    wreg      unsigned char 
  2837 ;; Registers used:
  2838 ;;		wreg, status,2, status,0
  2839 ;; Tracked objects:
  2840 ;;		On entry : 0/D
  2841 ;;		On exit  : F/0
  2842 ;;		Unchanged: 0/0
  2843 ;; Data sizes:     COMRAM   BANK0   BANK1   BANK2   BANK3   BANK4   BANK5   BANK6   BANK7   BANK8   BANK9  BANK10  BANK1
      +1  BANK12  BANK13  BANK14
  2844 ;;      Params:         0       0       0       0       0       0       0       0       0       0       0       0       
      +0       0       0       0
  2845 ;;      Locals:         0       1       0       0       0       0       0       0       0       0       0       0       
      +0       0       0       0
  2846 ;;      Temps:          0       0       0       0       0       0       0       0       0       0       0       0       
      +0       0       0       0
  2847 ;;      Totals:         0       1       0       0       0       0       0       0       0       0       0       0       
      +0       0       0       0
  2848 ;;Total ram usage:        1 bytes
  2849 ;; Hardware stack levels used:    1
  2850 ;; Hardware stack levels required when called:   11
  2851 ;; This function calls:
  2852 ;;		Nothing
  2853 ;; This function is called by:
  2854 ;;		_APP_DeviceCDCBasicDemoTasks
  2855 ;; This function uses a non-reentrant model
  2856 ;;
  2857                           
  2858                           	psect	text13
  2859  002772                     __ptext13:
  2860                           	opt stack 0
  2861  002772                     _BUTTON_IsPressed:
  2862                           	opt stack 18
  2863                           
  2864                           ; BSR set to: 0
  2865                           ;incstack = 0
  2866                           ;BUTTON_IsPressed@button stored from wreg
  2867  002772  0100               	movlb	0	; () banked
  2868  002774  6FE0               	movwf	BUTTON_IsPressed@button& (0+255),b
  2869                           
  2870                           ;buttons.c: 61: switch(button)
  2871  002776  D003               	goto	l4058
  2872  002778                     l209:
  2873                           
  2874                           ; BSR set to: 0
  2875                           ;buttons.c: 64: return ( (PORTBbits.RB0 == 0) ? 1 : 0);
  2876  002778  A081               	btfss	3969,0,c	;volatile
  2877  00277A  0C01               	retlw	1
  2878  00277C  0C00               	retlw	0
  2879  00277E                     l4058:
  2880  00277E  0100               	movlb	0	; () banked
  2881  002780  51E0               	movf	BUTTON_IsPressed@button& (0+255),w,b
  2882                           
  2883                           ; Switch size 1, requested type "speed"
  2884                           ; Number of cases is 2, Range of values is 0 to 1
  2885                           ; switch strategies available:
  2886                           ; Name         Instructions Cycles
  2887                           ; simple_byte            7     4 (average)
  2888                           ;	Chosen strategy is simple_byte
  2889  002782  B4D8               	btfsc	status,2,c
  2890  002784  0C00               	retlw	0
  2891  002786  0A01               	xorlw	1	; case 1
  2892  002788  A4D8               	btfss	status,2,c
  2893  00278A  0C00               	retlw	0
  2894  00278C  D7F5               	goto	l209
  2895  00278E                     __end_of_BUTTON_IsPressed:
  2896                           	opt stack 0
  2897                           tblptru	equ	0xFF8
  2898                           tblptrh	equ	0xFF7
  2899                           tblptrl	equ	0xFF6
  2900                           tablat	equ	0xFF5
  2901                           prodh	equ	0xFF4
  2902                           prodl	equ	0xFF3
  2903                           intcon	equ	0xFF2
  2904                           postinc0	equ	0xFEE
  2905                           wreg	equ	0xFE8
  2906                           indf1	equ	0xFE7
  2907                           postdec1	equ	0xFE5
  2908                           fsr1h	equ	0xFE2
  2909                           fsr1l	equ	0xFE1
  2910                           indf2	equ	0xFDF
  2911                           postinc2	equ	0xFDE
  2912                           postdec2	equ	0xFDD
  2913                           plusw2	equ	0xFDB
  2914                           fsr2h	equ	0xFDA
  2915                           fsr2l	equ	0xFD9
  2916                           status	equ	0xFD8
  2917                           
  2918 ;; *************** function _SYS_InterruptHigh *****************
  2919 ;; Defined at:
  2920 ;;		line 99 in file "../src/system_config/pic18f27j53_pim/system.c"
  2921 ;; Parameters:    Size  Location     Type
  2922 ;;		None
  2923 ;; Auto vars:     Size  Location     Type
  2924 ;;		None
  2925 ;; Return value:  Size  Location     Type
  2926 ;;		None               void
  2927 ;; Registers used:
  2928 ;;		wreg, fsr1l, fsr1h, fsr2l, fsr2h, status,2, status,0, tblptrl, tblptrh, tblptru, prodl, prodh, cstack
  2929 ;; Tracked objects:
  2930 ;;		On entry : 0/0
  2931 ;;		On exit  : 0/0
  2932 ;;		Unchanged: 0/0
  2933 ;; Data sizes:     COMRAM   BANK0   BANK1   BANK2   BANK3   BANK4   BANK5   BANK6   BANK7   BANK8   BANK9  BANK10  BANK1
      +1  BANK12  BANK13  BANK14
  2934 ;;      Params:         0       0       0       0       0       0       0       0       0       0       0       0       
      +0       0       0       0
  2935 ;;      Locals:         0       0       0       0       0       0       0       0       0       0       0       0       
      +0       0       0       0
  2936 ;;      Temps:         10       0       0       0       0       0       0       0       0       0       0       0       
      +0       0       0       0
  2937 ;;      Totals:        10       0       0       0       0       0       0       0       0       0       0       0       
      +0       0       0       0
  2938 ;;Total ram usage:       10 bytes
  2939 ;; Hardware stack levels used:    1
  2940 ;; Hardware stack levels required when called:   10
  2941 ;; This function calls:
  2942 ;;		_USBDeviceTasks
  2943 ;; This function is called by:
  2944 ;;		Interrupt level 2
  2945 ;; This function uses a non-reentrant model
  2946 ;;
  2947                           
  2948                           	psect	intcode
  2949  001008                     __pintcode:
  2950                           	opt stack 0
  2951  001008                     _SYS_InterruptHigh:
  2952                           	opt stack 17
  2953                           
  2954                           ; BSR set to: 0
  2955                           ;incstack = 0
  2956  001008  8255               	bsf	btemp,1,c	;set compiler interrupt flag (level 2)
  2957  00100A  CFE1 F04B          	movff	fsr1l,??_SYS_InterruptHigh
  2958  00100E  CFE2 F04C          	movff	fsr1h,??_SYS_InterruptHigh+1
  2959  001012  CFD9 F04D          	movff	fsr2l,??_SYS_InterruptHigh+2
  2960  001016  CFDA F04E          	movff	fsr2h,??_SYS_InterruptHigh+3
  2961  00101A  CFF3 F04F          	movff	prodl,??_SYS_InterruptHigh+4
  2962  00101E  CFF4 F050          	movff	prodh,??_SYS_InterruptHigh+5
  2963  001022  CFF6 F051          	movff	tblptrl,??_SYS_InterruptHigh+6
  2964  001026  CFF7 F052          	movff	tblptrh,??_SYS_InterruptHigh+7
  2965  00102A  CFF8 F053          	movff	tblptru,??_SYS_InterruptHigh+8
  2966  00102E  CFF5 F054          	movff	tablat,??_SYS_InterruptHigh+9
  2967                           
  2968                           ;system.c: 102: USBDeviceTasks();
  2969  001032  ECDC  F009         	call	_USBDeviceTasks	;wreg free
  2970  001036  C054  FFF5         	movff	??_SYS_InterruptHigh+9,tablat
  2971  00103A  C053  FFF8         	movff	??_SYS_InterruptHigh+8,tblptru
  2972  00103E  C052  FFF7         	movff	??_SYS_InterruptHigh+7,tblptrh
  2973  001042  C051  FFF6         	movff	??_SYS_InterruptHigh+6,tblptrl
  2974  001046  C050  FFF4         	movff	??_SYS_InterruptHigh+5,prodh
  2975  00104A  C04F  FFF3         	movff	??_SYS_InterruptHigh+4,prodl
  2976  00104E  C04E  FFDA         	movff	??_SYS_InterruptHigh+3,fsr2h
  2977  001052  C04D  FFD9         	movff	??_SYS_InterruptHigh+2,fsr2l
  2978  001056  C04C  FFE2         	movff	??_SYS_InterruptHigh+1,fsr1h
  2979  00105A  C04B  FFE1         	movff	??_SYS_InterruptHigh,fsr1l
  2980  00105E  9255               	bcf	btemp,1,c	;clear compiler interrupt flag (level 2)
  2981  001060  0011               	retfie		f
  2982  001062                     __end_of_SYS_InterruptHigh:
  2983                           	opt stack 0
  2984                           tblptru	equ	0xFF8
  2985                           tblptrh	equ	0xFF7
  2986                           tblptrl	equ	0xFF6
  2987                           tablat	equ	0xFF5
  2988                           prodh	equ	0xFF4
  2989                           prodl	equ	0xFF3
  2990                           intcon	equ	0xFF2
  2991                           postinc0	equ	0xFEE
  2992                           wreg	equ	0xFE8
  2993                           indf1	equ	0xFE7
  2994                           postdec1	equ	0xFE5
  2995                           fsr1h	equ	0xFE2
  2996                           fsr1l	equ	0xFE1
  2997                           indf2	equ	0xFDF
  2998                           postinc2	equ	0xFDE
  2999                           postdec2	equ	0xFDD
  3000                           plusw2	equ	0xFDB
  3001                           fsr2h	equ	0xFDA
  3002                           fsr2l	equ	0xFD9
  3003                           status	equ	0xFD8
  3004                           
  3005 ;; *************** function _USBDeviceTasks *****************
  3006 ;; Defined at:
  3007 ;;		line 489 in file "../../../../../../framework/usb/src/usb_device.c"
  3008 ;; Parameters:    Size  Location     Type
  3009 ;;		None
  3010 ;; Auto vars:     Size  Location     Type
  3011 ;;  i               1   31[COMRAM] unsigned char 
  3012 ;; Return value:  Size  Location     Type
  3013 ;;		None               void
  3014 ;; Registers used:
  3015 ;;		wreg, fsr1l, fsr1h, fsr2l, fsr2h, status,2, status,0, tblptrl, tblptrh, tblptru, prodl, prodh, cstack
  3016 ;; Tracked objects:
  3017 ;;		On entry : 0/0
  3018 ;;		On exit  : 0/0
  3019 ;;		Unchanged: 0/0
  3020 ;; Data sizes:     COMRAM   BANK0   BANK1   BANK2   BANK3   BANK4   BANK5   BANK6   BANK7   BANK8   BANK9  BANK10  BANK1
      +1  BANK12  BANK13  BANK14
  3021 ;;      Params:         0       0       0       0       0       0       0       0       0       0       0       0       
      +0       0       0       0
  3022 ;;      Locals:         1       0       0       0       0       0       0       0       0       0       0       0       
      +0       0       0       0
  3023 ;;      Temps:          0       0       0       0       0       0       0       0       0       0       0       0       
      +0       0       0       0
  3024 ;;      Totals:         1       0       0       0       0       0       0       0       0       0       0       0       
      +0       0       0       0
  3025 ;;Total ram usage:        1 bytes
  3026 ;; Hardware stack levels used:    1
  3027 ;; Hardware stack levels required when called:    9
  3028 ;; This function calls:
  3029 ;;		_USBCtrlEPAllowStatusStage
  3030 ;;		_USBCtrlEPService
  3031 ;;		_USBStallHandler
  3032 ;;		_USBSuspend
  3033 ;;		_USBWakeFromSuspend
  3034 ;;		_USER_USB_CALLBACK_EVENT_HANDLER
  3035 ;;		i2_USBDeviceInit
  3036 ;; This function is called by:
  3037 ;;		_SYS_InterruptHigh
  3038 ;; This function uses a non-reentrant model
  3039 ;;
  3040                           
  3041                           	psect	text15
  3042  0013B8                     __ptext15:
  3043                           	opt stack 0
  3044  0013B8                     _USBDeviceTasks:
  3045                           	opt stack 17
  3046                           
  3047                           ;usb_device.c: 491: uint8_t i;
  3048                           ;usb_device.c: 602: if(USBDeviceState == ATTACHED_STATE)
  3049                           
  3050                           ;incstack = 0
  3051  0013B8  0421               	decf	_USBDeviceState,w,c	;volatile
  3052  0013BA  E108               	bnz	i2l3756
  3053                           
  3054                           ;usb_device.c: 603: {
  3055                           ;usb_device.c: 613: if(!UCONbits.SE0)
  3056  0013BC  BA65               	btfsc	3941,5,c	;volatile
  3057  0013BE  D006               	goto	i2l3756
  3058                           
  3059                           ;usb_device.c: 614: {
  3060                           ;usb_device.c: 615: {UIR = 0;};
  3061  0013C0  6A62               	clrf	3938,c	;volatile
  3062                           
  3063                           ;usb_device.c: 619: UIEbits.URSTIE = 1;
  3064  0013C2  010F               	movlb	15	; () banked
  3065  0013C4  8136               	bsf	54,0,b	;volatile
  3066                           
  3067                           ;usb_device.c: 620: UIEbits.IDLEIE = 1;
  3068  0013C6  8936               	bsf	54,4,b	;volatile
  3069                           
  3070                           ; BSR set to: 15
  3071                           ;usb_device.c: 621: USBDeviceState = POWERED_STATE;
  3072  0013C8  0E02               	movlw	2
  3073  0013CA  6E21               	movwf	_USBDeviceState,c	;volatile
  3074  0013CC                     i2l3756:
  3075                           
  3076                           ;usb_device.c: 622: }
  3077                           ;usb_device.c: 623: }
  3078                           ;usb_device.c: 639: if(UIRbits.ACTVIF && UIEbits.ACTVIE)
  3079  0013CC  A462               	btfss	3938,2,c	;volatile
  3080  0013CE  D006               	goto	i2l3764
  3081  0013D0  010F               	movlb	15	; () banked
  3082  0013D2  A536               	btfss	54,2,b	;volatile
  3083  0013D4  D003               	goto	i2l3764
  3084                           
  3085                           ; BSR set to: 15
  3086                           ;usb_device.c: 640: {
  3087                           ;usb_device.c: 641: (UIR &= 0xFB);
  3088  0013D6  9462               	bcf	3938,2,c	;volatile
  3089                           
  3090                           ; BSR set to: 15
  3091                           ;usb_device.c: 645: USBWakeFromSuspend();
  3092  0013D8  EC5C  F013         	call	_USBWakeFromSuspend	;wreg free
  3093  0013DC                     i2l3764:
  3094                           
  3095                           ;usb_device.c: 647: }
  3096                           ;usb_device.c: 652: if(UCONbits.SUSPND==1)
  3097  0013DC  A265               	btfss	3941,1,c	;volatile
  3098  0013DE  D002               	goto	i2l407
  3099                           
  3100                           ;usb_device.c: 653: {
  3101                           ;usb_device.c: 654: {PIR2bits.USBIF = 0;};
  3102  0013E0  98A1               	bcf	4001,4,c	;volatile
  3103                           
  3104                           ;usb_device.c: 655: return;
  3105  0013E2  0012               	return	
  3106  0013E4                     i2l407:
  3107                           
  3108                           ;usb_device.c: 656: }
  3109                           ;usb_device.c: 668: if(UIRbits.URSTIF && UIEbits.URSTIE)
  3110  0013E4  A062               	btfss	3938,0,c	;volatile
  3111  0013E6  D009               	goto	i2l3778
  3112  0013E8  010F               	movlb	15	; () banked
  3113  0013EA  A136               	btfss	54,0,b	;volatile
  3114  0013EC  D006               	goto	i2l3778
  3115                           
  3116                           ; BSR set to: 15
  3117                           ;usb_device.c: 669: {
  3118                           ;usb_device.c: 670: USBDeviceInit();
  3119  0013EE  ECC9  F00C         	call	i2_USBDeviceInit	;wreg free
  3120                           
  3121                           ; BSR set to: 13
  3122                           ;usb_device.c: 674: {PIE2bits.USBIE = 1;};
  3123  0013F2  88A0               	bsf	4000,4,c	;volatile
  3124                           
  3125                           ; BSR set to: 13
  3126                           ;usb_device.c: 676: USBDeviceState = DEFAULT_STATE;
  3127  0013F4  0E04               	movlw	4
  3128  0013F6  6E21               	movwf	_USBDeviceState,c	;volatile
  3129                           
  3130                           ; BSR set to: 13
  3131                           ;usb_device.c: 686: (UIR &= 0xFE);
  3132  0013F8  9062               	bcf	3938,0,c	;volatile
  3133  0013FA                     i2l3778:
  3134                           
  3135                           ;usb_device.c: 687: }
  3136                           ;usb_device.c: 692: if(UIRbits.IDLEIF && UIEbits.IDLEIE)
  3137  0013FA  A862               	btfss	3938,4,c	;volatile
  3138  0013FC  D006               	goto	i2l3786
  3139  0013FE  010F               	movlb	15	; () banked
  3140  001400  A936               	btfss	54,4,b	;volatile
  3141  001402  D003               	goto	i2l3786
  3142                           
  3143                           ; BSR set to: 15
  3144                           ;usb_device.c: 693: {
  3145                           ;usb_device.c: 698: USBSuspend();
  3146  001404  EC8D  F013         	call	_USBSuspend	;wreg free
  3147                           
  3148                           ;usb_device.c: 701: (UIR &= 0xEF);
  3149  001408  9862               	bcf	3938,4,c	;volatile
  3150  00140A                     i2l3786:
  3151                           
  3152                           ;usb_device.c: 702: }
  3153                           ;usb_device.c: 704: if(UIRbits.SOFIF)
  3154  00140A  AC62               	btfss	3938,6,c	;volatile
  3155  00140C  D015               	goto	i2l3802
  3156                           
  3157                           ;usb_device.c: 705: {
  3158                           ;usb_device.c: 706: if(UIEbits.SOFIE)
  3159  00140E  010F               	movlb	15	; () banked
  3160  001410  AD36               	btfss	54,6,b	;volatile
  3161  001412  D00A               	goto	i2l3792
  3162                           
  3163                           ; BSR set to: 15
  3164                           ;usb_device.c: 707: {
  3165                           ;usb_device.c: 708: USER_USB_CALLBACK_EVENT_HANDLER(EVENT_SOF,0,1);
  3166  001414  6A38               	clrf	USER_USB_CALLBACK_EVENT_HANDLER@event+1,c
  3167  001416  0E73               	movlw	115
  3168  001418  6E37               	movwf	USER_USB_CALLBACK_EVENT_HANDLER@event,c
  3169  00141A  6A39               	clrf	USER_USB_CALLBACK_EVENT_HANDLER@pdata,c
  3170  00141C  6A3A               	clrf	USER_USB_CALLBACK_EVENT_HANDLER@pdata+1,c
  3171  00141E  6A3C               	clrf	USER_USB_CALLBACK_EVENT_HANDLER@size+1,c
  3172  001420  0E01               	movlw	1
  3173  001422  6E3B               	movwf	USER_USB_CALLBACK_EVENT_HANDLER@size,c
  3174  001424  EC22  F012         	call	_USER_USB_CALLBACK_EVENT_HANDLER	;wreg free
  3175  001428                     i2l3792:
  3176                           
  3177                           ;usb_device.c: 709: }
  3178                           ;usb_device.c: 710: (UIR &= 0xBF);
  3179  001428  9C62               	bcf	3938,6,c	;volatile
  3180                           
  3181                           ;usb_device.c: 735: if(USBStatusStageTimeoutCounter != 0u)
  3182  00142A  5024               	movf	_USBStatusStageTimeoutCounter,w,c
  3183  00142C  E001               	bz	i2l3798
  3184                           
  3185                           ;usb_device.c: 736: {
  3186                           ;usb_device.c: 737: USBStatusStageTimeoutCounter--;
  3187  00142E  0624               	decf	_USBStatusStageTimeoutCounter,f,c	;volatile
  3188  001430                     i2l3798:
  3189                           
  3190                           ;usb_device.c: 738: }
  3191                           ;usb_device.c: 744: if(USBStatusStageTimeoutCounter == 0)
  3192  001430  5024               	movf	_USBStatusStageTimeoutCounter,w,c	;volatile
  3193  001432  E102               	bnz	i2l3802
  3194                           
  3195                           ;usb_device.c: 745: {
  3196                           ;usb_device.c: 746: USBCtrlEPAllowStatusStage();
  3197  001434  EC99  F00D         	call	_USBCtrlEPAllowStatusStage	;wreg free
  3198  001438                     i2l3802:
  3199                           
  3200                           ;usb_device.c: 747: }
  3201                           ;usb_device.c: 749: }
  3202                           ;usb_device.c: 751: if(UIRbits.STALLIF && UIEbits.STALLIE)
  3203  001438  AA62               	btfss	3938,5,c	;volatile
  3204  00143A  D004               	goto	i2l3808
  3205  00143C  010F               	movlb	15	; () banked
  3206  00143E  BB36               	btfsc	54,5,b	;volatile
  3207                           
  3208                           ; BSR set to: 15
  3209                           ;usb_device.c: 752: {
  3210                           ;usb_device.c: 753: USBStallHandler();
  3211  001440  ECC4  F012         	call	_USBStallHandler	;wreg free
  3212  001444                     i2l3808:
  3213                           
  3214                           ;usb_device.c: 754: }
  3215                           ;usb_device.c: 756: if(UIRbits.UERRIF && UIEbits.UERRIE)
  3216  001444  A262               	btfss	3938,1,c	;volatile
  3217  001446  D00E               	goto	i2l3816
  3218  001448  010F               	movlb	15	; () banked
  3219  00144A  A336               	btfss	54,1,b	;volatile
  3220  00144C  D00B               	goto	i2l3816
  3221                           
  3222                           ; BSR set to: 15
  3223                           ;usb_device.c: 757: {
  3224                           ;usb_device.c: 758: USER_USB_CALLBACK_EVENT_HANDLER(EVENT_BUS_ERROR,0,1);
  3225  00144E  0E7F               	movlw	127
  3226  001450  6E38               	movwf	USER_USB_CALLBACK_EVENT_HANDLER@event+1,c
  3227  001452  6837               	setf	USER_USB_CALLBACK_EVENT_HANDLER@event,c
  3228  001454  6A39               	clrf	USER_USB_CALLBACK_EVENT_HANDLER@pdata,c
  3229  001456  6A3A               	clrf	USER_USB_CALLBACK_EVENT_HANDLER@pdata+1,c
  3230  001458  6A3C               	clrf	USER_USB_CALLBACK_EVENT_HANDLER@size+1,c
  3231  00145A  0E01               	movlw	1
  3232  00145C  6E3B               	movwf	USER_USB_CALLBACK_EVENT_HANDLER@size,c
  3233  00145E  EC22  F012         	call	_USER_USB_CALLBACK_EVENT_HANDLER	;wreg free
  3234                           
  3235                           ;usb_device.c: 759: {UEIR = 0;};
  3236  001462  6A63               	clrf	3939,c	;volatile
  3237  001464                     i2l3816:
  3238                           
  3239                           ;usb_device.c: 767: }
  3240                           ;usb_device.c: 774: if(USBDeviceState < DEFAULT_STATE)
  3241  001464  0E04               	movlw	4
  3242  001466  6021               	cpfslt	_USBDeviceState,c	;volatile
  3243  001468  D002               	goto	i2l417
  3244                           
  3245                           ;usb_device.c: 775: {
  3246                           ;usb_device.c: 776: {PIR2bits.USBIF = 0;};
  3247  00146A  98A1               	bcf	4001,4,c	;volatile
  3248                           
  3249                           ;usb_device.c: 777: return;
  3250  00146C  0C04               	retlw	4
  3251  00146E                     i2l417:
  3252                           
  3253                           ;usb_device.c: 778: }
  3254                           ;usb_device.c: 783: if(UIEbits.TRNIE)
  3255  00146E  010F               	movlb	15	; () banked
  3256  001470  A736               	btfss	54,3,b	;volatile
  3257  001472  D029               	goto	i2l418
  3258                           
  3259                           ; BSR set to: 15
  3260                           ;usb_device.c: 784: {
  3261                           ;usb_device.c: 785: for(i = 0; i < 4u; i++)
  3262  001474  6A4A               	clrf	USBDeviceTasks@i,c
  3263  001476                     i2l419:
  3264                           
  3265                           ;usb_device.c: 786: {
  3266                           ;usb_device.c: 787: if(UIRbits.TRNIF)
  3267  001476  A662               	btfss	3938,3,c	;volatile
  3268  001478  D026               	goto	i2l418
  3269                           
  3270                           ;usb_device.c: 788: {
  3271                           ;usb_device.c: 790: USTATcopy.Val = USTAT;
  3272  00147A  CF64 F02A          	movff	3940,_USTATcopy	;volatile
  3273                           
  3274                           ;usb_device.c: 791: endpoint_number = USTATcopy.endpoint_number;
  3275  00147E  302A               	rrcf	_USTATcopy,w,c	;volatile
  3276  001480  32E8               	rrcf	wreg,f,c
  3277  001482  32E8               	rrcf	wreg,f,c
  3278  001484  0B0F               	andlw	15
  3279  001486  6E27               	movwf	_endpoint_number,c	;volatile
  3280                           
  3281                           ;usb_device.c: 793: (UIR &= 0xF7);
  3282  001488  9662               	bcf	3938,3,c	;volatile
  3283                           
  3284                           ;usb_device.c: 798: if(USTATcopy.direction == 0)
  3285  00148A  B42A               	btfsc	_USTATcopy,2,c	;volatile
  3286  00148C  D003               	goto	i2l3836
  3287                           
  3288                           ;usb_device.c: 799: {
  3289                           ;usb_device.c: 800: ep_data_out[endpoint_number].bits.ping_pong_state ^= 1;
  3290  00148E  5027               	movf	_endpoint_number,w,c
  3291  001490  0F69               	addlw	low _ep_data_out
  3292  001492  D002               	goto	L6
  3293  001494                     i2l3836:
  3294                           
  3295                           ;usb_device.c: 802: else
  3296                           ;usb_device.c: 803: {
  3297                           ;usb_device.c: 804: ep_data_in[endpoint_number].bits.ping_pong_state ^= 1;
  3298  001494  5027               	movf	_endpoint_number,w,c
  3299  001496  0F66               	addlw	low _ep_data_in
  3300  001498                     L6:
  3301  001498  6ED9               	movwf	fsr2l,c
  3302  00149A  6ADA               	clrf	fsr2h,c
  3303  00149C  0100               	movlb	0	; () banked
  3304  00149E  70DF               	btg	indf2,0,c
  3305                           
  3306                           ; BSR set to: 0
  3307                           ;usb_device.c: 805: }
  3308                           ;usb_device.c: 810: if(endpoint_number == 0)
  3309  0014A0  5027               	movf	_endpoint_number,w,c	;volatile
  3310  0014A2  E103               	bnz	i2l3842
  3311                           
  3312                           ; BSR set to: 0
  3313                           ;usb_device.c: 811: {
  3314                           ;usb_device.c: 812: USBCtrlEPService();
  3315  0014A4  EC54  F00E         	call	_USBCtrlEPService	;wreg free
  3316                           
  3317                           ;usb_device.c: 813: }
  3318  0014A8  D00A               	goto	i2l3844
  3319  0014AA                     i2l3842:
  3320                           
  3321                           ; BSR set to: 0
  3322                           ;usb_device.c: 814: else
  3323                           ;usb_device.c: 815: {
  3324                           ;usb_device.c: 816: USER_USB_CALLBACK_EVENT_HANDLER(EVENT_TRANSFER,(uint8_t*)&USTATcopy.
      +                          Val,0);
  3325  0014AA  6A38               	clrf	USER_USB_CALLBACK_EVENT_HANDLER@event+1,c
  3326  0014AC  0E72               	movlw	114
  3327  0014AE  6E37               	movwf	USER_USB_CALLBACK_EVENT_HANDLER@event,c
  3328  0014B0  0E2A               	movlw	low _USTATcopy
  3329  0014B2  6E39               	movwf	USER_USB_CALLBACK_EVENT_HANDLER@pdata,c
  3330  0014B4  6A3A               	clrf	USER_USB_CALLBACK_EVENT_HANDLER@pdata+1,c
  3331  0014B6  6A3C               	clrf	USER_USB_CALLBACK_EVENT_HANDLER@size+1,c
  3332  0014B8  6A3B               	clrf	USER_USB_CALLBACK_EVENT_HANDLER@size,c
  3333  0014BA  EC22  F012         	call	_USER_USB_CALLBACK_EVENT_HANDLER	;wreg free
  3334  0014BE                     i2l3844:
  3335  0014BE  2A4A               	incf	USBDeviceTasks@i,f,c
  3336  0014C0  0E03               	movlw	3
  3337  0014C2  644A               	cpfsgt	USBDeviceTasks@i,c
  3338  0014C4  D7D8               	goto	i2l419
  3339  0014C6                     i2l418:
  3340                           
  3341                           ;usb_device.c: 822: }
  3342                           ;usb_device.c: 823: }
  3343                           ;usb_device.c: 824: }
  3344                           ;usb_device.c: 826: {PIR2bits.USBIF = 0;};
  3345  0014C6  98A1               	bcf	4001,4,c	;volatile
  3346  0014C8  0012               	return		;funcret
  3347  0014CA                     __end_of_USBDeviceTasks:
  3348                           	opt stack 0
  3349                           tblptru	equ	0xFF8
  3350                           tblptrh	equ	0xFF7
  3351                           tblptrl	equ	0xFF6
  3352                           tablat	equ	0xFF5
  3353                           prodh	equ	0xFF4
  3354                           prodl	equ	0xFF3
  3355                           intcon	equ	0xFF2
  3356                           postinc0	equ	0xFEE
  3357                           wreg	equ	0xFE8
  3358                           indf1	equ	0xFE7
  3359                           postdec1	equ	0xFE5
  3360                           fsr1h	equ	0xFE2
  3361                           fsr1l	equ	0xFE1
  3362                           indf2	equ	0xFDF
  3363                           postinc2	equ	0xFDE
  3364                           postdec2	equ	0xFDD
  3365                           plusw2	equ	0xFDB
  3366                           fsr2h	equ	0xFDA
  3367                           fsr2l	equ	0xFD9
  3368                           status	equ	0xFD8
  3369                           
  3370 ;; *************** function i2_USBDeviceInit *****************
  3371 ;; Defined at:
  3372 ;;		line 298 in file "../../../../../../framework/usb/src/usb_device.c"
  3373 ;; Parameters:    Size  Location     Type
  3374 ;;		None
  3375 ;; Auto vars:     Size  Location     Type
  3376 ;;  USBDeviceIni    1    8[COMRAM] unsigned char 
  3377 ;; Return value:  Size  Location     Type
  3378 ;;		None               void
  3379 ;; Registers used:
  3380 ;;		wreg, fsr2l, fsr2h, status,2, status,0, prodl, prodh, cstack
  3381 ;; Tracked objects:
  3382 ;;		On entry : F/F
  3383 ;;		On exit  : F/D
  3384 ;;		Unchanged: 0/0
  3385 ;; Data sizes:     COMRAM   BANK0   BANK1   BANK2   BANK3   BANK4   BANK5   BANK6   BANK7   BANK8   BANK9  BANK10  BANK1
      +1  BANK12  BANK13  BANK14
  3386 ;;      Params:         0       0       0       0       0       0       0       0       0       0       0       0       
      +0       0       0       0
  3387 ;;      Locals:         1       0       0       0       0       0       0       0       0       0       0       0       
      +0       0       0       0
  3388 ;;      Temps:          0       0       0       0       0       0       0       0       0       0       0       0       
      +0       0       0       0
  3389 ;;      Totals:         1       0       0       0       0       0       0       0       0       0       0       0       
      +0       0       0       0
  3390 ;;Total ram usage:        1 bytes
  3391 ;; Hardware stack levels used:    1
  3392 ;; Hardware stack levels required when called:    1
  3393 ;; This function calls:
  3394 ;;		i2_memset
  3395 ;; This function is called by:
  3396 ;;		_USBDeviceTasks
  3397 ;; This function uses a non-reentrant model
  3398 ;;
  3399                           
  3400                           	psect	text16
  3401  001992                     __ptext16:
  3402                           	opt stack 0
  3403  001992                     i2_USBDeviceInit:
  3404                           	opt stack 24
  3405                           
  3406                           ; BSR set to: 15
  3407                           ;usb_device.c: 300: uint8_t i;
  3408                           ;usb_device.c: 302: {PIE2bits.USBIE = 0;};
  3409                           
  3410                           ;incstack = 0
  3411  001992  98A0               	bcf	4000,4,c	;volatile
  3412                           
  3413                           ;usb_device.c: 305: {UEIR = 0;};
  3414  001994  6A63               	clrf	3939,c	;volatile
  3415                           
  3416                           ;usb_device.c: 308: {UIR = 0;};
  3417  001996  6A62               	clrf	3938,c	;volatile
  3418                           
  3419                           ;usb_device.c: 311: UEP0 = 0;
  3420  001998  6B26               	clrf	38,b	;volatile
  3421                           
  3422                           ; BSR set to: 15
  3423                           ;usb_device.c: 313: memset((void*)&UEP1,0x00,(2));;
  3424  00199A  0E27               	movlw	39
  3425  00199C  6E2B               	movwf	i2memset@p1,c
  3426  00199E  0E0F               	movlw	15
  3427  0019A0  6E2C               	movwf	i2memset@p1+1,c
  3428  0019A2  6A2E               	clrf	i2memset@c+1,c
  3429  0019A4  6A2D               	clrf	i2memset@c,c
  3430  0019A6  6A30               	clrf	i2memset@n+1,c
  3431  0019A8  0E02               	movlw	2
  3432  0019AA  6E2F               	movwf	i2memset@n,c
  3433  0019AC  EC47  F013         	call	i2_memset	;wreg free
  3434                           
  3435                           ;usb_device.c: 315: { UCFG = 0x10 | 0x00 | 0x04 | 0x02; UEIE = 0x9F; UIE = 0x39 | 0x40 |
      +                           0x02; };
  3436  0019B0  0E16               	movlw	22
  3437  0019B2  010F               	movlb	15	; () banked
  3438  0019B4  6F39               	movwf	57,b	;volatile
  3439                           
  3440                           ; BSR set to: 15
  3441  0019B6  0E9F               	movlw	159
  3442  0019B8  6F37               	movwf	55,b	;volatile
  3443                           
  3444                           ; BSR set to: 15
  3445  0019BA  0E7B               	movlw	123
  3446  0019BC  6F36               	movwf	54,b	;volatile
  3447                           
  3448                           ; BSR set to: 15
  3449                           ;usb_device.c: 318: ;
  3450                           ;usb_device.c: 321: ;
  3451                           ;usb_device.c: 324: for(i=0;i<(sizeof(BDT)/sizeof(BDT_ENTRY));i++)
  3452  0019BE  6A33               	clrf	i2USBDeviceInit@i,c
  3453  0019C0                     i2l3692:
  3454                           
  3455                           ; BSR set to: 15
  3456                           ;usb_device.c: 325: {
  3457                           ;usb_device.c: 326: BDT[i].Val = 0x00;
  3458  0019C0  5033               	movf	i2USBDeviceInit@i,w,c
  3459  0019C2  0D04               	mullw	4
  3460  0019C4  0E00               	movlw	0
  3461  0019C6  24F3               	addwf	prodl,w,c
  3462  0019C8  6ED9               	movwf	fsr2l,c
  3463  0019CA  0E0D               	movlw	13
  3464  0019CC  20F4               	addwfc	prodh,w,c
  3465  0019CE  6EDA               	movwf	fsr2h,c
  3466  0019D0  6ADE               	clrf	postinc2,c
  3467  0019D2  6ADE               	clrf	postinc2,c
  3468  0019D4  6ADE               	clrf	postinc2,c
  3469  0019D6  6ADD               	clrf	postdec2,c
  3470                           
  3471                           ; BSR set to: 15
  3472  0019D8  2A33               	incf	i2USBDeviceInit@i,f,c
  3473                           
  3474                           ; BSR set to: 15
  3475  0019DA  0E0B               	movlw	11
  3476  0019DC  6433               	cpfsgt	i2USBDeviceInit@i,c
  3477  0019DE  D7F0               	goto	i2l3692
  3478                           
  3479                           ; BSR set to: 15
  3480                           ;usb_device.c: 327: }
  3481                           ;usb_device.c: 330: UCONbits.PPBRST = 1;
  3482  0019E0  8C65               	bsf	3941,6,c	;volatile
  3483                           
  3484                           ;usb_device.c: 333: UADDR = 0x00;
  3485  0019E2  6B38               	clrf	56,b	;volatile
  3486                           
  3487                           ;usb_device.c: 336: UCONbits.PKTDIS = 0;
  3488  0019E4  9865               	bcf	3941,4,c	;volatile
  3489                           
  3490                           ;usb_device.c: 339: UCONbits.PPBRST = 0;
  3491  0019E6  9C65               	bcf	3941,6,c	;volatile
  3492                           
  3493                           ;usb_device.c: 342: while(UIRbits.TRNIF == 1)
  3494  0019E8  D005               	goto	i2l3706
  3495  0019EA                     i2l3698:
  3496                           
  3497                           ; BSR set to: 15
  3498                           ;usb_device.c: 343: {
  3499                           ;usb_device.c: 344: (UIR &= 0xF7);
  3500  0019EA  9662               	bcf	3938,3,c	;volatile
  3501                           
  3502                           ; BSR set to: 15
  3503                           ;usb_device.c: 346: inPipes[0].info.Val = 0;
  3504  0019EC  6A0D               	clrf	_inPipes+3,c	;volatile
  3505                           
  3506                           ; BSR set to: 15
  3507                           ;usb_device.c: 347: outPipes[0].info.Val = 0;
  3508  0019EE  6A04               	clrf	_outPipes+3,c	;volatile
  3509                           
  3510                           ; BSR set to: 15
  3511                           ;usb_device.c: 348: outPipes[0].wCount.Val = 0;
  3512  0019F0  6A05               	clrf	_outPipes+4,c	;volatile
  3513  0019F2  6A06               	clrf	_outPipes+5,c	;volatile
  3514  0019F4                     i2l3706:
  3515                           
  3516                           ; BSR set to: 15
  3517  0019F4  B662               	btfsc	3938,3,c	;volatile
  3518  0019F6  D7F9               	goto	i2l3698
  3519                           
  3520                           ; BSR set to: 15
  3521                           ;usb_device.c: 349: }
  3522                           ;usb_device.c: 353: USBStatusStageEnabledFlag1 = 1;
  3523  0019F8  0E01               	movlw	1
  3524  0019FA  6E22               	movwf	_USBStatusStageEnabledFlag1,c	;volatile
  3525                           
  3526                           ;usb_device.c: 354: USBStatusStageEnabledFlag2 = 1;
  3527  0019FC  6E23               	movwf	_USBStatusStageEnabledFlag2,c	;volatile
  3528                           
  3529                           ; BSR set to: 15
  3530                           ;usb_device.c: 356: USBDeferINDataStagePackets = 0;
  3531  0019FE  6A1E               	clrf	_USBDeferINDataStagePackets,c	;volatile
  3532                           
  3533                           ; BSR set to: 15
  3534                           ;usb_device.c: 357: USBDeferOUTDataStagePackets = 0;
  3535  001A00  6A1F               	clrf	_USBDeferOUTDataStagePackets,c	;volatile
  3536                           
  3537                           ; BSR set to: 15
  3538                           ;usb_device.c: 358: USBBusIsSuspended = 0;
  3539  001A02  0100               	movlb	0	; () banked
  3540  001A04  6B78               	clrf	_USBBusIsSuspended& (0+255),b	;volatile
  3541                           
  3542                           ; BSR set to: 0
  3543                           ;usb_device.c: 362: for(i = 0; i < (uint8_t)(2+1u); i++)
  3544  001A06  6A33               	clrf	i2USBDeviceInit@i,c
  3545  001A08                     i2l3722:
  3546                           
  3547                           ;usb_device.c: 363: {
  3548                           ;usb_device.c: 364: pBDTEntryIn[i] = 0u;
  3549  001A08  5033               	movf	i2USBDeviceInit@i,w,c
  3550  001A0A  0D02               	mullw	2
  3551  001A0C  50F3               	movf	prodl,w,c
  3552  001A0E  0F10               	addlw	low _pBDTEntryIn
  3553  001A10  6ED9               	movwf	fsr2l,c
  3554  001A12  6ADA               	clrf	fsr2h,c
  3555  001A14  6ADE               	clrf	postinc2,c
  3556  001A16  6ADD               	clrf	postdec2,c
  3557                           
  3558                           ;usb_device.c: 365: pBDTEntryOut[i] = 0u;
  3559  001A18  5033               	movf	i2USBDeviceInit@i,w,c
  3560  001A1A  0D02               	mullw	2
  3561  001A1C  50F3               	movf	prodl,w,c
  3562  001A1E  0F60               	addlw	low _pBDTEntryOut
  3563  001A20  6ED9               	movwf	fsr2l,c
  3564  001A22  6ADA               	clrf	fsr2h,c
  3565  001A24  6ADE               	clrf	postinc2,c
  3566  001A26  6ADD               	clrf	postdec2,c
  3567                           
  3568                           ;usb_device.c: 366: ep_data_in[i].Val = 0u;
  3569  001A28  5033               	movf	i2USBDeviceInit@i,w,c
  3570  001A2A  0F66               	addlw	low _ep_data_in
  3571  001A2C  6ED9               	movwf	fsr2l,c
  3572  001A2E  6ADA               	clrf	fsr2h,c
  3573  001A30  6ADF               	clrf	indf2,c
  3574                           
  3575                           ;usb_device.c: 367: ep_data_out[i].Val = 0u;
  3576  001A32  5033               	movf	i2USBDeviceInit@i,w,c
  3577  001A34  0F69               	addlw	low _ep_data_out
  3578  001A36  6ED9               	movwf	fsr2l,c
  3579  001A38  6ADA               	clrf	fsr2h,c
  3580  001A3A  6ADF               	clrf	indf2,c
  3581  001A3C  2A33               	incf	i2USBDeviceInit@i,f,c
  3582  001A3E  0E02               	movlw	2
  3583  001A40  6433               	cpfsgt	i2USBDeviceInit@i,c
  3584  001A42  D7E2               	goto	i2l3722
  3585                           
  3586                           ;usb_device.c: 368: }
  3587                           ;usb_device.c: 371: pBDTEntryIn[0] = (volatile BDT_ENTRY*)&BDT[2];
  3588  001A44  0E08               	movlw	8
  3589  001A46  6E10               	movwf	_pBDTEntryIn,c
  3590  001A48  0E0D               	movlw	13
  3591  001A4A  6E11               	movwf	_pBDTEntryIn+1,c
  3592                           
  3593                           ;usb_device.c: 373: UEP0 = 0x06|0x10;
  3594  001A4C  0E16               	movlw	22
  3595  001A4E  010F               	movlb	15	; () banked
  3596  001A50  6F26               	movwf	38,b	;volatile
  3597                           
  3598                           ; BSR set to: 15
  3599                           ;usb_device.c: 375: BDT[0].ADR = ((uint16_t)(&SetupPkt));
  3600  001A52  0E0D               	movlw	13
  3601  001A54  010D               	movlb	13	; () banked
  3602  001A56  6F03               	movwf	3,b	;volatile
  3603  001A58  0E30               	movlw	48
  3604  001A5A  6F02               	movwf	2,b	;volatile
  3605                           
  3606                           ; BSR set to: 13
  3607                           ;usb_device.c: 376: BDT[0].CNT = 8;
  3608  001A5C  0E08               	movlw	8
  3609  001A5E  6F01               	movwf	1,b	;volatile
  3610                           
  3611                           ; BSR set to: 13
  3612                           ;usb_device.c: 377: BDT[0].STAT.Val = 0x00|0x04;
  3613  001A60  0E04               	movlw	4
  3614  001A62  6F00               	movwf	0,b	;volatile
  3615                           
  3616                           ; BSR set to: 13
  3617                           ;usb_device.c: 378: BDT[0].STAT.Val |= 0x80;
  3618  001A64  8F00               	bsf	0,7,b	;volatile
  3619                           
  3620                           ; BSR set to: 13
  3621                           ;usb_device.c: 381: USBActiveConfiguration = 0;
  3622  001A66  6A29               	clrf	_USBActiveConfiguration,c	;volatile
  3623                           
  3624                           ; BSR set to: 13
  3625                           ;usb_device.c: 384: USBDeviceState = DETACHED_STATE;
  3626  001A68  6A21               	clrf	_USBDeviceState,c	;volatile
  3627                           
  3628                           ; BSR set to: 13
  3629  001A6A  0012               	return		;funcret
  3630  001A6C                     __end_ofi2_USBDeviceInit:
  3631                           	opt stack 0
  3632                           tblptru	equ	0xFF8
  3633                           tblptrh	equ	0xFF7
  3634                           tblptrl	equ	0xFF6
  3635                           tablat	equ	0xFF5
  3636                           prodh	equ	0xFF4
  3637                           prodl	equ	0xFF3
  3638                           intcon	equ	0xFF2
  3639                           postinc0	equ	0xFEE
  3640                           wreg	equ	0xFE8
  3641                           indf1	equ	0xFE7
  3642                           postdec1	equ	0xFE5
  3643                           fsr1h	equ	0xFE2
  3644                           fsr1l	equ	0xFE1
  3645                           indf2	equ	0xFDF
  3646                           postinc2	equ	0xFDE
  3647                           postdec2	equ	0xFDD
  3648                           plusw2	equ	0xFDB
  3649                           fsr2h	equ	0xFDA
  3650                           fsr2l	equ	0xFD9
  3651                           status	equ	0xFD8
  3652                           
  3653 ;; *************** function _USBWakeFromSuspend *****************
  3654 ;; Defined at:
  3655 ;;		line 2302 in file "../../../../../../framework/usb/src/usb_device.c"
  3656 ;; Parameters:    Size  Location     Type
  3657 ;;		None
  3658 ;; Auto vars:     Size  Location     Type
  3659 ;;		None
  3660 ;; Return value:  Size  Location     Type
  3661 ;;		None               void
  3662 ;; Registers used:
  3663 ;;		wreg, fsr2l, fsr2h, status,2, status,0, prodl, prodh, cstack
  3664 ;; Tracked objects:
  3665 ;;		On entry : F/F
  3666 ;;		On exit  : F/F
  3667 ;;		Unchanged: 0/0
  3668 ;; Data sizes:     COMRAM   BANK0   BANK1   BANK2   BANK3   BANK4   BANK5   BANK6   BANK7   BANK8   BANK9  BANK10  BANK1
      +1  BANK12  BANK13  BANK14
  3669 ;;      Params:         0       0       0       0       0       0       0       0       0       0       0       0       
      +0       0       0       0
  3670 ;;      Locals:         0       0       0       0       0       0       0       0       0       0       0       0       
      +0       0       0       0
  3671 ;;      Temps:          0       0       0       0       0       0       0       0       0       0       0       0       
      +0       0       0       0
  3672 ;;      Totals:         0       0       0       0       0       0       0       0       0       0       0       0       
      +0       0       0       0
  3673 ;;Total ram usage:        0 bytes
  3674 ;; Hardware stack levels used:    1
  3675 ;; Hardware stack levels required when called:    5
  3676 ;; This function calls:
  3677 ;;		_USER_USB_CALLBACK_EVENT_HANDLER
  3678 ;; This function is called by:
  3679 ;;		_USBDeviceTasks
  3680 ;; This function uses a non-reentrant model
  3681 ;;
  3682                           
  3683                           	psect	text17
  3684  0026B8                     __ptext17:
  3685                           	opt stack 0
  3686  0026B8                     _USBWakeFromSuspend:
  3687                           	opt stack 20
  3688                           
  3689                           ; BSR set to: 15
  3690                           ;usb_device.c: 2304: USBBusIsSuspended = 0;
  3691                           
  3692                           ; BSR set to: 13
  3693                           ;incstack = 0
  3694  0026B8  0100               	movlb	0	; () banked
  3695  0026BA  6B78               	clrf	_USBBusIsSuspended& (0+255),b	;volatile
  3696                           
  3697                           ; BSR set to: 0
  3698                           ;usb_device.c: 2310: USER_USB_CALLBACK_EVENT_HANDLER(EVENT_RESUME,0,0);
  3699  0026BC  6A38               	clrf	USER_USB_CALLBACK_EVENT_HANDLER@event+1,c
  3700  0026BE  0E74               	movlw	116
  3701  0026C0  6E37               	movwf	USER_USB_CALLBACK_EVENT_HANDLER@event,c
  3702  0026C2  6A39               	clrf	USER_USB_CALLBACK_EVENT_HANDLER@pdata,c
  3703  0026C4  6A3A               	clrf	USER_USB_CALLBACK_EVENT_HANDLER@pdata+1,c
  3704  0026C6  6A3C               	clrf	USER_USB_CALLBACK_EVENT_HANDLER@size+1,c
  3705  0026C8  6A3B               	clrf	USER_USB_CALLBACK_EVENT_HANDLER@size,c
  3706  0026CA  EC22  F012         	call	_USER_USB_CALLBACK_EVENT_HANDLER	;wreg free
  3707                           
  3708                           ;usb_device.c: 2317: UCONbits.SUSPND = 0;
  3709  0026CE  9265               	bcf	3941,1,c	;volatile
  3710                           
  3711                           ;usb_device.c: 2322: UIEbits.ACTVIE = 0;
  3712  0026D0  010F               	movlb	15	; () banked
  3713  0026D2  9536               	bcf	54,2,b	;volatile
  3714                           
  3715                           ;usb_device.c: 2340: while(UIRbits.ACTVIF)
  3716  0026D4  D001               	goto	i2l3616
  3717  0026D6                     i2l3614:
  3718                           
  3719                           ; BSR set to: 15
  3720                           ;usb_device.c: 2342: {
  3721                           ;usb_device.c: 2343: (UIR &= 0xFB);
  3722  0026D6  9462               	bcf	3938,2,c	;volatile
  3723  0026D8                     i2l3616:
  3724                           
  3725                           ; BSR set to: 15
  3726  0026D8  A462               	btfss	3938,2,c	;volatile
  3727                           
  3728                           ; BSR set to: 15
  3729  0026DA  0012               	return		;funcret
  3730  0026DC  D7FC               	goto	i2l3614
  3731  0026DE                     __end_of_USBWakeFromSuspend:
  3732                           	opt stack 0
  3733                           tblptru	equ	0xFF8
  3734                           tblptrh	equ	0xFF7
  3735                           tblptrl	equ	0xFF6
  3736                           tablat	equ	0xFF5
  3737                           prodh	equ	0xFF4
  3738                           prodl	equ	0xFF3
  3739                           intcon	equ	0xFF2
  3740                           postinc0	equ	0xFEE
  3741                           wreg	equ	0xFE8
  3742                           indf1	equ	0xFE7
  3743                           postdec1	equ	0xFE5
  3744                           fsr1h	equ	0xFE2
  3745                           fsr1l	equ	0xFE1
  3746                           indf2	equ	0xFDF
  3747                           postinc2	equ	0xFDE
  3748                           postdec2	equ	0xFDD
  3749                           plusw2	equ	0xFDB
  3750                           fsr2h	equ	0xFDA
  3751                           fsr2l	equ	0xFD9
  3752                           status	equ	0xFD8
  3753                           
  3754 ;; *************** function _USBSuspend *****************
  3755 ;; Defined at:
  3756 ;;		line 2245 in file "../../../../../../framework/usb/src/usb_device.c"
  3757 ;; Parameters:    Size  Location     Type
  3758 ;;		None
  3759 ;; Auto vars:     Size  Location     Type
  3760 ;;		None
  3761 ;; Return value:  Size  Location     Type
  3762 ;;		None               void
  3763 ;; Registers used:
  3764 ;;		wreg, fsr2l, fsr2h, status,2, status,0, prodl, prodh, cstack
  3765 ;; Tracked objects:
  3766 ;;		On entry : F/F
  3767 ;;		On exit  : 0/0
  3768 ;;		Unchanged: 0/0
  3769 ;; Data sizes:     COMRAM   BANK0   BANK1   BANK2   BANK3   BANK4   BANK5   BANK6   BANK7   BANK8   BANK9  BANK10  BANK1
      +1  BANK12  BANK13  BANK14
  3770 ;;      Params:         0       0       0       0       0       0       0       0       0       0       0       0       
      +0       0       0       0
  3771 ;;      Locals:         0       0       0       0       0       0       0       0       0       0       0       0       
      +0       0       0       0
  3772 ;;      Temps:          0       0       0       0       0       0       0       0       0       0       0       0       
      +0       0       0       0
  3773 ;;      Totals:         0       0       0       0       0       0       0       0       0       0       0       0       
      +0       0       0       0
  3774 ;;Total ram usage:        0 bytes
  3775 ;; Hardware stack levels used:    1
  3776 ;; Hardware stack levels required when called:    5
  3777 ;; This function calls:
  3778 ;;		_USER_USB_CALLBACK_EVENT_HANDLER
  3779 ;; This function is called by:
  3780 ;;		_USBDeviceTasks
  3781 ;; This function uses a non-reentrant model
  3782 ;;
  3783                           
  3784                           	psect	text18
  3785  00271A                     __ptext18:
  3786                           	opt stack 0
  3787  00271A                     _USBSuspend:
  3788                           	opt stack 20
  3789                           
  3790                           ; BSR set to: 15
  3791                           ;usb_device.c: 2270: UIEbits.ACTVIE = 1;
  3792                           
  3793                           ; BSR set to: 15
  3794                           ;incstack = 0
  3795  00271A  8536               	bsf	54,2,b	;volatile
  3796                           
  3797                           ; BSR set to: 15
  3798                           ;usb_device.c: 2271: (UIR &= 0xEF);
  3799  00271C  9862               	bcf	3938,4,c	;volatile
  3800                           
  3801                           ; BSR set to: 15
  3802                           ;usb_device.c: 2274: UCONbits.SUSPND = 1;
  3803  00271E  8265               	bsf	3941,1,c	;volatile
  3804                           
  3805                           ; BSR set to: 15
  3806                           ;usb_device.c: 2277: USBBusIsSuspended = 1;
  3807  002720  0E01               	movlw	1
  3808  002722  0100               	movlb	0	; () banked
  3809  002724  6F78               	movwf	_USBBusIsSuspended& (0+255),b	;volatile
  3810                           
  3811                           ; BSR set to: 0
  3812                           ;usb_device.c: 2284: USER_USB_CALLBACK_EVENT_HANDLER(EVENT_SUSPEND,0,0);
  3813  002726  6A38               	clrf	USER_USB_CALLBACK_EVENT_HANDLER@event+1,c
  3814  002728  0E75               	movlw	117
  3815  00272A  6E37               	movwf	USER_USB_CALLBACK_EVENT_HANDLER@event,c
  3816  00272C  6A39               	clrf	USER_USB_CALLBACK_EVENT_HANDLER@pdata,c
  3817  00272E  6A3A               	clrf	USER_USB_CALLBACK_EVENT_HANDLER@pdata+1,c
  3818  002730  6A3C               	clrf	USER_USB_CALLBACK_EVENT_HANDLER@size+1,c
  3819  002732  6A3B               	clrf	USER_USB_CALLBACK_EVENT_HANDLER@size,c
  3820  002734  EF22  F012         	goto	i2l2922	;wreg free
  3821  002738                     __end_of_USBSuspend:
  3822                           	opt stack 0
  3823                           tblptru	equ	0xFF8
  3824                           tblptrh	equ	0xFF7
  3825                           tblptrl	equ	0xFF6
  3826                           tablat	equ	0xFF5
  3827                           prodh	equ	0xFF4
  3828                           prodl	equ	0xFF3
  3829                           intcon	equ	0xFF2
  3830                           postinc0	equ	0xFEE
  3831                           wreg	equ	0xFE8
  3832                           indf1	equ	0xFE7
  3833                           postdec1	equ	0xFE5
  3834                           fsr1h	equ	0xFE2
  3835                           fsr1l	equ	0xFE1
  3836                           indf2	equ	0xFDF
  3837                           postinc2	equ	0xFDE
  3838                           postdec2	equ	0xFDD
  3839                           plusw2	equ	0xFDB
  3840                           fsr2h	equ	0xFDA
  3841                           fsr2l	equ	0xFD9
  3842                           status	equ	0xFD8
  3843                           
  3844 ;; *************** function _USBStallHandler *****************
  3845 ;; Defined at:
  3846 ;;		line 2202 in file "../../../../../../framework/usb/src/usb_device.c"
  3847 ;; Parameters:    Size  Location     Type
  3848 ;;		None
  3849 ;; Auto vars:     Size  Location     Type
  3850 ;;		None
  3851 ;; Return value:  Size  Location     Type
  3852 ;;		None               void
  3853 ;; Registers used:
  3854 ;;		wreg, fsr2l, fsr2h, status,2, status,0
  3855 ;; Tracked objects:
  3856 ;;		On entry : F/F
  3857 ;;		On exit  : F/F
  3858 ;;		Unchanged: 0/0
  3859 ;; Data sizes:     COMRAM   BANK0   BANK1   BANK2   BANK3   BANK4   BANK5   BANK6   BANK7   BANK8   BANK9  BANK10  BANK1
      +1  BANK12  BANK13  BANK14
  3860 ;;      Params:         0       0       0       0       0       0       0       0       0       0       0       0       
      +0       0       0       0
  3861 ;;      Locals:         0       0       0       0       0       0       0       0       0       0       0       0       
      +0       0       0       0
  3862 ;;      Temps:          1       0       0       0       0       0       0       0       0       0       0       0       
      +0       0       0       0
  3863 ;;      Totals:         1       0       0       0       0       0       0       0       0       0       0       0       
      +0       0       0       0
  3864 ;;Total ram usage:        1 bytes
  3865 ;; Hardware stack levels used:    1
  3866 ;; This function calls:
  3867 ;;		Nothing
  3868 ;; This function is called by:
  3869 ;;		_USBDeviceTasks
  3870 ;; This function uses a non-reentrant model
  3871 ;;
  3872                           
  3873                           	psect	text19
  3874  002588                     __ptext19:
  3875                           	opt stack 0
  3876  002588                     _USBStallHandler:
  3877                           	opt stack 25
  3878                           
  3879                           ; BSR set to: 15
  3880                           ;usb_device.c: 2214: if(UEP0bits.EPSTALL == 1)
  3881                           
  3882                           ;incstack = 0
  3883  002588  A126               	btfss	38,0,b	;volatile
  3884  00258A  D01B               	goto	i2l557
  3885                           
  3886                           ; BSR set to: 15
  3887                           ;usb_device.c: 2215: {
  3888                           ;usb_device.c: 2217: if((pBDTEntryEP0OutCurrent->STAT.Val == 0x80) && (pBDTEntryIn[0]->S
      +                          TAT.Val == (0x80|0x04)))
  3889  00258C  C018  FFD9         	movff	_pBDTEntryEP0OutCurrent,fsr2l
  3890  002590  C019  FFDA         	movff	_pBDTEntryEP0OutCurrent+1,fsr2h
  3891  002594  0E80               	movlw	128
  3892  002596  18DE               	xorwf	postinc2,w,c
  3893  002598  E113               	bnz	i2l3638
  3894                           
  3895                           ; BSR set to: 15
  3896  00259A  C010  FFD9         	movff	_pBDTEntryIn,fsr2l
  3897  00259E  C011  FFDA         	movff	_pBDTEntryIn+1,fsr2h
  3898  0025A2  0E84               	movlw	132
  3899  0025A4  18DE               	xorwf	postinc2,w,c
  3900  0025A6  E10C               	bnz	i2l3638
  3901                           
  3902                           ; BSR set to: 15
  3903                           ;usb_device.c: 2218: {
  3904                           ;usb_device.c: 2220: pBDTEntryEP0OutCurrent->STAT.Val = 0x00|(0x08 & 0x08)|0x04;
  3905  0025A8  C018  FFD9         	movff	_pBDTEntryEP0OutCurrent,fsr2l
  3906  0025AC  C019  FFDA         	movff	_pBDTEntryEP0OutCurrent+1,fsr2h
  3907  0025B0  0E0C               	movlw	12
  3908  0025B2  6EDF               	movwf	indf2,c
  3909                           
  3910                           ; BSR set to: 15
  3911                           ;usb_device.c: 2221: pBDTEntryEP0OutCurrent->STAT.Val |= 0x80;
  3912  0025B4  C018  FFD9         	movff	_pBDTEntryEP0OutCurrent,fsr2l
  3913  0025B8  C019  FFDA         	movff	_pBDTEntryEP0OutCurrent+1,fsr2h
  3914  0025BC  0E00               	movlw	0
  3915  0025BE  8EDB               	bsf	plusw2,7,c
  3916  0025C0                     i2l3638:
  3917                           
  3918                           ; BSR set to: 15
  3919                           ;usb_device.c: 2222: }
  3920                           ;usb_device.c: 2223: UEP0bits.EPSTALL = 0;
  3921  0025C0  9126               	bcf	38,0,b	;volatile
  3922  0025C2                     i2l557:
  3923                           
  3924                           ; BSR set to: 15
  3925                           ;usb_device.c: 2224: }
  3926                           ;usb_device.c: 2226: (UIR &= 0xDF);
  3927  0025C2  9A62               	bcf	3938,5,c	;volatile
  3928                           
  3929                           ; BSR set to: 15
  3930  0025C4  0012               	return		;funcret
  3931  0025C6                     __end_of_USBStallHandler:
  3932                           	opt stack 0
  3933                           tblptru	equ	0xFF8
  3934                           tblptrh	equ	0xFF7
  3935                           tblptrl	equ	0xFF6
  3936                           tablat	equ	0xFF5
  3937                           prodh	equ	0xFF4
  3938                           prodl	equ	0xFF3
  3939                           intcon	equ	0xFF2
  3940                           postinc0	equ	0xFEE
  3941                           wreg	equ	0xFE8
  3942                           indf1	equ	0xFE7
  3943                           postdec1	equ	0xFE5
  3944                           fsr1h	equ	0xFE2
  3945                           fsr1l	equ	0xFE1
  3946                           indf2	equ	0xFDF
  3947                           postinc2	equ	0xFDE
  3948                           postdec2	equ	0xFDD
  3949                           plusw2	equ	0xFDB
  3950                           fsr2h	equ	0xFDA
  3951                           fsr2l	equ	0xFD9
  3952                           status	equ	0xFD8
  3953                           
  3954 ;; *************** function _USBCtrlEPService *****************
  3955 ;; Defined at:
  3956 ;;		line 2369 in file "../../../../../../framework/usb/src/usb_device.c"
  3957 ;; Parameters:    Size  Location     Type
  3958 ;;		None
  3959 ;; Auto vars:     Size  Location     Type
  3960 ;;  setup_cnt       1   30[COMRAM] unsigned char 
  3961 ;; Return value:  Size  Location     Type
  3962 ;;		None               void
  3963 ;; Registers used:
  3964 ;;		wreg, fsr1l, fsr1h, fsr2l, fsr2h, status,2, status,0, tblptrl, tblptrh, tblptru, prodl, prodh, cstack
  3965 ;; Tracked objects:
  3966 ;;		On entry : F/0
  3967 ;;		On exit  : 0/0
  3968 ;;		Unchanged: 0/0
  3969 ;; Data sizes:     COMRAM   BANK0   BANK1   BANK2   BANK3   BANK4   BANK5   BANK6   BANK7   BANK8   BANK9  BANK10  BANK1
      +1  BANK12  BANK13  BANK14
  3970 ;;      Params:         0       0       0       0       0       0       0       0       0       0       0       0       
      +0       0       0       0
  3971 ;;      Locals:         1       0       0       0       0       0       0       0       0       0       0       0       
      +0       0       0       0
  3972 ;;      Temps:          2       0       0       0       0       0       0       0       0       0       0       0       
      +0       0       0       0
  3973 ;;      Totals:         3       0       0       0       0       0       0       0       0       0       0       0       
      +0       0       0       0
  3974 ;;Total ram usage:        3 bytes
  3975 ;; Hardware stack levels used:    1
  3976 ;; Hardware stack levels required when called:    8
  3977 ;; This function calls:
  3978 ;;		_USBCtrlTrfInHandler
  3979 ;;		_USBCtrlTrfOutHandler
  3980 ;;		_USBCtrlTrfSetupHandler
  3981 ;; This function is called by:
  3982 ;;		_USBDeviceTasks
  3983 ;; This function uses a non-reentrant model
  3984 ;;
  3985                           
  3986                           	psect	text20
  3987  001CA8                     __ptext20:
  3988                           	opt stack 0
  3989  001CA8                     _USBCtrlEPService:
  3990                           	opt stack 17
  3991                           
  3992                           ; BSR set to: 0
  3993                           ;usb_device.c: 2375: USBStatusStageTimeoutCounter = (uint8_t)45;
  3994                           
  3995                           ; BSR set to: 15
  3996                           ;incstack = 0
  3997  001CA8  0E2D               	movlw	45
  3998  001CAA  6E24               	movwf	_USBStatusStageTimeoutCounter,c	;volatile
  3999                           
  4000                           ; BSR set to: 0
  4001                           ;usb_device.c: 2379: if((USTATcopy.Val & ~0x02) == 0x00)
  4002  001CAC  C02A  F047         	movff	_USTATcopy,??_USBCtrlEPService	;volatile
  4003  001CB0  0EFD               	movlw	253
  4004  001CB2  1647               	andwf	??_USBCtrlEPService,f,c
  4005  001CB4  E14B               	bnz	i2l3672
  4006                           
  4007                           ; BSR set to: 0
  4008                           ;usb_device.c: 2380: {
  4009                           ;usb_device.c: 2383: pBDTEntryEP0OutCurrent = (volatile BDT_ENTRY*)&BDT[(USTATcopy.Val &
      +                           0x7E)>>1];
  4010  001CB6  90D8               	bcf	status,0,c
  4011  001CB8  302A               	rrcf	_USTATcopy,w,c	;volatile
  4012  001CBA  0B3F               	andlw	63
  4013  001CBC  0D04               	mullw	4
  4014  001CBE  0E00               	movlw	0
  4015  001CC0  24F3               	addwf	prodl,w,c
  4016  001CC2  6E18               	movwf	_pBDTEntryEP0OutCurrent,c
  4017  001CC4  0E0D               	movlw	13
  4018  001CC6  20F4               	addwfc	prodh,w,c
  4019  001CC8  6E19               	movwf	_pBDTEntryEP0OutCurrent+1,c
  4020                           
  4021                           ; BSR set to: 0
  4022                           ;usb_device.c: 2391: pBDTEntryEP0OutNext = pBDTEntryEP0OutCurrent;
  4023  001CCA  C018  F01A         	movff	_pBDTEntryEP0OutCurrent,_pBDTEntryEP0OutNext
  4024  001CCE  C019  F01B         	movff	_pBDTEntryEP0OutCurrent+1,_pBDTEntryEP0OutNext+1
  4025                           
  4026                           ; BSR set to: 0
  4027                           ;usb_device.c: 2393: ((uint8_t_VAL*)&pBDTEntryEP0OutNext)->Val ^= 0x0004;
  4028  001CD2  0E04               	movlw	4
  4029  001CD4  1A1A               	xorwf	_pBDTEntryEP0OutNext,f,c
  4030                           
  4031                           ; BSR set to: 0
  4032                           ;usb_device.c: 2396: if(pBDTEntryEP0OutCurrent->STAT.PID == 0xD)
  4033  001CD6  C018  FFD9         	movff	_pBDTEntryEP0OutCurrent,fsr2l
  4034  001CDA  C019  FFDA         	movff	_pBDTEntryEP0OutCurrent+1,fsr2h
  4035  001CDE  30DF               	rrcf	indf2,w,c
  4036  001CE0  32E8               	rrcf	wreg,f,c
  4037  001CE2  0B0F               	andlw	15
  4038  001CE4  0A0D               	xorlw	13
  4039  001CE6  E002 EF4D  F012    	bnz	_USBCtrlTrfOutHandler
  4040                           
  4041                           ; BSR set to: 0
  4042                           ;usb_device.c: 2397: {
  4043                           ;usb_device.c: 2398: unsigned char setup_cnt;
  4044                           ;usb_device.c: 2404: for(setup_cnt = 0; setup_cnt < 8u; setup_cnt++)
  4045  001CEC  6A49               	clrf	USBCtrlEPService@setup_cnt,c
  4046  001CEE                     i2l3658:
  4047                           
  4048                           ; BSR set to: 0
  4049                           ;usb_device.c: 2405: {
  4050                           ;usb_device.c: 2406: *(uint8_t*)((uint8_t*)&SetupPkt + setup_cnt) = *(uint8_t*)((void *)
      +                          (pBDTEntryEP0OutCurrent->ADR));
  4051  001CEE  EE20 F002          	lfsr	2,2
  4052  001CF2  5018               	movf	_pBDTEntryEP0OutCurrent,w,c
  4053  001CF4  26D9               	addwf	fsr2l,f,c
  4054  001CF6  5019               	movf	_pBDTEntryEP0OutCurrent+1,w,c
  4055  001CF8  22DA               	addwfc	fsr2h,f,c
  4056  001CFA  CFDE F047          	movff	postinc2,??_USBCtrlEPService
  4057  001CFE  CFDD F048          	movff	postdec2,??_USBCtrlEPService+1
  4058  001D02  C047  FFD9         	movff	??_USBCtrlEPService,fsr2l
  4059  001D06  C048  FFDA         	movff	??_USBCtrlEPService+1,fsr2h
  4060  001D0A  0E30               	movlw	48
  4061  001D0C  2449               	addwf	USBCtrlEPService@setup_cnt,w,c
  4062  001D0E  6EE1               	movwf	fsr1l,c
  4063  001D10  6AE2               	clrf	fsr1h,c
  4064  001D12  0E0D               	movlw	13
  4065  001D14  22E2               	addwfc	fsr1h,f,c
  4066  001D16  CFDF FFE7          	movff	indf2,indf1
  4067                           
  4068                           ; BSR set to: 0
  4069                           ;usb_device.c: 2407: pBDTEntryEP0OutCurrent->ADR++;
  4070  001D1A  EE20 F002          	lfsr	2,2
  4071  001D1E  5018               	movf	_pBDTEntryEP0OutCurrent,w,c
  4072  001D20  26D9               	addwf	fsr2l,f,c
  4073  001D22  5019               	movf	_pBDTEntryEP0OutCurrent+1,w,c
  4074  001D24  22DA               	addwfc	fsr2h,f,c
  4075  001D26  2ADE               	incf	postinc2,f,c
  4076  001D28  0E00               	movlw	0
  4077  001D2A  22DD               	addwfc	postdec2,f,c
  4078                           
  4079                           ; BSR set to: 0
  4080  001D2C  2A49               	incf	USBCtrlEPService@setup_cnt,f,c
  4081                           
  4082                           ; BSR set to: 0
  4083  001D2E  0E07               	movlw	7
  4084  001D30  6449               	cpfsgt	USBCtrlEPService@setup_cnt,c
  4085  001D32  D7DD               	goto	i2l3658
  4086                           
  4087                           ; BSR set to: 0
  4088                           ;usb_device.c: 2408: }
  4089                           ;usb_device.c: 2409: pBDTEntryEP0OutCurrent->ADR = ((uint16_t)(&SetupPkt));
  4090  001D34  EE20 F002          	lfsr	2,2
  4091  001D38  5018               	movf	_pBDTEntryEP0OutCurrent,w,c
  4092  001D3A  26D9               	addwf	fsr2l,f,c
  4093  001D3C  5019               	movf	_pBDTEntryEP0OutCurrent+1,w,c
  4094  001D3E  22DA               	addwfc	fsr2h,f,c
  4095  001D40  0E30               	movlw	48
  4096  001D42  6EDE               	movwf	postinc2,c
  4097  001D44  0E0D               	movlw	13
  4098  001D46  6EDD               	movwf	postdec2,c
  4099                           
  4100                           ; BSR set to: 0
  4101                           ;usb_device.c: 2412: USBCtrlTrfSetupHandler();
  4102  001D48  EFC7  F011         	goto	_USBCtrlTrfSetupHandler	;wreg free
  4103  001D4C                     i2l3672:
  4104                           
  4105                           ; BSR set to: 0
  4106                           ;usb_device.c: 2420: else if((USTATcopy.Val & ~0x02) == 0x04)
  4107  001D4C  502A               	movf	_USTATcopy,w,c	;volatile
  4108  001D4E  0BFD               	andlw	253
  4109  001D50  0A04               	xorlw	4
  4110  001D52  B4D8               	btfsc	status,2,c
  4111                           
  4112                           ; BSR set to: 0
  4113                           ;usb_device.c: 2421: {
  4114                           ;usb_device.c: 2424: USBCtrlTrfInHandler();
  4115  001D54  ECAD  F00E         	call	_USBCtrlTrfInHandler	;wreg free
  4116  001D58  0012               	return		;funcret
  4117  001D5A                     __end_of_USBCtrlEPService:
  4118                           	opt stack 0
  4119                           tblptru	equ	0xFF8
  4120                           tblptrh	equ	0xFF7
  4121                           tblptrl	equ	0xFF6
  4122                           tablat	equ	0xFF5
  4123                           prodh	equ	0xFF4
  4124                           prodl	equ	0xFF3
  4125                           intcon	equ	0xFF2
  4126                           postinc0	equ	0xFEE
  4127                           wreg	equ	0xFE8
  4128                           indf1	equ	0xFE7
  4129                           postdec1	equ	0xFE5
  4130                           fsr1h	equ	0xFE2
  4131                           fsr1l	equ	0xFE1
  4132                           indf2	equ	0xFDF
  4133                           postinc2	equ	0xFDE
  4134                           postdec2	equ	0xFDD
  4135                           plusw2	equ	0xFDB
  4136                           fsr2h	equ	0xFDA
  4137                           fsr2l	equ	0xFD9
  4138                           status	equ	0xFD8
  4139                           
  4140 ;; *************** function _USBCtrlTrfSetupHandler *****************
  4141 ;; Defined at:
  4142 ;;		line 2469 in file "../../../../../../framework/usb/src/usb_device.c"
  4143 ;; Parameters:    Size  Location     Type
  4144 ;;		None
  4145 ;; Auto vars:     Size  Location     Type
  4146 ;;		None
  4147 ;; Return value:  Size  Location     Type
  4148 ;;		None               void
  4149 ;; Registers used:
  4150 ;;		wreg, fsr1l, fsr1h, fsr2l, fsr2h, status,2, status,0, tblptrl, tblptrh, tblptru, prodl, prodh, cstack
  4151 ;; Tracked objects:
  4152 ;;		On entry : F/0
  4153 ;;		On exit  : 0/0
  4154 ;;		Unchanged: 0/0
  4155 ;; Data sizes:     COMRAM   BANK0   BANK1   BANK2   BANK3   BANK4   BANK5   BANK6   BANK7   BANK8   BANK9  BANK10  BANK1
      +1  BANK12  BANK13  BANK14
  4156 ;;      Params:         0       0       0       0       0       0       0       0       0       0       0       0       
      +0       0       0       0
  4157 ;;      Locals:         0       0       0       0       0       0       0       0       0       0       0       0       
      +0       0       0       0
  4158 ;;      Temps:          0       0       0       0       0       0       0       0       0       0       0       0       
      +0       0       0       0
  4159 ;;      Totals:         0       0       0       0       0       0       0       0       0       0       0       0       
      +0       0       0       0
  4160 ;;Total ram usage:        0 bytes
  4161 ;; Hardware stack levels used:    1
  4162 ;; Hardware stack levels required when called:    7
  4163 ;; This function calls:
  4164 ;;		_USBCheckStdRequest
  4165 ;;		_USBCtrlEPServiceComplete
  4166 ;;		_USER_USB_CALLBACK_EVENT_HANDLER
  4167 ;; This function is called by:
  4168 ;;		_USBCtrlEPService
  4169 ;; This function uses a non-reentrant model
  4170 ;;
  4171                           
  4172                           	psect	text21
  4173  00238E                     __ptext21:
  4174                           	opt stack 0
  4175  00238E                     _USBCtrlTrfSetupHandler:
  4176                           	opt stack 17
  4177                           
  4178                           ; BSR set to: 0
  4179                           ;usb_device.c: 2474: shortPacketStatus = 0;
  4180                           
  4181                           ;incstack = 0
  4182  00238E  6A28               	clrf	_shortPacketStatus,c	;volatile
  4183                           
  4184                           ;usb_device.c: 2475: USBDeferStatusStagePacket = 0;
  4185  002390  6A20               	clrf	_USBDeferStatusStagePacket,c	;volatile
  4186                           
  4187                           ;usb_device.c: 2476: USBDeferINDataStagePackets = 0;
  4188  002392  6A1E               	clrf	_USBDeferINDataStagePackets,c	;volatile
  4189                           
  4190                           ;usb_device.c: 2477: USBDeferOUTDataStagePackets = 0;
  4191  002394  6A1F               	clrf	_USBDeferOUTDataStagePackets,c	;volatile
  4192                           
  4193                           ;usb_device.c: 2478: BothEP0OutUOWNsSet = 0;
  4194  002396  6A1C               	clrf	_BothEP0OutUOWNsSet,c	;volatile
  4195                           
  4196                           ;usb_device.c: 2479: controlTransferState = 0;
  4197  002398  6A26               	clrf	_controlTransferState,c	;volatile
  4198                           
  4199                           ; BSR set to: 0
  4200                           ;usb_device.c: 2488: pBDTEntryIn[0]->STAT.Val &= ~(0x80);
  4201  00239A  C010  FFD9         	movff	_pBDTEntryIn,fsr2l
  4202  00239E  C011  FFDA         	movff	_pBDTEntryIn+1,fsr2h
  4203  0023A2  0E7F               	movlw	127
  4204  0023A4  16DF               	andwf	indf2,f,c
  4205                           
  4206                           ; BSR set to: 0
  4207                           ;usb_device.c: 2489: ((uint8_t_VAL*)&pBDTEntryIn[0])->Val ^= 0x0004;
  4208  0023A6  0E04               	movlw	4
  4209  0023A8  1A10               	xorwf	_pBDTEntryIn,f,c
  4210                           
  4211                           ; BSR set to: 0
  4212                           ;usb_device.c: 2490: pBDTEntryIn[0]->STAT.Val &= ~(0x80);
  4213  0023AA  C010  FFD9         	movff	_pBDTEntryIn,fsr2l
  4214  0023AE  C011  FFDA         	movff	_pBDTEntryIn+1,fsr2h
  4215  0023B2  0E7F               	movlw	127
  4216  0023B4  16DF               	andwf	indf2,f,c
  4217                           
  4218                           ;usb_device.c: 2491: ((uint8_t_VAL*)&pBDTEntryIn[0])->Val ^= 0x0004;
  4219  0023B6  0E04               	movlw	4
  4220  0023B8  1A10               	xorwf	_pBDTEntryIn,f,c
  4221                           
  4222                           ; BSR set to: 0
  4223                           ;usb_device.c: 2492: pBDTEntryEP0OutNext->STAT.Val &= ~(0x80);
  4224  0023BA  C01A  FFD9         	movff	_pBDTEntryEP0OutNext,fsr2l
  4225  0023BE  C01B  FFDA         	movff	_pBDTEntryEP0OutNext+1,fsr2h
  4226  0023C2  0E7F               	movlw	127
  4227  0023C4  16DF               	andwf	indf2,f,c
  4228                           
  4229                           ; BSR set to: 0
  4230                           ;usb_device.c: 2494: inPipes[0].info.Val = 0;
  4231  0023C6  6A0D               	clrf	_inPipes+3,c	;volatile
  4232                           
  4233                           ; BSR set to: 0
  4234                           ;usb_device.c: 2495: inPipes[0].wCount.Val = 0;
  4235  0023C8  6A0E               	clrf	_inPipes+4,c	;volatile
  4236  0023CA  6A0F               	clrf	_inPipes+5,c	;volatile
  4237                           
  4238                           ; BSR set to: 0
  4239                           ;usb_device.c: 2496: outPipes[0].info.Val = 0;
  4240  0023CC  6A04               	clrf	_outPipes+3,c	;volatile
  4241                           
  4242                           ; BSR set to: 0
  4243                           ;usb_device.c: 2497: outPipes[0].wCount.Val = 0;
  4244  0023CE  6A05               	clrf	_outPipes+4,c	;volatile
  4245  0023D0  6A06               	clrf	_outPipes+5,c	;volatile
  4246                           
  4247                           ; BSR set to: 0
  4248                           ;usb_device.c: 2503: USBCheckStdRequest();
  4249  0023D2  ECF3  F00F         	call	_USBCheckStdRequest	;wreg free
  4250                           
  4251                           ;usb_device.c: 2504: USER_USB_CALLBACK_EVENT_HANDLER(EVENT_EP0_REQUEST,0,0);
  4252  0023D6  6A38               	clrf	USER_USB_CALLBACK_EVENT_HANDLER@event+1,c
  4253  0023D8  0E03               	movlw	3
  4254  0023DA  6E37               	movwf	USER_USB_CALLBACK_EVENT_HANDLER@event,c
  4255  0023DC  6A39               	clrf	USER_USB_CALLBACK_EVENT_HANDLER@pdata,c
  4256  0023DE  6A3A               	clrf	USER_USB_CALLBACK_EVENT_HANDLER@pdata+1,c
  4257  0023E0  6A3C               	clrf	USER_USB_CALLBACK_EVENT_HANDLER@size+1,c
  4258  0023E2  6A3B               	clrf	USER_USB_CALLBACK_EVENT_HANDLER@size,c
  4259  0023E4  EC22  F012         	call	_USER_USB_CALLBACK_EVENT_HANDLER	;wreg free
  4260                           
  4261                           ;usb_device.c: 2517: USBCtrlEPServiceComplete();
  4262  0023E8  EF59  F00C         	goto	_USBCtrlEPServiceComplete	;wreg free
  4263  0023EC                     __end_of_USBCtrlTrfSetupHandler:
  4264                           	opt stack 0
  4265                           tblptru	equ	0xFF8
  4266                           tblptrh	equ	0xFF7
  4267                           tblptrl	equ	0xFF6
  4268                           tablat	equ	0xFF5
  4269                           prodh	equ	0xFF4
  4270                           prodl	equ	0xFF3
  4271                           intcon	equ	0xFF2
  4272                           postinc0	equ	0xFEE
  4273                           wreg	equ	0xFE8
  4274                           indf1	equ	0xFE7
  4275                           postdec1	equ	0xFE5
  4276                           fsr1h	equ	0xFE2
  4277                           fsr1l	equ	0xFE1
  4278                           indf2	equ	0xFDF
  4279                           postinc2	equ	0xFDE
  4280                           postdec2	equ	0xFDD
  4281                           plusw2	equ	0xFDB
  4282                           fsr2h	equ	0xFDA
  4283                           fsr2l	equ	0xFD9
  4284                           status	equ	0xFD8
  4285                           
  4286 ;; *************** function _USBCtrlEPServiceComplete *****************
  4287 ;; Defined at:
  4288 ;;		line 1616 in file "../../../../../../framework/usb/src/usb_device.c"
  4289 ;; Parameters:    Size  Location     Type
  4290 ;;		None
  4291 ;; Auto vars:     Size  Location     Type
  4292 ;;		None
  4293 ;; Return value:  Size  Location     Type
  4294 ;;		None               void
  4295 ;; Registers used:
  4296 ;;		wreg, fsr1l, fsr1h, fsr2l, fsr2h, status,2, status,0, tblptrl, tblptrh, tblptru, cstack
  4297 ;; Tracked objects:
  4298 ;;		On entry : 0/0
  4299 ;;		On exit  : 0/0
  4300 ;;		Unchanged: 0/0
  4301 ;; Data sizes:     COMRAM   BANK0   BANK1   BANK2   BANK3   BANK4   BANK5   BANK6   BANK7   BANK8   BANK9  BANK10  BANK1
      +1  BANK12  BANK13  BANK14
  4302 ;;      Params:         0       0       0       0       0       0       0       0       0       0       0       0       
      +0       0       0       0
  4303 ;;      Locals:         0       0       0       0       0       0       0       0       0       0       0       0       
      +0       0       0       0
  4304 ;;      Temps:          0       0       0       0       0       0       0       0       0       0       0       0       
      +0       0       0       0
  4305 ;;      Totals:         0       0       0       0       0       0       0       0       0       0       0       0       
      +0       0       0       0
  4306 ;;Total ram usage:        0 bytes
  4307 ;; Hardware stack levels used:    1
  4308 ;; Hardware stack levels required when called:    2
  4309 ;; This function calls:
  4310 ;;		_USBCtrlEPAllowDataStage
  4311 ;;		_USBCtrlEPAllowStatusStage
  4312 ;; This function is called by:
  4313 ;;		_USBCtrlTrfSetupHandler
  4314 ;; This function uses a non-reentrant model
  4315 ;;
  4316                           
  4317                           	psect	text22
  4318  0018B2                     __ptext22:
  4319                           	opt stack 0
  4320  0018B2                     _USBCtrlEPServiceComplete:
  4321                           	opt stack 21
  4322                           
  4323                           ;usb_device.c: 1622: UCONbits.PKTDIS = 0;
  4324                           
  4325                           ;incstack = 0
  4326  0018B2  9865               	bcf	3941,4,c	;volatile
  4327                           
  4328                           ;usb_device.c: 1628: if(inPipes[0].info.bits.busy == 0)
  4329  0018B4  BE0D               	btfsc	_inPipes+3,7,c	;volatile
  4330  0018B6  D036               	goto	i2l481
  4331                           
  4332                           ;usb_device.c: 1629: {
  4333                           ;usb_device.c: 1630: if(outPipes[0].info.bits.busy == 1)
  4334  0018B8  AE04               	btfss	_outPipes+3,7,c	;volatile
  4335  0018BA  D009               	goto	i2l3226
  4336                           
  4337                           ;usb_device.c: 1631: {
  4338                           ;usb_device.c: 1632: controlTransferState = 2;
  4339  0018BC  0E02               	movlw	2
  4340  0018BE  6E26               	movwf	_controlTransferState,c	;volatile
  4341                           
  4342                           ;usb_device.c: 1643: if(USBDeferOUTDataStagePackets == 0)
  4343  0018C0  501F               	movf	_USBDeferOUTDataStagePackets,w,c	;volatile
  4344  0018C2  E102               	bnz	i2l3222
  4345                           
  4346                           ;usb_device.c: 1644: {
  4347                           ;usb_device.c: 1645: USBCtrlEPAllowDataStage();
  4348  0018C4  EC41  F010         	call	_USBCtrlEPAllowDataStage	;wreg free
  4349  0018C8                     i2l3222:
  4350                           
  4351                           ;usb_device.c: 1646: }
  4352                           ;usb_device.c: 1650: USBStatusStageEnabledFlag2 = 0;
  4353  0018C8  6A23               	clrf	_USBStatusStageEnabledFlag2,c	;volatile
  4354                           
  4355                           ;usb_device.c: 1651: USBStatusStageEnabledFlag1 = 0;
  4356  0018CA  6A22               	clrf	_USBStatusStageEnabledFlag1,c	;volatile
  4357                           
  4358                           ;usb_device.c: 1652: }
  4359  0018CC  0012               	return	
  4360  0018CE                     i2l3226:
  4361                           
  4362                           ;usb_device.c: 1653: else
  4363                           ;usb_device.c: 1654: {
  4364                           ;usb_device.c: 1659: pBDTEntryEP0OutNext->CNT = 8;
  4365  0018CE  EE20 F001          	lfsr	2,1
  4366  0018D2  501A               	movf	_pBDTEntryEP0OutNext,w,c
  4367  0018D4  26D9               	addwf	fsr2l,f,c
  4368  0018D6  501B               	movf	_pBDTEntryEP0OutNext+1,w,c
  4369  0018D8  22DA               	addwfc	fsr2h,f,c
  4370  0018DA  0E08               	movlw	8
  4371  0018DC  6EDF               	movwf	indf2,c
  4372                           
  4373                           ;usb_device.c: 1660: pBDTEntryEP0OutNext->ADR = ((uint16_t)(&SetupPkt));
  4374  0018DE  EE20 F002          	lfsr	2,2
  4375  0018E2  501A               	movf	_pBDTEntryEP0OutNext,w,c
  4376  0018E4  26D9               	addwf	fsr2l,f,c
  4377  0018E6  501B               	movf	_pBDTEntryEP0OutNext+1,w,c
  4378  0018E8  22DA               	addwfc	fsr2h,f,c
  4379  0018EA  0E30               	movlw	48
  4380  0018EC  6EDE               	movwf	postinc2,c
  4381  0018EE  0E0D               	movlw	13
  4382  0018F0  6EDD               	movwf	postdec2,c
  4383                           
  4384                           ;usb_device.c: 1661: pBDTEntryEP0OutNext->STAT.Val = 0x00|(0x08 & 0x08)|0x04;
  4385  0018F2  C01A  FFD9         	movff	_pBDTEntryEP0OutNext,fsr2l
  4386  0018F6  C01B  FFDA         	movff	_pBDTEntryEP0OutNext+1,fsr2h
  4387  0018FA  0E0C               	movlw	12
  4388  0018FC  6EDF               	movwf	indf2,c
  4389                           
  4390                           ;usb_device.c: 1662: pBDTEntryEP0OutNext->STAT.Val |= 0x80;
  4391  0018FE  C01A  FFD9         	movff	_pBDTEntryEP0OutNext,fsr2l
  4392  001902  C01B  FFDA         	movff	_pBDTEntryEP0OutNext+1,fsr2h
  4393  001906  0E00               	movlw	0
  4394  001908  8EDB               	bsf	plusw2,7,c
  4395                           
  4396                           ;usb_device.c: 1663: pBDTEntryIn[0]->STAT.Val = 0x04;
  4397  00190A  C010  FFD9         	movff	_pBDTEntryIn,fsr2l
  4398  00190E  C011  FFDA         	movff	_pBDTEntryIn+1,fsr2h
  4399  001912  0E04               	movlw	4
  4400  001914  6EDF               	movwf	indf2,c
  4401                           
  4402                           ;usb_device.c: 1664: pBDTEntryIn[0]->STAT.Val |= 0x80;
  4403  001916  C010  FFD9         	movff	_pBDTEntryIn,fsr2l
  4404  00191A  C011  FFDA         	movff	_pBDTEntryIn+1,fsr2h
  4405  00191E  0E00               	movlw	0
  4406  001920  8EDB               	bsf	plusw2,7,c
  4407  001922  0C00               	retlw	0
  4408  001924                     i2l481:
  4409                           
  4410                           ;usb_device.c: 1667: else
  4411                           ;usb_device.c: 1668: {
  4412                           ;usb_device.c: 1669: if(SetupPkt.DataDir == (0x80>>7))
  4413  001924  010D               	movlb	13	; () banked
  4414  001926  AF30               	btfss	48,7,b	;volatile
  4415  001928  D00D               	goto	i2l3246
  4416                           
  4417                           ; BSR set to: 13
  4418                           ;usb_device.c: 1670: {
  4419                           ;usb_device.c: 1671: controlTransferState = 1;
  4420  00192A  0E01               	movlw	1
  4421  00192C  6E26               	movwf	_controlTransferState,c	;volatile
  4422                           
  4423                           ;usb_device.c: 1685: if(USBDeferINDataStagePackets == 0)
  4424  00192E  501E               	movf	_USBDeferINDataStagePackets,w,c	;volatile
  4425  001930  E102               	bnz	i2l3238
  4426                           
  4427                           ; BSR set to: 13
  4428                           ;usb_device.c: 1686: {
  4429                           ;usb_device.c: 1687: USBCtrlEPAllowDataStage();
  4430  001932  EC41  F010         	call	_USBCtrlEPAllowDataStage	;wreg free
  4431  001936                     i2l3238:
  4432                           
  4433                           ;usb_device.c: 1688: }
  4434                           ;usb_device.c: 1710: USBStatusStageEnabledFlag2 = 0;
  4435  001936  6A23               	clrf	_USBStatusStageEnabledFlag2,c	;volatile
  4436                           
  4437                           ;usb_device.c: 1711: USBStatusStageEnabledFlag1 = 0;
  4438  001938  6A22               	clrf	_USBStatusStageEnabledFlag1,c	;volatile
  4439                           
  4440                           ;usb_device.c: 1712: if(USBDeferStatusStagePacket == 0)
  4441  00193A  5020               	movf	_USBDeferStatusStagePacket,w,c	;volatile
  4442  00193C  A4D8               	btfss	status,2,c
  4443  00193E  0012               	return	
  4444                           
  4445                           ;usb_device.c: 1713: {
  4446                           ;usb_device.c: 1714: USBCtrlEPAllowStatusStage();
  4447  001940  EF99  F00D         	goto	_USBCtrlEPAllowStatusStage	;wreg free
  4448  001944                     i2l3246:
  4449                           
  4450                           ; BSR set to: 13
  4451                           ;usb_device.c: 1717: else
  4452                           ;usb_device.c: 1718: {
  4453                           ;usb_device.c: 1729: controlTransferState = 2;
  4454  001944  0E02               	movlw	2
  4455  001946  6E26               	movwf	_controlTransferState,c	;volatile
  4456                           
  4457                           ; BSR set to: 13
  4458                           ;usb_device.c: 1732: pBDTEntryEP0OutNext->CNT = 8;
  4459  001948  EE20 F001          	lfsr	2,1
  4460  00194C  501A               	movf	_pBDTEntryEP0OutNext,w,c
  4461  00194E  26D9               	addwf	fsr2l,f,c
  4462  001950  501B               	movf	_pBDTEntryEP0OutNext+1,w,c
  4463  001952  22DA               	addwfc	fsr2h,f,c
  4464  001954  0E08               	movlw	8
  4465  001956  6EDF               	movwf	indf2,c
  4466                           
  4467                           ; BSR set to: 13
  4468                           ;usb_device.c: 1733: pBDTEntryEP0OutNext->ADR = ((uint16_t)(&SetupPkt));
  4469  001958  EE20 F002          	lfsr	2,2
  4470  00195C  501A               	movf	_pBDTEntryEP0OutNext,w,c
  4471  00195E  26D9               	addwf	fsr2l,f,c
  4472  001960  501B               	movf	_pBDTEntryEP0OutNext+1,w,c
  4473  001962  22DA               	addwfc	fsr2h,f,c
  4474  001964  0E30               	movlw	48
  4475  001966  6EDE               	movwf	postinc2,c
  4476  001968  0E0D               	movlw	13
  4477  00196A  6EDD               	movwf	postdec2,c
  4478                           
  4479                           ; BSR set to: 13
  4480                           ;usb_device.c: 1734: pBDTEntryEP0OutNext->STAT.Val = 0x04;
  4481  00196C  C01A  FFD9         	movff	_pBDTEntryEP0OutNext,fsr2l
  4482  001970  C01B  FFDA         	movff	_pBDTEntryEP0OutNext+1,fsr2h
  4483  001974  0E04               	movlw	4
  4484  001976  6EDF               	movwf	indf2,c
  4485                           
  4486                           ; BSR set to: 13
  4487                           ;usb_device.c: 1735: pBDTEntryEP0OutNext->STAT.Val |= 0x80;
  4488  001978  C01A  FFD9         	movff	_pBDTEntryEP0OutNext,fsr2l
  4489  00197C  C01B  FFDA         	movff	_pBDTEntryEP0OutNext+1,fsr2h
  4490  001980  0E00               	movlw	0
  4491  001982  8EDB               	bsf	plusw2,7,c
  4492                           
  4493                           ; BSR set to: 13
  4494                           ;usb_device.c: 1738: USBStatusStageEnabledFlag2 = 0;
  4495  001984  6A23               	clrf	_USBStatusStageEnabledFlag2,c	;volatile
  4496                           
  4497                           ; BSR set to: 13
  4498                           ;usb_device.c: 1739: USBStatusStageEnabledFlag1 = 0;
  4499  001986  6A22               	clrf	_USBStatusStageEnabledFlag1,c	;volatile
  4500                           
  4501                           ; BSR set to: 13
  4502                           ;usb_device.c: 1740: if(USBDeferStatusStagePacket == 0)
  4503  001988  5020               	movf	_USBDeferStatusStagePacket,w,c	;volatile
  4504  00198A  E102 EF99  F00D    	bz	_USBCtrlEPAllowStatusStage
  4505  001990  0012               	return	
  4506  001992                     __end_of_USBCtrlEPServiceComplete:
  4507                           	opt stack 0
  4508                           tblptru	equ	0xFF8
  4509                           tblptrh	equ	0xFF7
  4510                           tblptrl	equ	0xFF6
  4511                           tablat	equ	0xFF5
  4512                           prodh	equ	0xFF4
  4513                           prodl	equ	0xFF3
  4514                           intcon	equ	0xFF2
  4515                           postinc0	equ	0xFEE
  4516                           wreg	equ	0xFE8
  4517                           indf1	equ	0xFE7
  4518                           postdec1	equ	0xFE5
  4519                           fsr1h	equ	0xFE2
  4520                           fsr1l	equ	0xFE1
  4521                           indf2	equ	0xFDF
  4522                           postinc2	equ	0xFDE
  4523                           postdec2	equ	0xFDD
  4524                           plusw2	equ	0xFDB
  4525                           fsr2h	equ	0xFDA
  4526                           fsr2l	equ	0xFD9
  4527                           status	equ	0xFD8
  4528                           
  4529 ;; *************** function _USBCtrlEPAllowDataStage *****************
  4530 ;; Defined at:
  4531 ;;		line 1488 in file "../../../../../../framework/usb/src/usb_device.c"
  4532 ;; Parameters:    Size  Location     Type
  4533 ;;		None
  4534 ;; Auto vars:     Size  Location     Type
  4535 ;;		None
  4536 ;; Return value:  Size  Location     Type
  4537 ;;		None               void
  4538 ;; Registers used:
  4539 ;;		wreg, fsr1l, fsr1h, fsr2l, fsr2h, status,2, status,0, tblptrl, tblptrh, tblptru, cstack
  4540 ;; Tracked objects:
  4541 ;;		On entry : 0/0
  4542 ;;		On exit  : 0/0
  4543 ;;		Unchanged: 0/0
  4544 ;; Data sizes:     COMRAM   BANK0   BANK1   BANK2   BANK3   BANK4   BANK5   BANK6   BANK7   BANK8   BANK9  BANK10  BANK1
      +1  BANK12  BANK13  BANK14
  4545 ;;      Params:         0       0       0       0       0       0       0       0       0       0       0       0       
      +0       0       0       0
  4546 ;;      Locals:         0       0       0       0       0       0       0       0       0       0       0       0       
      +0       0       0       0
  4547 ;;      Temps:          0       0       0       0       0       0       0       0       0       0       0       0       
      +0       0       0       0
  4548 ;;      Totals:         0       0       0       0       0       0       0       0       0       0       0       0       
      +0       0       0       0
  4549 ;;Total ram usage:        0 bytes
  4550 ;; Hardware stack levels used:    1
  4551 ;; Hardware stack levels required when called:    1
  4552 ;; This function calls:
  4553 ;;		_USBCtrlTrfTxService
  4554 ;; This function is called by:
  4555 ;;		_USBCtrlEPServiceComplete
  4556 ;; This function uses a non-reentrant model
  4557 ;;
  4558                           
  4559                           	psect	text23
  4560  002082                     __ptext23:
  4561                           	opt stack 0
  4562  002082                     _USBCtrlEPAllowDataStage:
  4563                           	opt stack 21
  4564                           
  4565                           ;usb_device.c: 1490: USBDeferINDataStagePackets = 0;
  4566                           
  4567                           ;incstack = 0
  4568  002082  6A1E               	clrf	_USBDeferINDataStagePackets,c	;volatile
  4569                           
  4570                           ;usb_device.c: 1491: USBDeferOUTDataStagePackets = 0;
  4571  002084  6A1F               	clrf	_USBDeferOUTDataStagePackets,c	;volatile
  4572                           
  4573                           ;usb_device.c: 1493: if(controlTransferState == 2)
  4574  002086  0E02               	movlw	2
  4575  002088  1826               	xorwf	_controlTransferState,w,c	;volatile
  4576  00208A  E11F               	bnz	i2l3026
  4577                           
  4578                           ;usb_device.c: 1494: {
  4579                           ;usb_device.c: 1496: pBDTEntryEP0OutNext->CNT = 8;
  4580  00208C  EE20 F001          	lfsr	2,1
  4581  002090  501A               	movf	_pBDTEntryEP0OutNext,w,c
  4582  002092  26D9               	addwf	fsr2l,f,c
  4583  002094  501B               	movf	_pBDTEntryEP0OutNext+1,w,c
  4584  002096  22DA               	addwfc	fsr2h,f,c
  4585  002098  0E08               	movlw	8
  4586  00209A  6EDF               	movwf	indf2,c
  4587                           
  4588                           ;usb_device.c: 1497: pBDTEntryEP0OutNext->ADR = ((uint16_t)(&CtrlTrfData));
  4589  00209C  EE20 F002          	lfsr	2,2
  4590  0020A0  501A               	movf	_pBDTEntryEP0OutNext,w,c
  4591  0020A2  26D9               	addwf	fsr2l,f,c
  4592  0020A4  501B               	movf	_pBDTEntryEP0OutNext+1,w,c
  4593  0020A6  22DA               	addwfc	fsr2h,f,c
  4594  0020A8  0E38               	movlw	56
  4595  0020AA  6EDE               	movwf	postinc2,c
  4596  0020AC  0E0D               	movlw	13
  4597  0020AE  6EDD               	movwf	postdec2,c
  4598                           
  4599                           ;usb_device.c: 1498: pBDTEntryEP0OutNext->STAT.Val = 0x40|(0x08 & 0x08);
  4600  0020B0  C01A  FFD9         	movff	_pBDTEntryEP0OutNext,fsr2l
  4601  0020B4  C01B  FFDA         	movff	_pBDTEntryEP0OutNext+1,fsr2h
  4602  0020B8  0E48               	movlw	72
  4603  0020BA  6EDF               	movwf	indf2,c
  4604                           
  4605                           ;usb_device.c: 1499: pBDTEntryEP0OutNext->STAT.Val |= 0x80;
  4606  0020BC  C01A  FFD9         	movff	_pBDTEntryEP0OutNext,fsr2l
  4607  0020C0  C01B  FFDA         	movff	_pBDTEntryEP0OutNext+1,fsr2h
  4608  0020C4  0E00               	movlw	0
  4609  0020C6  8EDB               	bsf	plusw2,7,c
  4610                           
  4611                           ;usb_device.c: 1500: }
  4612  0020C8  0C00               	retlw	0
  4613  0020CA                     i2l3026:
  4614                           
  4615                           ;usb_device.c: 1501: else
  4616                           ;usb_device.c: 1502: {
  4617                           ;usb_device.c: 1505: if(SetupPkt.wLength < inPipes[0].wCount.Val)
  4618  0020CA  500E               	movf	_inPipes+4,w,c	;volatile
  4619  0020CC  010D               	movlb	13	; () banked
  4620  0020CE  5D36               	subwf	54,w,b	;volatile
  4621  0020D0  500F               	movf	_inPipes+5,w,c	;volatile
  4622  0020D2  5937               	subwfb	55,w,b	;volatile
  4623  0020D4  E204               	bc	i2l3030
  4624                           
  4625                           ; BSR set to: 13
  4626                           ;usb_device.c: 1506: {
  4627                           ;usb_device.c: 1507: inPipes[0].wCount.Val = SetupPkt.wLength;
  4628  0020D6  CD36 F00E          	movff	3382,_inPipes+4	;volatile
  4629  0020DA  CD37 F00F          	movff	3383,_inPipes+5	;volatile
  4630  0020DE                     i2l3030:
  4631                           
  4632                           ; BSR set to: 13
  4633                           ;usb_device.c: 1508: }
  4634                           ;usb_device.c: 1509: USBCtrlTrfTxService();
  4635  0020DE  EC36  F00D         	call	_USBCtrlTrfTxService	;wreg free
  4636                           
  4637                           ; BSR set to: 0
  4638                           ;usb_device.c: 1514: pBDTEntryIn[0]->ADR = ((uint16_t)(&CtrlTrfData));
  4639  0020E2  EE20 F002          	lfsr	2,2
  4640  0020E6  5010               	movf	_pBDTEntryIn,w,c
  4641  0020E8  26D9               	addwf	fsr2l,f,c
  4642  0020EA  5011               	movf	_pBDTEntryIn+1,w,c
  4643  0020EC  22DA               	addwfc	fsr2h,f,c
  4644  0020EE  0E38               	movlw	56
  4645  0020F0  6EDE               	movwf	postinc2,c
  4646  0020F2  0E0D               	movlw	13
  4647  0020F4  6EDD               	movwf	postdec2,c
  4648                           
  4649                           ; BSR set to: 0
  4650                           ;usb_device.c: 1515: pBDTEntryIn[0]->STAT.Val = 0x40|(0x08 & 0x08);
  4651  0020F6  C010  FFD9         	movff	_pBDTEntryIn,fsr2l
  4652  0020FA  C011  FFDA         	movff	_pBDTEntryIn+1,fsr2h
  4653  0020FE  0E48               	movlw	72
  4654  002100  6EDF               	movwf	indf2,c
  4655                           
  4656                           ; BSR set to: 0
  4657                           ;usb_device.c: 1516: pBDTEntryIn[0]->STAT.Val |= 0x80;
  4658  002102  C010  FFD9         	movff	_pBDTEntryIn,fsr2l
  4659  002106  C011  FFDA         	movff	_pBDTEntryIn+1,fsr2h
  4660  00210A  0E00               	movlw	0
  4661  00210C  8EDB               	bsf	plusw2,7,c
  4662  00210E  0C00               	retlw	0	;funcret
  4663  002110                     __end_of_USBCtrlEPAllowDataStage:
  4664                           	opt stack 0
  4665                           tblptru	equ	0xFF8
  4666                           tblptrh	equ	0xFF7
  4667                           tblptrl	equ	0xFF6
  4668                           tablat	equ	0xFF5
  4669                           prodh	equ	0xFF4
  4670                           prodl	equ	0xFF3
  4671                           intcon	equ	0xFF2
  4672                           postinc0	equ	0xFEE
  4673                           wreg	equ	0xFE8
  4674                           indf1	equ	0xFE7
  4675                           postdec1	equ	0xFE5
  4676                           fsr1h	equ	0xFE2
  4677                           fsr1l	equ	0xFE1
  4678                           indf2	equ	0xFDF
  4679                           postinc2	equ	0xFDE
  4680                           postdec2	equ	0xFDD
  4681                           plusw2	equ	0xFDB
  4682                           fsr2h	equ	0xFDA
  4683                           fsr2l	equ	0xFD9
  4684                           status	equ	0xFD8
  4685                           
  4686 ;; *************** function _USBCheckStdRequest *****************
  4687 ;; Defined at:
  4688 ;;		line 2689 in file "../../../../../../framework/usb/src/usb_device.c"
  4689 ;; Parameters:    Size  Location     Type
  4690 ;;		None
  4691 ;; Auto vars:     Size  Location     Type
  4692 ;;		None
  4693 ;; Return value:  Size  Location     Type
  4694 ;;		None               void
  4695 ;; Registers used:
  4696 ;;		wreg, fsr1l, fsr1h, fsr2l, fsr2h, status,2, status,0, tblptrl, tblptrh, tblptru, prodl, prodh, cstack
  4697 ;; Tracked objects:
  4698 ;;		On entry : F/0
  4699 ;;		On exit  : 0/0
  4700 ;;		Unchanged: 0/0
  4701 ;; Data sizes:     COMRAM   BANK0   BANK1   BANK2   BANK3   BANK4   BANK5   BANK6   BANK7   BANK8   BANK9  BANK10  BANK1
      +1  BANK12  BANK13  BANK14
  4702 ;;      Params:         0       0       0       0       0       0       0       0       0       0       0       0       
      +0       0       0       0
  4703 ;;      Locals:         0       0       0       0       0       0       0       0       0       0       0       0       
      +0       0       0       0
  4704 ;;      Temps:          1       0       0       0       0       0       0       0       0       0       0       0       
      +0       0       0       0
  4705 ;;      Totals:         1       0       0       0       0       0       0       0       0       0       0       0       
      +0       0       0       0
  4706 ;;Total ram usage:        1 bytes
  4707 ;; Hardware stack levels used:    1
  4708 ;; Hardware stack levels required when called:    6
  4709 ;; This function calls:
  4710 ;;		_USBStdFeatureReqHandler
  4711 ;;		_USBStdGetDscHandler
  4712 ;;		_USBStdGetStatusHandler
  4713 ;;		_USBStdSetCfgHandler
  4714 ;;		_USER_USB_CALLBACK_EVENT_HANDLER
  4715 ;; This function is called by:
  4716 ;;		_USBCtrlTrfSetupHandler
  4717 ;; This function uses a non-reentrant model
  4718 ;;
  4719                           
  4720                           	psect	text24
  4721  001FE6                     __ptext24:
  4722                           	opt stack 0
  4723  001FE6                     _USBCheckStdRequest:
  4724                           	opt stack 17
  4725                           
  4726                           ; BSR set to: 0
  4727                           ;usb_device.c: 2691: if(SetupPkt.RequestType != (0x00>>5)) return;
  4728                           
  4729                           ;incstack = 0
  4730  001FE6  010D               	movlb	13	; () banked
  4731  001FE8  3930               	swapf	48,w,b	;volatile
  4732  001FEA  32E8               	rrcf	wreg,f,c
  4733  001FEC  0B03               	andlw	3
  4734  001FEE  E029               	bz	i2l3344
  4735  001FF0  0012               	return	
  4736  001FF2                     i2l608:
  4737                           
  4738                           ; BSR set to: 13
  4739                           ;usb_device.c: 2696: inPipes[0].info.bits.busy = 1;
  4740  001FF2  8E0D               	bsf	_inPipes+3,7,c	;volatile
  4741                           
  4742                           ; BSR set to: 13
  4743                           ;usb_device.c: 2697: USBDeviceState = ADR_PENDING_STATE;
  4744  001FF4  0E08               	movlw	8
  4745  001FF6  6E21               	movwf	_USBDeviceState,c	;volatile
  4746                           
  4747                           ;usb_device.c: 2699: break;
  4748  001FF8  0C08               	retlw	8
  4749  001FFA                     i2l3318:
  4750                           
  4751                           ; BSR set to: 13
  4752                           ;usb_device.c: 2707: inPipes[0].pSrc.bRam = (uint8_t*)&USBActiveConfiguration;
  4753  001FFA  0E29               	movlw	low _USBActiveConfiguration
  4754  001FFC  6E0A               	movwf	_inPipes,c	;volatile
  4755  001FFE  6A0B               	clrf	_inPipes+1,c	;volatile
  4756                           
  4757                           ; BSR set to: 13
  4758                           ;usb_device.c: 2708: inPipes[0].info.bits.ctrl_trf_mem = 0x01;
  4759  002000  800D               	bsf	_inPipes+3,0,c	;volatile
  4760                           
  4761                           ; BSR set to: 13
  4762                           ;usb_device.c: 2709: inPipes[0].wCount.v[0] = 1;
  4763  002002  0E01               	movlw	1
  4764  002004  6E0E               	movwf	_inPipes+4,c	;volatile
  4765                           
  4766                           ; BSR set to: 13
  4767                           ;usb_device.c: 2710: inPipes[0].info.bits.busy = 1;
  4768  002006  8E0D               	bsf	_inPipes+3,7,c	;volatile
  4769                           
  4770                           ;usb_device.c: 2711: break;
  4771  002008  0C01               	retlw	1
  4772  00200A                     i2l3330:
  4773                           
  4774                           ; BSR set to: 13
  4775                           ;usb_device.c: 2720: inPipes[0].pSrc.bRam = (uint8_t*)&USBAlternateInterface[SetupPkt.bI
      +                          ntfID];
  4776  00200A  5134               	movf	52,w,b	;volatile
  4777  00200C  0FCC               	addlw	low _USBAlternateInterface
  4778  00200E  6E46               	movwf	??_USBCheckStdRequest& (0+255),c
  4779  002010  C046  F00A         	movff	??_USBCheckStdRequest,_inPipes	;volatile
  4780  002014  6A0B               	clrf	_inPipes+1,c	;volatile
  4781                           
  4782                           ; BSR set to: 13
  4783                           ;usb_device.c: 2721: inPipes[0].info.bits.ctrl_trf_mem = 0x01;
  4784  002016  800D               	bsf	_inPipes+3,0,c	;volatile
  4785                           
  4786                           ; BSR set to: 13
  4787                           ;usb_device.c: 2722: inPipes[0].wCount.v[0] = 1;
  4788  002018  0E01               	movlw	1
  4789  00201A  6E0E               	movwf	_inPipes+4,c	;volatile
  4790                           
  4791                           ; BSR set to: 13
  4792                           ;usb_device.c: 2723: inPipes[0].info.bits.busy = 1;
  4793  00201C  8E0D               	bsf	_inPipes+3,7,c	;volatile
  4794                           
  4795                           ;usb_device.c: 2724: break;
  4796  00201E  0C01               	retlw	1
  4797  002020                     i2l617:
  4798                           
  4799                           ; BSR set to: 13
  4800                           ;usb_device.c: 2726: inPipes[0].info.bits.busy = 1;
  4801  002020  8E0D               	bsf	_inPipes+3,7,c	;volatile
  4802                           
  4803                           ; BSR set to: 13
  4804                           ;usb_device.c: 2727: USBAlternateInterface[SetupPkt.bIntfID] = SetupPkt.bAltID;
  4805  002022  5134               	movf	52,w,b	;volatile
  4806  002024  0FCC               	addlw	low _USBAlternateInterface
  4807  002026  6ED9               	movwf	fsr2l,c
  4808  002028  6ADA               	clrf	fsr2h,c
  4809  00202A  CD32 FFDF          	movff	3378,indf2	;volatile
  4810                           
  4811                           ;usb_device.c: 2728: break;
  4812  00202E  0012               	return	
  4813  002030                     i2l3340:
  4814                           
  4815                           ; BSR set to: 13
  4816                           ;usb_device.c: 2730: USER_USB_CALLBACK_EVENT_HANDLER(EVENT_SET_DESCRIPTOR,0,0);
  4817  002030  6A38               	clrf	USER_USB_CALLBACK_EVENT_HANDLER@event+1,c
  4818  002032  0E02               	movlw	2
  4819  002034  6E37               	movwf	USER_USB_CALLBACK_EVENT_HANDLER@event,c
  4820  002036  6A39               	clrf	USER_USB_CALLBACK_EVENT_HANDLER@pdata,c
  4821  002038  6A3A               	clrf	USER_USB_CALLBACK_EVENT_HANDLER@pdata+1,c
  4822  00203A  6A3C               	clrf	USER_USB_CALLBACK_EVENT_HANDLER@size+1,c
  4823  00203C  6A3B               	clrf	USER_USB_CALLBACK_EVENT_HANDLER@size,c
  4824  00203E  EF22  F012         	goto	i2l2922	;wreg free
  4825  002042                     i2l3344:
  4826                           
  4827                           ; BSR set to: 13
  4828  002042  5131               	movf	49,w,b	;volatile
  4829                           
  4830                           ; Switch size 1, requested type "speed"
  4831                           ; Number of cases is 11, Range of values is 0 to 12
  4832                           ; switch strategies available:
  4833                           ; Name         Instructions Cycles
  4834                           ; simple_byte           34    18 (average)
  4835                           ;	Chosen strategy is simple_byte
  4836  002044  E102 EF51  F011    	bz	_USBStdGetStatusHandler
  4837  00204A  0A01               	xorlw	1	; case 1
  4838  00204C  E102 EFE4  F008    	bz	_USBStdFeatureReqHandler
  4839  002052  0A02               	xorlw	2	; case 3
  4840  002054  E102 EFE4  F008    	bz	_USBStdFeatureReqHandler
  4841  00205A  0A06               	xorlw	6	; case 5
  4842  00205C  E0CA               	bz	i2l608
  4843  00205E  0A03               	xorlw	3	; case 6
  4844  002060  E102 EF65  F00A    	bz	_USBStdGetDscHandler
  4845  002066  0A01               	xorlw	1	; case 7
  4846  002068  E0E3               	bz	i2l3340
  4847  00206A  0A0F               	xorlw	15	; case 8
  4848  00206C  E0C6               	bz	i2l3318
  4849  00206E  0A01               	xorlw	1	; case 9
  4850  002070  E102 EF02  F00F    	bz	_USBStdSetCfgHandler
  4851  002076  0A03               	xorlw	3	; case 10
  4852  002078  E0C8               	bz	i2l3330
  4853  00207A  0A01               	xorlw	1	; case 11
  4854  00207C  E0D1               	bz	i2l617
  4855  00207E  0A07               	xorlw	7	; case 12
  4856  002080  0012               	return	
  4857  002082                     __end_of_USBCheckStdRequest:
  4858                           	opt stack 0
  4859                           tblptru	equ	0xFF8
  4860                           tblptrh	equ	0xFF7
  4861                           tblptrl	equ	0xFF6
  4862                           tablat	equ	0xFF5
  4863                           prodh	equ	0xFF4
  4864                           prodl	equ	0xFF3
  4865                           intcon	equ	0xFF2
  4866                           postinc0	equ	0xFEE
  4867                           wreg	equ	0xFE8
  4868                           indf1	equ	0xFE7
  4869                           postdec1	equ	0xFE5
  4870                           fsr1h	equ	0xFE2
  4871                           fsr1l	equ	0xFE1
  4872                           indf2	equ	0xFDF
  4873                           postinc2	equ	0xFDE
  4874                           postdec2	equ	0xFDD
  4875                           plusw2	equ	0xFDB
  4876                           fsr2h	equ	0xFDA
  4877                           fsr2l	equ	0xFD9
  4878                           status	equ	0xFD8
  4879                           
  4880 ;; *************** function _USBStdSetCfgHandler *****************
  4881 ;; Defined at:
  4882 ;;		line 1968 in file "../../../../../../framework/usb/src/usb_device.c"
  4883 ;; Parameters:    Size  Location     Type
  4884 ;;		None
  4885 ;; Auto vars:     Size  Location     Type
  4886 ;;  i               1   20[COMRAM] unsigned char 
  4887 ;; Return value:  Size  Location     Type
  4888 ;;		None               void
  4889 ;; Registers used:
  4890 ;;		wreg, fsr2l, fsr2h, status,2, status,0, prodl, prodh, cstack
  4891 ;; Tracked objects:
  4892 ;;		On entry : 2/D
  4893 ;;		On exit  : 0/0
  4894 ;;		Unchanged: 0/0
  4895 ;; Data sizes:     COMRAM   BANK0   BANK1   BANK2   BANK3   BANK4   BANK5   BANK6   BANK7   BANK8   BANK9  BANK10  BANK1
      +1  BANK12  BANK13  BANK14
  4896 ;;      Params:         0       0       0       0       0       0       0       0       0       0       0       0       
      +0       0       0       0
  4897 ;;      Locals:         1       0       0       0       0       0       0       0       0       0       0       0       
      +0       0       0       0
  4898 ;;      Temps:          0       0       0       0       0       0       0       0       0       0       0       0       
      +0       0       0       0
  4899 ;;      Totals:         1       0       0       0       0       0       0       0       0       0       0       0       
      +0       0       0       0
  4900 ;;Total ram usage:        1 bytes
  4901 ;; Hardware stack levels used:    1
  4902 ;; Hardware stack levels required when called:    5
  4903 ;; This function calls:
  4904 ;;		_USER_USB_CALLBACK_EVENT_HANDLER
  4905 ;;		i2_memset
  4906 ;; This function is called by:
  4907 ;;		_USBCheckStdRequest
  4908 ;; This function uses a non-reentrant model
  4909 ;;
  4910                           
  4911                           	psect	text25
  4912  001E04                     __ptext25:
  4913                           	opt stack 0
  4914  001E04                     _USBStdSetCfgHandler:
  4915                           	opt stack 17
  4916                           
  4917                           ;usb_device.c: 1970: uint8_t i;
  4918                           ;usb_device.c: 1973: inPipes[0].info.bits.busy = 1;
  4919                           
  4920                           ;incstack = 0
  4921  001E04  8E0D               	bsf	_inPipes+3,7,c	;volatile
  4922                           
  4923                           ;usb_device.c: 1976: memset((void*)&UEP1,0x00,(2));;
  4924  001E06  0E27               	movlw	39
  4925  001E08  6E2B               	movwf	i2memset@p1,c
  4926  001E0A  0E0F               	movlw	15
  4927  001E0C  6E2C               	movwf	i2memset@p1+1,c
  4928  001E0E  6A2E               	clrf	i2memset@c+1,c
  4929  001E10  6A2D               	clrf	i2memset@c,c
  4930  001E12  6A30               	clrf	i2memset@n+1,c
  4931  001E14  0E02               	movlw	2
  4932  001E16  6E2F               	movwf	i2memset@n,c
  4933  001E18  EC47  F013         	call	i2_memset	;wreg free
  4934                           
  4935                           ;usb_device.c: 1979: memset((void*)&BDT[0], 0x00, sizeof(BDT));
  4936  001E1C  6A2B               	clrf	i2memset@p1,c
  4937  001E1E  0E0D               	movlw	13
  4938  001E20  6E2C               	movwf	i2memset@p1+1,c
  4939  001E22  6A2E               	clrf	i2memset@c+1,c
  4940  001E24  6A2D               	clrf	i2memset@c,c
  4941  001E26  6A30               	clrf	i2memset@n+1,c
  4942  001E28  0E30               	movlw	48
  4943  001E2A  6E2F               	movwf	i2memset@n,c
  4944  001E2C  EC47  F013         	call	i2_memset	;wreg free
  4945                           
  4946                           ;usb_device.c: 1982: UCONbits.PPBRST = 1;
  4947  001E30  8C65               	bsf	3941,6,c	;volatile
  4948                           
  4949                           ;usb_device.c: 1987: for(i = 0; i < (uint8_t)(2+1u); i++)
  4950  001E32  6A3F               	clrf	USBStdSetCfgHandler@i,c
  4951  001E34                     i2l3050:
  4952                           
  4953                           ;usb_device.c: 1988: {
  4954                           ;usb_device.c: 1989: ep_data_in[i].Val = 0u;
  4955  001E34  503F               	movf	USBStdSetCfgHandler@i,w,c
  4956  001E36  0F66               	addlw	low _ep_data_in
  4957  001E38  6ED9               	movwf	fsr2l,c
  4958  001E3A  6ADA               	clrf	fsr2h,c
  4959  001E3C  6ADF               	clrf	indf2,c
  4960                           
  4961                           ;usb_device.c: 1990: ep_data_out[i].Val = 0u;
  4962  001E3E  503F               	movf	USBStdSetCfgHandler@i,w,c
  4963  001E40  0F69               	addlw	low _ep_data_out
  4964  001E42  6ED9               	movwf	fsr2l,c
  4965  001E44  6ADA               	clrf	fsr2h,c
  4966  001E46  6ADF               	clrf	indf2,c
  4967  001E48  2A3F               	incf	USBStdSetCfgHandler@i,f,c
  4968  001E4A  0E02               	movlw	2
  4969  001E4C  643F               	cpfsgt	USBStdSetCfgHandler@i,c
  4970  001E4E  D7F2               	goto	i2l3050
  4971                           
  4972                           ;usb_device.c: 1991: }
  4973                           ;usb_device.c: 1994: memset((void*)&USBAlternateInterface,0x00,2);
  4974  001E50  0ECC               	movlw	low _USBAlternateInterface
  4975  001E52  6E2B               	movwf	i2memset@p1,c
  4976  001E54  6A2C               	clrf	i2memset@p1+1,c
  4977  001E56  6A2E               	clrf	i2memset@c+1,c
  4978  001E58  6A2D               	clrf	i2memset@c,c
  4979  001E5A  6A30               	clrf	i2memset@n+1,c
  4980  001E5C  0E02               	movlw	2
  4981  001E5E  6E2F               	movwf	i2memset@n,c
  4982  001E60  EC47  F013         	call	i2_memset	;wreg free
  4983                           
  4984                           ;usb_device.c: 1997: UCONbits.PPBRST = 0;
  4985  001E64  9C65               	bcf	3941,6,c	;volatile
  4986                           
  4987                           ;usb_device.c: 1999: pBDTEntryIn[0] = (volatile BDT_ENTRY*)&BDT[2];
  4988  001E66  0E08               	movlw	8
  4989  001E68  6E10               	movwf	_pBDTEntryIn,c
  4990  001E6A  0E0D               	movlw	13
  4991  001E6C  6E11               	movwf	_pBDTEntryIn+1,c
  4992                           
  4993                           ;usb_device.c: 2002: pBDTEntryEP0OutCurrent = (volatile BDT_ENTRY*)&BDT[0];
  4994  001E6E  0E00               	movlw	0
  4995  001E70  6E18               	movwf	_pBDTEntryEP0OutCurrent,c
  4996  001E72  0E0D               	movlw	13
  4997  001E74  6E19               	movwf	_pBDTEntryEP0OutCurrent+1,c
  4998                           
  4999                           ;usb_device.c: 2003: pBDTEntryEP0OutNext = pBDTEntryEP0OutCurrent;
  5000  001E76  C018  F01A         	movff	_pBDTEntryEP0OutCurrent,_pBDTEntryEP0OutNext
  5001  001E7A  C019  F01B         	movff	_pBDTEntryEP0OutCurrent+1,_pBDTEntryEP0OutNext+1
  5002                           
  5003                           ;usb_device.c: 2006: USBActiveConfiguration = SetupPkt.bConfigurationValue;
  5004  001E7E  CD32 F029          	movff	3378,_USBActiveConfiguration	;volatile
  5005                           
  5006                           ;usb_device.c: 2009: if(USBActiveConfiguration == 0)
  5007  001E82  5029               	movf	_USBActiveConfiguration,w,c	;volatile
  5008  001E84  E103               	bnz	i2l3072
  5009                           
  5010                           ;usb_device.c: 2010: {
  5011                           ;usb_device.c: 2012: USBDeviceState = ADDRESS_STATE;
  5012  001E86  0E10               	movlw	16
  5013  001E88  6E21               	movwf	_USBDeviceState,c	;volatile
  5014                           
  5015                           ;usb_device.c: 2013: }
  5016  001E8A  0C10               	retlw	16
  5017  001E8C                     i2l3072:
  5018                           
  5019                           ;usb_device.c: 2014: else
  5020                           ;usb_device.c: 2015: {
  5021                           ;usb_device.c: 2017: USER_USB_CALLBACK_EVENT_HANDLER(EVENT_CONFIGURED,(void*)&USBActiveC
      +                          onfiguration,1);
  5022  001E8C  6A38               	clrf	USER_USB_CALLBACK_EVENT_HANDLER@event+1,c
  5023  001E8E  0E01               	movlw	1
  5024  001E90  6E37               	movwf	USER_USB_CALLBACK_EVENT_HANDLER@event,c
  5025  001E92  0E29               	movlw	low _USBActiveConfiguration
  5026  001E94  6E39               	movwf	USER_USB_CALLBACK_EVENT_HANDLER@pdata,c
  5027  001E96  6A3A               	clrf	USER_USB_CALLBACK_EVENT_HANDLER@pdata+1,c
  5028  001E98  6A3C               	clrf	USER_USB_CALLBACK_EVENT_HANDLER@size+1,c
  5029  001E9A  0E01               	movlw	1
  5030  001E9C  6E3B               	movwf	USER_USB_CALLBACK_EVENT_HANDLER@size,c
  5031  001E9E  EC22  F012         	call	_USER_USB_CALLBACK_EVENT_HANDLER	;wreg free
  5032                           
  5033                           ;usb_device.c: 2022: USBDeviceState = CONFIGURED_STATE;
  5034  001EA2  0E20               	movlw	32
  5035  001EA4  6E21               	movwf	_USBDeviceState,c	;volatile
  5036  001EA6  0C20               	retlw	32	;funcret
  5037  001EA8                     __end_of_USBStdSetCfgHandler:
  5038                           	opt stack 0
  5039                           tblptru	equ	0xFF8
  5040                           tblptrh	equ	0xFF7
  5041                           tblptrl	equ	0xFF6
  5042                           tablat	equ	0xFF5
  5043                           prodh	equ	0xFF4
  5044                           prodl	equ	0xFF3
  5045                           intcon	equ	0xFF2
  5046                           postinc0	equ	0xFEE
  5047                           wreg	equ	0xFE8
  5048                           indf1	equ	0xFE7
  5049                           postdec1	equ	0xFE5
  5050                           fsr1h	equ	0xFE2
  5051                           fsr1l	equ	0xFE1
  5052                           indf2	equ	0xFDF
  5053                           postinc2	equ	0xFDE
  5054                           postdec2	equ	0xFDD
  5055                           plusw2	equ	0xFDB
  5056                           fsr2h	equ	0xFDA
  5057                           fsr2l	equ	0xFD9
  5058                           status	equ	0xFD8
  5059                           
  5060 ;; *************** function i2_memset *****************
  5061 ;; Defined at:
  5062 ;;		line 8 in file "C:\Program Files (x86)\Microchip\xc8\v1.35\sources\common\memset.c"
  5063 ;; Parameters:    Size  Location     Type
  5064 ;;  p1              2    0[COMRAM] PTR void 
  5065 ;;		 -> USBAlternateInterface(2), BDT(48), UEP1(1), 
  5066 ;;  c               2    2[COMRAM] int 
  5067 ;;  n               2    4[COMRAM] unsigned int 
  5068 ;; Auto vars:     Size  Location     Type
  5069 ;;  memset          2    6[COMRAM] PTR unsigned char 
  5070 ;;		 -> USBAlternateInterface(2), BDT(48), UEP1(1), 
  5071 ;; Return value:  Size  Location     Type
  5072 ;;                  2    0[COMRAM] PTR void 
  5073 ;; Registers used:
  5074 ;;		wreg, fsr2l, fsr2h, status,2, status,0
  5075 ;; Tracked objects:
  5076 ;;		On entry : 0/F
  5077 ;;		On exit  : 0/0
  5078 ;;		Unchanged: 0/0
  5079 ;; Data sizes:     COMRAM   BANK0   BANK1   BANK2   BANK3   BANK4   BANK5   BANK6   BANK7   BANK8   BANK9  BANK10  BANK1
      +1  BANK12  BANK13  BANK14
  5080 ;;      Params:         6       0       0       0       0       0       0       0       0       0       0       0       
      +0       0       0       0
  5081 ;;      Locals:         2       0       0       0       0       0       0       0       0       0       0       0       
      +0       0       0       0
  5082 ;;      Temps:          0       0       0       0       0       0       0       0       0       0       0       0       
      +0       0       0       0
  5083 ;;      Totals:         8       0       0       0       0       0       0       0       0       0       0       0       
      +0       0       0       0
  5084 ;;Total ram usage:        8 bytes
  5085 ;; Hardware stack levels used:    1
  5086 ;; This function calls:
  5087 ;;		Nothing
  5088 ;; This function is called by:
  5089 ;;		_USBStdSetCfgHandler
  5090 ;;		i2_USBDeviceInit
  5091 ;; This function uses a non-reentrant model
  5092 ;;
  5093                           
  5094                           	psect	text26
  5095  00268E                     __ptext26:
  5096                           	opt stack 0
  5097  00268E                     i2_memset:
  5098                           	opt stack 24
  5099                           
  5100                           ;incstack = 0
  5101  00268E  C02B  F031         	movff	i2memset@p1,i2memset@p
  5102  002692  C02C  F032         	movff	i2memset@p1+1,i2memset@p+1
  5103  002696  D008               	goto	i2l2982
  5104  002698                     i2l2978:
  5105  002698  C031  FFD9         	movff	i2memset@p,fsr2l
  5106  00269C  C032  FFDA         	movff	i2memset@p+1,fsr2h
  5107  0026A0  C02D  FFDF         	movff	i2memset@c,indf2
  5108  0026A4  4A31               	infsnz	i2memset@p,f,c
  5109  0026A6  2A32               	incf	i2memset@p+1,f,c
  5110  0026A8                     i2l2982:
  5111  0026A8  062F               	decf	i2memset@n,f,c
  5112  0026AA  A0D8               	btfss	status,0,c
  5113  0026AC  0630               	decf	i2memset@n+1,f,c
  5114  0026AE  282F               	incf	i2memset@n,w,c
  5115  0026B0  E1F3               	bnz	i2l2978
  5116  0026B2  2830               	incf	i2memset@n+1,w,c
  5117  0026B4  E1F1               	bnz	i2l2978
  5118  0026B6  0012               	return		;funcret
  5119  0026B8                     __end_ofi2_memset:
  5120                           	opt stack 0
  5121                           tblptru	equ	0xFF8
  5122                           tblptrh	equ	0xFF7
  5123                           tblptrl	equ	0xFF6
  5124                           tablat	equ	0xFF5
  5125                           prodh	equ	0xFF4
  5126                           prodl	equ	0xFF3
  5127                           intcon	equ	0xFF2
  5128                           postinc0	equ	0xFEE
  5129                           wreg	equ	0xFE8
  5130                           indf1	equ	0xFE7
  5131                           postdec1	equ	0xFE5
  5132                           fsr1h	equ	0xFE2
  5133                           fsr1l	equ	0xFE1
  5134                           indf2	equ	0xFDF
  5135                           postinc2	equ	0xFDE
  5136                           postdec2	equ	0xFDD
  5137                           plusw2	equ	0xFDB
  5138                           fsr2h	equ	0xFDA
  5139                           fsr2l	equ	0xFD9
  5140                           status	equ	0xFD8
  5141                           
  5142 ;; *************** function _USBStdGetStatusHandler *****************
  5143 ;; Defined at:
  5144 ;;		line 2129 in file "../../../../../../framework/usb/src/usb_device.c"
  5145 ;; Parameters:    Size  Location     Type
  5146 ;;		None
  5147 ;; Auto vars:     Size  Location     Type
  5148 ;;  p               2    0[COMRAM] PTR struct __BDT
  5149 ;;		 -> NULL(0), BDT(48), 
  5150 ;; Return value:  Size  Location     Type
  5151 ;;		None               void
  5152 ;; Registers used:
  5153 ;;		wreg, fsr2l, fsr2h, status,2, status,0, prodl, prodh
  5154 ;; Tracked objects:
  5155 ;;		On entry : 2/D
  5156 ;;		On exit  : F/D
  5157 ;;		Unchanged: 0/0
  5158 ;; Data sizes:     COMRAM   BANK0   BANK1   BANK2   BANK3   BANK4   BANK5   BANK6   BANK7   BANK8   BANK9  BANK10  BANK1
      +1  BANK12  BANK13  BANK14
  5159 ;;      Params:         0       0       0       0       0       0       0       0       0       0       0       0       
      +0       0       0       0
  5160 ;;      Locals:         2       0       0       0       0       0       0       0       0       0       0       0       
      +0       0       0       0
  5161 ;;      Temps:          0       0       0       0       0       0       0       0       0       0       0       0       
      +0       0       0       0
  5162 ;;      Totals:         2       0       0       0       0       0       0       0       0       0       0       0       
      +0       0       0       0
  5163 ;;Total ram usage:        2 bytes
  5164 ;; Hardware stack levels used:    1
  5165 ;; This function calls:
  5166 ;;		Nothing
  5167 ;; This function is called by:
  5168 ;;		_USBCheckStdRequest
  5169 ;; This function uses a non-reentrant model
  5170 ;;
  5171                           
  5172                           	psect	text27
  5173  0022A2                     __ptext27:
  5174                           	opt stack 0
  5175  0022A2                     _USBStdGetStatusHandler:
  5176                           	opt stack 22
  5177                           
  5178                           ;usb_device.c: 2131: CtrlTrfData[0] = 0;
  5179                           
  5180                           ;incstack = 0
  5181  0022A2  010D               	movlb	13	; () banked
  5182  0022A4  6B38               	clrf	56,b	;volatile
  5183                           
  5184                           ;usb_device.c: 2132: CtrlTrfData[1] = 0;
  5185  0022A6  6B39               	clrf	57,b	;volatile
  5186                           
  5187                           ;usb_device.c: 2134: switch(SetupPkt.Recipient)
  5188  0022A8  D02A               	goto	i2l3122
  5189  0022AA                     i2l544:
  5190                           
  5191                           ; BSR set to: 13
  5192                           ;usb_device.c: 2137: inPipes[0].info.bits.busy = 1;
  5193  0022AA  8E0D               	bsf	_inPipes+3,7,c	;volatile
  5194                           
  5195                           ; BSR set to: 13
  5196                           ;usb_device.c: 2145: }
  5197                           ;usb_device.c: 2147: if(RemoteWakeup == 1)
  5198                           
  5199                           ;usb_device.c: 2142: if(0 == 1)
  5200  0022AC  041D               	decf	_RemoteWakeup,w,c	;volatile
  5201  0022AE  E12E               	bnz	i2l547
  5202                           
  5203                           ; BSR set to: 13
  5204                           ;usb_device.c: 2148: {
  5205                           ;usb_device.c: 2149: CtrlTrfData[0]|=0x02;
  5206  0022B0  8338               	bsf	56,1,b	;volatile
  5207  0022B2  D02C               	goto	i2l547
  5208  0022B4                     i2l548:
  5209                           
  5210                           ; BSR set to: 13
  5211                           ;usb_device.c: 2153: inPipes[0].info.bits.busy = 1;
  5212  0022B4  8E0D               	bsf	_inPipes+3,7,c	;volatile
  5213                           
  5214                           ;usb_device.c: 2154: break;
  5215  0022B6  D02A               	goto	i2l547
  5216  0022B8                     i2l549:
  5217                           
  5218                           ; BSR set to: 13
  5219                           ;usb_device.c: 2156: inPipes[0].info.bits.busy = 1;
  5220  0022B8  8E0D               	bsf	_inPipes+3,7,c	;volatile
  5221                           
  5222                           ;usb_device.c: 2160: {
  5223                           ;usb_device.c: 2161: BDT_ENTRY *p;
  5224                           ;usb_device.c: 2163: if(SetupPkt.EPDir == 0)
  5225  0022BA  BF34               	btfsc	52,7,b	;volatile
  5226  0022BC  D006               	goto	i2l3112
  5227                           
  5228                           ; BSR set to: 13
  5229                           ;usb_device.c: 2164: {
  5230                           ;usb_device.c: 2165: p = (BDT_ENTRY*)pBDTEntryOut[SetupPkt.EPNum];
  5231  0022BE  5134               	movf	52,w,b	;volatile
  5232  0022C0  0B0F               	andlw	15
  5233  0022C2  0D02               	mullw	2
  5234  0022C4  50F3               	movf	prodl,w,c
  5235  0022C6  0F60               	addlw	low _pBDTEntryOut
  5236  0022C8  D005               	goto	L7
  5237  0022CA                     i2l3112:
  5238                           
  5239                           ; BSR set to: 13
  5240                           ;usb_device.c: 2167: else
  5241                           ;usb_device.c: 2168: {
  5242                           ;usb_device.c: 2169: p = (BDT_ENTRY*)pBDTEntryIn[SetupPkt.EPNum];
  5243  0022CA  5134               	movf	52,w,b	;volatile
  5244  0022CC  0B0F               	andlw	15
  5245  0022CE  0D02               	mullw	2
  5246  0022D0  50F3               	movf	prodl,w,c
  5247  0022D2  0F10               	addlw	low _pBDTEntryIn
  5248  0022D4                     L7:
  5249  0022D4  6ED9               	movwf	fsr2l,c
  5250  0022D6  6ADA               	clrf	fsr2h,c
  5251  0022D8  CFDE F02B          	movff	postinc2,USBStdGetStatusHandler@p
  5252  0022DC  CFDD F02C          	movff	postdec2,USBStdGetStatusHandler@p+1
  5253                           
  5254                           ; BSR set to: 13
  5255                           ;usb_device.c: 2170: }
  5256                           ;usb_device.c: 2172: if((p->STAT.UOWN == 1) && (p->STAT.BSTALL == 1))
  5257  0022E0  C02B  FFD9         	movff	USBStdGetStatusHandler@p,fsr2l
  5258  0022E4  C02C  FFDA         	movff	USBStdGetStatusHandler@p+1,fsr2h
  5259  0022E8  AEDF               	btfss	indf2,7,c
  5260  0022EA  D010               	goto	i2l547
  5261                           
  5262                           ; BSR set to: 13
  5263  0022EC  C02B  FFD9         	movff	USBStdGetStatusHandler@p,fsr2l
  5264  0022F0  C02C  FFDA         	movff	USBStdGetStatusHandler@p+1,fsr2h
  5265  0022F4  A4DF               	btfss	indf2,2,c
  5266  0022F6  D00A               	goto	i2l547
  5267                           
  5268                           ; BSR set to: 13
  5269                           ;usb_device.c: 2173: CtrlTrfData[0]=0x01;
  5270  0022F8  0E01               	movlw	1
  5271  0022FA  6F38               	movwf	56,b	;volatile
  5272  0022FC  D007               	goto	i2l547
  5273  0022FE                     i2l3122:
  5274                           
  5275                           ; BSR set to: 13
  5276  0022FE  5130               	movf	48,w,b	;volatile
  5277  002300  0B1F               	andlw	31
  5278                           
  5279                           ; Switch size 1, requested type "speed"
  5280                           ; Number of cases is 3, Range of values is 0 to 2
  5281                           ; switch strategies available:
  5282                           ; Name         Instructions Cycles
  5283                           ; simple_byte           10     6 (average)
  5284                           ;	Chosen strategy is simple_byte
  5285  002302  E0D3               	bz	i2l544
  5286  002304  0A01               	xorlw	1	; case 1
  5287  002306  E0D6               	bz	i2l548
  5288  002308  0A03               	xorlw	3	; case 2
  5289  00230A  E0D6               	bz	i2l549
  5290  00230C                     i2l547:
  5291                           
  5292                           ; BSR set to: 13
  5293                           ;usb_device.c: 2178: if(inPipes[0].info.bits.busy == 1)
  5294  00230C  AE0D               	btfss	_inPipes+3,7,c	;volatile
  5295  00230E  0012               	return	
  5296                           
  5297                           ; BSR set to: 13
  5298                           ;usb_device.c: 2179: {
  5299                           ;usb_device.c: 2180: inPipes[0].pSrc.bRam = (uint8_t*)&CtrlTrfData;
  5300  002310  0E38               	movlw	56
  5301  002312  6E0A               	movwf	_inPipes,c	;volatile
  5302  002314  0E0D               	movlw	13
  5303  002316  6E0B               	movwf	_inPipes+1,c	;volatile
  5304                           
  5305                           ; BSR set to: 13
  5306                           ;usb_device.c: 2181: inPipes[0].info.bits.ctrl_trf_mem = 0x01;
  5307  002318  800D               	bsf	_inPipes+3,0,c	;volatile
  5308                           
  5309                           ; BSR set to: 13
  5310                           ;usb_device.c: 2182: inPipes[0].wCount.v[0] = 2;
  5311  00231A  0E02               	movlw	2
  5312  00231C  6E0E               	movwf	_inPipes+4,c	;volatile
  5313                           
  5314                           ; BSR set to: 13
  5315  00231E  0C02               	retlw	2	;funcret
  5316  002320                     __end_of_USBStdGetStatusHandler:
  5317                           	opt stack 0
  5318                           tblptru	equ	0xFF8
  5319                           tblptrh	equ	0xFF7
  5320                           tblptrl	equ	0xFF6
  5321                           tablat	equ	0xFF5
  5322                           prodh	equ	0xFF4
  5323                           prodl	equ	0xFF3
  5324                           intcon	equ	0xFF2
  5325                           postinc0	equ	0xFEE
  5326                           wreg	equ	0xFE8
  5327                           indf1	equ	0xFE7
  5328                           postdec1	equ	0xFE5
  5329                           fsr1h	equ	0xFE2
  5330                           fsr1l	equ	0xFE1
  5331                           indf2	equ	0xFDF
  5332                           postinc2	equ	0xFDE
  5333                           postdec2	equ	0xFDD
  5334                           plusw2	equ	0xFDB
  5335                           fsr2h	equ	0xFDA
  5336                           fsr2l	equ	0xFD9
  5337                           status	equ	0xFD8
  5338                           
  5339 ;; *************** function _USBStdGetDscHandler *****************
  5340 ;; Defined at:
  5341 ;;		line 2043 in file "../../../../../../framework/usb/src/usb_device.c"
  5342 ;; Parameters:    Size  Location     Type
  5343 ;;		None
  5344 ;; Auto vars:     Size  Location     Type
  5345 ;;		None
  5346 ;; Return value:  Size  Location     Type
  5347 ;;		None               void
  5348 ;; Registers used:
  5349 ;;		wreg, fsr1l, fsr1h, status,2, status,0, tblptrl, tblptrh, tblptru
  5350 ;; Tracked objects:
  5351 ;;		On entry : 2/D
  5352 ;;		On exit  : 0/0
  5353 ;;		Unchanged: 0/0
  5354 ;; Data sizes:     COMRAM   BANK0   BANK1   BANK2   BANK3   BANK4   BANK5   BANK6   BANK7   BANK8   BANK9  BANK10  BANK1
      +1  BANK12  BANK13  BANK14
  5355 ;;      Params:         0       0       0       0       0       0       0       0       0       0       0       0       
      +0       0       0       0
  5356 ;;      Locals:         0       0       0       0       0       0       0       0       0       0       0       0       
      +0       0       0       0
  5357 ;;      Temps:          2       0       0       0       0       0       0       0       0       0       0       0       
      +0       0       0       0
  5358 ;;      Totals:         2       0       0       0       0       0       0       0       0       0       0       0       
      +0       0       0       0
  5359 ;;Total ram usage:        2 bytes
  5360 ;; Hardware stack levels used:    1
  5361 ;; This function calls:
  5362 ;;		Nothing
  5363 ;; This function is called by:
  5364 ;;		_USBCheckStdRequest
  5365 ;; This function uses a non-reentrant model
  5366 ;;
  5367                           
  5368                           	psect	text28
  5369  0014CA                     __ptext28:
  5370                           	opt stack 0
  5371  0014CA                     _USBStdGetDscHandler:
  5372                           	opt stack 22
  5373                           
  5374                           ;usb_device.c: 2045: if(SetupPkt.bmRequestType == 0x80)
  5375                           
  5376                           ; BSR set to: 13
  5377                           ;incstack = 0
  5378  0014CA  0E80               	movlw	128
  5379  0014CC  010D               	movlb	13	; () banked
  5380  0014CE  1930               	xorwf	48,w,b	;volatile
  5381  0014D0  A4D8               	btfss	status,2,c
  5382  0014D2  0012               	return	
  5383                           
  5384                           ; BSR set to: 13
  5385                           ;usb_device.c: 2046: {
  5386                           ;usb_device.c: 2047: inPipes[0].info.Val = 0x00 | 0x80 | 0x40;
  5387  0014D4  0EC0               	movlw	192
  5388  0014D6  6E0D               	movwf	_inPipes+3,c	;volatile
  5389                           
  5390                           ;usb_device.c: 2049: switch(SetupPkt.bDescriptorType)
  5391  0014D8  D076               	goto	i2l3100
  5392  0014DA                     i2l3080:
  5393                           
  5394                           ; BSR set to: 13
  5395                           ;usb_device.c: 2055: inPipes[0].pSrc.bRom = (const uint8_t*)&device_dsc;
  5396  0014DA  0EB0               	movlw	low _device_dsc
  5397  0014DC  6E0A               	movwf	_inPipes,c	;volatile
  5398  0014DE  500A               	movf	_inPipes,w,c	;volatile
  5399  0014E0  A4D8               	btfss	status,2,c
  5400  0014E2  0E11               	movlw	high __smallconst
  5401  0014E4  6E0B               	movwf	_inPipes+1,c	;volatile
  5402                           
  5403                           ; BSR set to: 13
  5404                           ;usb_device.c: 2057: inPipes[0].wCount.Val = sizeof(device_dsc);
  5405  0014E6  6A0F               	clrf	_inPipes+5,c	;volatile
  5406  0014E8  0E12               	movlw	18
  5407  0014EA  6E0E               	movwf	_inPipes+4,c	;volatile
  5408                           
  5409                           ;usb_device.c: 2058: break;
  5410  0014EC  0C12               	retlw	18
  5411  0014EE                     i2l3084:
  5412                           
  5413                           ; BSR set to: 13
  5414                           ;usb_device.c: 2063: if(SetupPkt.bDscIndex < 1)
  5415  0014EE  5132               	movf	50,w,b	;volatile
  5416  0014F0  E13F               	bnz	i2l534
  5417                           
  5418                           ; BSR set to: 13
  5419                           ;usb_device.c: 2064: {
  5420                           ;usb_device.c: 2068: inPipes[0].pSrc.bRom = *(USB_CD_Ptr+SetupPkt.bDscIndex);
  5421  0014F2  5132               	movf	50,w,b	;volatile
  5422  0014F4  0F04               	addlw	low _USB_CD_Ptr
  5423  0014F6  6E2B               	movwf	??_USBStdGetDscHandler& (0+255),c
  5424  0014F8  C02B  FFF6         	movff	??_USBStdGetDscHandler,tblptrl
  5425  0014FC                     	if	1	;There is more than 1 active tblptr byte
  5426  0014FC  0E11               	movlw	high __smallconst
  5427  0014FE  6EF7               	movwf	tblptrh,c
  5428  001500                     	endif
  5429  001500                     	if	0	;tblptru may be non-zero
  5430  001500                     	endif
  5431  001500                     	if	1	;Program memory is > 0xFFFF, there are 3 active tblptr bytes
  5432  001500  0E00               	movlw	low (__smallconst shr (0+16))
  5433  001502  6EF8               	movwf	tblptru,c
  5434  001504                     	endif
  5435  001504  0009               	tblrd		*+
  5436  001506  CFF5 F00A          	movff	tablat,_inPipes	;volatile
  5437  00150A  0E11               	movlw	high __smallconst
  5438  00150C  6E0B               	movwf	_inPipes+1,c	;volatile
  5439                           
  5440                           ; BSR set to: 13
  5441                           ;usb_device.c: 2074: inPipes[0].wCount.byte.LB = *(inPipes[0].pSrc.bRom+2);
  5442  00150E  0E02               	movlw	2
  5443  001510  240A               	addwf	_inPipes,w,c	;volatile
  5444  001512  6E2B               	movwf	??_USBStdGetDscHandler& (0+255),c
  5445  001514  0E00               	movlw	0
  5446  001516  200B               	addwfc	_inPipes+1,w,c	;volatile
  5447  001518  6E2C               	movwf	(??_USBStdGetDscHandler+1)& (0+255),c
  5448  00151A  C02B  FFF6         	movff	??_USBStdGetDscHandler,tblptrl
  5449  00151E  C02C  FFF7         	movff	??_USBStdGetDscHandler+1,tblptrh
  5450  001522  0E00               	movlw	low (__smallconst shr (0+16))
  5451  001524  6EF8               	movwf	tblptru,c
  5452  001526  0E0E               	movlw	(high __ramtop+-1)
  5453  001528  64F7               	cpfsgt	tblptrh,c
  5454  00152A  D003               	bra	i2u198_47
  5455  00152C  0008               	tblrd		*
  5456  00152E  50F5               	movf	tablat,w,c
  5457  001530  D005               	bra	i2u198_40
  5458  001532                     i2u198_47:
  5459  001532  CFF6 FFE1          	movff	tblptrl,fsr1l
  5460  001536  CFF7 FFE2          	movff	tblptrh,fsr1h
  5461  00153A  50E7               	movf	indf1,w,c
  5462  00153C                     i2u198_40:
  5463  00153C  6E0E               	movwf	_inPipes+4,c	;volatile
  5464                           
  5465                           ;usb_device.c: 2075: inPipes[0].wCount.byte.HB = *(inPipes[0].pSrc.bRom+3);
  5466  00153E  0E03               	movlw	3
  5467  001540  240A               	addwf	_inPipes,w,c	;volatile
  5468  001542  6E2B               	movwf	??_USBStdGetDscHandler& (0+255),c
  5469  001544  0E00               	movlw	0
  5470  001546  200B               	addwfc	_inPipes+1,w,c	;volatile
  5471  001548  6E2C               	movwf	(??_USBStdGetDscHandler+1)& (0+255),c
  5472  00154A  C02B  FFF6         	movff	??_USBStdGetDscHandler,tblptrl
  5473  00154E  C02C  FFF7         	movff	??_USBStdGetDscHandler+1,tblptrh
  5474  001552  0E00               	movlw	low (__smallconst shr (0+16))
  5475  001554  6EF8               	movwf	tblptru,c
  5476  001556  0E0E               	movlw	(high __ramtop+-1)
  5477  001558  64F7               	cpfsgt	tblptrh,c
  5478  00155A  D003               	bra	i2u199_47
  5479  00155C  0008               	tblrd		*
  5480  00155E  50F5               	movf	tablat,w,c
  5481  001560  D005               	bra	i2u199_40
  5482  001562                     i2u199_47:
  5483  001562  CFF6 FFE1          	movff	tblptrl,fsr1l
  5484  001566  CFF7 FFE2          	movff	tblptrh,fsr1h
  5485  00156A  50E7               	movf	indf1,w,c
  5486  00156C                     i2u199_40:
  5487  00156C  6E0F               	movwf	_inPipes+5,c	;volatile
  5488                           
  5489                           ;usb_device.c: 2076: }
  5490  00156E  0012               	return	
  5491  001570                     i2l534:
  5492                           
  5493                           ; BSR set to: 13
  5494                           ;usb_device.c: 2077: else
  5495                           ;usb_device.c: 2078: {
  5496                           ;usb_device.c: 2079: inPipes[0].info.Val = 0;
  5497  001570  6A0D               	clrf	_inPipes+3,c	;volatile
  5498  001572  0012               	return	
  5499  001574                     i2l3092:
  5500                           
  5501                           ; BSR set to: 13
  5502                           ;usb_device.c: 2086: if(SetupPkt.bDscIndex<3)
  5503  001574  0E03               	movlw	3
  5504  001576  6132               	cpfslt	50,b	;volatile
  5505  001578  D022               	goto	i2l537
  5506                           
  5507                           ; BSR set to: 13
  5508                           ;usb_device.c: 2087: {
  5509                           ;usb_device.c: 2089: inPipes[0].pSrc.bRom = *(USB_SD_Ptr+SetupPkt.bDscIndex);
  5510  00157A  5132               	movf	50,w,b	;volatile
  5511  00157C  0F01               	addlw	low _USB_SD_Ptr
  5512  00157E  6E2B               	movwf	??_USBStdGetDscHandler& (0+255),c
  5513  001580  C02B  FFF6         	movff	??_USBStdGetDscHandler,tblptrl
  5514  001584                     	if	1	;There is more than 1 active tblptr byte
  5515  001584  0E11               	movlw	high __smallconst
  5516  001586  6EF7               	movwf	tblptrh,c
  5517  001588                     	endif
  5518  001588                     	if	0	;tblptru may be non-zero
  5519  001588                     	endif
  5520  001588                     	if	1	;Program memory is > 0xFFFF, there are 3 active tblptr bytes
  5521  001588  0E00               	movlw	low (__smallconst shr (0+16))
  5522  00158A  6EF8               	movwf	tblptru,c
  5523  00158C                     	endif
  5524  00158C  0009               	tblrd		*+
  5525  00158E  CFF5 F00A          	movff	tablat,_inPipes	;volatile
  5526  001592  0E11               	movlw	high __smallconst
  5527  001594  6E0B               	movwf	_inPipes+1,c	;volatile
  5528                           
  5529                           ; BSR set to: 13
  5530                           ;usb_device.c: 2091: inPipes[0].wCount.Val = *inPipes[0].pSrc.bRom;
  5531  001596  C00A  FFF6         	movff	_inPipes,tblptrl	;volatile
  5532  00159A  C00B  FFF7         	movff	_inPipes+1,tblptrh	;volatile
  5533  00159E  0E00               	movlw	low (__smallconst shr (0+16))
  5534  0015A0  6EF8               	movwf	tblptru,c
  5535  0015A2  0E0E               	movlw	(high __ramtop+-1)
  5536  0015A4  64F7               	cpfsgt	tblptrh,c
  5537  0015A6  D003               	bra	i2u201_47
  5538  0015A8  0008               	tblrd		*
  5539  0015AA  50F5               	movf	tablat,w,c
  5540  0015AC  D005               	bra	i2u201_40
  5541  0015AE                     i2u201_47:
  5542  0015AE  CFF6 FFE1          	movff	tblptrl,fsr1l
  5543  0015B2  CFF7 FFE2          	movff	tblptrh,fsr1h
  5544  0015B6  50E7               	movf	indf1,w,c
  5545  0015B8                     i2u201_40:
  5546  0015B8  6E0E               	movwf	_inPipes+4,c	;volatile
  5547  0015BA  6A0F               	clrf	_inPipes+5,c	;volatile
  5548                           
  5549                           ;usb_device.c: 2092: }
  5550  0015BC  0012               	return	
  5551  0015BE                     i2l537:
  5552                           
  5553                           ; BSR set to: 13
  5554                           ;usb_device.c: 2102: else
  5555                           ;usb_device.c: 2103: {
  5556                           ;usb_device.c: 2104: inPipes[0].info.Val = 0;
  5557  0015BE  6A0D               	clrf	_inPipes+3,c	;volatile
  5558  0015C0  0012               	return	
  5559  0015C2                     i2l539:
  5560                           
  5561                           ; BSR set to: 13
  5562                           ;usb_device.c: 2108: inPipes[0].info.Val = 0;
  5563  0015C2  6A0D               	clrf	_inPipes+3,c	;volatile
  5564                           
  5565                           ;usb_device.c: 2109: break;
  5566  0015C4  0012               	return	
  5567  0015C6                     i2l3100:
  5568                           
  5569                           ; BSR set to: 13
  5570  0015C6  5133               	movf	51,w,b	;volatile
  5571                           
  5572                           ; Switch size 1, requested type "speed"
  5573                           ; Number of cases is 3, Range of values is 1 to 3
  5574                           ; switch strategies available:
  5575                           ; Name         Instructions Cycles
  5576                           ; simple_byte           10     6 (average)
  5577                           ;	Chosen strategy is simple_byte
  5578  0015C8  0A01               	xorlw	1	; case 1
  5579  0015CA  E087               	bz	i2l3080
  5580  0015CC  0A03               	xorlw	3	; case 2
  5581  0015CE  E08F               	bz	i2l3084
  5582  0015D0  0A01               	xorlw	1	; case 3
  5583  0015D2  E0D0               	bz	i2l3092
  5584  0015D4  D7F6               	goto	i2l539
  5585  0015D6                     __end_of_USBStdGetDscHandler:
  5586                           	opt stack 0
  5587                           tblptru	equ	0xFF8
  5588                           tblptrh	equ	0xFF7
  5589                           tblptrl	equ	0xFF6
  5590                           tablat	equ	0xFF5
  5591                           prodh	equ	0xFF4
  5592                           prodl	equ	0xFF3
  5593                           intcon	equ	0xFF2
  5594                           postinc0	equ	0xFEE
  5595                           wreg	equ	0xFE8
  5596                           indf1	equ	0xFE7
  5597                           postdec1	equ	0xFE5
  5598                           fsr1h	equ	0xFE2
  5599                           fsr1l	equ	0xFE1
  5600                           indf2	equ	0xFDF
  5601                           postinc2	equ	0xFDE
  5602                           postdec2	equ	0xFDD
  5603                           plusw2	equ	0xFDB
  5604                           fsr2h	equ	0xFDA
  5605                           fsr2l	equ	0xFD9
  5606                           status	equ	0xFD8
  5607                           
  5608 ;; *************** function _USBStdFeatureReqHandler *****************
  5609 ;; Defined at:
  5610 ;;		line 2757 in file "../../../../../../framework/usb/src/usb_device.c"
  5611 ;; Parameters:    Size  Location     Type
  5612 ;;		None
  5613 ;; Auto vars:     Size  Location     Type
  5614 ;;  p               2   25[COMRAM] PTR struct __BDT
  5615 ;;		 -> NULL(0), BDT(48), 
  5616 ;;  pUEP            2   22[COMRAM] PTR unsigned char 
  5617 ;;		 -> UEP0(1), 
  5618 ;;  current_ep_d    1   24[COMRAM] struct .
  5619 ;; Return value:  Size  Location     Type
  5620 ;;		None               void
  5621 ;; Registers used:
  5622 ;;		wreg, fsr2l, fsr2h, status,2, status,0, prodl, prodh, cstack
  5623 ;; Tracked objects:
  5624 ;;		On entry : 2/D
  5625 ;;		On exit  : 2/0
  5626 ;;		Unchanged: 0/0
  5627 ;; Data sizes:     COMRAM   BANK0   BANK1   BANK2   BANK3   BANK4   BANK5   BANK6   BANK7   BANK8   BANK9  BANK10  BANK1
      +1  BANK12  BANK13  BANK14
  5628 ;;      Params:         0       0       0       0       0       0       0       0       0       0       0       0       
      +0       0       0       0
  5629 ;;      Locals:         5       0       0       0       0       0       0       0       0       0       0       0       
      +0       0       0       0
  5630 ;;      Temps:          2       0       0       0       0       0       0       0       0       0       0       0       
      +0       0       0       0
  5631 ;;      Totals:         7       0       0       0       0       0       0       0       0       0       0       0       
      +0       0       0       0
  5632 ;;Total ram usage:        7 bytes
  5633 ;; Hardware stack levels used:    1
  5634 ;; Hardware stack levels required when called:    5
  5635 ;; This function calls:
  5636 ;;		_USER_USB_CALLBACK_EVENT_HANDLER
  5637 ;; This function is called by:
  5638 ;;		_USBCheckStdRequest
  5639 ;; This function uses a non-reentrant model
  5640 ;;
  5641                           
  5642                           	psect	text29
  5643  0011C8                     __ptext29:
  5644                           	opt stack 0
  5645  0011C8                     _USBStdFeatureReqHandler:
  5646                           	opt stack 17
  5647                           
  5648                           ;usb_device.c: 2759: BDT_ENTRY *p;
  5649                           ;usb_device.c: 2760: EP_STATUS current_ep_data;
  5650                           ;usb_device.c: 2764: unsigned char* pUEP;
  5651                           ;usb_device.c: 2802: if((SetupPkt.bFeature == 1)&&
  5652                           ;usb_device.c: 2803: (SetupPkt.Recipient == (0x00)))
  5653                           
  5654                           ;incstack = 0
  5655  0011C8  010D               	movlb	13	; () banked
  5656  0011CA  0532               	decf	50,w,b	;volatile
  5657  0011CC  E10B               	bnz	i2l3140
  5658                           
  5659                           ; BSR set to: 13
  5660  0011CE  5130               	movf	48,w,b	;volatile
  5661  0011D0  0B1F               	andlw	31
  5662  0011D2  E108               	bnz	i2l3140
  5663                           
  5664                           ; BSR set to: 13
  5665                           ;usb_device.c: 2804: {
  5666                           ;usb_device.c: 2805: inPipes[0].info.bits.busy = 1;
  5667  0011D4  8E0D               	bsf	_inPipes+3,7,c	;volatile
  5668                           
  5669                           ; BSR set to: 13
  5670                           ;usb_device.c: 2806: if(SetupPkt.bRequest == 3)
  5671  0011D6  0E03               	movlw	3
  5672  0011D8  1931               	xorwf	49,w,b	;volatile
  5673  0011DA  E103               	bnz	i2l624
  5674                           
  5675                           ; BSR set to: 13
  5676                           ;usb_device.c: 2807: RemoteWakeup = 1;
  5677  0011DC  0E01               	movlw	1
  5678  0011DE  6E1D               	movwf	_RemoteWakeup,c	;volatile
  5679  0011E0  D001               	goto	i2l3140
  5680  0011E2                     i2l624:
  5681                           
  5682                           ; BSR set to: 13
  5683                           ;usb_device.c: 2808: else
  5684                           ;usb_device.c: 2809: RemoteWakeup = 0;
  5685  0011E2  6A1D               	clrf	_RemoteWakeup,c	;volatile
  5686  0011E4                     i2l3140:
  5687                           
  5688                           ; BSR set to: 13
  5689                           ;usb_device.c: 2810: }
  5690                           ;usb_device.c: 2813: if((SetupPkt.bFeature == 0)&&
  5691                           ;usb_device.c: 2814: (SetupPkt.Recipient == (0x02))&&
  5692                           ;usb_device.c: 2815: (SetupPkt.EPNum != 0) && (SetupPkt.EPNum <= 2)&&
  5693                           ;usb_device.c: 2816: (USBDeviceState == CONFIGURED_STATE))
  5694  0011E4  5132               	movf	50,w,b	;volatile
  5695  0011E6  A4D8               	btfss	status,2,c
  5696  0011E8  0012               	return	
  5697                           
  5698                           ; BSR set to: 13
  5699  0011EA  5130               	movf	48,w,b	;volatile
  5700  0011EC  0B1F               	andlw	31
  5701  0011EE  0A02               	xorlw	2
  5702  0011F0  A4D8               	btfss	status,2,c
  5703  0011F2  0012               	return	
  5704                           
  5705                           ; BSR set to: 13
  5706  0011F4  5134               	movf	52,w,b	;volatile
  5707  0011F6  0B0F               	andlw	15
  5708  0011F8  B4D8               	btfsc	status,2,c
  5709  0011FA  0012               	return	
  5710                           
  5711                           ; BSR set to: 13
  5712  0011FC  5134               	movf	52,w,b	;volatile
  5713  0011FE  0B0F               	andlw	15
  5714  001200  6E3F               	movwf	??_USBStdFeatureReqHandler& (0+255),c
  5715  001202  0E03               	movlw	3
  5716  001204  603F               	cpfslt	??_USBStdFeatureReqHandler,c
  5717  001206  0C03               	retlw	3
  5718                           
  5719                           ; BSR set to: 13
  5720  001208  0E20               	movlw	32
  5721  00120A  1821               	xorwf	_USBDeviceState,w,c	;volatile
  5722  00120C  A4D8               	btfss	status,2,c
  5723  00120E  0012               	return	
  5724                           
  5725                           ; BSR set to: 13
  5726                           ;usb_device.c: 2817: {
  5727                           ;usb_device.c: 2820: inPipes[0].info.bits.busy = 1;
  5728  001210  8E0D               	bsf	_inPipes+3,7,c	;volatile
  5729                           
  5730                           ;usb_device.c: 2823: if(SetupPkt.EPDir == 0)
  5731  001212  BF34               	btfsc	52,7,b	;volatile
  5732  001214  D011               	goto	i2l3156
  5733                           
  5734                           ; BSR set to: 13
  5735                           ;usb_device.c: 2824: {
  5736                           ;usb_device.c: 2825: p = (BDT_ENTRY*)pBDTEntryOut[SetupPkt.EPNum];
  5737  001216  5134               	movf	52,w,b	;volatile
  5738  001218  0B0F               	andlw	15
  5739  00121A  0D02               	mullw	2
  5740  00121C  50F3               	movf	prodl,w,c
  5741  00121E  0F60               	addlw	low _pBDTEntryOut
  5742  001220  6ED9               	movwf	fsr2l,c
  5743  001222  6ADA               	clrf	fsr2h,c
  5744  001224  CFDE F044          	movff	postinc2,USBStdFeatureReqHandler@p
  5745  001228  CFDD F045          	movff	postdec2,USBStdFeatureReqHandler@p+1
  5746                           
  5747                           ; BSR set to: 13
  5748                           ;usb_device.c: 2826: current_ep_data.Val = ep_data_out[SetupPkt.EPNum].Val;
  5749  00122C  5134               	movf	52,w,b	;volatile
  5750  00122E  0B0F               	andlw	15
  5751  001230  6E3F               	movwf	??_USBStdFeatureReqHandler& (0+255),c
  5752  001232  503F               	movf	??_USBStdFeatureReqHandler,w,c
  5753  001234  0F69               	addlw	low _ep_data_out
  5754  001236  D010               	goto	L8
  5755  001238                     i2l3156:
  5756                           
  5757                           ; BSR set to: 13
  5758                           ;usb_device.c: 2828: else
  5759                           ;usb_device.c: 2829: {
  5760                           ;usb_device.c: 2830: p = (BDT_ENTRY*)pBDTEntryIn[SetupPkt.EPNum];
  5761  001238  5134               	movf	52,w,b	;volatile
  5762  00123A  0B0F               	andlw	15
  5763  00123C  0D02               	mullw	2
  5764  00123E  50F3               	movf	prodl,w,c
  5765  001240  0F10               	addlw	low _pBDTEntryIn
  5766  001242  6ED9               	movwf	fsr2l,c
  5767  001244  6ADA               	clrf	fsr2h,c
  5768  001246  CFDE F044          	movff	postinc2,USBStdFeatureReqHandler@p
  5769  00124A  CFDD F045          	movff	postdec2,USBStdFeatureReqHandler@p+1
  5770                           
  5771                           ; BSR set to: 13
  5772                           ;usb_device.c: 2831: current_ep_data.Val = ep_data_in[SetupPkt.EPNum].Val;
  5773  00124E  5134               	movf	52,w,b	;volatile
  5774  001250  0B0F               	andlw	15
  5775  001252  6E3F               	movwf	??_USBStdFeatureReqHandler& (0+255),c
  5776  001254  503F               	movf	??_USBStdFeatureReqHandler,w,c
  5777  001256  0F66               	addlw	low _ep_data_in
  5778  001258                     L8:
  5779  001258  6ED9               	movwf	fsr2l,c
  5780  00125A  6ADA               	clrf	fsr2h,c
  5781  00125C  50DF               	movf	indf2,w,c
  5782  00125E  6E43               	movwf	USBStdFeatureReqHandler@current_ep_data,c
  5783                           
  5784                           ; BSR set to: 13
  5785                           ;usb_device.c: 2832: }
  5786                           ;usb_device.c: 2838: if(current_ep_data.bits.ping_pong_state == 0)
  5787  001260  B043               	btfsc	USBStdFeatureReqHandler@current_ep_data,0,c
  5788  001262  D002               	goto	i2l3164
  5789                           
  5790                           ; BSR set to: 13
  5791                           ;usb_device.c: 2839: {
  5792                           ;usb_device.c: 2840: {((uint8_t_VAL*)&p)->Val &= ~0x0004;};
  5793  001264  9444               	bcf	USBStdFeatureReqHandler@p,2,c
  5794                           
  5795                           ;usb_device.c: 2841: }
  5796  001266  D001               	goto	i2l3166
  5797  001268                     i2l3164:
  5798                           
  5799                           ; BSR set to: 13
  5800                           ;usb_device.c: 2842: else
  5801                           ;usb_device.c: 2843: {
  5802                           ;usb_device.c: 2844: {((uint8_t_VAL*)&p)->Val |= 0x0004;};
  5803  001268  8444               	bsf	USBStdFeatureReqHandler@p,2,c
  5804  00126A                     i2l3166:
  5805                           
  5806                           ; BSR set to: 13
  5807                           ;usb_device.c: 2845: }
  5808                           ;usb_device.c: 2850: if(SetupPkt.EPDir == 0)
  5809  00126A  BF34               	btfsc	52,7,b	;volatile
  5810  00126C  D006               	goto	i2l3170
  5811                           
  5812                           ; BSR set to: 13
  5813                           ;usb_device.c: 2851: {
  5814                           ;usb_device.c: 2852: pBDTEntryOut[SetupPkt.EPNum] = (volatile BDT_ENTRY *)p;
  5815  00126E  5134               	movf	52,w,b	;volatile
  5816  001270  0B0F               	andlw	15
  5817  001272  0D02               	mullw	2
  5818  001274  50F3               	movf	prodl,w,c
  5819  001276  0F60               	addlw	low _pBDTEntryOut
  5820  001278  D005               	goto	L9
  5821  00127A                     i2l3170:
  5822                           
  5823                           ; BSR set to: 13
  5824                           ;usb_device.c: 2854: else
  5825                           ;usb_device.c: 2855: {
  5826                           ;usb_device.c: 2856: pBDTEntryIn[SetupPkt.EPNum] = (volatile BDT_ENTRY *)p;
  5827  00127A  5134               	movf	52,w,b	;volatile
  5828  00127C  0B0F               	andlw	15
  5829  00127E  0D02               	mullw	2
  5830  001280  50F3               	movf	prodl,w,c
  5831  001282  0F10               	addlw	low _pBDTEntryIn
  5832  001284                     L9:
  5833  001284  6ED9               	movwf	fsr2l,c
  5834  001286  6ADA               	clrf	fsr2h,c
  5835  001288  C044  FFDE         	movff	USBStdFeatureReqHandler@p,postinc2
  5836  00128C  C045  FFDD         	movff	USBStdFeatureReqHandler@p+1,postdec2
  5837                           
  5838                           ; BSR set to: 13
  5839                           ;usb_device.c: 2857: }
  5840                           ;usb_device.c: 2860: if(SetupPkt.bRequest == 3)
  5841  001290  0E03               	movlw	3
  5842  001292  1931               	xorwf	49,w,b	;volatile
  5843  001294  E123               	bnz	i2l3182
  5844                           
  5845                           ; BSR set to: 13
  5846                           ;usb_device.c: 2861: {
  5847                           ;usb_device.c: 2862: if(p->STAT.UOWN == 1)
  5848  001296  C044  FFD9         	movff	USBStdFeatureReqHandler@p,fsr2l
  5849  00129A  C045  FFDA         	movff	USBStdFeatureReqHandler@p+1,fsr2h
  5850  00129E  AEDF               	btfss	indf2,7,c
  5851  0012A0  D011               	goto	i2l634
  5852                           
  5853                           ; BSR set to: 13
  5854                           ;usb_device.c: 2863: {
  5855                           ;usb_device.c: 2866: if(SetupPkt.EPDir == 0)
  5856  0012A2  BF34               	btfsc	52,7,b	;volatile
  5857  0012A4  D006               	goto	i2l3180
  5858                           
  5859                           ; BSR set to: 13
  5860                           ;usb_device.c: 2867: {
  5861                           ;usb_device.c: 2868: ep_data_out[SetupPkt.EPNum].bits.transfer_terminated = 1;
  5862  0012A6  5134               	movf	52,w,b	;volatile
  5863  0012A8  0B0F               	andlw	15
  5864  0012AA  6E3F               	movwf	??_USBStdFeatureReqHandler& (0+255),c
  5865  0012AC  503F               	movf	??_USBStdFeatureReqHandler,w,c
  5866  0012AE  0F69               	addlw	low _ep_data_out
  5867  0012B0  D005               	goto	L10
  5868  0012B2                     i2l3180:
  5869                           
  5870                           ; BSR set to: 13
  5871                           ;usb_device.c: 2870: else
  5872                           ;usb_device.c: 2871: {
  5873                           ;usb_device.c: 2872: ep_data_in[SetupPkt.EPNum].bits.transfer_terminated = 1;
  5874  0012B2  5134               	movf	52,w,b	;volatile
  5875  0012B4  0B0F               	andlw	15
  5876  0012B6  6E3F               	movwf	??_USBStdFeatureReqHandler& (0+255),c
  5877  0012B8  503F               	movf	??_USBStdFeatureReqHandler,w,c
  5878  0012BA  0F66               	addlw	low _ep_data_in
  5879  0012BC                     L10:
  5880  0012BC  6ED9               	movwf	fsr2l,c
  5881  0012BE  6ADA               	clrf	fsr2h,c
  5882  0012C0  0100               	movlb	0	; () banked
  5883  0012C2  82DF               	bsf	indf2,1,c
  5884  0012C4                     i2l634:
  5885                           
  5886                           ;usb_device.c: 2873: }
  5887                           ;usb_device.c: 2874: }
  5888                           ;usb_device.c: 2877: p->STAT.Val |= 0x04;
  5889  0012C4  C044  FFD9         	movff	USBStdFeatureReqHandler@p,fsr2l
  5890  0012C8  C045  FFDA         	movff	USBStdFeatureReqHandler@p+1,fsr2h
  5891  0012CC  0E00               	movlw	0
  5892  0012CE  84DB               	bsf	plusw2,2,c
  5893                           
  5894                           ;usb_device.c: 2878: p->STAT.Val |= 0x80;
  5895  0012D0  C044  FFD9         	movff	USBStdFeatureReqHandler@p,fsr2l
  5896  0012D4  C045  FFDA         	movff	USBStdFeatureReqHandler@p+1,fsr2h
  5897  0012D8  8EDB               	bsf	plusw2,7,c
  5898                           
  5899                           ;usb_device.c: 2879: }
  5900  0012DA  0C00               	retlw	0
  5901  0012DC                     i2l3182:
  5902                           
  5903                           ; BSR set to: 13
  5904                           ;usb_device.c: 2880: else
  5905                           ;usb_device.c: 2881: {
  5906                           ;usb_device.c: 2885: {((uint8_t_VAL*)&p)->Val ^= 0x0004;};
  5907  0012DC  0E04               	movlw	4
  5908  0012DE  1A44               	xorwf	USBStdFeatureReqHandler@p,f,c
  5909                           
  5910                           ; BSR set to: 13
  5911                           ;usb_device.c: 2887: if(p->STAT.UOWN == 1)
  5912  0012E0  C044  FFD9         	movff	USBStdFeatureReqHandler@p,fsr2l
  5913  0012E4  C045  FFDA         	movff	USBStdFeatureReqHandler@p+1,fsr2h
  5914  0012E8  AEDF               	btfss	indf2,7,c
  5915  0012EA  D019               	goto	i2l3192
  5916                           
  5917                           ; BSR set to: 13
  5918                           ;usb_device.c: 2888: {
  5919                           ;usb_device.c: 2891: p->STAT.Val &= (~0x80);
  5920  0012EC  C044  FFD9         	movff	USBStdFeatureReqHandler@p,fsr2l
  5921  0012F0  C045  FFDA         	movff	USBStdFeatureReqHandler@p+1,fsr2h
  5922  0012F4  0E7F               	movlw	127
  5923  0012F6  16DF               	andwf	indf2,f,c
  5924                           
  5925                           ; BSR set to: 13
  5926                           ;usb_device.c: 2892: p->STAT.Val |= 0x40;
  5927  0012F8  C044  FFD9         	movff	USBStdFeatureReqHandler@p,fsr2l
  5928  0012FC  C045  FFDA         	movff	USBStdFeatureReqHandler@p+1,fsr2h
  5929  001300  0E00               	movlw	0
  5930  001302  8CDB               	bsf	plusw2,6,c
  5931                           
  5932                           ; BSR set to: 13
  5933                           ;usb_device.c: 2893: USER_USB_CALLBACK_EVENT_HANDLER(EVENT_TRANSFER_TERMINATED,p,sizeof(
      +                          p));
  5934  001304  6A38               	clrf	USER_USB_CALLBACK_EVENT_HANDLER@event+1,c
  5935  001306  0E05               	movlw	5
  5936  001308  6E37               	movwf	USER_USB_CALLBACK_EVENT_HANDLER@event,c
  5937  00130A  C044  F039         	movff	USBStdFeatureReqHandler@p,USER_USB_CALLBACK_EVENT_HANDLER@pdata
  5938  00130E  C045  F03A         	movff	USBStdFeatureReqHandler@p+1,USER_USB_CALLBACK_EVENT_HANDLER@pdata+1
  5939  001312  6A3C               	clrf	USER_USB_CALLBACK_EVENT_HANDLER@size+1,c
  5940  001314  0E02               	movlw	2
  5941  001316  6E3B               	movwf	USER_USB_CALLBACK_EVENT_HANDLER@size,c
  5942  001318  EC22  F012         	call	_USER_USB_CALLBACK_EVENT_HANDLER	;wreg free
  5943                           
  5944                           ;usb_device.c: 2894: }
  5945  00131C  D006               	goto	i2l3194
  5946  00131E                     i2l3192:
  5947                           
  5948                           ; BSR set to: 13
  5949                           ;usb_device.c: 2895: else
  5950                           ;usb_device.c: 2896: {
  5951                           ;usb_device.c: 2898: p->STAT.Val |= 0x40;
  5952  00131E  C044  FFD9         	movff	USBStdFeatureReqHandler@p,fsr2l
  5953  001322  C045  FFDA         	movff	USBStdFeatureReqHandler@p+1,fsr2h
  5954  001326  0E00               	movlw	0
  5955  001328  8CDB               	bsf	plusw2,6,c
  5956  00132A                     i2l3194:
  5957                           
  5958                           ;usb_device.c: 2899: }
  5959                           ;usb_device.c: 2903: {((uint8_t_VAL*)&p)->Val ^= 0x0004;};
  5960  00132A  0E04               	movlw	4
  5961  00132C  1A44               	xorwf	USBStdFeatureReqHandler@p,f,c
  5962                           
  5963                           ;usb_device.c: 2909: if((current_ep_data.bits.transfer_terminated != 0) || (p->STAT.UOWN
      +                           == 1))
  5964  00132E  B243               	btfsc	USBStdFeatureReqHandler@current_ep_data,1,c
  5965  001330  D006               	goto	i2l642
  5966  001332  C044  FFD9         	movff	USBStdFeatureReqHandler@p,fsr2l
  5967  001336  C045  FFDA         	movff	USBStdFeatureReqHandler@p+1,fsr2h
  5968  00133A  AEDF               	btfss	indf2,7,c
  5969  00133C  D025               	goto	i2l3208
  5970  00133E                     i2l642:
  5971                           
  5972                           ;usb_device.c: 2910: {
  5973                           ;usb_device.c: 2911: if(SetupPkt.EPDir == 0)
  5974  00133E  010D               	movlb	13	; () banked
  5975  001340  BF34               	btfsc	52,7,b	;volatile
  5976  001342  D006               	goto	i2l3202
  5977                           
  5978                           ; BSR set to: 13
  5979                           ;usb_device.c: 2912: {
  5980                           ;usb_device.c: 2913: ep_data_out[SetupPkt.EPNum].bits.transfer_terminated = 0;
  5981  001344  5134               	movf	52,w,b	;volatile
  5982  001346  0B0F               	andlw	15
  5983  001348  6E3F               	movwf	??_USBStdFeatureReqHandler& (0+255),c
  5984  00134A  503F               	movf	??_USBStdFeatureReqHandler,w,c
  5985  00134C  0F69               	addlw	low _ep_data_out
  5986  00134E  D005               	goto	L11
  5987  001350                     i2l3202:
  5988                           
  5989                           ; BSR set to: 13
  5990                           ;usb_device.c: 2915: else
  5991                           ;usb_device.c: 2916: {
  5992                           ;usb_device.c: 2917: ep_data_in[SetupPkt.EPNum].bits.transfer_terminated = 0;
  5993  001350  5134               	movf	52,w,b	;volatile
  5994  001352  0B0F               	andlw	15
  5995  001354  6E3F               	movwf	??_USBStdFeatureReqHandler& (0+255),c
  5996  001356  503F               	movf	??_USBStdFeatureReqHandler,w,c
  5997  001358  0F66               	addlw	low _ep_data_in
  5998  00135A                     L11:
  5999  00135A  6ED9               	movwf	fsr2l,c
  6000  00135C  6ADA               	clrf	fsr2h,c
  6001  00135E  0100               	movlb	0	; () banked
  6002  001360  92DF               	bcf	indf2,1,c
  6003                           
  6004                           ; BSR set to: 0
  6005                           ;usb_device.c: 2918: }
  6006                           ;usb_device.c: 2920: p->STAT.Val &= ~(0x80 | 0x40 | 0x04);
  6007  001362  C044  FFD9         	movff	USBStdFeatureReqHandler@p,fsr2l
  6008  001366  C045  FFDA         	movff	USBStdFeatureReqHandler@p+1,fsr2h
  6009  00136A  0E3B               	movlw	59
  6010  00136C  16DF               	andwf	indf2,f,c
  6011                           
  6012                           ; BSR set to: 0
  6013                           ;usb_device.c: 2923: USER_USB_CALLBACK_EVENT_HANDLER(EVENT_TRANSFER_TERMINATED,p,sizeof(
      +                          p));
  6014  00136E  6A38               	clrf	USER_USB_CALLBACK_EVENT_HANDLER@event+1,c
  6015  001370  0E05               	movlw	5
  6016  001372  6E37               	movwf	USER_USB_CALLBACK_EVENT_HANDLER@event,c
  6017  001374  C044  F039         	movff	USBStdFeatureReqHandler@p,USER_USB_CALLBACK_EVENT_HANDLER@pdata
  6018  001378  C045  F03A         	movff	USBStdFeatureReqHandler@p+1,USER_USB_CALLBACK_EVENT_HANDLER@pdata+1
  6019  00137C  6A3C               	clrf	USER_USB_CALLBACK_EVENT_HANDLER@size+1,c
  6020  00137E  0E02               	movlw	2
  6021  001380  6E3B               	movwf	USER_USB_CALLBACK_EVENT_HANDLER@size,c
  6022  001382  EC22  F012         	call	_USER_USB_CALLBACK_EVENT_HANDLER	;wreg free
  6023                           
  6024                           ;usb_device.c: 2924: }
  6025  001386  D006               	goto	i2l3210
  6026  001388                     i2l3208:
  6027                           
  6028                           ;usb_device.c: 2925: else
  6029                           ;usb_device.c: 2926: {
  6030                           ;usb_device.c: 2928: p->STAT.Val &= ~(0x80 | 0x40 | 0x04);
  6031  001388  C044  FFD9         	movff	USBStdFeatureReqHandler@p,fsr2l
  6032  00138C  C045  FFDA         	movff	USBStdFeatureReqHandler@p+1,fsr2h
  6033  001390  0E3B               	movlw	59
  6034  001392  16DF               	andwf	indf2,f,c
  6035  001394                     i2l3210:
  6036                           
  6037                           ;usb_device.c: 2929: }
  6038                           ;usb_device.c: 2976: pUEP = (unsigned char*)(&UEP0+SetupPkt.EPNum);
  6039  001394  010D               	movlb	13	; () banked
  6040  001396  5134               	movf	52,w,b	;volatile
  6041  001398  0B0F               	andlw	15
  6042  00139A  6E3F               	movwf	??_USBStdFeatureReqHandler& (0+255),c
  6043  00139C  6A40               	clrf	(??_USBStdFeatureReqHandler+1)& (0+255),c
  6044  00139E  0E26               	movlw	38
  6045  0013A0  243F               	addwf	??_USBStdFeatureReqHandler,w,c
  6046  0013A2  6E41               	movwf	USBStdFeatureReqHandler@pUEP,c
  6047  0013A4  0E0F               	movlw	15
  6048  0013A6  2040               	addwfc	??_USBStdFeatureReqHandler+1,w,c
  6049  0013A8  6E42               	movwf	USBStdFeatureReqHandler@pUEP+1,c
  6050                           
  6051                           ; BSR set to: 13
  6052                           ;usb_device.c: 2980: *pUEP &= ~0x0001;
  6053  0013AA  C041  FFD9         	movff	USBStdFeatureReqHandler@pUEP,fsr2l
  6054  0013AE  C042  FFDA         	movff	USBStdFeatureReqHandler@pUEP+1,fsr2h
  6055  0013B2  0EFE               	movlw	254
  6056  0013B4  16DF               	andwf	indf2,f,c
  6057  0013B6  0CFE               	retlw	254	;funcret
  6058  0013B8                     __end_of_USBStdFeatureReqHandler:
  6059                           	opt stack 0
  6060                           tblptru	equ	0xFF8
  6061                           tblptrh	equ	0xFF7
  6062                           tblptrl	equ	0xFF6
  6063                           tablat	equ	0xFF5
  6064                           prodh	equ	0xFF4
  6065                           prodl	equ	0xFF3
  6066                           intcon	equ	0xFF2
  6067                           postinc0	equ	0xFEE
  6068                           wreg	equ	0xFE8
  6069                           indf1	equ	0xFE7
  6070                           postdec1	equ	0xFE5
  6071                           fsr1h	equ	0xFE2
  6072                           fsr1l	equ	0xFE1
  6073                           indf2	equ	0xFDF
  6074                           postinc2	equ	0xFDE
  6075                           postdec2	equ	0xFDD
  6076                           plusw2	equ	0xFDB
  6077                           fsr2h	equ	0xFDA
  6078                           fsr2l	equ	0xFD9
  6079                           status	equ	0xFD8
  6080                           
  6081 ;; *************** function _USER_USB_CALLBACK_EVENT_HANDLER *****************
  6082 ;; Defined at:
  6083 ;;		line 105 in file "../src/main.c"
  6084 ;; Parameters:    Size  Location     Type
  6085 ;;  event           2   12[COMRAM] enum E9400
  6086 ;;  pdata           2   14[COMRAM] PTR void 
  6087 ;;		 -> USTATcopy(1), USBActiveConfiguration(1), NULL(0), BDT(48), 
  6088 ;;  size            2   16[COMRAM] unsigned int 
  6089 ;; Auto vars:     Size  Location     Type
  6090 ;;		None
  6091 ;; Return value:  Size  Location     Type
  6092 ;;                  1    wreg      unsigned char 
  6093 ;; Registers used:
  6094 ;;		wreg, fsr2l, fsr2h, status,2, status,0, prodl, prodh, cstack
  6095 ;; Tracked objects:
  6096 ;;		On entry : 0/F
  6097 ;;		On exit  : 0/0
  6098 ;;		Unchanged: 0/0
  6099 ;; Data sizes:     COMRAM   BANK0   BANK1   BANK2   BANK3   BANK4   BANK5   BANK6   BANK7   BANK8   BANK9  BANK10  BANK1
      +1  BANK12  BANK13  BANK14
  6100 ;;      Params:         6       0       0       0       0       0       0       0       0       0       0       0       
      +0       0       0       0
  6101 ;;      Locals:         0       0       0       0       0       0       0       0       0       0       0       0       
      +0       0       0       0
  6102 ;;      Temps:          2       0       0       0       0       0       0       0       0       0       0       0       
      +0       0       0       0
  6103 ;;      Totals:         8       0       0       0       0       0       0       0       0       0       0       0       
      +0       0       0       0
  6104 ;;Total ram usage:        8 bytes
  6105 ;; Hardware stack levels used:    1
  6106 ;; Hardware stack levels required when called:    4
  6107 ;; This function calls:
  6108 ;;		_APP_DeviceCDCBasicDemoInitialize
  6109 ;;		_APP_LEDUpdateUSBStatus
  6110 ;;		_USBCheckCDCRequest
  6111 ;; This function is called by:
  6112 ;;		_USBDeviceTasks
  6113 ;;		_USBStdSetCfgHandler
  6114 ;;		_USBSuspend
  6115 ;;		_USBWakeFromSuspend
  6116 ;;		_USBCtrlTrfSetupHandler
  6117 ;;		_USBCheckStdRequest
  6118 ;;		_USBStdFeatureReqHandler
  6119 ;; This function uses a non-reentrant model
  6120 ;;
  6121                           
  6122                           	psect	text30
  6123  002444                     __ptext30:
  6124                           	opt stack 0
  6125  002444                     _USER_USB_CALLBACK_EVENT_HANDLER:
  6126                           	opt stack 21
  6127  002444                     i2l2922:
  6128  002444  C037  F03D         	movff	USER_USB_CALLBACK_EVENT_HANDLER@event,??_USER_USB_CALLBACK_EVENT_HANDLER
  6129  002448  C038  F03E         	movff	USER_USB_CALLBACK_EVENT_HANDLER@event+1,??_USER_USB_CALLBACK_EVENT_HANDLER+1
  6130                           
  6131                           ; Switch on 2 bytes has been partitioned into a top level switch of size 1, and 2 sub-sw
      +                          itches
  6132                           ; Switch size 1, requested type "speed"
  6133                           ; Number of cases is 2, Range of values is 0 to 127
  6134                           ; switch strategies available:
  6135                           ; Name         Instructions Cycles
  6136                           ; simple_byte            7     4 (average)
  6137                           ;	Chosen strategy is simple_byte
  6138  00244C  503E               	movf	??_USER_USB_CALLBACK_EVENT_HANDLER+1,w,c
  6139  00244E  E004               	bz	i2l4402
  6140  002450  0A7F               	xorlw	127	; case 127
  6141  002452  A4D8               	btfss	status,2,c
  6142  002454  0012               	return	
  6143  002456  D01F               	goto	i2l4404
  6144  002458                     i2l4402:
  6145                           
  6146                           ; Switch size 1, requested type "speed"
  6147                           ; Number of cases is 8, Range of values is 1 to 117
  6148                           ; switch strategies available:
  6149                           ; Name         Instructions Cycles
  6150                           ; simple_byte           25    13 (average)
  6151                           ;	Chosen strategy is simple_byte
  6152  002458  503D               	movf	??_USER_USB_CALLBACK_EVENT_HANDLER,w,c
  6153  00245A  0A01               	xorlw	1	; case 1
  6154  00245C  E102 EF9C  F013    	bz	_APP_DeviceCDCBasicDemoInitialize
  6155  002462  0A03               	xorlw	3	; case 2
  6156  002464  B4D8               	btfsc	status,2,c
  6157  002466  0012               	return	
  6158  002468  0A01               	xorlw	1	; case 3
  6159  00246A  E102 EF10  F011    	bz	_USBCheckCDCRequest
  6160  002470  0A06               	xorlw	6	; case 5
  6161  002472  B4D8               	btfsc	status,2,c
  6162  002474  0012               	return	
  6163  002476  0A77               	xorlw	119	; case 114
  6164  002478  B4D8               	btfsc	status,2,c
  6165  00247A  0012               	return	
  6166  00247C  0A01               	xorlw	1	; case 115
  6167  00247E  E102 EF90  F011    	bz	_APP_LEDUpdateUSBStatus
  6168  002484  0A07               	xorlw	7	; case 116
  6169  002486  E102 EF90  F011    	bz	_APP_LEDUpdateUSBStatus
  6170  00248C  0A01               	xorlw	1	; case 117
  6171  00248E  A4D8               	btfss	status,2,c
  6172  002490  0012               	return	
  6173  002492  EF90  F011         	goto	_APP_LEDUpdateUSBStatus
  6174  002496                     i2l4404:
  6175                           
  6176                           ; Switch size 1, requested type "speed"
  6177                           ; Number of cases is 1, Range of values is 255 to 255
  6178                           ; switch strategies available:
  6179                           ; Name         Instructions Cycles
  6180                           ; simple_byte            4     3 (average)
  6181                           ;	Chosen strategy is simple_byte
  6182  002496  1C3D               	comf	??_USER_USB_CALLBACK_EVENT_HANDLER,w,c
  6183  002498  0012               	return	
  6184  00249A                     __end_of_USER_USB_CALLBACK_EVENT_HANDLER:
  6185                           	opt stack 0
  6186                           tblptru	equ	0xFF8
  6187                           tblptrh	equ	0xFF7
  6188                           tblptrl	equ	0xFF6
  6189                           tablat	equ	0xFF5
  6190                           prodh	equ	0xFF4
  6191                           prodl	equ	0xFF3
  6192                           intcon	equ	0xFF2
  6193                           postinc0	equ	0xFEE
  6194                           wreg	equ	0xFE8
  6195                           indf1	equ	0xFE7
  6196                           postdec1	equ	0xFE5
  6197                           fsr1h	equ	0xFE2
  6198                           fsr1l	equ	0xFE1
  6199                           indf2	equ	0xFDF
  6200                           postinc2	equ	0xFDE
  6201                           postdec2	equ	0xFDD
  6202                           plusw2	equ	0xFDB
  6203                           fsr2h	equ	0xFDA
  6204                           fsr2l	equ	0xFD9
  6205                           status	equ	0xFD8
  6206                           
  6207 ;; *************** function _USBCheckCDCRequest *****************
  6208 ;; Defined at:
  6209 ;;		line 204 in file "../../../../../../framework/usb/src/usb_device_cdc.c"
  6210 ;; Parameters:    Size  Location     Type
  6211 ;;		None
  6212 ;; Auto vars:     Size  Location     Type
  6213 ;;		None
  6214 ;; Return value:  Size  Location     Type
  6215 ;;		None               void
  6216 ;; Registers used:
  6217 ;;		wreg, status,2, status,0
  6218 ;; Tracked objects:
  6219 ;;		On entry : 0/F
  6220 ;;		On exit  : F/D
  6221 ;;		Unchanged: 0/0
  6222 ;; Data sizes:     COMRAM   BANK0   BANK1   BANK2   BANK3   BANK4   BANK5   BANK6   BANK7   BANK8   BANK9  BANK10  BANK1
      +1  BANK12  BANK13  BANK14
  6223 ;;      Params:         0       0       0       0       0       0       0       0       0       0       0       0       
      +0       0       0       0
  6224 ;;      Locals:         0       0       0       0       0       0       0       0       0       0       0       0       
      +0       0       0       0
  6225 ;;      Temps:          0       0       0       0       0       0       0       0       0       0       0       0       
      +0       0       0       0
  6226 ;;      Totals:         0       0       0       0       0       0       0       0       0       0       0       0       
      +0       0       0       0
  6227 ;;Total ram usage:        0 bytes
  6228 ;; Hardware stack levels used:    1
  6229 ;; This function calls:
  6230 ;;		Nothing
  6231 ;; This function is called by:
  6232 ;;		_USER_USB_CALLBACK_EVENT_HANDLER
  6233 ;; This function uses a non-reentrant model
  6234 ;;
  6235                           
  6236                           	psect	text31
  6237  002220                     __ptext31:
  6238                           	opt stack 0
  6239  002220                     _USBCheckCDCRequest:
  6240                           	opt stack 24
  6241                           
  6242                           ;usb_device_cdc.c: 209: if(SetupPkt.Recipient != (0x01)) return;
  6243                           
  6244                           ;incstack = 0
  6245  002220  010D               	movlb	13	; () banked
  6246  002222  5130               	movf	48,w,b	;volatile
  6247  002224  0B1F               	andlw	31
  6248  002226  06E8               	decf	wreg,f,c
  6249  002228  E001               	bz	i2l2866
  6250  00222A  0012               	return	
  6251  00222C                     i2l2866:
  6252                           
  6253                           ; BSR set to: 13
  6254                           ;usb_device_cdc.c: 214: if(SetupPkt.RequestType != (0x20>>5)) return;
  6255  00222C  3930               	swapf	48,w,b	;volatile
  6256  00222E  32E8               	rrcf	wreg,f,c
  6257  002230  0B03               	andlw	3
  6258  002232  06E8               	decf	wreg,f,c
  6259  002234  E001               	bz	i2l2870
  6260  002236  0012               	return	
  6261  002238                     i2l2870:
  6262                           
  6263                           ; BSR set to: 13
  6264                           ;usb_device_cdc.c: 220: if((SetupPkt.bIntfID != 0x0)&&
  6265                           ;usb_device_cdc.c: 221: (SetupPkt.bIntfID != 0x01)) return;
  6266  002238  5134               	movf	52,w,b	;volatile
  6267  00223A  E028               	bz	i2l2906
  6268                           
  6269                           ; BSR set to: 13
  6270  00223C  0534               	decf	52,w,b	;volatile
  6271  00223E  E026               	bz	i2l2906
  6272  002240  0012               	return	
  6273  002242                     i2l2876:
  6274                           
  6275                           ; BSR set to: 13
  6276                           ;usb_device_cdc.c: 228: inPipes[0].pSrc.bRam = (uint8_t*)&dummy_encapsulated_cmd_respons
      +                          e;
  6277  002242  0EBD               	movlw	low _dummy_encapsulated_cmd_response
  6278  002244  6E0A               	movwf	_inPipes,c	;volatile
  6279  002246  6A0B               	clrf	_inPipes+1,c	;volatile
  6280                           
  6281                           ; BSR set to: 13
  6282                           ;usb_device_cdc.c: 229: inPipes[0].wCount.Val = 0x08;
  6283  002248  6A0F               	clrf	_inPipes+5,c	;volatile
  6284  00224A  0E08               	movlw	8
  6285  00224C  6E0E               	movwf	_inPipes+4,c	;volatile
  6286                           
  6287                           ; BSR set to: 13
  6288                           ;usb_device_cdc.c: 230: inPipes[0].info.bits.ctrl_trf_mem = 0x01;
  6289  00224E  800D               	bsf	_inPipes+3,0,c	;volatile
  6290                           
  6291                           ; BSR set to: 13
  6292                           ;usb_device_cdc.c: 231: inPipes[0].info.bits.busy = 1;
  6293  002250  8E0D               	bsf	_inPipes+3,7,c	;volatile
  6294                           
  6295                           ;usb_device_cdc.c: 232: break;
  6296  002252  0C08               	retlw	8
  6297  002254                     i2l2884:
  6298                           
  6299                           ; BSR set to: 13
  6300                           ;usb_device_cdc.c: 235: inPipes[0].pSrc.bRam = (uint8_t*)&dummy_encapsulated_cmd_respons
      +                          e;
  6301  002254  0EBD               	movlw	low _dummy_encapsulated_cmd_response
  6302  002256  6E0A               	movwf	_inPipes,c	;volatile
  6303  002258  6A0B               	clrf	_inPipes+1,c	;volatile
  6304                           
  6305                           ; BSR set to: 13
  6306                           ;usb_device_cdc.c: 236: inPipes[0].info.bits.busy = 1;
  6307  00225A  8E0D               	bsf	_inPipes+3,7,c	;volatile
  6308                           
  6309                           ;usb_device_cdc.c: 237: break;
  6310  00225C  0012               	return	
  6311  00225E                     i2l699:
  6312                           
  6313                           ; BSR set to: 13
  6314                           ;usb_device_cdc.c: 242: outPipes[0].wCount.Val = SetupPkt.wLength;
  6315  00225E  CD36 F005          	movff	3382,_outPipes+4	;volatile
  6316  002262  CD37 F006          	movff	3383,_outPipes+5	;volatile
  6317                           
  6318                           ; BSR set to: 13
  6319                           ;usb_device_cdc.c: 243: outPipes[0].pDst.bRam = (uint8_t*)&line_coding._byte[0];
  6320  002266  0EC5               	movlw	low _line_coding
  6321  002268  6E01               	movwf	_outPipes,c	;volatile
  6322                           
  6323                           ; BSR set to: 13
  6324                           ;usb_device_cdc.c: 244: outPipes[0].pFunc = (0);
  6325  00226A  6A07               	clrf	_outPipes+6,c	;volatile
  6326  00226C  6A08               	clrf	_outPipes+7,c	;volatile
  6327  00226E  6A09               	clrf	_outPipes+8,c	;volatile
  6328                           
  6329                           ; BSR set to: 13
  6330                           ;usb_device_cdc.c: 245: outPipes[0].info.bits.busy = 1;
  6331  002270  8E04               	bsf	_outPipes+3,7,c	;volatile
  6332                           
  6333                           ;usb_device_cdc.c: 246: break;
  6334  002272  0012               	return	
  6335  002274                     i2l2894:
  6336                           
  6337                           ; BSR set to: 13
  6338                           ;usb_device_cdc.c: 249: { inPipes[0].pSrc.bRam = (uint8_t*)&line_coding; inPipes[0].wCou
      +                          nt.Val = 0x07; inPipes[0].info.Val = 0x40 | 0x80 | 0x01; };
  6339  002274  0EC5               	movlw	low _line_coding
  6340  002276  6E0A               	movwf	_inPipes,c	;volatile
  6341  002278  6A0B               	clrf	_inPipes+1,c	;volatile
  6342                           
  6343                           ; BSR set to: 13
  6344  00227A  6A0F               	clrf	_inPipes+5,c	;volatile
  6345  00227C  0E07               	movlw	7
  6346  00227E  6E0E               	movwf	_inPipes+4,c	;volatile
  6347                           
  6348                           ; BSR set to: 13
  6349  002280  0EC1               	movlw	193
  6350  002282  6E0D               	movwf	_inPipes+3,c	;volatile
  6351                           
  6352                           ;usb_device_cdc.c: 253: break;
  6353  002284  0CC1               	retlw	193
  6354  002286                     i2l2900:
  6355                           
  6356                           ; BSR set to: 13
  6357                           ;usb_device_cdc.c: 256: control_signal_bitmap._byte = (uint8_t)SetupPkt.wValue;
  6358  002286  5132               	movf	50,w,b	;volatile
  6359                           
  6360                           ; BSR set to: 13
  6361                           ;usb_device_cdc.c: 288: inPipes[0].info.bits.busy = 1;
  6362  002288  8E0D               	bsf	_inPipes+3,7,c	;volatile
  6363                           
  6364                           ;usb_device_cdc.c: 289: break;
  6365  00228A  0012               	return	
  6366  00228C                     i2l2906:
  6367                           
  6368                           ; BSR set to: 13
  6369  00228C  5131               	movf	49,w,b	;volatile
  6370                           
  6371                           ; Switch size 1, requested type "speed"
  6372                           ; Number of cases is 5, Range of values is 0 to 34
  6373                           ; switch strategies available:
  6374                           ; Name         Instructions Cycles
  6375                           ; simple_byte           16     9 (average)
  6376                           ;	Chosen strategy is simple_byte
  6377  00228E  E0D9               	bz	i2l2876
  6378  002290  0A01               	xorlw	1	; case 1
  6379  002292  E0E0               	bz	i2l2884
  6380  002294  0A21               	xorlw	33	; case 32
  6381  002296  E0E3               	bz	i2l699
  6382  002298  0A01               	xorlw	1	; case 33
  6383  00229A  E0EC               	bz	i2l2894
  6384  00229C  0A03               	xorlw	3	; case 34
  6385  00229E  E0F3               	bz	i2l2900
  6386                           
  6387                           ; BSR set to: 13
  6388  0022A0  0012               	return		;funcret
  6389  0022A2                     __end_of_USBCheckCDCRequest:
  6390                           	opt stack 0
  6391                           tblptru	equ	0xFF8
  6392                           tblptrh	equ	0xFF7
  6393                           tblptrl	equ	0xFF6
  6394                           tablat	equ	0xFF5
  6395                           prodh	equ	0xFF4
  6396                           prodl	equ	0xFF3
  6397                           intcon	equ	0xFF2
  6398                           postinc0	equ	0xFEE
  6399                           wreg	equ	0xFE8
  6400                           indf1	equ	0xFE7
  6401                           postdec1	equ	0xFE5
  6402                           fsr1h	equ	0xFE2
  6403                           fsr1l	equ	0xFE1
  6404                           indf2	equ	0xFDF
  6405                           postinc2	equ	0xFDE
  6406                           postdec2	equ	0xFDD
  6407                           plusw2	equ	0xFDB
  6408                           fsr2h	equ	0xFDA
  6409                           fsr2l	equ	0xFD9
  6410                           status	equ	0xFD8
  6411                           
  6412 ;; *************** function _APP_LEDUpdateUSBStatus *****************
  6413 ;; Defined at:
  6414 ;;		line 75 in file "../src/app_led_usb_status.c"
  6415 ;; Parameters:    Size  Location     Type
  6416 ;;		None
  6417 ;; Auto vars:     Size  Location     Type
  6418 ;;		None
  6419 ;; Return value:  Size  Location     Type
  6420 ;;		None               void
  6421 ;; Registers used:
  6422 ;;		wreg, status,2, status,0, cstack
  6423 ;; Tracked objects:
  6424 ;;		On entry : 0/F
  6425 ;;		On exit  : 0/0
  6426 ;;		Unchanged: 0/0
  6427 ;; Data sizes:     COMRAM   BANK0   BANK1   BANK2   BANK3   BANK4   BANK5   BANK6   BANK7   BANK8   BANK9  BANK10  BANK1
      +1  BANK12  BANK13  BANK14
  6428 ;;      Params:         0       0       0       0       0       0       0       0       0       0       0       0       
      +0       0       0       0
  6429 ;;      Locals:         0       0       0       0       0       0       0       0       0       0       0       0       
      +0       0       0       0
  6430 ;;      Temps:          0       0       0       0       0       0       0       0       0       0       0       0       
      +0       0       0       0
  6431 ;;      Totals:         0       0       0       0       0       0       0       0       0       0       0       0       
      +0       0       0       0
  6432 ;;Total ram usage:        0 bytes
  6433 ;; Hardware stack levels used:    1
  6434 ;; Hardware stack levels required when called:    1
  6435 ;; This function calls:
  6436 ;;		_LED_Off
  6437 ;;		_LED_On
  6438 ;; This function is called by:
  6439 ;;		_USER_USB_CALLBACK_EVENT_HANDLER
  6440 ;; This function uses a non-reentrant model
  6441 ;;
  6442                           
  6443                           	psect	text32
  6444  002320                     __ptext32:
  6445                           	opt stack 0
  6446  002320                     _APP_LEDUpdateUSBStatus:
  6447                           	opt stack 23
  6448                           
  6449                           ;app_led_usb_status.c: 77: static uint16_t ledCount = 0;
  6450                           ;app_led_usb_status.c: 79: if(UCONbits.SUSPND == 1)
  6451                           
  6452                           ; BSR set to: 13
  6453                           ;incstack = 0
  6454  002320  A265               	btfss	3941,1,c	;volatile
  6455  002322  D02E               	goto	i2l2858
  6456                           
  6457                           ;app_led_usb_status.c: 80: {
  6458                           ;app_led_usb_status.c: 81: LED_Off(LED_D1);
  6459  002324  0E01               	movlw	1
  6460  002326  EFD5  F013         	goto	_LED_Off
  6461  00232A                     i2l2832:
  6462                           
  6463                           ;app_led_usb_status.c: 90: if(ledCount == 1)
  6464  00232A  0416               	decf	APP_LEDUpdateUSBStatus@ledCount,w,c
  6465  00232C  1017               	iorwf	APP_LEDUpdateUSBStatus@ledCount+1,w,c
  6466  00232E  E104               	bnz	i2l2836
  6467                           
  6468                           ;app_led_usb_status.c: 91: {
  6469                           ;app_led_usb_status.c: 92: LED_On(LED_D1);
  6470  002330  0E01               	movlw	1
  6471  002332  ECC7  F013         	call	_LED_On
  6472                           
  6473                           ;app_led_usb_status.c: 93: }
  6474  002336  D028               	goto	i2l2860
  6475  002338                     i2l2836:
  6476                           
  6477                           ;app_led_usb_status.c: 94: else if(ledCount == 75)
  6478  002338  0E4B               	movlw	75
  6479  00233A  1816               	xorwf	APP_LEDUpdateUSBStatus@ledCount,w,c
  6480  00233C  1017               	iorwf	APP_LEDUpdateUSBStatus@ledCount+1,w,c
  6481  00233E  E104               	bnz	i2l2840
  6482                           
  6483                           ;app_led_usb_status.c: 95: {
  6484                           ;app_led_usb_status.c: 96: LED_Off(LED_D1);
  6485  002340  0E01               	movlw	1
  6486  002342  ECD5  F013         	call	_LED_Off
  6487                           
  6488                           ;app_led_usb_status.c: 97: }
  6489  002346  D020               	goto	i2l2860
  6490  002348                     i2l2840:
  6491                           
  6492                           ;app_led_usb_status.c: 98: else if(ledCount > 150)
  6493  002348  5017               	movf	APP_LEDUpdateUSBStatus@ledCount+1,w,c
  6494  00234A  E103               	bnz	i2u171_40
  6495  00234C  0E97               	movlw	151
  6496  00234E  5C16               	subwf	APP_LEDUpdateUSBStatus@ledCount,w,c
  6497  002350  E31B               	bnc	i2l2860
  6498  002352                     i2u171_40:
  6499                           
  6500                           ;app_led_usb_status.c: 99: {
  6501                           ;app_led_usb_status.c: 100: ledCount = 0;
  6502  002352  6A16               	clrf	APP_LEDUpdateUSBStatus@ledCount,c
  6503  002354  6A17               	clrf	APP_LEDUpdateUSBStatus@ledCount+1,c
  6504                           
  6505                           ;app_led_usb_status.c: 101: }
  6506                           ;app_led_usb_status.c: 102: break;
  6507  002356  D018               	goto	i2l2860
  6508  002358                     i2l2844:
  6509                           
  6510                           ;app_led_usb_status.c: 107: if(ledCount == 1)
  6511  002358  0416               	decf	APP_LEDUpdateUSBStatus@ledCount,w,c
  6512  00235A  1017               	iorwf	APP_LEDUpdateUSBStatus@ledCount+1,w,c
  6513  00235C  E104               	bnz	i2l2848
  6514                           
  6515                           ;app_led_usb_status.c: 108: {
  6516                           ;app_led_usb_status.c: 109: LED_On(LED_D1);
  6517  00235E  0E01               	movlw	1
  6518  002360  ECC7  F013         	call	_LED_On
  6519                           
  6520                           ;app_led_usb_status.c: 110: }
  6521  002364  D011               	goto	i2l2860
  6522  002366                     i2l2848:
  6523                           
  6524                           ;app_led_usb_status.c: 111: else if(ledCount == 50)
  6525  002366  0E32               	movlw	50
  6526  002368  1816               	xorwf	APP_LEDUpdateUSBStatus@ledCount,w,c
  6527  00236A  1017               	iorwf	APP_LEDUpdateUSBStatus@ledCount+1,w,c
  6528  00236C  E104               	bnz	i2l2852
  6529                           
  6530                           ;app_led_usb_status.c: 112: {
  6531                           ;app_led_usb_status.c: 113: LED_Off(LED_D1);
  6532  00236E  0E01               	movlw	1
  6533  002370  ECD5  F013         	call	_LED_Off
  6534                           
  6535                           ;app_led_usb_status.c: 114: }
  6536  002374  D009               	goto	i2l2860
  6537  002376                     i2l2852:
  6538                           
  6539                           ;app_led_usb_status.c: 115: else if(ledCount > 950)
  6540  002376  0EB7               	movlw	183
  6541  002378  5C16               	subwf	APP_LEDUpdateUSBStatus@ledCount,w,c
  6542  00237A  0E03               	movlw	3
  6543  00237C  5817               	subwfb	APP_LEDUpdateUSBStatus@ledCount+1,w,c
  6544  00237E  D7E8               	goto	L12
  6545  002380                     i2l2858:
  6546  002380  5021               	movf	_USBDeviceState,w,c	;volatile
  6547                           
  6548                           ; Switch size 1, requested type "speed"
  6549                           ; Number of cases is 1, Range of values is 32 to 32
  6550                           ; switch strategies available:
  6551                           ; Name         Instructions Cycles
  6552                           ; simple_byte            4     3 (average)
  6553                           ;	Chosen strategy is simple_byte
  6554  002382  0A20               	xorlw	32	; case 32
  6555  002384  E0D2               	bz	i2l2832
  6556  002386  D7E8               	goto	i2l2844
  6557  002388                     i2l2860:
  6558                           
  6559                           ;app_led_usb_status.c: 123: ledCount++;
  6560  002388  4A16               	infsnz	APP_LEDUpdateUSBStatus@ledCount,f,c
  6561  00238A  2A17               	incf	APP_LEDUpdateUSBStatus@ledCount+1,f,c
  6562  00238C  0012               	return		;funcret
  6563  00238E                     __end_of_APP_LEDUpdateUSBStatus:
  6564                           	opt stack 0
  6565                           tblptru	equ	0xFF8
  6566                           tblptrh	equ	0xFF7
  6567                           tblptrl	equ	0xFF6
  6568                           tablat	equ	0xFF5
  6569                           prodh	equ	0xFF4
  6570                           prodl	equ	0xFF3
  6571                           intcon	equ	0xFF2
  6572                           postinc0	equ	0xFEE
  6573                           wreg	equ	0xFE8
  6574                           indf1	equ	0xFE7
  6575                           postdec1	equ	0xFE5
  6576                           fsr1h	equ	0xFE2
  6577                           fsr1l	equ	0xFE1
  6578                           indf2	equ	0xFDF
  6579                           postinc2	equ	0xFDE
  6580                           postdec2	equ	0xFDD
  6581                           plusw2	equ	0xFDB
  6582                           fsr2h	equ	0xFDA
  6583                           fsr2l	equ	0xFD9
  6584                           status	equ	0xFD8
  6585                           
  6586 ;; *************** function _LED_On *****************
  6587 ;; Defined at:
  6588 ;;		line 55 in file "../../../../../../bsp/pic18f27j53_pim/leds.c"
  6589 ;; Parameters:    Size  Location     Type
  6590 ;;  led             1    wreg     enum E2
  6591 ;; Auto vars:     Size  Location     Type
  6592 ;;  led             1    0[COMRAM] enum E2
  6593 ;; Return value:  Size  Location     Type
  6594 ;;		None               void
  6595 ;; Registers used:
  6596 ;;		wreg, status,2, status,0
  6597 ;; Tracked objects:
  6598 ;;		On entry : 0/F
  6599 ;;		On exit  : 0/0
  6600 ;;		Unchanged: 0/0
  6601 ;; Data sizes:     COMRAM   BANK0   BANK1   BANK2   BANK3   BANK4   BANK5   BANK6   BANK7   BANK8   BANK9  BANK10  BANK1
      +1  BANK12  BANK13  BANK14
  6602 ;;      Params:         0       0       0       0       0       0       0       0       0       0       0       0       
      +0       0       0       0
  6603 ;;      Locals:         1       0       0       0       0       0       0       0       0       0       0       0       
      +0       0       0       0
  6604 ;;      Temps:          0       0       0       0       0       0       0       0       0       0       0       0       
      +0       0       0       0
  6605 ;;      Totals:         1       0       0       0       0       0       0       0       0       0       0       0       
      +0       0       0       0
  6606 ;;Total ram usage:        1 bytes
  6607 ;; Hardware stack levels used:    1
  6608 ;; This function calls:
  6609 ;;		Nothing
  6610 ;; This function is called by:
  6611 ;;		_APP_LEDUpdateUSBStatus
  6612 ;; This function uses a non-reentrant model
  6613 ;;
  6614                           
  6615                           	psect	text33
  6616  00278E                     __ptext33:
  6617                           	opt stack 0
  6618  00278E                     _LED_On:
  6619                           	opt stack 23
  6620                           
  6621                           ;incstack = 0
  6622                           ;LED_On@led stored from wreg
  6623  00278E  6E2B               	movwf	LED_On@led,c
  6624                           
  6625                           ;leds.c: 57: switch(led)
  6626  002790  D004               	goto	i2l2812
  6627  002792                     i2l227:
  6628                           
  6629                           ;leds.c: 60: LATAbits.LATA0 = 1;
  6630  002792  8089               	bsf	3977,0,c	;volatile
  6631                           
  6632                           ;leds.c: 61: break;
  6633  002794  0012               	return	
  6634  002796                     i2l229:
  6635                           
  6636                           ;leds.c: 64: LATAbits.LATA1 = 1;
  6637  002796  8289               	bsf	3977,1,c	;volatile
  6638                           
  6639                           ;leds.c: 65: break;
  6640  002798  0012               	return	
  6641  00279A                     i2l2812:
  6642  00279A  502B               	movf	LED_On@led,w,c
  6643                           
  6644                           ; Switch size 1, requested type "speed"
  6645                           ; Number of cases is 3, Range of values is 0 to 2
  6646                           ; switch strategies available:
  6647                           ; Name         Instructions Cycles
  6648                           ; simple_byte           10     6 (average)
  6649                           ;	Chosen strategy is simple_byte
  6650  00279C  B4D8               	btfsc	status,2,c
  6651  00279E  0012               	return	
  6652  0027A0  0A01               	xorlw	1	; case 1
  6653  0027A2  E0F7               	bz	i2l227
  6654  0027A4  0A03               	xorlw	3	; case 2
  6655  0027A6  E0F7               	bz	i2l229
  6656  0027A8  0012               	return		;funcret
  6657  0027AA                     __end_of_LED_On:
  6658                           	opt stack 0
  6659                           tblptru	equ	0xFF8
  6660                           tblptrh	equ	0xFF7
  6661                           tblptrl	equ	0xFF6
  6662                           tablat	equ	0xFF5
  6663                           prodh	equ	0xFF4
  6664                           prodl	equ	0xFF3
  6665                           intcon	equ	0xFF2
  6666                           postinc0	equ	0xFEE
  6667                           wreg	equ	0xFE8
  6668                           indf1	equ	0xFE7
  6669                           postdec1	equ	0xFE5
  6670                           fsr1h	equ	0xFE2
  6671                           fsr1l	equ	0xFE1
  6672                           indf2	equ	0xFDF
  6673                           postinc2	equ	0xFDE
  6674                           postdec2	equ	0xFDD
  6675                           plusw2	equ	0xFDB
  6676                           fsr2h	equ	0xFDA
  6677                           fsr2l	equ	0xFD9
  6678                           status	equ	0xFD8
  6679                           
  6680 ;; *************** function _LED_Off *****************
  6681 ;; Defined at:
  6682 ;;		line 88 in file "../../../../../../bsp/pic18f27j53_pim/leds.c"
  6683 ;; Parameters:    Size  Location     Type
  6684 ;;  led             1    wreg     enum E2
  6685 ;; Auto vars:     Size  Location     Type
  6686 ;;  led             1    0[COMRAM] enum E2
  6687 ;; Return value:  Size  Location     Type
  6688 ;;		None               void
  6689 ;; Registers used:
  6690 ;;		wreg, status,2, status,0
  6691 ;; Tracked objects:
  6692 ;;		On entry : 0/F
  6693 ;;		On exit  : 0/0
  6694 ;;		Unchanged: 0/0
  6695 ;; Data sizes:     COMRAM   BANK0   BANK1   BANK2   BANK3   BANK4   BANK5   BANK6   BANK7   BANK8   BANK9  BANK10  BANK1
      +1  BANK12  BANK13  BANK14
  6696 ;;      Params:         0       0       0       0       0       0       0       0       0       0       0       0       
      +0       0       0       0
  6697 ;;      Locals:         1       0       0       0       0       0       0       0       0       0       0       0       
      +0       0       0       0
  6698 ;;      Temps:          0       0       0       0       0       0       0       0       0       0       0       0       
      +0       0       0       0
  6699 ;;      Totals:         1       0       0       0       0       0       0       0       0       0       0       0       
      +0       0       0       0
  6700 ;;Total ram usage:        1 bytes
  6701 ;; Hardware stack levels used:    1
  6702 ;; This function calls:
  6703 ;;		Nothing
  6704 ;; This function is called by:
  6705 ;;		_APP_LEDUpdateUSBStatus
  6706 ;; This function uses a non-reentrant model
  6707 ;;
  6708                           
  6709                           	psect	text34
  6710  0027AA                     __ptext34:
  6711                           	opt stack 0
  6712  0027AA                     _LED_Off:
  6713                           	opt stack 23
  6714                           
  6715                           ;incstack = 0
  6716                           ;LED_Off@led stored from wreg
  6717  0027AA  6E2B               	movwf	LED_Off@led,c
  6718                           
  6719                           ;leds.c: 90: switch(led)
  6720  0027AC  D004               	goto	i2l2806
  6721  0027AE                     i2l235:
  6722                           
  6723                           ;leds.c: 93: LATAbits.LATA0 = 0;
  6724  0027AE  9089               	bcf	3977,0,c	;volatile
  6725                           
  6726                           ;leds.c: 94: break;
  6727  0027B0  0012               	return	
  6728  0027B2                     i2l237:
  6729                           
  6730                           ;leds.c: 97: LATAbits.LATA1 = 0;
  6731  0027B2  9289               	bcf	3977,1,c	;volatile
  6732                           
  6733                           ;leds.c: 98: break;
  6734  0027B4  0012               	return	
  6735  0027B6                     i2l2806:
  6736  0027B6  502B               	movf	LED_Off@led,w,c
  6737                           
  6738                           ; Switch size 1, requested type "speed"
  6739                           ; Number of cases is 3, Range of values is 0 to 2
  6740                           ; switch strategies available:
  6741                           ; Name         Instructions Cycles
  6742                           ; simple_byte           10     6 (average)
  6743                           ;	Chosen strategy is simple_byte
  6744  0027B8  B4D8               	btfsc	status,2,c
  6745  0027BA  0012               	return	
  6746  0027BC  0A01               	xorlw	1	; case 1
  6747  0027BE  E0F7               	bz	i2l235
  6748  0027C0  0A03               	xorlw	3	; case 2
  6749  0027C2  E0F7               	bz	i2l237
  6750  0027C4  0012               	return		;funcret
  6751  0027C6                     __end_of_LED_Off:
  6752                           	opt stack 0
  6753                           tblptru	equ	0xFF8
  6754                           tblptrh	equ	0xFF7
  6755                           tblptrl	equ	0xFF6
  6756                           tablat	equ	0xFF5
  6757                           prodh	equ	0xFF4
  6758                           prodl	equ	0xFF3
  6759                           intcon	equ	0xFF2
  6760                           postinc0	equ	0xFEE
  6761                           wreg	equ	0xFE8
  6762                           indf1	equ	0xFE7
  6763                           postdec1	equ	0xFE5
  6764                           fsr1h	equ	0xFE2
  6765                           fsr1l	equ	0xFE1
  6766                           indf2	equ	0xFDF
  6767                           postinc2	equ	0xFDE
  6768                           postdec2	equ	0xFDD
  6769                           plusw2	equ	0xFDB
  6770                           fsr2h	equ	0xFDA
  6771                           fsr2l	equ	0xFD9
  6772                           status	equ	0xFD8
  6773                           
  6774 ;; *************** function _APP_DeviceCDCBasicDemoInitialize *****************
  6775 ;; Defined at:
  6776 ;;		line 55 in file "../src/app_device_cdc_basic.c"
  6777 ;; Parameters:    Size  Location     Type
  6778 ;;		None
  6779 ;; Auto vars:     Size  Location     Type
  6780 ;;		None
  6781 ;; Return value:  Size  Location     Type
  6782 ;;		None               void
  6783 ;; Registers used:
  6784 ;;		wreg, fsr2l, fsr2h, status,2, status,0, prodl, prodh, cstack
  6785 ;; Tracked objects:
  6786 ;;		On entry : 0/F
  6787 ;;		On exit  : F/0
  6788 ;;		Unchanged: 0/0
  6789 ;; Data sizes:     COMRAM   BANK0   BANK1   BANK2   BANK3   BANK4   BANK5   BANK6   BANK7   BANK8   BANK9  BANK10  BANK1
      +1  BANK12  BANK13  BANK14
  6790 ;;      Params:         0       0       0       0       0       0       0       0       0       0       0       0       
      +0       0       0       0
  6791 ;;      Locals:         0       0       0       0       0       0       0       0       0       0       0       0       
      +0       0       0       0
  6792 ;;      Temps:          0       0       0       0       0       0       0       0       0       0       0       0       
      +0       0       0       0
  6793 ;;      Totals:         0       0       0       0       0       0       0       0       0       0       0       0       
      +0       0       0       0
  6794 ;;Total ram usage:        0 bytes
  6795 ;; Hardware stack levels used:    1
  6796 ;; Hardware stack levels required when called:    3
  6797 ;; This function calls:
  6798 ;;		_CDCInitEP
  6799 ;; This function is called by:
  6800 ;;		_USER_USB_CALLBACK_EVENT_HANDLER
  6801 ;; This function uses a non-reentrant model
  6802 ;;
  6803                           
  6804                           	psect	text35
  6805  002738                     __ptext35:
  6806                           	opt stack 0
  6807  002738                     _APP_DeviceCDCBasicDemoInitialize:
  6808                           	opt stack 21
  6809                           
  6810                           ;app_device_cdc_basic.c: 57: CDCInitEP();
  6811                           
  6812                           ;incstack = 0
  6813  002738  EC9D  F012         	call	_CDCInitEP	;wreg free
  6814                           
  6815                           ; BSR set to: 0
  6816                           ;app_device_cdc_basic.c: 60: line_coding.bCharFormat = 0;
  6817  00273C  6BC9               	clrf	(_line_coding+4)& (0+255),b
  6818                           
  6819                           ; BSR set to: 0
  6820                           ;app_device_cdc_basic.c: 61: line_coding.bDataBits = 8;
  6821  00273E  0E08               	movlw	8
  6822  002740  6FCB               	movwf	(_line_coding+6)& (0+255),b
  6823                           
  6824                           ; BSR set to: 0
  6825                           ;app_device_cdc_basic.c: 62: line_coding.bParityType = 0;
  6826  002742  6BCA               	clrf	(_line_coding+5)& (0+255),b
  6827                           
  6828                           ; BSR set to: 0
  6829                           ;app_device_cdc_basic.c: 63: line_coding.dwDTERate = 9600;
  6830  002744  0E80               	movlw	128
  6831  002746  6FC5               	movwf	_line_coding& (0+255),b
  6832  002748  0E25               	movlw	37
  6833  00274A  6FC6               	movwf	(_line_coding+1)& (0+255),b
  6834  00274C  0E00               	movlw	0
  6835  00274E  6BC7               	clrf	(_line_coding+2)& (0+255),b
  6836  002750  6BC8               	clrf	(_line_coding+3)& (0+255),b
  6837                           
  6838                           ; BSR set to: 0
  6839                           ;app_device_cdc_basic.c: 65: buttonPressed = 0;
  6840  002752  6B79               	clrf	_buttonPressed& (0+255),b
  6841                           
  6842                           ; BSR set to: 0
  6843  002754  0012               	return		;funcret
  6844  002756                     __end_of_APP_DeviceCDCBasicDemoInitialize:
  6845                           	opt stack 0
  6846                           tblptru	equ	0xFF8
  6847                           tblptrh	equ	0xFF7
  6848                           tblptrl	equ	0xFF6
  6849                           tablat	equ	0xFF5
  6850                           prodh	equ	0xFF4
  6851                           prodl	equ	0xFF3
  6852                           intcon	equ	0xFF2
  6853                           postinc0	equ	0xFEE
  6854                           wreg	equ	0xFE8
  6855                           indf1	equ	0xFE7
  6856                           postdec1	equ	0xFE5
  6857                           fsr1h	equ	0xFE2
  6858                           fsr1l	equ	0xFE1
  6859                           indf2	equ	0xFDF
  6860                           postinc2	equ	0xFDE
  6861                           postdec2	equ	0xFDD
  6862                           plusw2	equ	0xFDB
  6863                           fsr2h	equ	0xFDA
  6864                           fsr2l	equ	0xFD9
  6865                           status	equ	0xFD8
  6866                           
  6867 ;; *************** function _CDCInitEP *****************
  6868 ;; Defined at:
  6869 ;;		line 351 in file "../../../../../../framework/usb/src/usb_device_cdc.c"
  6870 ;; Parameters:    Size  Location     Type
  6871 ;;		None
  6872 ;; Auto vars:     Size  Location     Type
  6873 ;;		None
  6874 ;; Return value:  Size  Location     Type
  6875 ;;		None               void
  6876 ;; Registers used:
  6877 ;;		wreg, fsr2l, fsr2h, status,2, status,0, prodl, prodh, cstack
  6878 ;; Tracked objects:
  6879 ;;		On entry : 0/F
  6880 ;;		On exit  : F/0
  6881 ;;		Unchanged: 0/0
  6882 ;; Data sizes:     COMRAM   BANK0   BANK1   BANK2   BANK3   BANK4   BANK5   BANK6   BANK7   BANK8   BANK9  BANK10  BANK1
      +1  BANK12  BANK13  BANK14
  6883 ;;      Params:         0       0       0       0       0       0       0       0       0       0       0       0       
      +0       0       0       0
  6884 ;;      Locals:         0       0       0       0       0       0       0       0       0       0       0       0       
      +0       0       0       0
  6885 ;;      Temps:          0       0       0       0       0       0       0       0       0       0       0       0       
      +0       0       0       0
  6886 ;;      Totals:         0       0       0       0       0       0       0       0       0       0       0       0       
      +0       0       0       0
  6887 ;;Total ram usage:        0 bytes
  6888 ;; Hardware stack levels used:    1
  6889 ;; Hardware stack levels required when called:    2
  6890 ;; This function calls:
  6891 ;;		_USBEnableEndpoint
  6892 ;;		i2_USBTransferOnePacket
  6893 ;; This function is called by:
  6894 ;;		_APP_DeviceCDCBasicDemoInitialize
  6895 ;; This function uses a non-reentrant model
  6896 ;;
  6897                           
  6898                           	psect	text36
  6899  00253A                     __ptext36:
  6900                           	opt stack 0
  6901  00253A                     _CDCInitEP:
  6902                           	opt stack 21
  6903                           
  6904                           ;usb_device_cdc.c: 354: line_coding.dwDTERate = 19200;
  6905                           
  6906                           ; BSR set to: 0
  6907                           ;incstack = 0
  6908  00253A  0100               	movlb	0	; () banked
  6909  00253C  6BC5               	clrf	_line_coding& (0+255),b
  6910  00253E  0E4B               	movlw	75
  6911  002540  6FC6               	movwf	(_line_coding+1)& (0+255),b
  6912  002542  6BC7               	clrf	(_line_coding+2)& (0+255),b
  6913  002544  6BC8               	clrf	(_line_coding+3)& (0+255),b
  6914                           
  6915                           ; BSR set to: 0
  6916                           ;usb_device_cdc.c: 355: line_coding.bCharFormat = 0x00;
  6917  002546  6BC9               	clrf	(_line_coding+4)& (0+255),b
  6918                           
  6919                           ; BSR set to: 0
  6920                           ;usb_device_cdc.c: 356: line_coding.bParityType = 0x00;
  6921  002548  6BCA               	clrf	(_line_coding+5)& (0+255),b
  6922                           
  6923                           ;usb_device_cdc.c: 357: line_coding.bDataBits = 0x08;
  6924  00254A  0E08               	movlw	8
  6925  00254C  6FCB               	movwf	(_line_coding+6)& (0+255),b
  6926                           
  6927                           ; BSR set to: 0
  6928                           ;usb_device_cdc.c: 359: cdc_rx_len = 0;
  6929  00254E  6A25               	clrf	_cdc_rx_len,c
  6930                           
  6931                           ; BSR set to: 0
  6932                           ;usb_device_cdc.c: 372: USBEnableEndpoint(1,0x02|0x10|0x08);
  6933  002550  0E1A               	movlw	26
  6934  002552  6E33               	movwf	USBEnableEndpoint@options,c
  6935  002554  0E01               	movlw	1
  6936  002556  EC00  F013         	call	_USBEnableEndpoint
  6937                           
  6938                           ;usb_device_cdc.c: 373: USBEnableEndpoint(2,0x02|0x04|0x10|0x08);
  6939  00255A  0E1E               	movlw	30
  6940  00255C  6E33               	movwf	USBEnableEndpoint@options,c
  6941  00255E  0E02               	movlw	2
  6942  002560  EC00  F013         	call	_USBEnableEndpoint
  6943                           
  6944                           ;usb_device_cdc.c: 375: CDCDataOutHandle = USBTransferOnePacket(2,0,(uint8_t*)&cdc_data_
      +                          rx,sizeof(cdc_data_rx));
  6945  002564  6A2B               	clrf	i2USBTransferOnePacket@dir,c
  6946  002566  0E7D               	movlw	low _cdc_data_rx
  6947  002568  6E2C               	movwf	i2USBTransferOnePacket@data,c
  6948  00256A  6A2D               	clrf	i2USBTransferOnePacket@data+1,c
  6949  00256C  0E40               	movlw	64
  6950  00256E  6E2E               	movwf	i2USBTransferOnePacket@len,c
  6951  002570  0E02               	movlw	2
  6952  002572  ECA4  F00F         	call	i2_USBTransferOnePacket
  6953  002576  C02B  F074         	movff	?i2_USBTransferOnePacket,_CDCDataOutHandle
  6954  00257A  C02C  F075         	movff	?i2_USBTransferOnePacket+1,_CDCDataOutHandle+1
  6955                           
  6956                           ;usb_device_cdc.c: 376: CDCDataInHandle = (0);
  6957  00257E  0100               	movlb	0	; () banked
  6958  002580  6B72               	clrf	_CDCDataInHandle& (0+255),b
  6959  002582  6B73               	clrf	(_CDCDataInHandle+1)& (0+255),b
  6960                           
  6961                           ; BSR set to: 0
  6962                           ;usb_device_cdc.c: 403: cdc_trf_state = 0;
  6963  002584  6B7B               	clrf	_cdc_trf_state& (0+255),b
  6964                           
  6965                           ; BSR set to: 0
  6966  002586  0012               	return		;funcret
  6967  002588                     __end_of_CDCInitEP:
  6968                           	opt stack 0
  6969                           tblptru	equ	0xFF8
  6970                           tblptrh	equ	0xFF7
  6971                           tblptrl	equ	0xFF6
  6972                           tablat	equ	0xFF5
  6973                           prodh	equ	0xFF4
  6974                           prodl	equ	0xFF3
  6975                           intcon	equ	0xFF2
  6976                           postinc0	equ	0xFEE
  6977                           wreg	equ	0xFE8
  6978                           indf1	equ	0xFE7
  6979                           postdec1	equ	0xFE5
  6980                           fsr1h	equ	0xFE2
  6981                           fsr1l	equ	0xFE1
  6982                           indf2	equ	0xFDF
  6983                           postinc2	equ	0xFDE
  6984                           postdec2	equ	0xFDD
  6985                           plusw2	equ	0xFDB
  6986                           fsr2h	equ	0xFDA
  6987                           fsr2l	equ	0xFD9
  6988                           status	equ	0xFD8
  6989                           
  6990 ;; *************** function i2_USBTransferOnePacket *****************
  6991 ;; Defined at:
  6992 ;;		line 995 in file "../../../../../../framework/usb/src/usb_device.c"
  6993 ;; Parameters:    Size  Location     Type
  6994 ;;  ep              1    wreg     unsigned char 
  6995 ;;  dir             1    0[COMRAM] unsigned char 
  6996 ;;  data            2    1[COMRAM] PTR unsigned char 
  6997 ;;		 -> cdc_data_tx(64), cdc_data_rx(64), NULL(0), 
  6998 ;;  len             1    3[COMRAM] unsigned char 
  6999 ;; Auto vars:     Size  Location     Type
  7000 ;;  ep              1    4[COMRAM] unsigned char 
  7001 ;;  USBTransferO    2    5[COMRAM] PTR volatile struct __BD
  7002 ;;		 -> NULL(0), BDT(48), 
  7003 ;; Return value:  Size  Location     Type
  7004 ;;                  2    0[COMRAM] PTR void 
  7005 ;; Registers used:
  7006 ;;		wreg, fsr2l, fsr2h, status,2, status,0, prodl, prodh
  7007 ;; Tracked objects:
  7008 ;;		On entry : 0/0
  7009 ;;		On exit  : 0/0
  7010 ;;		Unchanged: 0/0
  7011 ;; Data sizes:     COMRAM   BANK0   BANK1   BANK2   BANK3   BANK4   BANK5   BANK6   BANK7   BANK8   BANK9  BANK10  BANK1
      +1  BANK12  BANK13  BANK14
  7012 ;;      Params:         4       0       0       0       0       0       0       0       0       0       0       0       
      +0       0       0       0
  7013 ;;      Locals:         3       0       0       0       0       0       0       0       0       0       0       0       
      +0       0       0       0
  7014 ;;      Temps:          0       0       0       0       0       0       0       0       0       0       0       0       
      +0       0       0       0
  7015 ;;      Totals:         7       0       0       0       0       0       0       0       0       0       0       0       
      +0       0       0       0
  7016 ;;Total ram usage:        7 bytes
  7017 ;; Hardware stack levels used:    1
  7018 ;; This function calls:
  7019 ;;		Nothing
  7020 ;; This function is called by:
  7021 ;;		_CDCInitEP
  7022 ;; This function uses a non-reentrant model
  7023 ;;
  7024                           
  7025                           	psect	text37
  7026  001F48                     __ptext37:
  7027                           	opt stack 0
  7028  001F48                     i2_USBTransferOnePacket:
  7029                           	opt stack 22
  7030                           
  7031                           ; BSR set to: 0
  7032                           ;incstack = 0
  7033                           ;i2USBTransferOnePacket@ep stored from wreg
  7034  001F48  6E2F               	movwf	i2USBTransferOnePacket@ep,c
  7035                           
  7036                           ;usb_device.c: 997: volatile BDT_ENTRY* handle;
  7037                           ;usb_device.c: 1000: if(dir != 0)
  7038  001F4A  502B               	movf	i2USBTransferOnePacket@dir,w,c
  7039  001F4C  E005               	bz	i2l2760
  7040                           
  7041                           ;usb_device.c: 1001: {
  7042                           ;usb_device.c: 1003: handle = pBDTEntryIn[ep];
  7043  001F4E  502F               	movf	i2USBTransferOnePacket@ep,w,c
  7044  001F50  0D02               	mullw	2
  7045  001F52  50F3               	movf	prodl,w,c
  7046  001F54  0F10               	addlw	low _pBDTEntryIn
  7047  001F56  D004               	goto	L13
  7048  001F58                     i2l2760:
  7049                           
  7050                           ;usb_device.c: 1005: else
  7051                           ;usb_device.c: 1006: {
  7052                           ;usb_device.c: 1008: handle = pBDTEntryOut[ep];
  7053  001F58  502F               	movf	i2USBTransferOnePacket@ep,w,c
  7054  001F5A  0D02               	mullw	2
  7055  001F5C  50F3               	movf	prodl,w,c
  7056  001F5E  0F60               	addlw	low _pBDTEntryOut
  7057  001F60                     L13:
  7058  001F60  6ED9               	movwf	fsr2l,c
  7059  001F62  6ADA               	clrf	fsr2h,c
  7060  001F64  CFDE F030          	movff	postinc2,i2USBTransferOnePacket@handle
  7061  001F68  CFDD F031          	movff	postdec2,i2USBTransferOnePacket@handle+1
  7062                           
  7063                           ;usb_device.c: 1009: }
  7064                           ;usb_device.c: 1013: if(handle == 0)
  7065  001F6C  5030               	movf	i2USBTransferOnePacket@handle,w,c
  7066  001F6E  1031               	iorwf	i2USBTransferOnePacket@handle+1,w,c
  7067  001F70  E103               	bnz	i2l2766
  7068                           
  7069                           ;usb_device.c: 1014: {
  7070                           ;usb_device.c: 1015: return 0;
  7071  001F72  6A2B               	clrf	?i2_USBTransferOnePacket,c
  7072  001F74  6A2C               	clrf	?i2_USBTransferOnePacket+1,c
  7073  001F76  0012               	return	
  7074  001F78                     i2l2766:
  7075                           
  7076                           ;usb_device.c: 1016: }
  7077                           ;usb_device.c: 1029: handle->ADR = ((uint16_t)(data));
  7078  001F78  EE20 F002          	lfsr	2,2
  7079  001F7C  5030               	movf	i2USBTransferOnePacket@handle,w,c
  7080  001F7E  26D9               	addwf	fsr2l,f,c
  7081  001F80  5031               	movf	i2USBTransferOnePacket@handle+1,w,c
  7082  001F82  22DA               	addwfc	fsr2h,f,c
  7083  001F84  C02C  FFDE         	movff	i2USBTransferOnePacket@data,postinc2
  7084  001F88  C02D  FFDD         	movff	i2USBTransferOnePacket@data+1,postdec2
  7085                           
  7086                           ;usb_device.c: 1030: handle->CNT = len;
  7087  001F8C  EE20 F001          	lfsr	2,1
  7088  001F90  5030               	movf	i2USBTransferOnePacket@handle,w,c
  7089  001F92  26D9               	addwf	fsr2l,f,c
  7090  001F94  5031               	movf	i2USBTransferOnePacket@handle+1,w,c
  7091  001F96  22DA               	addwfc	fsr2h,f,c
  7092  001F98  C02E  FFDF         	movff	i2USBTransferOnePacket@len,indf2
  7093                           
  7094                           ;usb_device.c: 1031: handle->STAT.Val &= 0x40;
  7095  001F9C  C030  FFD9         	movff	i2USBTransferOnePacket@handle,fsr2l
  7096  001FA0  C031  FFDA         	movff	i2USBTransferOnePacket@handle+1,fsr2h
  7097  001FA4  0E40               	movlw	64
  7098  001FA6  16DF               	andwf	indf2,f,c
  7099                           
  7100                           ;usb_device.c: 1032: handle->STAT.Val |= (0x08 & 0x08);
  7101  001FA8  C030  FFD9         	movff	i2USBTransferOnePacket@handle,fsr2l
  7102  001FAC  C031  FFDA         	movff	i2USBTransferOnePacket@handle+1,fsr2h
  7103  001FB0  0E00               	movlw	0
  7104  001FB2  86DB               	bsf	plusw2,3,c
  7105                           
  7106                           ;usb_device.c: 1033: handle->STAT.Val |= 0x80;
  7107  001FB4  C030  FFD9         	movff	i2USBTransferOnePacket@handle,fsr2l
  7108  001FB8  C031  FFDA         	movff	i2USBTransferOnePacket@handle+1,fsr2h
  7109  001FBC  8EDB               	bsf	plusw2,7,c
  7110                           
  7111                           ;usb_device.c: 1036: if(dir != 0)
  7112  001FBE  502B               	movf	i2USBTransferOnePacket@dir,w,c
  7113  001FC0  E005               	bz	i2l2778
  7114                           
  7115                           ;usb_device.c: 1037: {
  7116                           ;usb_device.c: 1039: {((uint8_t_VAL*)&pBDTEntryIn[ep])->Val ^= 0x0004;};
  7117  001FC2  502F               	movf	i2USBTransferOnePacket@ep,w,c
  7118  001FC4  0D02               	mullw	2
  7119  001FC6  50F3               	movf	prodl,w,c
  7120  001FC8  0F10               	addlw	low _pBDTEntryIn
  7121  001FCA  D004               	goto	L14
  7122  001FCC                     i2l2778:
  7123                           
  7124                           ;usb_device.c: 1041: else
  7125                           ;usb_device.c: 1042: {
  7126                           ;usb_device.c: 1044: {((uint8_t_VAL*)&pBDTEntryOut[ep])->Val ^= 0x0004;};
  7127  001FCC  502F               	movf	i2USBTransferOnePacket@ep,w,c
  7128  001FCE  0D02               	mullw	2
  7129  001FD0  50F3               	movf	prodl,w,c
  7130  001FD2  0F60               	addlw	low _pBDTEntryOut
  7131  001FD4                     L14:
  7132  001FD4  6ED9               	movwf	fsr2l,c
  7133  001FD6  6ADA               	clrf	fsr2h,c
  7134  001FD8  0E04               	movlw	4
  7135  001FDA  1ADF               	xorwf	indf2,f,c
  7136                           
  7137                           ;usb_device.c: 1045: }
  7138                           ;usb_device.c: 1046: return (void*)handle;
  7139  001FDC  C030  F02B         	movff	i2USBTransferOnePacket@handle,?i2_USBTransferOnePacket
  7140  001FE0  C031  F02C         	movff	i2USBTransferOnePacket@handle+1,?i2_USBTransferOnePacket+1
  7141  001FE4  0C04               	retlw	4	;funcret
  7142  001FE6                     __end_ofi2_USBTransferOnePacket:
  7143                           	opt stack 0
  7144                           tblptru	equ	0xFF8
  7145                           tblptrh	equ	0xFF7
  7146                           tblptrl	equ	0xFF6
  7147                           tablat	equ	0xFF5
  7148                           prodh	equ	0xFF4
  7149                           prodl	equ	0xFF3
  7150                           intcon	equ	0xFF2
  7151                           postinc0	equ	0xFEE
  7152                           wreg	equ	0xFE8
  7153                           indf1	equ	0xFE7
  7154                           postdec1	equ	0xFE5
  7155                           fsr1h	equ	0xFE2
  7156                           fsr1l	equ	0xFE1
  7157                           indf2	equ	0xFDF
  7158                           postinc2	equ	0xFDE
  7159                           postdec2	equ	0xFDD
  7160                           plusw2	equ	0xFDB
  7161                           fsr2h	equ	0xFDA
  7162                           fsr2l	equ	0xFD9
  7163                           status	equ	0xFD8
  7164                           
  7165 ;; *************** function _USBEnableEndpoint *****************
  7166 ;; Defined at:
  7167 ;;		line 878 in file "../../../../../../framework/usb/src/usb_device.c"
  7168 ;; Parameters:    Size  Location     Type
  7169 ;;  ep              1    wreg     unsigned char 
  7170 ;;  options         1    8[COMRAM] unsigned char 
  7171 ;; Auto vars:     Size  Location     Type
  7172 ;;  ep              1   11[COMRAM] unsigned char 
  7173 ;;  p               2    9[COMRAM] PTR unsigned char 
  7174 ;;		 -> UEP0(1), 
  7175 ;; Return value:  Size  Location     Type
  7176 ;;		None               void
  7177 ;; Registers used:
  7178 ;;		wreg, fsr2l, fsr2h, status,2, status,0, prodl, prodh, cstack
  7179 ;; Tracked objects:
  7180 ;;		On entry : 0/0
  7181 ;;		On exit  : 0/0
  7182 ;;		Unchanged: 0/0
  7183 ;; Data sizes:     COMRAM   BANK0   BANK1   BANK2   BANK3   BANK4   BANK5   BANK6   BANK7   BANK8   BANK9  BANK10  BANK1
      +1  BANK12  BANK13  BANK14
  7184 ;;      Params:         1       0       0       0       0       0       0       0       0       0       0       0       
      +0       0       0       0
  7185 ;;      Locals:         3       0       0       0       0       0       0       0       0       0       0       0       
      +0       0       0       0
  7186 ;;      Temps:          0       0       0       0       0       0       0       0       0       0       0       0       
      +0       0       0       0
  7187 ;;      Totals:         4       0       0       0       0       0       0       0       0       0       0       0       
      +0       0       0       0
  7188 ;;Total ram usage:        4 bytes
  7189 ;; Hardware stack levels used:    1
  7190 ;; Hardware stack levels required when called:    1
  7191 ;; This function calls:
  7192 ;;		_USBConfigureEndpoint
  7193 ;; This function is called by:
  7194 ;;		_CDCInitEP
  7195 ;; This function uses a non-reentrant model
  7196 ;;
  7197                           
  7198                           	psect	text38
  7199  002600                     __ptext38:
  7200                           	opt stack 0
  7201  002600                     _USBEnableEndpoint:
  7202                           	opt stack 21
  7203                           
  7204                           ;incstack = 0
  7205                           ;USBEnableEndpoint@ep stored from wreg
  7206  002600  6E36               	movwf	USBEnableEndpoint@ep,c
  7207                           
  7208                           ;usb_device.c: 880: unsigned char* p;
  7209                           ;usb_device.c: 884: if(options & 0x04)
  7210  002602  A433               	btfss	USBEnableEndpoint@options,2,c
  7211  002604  D004               	goto	i2l2748
  7212                           
  7213                           ;usb_device.c: 885: {
  7214                           ;usb_device.c: 886: USBConfigureEndpoint(ep, 0);
  7215  002606  6A2B               	clrf	USBConfigureEndpoint@direction,c
  7216  002608  5036               	movf	USBEnableEndpoint@ep,w,c
  7217  00260A  ECCC  F010         	call	_USBConfigureEndpoint
  7218  00260E                     i2l2748:
  7219                           
  7220                           ;usb_device.c: 887: }
  7221                           ;usb_device.c: 888: if(options & 0x02)
  7222  00260E  A233               	btfss	USBEnableEndpoint@options,1,c
  7223  002610  D005               	goto	i2l2752
  7224                           
  7225                           ;usb_device.c: 889: {
  7226                           ;usb_device.c: 890: USBConfigureEndpoint(ep, 1);
  7227  002612  0E01               	movlw	1
  7228  002614  6E2B               	movwf	USBConfigureEndpoint@direction,c
  7229  002616  5036               	movf	USBEnableEndpoint@ep,w,c
  7230  002618  ECCC  F010         	call	_USBConfigureEndpoint
  7231  00261C                     i2l2752:
  7232                           
  7233                           ;usb_device.c: 891: }
  7234                           ;usb_device.c: 899: p = (unsigned char*)(&UEP0+ep);
  7235  00261C  0E26               	movlw	38
  7236  00261E  2436               	addwf	USBEnableEndpoint@ep,w,c
  7237  002620  6E34               	movwf	USBEnableEndpoint@p,c
  7238  002622  6A35               	clrf	USBEnableEndpoint@p+1,c
  7239  002624  0E0F               	movlw	15
  7240  002626  2235               	addwfc	USBEnableEndpoint@p+1,f,c
  7241                           
  7242                           ;usb_device.c: 901: *p = options;
  7243  002628  C034  FFD9         	movff	USBEnableEndpoint@p,fsr2l
  7244  00262C  C035  FFDA         	movff	USBEnableEndpoint@p+1,fsr2h
  7245  002630  C033  FFDF         	movff	USBEnableEndpoint@options,indf2
  7246  002634  0C0F               	retlw	15	;funcret
  7247  002636                     __end_of_USBEnableEndpoint:
  7248                           	opt stack 0
  7249                           tblptru	equ	0xFF8
  7250                           tblptrh	equ	0xFF7
  7251                           tblptrl	equ	0xFF6
  7252                           tablat	equ	0xFF5
  7253                           prodh	equ	0xFF4
  7254                           prodl	equ	0xFF3
  7255                           intcon	equ	0xFF2
  7256                           postinc0	equ	0xFEE
  7257                           wreg	equ	0xFE8
  7258                           indf1	equ	0xFE7
  7259                           postdec1	equ	0xFE5
  7260                           fsr1h	equ	0xFE2
  7261                           fsr1l	equ	0xFE1
  7262                           indf2	equ	0xFDF
  7263                           postinc2	equ	0xFDE
  7264                           postdec2	equ	0xFDD
  7265                           plusw2	equ	0xFDB
  7266                           fsr2h	equ	0xFDA
  7267                           fsr2l	equ	0xFD9
  7268                           status	equ	0xFD8
  7269                           
  7270 ;; *************** function _USBConfigureEndpoint *****************
  7271 ;; Defined at:
  7272 ;;		line 1543 in file "../../../../../../framework/usb/src/usb_device.c"
  7273 ;; Parameters:    Size  Location     Type
  7274 ;;  EPNum           1    wreg     unsigned char 
  7275 ;;  direction       1    0[COMRAM] unsigned char 
  7276 ;; Auto vars:     Size  Location     Type
  7277 ;;  EPNum           1    5[COMRAM] unsigned char 
  7278 ;;  handle          2    6[COMRAM] PTR volatile struct __BD
  7279 ;;		 -> BDT(48), 
  7280 ;; Return value:  Size  Location     Type
  7281 ;;		None               void
  7282 ;; Registers used:
  7283 ;;		wreg, fsr2l, fsr2h, status,2, status,0, prodl, prodh
  7284 ;; Tracked objects:
  7285 ;;		On entry : 0/0
  7286 ;;		On exit  : 0/0
  7287 ;;		Unchanged: 0/0
  7288 ;; Data sizes:     COMRAM   BANK0   BANK1   BANK2   BANK3   BANK4   BANK5   BANK6   BANK7   BANK8   BANK9  BANK10  BANK1
      +1  BANK12  BANK13  BANK14
  7289 ;;      Params:         1       0       0       0       0       0       0       0       0       0       0       0       
      +0       0       0       0
  7290 ;;      Locals:         3       0       0       0       0       0       0       0       0       0       0       0       
      +0       0       0       0
  7291 ;;      Temps:          4       0       0       0       0       0       0       0       0       0       0       0       
      +0       0       0       0
  7292 ;;      Totals:         8       0       0       0       0       0       0       0       0       0       0       0       
      +0       0       0       0
  7293 ;;Total ram usage:        8 bytes
  7294 ;; Hardware stack levels used:    1
  7295 ;; This function calls:
  7296 ;;		Nothing
  7297 ;; This function is called by:
  7298 ;;		_USBEnableEndpoint
  7299 ;; This function uses a non-reentrant model
  7300 ;;
  7301                           
  7302                           	psect	text39
  7303  002198                     __ptext39:
  7304                           	opt stack 0
  7305  002198                     _USBConfigureEndpoint:
  7306                           	opt stack 21
  7307                           
  7308                           ;incstack = 0
  7309                           ;USBConfigureEndpoint@EPNum stored from wreg
  7310  002198  6E30               	movwf	USBConfigureEndpoint@EPNum,c
  7311                           
  7312                           ;usb_device.c: 1545: volatile BDT_ENTRY* handle;
  7313                           ;usb_device.c: 1549: handle = (volatile BDT_ENTRY*)&BDT[0];
  7314  00219A  6A31               	clrf	USBConfigureEndpoint@handle,c
  7315  00219C  0E0D               	movlw	13
  7316  00219E  6E32               	movwf	USBConfigureEndpoint@handle+1,c
  7317                           
  7318                           ;usb_device.c: 1550: handle += (4*EPNum+2*direction+0u);
  7319  0021A0  502B               	movf	USBConfigureEndpoint@direction,w,c
  7320  0021A2  6E2C               	movwf	??_USBConfigureEndpoint& (0+255),c
  7321  0021A4  6A2D               	clrf	(??_USBConfigureEndpoint+1)& (0+255),c
  7322  0021A6  90D8               	bcf	status,0,c
  7323  0021A8  362C               	rlcf	??_USBConfigureEndpoint,f,c
  7324  0021AA  362D               	rlcf	??_USBConfigureEndpoint+1,f,c
  7325  0021AC  5030               	movf	USBConfigureEndpoint@EPNum,w,c
  7326  0021AE  6E2E               	movwf	(??_USBConfigureEndpoint+2)& (0+255),c
  7327  0021B0  6A2F               	clrf	(??_USBConfigureEndpoint+3)& (0+255),c
  7328  0021B2  90D8               	bcf	status,0,c
  7329  0021B4  362E               	rlcf	??_USBConfigureEndpoint+2,f,c
  7330  0021B6  362F               	rlcf	??_USBConfigureEndpoint+3,f,c
  7331  0021B8  90D8               	bcf	status,0,c
  7332  0021BA  362E               	rlcf	??_USBConfigureEndpoint+2,f,c
  7333  0021BC  362F               	rlcf	??_USBConfigureEndpoint+3,f,c
  7334  0021BE  502C               	movf	??_USBConfigureEndpoint,w,c
  7335  0021C0  262E               	addwf	??_USBConfigureEndpoint+2,f,c
  7336  0021C2  502D               	movf	??_USBConfigureEndpoint+1,w,c
  7337  0021C4  222F               	addwfc	??_USBConfigureEndpoint+3,f,c
  7338  0021C6  90D8               	bcf	status,0,c
  7339  0021C8  362E               	rlcf	??_USBConfigureEndpoint+2,f,c
  7340  0021CA  362F               	rlcf	??_USBConfigureEndpoint+3,f,c
  7341  0021CC  90D8               	bcf	status,0,c
  7342  0021CE  362E               	rlcf	??_USBConfigureEndpoint+2,f,c
  7343  0021D0  362F               	rlcf	??_USBConfigureEndpoint+3,f,c
  7344  0021D2  502E               	movf	??_USBConfigureEndpoint+2,w,c
  7345  0021D4  2631               	addwf	USBConfigureEndpoint@handle,f,c
  7346  0021D6  502F               	movf	??_USBConfigureEndpoint+3,w,c
  7347  0021D8  2232               	addwfc	USBConfigureEndpoint@handle+1,f,c
  7348                           
  7349                           ;usb_device.c: 1552: handle->STAT.UOWN = 0;
  7350  0021DA  C031  FFD9         	movff	USBConfigureEndpoint@handle,fsr2l
  7351  0021DE  C032  FFDA         	movff	USBConfigureEndpoint@handle+1,fsr2h
  7352  0021E2  9EDF               	bcf	indf2,7,c
  7353                           
  7354                           ;usb_device.c: 1557: if(direction == 0)
  7355  0021E4  502B               	movf	USBConfigureEndpoint@direction,w,c
  7356  0021E6  E105               	bnz	i2l2738
  7357                           
  7358                           ;usb_device.c: 1558: {
  7359                           ;usb_device.c: 1559: pBDTEntryOut[EPNum] = handle;
  7360  0021E8  5030               	movf	USBConfigureEndpoint@EPNum,w,c
  7361  0021EA  0D02               	mullw	2
  7362  0021EC  50F3               	movf	prodl,w,c
  7363  0021EE  0F60               	addlw	low _pBDTEntryOut
  7364  0021F0  D004               	goto	L15
  7365  0021F2                     i2l2738:
  7366                           
  7367                           ;usb_device.c: 1561: else
  7368                           ;usb_device.c: 1562: {
  7369                           ;usb_device.c: 1563: pBDTEntryIn[EPNum] = handle;
  7370  0021F2  5030               	movf	USBConfigureEndpoint@EPNum,w,c
  7371  0021F4  0D02               	mullw	2
  7372  0021F6  50F3               	movf	prodl,w,c
  7373  0021F8  0F10               	addlw	low _pBDTEntryIn
  7374  0021FA                     L15:
  7375  0021FA  6ED9               	movwf	fsr2l,c
  7376  0021FC  6ADA               	clrf	fsr2h,c
  7377  0021FE  C031  FFDE         	movff	USBConfigureEndpoint@handle,postinc2
  7378  002202  C032  FFDD         	movff	USBConfigureEndpoint@handle+1,postdec2
  7379                           
  7380                           ;usb_device.c: 1564: }
  7381                           ;usb_device.c: 1567: handle->STAT.DTS = 0;
  7382  002206  C031  FFD9         	movff	USBConfigureEndpoint@handle,fsr2l
  7383  00220A  C032  FFDA         	movff	USBConfigureEndpoint@handle+1,fsr2h
  7384  00220E  9CDF               	bcf	indf2,6,c
  7385                           
  7386                           ;usb_device.c: 1568: (handle+1)->STAT.DTS = 1;
  7387  002210  EE20 F004          	lfsr	2,4
  7388  002214  5031               	movf	USBConfigureEndpoint@handle,w,c
  7389  002216  26D9               	addwf	fsr2l,f,c
  7390  002218  5032               	movf	USBConfigureEndpoint@handle+1,w,c
  7391  00221A  22DA               	addwfc	fsr2h,f,c
  7392  00221C  8CDF               	bsf	indf2,6,c
  7393  00221E  0012               	return		;funcret
  7394  002220                     __end_of_USBConfigureEndpoint:
  7395                           	opt stack 0
  7396                           tblptru	equ	0xFF8
  7397                           tblptrh	equ	0xFF7
  7398                           tblptrl	equ	0xFF6
  7399                           tablat	equ	0xFF5
  7400                           prodh	equ	0xFF4
  7401                           prodl	equ	0xFF3
  7402                           intcon	equ	0xFF2
  7403                           postinc0	equ	0xFEE
  7404                           wreg	equ	0xFE8
  7405                           indf1	equ	0xFE7
  7406                           postdec1	equ	0xFE5
  7407                           fsr1h	equ	0xFE2
  7408                           fsr1l	equ	0xFE1
  7409                           indf2	equ	0xFDF
  7410                           postinc2	equ	0xFDE
  7411                           postdec2	equ	0xFDD
  7412                           plusw2	equ	0xFDB
  7413                           fsr2h	equ	0xFDA
  7414                           fsr2l	equ	0xFD9
  7415                           status	equ	0xFD8
  7416                           
  7417 ;; *************** function _USBCtrlTrfOutHandler *****************
  7418 ;; Defined at:
  7419 ;;		line 2541 in file "../../../../../../framework/usb/src/usb_device.c"
  7420 ;; Parameters:    Size  Location     Type
  7421 ;;		None
  7422 ;; Auto vars:     Size  Location     Type
  7423 ;;		None
  7424 ;; Return value:  Size  Location     Type
  7425 ;;		None               void
  7426 ;; Registers used:
  7427 ;;		wreg, fsr1l, fsr1h, fsr2l, fsr2h, status,2, status,0, cstack
  7428 ;; Tracked objects:
  7429 ;;		On entry : F/0
  7430 ;;		On exit  : 0/0
  7431 ;;		Unchanged: 0/0
  7432 ;; Data sizes:     COMRAM   BANK0   BANK1   BANK2   BANK3   BANK4   BANK5   BANK6   BANK7   BANK8   BANK9  BANK10  BANK1
      +1  BANK12  BANK13  BANK14
  7433 ;;      Params:         0       0       0       0       0       0       0       0       0       0       0       0       
      +0       0       0       0
  7434 ;;      Locals:         0       0       0       0       0       0       0       0       0       0       0       0       
      +0       0       0       0
  7435 ;;      Temps:          0       0       0       0       0       0       0       0       0       0       0       0       
      +0       0       0       0
  7436 ;;      Totals:         0       0       0       0       0       0       0       0       0       0       0       0       
      +0       0       0       0
  7437 ;;Total ram usage:        0 bytes
  7438 ;; Hardware stack levels used:    1
  7439 ;; Hardware stack levels required when called:    2
  7440 ;; This function calls:
  7441 ;;		_USBCtrlTrfRxService
  7442 ;; This function is called by:
  7443 ;;		_USBCtrlEPService
  7444 ;; This function uses a non-reentrant model
  7445 ;;
  7446                           
  7447                           	psect	text40
  7448  00249A                     __ptext40:
  7449                           	opt stack 0
  7450  00249A                     _USBCtrlTrfOutHandler:
  7451                           	opt stack 22
  7452                           
  7453                           ; BSR set to: 0
  7454                           ;usb_device.c: 2543: if(controlTransferState == 2)
  7455                           
  7456                           ;incstack = 0
  7457  00249A  0E02               	movlw	2
  7458  00249C  1826               	xorwf	_controlTransferState,w,c	;volatile
  7459  00249E  E102               	bnz	i2l584
  7460                           
  7461                           ; BSR set to: 0
  7462                           ;usb_device.c: 2544: {
  7463                           ;usb_device.c: 2545: USBCtrlTrfRxService();
  7464  0024A0  EF6A  F00B         	goto	_USBCtrlTrfRxService	;wreg free
  7465  0024A4                     i2l584:
  7466                           
  7467                           ; BSR set to: 0
  7468                           ;usb_device.c: 2547: else
  7469                           ;usb_device.c: 2548: {
  7470                           ;usb_device.c: 2551: controlTransferState = 0;
  7471  0024A4  6A26               	clrf	_controlTransferState,c	;volatile
  7472                           
  7473                           ; BSR set to: 0
  7474                           ;usb_device.c: 2558: if(BothEP0OutUOWNsSet == 0)
  7475  0024A6  501C               	movf	_BothEP0OutUOWNsSet,w,c	;volatile
  7476  0024A8  E11F               	bnz	i2l586
  7477                           
  7478                           ; BSR set to: 0
  7479                           ;usb_device.c: 2559: {
  7480                           ;usb_device.c: 2560: pBDTEntryEP0OutNext->CNT = 8;
  7481  0024AA  EE20 F001          	lfsr	2,1
  7482  0024AE  501A               	movf	_pBDTEntryEP0OutNext,w,c
  7483  0024B0  26D9               	addwf	fsr2l,f,c
  7484  0024B2  501B               	movf	_pBDTEntryEP0OutNext+1,w,c
  7485  0024B4  22DA               	addwfc	fsr2h,f,c
  7486  0024B6  0E08               	movlw	8
  7487  0024B8  6EDF               	movwf	indf2,c
  7488                           
  7489                           ;usb_device.c: 2561: pBDTEntryEP0OutNext->ADR = ((uint16_t)(&SetupPkt));
  7490  0024BA  EE20 F002          	lfsr	2,2
  7491  0024BE  501A               	movf	_pBDTEntryEP0OutNext,w,c
  7492  0024C0  26D9               	addwf	fsr2l,f,c
  7493  0024C2  501B               	movf	_pBDTEntryEP0OutNext+1,w,c
  7494  0024C4  22DA               	addwfc	fsr2h,f,c
  7495  0024C6  0E30               	movlw	48
  7496  0024C8  6EDE               	movwf	postinc2,c
  7497  0024CA  0E0D               	movlw	13
  7498  0024CC  6EDD               	movwf	postdec2,c
  7499                           
  7500                           ; BSR set to: 0
  7501                           ;usb_device.c: 2562: pBDTEntryEP0OutNext->STAT.Val = 0x00|(0x08 & 0x08)|0x04;
  7502  0024CE  C01A  FFD9         	movff	_pBDTEntryEP0OutNext,fsr2l
  7503  0024D2  C01B  FFDA         	movff	_pBDTEntryEP0OutNext+1,fsr2h
  7504  0024D6  0E0C               	movlw	12
  7505  0024D8  6EDF               	movwf	indf2,c
  7506                           
  7507                           ; BSR set to: 0
  7508                           ;usb_device.c: 2563: pBDTEntryEP0OutNext->STAT.Val |= 0x80;
  7509  0024DA  C01A  FFD9         	movff	_pBDTEntryEP0OutNext,fsr2l
  7510  0024DE  C01B  FFDA         	movff	_pBDTEntryEP0OutNext+1,fsr2h
  7511  0024E2  0E00               	movlw	0
  7512  0024E4  8EDB               	bsf	plusw2,7,c
  7513                           
  7514                           ;usb_device.c: 2564: }
  7515  0024E6  0C00               	retlw	0
  7516  0024E8                     i2l586:
  7517                           
  7518                           ; BSR set to: 0
  7519                           ;usb_device.c: 2565: else
  7520                           ;usb_device.c: 2566: {
  7521                           ;usb_device.c: 2567: BothEP0OutUOWNsSet = 0;
  7522  0024E8  6A1C               	clrf	_BothEP0OutUOWNsSet,c	;volatile
  7523  0024EA  0012               	return		;funcret
  7524  0024EC                     __end_of_USBCtrlTrfOutHandler:
  7525                           	opt stack 0
  7526                           tblptru	equ	0xFF8
  7527                           tblptrh	equ	0xFF7
  7528                           tblptrl	equ	0xFF6
  7529                           tablat	equ	0xFF5
  7530                           prodh	equ	0xFF4
  7531                           prodl	equ	0xFF3
  7532                           intcon	equ	0xFF2
  7533                           postinc0	equ	0xFEE
  7534                           wreg	equ	0xFE8
  7535                           indf1	equ	0xFE7
  7536                           postdec1	equ	0xFE5
  7537                           fsr1h	equ	0xFE2
  7538                           fsr1l	equ	0xFE1
  7539                           indf2	equ	0xFDF
  7540                           postinc2	equ	0xFDE
  7541                           postdec2	equ	0xFDD
  7542                           plusw2	equ	0xFDB
  7543                           fsr2h	equ	0xFDA
  7544                           fsr2l	equ	0xFD9
  7545                           status	equ	0xFD8
  7546                           
  7547 ;; *************** function _USBCtrlTrfRxService *****************
  7548 ;; Defined at:
  7549 ;;		line 1852 in file "../../../../../../framework/usb/src/usb_device.c"
  7550 ;; Parameters:    Size  Location     Type
  7551 ;;		None
  7552 ;; Auto vars:     Size  Location     Type
  7553 ;;  byteToRead      1    1[COMRAM] unsigned char 
  7554 ;;  i               1    0[COMRAM] unsigned char 
  7555 ;; Return value:  Size  Location     Type
  7556 ;;		None               void
  7557 ;; Registers used:
  7558 ;;		wreg, fsr1l, fsr1h, fsr2l, fsr2h, status,2, status,0, cstack
  7559 ;; Tracked objects:
  7560 ;;		On entry : F/0
  7561 ;;		On exit  : 0/0
  7562 ;;		Unchanged: 0/0
  7563 ;; Data sizes:     COMRAM   BANK0   BANK1   BANK2   BANK3   BANK4   BANK5   BANK6   BANK7   BANK8   BANK9  BANK10  BANK1
      +1  BANK12  BANK13  BANK14
  7564 ;;      Params:         0       0       0       0       0       0       0       0       0       0       0       0       
      +0       0       0       0
  7565 ;;      Locals:         2       0       0       0       0       0       0       0       0       0       0       0       
      +0       0       0       0
  7566 ;;      Temps:          0       0       0       0       0       0       0       0       0       0       0       0       
      +0       0       0       0
  7567 ;;      Totals:         2       0       0       0       0       0       0       0       0       0       0       0       
      +0       0       0       0
  7568 ;;Total ram usage:        2 bytes
  7569 ;; Hardware stack levels used:    1
  7570 ;; Hardware stack levels required when called:    1
  7571 ;; This function calls:
  7572 ;;		_USBCtrlEPAllowStatusStage
  7573 ;; This function is called by:
  7574 ;;		_USBCtrlTrfOutHandler
  7575 ;; This function uses a non-reentrant model
  7576 ;;
  7577                           
  7578                           	psect	text41
  7579  0016D4                     __ptext41:
  7580                           	opt stack 0
  7581  0016D4                     _USBCtrlTrfRxService:
  7582                           	opt stack 22
  7583                           
  7584                           ; BSR set to: 0
  7585                           ;usb_device.c: 1854: uint8_t byteToRead;
  7586                           ;usb_device.c: 1855: uint8_t i;
  7587                           ;usb_device.c: 1859: byteToRead = pBDTEntryEP0OutCurrent->CNT;
  7588                           
  7589                           ;incstack = 0
  7590  0016D4  EE20 F001          	lfsr	2,1
  7591  0016D8  5018               	movf	_pBDTEntryEP0OutCurrent,w,c
  7592  0016DA  26D9               	addwf	fsr2l,f,c
  7593  0016DC  5019               	movf	_pBDTEntryEP0OutCurrent+1,w,c
  7594  0016DE  22DA               	addwfc	fsr2h,f,c
  7595  0016E0  50DF               	movf	indf2,w,c
  7596  0016E2  6E2C               	movwf	USBCtrlTrfRxService@byteToRead,c
  7597                           
  7598                           ; BSR set to: 0
  7599                           ;usb_device.c: 1865: if(byteToRead > outPipes[0].wCount.Val)
  7600  0016E4  502C               	movf	USBCtrlTrfRxService@byteToRead,w,c
  7601  0016E6  5C05               	subwf	_outPipes+4,w,c	;volatile
  7602  0016E8  0E00               	movlw	0
  7603  0016EA  5806               	subwfb	_outPipes+5,w,c	;volatile
  7604  0016EC  E202               	bc	i2l3270
  7605                           
  7606                           ; BSR set to: 0
  7607                           ;usb_device.c: 1866: {
  7608                           ;usb_device.c: 1867: byteToRead = outPipes[0].wCount.Val;
  7609  0016EE  C005  F02C         	movff	_outPipes+4,USBCtrlTrfRxService@byteToRead	;volatile
  7610  0016F2                     i2l3270:
  7611                           
  7612                           ; BSR set to: 0
  7613                           ;usb_device.c: 1868: }
  7614                           ;usb_device.c: 1870: outPipes[0].wCount.Val -= byteToRead;
  7615  0016F2  502C               	movf	USBCtrlTrfRxService@byteToRead,w,c
  7616  0016F4  5E05               	subwf	_outPipes+4,f,c	;volatile
  7617  0016F6  0E00               	movlw	0
  7618  0016F8  5A06               	subwfb	_outPipes+5,f,c	;volatile
  7619                           
  7620                           ; BSR set to: 0
  7621                           ;usb_device.c: 1874: for(i=0;i<byteToRead;i++)
  7622  0016FA  6A2B               	clrf	USBCtrlTrfRxService@i,c
  7623  0016FC  D00D               	goto	i2l3280
  7624  0016FE                     i2l3274:
  7625                           
  7626                           ; BSR set to: 0
  7627                           ;usb_device.c: 1875: {
  7628                           ;usb_device.c: 1876: *outPipes[0].pDst.bRam++ = CtrlTrfData[i];
  7629  0016FE  0E38               	movlw	56
  7630  001700  242B               	addwf	USBCtrlTrfRxService@i,w,c
  7631  001702  6ED9               	movwf	fsr2l,c
  7632  001704  6ADA               	clrf	fsr2h,c
  7633  001706  0E0D               	movlw	13
  7634  001708  22DA               	addwfc	fsr2h,f,c
  7635  00170A  5001               	movf	_outPipes,w,c	;volatile
  7636  00170C  6EE1               	movwf	fsr1l,c
  7637  00170E  6AE2               	clrf	fsr1h,c
  7638  001710  CFDF FFE7          	movff	indf2,indf1
  7639                           
  7640                           ; BSR set to: 0
  7641  001714  2A01               	incf	_outPipes,f,c	;volatile
  7642                           
  7643                           ; BSR set to: 0
  7644  001716  2A2B               	incf	USBCtrlTrfRxService@i,f,c
  7645  001718                     i2l3280:
  7646                           
  7647                           ; BSR set to: 0
  7648  001718  502C               	movf	USBCtrlTrfRxService@byteToRead,w,c
  7649  00171A  5C2B               	subwf	USBCtrlTrfRxService@i,w,c
  7650  00171C  E3F0               	bnc	i2l3274
  7651                           
  7652                           ; BSR set to: 0
  7653                           ;usb_device.c: 1877: }
  7654                           ;usb_device.c: 1881: if(outPipes[0].wCount.Val > 0)
  7655  00171E  5005               	movf	_outPipes+4,w,c	;volatile
  7656  001720  1006               	iorwf	_outPipes+5,w,c	;volatile
  7657  001722  E032               	bz	i2l3296
  7658                           
  7659                           ; BSR set to: 0
  7660                           ;usb_device.c: 1882: {
  7661                           ;usb_device.c: 1883: pBDTEntryEP0OutNext->CNT = 8;
  7662  001724  EE20 F001          	lfsr	2,1
  7663  001728  501A               	movf	_pBDTEntryEP0OutNext,w,c
  7664  00172A  26D9               	addwf	fsr2l,f,c
  7665  00172C  501B               	movf	_pBDTEntryEP0OutNext+1,w,c
  7666  00172E  22DA               	addwfc	fsr2h,f,c
  7667  001730  0E08               	movlw	8
  7668  001732  6EDF               	movwf	indf2,c
  7669                           
  7670                           ;usb_device.c: 1884: pBDTEntryEP0OutNext->ADR = ((uint16_t)(&CtrlTrfData));
  7671  001734  EE20 F002          	lfsr	2,2
  7672  001738  501A               	movf	_pBDTEntryEP0OutNext,w,c
  7673  00173A  26D9               	addwf	fsr2l,f,c
  7674  00173C  501B               	movf	_pBDTEntryEP0OutNext+1,w,c
  7675  00173E  22DA               	addwfc	fsr2h,f,c
  7676  001740  0E38               	movlw	56
  7677  001742  6EDE               	movwf	postinc2,c
  7678  001744  0E0D               	movlw	13
  7679  001746  6EDD               	movwf	postdec2,c
  7680                           
  7681                           ; BSR set to: 0
  7682                           ;usb_device.c: 1885: if(pBDTEntryEP0OutCurrent->STAT.DTS == 0)
  7683  001748  C018  FFD9         	movff	_pBDTEntryEP0OutCurrent,fsr2l
  7684  00174C  C019  FFDA         	movff	_pBDTEntryEP0OutCurrent+1,fsr2h
  7685  001750  BCDF               	btfsc	indf2,6,c
  7686  001752  D00D               	goto	i2l3292
  7687                           
  7688                           ; BSR set to: 0
  7689                           ;usb_device.c: 1886: {
  7690                           ;usb_device.c: 1887: pBDTEntryEP0OutNext->STAT.Val = 0x40|(0x08 & 0x08);
  7691  001754  C01A  FFD9         	movff	_pBDTEntryEP0OutNext,fsr2l
  7692  001758  C01B  FFDA         	movff	_pBDTEntryEP0OutNext+1,fsr2h
  7693  00175C  0E48               	movlw	72
  7694  00175E  6EDF               	movwf	indf2,c
  7695                           
  7696                           ; BSR set to: 0
  7697                           ;usb_device.c: 1888: pBDTEntryEP0OutNext->STAT.Val |= 0x80;
  7698  001760  C01A  FFD9         	movff	_pBDTEntryEP0OutNext,fsr2l
  7699  001764  C01B  FFDA         	movff	_pBDTEntryEP0OutNext+1,fsr2h
  7700  001768  0E00               	movlw	0
  7701  00176A  8EDB               	bsf	plusw2,7,c
  7702                           
  7703                           ;usb_device.c: 1889: }
  7704  00176C  0C00               	retlw	0
  7705  00176E                     i2l3292:
  7706                           
  7707                           ; BSR set to: 0
  7708                           ;usb_device.c: 1890: else
  7709                           ;usb_device.c: 1891: {
  7710                           ;usb_device.c: 1892: pBDTEntryEP0OutNext->STAT.Val = 0x00|(0x08 & 0x08);
  7711  00176E  C01A  FFD9         	movff	_pBDTEntryEP0OutNext,fsr2l
  7712  001772  C01B  FFDA         	movff	_pBDTEntryEP0OutNext+1,fsr2h
  7713  001776  0E08               	movlw	8
  7714  001778  6EDF               	movwf	indf2,c
  7715                           
  7716                           ; BSR set to: 0
  7717                           ;usb_device.c: 1893: pBDTEntryEP0OutNext->STAT.Val |= 0x80;
  7718  00177A  C01A  FFD9         	movff	_pBDTEntryEP0OutNext,fsr2l
  7719  00177E  C01B  FFDA         	movff	_pBDTEntryEP0OutNext+1,fsr2h
  7720  001782  0E00               	movlw	0
  7721  001784  8EDB               	bsf	plusw2,7,c
  7722  001786  0C00               	retlw	0
  7723  001788                     i2l3296:
  7724                           
  7725                           ; BSR set to: 0
  7726                           ;usb_device.c: 1896: else
  7727                           ;usb_device.c: 1897: {
  7728                           ;usb_device.c: 1901: pBDTEntryEP0OutNext->CNT = 8;
  7729  001788  EE20 F001          	lfsr	2,1
  7730  00178C  501A               	movf	_pBDTEntryEP0OutNext,w,c
  7731  00178E  26D9               	addwf	fsr2l,f,c
  7732  001790  501B               	movf	_pBDTEntryEP0OutNext+1,w,c
  7733  001792  22DA               	addwfc	fsr2h,f,c
  7734  001794  0E08               	movlw	8
  7735  001796  6EDF               	movwf	indf2,c
  7736                           
  7737                           ;usb_device.c: 1902: pBDTEntryEP0OutNext->ADR = ((uint16_t)(&SetupPkt));
  7738  001798  EE20 F002          	lfsr	2,2
  7739  00179C  501A               	movf	_pBDTEntryEP0OutNext,w,c
  7740  00179E  26D9               	addwf	fsr2l,f,c
  7741  0017A0  501B               	movf	_pBDTEntryEP0OutNext+1,w,c
  7742  0017A2  22DA               	addwfc	fsr2h,f,c
  7743  0017A4  0E30               	movlw	48
  7744  0017A6  6EDE               	movwf	postinc2,c
  7745  0017A8  0E0D               	movlw	13
  7746  0017AA  6EDD               	movwf	postdec2,c
  7747                           
  7748                           ; BSR set to: 0
  7749                           ;usb_device.c: 1906: pBDTEntryEP0OutNext->STAT.Val = 0x04;
  7750  0017AC  C01A  FFD9         	movff	_pBDTEntryEP0OutNext,fsr2l
  7751  0017B0  C01B  FFDA         	movff	_pBDTEntryEP0OutNext+1,fsr2h
  7752  0017B4  0E04               	movlw	4
  7753  0017B6  6EDF               	movwf	indf2,c
  7754                           
  7755                           ; BSR set to: 0
  7756                           ;usb_device.c: 1907: pBDTEntryEP0OutNext->STAT.Val |= 0x80;
  7757  0017B8  C01A  FFD9         	movff	_pBDTEntryEP0OutNext,fsr2l
  7758  0017BC  C01B  FFDA         	movff	_pBDTEntryEP0OutNext+1,fsr2h
  7759  0017C0  0E00               	movlw	0
  7760  0017C2  8EDB               	bsf	plusw2,7,c
  7761                           
  7762                           ; BSR set to: 0
  7763                           ;usb_device.c: 1926: }
  7764                           ;usb_device.c: 1927: outPipes[0].info.bits.busy = 0;
  7765                           
  7766                           ; BSR set to: 0
  7767                           ;usb_device.c: 1915: {
  7768                           ;usb_device.c: 1921: outPipes[0].pFunc();
  7769  0017C4  9E04               	bcf	_outPipes+3,7,c	;volatile
  7770                           
  7771                           ; BSR set to: 0
  7772                           ;usb_device.c: 1941: if(USBDeferStatusStagePacket == 0)
  7773  0017C6  5020               	movf	_USBDeferStatusStagePacket,w,c	;volatile
  7774  0017C8  B4D8               	btfsc	status,2,c
  7775                           
  7776                           ; BSR set to: 0
  7777                           ;usb_device.c: 1942: {
  7778                           ;usb_device.c: 1943: USBCtrlEPAllowStatusStage();
  7779  0017CA  EC99  F00D         	call	_USBCtrlEPAllowStatusStage	;wreg free
  7780  0017CE  0012               	return		;funcret
  7781  0017D0                     __end_of_USBCtrlTrfRxService:
  7782                           	opt stack 0
  7783                           tblptru	equ	0xFF8
  7784                           tblptrh	equ	0xFF7
  7785                           tblptrl	equ	0xFF6
  7786                           tablat	equ	0xFF5
  7787                           prodh	equ	0xFF4
  7788                           prodl	equ	0xFF3
  7789                           intcon	equ	0xFF2
  7790                           postinc0	equ	0xFEE
  7791                           wreg	equ	0xFE8
  7792                           indf1	equ	0xFE7
  7793                           postdec1	equ	0xFE5
  7794                           fsr1h	equ	0xFE2
  7795                           fsr1l	equ	0xFE1
  7796                           indf2	equ	0xFDF
  7797                           postinc2	equ	0xFDE
  7798                           postdec2	equ	0xFDD
  7799                           plusw2	equ	0xFDB
  7800                           fsr2h	equ	0xFDA
  7801                           fsr2l	equ	0xFD9
  7802                           status	equ	0xFD8
  7803                           
  7804 ;; *************** function _USBCtrlEPAllowStatusStage *****************
  7805 ;; Defined at:
  7806 ;;		line 1416 in file "../../../../../../framework/usb/src/usb_device.c"
  7807 ;; Parameters:    Size  Location     Type
  7808 ;;		None
  7809 ;; Auto vars:     Size  Location     Type
  7810 ;;		None
  7811 ;; Return value:  Size  Location     Type
  7812 ;;		None               void
  7813 ;; Registers used:
  7814 ;;		wreg, fsr2l, fsr2h, status,2, status,0
  7815 ;; Tracked objects:
  7816 ;;		On entry : 0/F
  7817 ;;		On exit  : 0/0
  7818 ;;		Unchanged: 0/0
  7819 ;; Data sizes:     COMRAM   BANK0   BANK1   BANK2   BANK3   BANK4   BANK5   BANK6   BANK7   BANK8   BANK9  BANK10  BANK1
      +1  BANK12  BANK13  BANK14
  7820 ;;      Params:         0       0       0       0       0       0       0       0       0       0       0       0       
      +0       0       0       0
  7821 ;;      Locals:         0       0       0       0       0       0       0       0       0       0       0       0       
      +0       0       0       0
  7822 ;;      Temps:          0       0       0       0       0       0       0       0       0       0       0       0       
      +0       0       0       0
  7823 ;;      Totals:         0       0       0       0       0       0       0       0       0       0       0       0       
      +0       0       0       0
  7824 ;;Total ram usage:        0 bytes
  7825 ;; Hardware stack levels used:    1
  7826 ;; This function calls:
  7827 ;;		Nothing
  7828 ;; This function is called by:
  7829 ;;		_USBDeviceTasks
  7830 ;;		_USBCtrlEPServiceComplete
  7831 ;;		_USBCtrlTrfRxService
  7832 ;; This function uses a non-reentrant model
  7833 ;;
  7834                           
  7835                           	psect	text42
  7836  001B32                     __ptext42:
  7837                           	opt stack 0
  7838  001B32                     _USBCtrlEPAllowStatusStage:
  7839                           	opt stack 22
  7840                           
  7841                           ;usb_device.c: 1423: if(USBStatusStageEnabledFlag1 == 0)
  7842                           
  7843                           ;incstack = 0
  7844  001B32  5022               	movf	_USBStatusStageEnabledFlag1,w,c	;volatile
  7845  001B34  A4D8               	btfss	status,2,c
  7846  001B36  0012               	return	
  7847                           
  7848                           ;usb_device.c: 1424: {
  7849                           ;usb_device.c: 1425: USBStatusStageEnabledFlag1 = 1;
  7850  001B38  0E01               	movlw	1
  7851  001B3A  6E22               	movwf	_USBStatusStageEnabledFlag1,c	;volatile
  7852                           
  7853                           ;usb_device.c: 1426: if(USBStatusStageEnabledFlag2 == 0)
  7854  001B3C  5023               	movf	_USBStatusStageEnabledFlag2,w,c	;volatile
  7855  001B3E  A4D8               	btfss	status,2,c
  7856  001B40  0012               	return	
  7857                           
  7858                           ;usb_device.c: 1427: {
  7859                           ;usb_device.c: 1428: USBStatusStageEnabledFlag2 = 1;
  7860  001B42  0E01               	movlw	1
  7861  001B44  6E23               	movwf	_USBStatusStageEnabledFlag2,c	;volatile
  7862                           
  7863                           ;usb_device.c: 1432: if(controlTransferState == 2)
  7864  001B46  0E02               	movlw	2
  7865  001B48  1826               	xorwf	_controlTransferState,w,c	;volatile
  7866  001B4A  E114               	bnz	i2l2998
  7867                           
  7868                           ;usb_device.c: 1433: {
  7869                           ;usb_device.c: 1434: pBDTEntryIn[0]->CNT = 0;
  7870  001B4C  EE20 F001          	lfsr	2,1
  7871  001B50  5010               	movf	_pBDTEntryIn,w,c
  7872  001B52  26D9               	addwf	fsr2l,f,c
  7873  001B54  5011               	movf	_pBDTEntryIn+1,w,c
  7874  001B56  22DA               	addwfc	fsr2h,f,c
  7875  001B58  6ADF               	clrf	indf2,c
  7876                           
  7877                           ;usb_device.c: 1435: pBDTEntryIn[0]->STAT.Val = 0x40|(0x08 & 0x08);
  7878  001B5A  C010  FFD9         	movff	_pBDTEntryIn,fsr2l
  7879  001B5E  C011  FFDA         	movff	_pBDTEntryIn+1,fsr2h
  7880  001B62  0E48               	movlw	72
  7881  001B64  6EDF               	movwf	indf2,c
  7882                           
  7883                           ;usb_device.c: 1436: pBDTEntryIn[0]->STAT.Val |= 0x80;
  7884  001B66  C010  FFD9         	movff	_pBDTEntryIn,fsr2l
  7885  001B6A  C011  FFDA         	movff	_pBDTEntryIn+1,fsr2h
  7886  001B6E  0E00               	movlw	0
  7887  001B70  8EDB               	bsf	plusw2,7,c
  7888                           
  7889                           ;usb_device.c: 1437: }
  7890  001B72  0C00               	retlw	0
  7891  001B74                     i2l2998:
  7892                           
  7893                           ;usb_device.c: 1438: else if(controlTransferState == 1)
  7894  001B74  0426               	decf	_controlTransferState,w,c	;volatile
  7895  001B76  A4D8               	btfss	status,2,c
  7896  001B78  0012               	return	
  7897                           
  7898                           ;usb_device.c: 1439: {
  7899                           ;usb_device.c: 1440: BothEP0OutUOWNsSet = 0;
  7900  001B7A  6A1C               	clrf	_BothEP0OutUOWNsSet,c	;volatile
  7901                           
  7902                           ;usb_device.c: 1445: pBDTEntryEP0OutCurrent->CNT = 8;
  7903  001B7C  EE20 F001          	lfsr	2,1
  7904  001B80  5018               	movf	_pBDTEntryEP0OutCurrent,w,c
  7905  001B82  26D9               	addwf	fsr2l,f,c
  7906  001B84  5019               	movf	_pBDTEntryEP0OutCurrent+1,w,c
  7907  001B86  22DA               	addwfc	fsr2h,f,c
  7908  001B88  0E08               	movlw	8
  7909  001B8A  6EDF               	movwf	indf2,c
  7910                           
  7911                           ;usb_device.c: 1446: pBDTEntryEP0OutCurrent->ADR = ((uint16_t)(&SetupPkt));
  7912  001B8C  EE20 F002          	lfsr	2,2
  7913  001B90  5018               	movf	_pBDTEntryEP0OutCurrent,w,c
  7914  001B92  26D9               	addwf	fsr2l,f,c
  7915  001B94  5019               	movf	_pBDTEntryEP0OutCurrent+1,w,c
  7916  001B96  22DA               	addwfc	fsr2h,f,c
  7917  001B98  0E30               	movlw	48
  7918  001B9A  6EDE               	movwf	postinc2,c
  7919  001B9C  0E0D               	movlw	13
  7920  001B9E  6EDD               	movwf	postdec2,c
  7921                           
  7922                           ;usb_device.c: 1447: pBDTEntryEP0OutCurrent->STAT.Val = 0x04;
  7923  001BA0  C018  FFD9         	movff	_pBDTEntryEP0OutCurrent,fsr2l
  7924  001BA4  C019  FFDA         	movff	_pBDTEntryEP0OutCurrent+1,fsr2h
  7925  001BA8  0E04               	movlw	4
  7926  001BAA  6EDF               	movwf	indf2,c
  7927                           
  7928                           ;usb_device.c: 1448: pBDTEntryEP0OutCurrent->STAT.Val |= 0x80;
  7929  001BAC  C018  FFD9         	movff	_pBDTEntryEP0OutCurrent,fsr2l
  7930  001BB0  C019  FFDA         	movff	_pBDTEntryEP0OutCurrent+1,fsr2h
  7931  001BB4  0E00               	movlw	0
  7932  001BB6  8EDB               	bsf	plusw2,7,c
  7933                           
  7934                           ;usb_device.c: 1449: BothEP0OutUOWNsSet = 1;
  7935  001BB8  0E01               	movlw	1
  7936  001BBA  6E1C               	movwf	_BothEP0OutUOWNsSet,c	;volatile
  7937                           
  7938                           ;usb_device.c: 1453: pBDTEntryEP0OutNext->CNT = 8;
  7939  001BBC  EE20 F001          	lfsr	2,1
  7940  001BC0  501A               	movf	_pBDTEntryEP0OutNext,w,c
  7941  001BC2  26D9               	addwf	fsr2l,f,c
  7942  001BC4  501B               	movf	_pBDTEntryEP0OutNext+1,w,c
  7943  001BC6  22DA               	addwfc	fsr2h,f,c
  7944  001BC8  0E08               	movlw	8
  7945  001BCA  6EDF               	movwf	indf2,c
  7946                           
  7947                           ;usb_device.c: 1454: pBDTEntryEP0OutNext->ADR = ((uint16_t)(&SetupPkt));
  7948  001BCC  EE20 F002          	lfsr	2,2
  7949  001BD0  501A               	movf	_pBDTEntryEP0OutNext,w,c
  7950  001BD2  26D9               	addwf	fsr2l,f,c
  7951  001BD4  501B               	movf	_pBDTEntryEP0OutNext+1,w,c
  7952  001BD6  22DA               	addwfc	fsr2h,f,c
  7953  001BD8  0E30               	movlw	48
  7954  001BDA  6EDE               	movwf	postinc2,c
  7955  001BDC  0E0D               	movlw	13
  7956  001BDE  6EDD               	movwf	postdec2,c
  7957                           
  7958                           ;usb_device.c: 1455: pBDTEntryEP0OutNext->STAT.Val = 0x80;
  7959  001BE0  C01A  FFD9         	movff	_pBDTEntryEP0OutNext,fsr2l
  7960  001BE4  C01B  FFDA         	movff	_pBDTEntryEP0OutNext+1,fsr2h
  7961  001BE8  0E80               	movlw	128
  7962  001BEA  6EDF               	movwf	indf2,c
  7963  001BEC  0C80               	retlw	128
  7964  001BEE                     __end_of_USBCtrlEPAllowStatusStage:
  7965                           	opt stack 0
  7966                           tblptru	equ	0xFF8
  7967                           tblptrh	equ	0xFF7
  7968                           tblptrl	equ	0xFF6
  7969                           tablat	equ	0xFF5
  7970                           prodh	equ	0xFF4
  7971                           prodl	equ	0xFF3
  7972                           intcon	equ	0xFF2
  7973                           postinc0	equ	0xFEE
  7974                           wreg	equ	0xFE8
  7975                           indf1	equ	0xFE7
  7976                           postdec1	equ	0xFE5
  7977                           fsr1h	equ	0xFE2
  7978                           fsr1l	equ	0xFE1
  7979                           indf2	equ	0xFDF
  7980                           postinc2	equ	0xFDE
  7981                           postdec2	equ	0xFDD
  7982                           plusw2	equ	0xFDB
  7983                           fsr2h	equ	0xFDA
  7984                           fsr2l	equ	0xFD9
  7985                           status	equ	0xFD8
  7986                           
  7987 ;; *************** function _USBCtrlTrfInHandler *****************
  7988 ;; Defined at:
  7989 ;;		line 2595 in file "../../../../../../framework/usb/src/usb_device.c"
  7990 ;; Parameters:    Size  Location     Type
  7991 ;;		None
  7992 ;; Auto vars:     Size  Location     Type
  7993 ;;  lastDTS         1    1[COMRAM] unsigned char 
  7994 ;; Return value:  Size  Location     Type
  7995 ;;		None               void
  7996 ;; Registers used:
  7997 ;;		wreg, fsr1l, fsr1h, fsr2l, fsr2h, status,2, status,0, tblptrl, tblptrh, tblptru, cstack
  7998 ;; Tracked objects:
  7999 ;;		On entry : F/0
  8000 ;;		On exit  : 0/0
  8001 ;;		Unchanged: 0/0
  8002 ;; Data sizes:     COMRAM   BANK0   BANK1   BANK2   BANK3   BANK4   BANK5   BANK6   BANK7   BANK8   BANK9  BANK10  BANK1
      +1  BANK12  BANK13  BANK14
  8003 ;;      Params:         0       0       0       0       0       0       0       0       0       0       0       0       
      +0       0       0       0
  8004 ;;      Locals:         1       0       0       0       0       0       0       0       0       0       0       0       
      +0       0       0       0
  8005 ;;      Temps:          0       0       0       0       0       0       0       0       0       0       0       0       
      +0       0       0       0
  8006 ;;      Totals:         1       0       0       0       0       0       0       0       0       0       0       0       
      +0       0       0       0
  8007 ;;Total ram usage:        1 bytes
  8008 ;; Hardware stack levels used:    1
  8009 ;; Hardware stack levels required when called:    1
  8010 ;; This function calls:
  8011 ;;		_USBCtrlTrfTxService
  8012 ;; This function is called by:
  8013 ;;		_USBCtrlEPService
  8014 ;; This function uses a non-reentrant model
  8015 ;;
  8016                           
  8017                           	psect	text43
  8018  001D5A                     __ptext43:
  8019                           	opt stack 0
  8020  001D5A                     _USBCtrlTrfInHandler:
  8021                           	opt stack 23
  8022                           
  8023                           ; BSR set to: 0
  8024                           ;usb_device.c: 2597: uint8_t lastDTS;
  8025                           ;usb_device.c: 2599: lastDTS = pBDTEntryIn[0]->STAT.DTS;
  8026                           
  8027                           ;incstack = 0
  8028  001D5A  C010  FFD9         	movff	_pBDTEntryIn,fsr2l
  8029  001D5E  C011  FFDA         	movff	_pBDTEntryIn+1,fsr2h
  8030  001D62  0E00               	movlw	0
  8031  001D64  BCDF               	btfsc	indf2,6,c
  8032  001D66  0E01               	movlw	1
  8033  001D68  6E2C               	movwf	USBCtrlTrfInHandler@lastDTS,c
  8034                           
  8035                           ; BSR set to: 0
  8036                           ;usb_device.c: 2602: ((uint8_t_VAL*)&pBDTEntryIn[0])->Val ^= 0x0004;
  8037  001D6A  0E04               	movlw	4
  8038  001D6C  1A10               	xorwf	_pBDTEntryIn,f,c
  8039                           
  8040                           ; BSR set to: 0
  8041                           ;usb_device.c: 2607: if(USBDeviceState == ADR_PENDING_STATE)
  8042  001D6E  0E08               	movlw	8
  8043  001D70  1821               	xorwf	_USBDeviceState,w,c	;volatile
  8044  001D72  E10A               	bnz	i2l3424
  8045                           
  8046                           ; BSR set to: 0
  8047                           ;usb_device.c: 2608: {
  8048                           ;usb_device.c: 2609: UADDR = (SetupPkt.bDevADR & 0x7F);
  8049  001D74  010D               	movlb	13	; () banked
  8050  001D76  5132               	movf	50,w,b	;volatile
  8051  001D78  0B7F               	andlw	127
  8052  001D7A  010F               	movlb	15	; () banked
  8053  001D7C  6F38               	movwf	56,b	;volatile
  8054                           
  8055                           ; BSR set to: 15
  8056                           ;usb_device.c: 2610: if(UADDR != 0u)
  8057  001D7E  5138               	movf	56,w,b
  8058                           
  8059                           ; BSR set to: 15
  8060                           ;usb_device.c: 2611: {
  8061                           ;usb_device.c: 2612: USBDeviceState=ADDRESS_STATE;
  8062  001D80  0E10               	movlw	16
  8063  001D82  B4D8               	btfsc	status,2,c
  8064                           
  8065                           ; BSR set to: 15
  8066                           ;usb_device.c: 2614: else
  8067                           ;usb_device.c: 2615: {
  8068                           ;usb_device.c: 2616: USBDeviceState=DEFAULT_STATE;
  8069  001D84  0E04               	movlw	4
  8070                           
  8071                           ;usb_device.c: 2613: }
  8072  001D86  6E21               	movwf	_USBDeviceState,c	;volatile
  8073  001D88                     i2l3424:
  8074                           
  8075                           ;usb_device.c: 2617: }
  8076                           ;usb_device.c: 2618: }
  8077                           ;usb_device.c: 2621: if(controlTransferState == 1)
  8078  001D88  0426               	decf	_controlTransferState,w,c	;volatile
  8079  001D8A  E138               	bnz	i2l594
  8080                           
  8081                           ;usb_device.c: 2622: {
  8082                           ;usb_device.c: 2623: pBDTEntryIn[0]->ADR = ((uint16_t)(CtrlTrfData));
  8083  001D8C  EE20 F002          	lfsr	2,2
  8084  001D90  5010               	movf	_pBDTEntryIn,w,c
  8085  001D92  26D9               	addwf	fsr2l,f,c
  8086  001D94  5011               	movf	_pBDTEntryIn+1,w,c
  8087  001D96  22DA               	addwfc	fsr2h,f,c
  8088  001D98  0E38               	movlw	56
  8089  001D9A  6EDE               	movwf	postinc2,c
  8090  001D9C  0E0D               	movlw	13
  8091  001D9E  6EDD               	movwf	postdec2,c
  8092                           
  8093                           ;usb_device.c: 2624: USBCtrlTrfTxService();
  8094  001DA0  EC36  F00D         	call	_USBCtrlTrfTxService	;wreg free
  8095                           
  8096                           ; BSR set to: 0
  8097                           ;usb_device.c: 2630: if(shortPacketStatus == 2)
  8098  001DA4  0E02               	movlw	2
  8099  001DA6  1828               	xorwf	_shortPacketStatus,w,c	;volatile
  8100  001DA8  E10D               	bnz	i2l3436
  8101                           
  8102                           ; BSR set to: 0
  8103                           ;usb_device.c: 2631: {
  8104                           ;usb_device.c: 2634: pBDTEntryIn[0]->STAT.Val = 0x04;
  8105  001DAA  C010  FFD9         	movff	_pBDTEntryIn,fsr2l
  8106  001DAE  C011  FFDA         	movff	_pBDTEntryIn+1,fsr2h
  8107  001DB2  0E04               	movlw	4
  8108  001DB4  6EDF               	movwf	indf2,c
  8109                           
  8110                           ; BSR set to: 0
  8111                           ;usb_device.c: 2635: pBDTEntryIn[0]->STAT.Val |= 0x80;
  8112  001DB6  C010  FFD9         	movff	_pBDTEntryIn,fsr2l
  8113  001DBA  C011  FFDA         	movff	_pBDTEntryIn+1,fsr2h
  8114  001DBE  0E00               	movlw	0
  8115  001DC0  8EDB               	bsf	plusw2,7,c
  8116                           
  8117                           ;usb_device.c: 2636: }
  8118  001DC2  0C00               	retlw	0
  8119  001DC4                     i2l3436:
  8120                           
  8121                           ; BSR set to: 0
  8122                           ;usb_device.c: 2637: else
  8123                           ;usb_device.c: 2638: {
  8124                           ;usb_device.c: 2639: if(lastDTS == 0)
  8125  001DC4  502C               	movf	USBCtrlTrfInHandler@lastDTS,w,c
  8126  001DC6  E10D               	bnz	i2l3442
  8127                           
  8128                           ; BSR set to: 0
  8129                           ;usb_device.c: 2640: {
  8130                           ;usb_device.c: 2641: pBDTEntryIn[0]->STAT.Val = 0x40|(0x08 & 0x08);
  8131  001DC8  C010  FFD9         	movff	_pBDTEntryIn,fsr2l
  8132  001DCC  C011  FFDA         	movff	_pBDTEntryIn+1,fsr2h
  8133  001DD0  0E48               	movlw	72
  8134  001DD2  6EDF               	movwf	indf2,c
  8135                           
  8136                           ; BSR set to: 0
  8137                           ;usb_device.c: 2642: pBDTEntryIn[0]->STAT.Val |= 0x80;
  8138  001DD4  C010  FFD9         	movff	_pBDTEntryIn,fsr2l
  8139  001DD8  C011  FFDA         	movff	_pBDTEntryIn+1,fsr2h
  8140  001DDC  0E00               	movlw	0
  8141  001DDE  8EDB               	bsf	plusw2,7,c
  8142                           
  8143                           ;usb_device.c: 2643: }
  8144  001DE0  0C00               	retlw	0
  8145  001DE2                     i2l3442:
  8146                           
  8147                           ; BSR set to: 0
  8148                           ;usb_device.c: 2644: else
  8149                           ;usb_device.c: 2645: {
  8150                           ;usb_device.c: 2646: pBDTEntryIn[0]->STAT.Val = 0x00|(0x08 & 0x08);
  8151  001DE2  C010  FFD9         	movff	_pBDTEntryIn,fsr2l
  8152  001DE6  C011  FFDA         	movff	_pBDTEntryIn+1,fsr2h
  8153  001DEA  0E08               	movlw	8
  8154  001DEC  6EDF               	movwf	indf2,c
  8155                           
  8156                           ; BSR set to: 0
  8157                           ;usb_device.c: 2647: pBDTEntryIn[0]->STAT.Val |= 0x80;
  8158  001DEE  C010  FFD9         	movff	_pBDTEntryIn,fsr2l
  8159  001DF2  C011  FFDA         	movff	_pBDTEntryIn+1,fsr2h
  8160  001DF6  0E00               	movlw	0
  8161  001DF8  8EDB               	bsf	plusw2,7,c
  8162  001DFA  0C00               	retlw	0
  8163  001DFC                     i2l594:
  8164                           
  8165                           ;usb_device.c: 2651: else
  8166                           ;usb_device.c: 2652: {
  8167                           ;usb_device.c: 2656: if(outPipes[0].info.bits.busy == 1)
  8168  001DFC  BE04               	btfsc	_outPipes+3,7,c	;volatile
  8169                           
  8170                           ;usb_device.c: 2661: }
  8171                           ;usb_device.c: 2662: outPipes[0].info.bits.busy = 0;
  8172                           
  8173                           ;usb_device.c: 2659: {
  8174                           ;usb_device.c: 2660: outPipes[0].pFunc();
  8175  001DFE  9E04               	bcf	_outPipes+3,7,c	;volatile
  8176                           
  8177                           ;usb_device.c: 2663: }
  8178                           ;usb_device.c: 2665: controlTransferState = 0;
  8179  001E00  6A26               	clrf	_controlTransferState,c	;volatile
  8180  001E02  0012               	return		;funcret
  8181  001E04                     __end_of_USBCtrlTrfInHandler:
  8182                           	opt stack 0
  8183                           tblptru	equ	0xFF8
  8184                           tblptrh	equ	0xFF7
  8185                           tblptrl	equ	0xFF6
  8186                           tablat	equ	0xFF5
  8187                           prodh	equ	0xFF4
  8188                           prodl	equ	0xFF3
  8189                           intcon	equ	0xFF2
  8190                           postinc0	equ	0xFEE
  8191                           wreg	equ	0xFE8
  8192                           indf1	equ	0xFE7
  8193                           postdec1	equ	0xFE5
  8194                           fsr1h	equ	0xFE2
  8195                           fsr1l	equ	0xFE1
  8196                           indf2	equ	0xFDF
  8197                           postinc2	equ	0xFDE
  8198                           postdec2	equ	0xFDD
  8199                           plusw2	equ	0xFDB
  8200                           fsr2h	equ	0xFDA
  8201                           fsr2l	equ	0xFD9
  8202                           status	equ	0xFD8
  8203                           
  8204 ;; *************** function _USBCtrlTrfTxService *****************
  8205 ;; Defined at:
  8206 ;;		line 1771 in file "../../../../../../framework/usb/src/usb_device.c"
  8207 ;; Parameters:    Size  Location     Type
  8208 ;;		None
  8209 ;; Auto vars:     Size  Location     Type
  8210 ;;  byteToSend      1    0[COMRAM] unsigned char 
  8211 ;; Return value:  Size  Location     Type
  8212 ;;		None               void
  8213 ;; Registers used:
  8214 ;;		wreg, fsr1l, fsr1h, fsr2l, fsr2h, status,2, status,0, tblptrl, tblptrh, tblptru
  8215 ;; Tracked objects:
  8216 ;;		On entry : 0/D
  8217 ;;		On exit  : F/0
  8218 ;;		Unchanged: 0/0
  8219 ;; Data sizes:     COMRAM   BANK0   BANK1   BANK2   BANK3   BANK4   BANK5   BANK6   BANK7   BANK8   BANK9  BANK10  BANK1
      +1  BANK12  BANK13  BANK14
  8220 ;;      Params:         0       0       0       0       0       0       0       0       0       0       0       0       
      +0       0       0       0
  8221 ;;      Locals:         1       0       0       0       0       0       0       0       0       0       0       0       
      +0       0       0       0
  8222 ;;      Temps:          0       0       0       0       0       0       0       0       0       0       0       0       
      +0       0       0       0
  8223 ;;      Totals:         1       0       0       0       0       0       0       0       0       0       0       0       
      +0       0       0       0
  8224 ;;Total ram usage:        1 bytes
  8225 ;; Hardware stack levels used:    1
  8226 ;; This function calls:
  8227 ;;		Nothing
  8228 ;; This function is called by:
  8229 ;;		_USBCtrlEPAllowDataStage
  8230 ;;		_USBCtrlTrfInHandler
  8231 ;; This function uses a non-reentrant model
  8232 ;;
  8233                           
  8234                           	psect	text44
  8235  001A6C                     __ptext44:
  8236                           	opt stack 0
  8237  001A6C                     _USBCtrlTrfTxService:
  8238                           	opt stack 21
  8239                           
  8240                           ;usb_device.c: 1773: uint8_t byteToSend;
  8241                           ;usb_device.c: 1777: byteToSend = 8;
  8242                           
  8243                           ;incstack = 0
  8244  001A6C  0E08               	movlw	8
  8245  001A6E  6E2B               	movwf	USBCtrlTrfTxService@byteToSend,c
  8246                           
  8247                           ;usb_device.c: 1778: if(inPipes[0].wCount.Val < (uint8_t)8)
  8248  001A70  500F               	movf	_inPipes+5,w,c	;volatile
  8249  001A72  E10D               	bnz	i2l2946
  8250  001A74  0E08               	movlw	8
  8251  001A76  5C0E               	subwf	_inPipes+4,w,c	;volatile
  8252  001A78  E20A               	bc	i2l2946
  8253                           
  8254                           ;usb_device.c: 1779: {
  8255                           ;usb_device.c: 1780: byteToSend = inPipes[0].wCount.Val;
  8256  001A7A  C00E  F02B         	movff	_inPipes+4,USBCtrlTrfTxService@byteToSend	;volatile
  8257                           
  8258                           ;usb_device.c: 1787: if(shortPacketStatus == 0)
  8259  001A7E  5028               	movf	_shortPacketStatus,w,c	;volatile
  8260  001A80  E102               	bnz	i2l2942
  8261                           
  8262                           ;usb_device.c: 1788: {
  8263                           ;usb_device.c: 1789: shortPacketStatus = 1;
  8264  001A82  0E01               	movlw	1
  8265  001A84  D003               	goto	L17
  8266  001A86                     i2l2942:
  8267                           
  8268                           ;usb_device.c: 1791: else if(shortPacketStatus == 1)
  8269  001A86  0428               	decf	_shortPacketStatus,w,c	;volatile
  8270  001A88  E102               	bnz	i2l2946
  8271                           
  8272                           ;usb_device.c: 1792: {
  8273                           ;usb_device.c: 1793: shortPacketStatus = 2;
  8274  001A8A  0E02               	movlw	2
  8275  001A8C                     L17:
  8276  001A8C  6E28               	movwf	_shortPacketStatus,c	;volatile
  8277  001A8E                     i2l2946:
  8278                           
  8279                           ;usb_device.c: 1794: }
  8280                           ;usb_device.c: 1795: }
  8281                           ;usb_device.c: 1799: inPipes[0].wCount.Val -= byteToSend;
  8282  001A8E  502B               	movf	USBCtrlTrfTxService@byteToSend,w,c
  8283  001A90  5E0E               	subwf	_inPipes+4,f,c	;volatile
  8284  001A92  0E00               	movlw	0
  8285  001A94  5A0F               	subwfb	_inPipes+5,f,c	;volatile
  8286                           
  8287                           ;usb_device.c: 1804: pBDTEntryIn[0]->CNT = byteToSend;
  8288  001A96  EE20 F001          	lfsr	2,1
  8289  001A9A  5010               	movf	_pBDTEntryIn,w,c
  8290  001A9C  26D9               	addwf	fsr2l,f,c
  8291  001A9E  5011               	movf	_pBDTEntryIn+1,w,c
  8292  001AA0  22DA               	addwfc	fsr2h,f,c
  8293  001AA2  C02B  FFDF         	movff	USBCtrlTrfTxService@byteToSend,indf2
  8294                           
  8295                           ;usb_device.c: 1808: pDst = (volatile uint8_t*)CtrlTrfData;
  8296  001AA6  0E38               	movlw	56
  8297  001AA8  0100               	movlb	0	; () banked
  8298  001AAA  6F76               	movwf	_pDst& (0+255),b
  8299  001AAC  0E0D               	movlw	13
  8300  001AAE  6F77               	movwf	(_pDst+1)& (0+255),b
  8301                           
  8302                           ; BSR set to: 0
  8303                           ;usb_device.c: 1809: if(inPipes[0].info.bits.ctrl_trf_mem == 0x00)
  8304  001AB0  B00D               	btfsc	_inPipes+3,0,c	;volatile
  8305  001AB2  D03C               	goto	i2l2974
  8306  001AB4  D01C               	goto	i2l2964
  8307  001AB6                     i2l2956:
  8308                           
  8309                           ; BSR set to: 0
  8310                           ;usb_device.c: 1812: {
  8311                           ;usb_device.c: 1813: *pDst++ = *inPipes[0].pSrc.bRom++;
  8312  001AB6  C00A  FFF6         	movff	_inPipes,tblptrl	;volatile
  8313  001ABA  C00B  FFF7         	movff	_inPipes+1,tblptrh	;volatile
  8314  001ABE  0E00               	movlw	low (__smallconst shr (0+16))
  8315  001AC0  6EF8               	movwf	tblptru,c
  8316  001AC2  C076  FFD9         	movff	_pDst,fsr2l
  8317  001AC6  C077  FFDA         	movff	_pDst+1,fsr2h
  8318  001ACA  0E0E               	movlw	(high __ramtop+-1)
  8319  001ACC  64F7               	cpfsgt	tblptrh,c
  8320  001ACE  D003               	bra	i2u183_47
  8321  001AD0  0008               	tblrd		*
  8322  001AD2  50F5               	movf	tablat,w,c
  8323  001AD4  D005               	bra	i2u183_40
  8324  001AD6                     i2u183_47:
  8325  001AD6  CFF6 FFE1          	movff	tblptrl,fsr1l
  8326  001ADA  CFF7 FFE2          	movff	tblptrh,fsr1h
  8327  001ADE  50E7               	movf	indf1,w,c
  8328  001AE0                     i2u183_40:
  8329  001AE0  6EDF               	movwf	indf2,c
  8330  001AE2  4A0A               	infsnz	_inPipes,f,c	;volatile
  8331  001AE4  2A0B               	incf	_inPipes+1,f,c	;volatile
  8332  001AE6  0100               	movlb	0	; () banked
  8333  001AE8  4B76               	infsnz	_pDst& (0+255),f,b
  8334  001AEA  2B77               	incf	(_pDst+1)& (0+255),f,b
  8335                           
  8336                           ; BSR set to: 0
  8337                           ;usb_device.c: 1814: byteToSend--;
  8338  001AEC  062B               	decf	USBCtrlTrfTxService@byteToSend,f,c
  8339  001AEE                     i2l2964:
  8340                           
  8341                           ; BSR set to: 0
  8342  001AEE  502B               	movf	USBCtrlTrfTxService@byteToSend,w,c
  8343  001AF0  E1E2               	bnz	i2l2956
  8344  001AF2  0012               	return	
  8345  001AF4                     i2l2966:
  8346                           
  8347                           ; BSR set to: 0
  8348                           ;usb_device.c: 1820: {
  8349                           ;usb_device.c: 1821: *pDst++ = *inPipes[0].pSrc.bRam++;
  8350  001AF4  C00A  FFF6         	movff	_inPipes,tblptrl	;volatile
  8351  001AF8  C00B  FFF7         	movff	_inPipes+1,tblptrh	;volatile
  8352  001AFC  0E00               	movlw	low (__smallconst shr (0+16))
  8353  001AFE  6EF8               	movwf	tblptru,c
  8354  001B00  C076  FFD9         	movff	_pDst,fsr2l
  8355  001B04  C077  FFDA         	movff	_pDst+1,fsr2h
  8356  001B08  0E0E               	movlw	(high __ramtop+-1)
  8357  001B0A  64F7               	cpfsgt	tblptrh,c
  8358  001B0C  D003               	bra	i2u185_47
  8359  001B0E  0008               	tblrd		*
  8360  001B10  50F5               	movf	tablat,w,c
  8361  001B12  D005               	bra	i2u185_40
  8362  001B14                     i2u185_47:
  8363  001B14  CFF6 FFE1          	movff	tblptrl,fsr1l
  8364  001B18  CFF7 FFE2          	movff	tblptrh,fsr1h
  8365  001B1C  50E7               	movf	indf1,w,c
  8366  001B1E                     i2u185_40:
  8367  001B1E  6EDF               	movwf	indf2,c
  8368  001B20  4A0A               	infsnz	_inPipes,f,c	;volatile
  8369  001B22  2A0B               	incf	_inPipes+1,f,c	;volatile
  8370  001B24  0100               	movlb	0	; () banked
  8371  001B26  4B76               	infsnz	_pDst& (0+255),f,b
  8372  001B28  2B77               	incf	(_pDst+1)& (0+255),f,b
  8373                           
  8374                           ; BSR set to: 0
  8375                           ;usb_device.c: 1822: byteToSend--;
  8376  001B2A  062B               	decf	USBCtrlTrfTxService@byteToSend,f,c
  8377  001B2C                     i2l2974:
  8378                           
  8379                           ; BSR set to: 0
  8380  001B2C  502B               	movf	USBCtrlTrfTxService@byteToSend,w,c
  8381  001B2E  E1E2               	bnz	i2l2966
  8382                           
  8383                           ; BSR set to: 0
  8384  001B30  0012               	return		;funcret
  8385  001B32                     __end_of_USBCtrlTrfTxService:
  8386                           	opt stack 0
  8387                           tblptru	equ	0xFF8
  8388                           tblptrh	equ	0xFF7
  8389                           tblptrl	equ	0xFF6
  8390                           tablat	equ	0xFF5
  8391                           prodh	equ	0xFF4
  8392                           prodl	equ	0xFF3
  8393                           intcon	equ	0xFF2
  8394                           postinc0	equ	0xFEE
  8395                           wreg	equ	0xFE8
  8396                           indf1	equ	0xFE7
  8397                           postdec1	equ	0xFE5
  8398                           fsr1h	equ	0xFE2
  8399                           fsr1l	equ	0xFE1
  8400                           indf2	equ	0xFDF
  8401                           postinc2	equ	0xFDE
  8402                           postdec2	equ	0xFDD
  8403                           plusw2	equ	0xFDB
  8404                           fsr2h	equ	0xFDA
  8405                           fsr2l	equ	0xFD9
  8406                           status	equ	0xFD8
  8407                           tblptru	equ	0xFF8
  8408                           tblptrh	equ	0xFF7
  8409                           tblptrl	equ	0xFF6
  8410                           tablat	equ	0xFF5
  8411                           prodh	equ	0xFF4
  8412                           prodl	equ	0xFF3
  8413                           intcon	equ	0xFF2
  8414                           postinc0	equ	0xFEE
  8415                           wreg	equ	0xFE8
  8416                           indf1	equ	0xFE7
  8417                           postdec1	equ	0xFE5
  8418                           fsr1h	equ	0xFE2
  8419                           fsr1l	equ	0xFE1
  8420                           indf2	equ	0xFDF
  8421                           postinc2	equ	0xFDE
  8422                           postdec2	equ	0xFDD
  8423                           plusw2	equ	0xFDB
  8424                           fsr2h	equ	0xFDA
  8425                           fsr2l	equ	0xFD9
  8426                           status	equ	0xFD8
  8427                           
  8428                           	psect	rparam
  8429  0000                     tblptru	equ	0xFF8
  8430                           tblptrh	equ	0xFF7
  8431                           tblptrl	equ	0xFF6
  8432                           tablat	equ	0xFF5
  8433                           prodh	equ	0xFF4
  8434                           prodl	equ	0xFF3
  8435                           intcon	equ	0xFF2
  8436                           postinc0	equ	0xFEE
  8437                           wreg	equ	0xFE8
  8438                           indf1	equ	0xFE7
  8439                           postdec1	equ	0xFE5
  8440                           fsr1h	equ	0xFE2
  8441                           fsr1l	equ	0xFE1
  8442                           indf2	equ	0xFDF
  8443                           postinc2	equ	0xFDE
  8444                           postdec2	equ	0xFDD
  8445                           plusw2	equ	0xFDB
  8446                           fsr2h	equ	0xFDA
  8447                           fsr2l	equ	0xFD9
  8448                           status	equ	0xFD8
  8449                           
  8450                           	psect	temp
  8451  000055                     btemp:
  8452                           	opt stack 0
  8453  000055                     	ds	1
  8454  0000                     int$flags	set	btemp
  8455                           tblptru	equ	0xFF8
  8456                           tblptrh	equ	0xFF7
  8457                           tblptrl	equ	0xFF6
  8458                           tablat	equ	0xFF5
  8459                           prodh	equ	0xFF4
  8460                           prodl	equ	0xFF3
  8461                           intcon	equ	0xFF2
  8462                           postinc0	equ	0xFEE
  8463                           wreg	equ	0xFE8
  8464                           indf1	equ	0xFE7
  8465                           postdec1	equ	0xFE5
  8466                           fsr1h	equ	0xFE2
  8467                           fsr1l	equ	0xFE1
  8468                           indf2	equ	0xFDF
  8469                           postinc2	equ	0xFDE
  8470                           postdec2	equ	0xFDD
  8471                           plusw2	equ	0xFDB
  8472                           fsr2h	equ	0xFDA
  8473                           fsr2l	equ	0xFD9
  8474                           status	equ	0xFD8


Data Sizes:
    Strings     0
    Constant    197
    Data        18
    BSS         344
    Persistent  0
    Stack       0

Auto Spaces:
    Space          Size  Autos    Used
    COMRAM           94     42      84
    BANK0           160     16     144
    BANK1           256      0     192
    BANK2           256      0       0
    BANK3           256      0       0
    BANK4           256      0       0
    BANK5           256      0       0
    BANK6           256      0       0
    BANK7           256      0       0
    BANK8           256      0       0
    BANK9           256      0       0
    BANK10          256      0       0
    BANK11          256      0       0
    BANK12          256      0       0
    BANK13          192      0       0
    BANK14          176      0       0

Pointer List with Targets:

    USER_USB_CALLBACK_EVENT_HANDLER@pdata	PTR void  size(2) Largest target is 48
		 -> USTATcopy(COMRAM[1]), USBActiveConfiguration(COMRAM[1]), NULL(NULL[0]), BDT(BIGRAMl[48]), 

    memset@p1	PTR void  size(2) Largest target is 48
		 -> USBAlternateInterface(BANK0[2]), BDT(BIGRAMl[48]), UEP1(SFR_1[1]), 

    memset@p	PTR unsigned char  size(2) Largest target is 48
		 -> USBAlternateInterface(BANK0[2]), BDT(BIGRAMl[48]), UEP1(SFR_1[1]), 

    putrsUSBUSART@data	PTR const unsigned char  size(1) Largest target is 18
		 -> buttonMessage(BANK0[18]), 

    putrsUSBUSART@pData	PTR const unsigned char  size(1) Largest target is 18
		 -> buttonMessage(BANK0[18]), 

    putUSBUSART@data	PTR unsigned char  size(2) Largest target is 64
		 -> writeBuffer(BANK1[64]), 

    getsUSBUSART@buffer	PTR unsigned char  size(2) Largest target is 64
		 -> readBuffer(BANK1[64]), 

    CDCDataInHandle	PTR void  size(2) Largest target is 48
		 -> NULL(NULL[0]), BDT(BIGRAMl[48]), 

    CDCDataOutHandle	PTR void  size(2) Largest target is 48
		 -> NULL(NULL[0]), BDT(BIGRAMl[48]), 

    pCDCDst.wRom	PTR const unsigned int  size(2) Largest target is 0

    pCDCDst.bRom	PTR const unsigned char  size(2) Largest target is 0

    pCDCDst.wRam	PTR unsigned int  size(2) Largest target is 0

    pCDCDst.bRam	PTR unsigned char  size(2) Largest target is 0

    S2310_POINTER$wRom	PTR const unsigned int  size(2) Largest target is 0

    pCDCSrc.wRom	PTR const unsigned int  size(2) Largest target is 0

    S2310_POINTER$bRom	PTR const unsigned char  size(2) Largest target is 0

    pCDCSrc.bRom	PTR const unsigned char  size(2) Largest target is 0

    S2310_POINTER$wRam	PTR unsigned int  size(2) Largest target is 0

    pCDCSrc.wRam	PTR unsigned int  size(2) Largest target is 0

    S2310_POINTER$bRam	PTR unsigned char  size(2) Largest target is 0

    pCDCSrc.bRam	PTR unsigned char  size(2) Largest target is 0

    USBStdFeatureReqHandler@pUEP	PTR unsigned char  size(2) Largest target is 1
		 -> UEP0(SFR_1[1]), 

    USBStdFeatureReqHandler@p	PTR struct __BDT size(2) Largest target is 48
		 -> NULL(NULL[0]), BDT(BIGRAMl[48]), 

    USBStdGetStatusHandler@p	PTR struct __BDT size(2) Largest target is 48
		 -> NULL(NULL[0]), BDT(BIGRAMl[48]), 

    pDst	PTR volatile unsigned char  size(2) Largest target is 8
		 -> CtrlTrfData(BIGRAMh[8]), NULL(NULL[0]), 

    USBConfigureEndpoint@handle	PTR volatile struct __BDT size(2) Largest target is 48
		 -> BDT(BIGRAMl[48]), 

    pBDTEntryEP0OutCurrent	PTR volatile struct __BDT size(2) Largest target is 48
		 -> NULL(NULL[0]), BDT(BIGRAMl[48]), 

    pBDTEntryEP0OutNext	PTR volatile struct __BDT size(2) Largest target is 48
		 -> NULL(NULL[0]), BDT(BIGRAMl[48]), 

    USBTransferOnePacket@data	PTR unsigned char  size(2) Largest target is 64
		 -> cdc_data_tx(BANK1[64]), cdc_data_rx(BANK0[64]), NULL(NULL[0]), 

    sp__USBTransferOnePacket	PTR void  size(2) Largest target is 48
		 -> NULL(NULL[0]), BDT(BIGRAMl[48]), 

    USBTransferOnePacket@handle	PTR volatile struct __BDT size(2) Largest target is 48
		 -> NULL(NULL[0]), BDT(BIGRAMl[48]), 

    USBEnableEndpoint@p	PTR unsigned char  size(2) Largest target is 1
		 -> UEP0(SFR_1[1]), 

    pBDTEntryOut	PTR volatile struct __BDT[3] size(2) Largest target is 48
		 -> NULL(NULL[0]), BDT(BIGRAMl[48]), 

    pBDTEntryIn	PTR volatile struct __BDT[3] size(2) Largest target is 48
		 -> NULL(NULL[0]), BDT(BIGRAMl[48]), 

    S950$pFunc	PTR FTN()void  size(3) Largest target is 0
		 -> Absolute function(), 

    outPipes.pFunc	PTR FTN()void  size(3) Largest target is 0
		 -> Absolute function(), 

    S940$wRam	PTR unsigned int  size(2) Largest target is 0

    outPipes.pDst.wRam	PTR unsigned int  size(2) Largest target is 0

    S940$bRam	PTR unsigned char  size(2) Largest target is 0

    outPipes.pDst.bRam	PTR unsigned char  size(2) Largest target is 0

    S916$wRom	PTR const unsigned int  size(2) Largest target is 0

    inPipes.pSrc.wRom	PTR const unsigned int  size(2) Largest target is 0

    S916$wRam	PTR unsigned int  size(2) Largest target is 0

    inPipes.pSrc.wRam	PTR unsigned int  size(2) Largest target is 0

    S916$bRom	PTR const unsigned char  size(2) Largest target is 0

    inPipes.pSrc.bRom	PTR const unsigned char  size(2) Largest target is 0

    S916$bRam	PTR unsigned char  size(2) Largest target is 0

    inPipes.pSrc.bRam	PTR unsigned char  size(2) Largest target is 0

    sp__memset	PTR void  size(2) Largest target is 48
		 -> USBAlternateInterface(BANK0[2]), BDT(BIGRAMl[48]), UEP1(SFR_1[1]), 

    USB_SD_Ptr	const PTR const unsigned char [3] size(1) Largest target is 52
		 -> sd002(CODE[52]), sd001(CODE[52]), sd000(CODE[4]), 

    USB_CD_Ptr	const PTR const unsigned char [1] size(1) Largest target is 67
		 -> configDescriptor1(CODE[67]), 


Critical Paths under _main in COMRAM

    None.

Critical Paths under _SYS_InterruptHigh in COMRAM

    _SYS_InterruptHigh->_USBDeviceTasks
    _USBDeviceTasks->_USBCtrlEPService
    i2_USBDeviceInit->i2_memset
    _USBWakeFromSuspend->_USER_USB_CALLBACK_EVENT_HANDLER
    _USBSuspend->_USER_USB_CALLBACK_EVENT_HANDLER
    _USBCtrlTrfSetupHandler->_USBCheckStdRequest
    _USBCtrlEPAllowDataStage->_USBCtrlTrfTxService
    _USBCheckStdRequest->_USBStdFeatureReqHandler
    _USBStdSetCfgHandler->_USER_USB_CALLBACK_EVENT_HANDLER
    _USBStdFeatureReqHandler->_USER_USB_CALLBACK_EVENT_HANDLER
    _APP_LEDUpdateUSBStatus->_LED_Off
    _APP_LEDUpdateUSBStatus->_LED_On
    _CDCInitEP->_USBEnableEndpoint
    _USBEnableEndpoint->_USBConfigureEndpoint
    _USBCtrlTrfOutHandler->_USBCtrlTrfRxService
    _USBCtrlTrfInHandler->_USBCtrlTrfTxService

Critical Paths under _main in BANK0

    _main->_APP_DeviceCDCBasicDemoTasks
    _USBDeviceInit->_memset
    _SYSTEM_Initialize->_BUTTON_Enable
    _SYSTEM_Initialize->_LED_Enable
    _APP_DeviceCDCBasicDemoTasks->_getsUSBUSART
    _getsUSBUSART->_USBTransferOnePacket
    _CDCTxService->_USBTransferOnePacket

Critical Paths under _SYS_InterruptHigh in BANK0

    None.

Critical Paths under _main in BANK1

    None.

Critical Paths under _SYS_InterruptHigh in BANK1

    None.

Critical Paths under _main in BANK2

    None.

Critical Paths under _SYS_InterruptHigh in BANK2

    None.

Critical Paths under _main in BANK3

    None.

Critical Paths under _SYS_InterruptHigh in BANK3

    None.

Critical Paths under _main in BANK4

    None.

Critical Paths under _SYS_InterruptHigh in BANK4

    None.

Critical Paths under _main in BANK5

    None.

Critical Paths under _SYS_InterruptHigh in BANK5

    None.

Critical Paths under _main in BANK6

    None.

Critical Paths under _SYS_InterruptHigh in BANK6

    None.

Critical Paths under _main in BANK7

    None.

Critical Paths under _SYS_InterruptHigh in BANK7

    None.

Critical Paths under _main in BANK8

    None.

Critical Paths under _SYS_InterruptHigh in BANK8

    None.

Critical Paths under _main in BANK9

    None.

Critical Paths under _SYS_InterruptHigh in BANK9

    None.

Critical Paths under _main in BANK10

    None.

Critical Paths under _SYS_InterruptHigh in BANK10

    None.

Critical Paths under _main in BANK11

    None.

Critical Paths under _SYS_InterruptHigh in BANK11

    None.

Critical Paths under _main in BANK12

    None.

Critical Paths under _SYS_InterruptHigh in BANK12

    None.

Critical Paths under _main in BANK13

    None.

Critical Paths under _SYS_InterruptHigh in BANK13

    None.

Critical Paths under _main in BANK14

    None.

Critical Paths under _SYS_InterruptHigh in BANK14

    None.

Call Graph Tables:

 ---------------------------------------------------------------------------------
 (Depth) Function   	        Calls       Base Space   Used Autos Params    Refs
 ---------------------------------------------------------------------------------
 (0) _main                                                 0     0      0    6454
        _APP_DeviceCDCBasicDemoTasks
                  _SYSTEM_Initialize
                    _USBDeviceAttach
                      _USBDeviceInit
 ---------------------------------------------------------------------------------
 (1) _USBDeviceInit                                        1     1      0    1361
                                              8 BANK0      1     1      0
                             _memset
 ---------------------------------------------------------------------------------
 (2) _memset                                               8     2      6    1070
                                              0 BANK0      8     2      6
 ---------------------------------------------------------------------------------
 (1) _USBDeviceAttach                                      0     0      0       0
 ---------------------------------------------------------------------------------
 (1) _SYSTEM_Initialize                                    5     5      0     112
                                              1 BANK0      5     5      0
                      _BUTTON_Enable
                         _LED_Enable
 ---------------------------------------------------------------------------------
 (2) _LED_Enable                                           1     1      0      22
                                              0 BANK0      1     1      0
 ---------------------------------------------------------------------------------
 (2) _BUTTON_Enable                                        1     1      0      22
                                              0 BANK0      1     1      0
 ---------------------------------------------------------------------------------
 (1) _APP_DeviceCDCBasicDemoTasks                          3     3      0    4981
                                             13 BANK0      3     3      0
                   _BUTTON_IsPressed
                       _CDCTxService
                       _getsUSBUSART
                        _putUSBUSART
                      _putrsUSBUSART
 ---------------------------------------------------------------------------------
 (2) _putrsUSBUSART                                        3     3      0     203
                                              0 BANK0      3     3      0
 ---------------------------------------------------------------------------------
 (2) _putUSBUSART                                          3     0      3     209
                                              0 BANK0      3     0      3
 ---------------------------------------------------------------------------------
 (2) _getsUSBUSART                                         6     3      3    2146
                                              7 BANK0      6     3      3
               _USBTransferOnePacket
 ---------------------------------------------------------------------------------
 (2) _CDCTxService                                         4     4      0    2104
                                              7 BANK0      4     4      0
               _USBTransferOnePacket
 ---------------------------------------------------------------------------------
 (3) _USBTransferOnePacket                                 7     3      4    1866
                                              0 BANK0      7     3      4
 ---------------------------------------------------------------------------------
 (2) _BUTTON_IsPressed                                     1     1      0      31
                                              0 BANK0      1     1      0
 ---------------------------------------------------------------------------------
 Estimated maximum stack depth 3
 ---------------------------------------------------------------------------------
 (Depth) Function   	        Calls       Base Space   Used Autos Params    Refs
 ---------------------------------------------------------------------------------
 (4) _SYS_InterruptHigh                                   10    10      0   29125
                                             32 COMRAM    10    10      0
                     _USBDeviceTasks
 ---------------------------------------------------------------------------------
 (5) _USBDeviceTasks                                       1     1      0   29125
                                             31 COMRAM     1     1      0
          _USBCtrlEPAllowStatusStage
                   _USBCtrlEPService
                    _USBStallHandler
                         _USBSuspend
                 _USBWakeFromSuspend
    _USER_USB_CALLBACK_EVENT_HANDLER
                    i2_USBDeviceInit
 ---------------------------------------------------------------------------------
 (6) i2_USBDeviceInit                                      1     1      0     610
                                              8 COMRAM     1     1      0
                           i2_memset
 ---------------------------------------------------------------------------------
 (6) _USBWakeFromSuspend                                   0     0      0    3879
    _USER_USB_CALLBACK_EVENT_HANDLER
 ---------------------------------------------------------------------------------
 (6) _USBSuspend                                           0     0      0    3879
    _USER_USB_CALLBACK_EVENT_HANDLER
 ---------------------------------------------------------------------------------
 (6) _USBStallHandler                                      1     1      0       0
                                              0 COMRAM     1     1      0
 ---------------------------------------------------------------------------------
 (6) _USBCtrlEPService                                     3     3      0   16832
                                             28 COMRAM     3     3      0
                _USBCtrlTrfInHandler
               _USBCtrlTrfOutHandler
             _USBCtrlTrfSetupHandler
 ---------------------------------------------------------------------------------
 (7) _USBCtrlTrfSetupHandler                               0     0      0   16535
                 _USBCheckStdRequest
           _USBCtrlEPServiceComplete
    _USER_USB_CALLBACK_EVENT_HANDLER
 ---------------------------------------------------------------------------------
 (8) _USBCtrlEPServiceComplete                             0     0      0      92
            _USBCtrlEPAllowDataStage
          _USBCtrlEPAllowStatusStage
 ---------------------------------------------------------------------------------
 (9) _USBCtrlEPAllowDataStage                              0     0      0      92
                _USBCtrlTrfTxService
 ---------------------------------------------------------------------------------
 (8) _USBCheckStdRequest                                   1     1      0   12564
                                             27 COMRAM     1     1      0
            _USBStdFeatureReqHandler
                _USBStdGetDscHandler
             _USBStdGetStatusHandler
                _USBStdSetCfgHandler
    _USER_USB_CALLBACK_EVENT_HANDLER
 ---------------------------------------------------------------------------------
 (9) _USBStdSetCfgHandler                                  1     1      0    4377
                                             20 COMRAM     1     1      0
    _USER_USB_CALLBACK_EVENT_HANDLER
                           i2_memset
 ---------------------------------------------------------------------------------
 (7) i2_memset                                             8     2      6     408
                                              0 COMRAM     8     2      6
 ---------------------------------------------------------------------------------
 (9) _USBStdGetStatusHandler                               2     2      0      46
                                              0 COMRAM     2     2      0
 ---------------------------------------------------------------------------------
 (9) _USBStdGetDscHandler                                  2     2      0       0
                                              0 COMRAM     2     2      0
 ---------------------------------------------------------------------------------
 (9) _USBStdFeatureReqHandler                              7     7      0    4262
                                             20 COMRAM     7     7      0
    _USER_USB_CALLBACK_EVENT_HANDLER
 ---------------------------------------------------------------------------------
 (6) _USER_USB_CALLBACK_EVENT_HANDLER                      8     2      6    3879
                                             12 COMRAM     8     2      6
   _APP_DeviceCDCBasicDemoInitialize
             _APP_LEDUpdateUSBStatus
                 _USBCheckCDCRequest
 ---------------------------------------------------------------------------------
 (7) _USBCheckCDCRequest                                   0     0      0       0
 ---------------------------------------------------------------------------------
 (7) _APP_LEDUpdateUSBStatus                               0     0      0      44
                            _LED_Off
                             _LED_On
 ---------------------------------------------------------------------------------
 (8) _LED_On                                               1     1      0      22
                                              0 COMRAM     1     1      0
 ---------------------------------------------------------------------------------
 (8) _LED_Off                                              1     1      0      22
                                              0 COMRAM     1     1      0
 ---------------------------------------------------------------------------------
 (7) _APP_DeviceCDCBasicDemoInitialize                     0     0      0    1143
                          _CDCInitEP
 ---------------------------------------------------------------------------------
 (8) _CDCInitEP                                            0     0      0    1143
                  _USBEnableEndpoint
             i2_USBTransferOnePacket
 ---------------------------------------------------------------------------------
 (9) i2_USBTransferOnePacket                               7     3      4     410
                                              0 COMRAM     7     3      4
 ---------------------------------------------------------------------------------
 (9) _USBEnableEndpoint                                    4     3      1     733
                                              8 COMRAM     4     3      1
               _USBConfigureEndpoint
 ---------------------------------------------------------------------------------
 (10) _USBConfigureEndpoint                                8     7      1     400
                                              0 COMRAM     8     7      1
 ---------------------------------------------------------------------------------
 (7) _USBCtrlTrfOutHandler                                 0     0      0     114
                _USBCtrlTrfRxService
 ---------------------------------------------------------------------------------
 (8) _USBCtrlTrfRxService                                  2     2      0     114
                                              0 COMRAM     2     2      0
          _USBCtrlEPAllowStatusStage
 ---------------------------------------------------------------------------------
 (9) _USBCtrlEPAllowStatusStage                            0     0      0       0
 ---------------------------------------------------------------------------------
 (7) _USBCtrlTrfInHandler                                  1     1      0     115
                                              1 COMRAM     1     1      0
                _USBCtrlTrfTxService
 ---------------------------------------------------------------------------------
 (10) _USBCtrlTrfTxService                                 1     1      0      92
                                              0 COMRAM     1     1      0
 ---------------------------------------------------------------------------------
 Estimated maximum stack depth 10
 ---------------------------------------------------------------------------------

 Call Graph Graphs:

 _main (ROOT)
   _APP_DeviceCDCBasicDemoTasks
     _BUTTON_IsPressed
     _CDCTxService
       _USBTransferOnePacket
     _getsUSBUSART
       _USBTransferOnePacket
     _putUSBUSART
     _putrsUSBUSART
   _SYSTEM_Initialize
     _BUTTON_Enable
     _LED_Enable
   _USBDeviceAttach
   _USBDeviceInit
     _memset

 _SYS_InterruptHigh (ROOT)
   _USBDeviceTasks
     _USBCtrlEPAllowStatusStage
     _USBCtrlEPService
       _USBCtrlTrfInHandler
         _USBCtrlTrfTxService
       _USBCtrlTrfOutHandler
         _USBCtrlTrfRxService
           _USBCtrlEPAllowStatusStage
       _USBCtrlTrfSetupHandler
         _USBCheckStdRequest
           _USBStdFeatureReqHandler
             _USER_USB_CALLBACK_EVENT_HANDLER
               _APP_DeviceCDCBasicDemoInitialize
                 _CDCInitEP
                   _USBEnableEndpoint
                     _USBConfigureEndpoint
                   i2_USBTransferOnePacket
               _APP_LEDUpdateUSBStatus
                 _LED_Off
                 _LED_On
               _USBCheckCDCRequest
           _USBStdGetDscHandler
           _USBStdGetStatusHandler
           _USBStdSetCfgHandler
             _USER_USB_CALLBACK_EVENT_HANDLER
               _APP_DeviceCDCBasicDemoInitialize
                 _CDCInitEP
                   _USBEnableEndpoint
                     _USBConfigureEndpoint
                   i2_USBTransferOnePacket
               _APP_LEDUpdateUSBStatus
                 _LED_Off
                 _LED_On
               _USBCheckCDCRequest
             i2_memset
           _USER_USB_CALLBACK_EVENT_HANDLER
             _APP_DeviceCDCBasicDemoInitialize
               _CDCInitEP
                 _USBEnableEndpoint
                   _USBConfigureEndpoint
                 i2_USBTransferOnePacket
             _APP_LEDUpdateUSBStatus
               _LED_Off
               _LED_On
             _USBCheckCDCRequest
         _USBCtrlEPServiceComplete
           _USBCtrlEPAllowDataStage
             _USBCtrlTrfTxService
           _USBCtrlEPAllowStatusStage
         _USER_USB_CALLBACK_EVENT_HANDLER
           _APP_DeviceCDCBasicDemoInitialize
             _CDCInitEP
               _USBEnableEndpoint
                 _USBConfigureEndpoint
               i2_USBTransferOnePacket
           _APP_LEDUpdateUSBStatus
             _LED_Off
             _LED_On
           _USBCheckCDCRequest
     _USBStallHandler
     _USBSuspend
       _USER_USB_CALLBACK_EVENT_HANDLER
         _APP_DeviceCDCBasicDemoInitialize
           _CDCInitEP
             _USBEnableEndpoint
               _USBConfigureEndpoint
             i2_USBTransferOnePacket
         _APP_LEDUpdateUSBStatus
           _LED_Off
           _LED_On
         _USBCheckCDCRequest
     _USBWakeFromSuspend
       _USER_USB_CALLBACK_EVENT_HANDLER
         _APP_DeviceCDCBasicDemoInitialize
           _CDCInitEP
             _USBEnableEndpoint
               _USBConfigureEndpoint
             i2_USBTransferOnePacket
         _APP_LEDUpdateUSBStatus
           _LED_Off
           _LED_On
         _USBCheckCDCRequest
     _USER_USB_CALLBACK_EVENT_HANDLER
       _APP_DeviceCDCBasicDemoInitialize
         _CDCInitEP
           _USBEnableEndpoint
             _USBConfigureEndpoint
           i2_USBTransferOnePacket
       _APP_LEDUpdateUSBStatus
         _LED_Off
         _LED_On
       _USBCheckCDCRequest
     i2_USBDeviceInit
       i2_memset

 Address spaces:
Name               Size   Autos  Total    Cost      Usage
BIGRAMl            CFF      0       0      36        0.0%
BIGRAMh            170      0       0      35        0.0%
BITBANK12          100      0       0      29        0.0%
BANK12             100      0       0      30        0.0%
BITBANK11          100      0       0      27        0.0%
BANK11             100      0       0      28        0.0%
BITBANK10          100      0       0      25        0.0%
BANK10             100      0       0      26        0.0%
BITBANK9           100      0       0      23        0.0%
BANK9              100      0       0      24        0.0%
BITBANK8           100      0       0      21        0.0%
BANK8              100      0       0      22        0.0%
BITBANK7           100      0       0      19        0.0%
BANK7              100      0       0      20        0.0%
BITBANK6           100      0       0      17        0.0%
BANK6              100      0       0      18        0.0%
BITBANK5           100      0       0      15        0.0%
BANK5              100      0       0      16        0.0%
BITBANK4           100      0       0      13        0.0%
BANK4              100      0       0      14        0.0%
BITBANK3           100      0       0      11        0.0%
BANK3              100      0       0      12        0.0%
BITBANK2           100      0       0       9        0.0%
BANK2              100      0       0      10        0.0%
BITBANK1           100      0       0       6        0.0%
BANK1              100      0      C0       7       75.0%
BITBANK13           C0      0       0      31        0.0%
BANK13              C0      0       0      32        0.0%
BITBANK14           B0      0       0      33        0.0%
BANK14              B0      0       0      34        0.0%
BITBANK0            A0      0       0       4        0.0%
BANK0               A0     10      90       5       90.0%
BITCOMRAM           5E      0       0       0        0.0%
COMRAM              5E     2A      54       1       89.4%
BITSFR_2             0      0       0      40        0.0%
SFR_2                0      0       0      40        0.0%
BITSFR_1             0      0       0      40        0.0%
SFR_1                0      0       0      40        0.0%
BITSFR               0      0       0      40        0.0%
SFR                  0      0       0      40        0.0%
STACK                0      0       0       2        0.0%
NULL                 0      0       0       0        0.0%
ABS                  0      0     1A4       8        0.0%
DATA                 0      0     1A4       3        0.0%
CODE                 0      0       0       0        0.0%


Microchip Technology PIC18 Macro Assembler V1.35 build -356382666 
Symbol Table                                                                                   Sat Jan 09 22:49:42 2016

                               _USB_SD_Ptr 1101                                         l57 1C0C  
                              ?_LED_Enable 002B                              _USBDeviceInit 17D0  
                       __size_of_CDCInitEP 004E                               __CFG_CP0$OFF 000000  
     USER_USB_CALLBACK_EVENT_HANDLER@event 0037       USER_USB_CALLBACK_EVENT_HANDLER@pdata 0039  
                                      l121 26F4                                        l216 27CA  
                                      l209 2778                                        l261 2704  
              __end_of_USBStdGetDscHandler 15D6                                        l259 2700  
                                      l456 265A                                        l457 2658  
                                      l740 25D4                                        l719 212A  
                                      _BDT 000D00                                        l749 15F0  
                                      l758 1642                                        _UIE 000F36  
                                      _UIR 000F62                     _APP_LEDUpdateUSBStatus 2320  
                               _USBSuspend 271A                       USBStdSetCfgHandler@i 003F  
                                      prod 000FF3                                        wreg 000FE8  
                           _USBDeviceTasks 13B8                             _USBDeviceState 0021  
                            _BUTTON_Enable 27C6                      ??_USBCtrlTrfRxService 002B  
                 __size_ofi2_USBDeviceInit 00DA                             ??_getsUSBUSART 00EA  
                 USBEnableEndpoint@options 0033                            __end_of_LED_Off 27C6  
                                     l4020 1EDA                                       l4014 1EBA  
                                     l4102 2156                                       l4032 1F2E  
                                     l4104 215A                                       l4112 2194  
                                     l4042 2708                                       l4210 23F2  
                                     l4202 266E                                       l4140 15FE  
                                     l4108 2174                                       l4220 2422  
               USBConfigureEndpoint@handle 0031                                       l4214 23FC  
                                     l4206 267E                                       l4160 1646  
                                     l4144 1606                                       l4128 276E  
                                     l4080 25EC                                       l4072 25DA  
                                     l4048 27D2                                       l4224 2432  
                                     l4058 277E                                       l4154 1634  
                                     l4250 1C84                                       l4242 1C2C  
                                     l4218 2416                                       l4306 184E  
                                     l4148 160E                                       l4244 1C4A  
                                     l4252 1C86                                       l4236 1C0E  
                                     l4168 165C                                       l4176 167A  
                                     l4248 1C6C                                       l4178 1680  
                                     l4186 169E                                       l4282 1830  
                                     l4290 183A                                       l4354 26EC  
                                     l4196 16B2                                       l4188 16A2  
                                     l4276 1804                                       l4198 16D0  
                       __CFG_WPFP$PAGE_127 000000                      ??_USBCtrlTrfTxService 002B  
                                     _UCFG 000F39                                       _UEP0 000F26  
                                     _UEP1 000F27                                       _UEIE 000F37  
                                     _UEIR 000F63                                       _UCON 000F65  
                          _CDCDataInHandle 0072     USBStdFeatureReqHandler@current_ep_data 0043  
                                     _pDst 0076                                       _main 26DE  
                 ??i2_USBTransferOnePacket 002F                                       fsr1h 000FE2  
                                     fsr2h 000FDA                                       indf1 000FE7  
                                     fsr1l 000FE1                                       indf2 000FDF  
                                     fsr2l 000FD9                            _USBDeviceAttach 2636  
                                     btemp 0055                     __CFG_DSWDTOSC$T1OSCREF 000000  
                                     prodh 000FF4                                       prodl 000FF3  
                                     start 1062                              __CFG_IESO$OFF 000000  
               __end_of_USBCheckStdRequest 2082                     ??_USBCtrlTrfOutHandler 002D  
                             ___param_bank 000010                  ??_USBStdFeatureReqHandler 003F  
                   __size_of_putrsUSBUSART 003A                   ??_USBStdGetStatusHandler 002B  
                           ?_USBDeviceInit 002B                              __CFG_PLLDIV$2 000000  
                              _writeBuffer 0180                                      ?_main 002B  
        __size_of_USBCtrlEPServiceComplete 00E0                     __end_of_USBDeviceTasks 14CA  
                ?_USBCtrlEPServiceComplete 002B                                      i2l235 27AE  
                                    i2l227 2792                                      i2l237 27B2  
                                    i2l229 2796                                      i2l407 13E4  
                                    i2l417 146E                                      i2l418 14C6  
                                    i2l419 1476                                      i2l534 1570  
                                    i2l624 11E2                                      i2l544 22AA  
                                    i2l608 1FF2                                      i2l537 15BE  
                                    i2l617 2020                                      i2l481 1924  
                                    i2l642 133E                                      i2l634 12C4  
                                    i2l539 15C2                                      i2l547 230C  
                                    i2l548 22B4                                      i2l549 22B8  
                                    i2l557 25C2                                      i2l584 24A4  
                                    i2l594 1DFC                                      i2l586 24E8  
                                    _UADDR 000F38                                      i2l699 225E  
                                    _USTAT 000F64         __size_of_USBCtrlEPAllowStatusStage 00BC  
                           __CFG_FCMEN$OFF 000000                             ?_BUTTON_Enable 002B  
          __end_of_USBCtrlEPAllowDataStage 2110                                      _sd000 11C2  
                                    _sd001 1148                                      _sd002 117C  
                               i2memset@p1 002B                  __size_of_BUTTON_IsPressed 001C  
                                    tablat 000FF5                        __size_of_LED_Enable 001E  
                                    plusw2 000FDB                          __end_of_CDCInitEP 2588  
                                    status 000FD8                           __end_ofi2_memset 26B8  
                          putUSBUSART@data 00E0               __size_of_USBStdSetCfgHandler 00A4  
                          __initialization 24EC                               __end_of_main 26FC  
                __size_of_USBCtrlEPService 00B2                                     ??_main 00F0  
                            __activetblptr 000003                            ?_USBDeviceTasks 002B  
                              ?_USBSuspend 002B                                  ??_LED_Off 002B  
                             _cdc_mem_type 007A                              _putrsUSBUSART 25C6  
                  __end_of_USBDeviceAttach 2664                           _CDCDataOutHandle 0074  
                        _getsUSBUSART$2688 00EB                            getsUSBUSART@len 00E9  
                   SYSTEM_Initialize@state 00E5                      __size_of_CDCTxService 00FE  
                                   i2l3100 15C6                                     i2l3030 20DE  
                                   i2l3112 22CA                                     i2l3210 1394  
                                   i2l3202 1350                                     i2l3122 22FE  
                                   i2l3050 1E34                                     i2l3026 20CA  
                                   i2l3140 11E4                                     i2l3222 18C8  
                                   i2l3208 1388                                     i2l3080 14DA  
                                   i2l3072 1E8C                                     _LED_On 278E  
                                   i2l3170 127A                                     i2l3330 200A  
                                   i2l3226 18CE                                     i2l3180 12B2  
                                   i2l3164 1268                                     i2l3156 1238  
                                   i2l3092 1574                                     i2l3084 14EE  
                                   i2l3340 2030                                     i2l3270 16F2  
                                   i2l3182 12DC                                     i2l3166 126A  
                                   i2l3318 1FFA                                     i2l3238 1936  
                                   i2l3246 1944                             __CFG_WDTEN$OFF 000000  
                                   i2l3424 1D88                                     i2l3280 1718  
                                   i2l3192 131E                                     i2l3344 2042  
                                   i2l3442 1DE2                                     i2l3274 16FE  
                                   i2l4402 2458                                     i2l3194 132A  
                                   i2l3436 1DC4                                     i2l3292 176E  
                                   i2l2812 279A                                     i2l2900 2286  
                                   i2l4404 2496                                     i2l2806 27B6  
                                   i2l3614 26D6                                     i2l3296 1788  
                                   i2l2752 261C                                     i2l2760 1F58  
                                   i2l2840 2348                                     i2l2832 232A  
                                   i2l3616 26D8                                     i2l2738 21F2  
                                   i2l2906 228C                                     i2l2922 2444  
                                   i2l3722 1A08                                     i2l3706 19F4  
                                   i2l3802 1438                                     i2l2748 260E  
                                   i2l2852 2376                                     i2l2844 2358  
                                   i2l2860 2388                                     i2l2836 2338  
                                   i2l2942 1A86                                     i2l2766 1F78  
                                   i2l2870 2238                                     i2l3638 25C0  
                                   i2l2848 2366                                     i2l3672 1D4C  
                                   i2l3816 1464                                     i2l3808 1444  
                                   i2l2946 1A8E                                     i2l2778 1FCC  
                                   i2l2858 2380                                     i2l2866 222C  
                                   i2l3658 1CEE                                     i2l3842 14AA  
                                   i2l2956 1AB6                                     i2l2964 1AEE  
                                   i2l2884 2254                                     i2l2876 2242  
                                   i2l3692 19C0                                     i2l3844 14BE  
                                   i2l3836 1494                                     i2l3764 13DC  
                                   i2l3756 13CC                                     i2l2966 1AF4  
                                   i2l2974 1B2C                                     i2l2894 2274  
                                   i2l2982 26A8                                     i2l3792 1428  
                                   i2l2978 2698                                     i2l3698 19EA  
                                   i2l3786 140A                                     i2l3778 13FA  
                                   i2l2998 1B74                                     i2l3798 1430  
                                   _OSCCON 000FD3                              CDCTxService@i 00E9  
                           __CFG_WPCFG$OFF 000000                   i2USBTransferOnePacket@ep 002F  
                        ??i2_USBDeviceInit 0033            __size_ofi2_USBTransferOnePacket 009E  
                           __CFG_WPDIS$OFF 000000                          _shortPacketStatus 0028  
                           __CFG_XINST$OFF 000000                            USBDeviceTasks@i 004A  
              USBStdFeatureReqHandler@pUEP 0041                   USBTransferOnePacket@data 00E1  
               USBCtrlTrfInHandler@lastDTS 002C                            ??_USBDeviceInit 00E8  
                             ?_putUSBUSART 00E0                       __end_of_getsUSBUSART 2198  
                        _USBEnableEndpoint 2600            __size_of_USBStdGetStatusHandler 007E  
                                   _memset 2664                                     clear_0 24F2  
                                   clear_1 24FE                                     clear_2 250A  
                          __CFG_CLKOEC$OFF 000000                         ?_USBEnableEndpoint 0033  
            __size_of_USBTransferOnePacket 00A0                            ??_BUTTON_Enable 00E0  
                             _CDCTxService 15D6                               __mediumconst 0000  
                                   tblptrh 000FF7                                     tblptrl 000FF6  
                                   tblptru 000FF8                             ?_putrsUSBUSART 002B  
                      ??_USBEnableEndpoint 0034                                _CtrlTrfData 000D38  
             ?_APP_DeviceCDCBasicDemoTasks 002B                       _controlTransferState 0026  
                     __CFG_LS48MHZ$SYS48X8 000000                          _SYSTEM_Initialize 23EC  
                               __accesstop 0060                    __end_of__initialization 2530  
                       ?_SYSTEM_Initialize 002B                              ___rparam_used 000001  
                 __size_of_USBStallHandler 003E                       __CFG_WPEND$PAGE_WPFP 000000  
                      __size_of_USBSuspend 001E                             __pcstackCOMRAM 002B  
                __end_of_USBEnableEndpoint 2636                              __end_of_sd000 11C6  
                            __end_of_sd001 117C                              __end_of_sd002 11B0  
                             __pidataBANK0 27E0                        ??_SYSTEM_Initialize 00E1  
                                LED_On@led 002B           __size_of_USBCtrlEPAllowDataStage 008E  
                             ??_LED_Enable 00E0              __size_of_USBConfigureEndpoint 0088  
              __end_of_USBCtrlTrfInHandler 1E04                            __CFG_DSWDTPS$G2 000000  
                  ?_APP_LEDUpdateUSBStatus 002B                     i2_USBTransferOnePacket 1F48  
                        _CDCTxService$2736 00E7                                  ?i2_memset 002B  
                               _cdc_rx_len 0025                                 _cdc_tx_len 007C  
                            _buttonMessage 00CE                   ??_USBCtrlTrfSetupHandler 0047  
                         ?_USBDeviceAttach 002B                  __end_of_SYSTEM_Initialize 2444  
                         _BUTTON_IsPressed 2772                     _USBStdGetStatusHandler 22A2  
                            _buttonPressed 0079                                 __pbssBANK0 0060  
                               __pbssBANK1 0100                                    ?_LED_On 002B  
            ??_APP_DeviceCDCBasicDemoTasks 00ED   __end_of_APP_DeviceCDCBasicDemoInitialize 2756  
__size_of_APP_DeviceCDCBasicDemoInitialize 001E         ??_APP_DeviceCDCBasicDemoInitialize 0037  
        ?_APP_DeviceCDCBasicDemoInitialize 002B           _APP_DeviceCDCBasicDemoInitialize 2738  
                       __end_of_LED_Enable 271A                __size_of_USBWakeFromSuspend 0026  
                              _pBDTEntryIn 0010           __end_of_USBCtrlEPServiceComplete 1992  
              __size_of_USBCheckCDCRequest 0082                       USBCtrlTrfRxService@i 002B  
                            LED_Enable@led 00E0             __end_of_APP_LEDUpdateUSBStatus 238E  
             APP_DeviceCDCBasicDemoTasks@i 00EF                                    ?_memset 00E0  
                               _device_dsc 11B0                           _USBCtrlEPService 1CA8  
                               _ep_data_in 0066                __end_of_USBCtrlTrfRxService 17D0  
                       _USBCheckStdRequest 1FE6                          _configDescriptor1 1105  
                          ??_putrsUSBUSART 00E0                         __CFG_OSC$INTOSCPLL 000000  
                                  _LED_Off 27AA                                 ??i2_memset 0031  
              __end_of_USBCtrlTrfTxService 1B32                        _USBStdSetCfgHandler 1E04  
                          __CFG_WDTPS$1024 000000                        ?_USBCheckStdRequest 002B  
             __size_of_USBStdGetDscHandler 010C                                    _UIEbits 000F36  
                                  _UIRbits 000F62                           __CFG_CFGPLLEN$ON 000000  
                          __size_of_LED_On 001C                              _cdc_trf_state 007B  
           APP_LEDUpdateUSBStatus@ledCount 0016                                    _pCDCDst 006C  
                                  _pCDCSrc 006F                      __size_of_getsUSBUSART 0088  
                                  __Hparam 0000                       ?_USBStdSetCfgHandler 002B  
                                _CDCInitEP 253A                                    __Lparam 0000  
               __size_of_USBEnableEndpoint 0036                                 _readBuffer 0140  
                     ??_USBCheckStdRequest 0046              __size_of_USBCtrlTrfOutHandler 0052  
                         ??_USBDeviceTasks 004A                          ??_USBStallHandler 002B  
                             __psmallconst 1100       __size_of_APP_DeviceCDCBasicDemoTasks 00BA  
                          __CFG_STVREN$OFF 000000                       __size_of_putUSBUSART 001C  
                                  __pcinit 24EC                         getsUSBUSART@buffer 00E7  
                          __size_of_memset 002A                  __end_of_configDescriptor1 1148  
                                  __ramtop 0F00                                    __ptext0 26DE  
                                  __ptext1 17D0                                    __ptext2 2664  
                                  __ptext3 2636                                    __ptext4 23EC  
                                  __ptext5 26FC                                    __ptext6 27C6  
                                  __ptext7 1BEE                                    __ptext8 25C6  
                                  __ptext9 2756                                    _inPipes 000A  
              _USBDeferOUTDataStagePackets 001F                               ??_USBSuspend 003F  
                          i2_USBDeviceInit 1992                           i2USBDeviceInit@i 0033  
                       __end_of_USB_CD_Ptr 1105                 __size_of_SYSTEM_Initialize 0058  
          __size_of_USBCtrlTrfSetupHandler 005E                       end_of_initialization 2530  
                             _getsUSBUSART 2110                         __end_of_USB_SD_Ptr 1104  
                      _pBDTEntryEP0OutNext 001A                                    memset@c 00E2  
                                  memset@n 00E4                                    memset@p 00E6  
          _dummy_encapsulated_cmd_response 00BD                   ?_USBStdFeatureReqHandler 002B  
                    ??_USBStdSetCfgHandler 003F                                 ?_CDCInitEP 002B  
                       __end_of_USBSuspend 2738                    _USBCtrlEPAllowDataStage 2082  
                                  postdec1 000FE5                                    postdec2 000FDD  
                                  postinc0 000FEE                                    postinc2 000FDE  
                 _USBCtrlEPServiceComplete 18B2                 _USBStatusStageEnabledFlag1 0022  
               _USBStatusStageEnabledFlag2 0023                         USBEnableEndpoint@p 0034  
                                _PORTBbits 000F81                           __CFG_DSBOREN$OFF 000000  
                         __CFG_CPUDIV$OSC1 000000                                  _TRISAbits 000F92  
                                _TRISBbits 000F93                         _BothEP0OutUOWNsSet 001C  
  SYSTEM_Initialize@pll_startup_counter_79 00E3                  USBConfigureEndpoint@EPNum 0030  
               ?_USBCtrlEPAllowStatusStage 002B        USER_USB_CALLBACK_EVENT_HANDLER@size 003B  
  APP_DeviceCDCBasicDemoTasks@numBytesRead 00EE                                  _USTATcopy 002A  
             __end_of_USBTransferOnePacket 1F48                             __end_of_LED_On 27AA  
                         __CFG_IOL1WAY$OFF 000000                          putUSBUSART@length 00E2  
                      __CFG_MSSP7B_EN$MSK7 000000                     _USBCtrlTrfSetupHandler 238E  
                 __end_of_BUTTON_IsPressed 278E                    ?i2_USBTransferOnePacket 002B  
                    __end_of_USBDeviceInit 18B2                                 LED_Off@led 002B  
                  __end_ofi2_USBDeviceInit 1A6C                                  i2memset@c 002D  
                                i2memset@n 002F                                  i2memset@p 0031  
                       putrsUSBUSART@pData 00E0                             __end_of_memset 268E  
                         __CFG_DSWDTEN$OFF 000000                          _USBBusIsSuspended 0078  
                      start_initialization 24EC                    ?_USBStdGetStatusHandler 002B  
                    __end_of_BUTTON_Enable 27E0              USBCtrlTrfRxService@byteToRead 002C  
                              _cdc_data_rx 007D                                _cdc_data_tx 0100  
                        __size_ofi2_memset 002A               __end_of_USBConfigureEndpoint 2220  
          __end_of_USBStdFeatureReqHandler 13B8                                   ??_LED_On 002B  
        __end_of_USBCtrlEPAllowStatusStage 1BEE                   __end_of_USBCtrlEPService 1D5A  
                ??_USBCtrlEPAllowDataStage 002C                                ??_CDCInitEP 0037  
                           USBDeviceInit@i 00E8                     _pBDTEntryEP0OutCurrent 0018  
                  USBTransferOnePacket@dir 00E0                    USBTransferOnePacket@len 00E3  
           __end_ofi2_USBTransferOnePacket 1FE6                        _USBStdGetDscHandler 14CA  
                        __CFG_ADCSEL$BIT12 000000                                __pdataBANK0 00CE  
                                 ??_memset 00E6                     BUTTON_IsPressed@button 00E0  
                   _USBActiveConfiguration 0029             __end_of_USBStdGetStatusHandler 2320  
                                 ?_LED_Off 002B                                __pbssCOMRAM 0001  
                            __pcstackBANK0 00E0               __size_of_USBCtrlTrfInHandler 00AA  
                     ?_USBStdGetDscHandler 002B                 __end_of_USBWakeFromSuspend 26DE  
                          _USBStallHandler 2588                               _pBDTEntryOut 0060  
               __end_of_USBCheckCDCRequest 22A2                   __size_of_USBDeviceAttach 002E  
                                __pintcode 1008                           ?i2_USBDeviceInit 002B  
                     _USBTransferOnePacket 1EA8                                __smallconst 1100  
                     __CFG_RTCOSC$T1OSCREF 000000                      __end_of_putrsUSBUSART 2600  
             __end_of_USBCtrlTrfOutHandler 24EC                      ??_USBStdGetDscHandler 002B  
                              _ep_data_out 0069        __end_of_APP_DeviceCDCBasicDemoTasks 1CA8  
              _APP_DeviceCDCBasicDemoTasks 1BEE               __size_of_USBCtrlTrfRxService 00FC  
            USBConfigureEndpoint@direction 002B               __size_of_USBCtrlTrfTxService 00C6  
                                 _LATAbits 000F89                 ??_USBCtrlEPServiceComplete 002C  
                                 _IPR2bits 000FA2                                   _PIE2bits 000FA0  
                                 i2u201_40 15B8                                   i2u201_47 15AE  
                                 i2u171_40 2352                                   i2u183_40 1AE0  
                                 i2u183_47 1AD6                                   i2u185_40 1B1E  
                                 i2u185_47 1B14                                   _PIR2bits 000FA1  
                                 i2u198_40 153C                                   i2u198_47 1532  
                                 i2u199_40 156C                                   i2u199_47 1562  
                USBCtrlEPService@setup_cnt 0049                                   _RCONbits 000FD0  
                            ??_putUSBUSART 00E3                                   _UEP0bits 000F26  
               _USBDeferINDataStagePackets 001E                __size_of_USBCheckStdRequest 009C  
                                 _UCONbits 000F65                       _USBConfigureEndpoint 2198  
         __size_of_USBStdFeatureReqHandler 01F0                      ?_USBTransferOnePacket 00E0  
                         __CFG_SOSCSEL$LOW 000000                          _SYS_InterruptHigh 1008  
                            ?_CDCTxService 002B                               _RemoteWakeup 001D  
                                 i2_memset 268E                           __size_of_LED_Off 001C  
                       ?_SYS_InterruptHigh 002B                    __end_of_USBStallHandler 25C6  
                                copy_data0 2524                          putrsUSBUSART@data 00E1  
              ??_USBCtrlEPAllowStatusStage 002B                __end_of_USBStdSetCfgHandler 1EA8  
                      ??_SYS_InterruptHigh 004B                         __end_of_device_dsc 11C2  
                 ??_APP_LEDUpdateUSBStatus 002C                    ?_USBCtrlTrfSetupHandler 002B  
                               _ANCON1bits 000F49                    USBStdGetStatusHandler@p 002B  
                                 __Hrparam 0000                                   __Lrparam 0000  
                   USBTransferOnePacket@ep 00E4                                   _SetupPkt 000D30  
                    ?_USBConfigureEndpoint 002B                          ??_USBDeviceAttach 00E0  
                        ?_BUTTON_IsPressed 002B                  __end_of_SYS_InterruptHigh 1062  
                       ??_BUTTON_IsPressed 00E0                        __end_of_putUSBUSART 2772  
                              _line_coding 00C5                             ??_CDCTxService 00E7  
                  __size_of_USBDeviceTasks 0112                                   __ptext10 2110  
                                 __ptext11 15D6                                   __ptext20 1CA8  
                                 __ptext12 1EA8                                   __ptext21 238E  
                                 __ptext13 2772                                   __ptext30 2444  
                                 __ptext22 18B2                                   __ptext31 2220  
                                 __ptext23 2082                                   __ptext15 13B8  
                                 __ptext40 249A                                   __ptext32 2320  
                                 __ptext24 1FE6                                   __ptext16 1992  
                                 __ptext41 16D4                                   __ptext33 278E  
                                 __ptext25 1E04                                   __ptext17 26B8  
                                 __ptext42 1B32                                   __ptext34 27AA  
                                 __ptext26 268E                                   __ptext18 271A  
                                 __ptext43 1D5A                                   __ptext35 2738  
                                 __ptext27 22A2                                   __ptext19 2588  
                                 __ptext44 1A6C                                   __ptext36 253A  
                                 __ptext28 14CA                                   __ptext37 1F48  
                                 __ptext29 11C8                                   __ptext38 2600  
                                 __ptext39 2198             __end_of_USBCtrlTrfSetupHandler 23EC  
                            __size_of_main 001E                          ?_USBCtrlEPService 002B  
                       ??_USBCtrlEPService 0047                        _USBCtrlTrfInHandler 1D5A  
                      BUTTON_Enable@button 00E0                                   _outPipes 0001  
                     _USBCtrlTrfOutHandler 249A                                   int$flags 0055  
                _USBCtrlEPAllowStatusStage 1B32                                 _LED_Enable 26FC  
                   ??_USBTransferOnePacket 00E4                           putrsUSBUSART@len 00E2  
                _USBDeferStatusStagePacket 0020                   CDCTxService@byte_to_send 00EA  
                              _OSCTUNEbits 000F9B                                 _INTCONbits 000FF2  
                     ?_USBCtrlTrfInHandler 002B              USBCtrlTrfTxService@byteToSend 002B  
                                 memset@p1 00E0                           ?_USBStallHandler 002B  
                 USBStdFeatureReqHandler@p 0044                                   intlevel2 0000  
                   __size_of_USBDeviceInit 00E2    __end_of_USER_USB_CALLBACK_EVENT_HANDLER 249A  
 __size_of_USER_USB_CALLBACK_EVENT_HANDLER 0056          ??_USER_USB_CALLBACK_EVENT_HANDLER 003D  
         ?_USER_USB_CALLBACK_EVENT_HANDLER 0037            _USER_USB_CALLBACK_EVENT_HANDLER 2444  
             i2USBTransferOnePacket@handle 0030       SYSTEM_Initialize@pll_startup_counter 00E1  
          __size_of_APP_LEDUpdateUSBStatus 006E                 i2USBTransferOnePacket@data 002C  
                   ??_USBConfigureEndpoint 002C                      ?_USBCtrlTrfOutHandler 002B  
                   __size_of_BUTTON_Enable 001A                                _putUSBUSART 2756  
                      _USBCtrlTrfRxService 16D4                         _USBWakeFromSuspend 26B8  
                  _USBStdFeatureReqHandler 11C8                         _USBCheckCDCRequest 2220  
                      _USBCtrlTrfTxService 1A6C                 __size_of_SYS_InterruptHigh 005A  
                      ?_USBWakeFromSuspend 002B                      ??_USBCtrlTrfInHandler 002C  
                    _USBAlternateInterface 00CC                        ?_USBCheckCDCRequest 002B  
                i2USBTransferOnePacket@dir 002B                  i2USBTransferOnePacket@len 002E  
                      USBEnableEndpoint@ep 0036                            _endpoint_number 0027  
                     ?_USBCtrlTrfRxService 002B                              ?_getsUSBUSART 00E7  
                 ?_USBCtrlEPAllowDataStage 002B                       ?_USBCtrlTrfTxService 002B  
             _USBStatusStageTimeoutCounter 0024                       ??_USBWakeFromSuspend 003F  
               USBTransferOnePacket@handle 00E5                       __end_of_CDCTxService 16D4  
                     ??_USBCheckCDCRequest 002B                                 _USB_CD_Ptr 1104  
