

Microchip Technology PIC LITE Macro Assembler V1.35 build -356382666 
                                                                                               Mon Nov 16 18:38:24 2015

Microchip Technology Omniscient Code Generator v1.35 (Free mode) build 201507080246
     1                           	processor	16F1827
     2                           	opt	pw 120
     3                           	opt	lm
     4                           	psect	idataBANK1,global,class=CODE,delta=2
     5                           	psect	stringtext,global,class=STRCODE,delta=2
     6                           	psect	cinit,global,class=CODE,merge=1,delta=2
     7                           	psect	bssBANK0,global,class=BANK0,space=1,delta=1
     8                           	psect	bssBANK1,global,class=BANK1,space=1,delta=1
     9                           	psect	dataBANK1,global,class=BANK1,space=1,delta=1
    10                           	psect	clrtext,global,class=CODE,delta=2
    11                           	psect	cstackBANK1,global,class=BANK1,space=1,delta=1
    12                           	psect	cstackCOMMON,global,class=COMMON,space=1,delta=1
    13                           	psect	cstackBANK0,global,class=BANK0,space=1,delta=1
    14                           	psect	maintext,global,class=CODE,merge=1,split=1,delta=2
    15                           	psect	text1,local,class=CODE,merge=1,delta=2
    16                           	psect	text2,local,class=CODE,merge=1,delta=2
    17                           	psect	text3,local,class=CODE,merge=1,delta=2
    18                           	psect	text4,local,class=CODE,merge=1,delta=2
    19                           	psect	text5,local,class=CODE,merge=1,delta=2
    20                           	psect	text6,local,class=CODE,merge=1,delta=2
    21                           	psect	text7,local,class=CODE,merge=1,delta=2
    22                           	psect	text8,local,class=CODE,merge=1,delta=2
    23                           	psect	text9,local,class=CODE,merge=1,delta=2
    24                           	psect	text10,local,class=CODE,merge=1,delta=2
    25                           	psect	text11,local,class=CODE,merge=1,delta=2
    26                           	psect	text12,local,class=CODE,merge=1,delta=2
    27                           	psect	text13,local,class=CODE,merge=1,delta=2
    28                           	psect	text14,local,class=CODE,merge=1,delta=2
    29                           	psect	text15,local,class=CODE,merge=1,delta=2
    30                           	psect	text16,local,class=CODE,merge=1,delta=2
    31                           	psect	text17,local,class=CODE,merge=1,delta=2
    32                           	psect	text18,local,class=CODE,merge=1,delta=2
    33                           	psect	text19,local,class=CODE,merge=1,delta=2
    34                           	psect	text20,local,class=CODE,merge=1,delta=2
    35                           	psect	text21,local,class=CODE,merge=1,delta=2
    36                           	psect	intentry,global,class=CODE,delta=2
    37                           	psect	text23,local,class=CODE,merge=1,delta=2
    38                           	psect	text24,local,class=CODE,merge=1,delta=2
    39                           	psect	text25,local,class=CODE,merge=1,delta=2
    40                           	psect	text26,local,class=CODE,merge=1,delta=2
    41                           	psect	text27,local,class=CODE,merge=1,delta=2
    42                           	psect	text28,local,class=CODE,merge=1,delta=2
    43                           	psect	swtext1,local,class=CONST,delta=2
    44                           	psect	text29,local,class=CODE,merge=1,delta=2
    45                           	psect	text30,local,class=CODE,merge=1,delta=2
    46                           	psect	text31,local,class=CODE,merge=1,delta=2
    47                           	psect	text32,local,class=CODE,merge=1,delta=2
    48                           	psect	text33,local,class=CODE,merge=1,delta=2
    49                           	psect	text34,local,class=CODE,merge=1,delta=2
    50                           	psect	text35,local,class=CODE,merge=1,delta=2
    51                           	psect	text36,local,class=CODE,merge=1,delta=2
    52                           	psect	text37,local,class=CODE,merge=1,delta=2
    53                           	psect	text38,local,class=CODE,merge=1,delta=2
    54                           	psect	text39,local,class=CODE,merge=1,delta=2
    55                           	psect	text40,local,class=CODE,merge=1,delta=2
    56                           	psect	text41,local,class=CODE,merge=1,delta=2
    57                           	psect	text42,local,class=CODE,merge=1,delta=2
    58                           	psect	text43,local,class=CODE,merge=1,delta=2
    59                           	psect	text44,local,class=CODE,merge=1,delta=2
    60                           	dabs	1,0x7E,2
    61  0000                     	;# 
    62  0001                     	;# 
    63  0002                     	;# 
    64  0003                     	;# 
    65  0004                     	;# 
    66  0005                     	;# 
    67  0006                     	;# 
    68  0007                     	;# 
    69  0008                     	;# 
    70  0009                     	;# 
    71  000A                     	;# 
    72  000B                     	;# 
    73  000C                     	;# 
    74  000D                     	;# 
    75  0011                     	;# 
    76  0012                     	;# 
    77  0013                     	;# 
    78  0014                     	;# 
    79  0015                     	;# 
    80  0016                     	;# 
    81  0016                     	;# 
    82  0017                     	;# 
    83  0018                     	;# 
    84  0019                     	;# 
    85  001A                     	;# 
    86  001B                     	;# 
    87  001C                     	;# 
    88  001E                     	;# 
    89  001F                     	;# 
    90  008C                     	;# 
    91  008D                     	;# 
    92  0091                     	;# 
    93  0092                     	;# 
    94  0093                     	;# 
    95  0094                     	;# 
    96  0095                     	;# 
    97  0096                     	;# 
    98  0097                     	;# 
    99  0098                     	;# 
   100  0099                     	;# 
   101  009A                     	;# 
   102  009B                     	;# 
   103  009B                     	;# 
   104  009C                     	;# 
   105  009D                     	;# 
   106  009E                     	;# 
   107  010C                     	;# 
   108  010D                     	;# 
   109  0111                     	;# 
   110  0112                     	;# 
   111  0113                     	;# 
   112  0114                     	;# 
   113  0115                     	;# 
   114  0116                     	;# 
   115  0117                     	;# 
   116  0118                     	;# 
   117  0119                     	;# 
   118  011A                     	;# 
   119  011B                     	;# 
   120  011D                     	;# 
   121  011E                     	;# 
   122  018C                     	;# 
   123  018D                     	;# 
   124  0191                     	;# 
   125  0191                     	;# 
   126  0192                     	;# 
   127  0193                     	;# 
   128  0193                     	;# 
   129  0193                     	;# 
   130  0194                     	;# 
   131  0195                     	;# 
   132  0196                     	;# 
   133  0199                     	;# 
   134  019A                     	;# 
   135  019B                     	;# 
   136  019B                     	;# 
   137  019B                     	;# 
   138  019B                     	;# 
   139  019C                     	;# 
   140  019C                     	;# 
   141  019D                     	;# 
   142  019E                     	;# 
   143  019F                     	;# 
   144  020C                     	;# 
   145  020D                     	;# 
   146  0211                     	;# 
   147  0211                     	;# 
   148  0212                     	;# 
   149  0212                     	;# 
   150  0213                     	;# 
   151  0213                     	;# 
   152  0214                     	;# 
   153  0214                     	;# 
   154  0215                     	;# 
   155  0215                     	;# 
   156  0215                     	;# 
   157  0216                     	;# 
   158  0216                     	;# 
   159  0217                     	;# 
   160  0217                     	;# 
   161  0219                     	;# 
   162  021A                     	;# 
   163  021B                     	;# 
   164  021C                     	;# 
   165  021D                     	;# 
   166  021E                     	;# 
   167  021F                     	;# 
   168  0291                     	;# 
   169  0291                     	;# 
   170  0292                     	;# 
   171  0293                     	;# 
   172  0294                     	;# 
   173  0295                     	;# 
   174  0295                     	;# 
   175  0296                     	;# 
   176  0298                     	;# 
   177  0298                     	;# 
   178  0299                     	;# 
   179  029A                     	;# 
   180  029B                     	;# 
   181  029C                     	;# 
   182  029C                     	;# 
   183  029D                     	;# 
   184  029E                     	;# 
   185  029E                     	;# 
   186  0311                     	;# 
   187  0311                     	;# 
   188  0312                     	;# 
   189  0313                     	;# 
   190  0318                     	;# 
   191  0318                     	;# 
   192  0319                     	;# 
   193  031A                     	;# 
   194  0394                     	;# 
   195  0395                     	;# 
   196  0396                     	;# 
   197  039A                     	;# 
   198  039C                     	;# 
   199  039D                     	;# 
   200  039E                     	;# 
   201  039F                     	;# 
   202  0415                     	;# 
   203  0416                     	;# 
   204  0417                     	;# 
   205  041C                     	;# 
   206  041D                     	;# 
   207  041E                     	;# 
   208  0FE4                     	;# 
   209  0FE5                     	;# 
   210  0FE6                     	;# 
   211  0FE7                     	;# 
   212  0FE8                     	;# 
   213  0FE9                     	;# 
   214  0FEA                     	;# 
   215  0FEB                     	;# 
   216  0FED                     	;# 
   217  0FEE                     	;# 
   218  0FEF                     	;# 
   219                           
   220                           	psect	idataBANK1
   221  0002                     __pidataBANK1:	
   222                           
   223                           ;initializer for LCD_SetCursor@F2878
   224  0002  3400               	retlw	0
   225  0003  3440               	retlw	64
   226  000B                     _INTCONbits	set	11
   227  0011                     _PIR1bits	set	17
   228  0018                     _T1CONbits	set	24
   229  0017                     _TMR1H	set	23
   230  0016                     _TMR1L	set	22
   231  0093                     _BCL1IF	set	147
   232  005F                     _GIE	set	95
   233  0064                     _RA4	set	100
   234  0065                     _RA5	set	101
   235  0068                     _RB0	set	104
   236  006B                     _RB3	set	107
   237  006E                     _RB6	set	110
   238  008B                     _SSP1IF	set	139
   239  009B                     _ADRES	set	155
   240  009D                     _ADCON0bits	set	157
   241  009E                     _ADCON1bits	set	158
   242  0095                     _OPTION_REGbits	set	149
   243  0099                     _OSCCON	set	153
   244  0091                     _PIE1bits	set	145
   245  008C                     _TRISA	set	140
   246  008D                     _TRISB	set	141
   247  0117                     _FVRCON	set	279
   248  0863                     _LATA3	set	2147
   249  0866                     _LATA6	set	2150
   250  0867                     _LATA7	set	2151
   251  086A                     _LATB2	set	2154
   252  086D                     _LATB5	set	2157
   253  086F                     _LATB7	set	2159
   254  018C                     _ANSELA	set	396
   255  018D                     _ANSELB	set	397
   256  019A                     _TXREG	set	410
   257  0212                     _SSP1ADD	set	530
   258  0211                     _SSP1BUF	set	529
   259  0215                     _SSP1CON1	set	533
   260  0216                     _SSP1CON2	set	534
   261  0216                     _SSP1CON2bits	set	534
   262  0214                     _SSP1STAT	set	532
   263  020C                     _WPUA	set	524
   264  020D                     _WPUB	set	525
   265                           
   266                           	psect	stringtext
   267  0792                     __pstringtext:	
   268  0792                     STR_1:	
   269  0792  3443               	retlw	67	;'C'
   270  0793  3468               	retlw	104	;'h'
   271  0794  3461               	retlw	97	;'a'
   272  0795  3472               	retlw	114	;'r'
   273  0796  3467               	retlw	103	;'g'
   274  0797  3465               	retlw	101	;'e'
   275  0798  3420               	retlw	32	;' '
   276  0799  3453               	retlw	83	;'S'
   277  079A  3474               	retlw	116	;'t'
   278  079B  3461               	retlw	97	;'a'
   279  079C  3474               	retlw	116	;'t'
   280  079D  3469               	retlw	105	;'i'
   281  079E  346F               	retlw	111	;'o'
   282  079F  346E               	retlw	110	;'n'
   283  07A0  3420               	retlw	32	;' '
   284  07A1  3435               	retlw	53	;'5'
   285  07A2  3400               	retlw	0
   286  07A3                     STR_11:	
   287  07A3  3441               	retlw	65	;'A'
   288  07A4  346C               	retlw	108	;'l'
   289  07A5  3477               	retlw	119	;'w'
   290  07A6  3461               	retlw	97	;'a'
   291  07A7  3479               	retlw	121	;'y'
   292  07A8  3473               	retlw	115	;'s'
   293  07A9  3420               	retlw	32	;' '
   294  07AA  344F               	retlw	79	;'O'
   295  07AB  344E               	retlw	78	;'N'
   296  07AC  3400               	retlw	0
   297  07AD                     STR_12:	
   298  07AD  3441               	retlw	65	;'A'
   299  07AE  3475               	retlw	117	;'u'
   300  07AF  3474               	retlw	116	;'t'
   301  07B0  346F               	retlw	111	;'o'
   302  07B1  3420               	retlw	32	;' '
   303  07B2  3453               	retlw	83	;'S'
   304  07B3  3474               	retlw	116	;'t'
   305  07B4  346F               	retlw	111	;'o'
   306  07B5  3470               	retlw	112	;'p'
   307  07B6  3400               	retlw	0
   308  07B7                     STR_10:	
   309  07B7  3452               	retlw	82	;'R'
   310  07B8  3465               	retlw	101	;'e'
   311  07B9  3473               	retlw	115	;'s'
   312  07BA  3465               	retlw	101	;'e'
   313  07BB  3474               	retlw	116	;'t'
   314  07BC  3465               	retlw	101	;'e'
   315  07BD  3464               	retlw	100	;'d'
   316  07BE  3400               	retlw	0
   317  07BF                     STR_9:	
   318  07BF  3452               	retlw	82	;'R'
   319  07C0  3465               	retlw	101	;'e'
   320  07C1  3473               	retlw	115	;'s'
   321  07C2  3465               	retlw	101	;'e'
   322  07C3  3474               	retlw	116	;'t'
   323  07C4  343F               	retlw	63	;'?'
   324  07C5  3400               	retlw	0
   325  07C6                     STR_6:	
   326  07C6  3443               	retlw	67	;'C'
   327  07C7  3445               	retlw	69	;'E'
   328  07C8  344E               	retlw	78	;'N'
   329  07C9  3454               	retlw	84	;'T'
   330  07CA  3445               	retlw	69	;'E'
   331  07CB  3452               	retlw	82	;'R'
   332  07CC  3400               	retlw	0
   333  07CD                     STR_3:	
   334  07CD  3443               	retlw	67	;'C'
   335  07CE  3465               	retlw	101	;'e'
   336  07CF  346E               	retlw	110	;'n'
   337  07D0  3474               	retlw	116	;'t'
   338  07D1  3465               	retlw	101	;'e'
   339  07D2  3472               	retlw	114	;'r'
   340  07D3  3400               	retlw	0
   341  07D4                     STR_5:	
   342  07D4  3452               	retlw	82	;'R'
   343  07D5  3449               	retlw	73	;'I'
   344  07D6  3447               	retlw	71	;'G'
   345  07D7  3448               	retlw	72	;'H'
   346  07D8  3454               	retlw	84	;'T'
   347  07D9  3400               	retlw	0
   348  07DA                     STR_2:	
   349  07DA  3452               	retlw	82	;'R'
   350  07DB  3469               	retlw	105	;'i'
   351  07DC  3467               	retlw	103	;'g'
   352  07DD  3468               	retlw	104	;'h'
   353  07DE  3474               	retlw	116	;'t'
   354  07DF  3400               	retlw	0
   355  07E0                     STR_7:	
   356  07E0  344C               	retlw	76	;'L'
   357  07E1  3445               	retlw	69	;'E'
   358  07E2  3446               	retlw	70	;'F'
   359  07E3  3454               	retlw	84	;'T'
   360  07E4  3400               	retlw	0
   361  07E5                     STR_4:	
   362  07E5  344C               	retlw	76	;'L'
   363  07E6  3465               	retlw	101	;'e'
   364  07E7  3466               	retlw	102	;'f'
   365  07E8  3474               	retlw	116	;'t'
   366  07E9  3400               	retlw	0
   367  07EA                     STR_8:	
   368  07EA  346D               	retlw	109	;'m'
   369  07EB  3441               	retlw	65	;'A'
   370  07EC  3468               	retlw	104	;'h'
   371  07ED  3400               	retlw	0
   372                           
   373                           ; #config settings
   374  0000                     
   375                           	psect	cinit
   376  0185                     start_initialization:	
   377  0185                     __initialization:	
   378                           
   379                           ; Clear objects allocated to BANK0
   380  0185  3020               	movlw	low __pbssBANK0
   381  0186  0084               	movwf	4
   382  0187  3000               	movlw	high __pbssBANK0
   383  0188  0085               	movwf	5
   384  0189  301C               	movlw	28
   385  018A  318B  232D  3181   	fcall	clear_ram0
   386                           
   387                           ; Clear objects allocated to BANK1
   388  018D  30A0               	movlw	low __pbssBANK1
   389  018E  0084               	movwf	4
   390  018F  3000               	movlw	high __pbssBANK1
   391  0190  0085               	movwf	5
   392  0191  3031               	movlw	49
   393  0192  318B  232D  3181   	fcall	clear_ram0
   394                           
   395                           ; Initialize objects allocated to BANK1
   396  0195  0021               	movlb	1	; select bank1
   397  0196  3180  2002  3181   	fcall	__pidataBANK1	;fetch initializer
   398  0199  00EA               	movwf	__pdataBANK1& (0+127)
   399  019A  3180  2003         	fcall	__pidataBANK1+1	;fetch initializer
   400  019C  00EB               	movwf	(__pdataBANK1+1)& (0+127)
   401  019D                     end_of_initialization:	
   402                           ;End of C runtime variable initialization code
   403                           
   404  019D                     __end_of__initialization:	
   405  019D  107E               	bcf	int$flags,0	;clear compiler interrupt flag (level 1)
   406  019E  0020               	movlb	0
   407  019F  3183  2BB8         	ljmp	_main	;jump to C main() function
   408                           
   409                           	psect	bssBANK0
   410  0020                     __pbssBANK0:	
   411  0020                     _s:	
   412  0020                     	ds	6
   413  0026                     _auto_cut_ON:	
   414  0026                     	ds	3
   415  0029                     _cnt0:	
   416  0029                     	ds	2
   417  002B                     _print_content:	
   418  002B                     	ds	1
   419  002C                     _print_port:	
   420  002C                     	ds	1
   421  002D                     _sh_0:	
   422  002D                     	ds	3
   423  0030                     _sh_1:	
   424  0030                     	ds	3
   425  0033                     _sh_2:	
   426  0033                     	ds	3
   427  0036                     _sw_0:	
   428  0036                     	ds	3
   429  0039                     _sw_1:	
   430  0039                     	ds	3
   431                           
   432                           	psect	bssBANK1
   433  00A0                     __pbssBANK1:	
   434  00A0                     _ss:	
   435  00A0                     	ds	12
   436  00AC                     _cut:	
   437  00AC                     	ds	6
   438  00B2                     _sp:	
   439  00B2                     	ds	6
   440  00B8                     _v:	
   441  00B8                     	ds	6
   442  00BE                     _change_flag:	
   443  00BE                     	ds	3
   444  00C1                     _cnt:	
   445  00C1                     	ds	3
   446  00C4                     _cntf:	
   447  00C4                     	ds	3
   448  00C7                     _cut_flag:	
   449  00C7                     	ds	3
   450  00CA                     _cnt1s:	
   451  00CA                     	ds	2
   452  00CC                     _tx_buf:	
   453  00CC                     	ds	5
   454                           
   455                           	psect	dataBANK1
   456  00EA                     __pdataBANK1:	
   457  00EA                     LCD_SetCursor@F2878:	
   458  00EA                     	ds	2
   459                           
   460                           	psect	clrtext
   461  0B2D                     clear_ram0:	
   462                           ;	Called with FSR0 containing the base address, and
   463                           ;	WREG with the size to clear
   464                           
   465  0B2D  0064               	clrwdt	;clear the watchdog before getting into this loop
   466  0B2E                     clrloop0:	
   467  0B2E  0180               	clrf	0	;clear RAM location pointed to by FSR
   468  0B2F  3101               	addfsr 0,1
   469  0B30  0B89               	decfsz	9,f	;Have we reached the end of clearing yet?
   470  0B31  2B2E               	goto	clrloop0	;have we reached the end yet?
   471  0B32  3400               	retlw	0	;all done for this memory range, return
   472                           
   473                           	psect	cstackBANK1
   474  00D1                     __pcstackBANK1:	
   475  00D1                     ?_LED:	
   476  00D1                     ??_timer0_init:	
   477                           ; 0 bytes @ 0x0
   478                           
   479  00D1                     ??_timer1_init:	
   480                           ; 0 bytes @ 0x0
   481                           
   482  00D1                     ??_adc_init:	
   483                           ; 0 bytes @ 0x0
   484                           
   485  00D1                     ??_I2C_IdleCheck:	
   486                           ; 0 bytes @ 0x0
   487                           
   488  00D1                     ??_I2C_init:	
   489                           ; 0 bytes @ 0x0
   490                           
   491  00D1                     ?_OUT:	
   492                           ; 0 bytes @ 0x0
   493                           
   494  00D1                     ?_sh_flag_clear:	
   495                           ; 0 bytes @ 0x0
   496                           
   497  00D1                     ?_sh_flag_read:	
   498                           ; 0 bytes @ 0x0
   499                           
   500  00D1                     ?___lmul:	
   501                           ; 1 bytes @ 0x0
   502                           
   503  00D1                     adc_init@p_ref:	
   504                           ; 4 bytes @ 0x0
   505                           
   506  00D1                     OUT@value:	
   507                           ; 1 bytes @ 0x0
   508                           
   509  00D1                     LED@value:	
   510                           ; 1 bytes @ 0x0
   511                           
   512  00D1                     sh_flag_read@bit_and:	
   513                           ; 1 bytes @ 0x0
   514                           
   515  00D1                     sh_flag_clear@bit_and:	
   516                           ; 1 bytes @ 0x0
   517                           
   518  00D1                     ___lmul@multiplier:	
   519                           ; 1 bytes @ 0x0
   520                           
   521                           
   522                           ; 4 bytes @ 0x0
   523  00D1                     	ds	1
   524  00D2                     ??_LED:	
   525  00D2                     ??_OUT:	
   526                           ; 0 bytes @ 0x1
   527                           
   528  00D2                     ??_sh_flag_read:	
   529                           ; 0 bytes @ 0x1
   530                           
   531  00D2                     ??_sh_flag_clear:	
   532                           ; 0 bytes @ 0x1
   533                           
   534  00D2                     timer0_init@prescaler:	
   535                           ; 0 bytes @ 0x1
   536                           
   537  00D2                     timer1_init@prescaler:	
   538                           ; 1 bytes @ 0x1
   539                           
   540  00D2                     I2C_IdleCheck@mask:	
   541                           ; 1 bytes @ 0x1
   542                           
   543  00D2                     OUT@b:	
   544                           ; 1 bytes @ 0x1
   545                           
   546  00D2                     LED@b:	
   547                           ; 1 bytes @ 0x1
   548                           
   549  00D2                     sh_flag_read@port:	
   550                           ; 1 bytes @ 0x1
   551                           
   552                           
   553                           ; 1 bytes @ 0x1
   554  00D2                     	ds	1
   555  00D3                     ??_I2C_Stop:	
   556  00D3                     ??_I2C_Send:	
   557                           ; 0 bytes @ 0x2
   558                           
   559  00D3                     ??_I2C_Receive:	
   560                           ; 0 bytes @ 0x2
   561                           
   562  00D3                     ?_I2C_Start:	
   563                           ; 0 bytes @ 0x2
   564                           
   565  00D3                     ?_I2C_rStart:	
   566                           ; 1 bytes @ 0x2
   567                           
   568  00D3                     I2C_Start@rw:	
   569                           ; 1 bytes @ 0x2
   570                           
   571  00D3                     I2C_Send@data:	
   572                           ; 1 bytes @ 0x2
   573                           
   574  00D3                     sh_flag_clear@port:	
   575                           ; 1 bytes @ 0x2
   576                           
   577  00D3                     I2C_rStart@adrs:	
   578                           ; 1 bytes @ 0x2
   579                           
   580                           
   581                           ; 2 bytes @ 0x2
   582  00D3                     	ds	1
   583  00D4                     ??_I2C_Start:	
   584  00D4                     I2C_Start@adrs:	
   585                           ; 0 bytes @ 0x3
   586                           
   587  00D4                     I2C_Receive@ack:	
   588                           ; 1 bytes @ 0x3
   589                           
   590                           
   591                           ; 1 bytes @ 0x3
   592  00D4                     	ds	1
   593  00D5                     ??_LCD_Command:	
   594  00D5                     ?_EEP_Writes:	
   595                           ; 0 bytes @ 0x4
   596                           
   597  00D5                     I2C_Receive@data:	
   598                           ; 0 bytes @ 0x4
   599                           
   600  00D5                     EEP_Writes@Reg_l:	
   601                           ; 1 bytes @ 0x4
   602                           
   603  00D5                     I2C_rStart@rw:	
   604                           ; 1 bytes @ 0x4
   605                           
   606  00D5                     ___lmul@multiplicand:	
   607                           ; 2 bytes @ 0x4
   608                           
   609                           
   610                           ; 4 bytes @ 0x4
   611  00D5                     	ds	1
   612  00D6                     LCD_Command@c:	
   613  00D6                     EEP_Writes@data_0:	
   614                           ; 1 bytes @ 0x5
   615                           
   616                           
   617                           ; 1 bytes @ 0x5
   618  00D6                     	ds	1
   619  00D7                     ??_I2C_rStart:	
   620  00D7                     ?_EEP_Read:	
   621                           ; 0 bytes @ 0x6
   622                           
   623  00D7                     LCD_Command@ans:	
   624                           ; 1 bytes @ 0x6
   625                           
   626  00D7                     EEP_Read@Reg_l:	
   627                           ; 1 bytes @ 0x6
   628                           
   629  00D7                     EEP_Writes@data_1:	
   630                           ; 1 bytes @ 0x6
   631                           
   632                           
   633                           ; 1 bytes @ 0x6
   634  00D7                     	ds	1
   635  00D8                     ??_LCD_Clear:	
   636  00D8                     ??_EEP_Read:	
   637                           ; 0 bytes @ 0x7
   638                           
   639  00D8                     ??_EEP_Writes:	
   640                           ; 0 bytes @ 0x7
   641                           
   642                           
   643                           ; 0 bytes @ 0x7
   644  00D8                     	ds	1
   645  00D9                     ??___lmul:	
   646  00D9                     EEP_Read@Reg_h:	
   647                           ; 0 bytes @ 0x8
   648                           
   649  00D9                     EEP_Writes@Reg_h:	
   650                           ; 1 bytes @ 0x8
   651                           
   652  00D9                     ___lmul@product:	
   653                           ; 1 bytes @ 0x8
   654                           
   655                           
   656                           ; 4 bytes @ 0x8
   657  00D9                     	ds	1
   658  00DA                     ??_LCD_init:	
   659  00DA                     EEP_Read@data:	
   660                           ; 0 bytes @ 0x9
   661                           
   662  00DA                     EEP_Writes@ans:	
   663                           ; 1 bytes @ 0x9
   664                           
   665                           
   666                           ; 1 bytes @ 0x9
   667  00DA                     	ds	1
   668  00DB                     EEP_Read@ans:	
   669                           
   670                           ; 1 bytes @ 0xA
   671  00DB                     	ds	2
   672  00DD                     ??_main_init:	
   673  00DD                     ??_main:	
   674                           ; 0 bytes @ 0xC
   675                           
   676                           
   677                           ; 0 bytes @ 0xC
   678  00DD                     	ds	12
   679  00E9                     main@i:	
   680                           
   681                           ; 1 bytes @ 0x18
   682  00E9                     	ds	1
   683                           
   684                           	psect	cstackCOMMON
   685  0070                     __pcstackCOMMON:	
   686  0070                     ?_lchika:	
   687  0070                     ?_timer0_init:	
   688                           ; 0 bytes @ 0x0
   689                           
   690  0070                     ?_timer1_init:	
   691                           ; 0 bytes @ 0x0
   692                           
   693  0070                     ?_adc_init:	
   694                           ; 0 bytes @ 0x0
   695                           
   696  0070                     ?_button_timer_interrupt:	
   697                           ; 0 bytes @ 0x0
   698                           
   699  0070                     ??_ringbuf_pop:	
   700                           ; 0 bytes @ 0x0
   701                           
   702  0070                     ??_ringbuf_num:	
   703                           ; 0 bytes @ 0x0
   704                           
   705  0070                     ?_I2C_IdleCheck:	
   706                           ; 0 bytes @ 0x0
   707                           
   708  0070                     ?_I2C_init:	
   709                           ; 0 bytes @ 0x0
   710                           
   711  0070                     ?_I2C_Stop:	
   712                           ; 0 bytes @ 0x0
   713                           
   714  0070                     ?_LCD_Command:	
   715                           ; 0 bytes @ 0x0
   716                           
   717  0070                     ?_LCD_Clear:	
   718                           ; 0 bytes @ 0x0
   719                           
   720  0070                     ?_LCD_Putc:	
   721                           ; 0 bytes @ 0x0
   722                           
   723  0070                     ?_LCD_init:	
   724                           ; 0 bytes @ 0x0
   725                           
   726  0070                     ?_isr:	
   727                           ; 0 bytes @ 0x0
   728                           
   729  0070                     ?_main_init:	
   730                           ; 0 bytes @ 0x0
   731                           
   732  0070                     ?i1_I2C_IdleCheck:	
   733                           ; 0 bytes @ 0x0
   734                           
   735  0070                     ??i1_I2C_IdleCheck:	
   736                           ; 0 bytes @ 0x0
   737                           
   738  0070                     ?i1_I2C_Stop:	
   739                           ; 0 bytes @ 0x0
   740                           
   741  0070                     ?i1_LCD_Command:	
   742                           ; 0 bytes @ 0x0
   743                           
   744  0070                     ?i1_LCD_Clear:	
   745                           ; 0 bytes @ 0x0
   746                           
   747  0070                     ?i1_LED:	
   748                           ; 0 bytes @ 0x0
   749                           
   750  0070                     ?_ringbuf_pop:	
   751                           ; 0 bytes @ 0x0
   752                           
   753  0070                     ?_ringbuf_num:	
   754                           ; 1 bytes @ 0x0
   755                           
   756  0070                     ?_I2C_Send:	
   757                           ; 1 bytes @ 0x0
   758                           
   759  0070                     ?_I2C_Receive:	
   760                           ; 1 bytes @ 0x0
   761                           
   762  0070                     ?i1_I2C_Send:	
   763                           ; 1 bytes @ 0x0
   764                           
   765  0070                     ?_adc:	
   766                           ; 1 bytes @ 0x0
   767                           
   768  0070                     ?_main:	
   769                           ; 2 bytes @ 0x0
   770                           
   771  0070                     ?___awdiv:	
   772                           ; 2 bytes @ 0x0
   773                           
   774  0070                     ?___lwmod:	
   775                           ; 2 bytes @ 0x0
   776                           
   777  0070                     ?___almod:	
   778                           ; 2 bytes @ 0x0
   779                           
   780  0070                     ?___lldiv:	
   781                           ; 4 bytes @ 0x0
   782                           
   783  0070                     button_timer_interrupt@sw_value:	
   784                           ; 4 bytes @ 0x0
   785                           
   786  0070                     i1LED@value:	
   787                           ; 1 bytes @ 0x0
   788                           
   789  0070                     ___awdiv@divisor:	
   790                           ; 1 bytes @ 0x0
   791                           
   792  0070                     ___lwmod@divisor:	
   793                           ; 2 bytes @ 0x0
   794                           
   795  0070                     ___almod@divisor:	
   796                           ; 2 bytes @ 0x0
   797                           
   798  0070                     ___lldiv@divisor:	
   799                           ; 4 bytes @ 0x0
   800                           
   801                           
   802                           ; 4 bytes @ 0x0
   803  0070                     	ds	1
   804  0071                     ??_button_timer_interrupt:	
   805  0071                     ??i1_LED:	
   806                           ; 0 bytes @ 0x1
   807                           
   808  0071                     ringbuf_num@rb:	
   809                           ; 0 bytes @ 0x1
   810                           
   811  0071                     i1I2C_IdleCheck@mask:	
   812                           ; 1 bytes @ 0x1
   813                           
   814  0071                     i1LED@b:	
   815                           ; 1 bytes @ 0x1
   816                           
   817                           
   818                           ; 1 bytes @ 0x1
   819  0071                     	ds	1
   820  0072                     ??_adc:	
   821  0072                     ??i1_I2C_Stop:	
   822                           ; 0 bytes @ 0x2
   823                           
   824  0072                     ??i1_I2C_Send:	
   825                           ; 0 bytes @ 0x2
   826                           
   827  0072                     ?i1_I2C_Start:	
   828                           ; 0 bytes @ 0x2
   829                           
   830  0072                     ringbuf_pop@ret:	
   831                           ; 1 bytes @ 0x2
   832                           
   833  0072                     i1I2C_Start@rw:	
   834                           ; 1 bytes @ 0x2
   835                           
   836  0072                     i1I2C_Send@data:	
   837                           ; 1 bytes @ 0x2
   838                           
   839  0072                     ___awdiv@dividend:	
   840                           ; 1 bytes @ 0x2
   841                           
   842  0072                     ___lwmod@dividend:	
   843                           ; 2 bytes @ 0x2
   844                           
   845                           
   846                           ; 2 bytes @ 0x2
   847  0072                     	ds	1
   848  0073                     ??i1_I2C_Start:	
   849  0073                     adc@ch:	
   850                           ; 0 bytes @ 0x3
   851                           
   852  0073                     button_timer_interrupt@bt:	
   853                           ; 1 bytes @ 0x3
   854                           
   855  0073                     ringbuf_pop@rb:	
   856                           ; 1 bytes @ 0x3
   857                           
   858  0073                     i1I2C_Start@adrs:	
   859                           ; 1 bytes @ 0x3
   860                           
   861                           
   862                           ; 1 bytes @ 0x3
   863  0073                     	ds	1
   864  0074                     ??_LCD_Putc:	
   865  0074                     ?_LCD_Puts:	
   866                           ; 0 bytes @ 0x4
   867                           
   868  0074                     ??___awdiv:	
   869                           ; 0 bytes @ 0x4
   870                           
   871  0074                     ??___lwmod:	
   872                           ; 0 bytes @ 0x4
   873                           
   874  0074                     ??i1_LCD_Command:	
   875                           ; 0 bytes @ 0x4
   876                           
   877  0074                     LCD_Puts@s:	
   878                           ; 0 bytes @ 0x4
   879                           
   880  0074                     ___almod@dividend:	
   881                           ; 2 bytes @ 0x4
   882                           
   883  0074                     ___lldiv@dividend:	
   884                           ; 4 bytes @ 0x4
   885                           
   886                           
   887                           ; 4 bytes @ 0x4
   888  0074                     	ds	1
   889  0075                     LCD_Putc@c:	
   890  0075                     ___awdiv@counter:	
   891                           ; 1 bytes @ 0x5
   892                           
   893  0075                     ___lwmod@counter:	
   894                           ; 1 bytes @ 0x5
   895                           
   896  0075                     i1LCD_Command@c:	
   897                           ; 1 bytes @ 0x5
   898                           
   899                           
   900                           ; 1 bytes @ 0x5
   901  0075                     	ds	1
   902  0076                     ??_LCD_Puts:	
   903  0076                     ?___lwdiv:	
   904                           ; 0 bytes @ 0x6
   905                           
   906  0076                     LCD_Putc@ans:	
   907                           ; 2 bytes @ 0x6
   908                           
   909  0076                     ___awdiv@sign:	
   910                           ; 1 bytes @ 0x6
   911                           
   912  0076                     i1LCD_Command@ans:	
   913                           ; 1 bytes @ 0x6
   914                           
   915  0076                     ___lwdiv@divisor:	
   916                           ; 1 bytes @ 0x6
   917                           
   918                           
   919                           ; 2 bytes @ 0x6
   920  0076                     	ds	1
   921  0077                     ?_LCD_SetCursor:	
   922  0077                     ??i1_LCD_Clear:	
   923                           ; 0 bytes @ 0x7
   924                           
   925  0077                     LCD_SetCursor@row:	
   926                           ; 0 bytes @ 0x7
   927                           
   928  0077                     ___awdiv@quotient:	
   929                           ; 1 bytes @ 0x7
   930                           
   931                           
   932                           ; 2 bytes @ 0x7
   933  0077                     	ds	1
   934  0078                     ??_LCD_SetCursor:	
   935  0078                     ??___almod:	
   936                           ; 0 bytes @ 0x8
   937                           
   938  0078                     ??___lldiv:	
   939                           ; 0 bytes @ 0x8
   940                           
   941  0078                     LCD_SetCursor@row_offsets:	
   942                           ; 0 bytes @ 0x8
   943                           
   944  0078                     LCD_Puts@ans:	
   945                           ; 2 bytes @ 0x8
   946                           
   947  0078                     ___lwdiv@dividend:	
   948                           ; 2 bytes @ 0x8
   949                           
   950                           
   951                           ; 2 bytes @ 0x8
   952  0078                     	ds	1
   953  0079                     ___almod@counter:	
   954  0079                     ___lldiv@quotient:	
   955                           ; 1 bytes @ 0x9
   956                           
   957                           
   958                           ; 4 bytes @ 0x9
   959  0079                     	ds	1
   960  007A                     ??___lwdiv:	
   961  007A                     LCD_SetCursor@col:	
   962                           ; 0 bytes @ 0xA
   963                           
   964  007A                     ___almod@sign:	
   965                           ; 1 bytes @ 0xA
   966                           
   967                           
   968                           ; 1 bytes @ 0xA
   969  007A                     	ds	1
   970  007B                     ??___aldiv:	
   971  007B                     ___lwdiv@quotient:	
   972                           ; 0 bytes @ 0xB
   973                           
   974                           
   975                           ; 2 bytes @ 0xB
   976  007B                     	ds	2
   977  007D                     ___lldiv@counter:	
   978  007D                     ___lwdiv@counter:	
   979                           ; 1 bytes @ 0xD
   980                           
   981                           
   982                           ; 1 bytes @ 0xD
   983  007D                     	ds	1
   984                           
   985                           	psect	cstackBANK0
   986  003C                     __pcstackBANK0:	
   987  003C                     ??_lchika:	
   988  003C                     ?___aldiv:	
   989                           ; 0 bytes @ 0x0
   990                           
   991  003C                     ___aldiv@divisor:	
   992                           ; 4 bytes @ 0x0
   993                           
   994                           
   995                           ; 4 bytes @ 0x0
   996  003C                     	ds	4
   997  0040                     lchika@i:	
   998  0040                     ___aldiv@dividend:	
   999                           ; 1 bytes @ 0x4
  1000                           
  1001                           
  1002                           ; 4 bytes @ 0x4
  1003  0040                     	ds	4
  1004  0044                     ___aldiv@counter:	
  1005                           
  1006                           ; 1 bytes @ 0x8
  1007  0044                     	ds	1
  1008  0045                     ___aldiv@sign:	
  1009                           
  1010                           ; 1 bytes @ 0x9
  1011  0045                     	ds	1
  1012  0046                     ___aldiv@quotient:	
  1013                           
  1014                           ; 4 bytes @ 0xA
  1015  0046                     	ds	4
  1016  004A                     ?_display:	
  1017  004A                     display@co:	
  1018                           ; 0 bytes @ 0xE
  1019                           
  1020                           
  1021                           ; 1 bytes @ 0xE
  1022  004A                     	ds	1
  1023  004B                     ??_display:	
  1024                           
  1025                           ; 0 bytes @ 0xF
  1026  004B                     	ds	2
  1027  004D                     display@i:	
  1028                           
  1029                           ; 1 bytes @ 0x11
  1030  004D                     	ds	1
  1031  004E                     ??_isr:	
  1032                           
  1033                           ; 0 bytes @ 0x12
  1034  004E                     	ds	8
  1035  0056                     isr@i:	
  1036                           
  1037                           ; 1 bytes @ 0x1A
  1038  0056                     	ds	1
  1039                           
  1040                           	psect	maintext
  1041  03B8                     __pmaintext:	
  1042 ;;
  1043 ;;Main: autosize = 0, tempsize = 12, incstack = 0, save=0
  1044 ;;
  1045 ;; *************** function _main *****************
  1046 ;; Defined at:
  1047 ;;		line 320 in file "PIC16F1827-ChargeStation5-01.c"
  1048 ;; Parameters:    Size  Location     Type
  1049 ;;		None
  1050 ;; Auto vars:     Size  Location     Type
  1051 ;;  i               1   24[BANK1 ] unsigned char 
  1052 ;; Return value:  Size  Location     Type
  1053 ;;                  2  378[None  ] int 
  1054 ;; Registers used:
  1055 ;;		wreg, fsr0l, fsr0h, fsr1l, fsr1h, status,2, status,0, pclath, cstack
  1056 ;; Tracked objects:
  1057 ;;		On entry : B1F/0
  1058 ;;		On exit  : 0/0
  1059 ;;		Unchanged: 0/0
  1060 ;; Data sizes:     COMMON   BANK0   BANK1   BANK2   BANK3   BANK4
  1061 ;;      Params:         0       0       0       0       0       0
  1062 ;;      Locals:         0       0       1       0       0       0
  1063 ;;      Temps:          0       0      12       0       0       0
  1064 ;;      Totals:         0       0      13       0       0       0
  1065 ;;Total ram usage:       13 bytes
  1066 ;; Hardware stack levels required when called:   12
  1067 ;; This function calls:
  1068 ;;		_EEP_Read
  1069 ;;		_EEP_Writes
  1070 ;;		_LED
  1071 ;;		_OUT
  1072 ;;		___lmul
  1073 ;;		_main_init
  1074 ;;		_sh_flag_clear
  1075 ;;		_sh_flag_read
  1076 ;; This function is called by:
  1077 ;;		Startup code after reset
  1078 ;; This function uses a non-reentrant model
  1079 ;;
  1080                           
  1081                           
  1082                           ;psect for function _main
  1083  03B8                     _main:	
  1084                           
  1085                           ;PIC16F1827-ChargeStation5-01.c: 321: main_init();
  1086                           
  1087                           ;incstack = 0
  1088                           ; Regs used in _main: [wreg-fsr1h+status,2+status,0+pclath+cstack]
  1089  03B8  318C  24FC  3183   	fcall	_main_init
  1090                           
  1091                           ;PIC16F1827-ChargeStation5-01.c: 323: OUT(0, 1);
  1092  03BB  0021               	movlb	1	; select bank1
  1093  03BC  01D1               	clrf	OUT@value^(0+128)
  1094  03BD  0AD1               	incf	OUT@value^(0+128),f
  1095  03BE  3000               	movlw	0
  1096  03BF  318E  261E  3183   	fcall	_OUT
  1097                           
  1098                           ;PIC16F1827-ChargeStation5-01.c: 324: OUT(1, 1);
  1099  03C2  0021               	movlb	1	; select bank1
  1100  03C3  01D1               	clrf	OUT@value^(0+128)
  1101  03C4  0AD1               	incf	OUT@value^(0+128),f
  1102  03C5  3001               	movlw	1
  1103  03C6  318E  261E  3183   	fcall	_OUT
  1104                           
  1105                           ;PIC16F1827-ChargeStation5-01.c: 325: OUT(2, 1);
  1106  03C9  0021               	movlb	1	; select bank1
  1107  03CA  01D1               	clrf	OUT@value^(0+128)
  1108  03CB  0AD1               	incf	OUT@value^(0+128),f
  1109  03CC  3002               	movlw	2
  1110  03CD  318E  261E  3183   	fcall	_OUT
  1111                           
  1112                           ;PIC16F1827-ChargeStation5-01.c: 326: LED(0, 1);
  1113  03D0  0021               	movlb	1	; select bank1
  1114  03D1  01D1               	clrf	LED@value^(0+128)
  1115  03D2  0AD1               	incf	LED@value^(0+128),f
  1116  03D3  3000               	movlw	0
  1117  03D4  318D  2547  3183   	fcall	_LED
  1118                           
  1119                           ;PIC16F1827-ChargeStation5-01.c: 327: LED(1, 1);
  1120  03D7  0021               	movlb	1	; select bank1
  1121  03D8  01D1               	clrf	LED@value^(0+128)
  1122  03D9  0AD1               	incf	LED@value^(0+128),f
  1123  03DA  3001               	movlw	1
  1124  03DB  318D  2547  3183   	fcall	_LED
  1125                           
  1126                           ;PIC16F1827-ChargeStation5-01.c: 328: LED(2, 1);
  1127  03DE  0021               	movlb	1	; select bank1
  1128  03DF  01D1               	clrf	LED@value^(0+128)
  1129  03E0  0AD1               	incf	LED@value^(0+128),f
  1130  03E1  3002               	movlw	2
  1131  03E2  318D  2547  3183   	fcall	_LED
  1132                           
  1133                           ;PIC16F1827-ChargeStation5-01.c: 330: GIE = 0;
  1134  03E5  138B               	bcf	11,7	;volatile
  1135                           
  1136                           ;PIC16F1827-ChargeStation5-01.c: 331: uint8_t i;
  1137                           ;PIC16F1827-ChargeStation5-01.c: 332: for (i = 0; i < 3; i++) {
  1138  03E6  0021               	movlb	1	; select bank1
  1139  03E7  01E9               	clrf	main@i^(0+128)
  1140  03E8  3003               	movlw	3
  1141  03E9  0269               	subwf	main@i^(0+128),w
  1142  03EA  1803               	btfsc	3,0
  1143  03EB  2C63               	goto	l380
  1144  03EC                     l3211:	
  1145                           
  1146                           ;PIC16F1827-ChargeStation5-01.c: 333: ss[i] = (0xFF & EEP_Read(i, 1))+(0xFF00 & (EEP_Rea
      +                          d(i, 0) << 8));
  1147  03EC  01D7               	clrf	EEP_Read@Reg_l^(0+128)
  1148  03ED  0869               	movf	main@i^(0+128),w
  1149  03EE  318E  26DD  3183   	fcall	_EEP_Read
  1150  03F1  0021               	movlb	1	; select bank1
  1151  03F2  00DD               	movwf	??_main^(0+128)
  1152  03F3  01DE               	clrf	(??_main^(0+128)+1)
  1153  03F4  085D               	movf	??_main^(0+128),w
  1154  03F5  00DE               	movwf	(??_main^(0+128)+1)
  1155  03F6  01DD               	clrf	??_main^(0+128)
  1156  03F7  3000               	movlw	0
  1157  03F8  055D               	andwf	??_main^(0+128),w
  1158  03F9  00E0               	movwf	(??_main+3)^(0+128)
  1159  03FA  30FF               	movlw	255
  1160  03FB  055E               	andwf	(??_main+1)^(0+128),w
  1161  03FC  00E1               	movwf	(??_main+4)^(0+128)
  1162  03FD  01D7               	clrf	EEP_Read@Reg_l^(0+128)
  1163  03FE  0AD7               	incf	EEP_Read@Reg_l^(0+128),f
  1164  03FF  0869               	movf	main@i^(0+128),w
  1165  0400  318E  26DD  3183   	fcall	_EEP_Read
  1166  0403  0021               	movlb	1	; select bank1
  1167  0404  0760               	addwf	(??_main+3)^(0+128),w
  1168  0405  00E2               	movwf	(??_main+5)^(0+128)
  1169  0406  0861               	movf	(??_main+4)^(0+128),w
  1170  0407  1803               	skipnc
  1171  0408  0A61               	incf	(??_main+4)^(0+128),w
  1172  0409  00E3               	movwf	((??_main+5)^(0+128)+1)
  1173  040A  0862               	movf	(??_main+5)^(0+128),w
  1174  040B  00E4               	movwf	(??_main+7)^(0+128)
  1175  040C  0863               	movf	(??_main+6)^(0+128),w
  1176  040D  00E5               	movwf	((??_main+7)^(0+128)+1)
  1177  040E  01E6               	clrf	((??_main+7)^(0+128)+2)
  1178  040F  01E7               	clrf	((??_main+7)^(0+128)+3)
  1179  0410  0869               	movf	main@i^(0+128),w
  1180  0411  00E8               	movwf	(??_main+11)^(0+128)
  1181  0412  3001               	movlw	1
  1182  0413                     u3495:	
  1183  0413  35E8               	lslf	(??_main+11)^(0+128),f
  1184  0414  3EFF               	addlw	-1
  1185  0415  1D03               	skipz
  1186  0416  2C13               	goto	u3495
  1187  0417  3568               	lslf	(??_main+11)^(0+128),w
  1188  0418  3EA0               	addlw	(low (_ss| 0))& (0+255)
  1189  0419  0086               	movwf	6
  1190  041A  0187               	clrf	7
  1191  041B  0864               	movf	(??_main+7)^(0+128),w
  1192  041C  3FC0               	movwi [0]fsr1
  1193  041D  0865               	movf	(??_main+8)^(0+128),w
  1194  041E  3FC1               	movwi [1]fsr1
  1195  041F  0866               	movf	(??_main+9)^(0+128),w
  1196  0420  3FC2               	movwi [2]fsr1
  1197  0421  0867               	movf	(??_main+10)^(0+128),w
  1198  0422  3FC3               	movwi [3]fsr1
  1199                           
  1200                           ;PIC16F1827-ChargeStation5-01.c: 334: ss[i] *= 3600;
  1201  0423  3000               	movlw	0
  1202  0424  00D4               	movwf	(___lmul@multiplier+3)^(0+128)
  1203  0425  3000               	movlw	0
  1204  0426  00D3               	movwf	(___lmul@multiplier+2)^(0+128)
  1205  0427  300E               	movlw	14
  1206  0428  00D2               	movwf	(___lmul@multiplier+1)^(0+128)
  1207  0429  3010               	movlw	16
  1208  042A  00D1               	movwf	___lmul@multiplier^(0+128)
  1209  042B  0869               	movf	main@i^(0+128),w
  1210  042C  00DD               	movwf	??_main^(0+128)
  1211  042D  3001               	movlw	1
  1212  042E                     u3505:	
  1213  042E  35DD               	lslf	??_main^(0+128),f
  1214  042F  3EFF               	addlw	-1
  1215  0430  1D03               	skipz
  1216  0431  2C2E               	goto	u3505
  1217  0432  355D               	lslf	??_main^(0+128),w
  1218  0433  3EA0               	addlw	(low (_ss| 0))& (0+255)
  1219  0434  0086               	movwf	6
  1220  0435  0187               	clrf	7
  1221  0436  3F40               	moviw [0]fsr1
  1222  0437  00D5               	movwf	___lmul@multiplicand^(0+128)
  1223  0438  3F41               	moviw [1]fsr1
  1224  0439  00D6               	movwf	(___lmul@multiplicand+1)^(0+128)
  1225  043A  3F42               	moviw [2]fsr1
  1226  043B  00D7               	movwf	(___lmul@multiplicand+2)^(0+128)
  1227  043C  3F43               	moviw [3]fsr1
  1228  043D  00D8               	movwf	(___lmul@multiplicand+3)^(0+128)
  1229  043E  318E  2679  3183   	fcall	___lmul
  1230  0441  0021               	movlb	1	; select bank1
  1231  0442  0869               	movf	main@i^(0+128),w
  1232  0443  00DE               	movwf	(??_main+1)^(0+128)
  1233  0444  3001               	movlw	1
  1234  0445                     u3515:	
  1235  0445  35DE               	lslf	(??_main+1)^(0+128),f
  1236  0446  3EFF               	addlw	-1
  1237  0447  1D03               	skipz
  1238  0448  2C45               	goto	u3515
  1239  0449  355E               	lslf	(??_main+1)^(0+128),w
  1240  044A  3EA0               	addlw	(low (_ss| 0))& (0+255)
  1241  044B  0086               	movwf	6
  1242  044C  0187               	clrf	7
  1243  044D  0851               	movf	?___lmul^(0+128),w
  1244  044E  3FC0               	movwi [0]fsr1
  1245  044F  0852               	movf	(?___lmul+1)^(0+128),w
  1246  0450  3FC1               	movwi [1]fsr1
  1247  0451  0853               	movf	(?___lmul+2)^(0+128),w
  1248  0452  3FC2               	movwi [2]fsr1
  1249  0453  0854               	movf	(?___lmul+3)^(0+128),w
  1250  0454  3FC3               	movwi [3]fsr1
  1251                           
  1252                           ;PIC16F1827-ChargeStation5-01.c: 335: auto_cut_ON[i] = 1;
  1253  0455  0869               	movf	main@i^(0+128),w
  1254  0456  3E26               	addlw	(low (_auto_cut_ON| 0))& (0+255)
  1255  0457  0086               	movwf	6
  1256  0458  0187               	clrf	7
  1257  0459  0181               	clrf	1
  1258  045A  0A81               	incf	1,f
  1259  045B  3001               	movlw	1
  1260  045C  00DD               	movwf	??_main^(0+128)
  1261  045D  085D               	movf	??_main^(0+128),w
  1262  045E  07E9               	addwf	main@i^(0+128),f
  1263  045F  3003               	movlw	3
  1264  0460  0269               	subwf	main@i^(0+128),w
  1265  0461  1C03               	skipc
  1266  0462  2BEC               	goto	l3211
  1267  0463                     l380:	
  1268                           
  1269                           ;PIC16F1827-ChargeStation5-01.c: 336: }
  1270                           ;PIC16F1827-ChargeStation5-01.c: 337: INTCONbits.GIE = 1;
  1271  0463  178B               	bsf	11,7	;volatile
  1272  0464                     l3219:	
  1273                           ;PIC16F1827-ChargeStation5-01.c: 339: while (1) {
  1274                           
  1275                           
  1276                           ;PIC16F1827-ChargeStation5-01.c: 340: for (i = 0; i < 3; i++) {
  1277  0464  0021               	movlb	1	; select bank1
  1278  0465  01E9               	clrf	main@i^(0+128)
  1279  0466  3003               	movlw	3
  1280  0467  0269               	subwf	main@i^(0+128),w
  1281  0468  1803               	btfsc	3,0
  1282  0469  2CD2               	goto	l383
  1283  046A                     l3225:	
  1284                           
  1285                           ;PIC16F1827-ChargeStation5-01.c: 341: if (sh_flag_read(i, 0x10)) {
  1286  046A  3010               	movlw	16
  1287  046B  00DD               	movwf	??_main^(0+128)
  1288  046C  085D               	movf	??_main^(0+128),w
  1289  046D  00D1               	movwf	sh_flag_read@bit_and^(0+128)
  1290  046E  0869               	movf	main@i^(0+128),w
  1291  046F  318C  24B8  3183   	fcall	_sh_flag_read
  1292  0472  3A00               	xorlw	0
  1293  0473  1903               	skipnz
  1294  0474  2C91               	goto	l3231
  1295                           
  1296                           ;PIC16F1827-ChargeStation5-01.c: 342: sh_flag_clear(i, 0x00);
  1297  0475  0021               	movlb	1	; select bank1
  1298  0476  01D1               	clrf	sh_flag_clear@bit_and^(0+128)
  1299  0477  0869               	movf	main@i^(0+128),w
  1300  0478  318C  24D8  3183   	fcall	_sh_flag_clear
  1301                           
  1302                           ;PIC16F1827-ChargeStation5-01.c: 343: OUT(i, 1);
  1303  047B  0021               	movlb	1	; select bank1
  1304  047C  01D1               	clrf	OUT@value^(0+128)
  1305  047D  0AD1               	incf	OUT@value^(0+128),f
  1306  047E  0869               	movf	main@i^(0+128),w
  1307  047F  318E  261E  3183   	fcall	_OUT
  1308                           
  1309                           ;PIC16F1827-ChargeStation5-01.c: 344: LED(i, 1);
  1310  0482  0021               	movlb	1	; select bank1
  1311  0483  01D1               	clrf	LED@value^(0+128)
  1312  0484  0AD1               	incf	LED@value^(0+128),f
  1313  0485  0869               	movf	main@i^(0+128),w
  1314  0486  318D  2547  3183   	fcall	_LED
  1315                           
  1316                           ;PIC16F1827-ChargeStation5-01.c: 345: cut[i] = 0;
  1317  0489  0021               	movlb	1	; select bank1
  1318  048A  3569               	lslf	main@i^(0+128),w
  1319  048B  3EAC               	addlw	(low (_cut| 0))& (0+255)
  1320  048C  0086               	movwf	6
  1321  048D  0187               	clrf	7
  1322  048E  3000               	movlw	0
  1323  048F  3FC0               	movwi [0]fsr1
  1324  0490  3FC1               	movwi [1]fsr1
  1325  0491                     l3231:	
  1326                           
  1327                           ;PIC16F1827-ChargeStation5-01.c: 346: }
  1328                           ;PIC16F1827-ChargeStation5-01.c: 347: if (cut_flag[i]) {
  1329  0491  0021               	movlb	1	; select bank1
  1330  0492  0869               	movf	main@i^(0+128),w
  1331  0493  3EC7               	addlw	(low (_cut_flag| 0))& (0+255)
  1332  0494  0086               	movwf	6
  1333  0495  0187               	clrf	7
  1334  0496  0801               	movf	1,w
  1335  0497  1903               	btfsc	3,2
  1336  0498  2CA3               	goto	l3237
  1337                           
  1338                           ;PIC16F1827-ChargeStation5-01.c: 348: cut_flag[i] = 0;
  1339  0499  0869               	movf	main@i^(0+128),w
  1340  049A  3EC7               	addlw	(low (_cut_flag| 0))& (0+255)
  1341  049B  0086               	movwf	6
  1342  049C  0187               	clrf	7
  1343  049D  0181               	clrf	1
  1344                           
  1345                           ;PIC16F1827-ChargeStation5-01.c: 349: OUT(i, 0);
  1346  049E  01D1               	clrf	OUT@value^(0+128)
  1347  049F  0869               	movf	main@i^(0+128),w
  1348  04A0  318E  261E  3183   	fcall	_OUT
  1349  04A3                     l3237:	
  1350                           
  1351                           ;PIC16F1827-ChargeStation5-01.c: 350: }
  1352                           ;PIC16F1827-ChargeStation5-01.c: 351: if (change_flag[i]) {
  1353  04A3  0021               	movlb	1	; select bank1
  1354  04A4  0869               	movf	main@i^(0+128),w
  1355  04A5  3EBE               	addlw	(low (_change_flag| 0))& (0+255)
  1356  04A6  0086               	movwf	6
  1357  04A7  0187               	clrf	7
  1358  04A8  0801               	movf	1,w
  1359  04A9  1903               	btfsc	3,2
  1360  04AA  2CC9               	goto	l3243
  1361                           
  1362                           ;PIC16F1827-ChargeStation5-01.c: 352: change_flag[i] = 0;
  1363  04AB  0869               	movf	main@i^(0+128),w
  1364  04AC  3EBE               	addlw	(low (_change_flag| 0))& (0+255)
  1365  04AD  0086               	movwf	6
  1366  04AE  0187               	clrf	7
  1367  04AF  0181               	clrf	1
  1368                           
  1369                           ;PIC16F1827-ChargeStation5-01.c: 353: EEP_Writes(i, 0, s[i] >> 8, s[i]);
  1370  04B0  01D5               	clrf	EEP_Writes@Reg_l^(0+128)
  1371  04B1  3569               	lslf	main@i^(0+128),w
  1372  04B2  3E20               	addlw	(low (_s| 0))& (0+255)
  1373  04B3  0086               	movwf	6
  1374  04B4  0187               	clrf	7
  1375  04B5  3F40               	moviw [0]fsr1
  1376  04B6  00DD               	movwf	??_main^(0+128)
  1377  04B7  3F41               	moviw [1]fsr1
  1378  04B8  00DE               	movwf	(??_main^(0+128)+1)
  1379  04B9  085E               	movf	(??_main+1)^(0+128),w
  1380  04BA  00DF               	movwf	(??_main+2)^(0+128)
  1381  04BB  085F               	movf	(??_main+2)^(0+128),w
  1382  04BC  00D6               	movwf	EEP_Writes@data_0^(0+128)
  1383  04BD  3569               	lslf	main@i^(0+128),w
  1384  04BE  3E20               	addlw	(low (_s| 0))& (0+255)
  1385  04BF  0086               	movwf	6
  1386  04C0  0187               	clrf	7
  1387  04C1  0801               	movf	1,w
  1388  04C2  00E0               	movwf	(??_main+3)^(0+128)
  1389  04C3  0860               	movf	(??_main+3)^(0+128),w
  1390  04C4  00D7               	movwf	EEP_Writes@data_1^(0+128)
  1391  04C5  0869               	movf	main@i^(0+128),w
  1392  04C6  318D  256F  3183   	fcall	_EEP_Writes
  1393  04C9                     l3243:	
  1394  04C9  3001               	movlw	1
  1395  04CA  0021               	movlb	1	; select bank1
  1396  04CB  00DD               	movwf	??_main^(0+128)
  1397  04CC  085D               	movf	??_main^(0+128),w
  1398  04CD  07E9               	addwf	main@i^(0+128),f
  1399  04CE  3003               	movlw	3
  1400  04CF  0269               	subwf	main@i^(0+128),w
  1401  04D0  1C03               	skipc
  1402  04D1  2C6A               	goto	l3225
  1403  04D2                     l383:	
  1404                           
  1405                           ;PIC16F1827-ChargeStation5-01.c: 354: }
  1406                           ;PIC16F1827-ChargeStation5-01.c: 355: }
  1407                           ;PIC16F1827-ChargeStation5-01.c: 356: if (sw_0.flag.press) {
  1408  04D2  0020               	movlb	0	; select bank0
  1409  04D3  1C38               	btfss	_sw_0+2,0
  1410  04D4  2CFF               	goto	l3269
  1411                           
  1412                           ;PIC16F1827-ChargeStation5-01.c: 357: sw_0.flag.press = 0;
  1413  04D5  1038               	bcf	_sw_0+2,0
  1414                           
  1415                           ;PIC16F1827-ChargeStation5-01.c: 358: for (i = 0; i < 3; i++) {
  1416  04D6  0021               	movlb	1	; select bank1
  1417  04D7  01E9               	clrf	main@i^(0+128)
  1418  04D8  3003               	movlw	3
  1419  04D9  0269               	subwf	main@i^(0+128),w
  1420  04DA  1803               	btfsc	3,0
  1421  04DB  2CF2               	goto	l3263
  1422  04DC                     l3255:	
  1423                           
  1424                           ;PIC16F1827-ChargeStation5-01.c: 359: OUT(i, 1);
  1425  04DC  01D1               	clrf	OUT@value^(0+128)
  1426  04DD  0AD1               	incf	OUT@value^(0+128),f
  1427  04DE  0869               	movf	main@i^(0+128),w
  1428  04DF  318E  261E  3183   	fcall	_OUT
  1429                           
  1430                           ;PIC16F1827-ChargeStation5-01.c: 360: cut[i] = 0;
  1431  04E2  0021               	movlb	1	; select bank1
  1432  04E3  3569               	lslf	main@i^(0+128),w
  1433  04E4  3EAC               	addlw	(low (_cut| 0))& (0+255)
  1434  04E5  0086               	movwf	6
  1435  04E6  0187               	clrf	7
  1436  04E7  3000               	movlw	0
  1437  04E8  3FC0               	movwi [0]fsr1
  1438  04E9  3FC1               	movwi [1]fsr1
  1439  04EA  3001               	movlw	1
  1440  04EB  00DD               	movwf	??_main^(0+128)
  1441  04EC  085D               	movf	??_main^(0+128),w
  1442  04ED  07E9               	addwf	main@i^(0+128),f
  1443  04EE  3003               	movlw	3
  1444  04EF  0269               	subwf	main@i^(0+128),w
  1445  04F0  1C03               	skipc
  1446  04F1  2CDC               	goto	l3255
  1447  04F2                     l3263:	
  1448                           
  1449                           ;PIC16F1827-ChargeStation5-01.c: 361: }
  1450                           ;PIC16F1827-ChargeStation5-01.c: 362: if (print_port >= 2)print_port = 0;
  1451  04F2  3002               	movlw	2
  1452  04F3  0020               	movlb	0	; select bank0
  1453  04F4  022C               	subwf	_print_port,w
  1454  04F5  1C03               	skipc
  1455  04F6  2CF9               	goto	l3267
  1456  04F7  01AC               	clrf	_print_port
  1457  04F8  2CFF               	goto	l3269
  1458  04F9                     l3267:	
  1459                           
  1460                           ;PIC16F1827-ChargeStation5-01.c: 363: else print_port++;
  1461  04F9  3001               	movlw	1
  1462  04FA  0021               	movlb	1	; select bank1
  1463  04FB  00DD               	movwf	??_main^(0+128)
  1464  04FC  085D               	movf	??_main^(0+128),w
  1465  04FD  0020               	movlb	0	; select bank0
  1466  04FE  07AC               	addwf	_print_port,f
  1467  04FF                     l3269:	
  1468                           
  1469                           ;PIC16F1827-ChargeStation5-01.c: 364: }
  1470                           ;PIC16F1827-ChargeStation5-01.c: 365: if (sw_1.flag.press) {
  1471  04FF  1C3B               	btfss	_sw_1+2,0
  1472  0500  2D2A               	goto	l3293
  1473                           
  1474                           ;PIC16F1827-ChargeStation5-01.c: 366: sw_1.flag.press = 0;
  1475  0501  103B               	bcf	_sw_1+2,0
  1476                           
  1477                           ;PIC16F1827-ChargeStation5-01.c: 367: for (i = 0; i < 3; i++) {
  1478  0502  0021               	movlb	1	; select bank1
  1479  0503  01E9               	clrf	main@i^(0+128)
  1480  0504  3003               	movlw	3
  1481  0505  0269               	subwf	main@i^(0+128),w
  1482  0506  1803               	btfsc	3,0
  1483  0507  2D1E               	goto	l3287
  1484  0508                     l3279:	
  1485                           
  1486                           ;PIC16F1827-ChargeStation5-01.c: 368: OUT(i, 1);
  1487  0508  01D1               	clrf	OUT@value^(0+128)
  1488  0509  0AD1               	incf	OUT@value^(0+128),f
  1489  050A  0869               	movf	main@i^(0+128),w
  1490  050B  318E  261E  3183   	fcall	_OUT
  1491                           
  1492                           ;PIC16F1827-ChargeStation5-01.c: 369: cut[i] = 0;
  1493  050E  0021               	movlb	1	; select bank1
  1494  050F  3569               	lslf	main@i^(0+128),w
  1495  0510  3EAC               	addlw	(low (_cut| 0))& (0+255)
  1496  0511  0086               	movwf	6
  1497  0512  0187               	clrf	7
  1498  0513  3000               	movlw	0
  1499  0514  3FC0               	movwi [0]fsr1
  1500  0515  3FC1               	movwi [1]fsr1
  1501  0516  3001               	movlw	1
  1502  0517  00DD               	movwf	??_main^(0+128)
  1503  0518  085D               	movf	??_main^(0+128),w
  1504  0519  07E9               	addwf	main@i^(0+128),f
  1505  051A  3003               	movlw	3
  1506  051B  0269               	subwf	main@i^(0+128),w
  1507  051C  1C03               	skipc
  1508  051D  2D08               	goto	l3279
  1509  051E                     l3287:	
  1510                           
  1511                           ;PIC16F1827-ChargeStation5-01.c: 370: }
  1512                           ;PIC16F1827-ChargeStation5-01.c: 371: if (print_content >= 1)print_content = 0;
  1513  051E  0020               	movlb	0	; select bank0
  1514  051F  082B               	movf	_print_content,w
  1515  0520  1903               	btfsc	3,2
  1516  0521  2D24               	goto	l3291
  1517  0522  01AB               	clrf	_print_content
  1518  0523  2D2A               	goto	l3293
  1519  0524                     l3291:	
  1520                           
  1521                           ;PIC16F1827-ChargeStation5-01.c: 372: else print_content++;
  1522  0524  3001               	movlw	1
  1523  0525  0021               	movlb	1	; select bank1
  1524  0526  00DD               	movwf	??_main^(0+128)
  1525  0527  085D               	movf	??_main^(0+128),w
  1526  0528  0020               	movlb	0	; select bank0
  1527  0529  07AB               	addwf	_print_content,f
  1528  052A                     l3293:	
  1529                           
  1530                           ;PIC16F1827-ChargeStation5-01.c: 373: }
  1531                           ;PIC16F1827-ChargeStation5-01.c: 374: if (sw_1.flag.long_holding_2) {
  1532  052A  1F3B               	btfss	_sw_1+2,6
  1533  052B  2D33               	goto	l3299
  1534                           
  1535                           ;PIC16F1827-ChargeStation5-01.c: 375: sw_1.flag.long_holding_2 = 0;
  1536  052C  133B               	bcf	_sw_1+2,6
  1537                           
  1538                           ;PIC16F1827-ChargeStation5-01.c: 376: print_content = 2;
  1539  052D  3002               	movlw	2
  1540  052E  0021               	movlb	1	; select bank1
  1541  052F  00DD               	movwf	??_main^(0+128)
  1542  0530  085D               	movf	??_main^(0+128),w
  1543  0531  0020               	movlb	0	; select bank0
  1544  0532  00AB               	movwf	_print_content
  1545  0533                     l3299:	
  1546                           
  1547                           ;PIC16F1827-ChargeStation5-01.c: 377: }
  1548                           ;PIC16F1827-ChargeStation5-01.c: 378: if (sw_1.flag.long_hold_2) {
  1549  0533  1D3B               	btfss	_sw_1+2,2
  1550  0534  2D4E               	goto	l3307
  1551                           
  1552                           ;PIC16F1827-ChargeStation5-01.c: 379: sw_1.flag.long_hold_2 = 0;
  1553  0535  113B               	bcf	_sw_1+2,2
  1554                           
  1555                           ;PIC16F1827-ChargeStation5-01.c: 380: print_content = 3;
  1556  0536  3003               	movlw	3
  1557  0537  0021               	movlb	1	; select bank1
  1558  0538  00DD               	movwf	??_main^(0+128)
  1559  0539  085D               	movf	??_main^(0+128),w
  1560  053A  0020               	movlb	0	; select bank0
  1561  053B  00AB               	movwf	_print_content
  1562                           
  1563                           ;PIC16F1827-ChargeStation5-01.c: 381: ss[print_port] = 0;
  1564  053C  082C               	movf	_print_port,w
  1565  053D  0021               	movlb	1	; select bank1
  1566  053E  00DD               	movwf	??_main^(0+128)
  1567  053F  3001               	movlw	1
  1568  0540                     u3685:	
  1569  0540  35DD               	lslf	??_main^(0+128),f
  1570  0541  3EFF               	addlw	-1
  1571  0542  1D03               	skipz
  1572  0543  2D40               	goto	u3685
  1573  0544  355D               	lslf	??_main^(0+128),w
  1574  0545  3EA0               	addlw	(low (_ss| 0))& (0+255)
  1575  0546  0086               	movwf	6
  1576  0547  0187               	clrf	7
  1577  0548  3000               	movlw	0
  1578  0549  3FC0               	movwi [0]fsr1
  1579  054A  3000               	movlw	0
  1580  054B  3FC1               	movwi [1]fsr1
  1581  054C  3FC2               	movwi [2]fsr1
  1582  054D  3FC3               	movwi [3]fsr1
  1583  054E                     l3307:	
  1584                           
  1585                           ;PIC16F1827-ChargeStation5-01.c: 382: }
  1586                           ;PIC16F1827-ChargeStation5-01.c: 383: if (sw_1.flag.long_holding_3) {
  1587  054E  0020               	movlb	0	; select bank0
  1588  054F  1FBB               	btfss	_sw_1+2,7
  1589  0550  2D74               	goto	l3323
  1590                           
  1591                           ;PIC16F1827-ChargeStation5-01.c: 384: sw_1.flag.long_holding_3 = 0;
  1592  0551  13BB               	bcf	_sw_1+2,7
  1593                           
  1594                           ;PIC16F1827-ChargeStation5-01.c: 385: if (auto_cut_ON[print_port]) {
  1595  0552  082C               	movf	_print_port,w
  1596  0553  3E26               	addlw	(low (_auto_cut_ON| 0))& (0+255)
  1597  0554  0086               	movwf	6
  1598  0555  0187               	clrf	7
  1599  0556  0801               	movf	1,w
  1600  0557  1903               	btfsc	3,2
  1601  0558  2D68               	goto	l3319
  1602                           
  1603                           ;PIC16F1827-ChargeStation5-01.c: 386: auto_cut_ON[print_port] = 0;
  1604  0559  082C               	movf	_print_port,w
  1605  055A  3E26               	addlw	(low (_auto_cut_ON| 0))& (0+255)
  1606  055B  0086               	movwf	6
  1607  055C  0187               	clrf	7
  1608  055D  0181               	clrf	1
  1609                           
  1610                           ;PIC16F1827-ChargeStation5-01.c: 387: OUT(print_port, 1);
  1611  055E  0021               	movlb	1	; select bank1
  1612  055F  01D1               	clrf	OUT@value^(0+128)
  1613  0560  0AD1               	incf	OUT@value^(0+128),f
  1614  0561  0020               	movlb	0	; select bank0
  1615  0562  082C               	movf	_print_port,w
  1616  0563  318E  261E  3183   	fcall	_OUT
  1617                           
  1618                           ;PIC16F1827-ChargeStation5-01.c: 388: print_content = 4;
  1619  0566  3004               	movlw	4
  1620  0567  2D6F               	goto	L1
  1621  0568                     l3319:	
  1622                           ;PIC16F1827-ChargeStation5-01.c: 389: } else {
  1623                           
  1624                           
  1625                           ;PIC16F1827-ChargeStation5-01.c: 390: auto_cut_ON[print_port] = 1;
  1626  0568  082C               	movf	_print_port,w
  1627  0569  3E26               	addlw	(low (_auto_cut_ON| 0))& (0+255)
  1628  056A  0086               	movwf	6
  1629  056B  0187               	clrf	7
  1630  056C  0181               	clrf	1
  1631  056D  0A81               	incf	1,f
  1632                           
  1633                           ;PIC16F1827-ChargeStation5-01.c: 391: print_content = 5;
  1634  056E  3005               	movlw	5
  1635  056F                     L1:	
  1636  056F  0021               	movlb	1	; select bank1
  1637  0570  00DD               	movwf	??_main^(0+128)
  1638  0571  085D               	movf	??_main^(0+128),w
  1639  0572  0020               	movlb	0	; select bank0
  1640  0573  00AB               	movwf	_print_content
  1641  0574                     l3323:	
  1642                           
  1643                           ;PIC16F1827-ChargeStation5-01.c: 392: }
  1644                           ;PIC16F1827-ChargeStation5-01.c: 393: }
  1645                           ;PIC16F1827-ChargeStation5-01.c: 394: if (sw_1.flag.long_hold_3) {
  1646  0574  1DBB               	btfss	_sw_1+2,3
  1647  0575  2C64               	goto	l3219
  1648                           
  1649                           ;PIC16F1827-ChargeStation5-01.c: 395: sw_1.flag.long_hold_3 = 0;
  1650  0576  11BB               	bcf	_sw_1+2,3
  1651                           
  1652                           ;PIC16F1827-ChargeStation5-01.c: 396: print_content = 0;
  1653  0577  01AB               	clrf	_print_content
  1654  0578  2C64               	goto	l3219
  1655  0579                     __end_of_main:	
  1656                           ;PIC16F1827-ChargeStation5-01.c: 397: }
  1657                           ;PIC16F1827-ChargeStation5-01.c: 398: }
  1658                           ;PIC16F1827-ChargeStation5-01.c: 399: return 0;
  1659                           ;	Return value of _main is never used
  1660                           
  1661                           
  1662                           	psect	text1
  1663  0CB8                     __ptext1:	
  1664 ;; *************** function _sh_flag_read *****************
  1665 ;; Defined at:
  1666 ;;		line 270 in file "PIC16F1827-ChargeStation5-01.c"
  1667 ;; Parameters:    Size  Location     Type
  1668 ;;  port            1    wreg     unsigned char 
  1669 ;;  bit_and         1    0[BANK1 ] unsigned char 
  1670 ;; Auto vars:     Size  Location     Type
  1671 ;;  port            1    1[BANK1 ] unsigned char 
  1672 ;; Return value:  Size  Location     Type
  1673 ;;                  1    wreg      unsigned char 
  1674 ;; Registers used:
  1675 ;;		wreg, fsr0l, fsr0h, status,2, status,0
  1676 ;; Tracked objects:
  1677 ;;		On entry : 0/0
  1678 ;;		On exit  : 0/0
  1679 ;;		Unchanged: 0/0
  1680 ;; Data sizes:     COMMON   BANK0   BANK1   BANK2   BANK3   BANK4
  1681 ;;      Params:         0       0       1       0       0       0
  1682 ;;      Locals:         0       0       1       0       0       0
  1683 ;;      Temps:          0       0       0       0       0       0
  1684 ;;      Totals:         0       0       2       0       0       0
  1685 ;;Total ram usage:        2 bytes
  1686 ;; Hardware stack levels used:    1
  1687 ;; Hardware stack levels required when called:    6
  1688 ;; This function calls:
  1689 ;;		Nothing
  1690 ;; This function is called by:
  1691 ;;		_main
  1692 ;; This function uses a non-reentrant model
  1693 ;;
  1694                           
  1695                           
  1696                           ;psect for function _sh_flag_read
  1697  0CB8                     _sh_flag_read:	
  1698                           
  1699                           ;incstack = 0
  1700                           ; Regs used in _sh_flag_read: [wreg-fsr0h+status,2+status,0]
  1701                           ;sh_flag_read@port stored from wreg
  1702  0CB8  0021               	movlb	1	; select bank1
  1703  0CB9  00D2               	movwf	sh_flag_read@port^(0+128)
  1704                           
  1705                           ;PIC16F1827-ChargeStation5-01.c: 271: switch (port) {
  1706  0CBA  2CCC               	goto	l3059
  1707  0CBB                     l3041:	
  1708                           ;PIC16F1827-ChargeStation5-01.c: 272: case 0:
  1709                           
  1710                           
  1711                           ;PIC16F1827-ChargeStation5-01.c: 273: return (sh_0.flags) & bit_and;
  1712  0CBB  0020               	movlb	0	; select bank0
  1713  0CBC  082F               	movf	_sh_0+2,w
  1714  0CBD  0021               	movlb	1	; select bank1
  1715  0CBE  0551               	andwf	sh_flag_read@bit_and^(0+128),w
  1716  0CBF  0008               	return
  1717  0CC0                     l3045:	
  1718                           ;PIC16F1827-ChargeStation5-01.c: 274: case 1:
  1719                           
  1720                           
  1721                           ;PIC16F1827-ChargeStation5-01.c: 275: return (sh_1.flags) & bit_and;
  1722  0CC0  0020               	movlb	0	; select bank0
  1723  0CC1  0832               	movf	_sh_1+2,w
  1724  0CC2  0021               	movlb	1	; select bank1
  1725  0CC3  0551               	andwf	sh_flag_read@bit_and^(0+128),w
  1726  0CC4  0008               	return
  1727  0CC5                     l3049:	
  1728                           ;PIC16F1827-ChargeStation5-01.c: 276: case 2:
  1729                           
  1730                           
  1731                           ;PIC16F1827-ChargeStation5-01.c: 277: return (sh_2.flags) & bit_and;
  1732  0CC5  0020               	movlb	0	; select bank0
  1733  0CC6  0835               	movf	_sh_2+2,w
  1734  0CC7  0021               	movlb	1	; select bank1
  1735  0CC8  0551               	andwf	sh_flag_read@bit_and^(0+128),w
  1736  0CC9  0008               	return
  1737  0CCA                     l3053:	
  1738                           ;PIC16F1827-ChargeStation5-01.c: 278: default:
  1739                           
  1740                           
  1741                           ;PIC16F1827-ChargeStation5-01.c: 279: return 0;
  1742  0CCA  3000               	movlw	0
  1743                           
  1744                           ;PIC16F1827-ChargeStation5-01.c: 280: }
  1745  0CCB  0008               	return
  1746  0CCC                     l3059:	
  1747  0CCC  0852               	movf	sh_flag_read@port^(0+128),w
  1748                           
  1749                           ; Switch size 1, requested type "space"
  1750                           ; Number of cases is 3, Range of values is 0 to 2
  1751                           ; switch strategies available:
  1752                           ; Name         Instructions Cycles
  1753                           ; simple_byte           10     6 (average)
  1754                           ; direct_byte           12     6 (fixed)
  1755                           ; jumptable            260     6 (fixed)
  1756                           ;	Chosen strategy is simple_byte
  1757  0CCD  3A00               	xorlw	0	; case 0
  1758  0CCE  1903               	skipnz
  1759  0CCF  2CBB               	goto	l3041
  1760  0CD0  3A01               	xorlw	1	; case 1
  1761  0CD1  1903               	skipnz
  1762  0CD2  2CC0               	goto	l3045
  1763  0CD3  3A03               	xorlw	3	; case 2
  1764  0CD4  1903               	skipnz
  1765  0CD5  2CC5               	goto	l3049
  1766  0CD6  2CCA               	goto	l3053
  1767  0CD7  0008               	return
  1768  0CD8                     __end_of_sh_flag_read:	
  1769                           
  1770                           	psect	text2
  1771  0CD8                     __ptext2:	
  1772 ;; *************** function _sh_flag_clear *****************
  1773 ;; Defined at:
  1774 ;;		line 283 in file "PIC16F1827-ChargeStation5-01.c"
  1775 ;; Parameters:    Size  Location     Type
  1776 ;;  port            1    wreg     unsigned char 
  1777 ;;  bit_and         1    0[BANK1 ] unsigned char 
  1778 ;; Auto vars:     Size  Location     Type
  1779 ;;  port            1    2[BANK1 ] unsigned char 
  1780 ;; Return value:  Size  Location     Type
  1781 ;;		None               void
  1782 ;; Registers used:
  1783 ;;		wreg, fsr0l, fsr0h, status,2, status,0
  1784 ;; Tracked objects:
  1785 ;;		On entry : 0/0
  1786 ;;		On exit  : 0/0
  1787 ;;		Unchanged: 0/0
  1788 ;; Data sizes:     COMMON   BANK0   BANK1   BANK2   BANK3   BANK4
  1789 ;;      Params:         0       0       1       0       0       0
  1790 ;;      Locals:         0       0       1       0       0       0
  1791 ;;      Temps:          0       0       1       0       0       0
  1792 ;;      Totals:         0       0       3       0       0       0
  1793 ;;Total ram usage:        3 bytes
  1794 ;; Hardware stack levels used:    1
  1795 ;; Hardware stack levels required when called:    6
  1796 ;; This function calls:
  1797 ;;		Nothing
  1798 ;; This function is called by:
  1799 ;;		_main
  1800 ;; This function uses a non-reentrant model
  1801 ;;
  1802                           
  1803                           
  1804                           ;psect for function _sh_flag_clear
  1805  0CD8                     _sh_flag_clear:	
  1806                           
  1807                           ;incstack = 0
  1808                           ; Regs used in _sh_flag_clear: [wreg-fsr0h+status,2+status,0]
  1809                           ;sh_flag_clear@port stored from wreg
  1810  0CD8  0021               	movlb	1	; select bank1
  1811  0CD9  00D3               	movwf	sh_flag_clear@port^(0+128)
  1812                           
  1813                           ;PIC16F1827-ChargeStation5-01.c: 284: switch (port) {
  1814  0CDA  2CEF               	goto	l3071
  1815  0CDB                     l3063:	
  1816                           ;PIC16F1827-ChargeStation5-01.c: 285: case 0:
  1817                           
  1818                           
  1819                           ;PIC16F1827-ChargeStation5-01.c: 286: sh_0.flags &= bit_and;
  1820  0CDB  0851               	movf	sh_flag_clear@bit_and^(0+128),w
  1821  0CDC  00D2               	movwf	??_sh_flag_clear^(0+128)
  1822  0CDD  0852               	movf	??_sh_flag_clear^(0+128),w
  1823  0CDE  0020               	movlb	0	; select bank0
  1824  0CDF  05AF               	andwf	_sh_0+2,f
  1825                           
  1826                           ;PIC16F1827-ChargeStation5-01.c: 287: break;
  1827  0CE0  0008               	return
  1828  0CE1                     l3065:	
  1829                           ;PIC16F1827-ChargeStation5-01.c: 288: case 1:
  1830                           
  1831                           
  1832                           ;PIC16F1827-ChargeStation5-01.c: 289: sh_1.flags &= bit_and;
  1833  0CE1  0021               	movlb	1	; select bank1
  1834  0CE2  0851               	movf	sh_flag_clear@bit_and^(0+128),w
  1835  0CE3  00D2               	movwf	??_sh_flag_clear^(0+128)
  1836  0CE4  0852               	movf	??_sh_flag_clear^(0+128),w
  1837  0CE5  0020               	movlb	0	; select bank0
  1838  0CE6  05B2               	andwf	_sh_1+2,f
  1839                           
  1840                           ;PIC16F1827-ChargeStation5-01.c: 290: break;
  1841  0CE7  0008               	return
  1842  0CE8                     l3067:	
  1843                           ;PIC16F1827-ChargeStation5-01.c: 291: case 2:
  1844                           
  1845                           
  1846                           ;PIC16F1827-ChargeStation5-01.c: 292: sh_2.flags &= bit_and;
  1847  0CE8  0021               	movlb	1	; select bank1
  1848  0CE9  0851               	movf	sh_flag_clear@bit_and^(0+128),w
  1849  0CEA  00D2               	movwf	??_sh_flag_clear^(0+128)
  1850  0CEB  0852               	movf	??_sh_flag_clear^(0+128),w
  1851  0CEC  0020               	movlb	0	; select bank0
  1852  0CED  05B5               	andwf	_sh_2+2,f
  1853                           
  1854                           ;PIC16F1827-ChargeStation5-01.c: 296: }
  1855                           
  1856                           ;PIC16F1827-ChargeStation5-01.c: 295: break;
  1857                           
  1858                           ;PIC16F1827-ChargeStation5-01.c: 294: default:
  1859                           
  1860                           ;PIC16F1827-ChargeStation5-01.c: 293: break;
  1861  0CEE  0008               	return
  1862  0CEF                     l3071:	
  1863  0CEF  0021               	movlb	1	; select bank1
  1864  0CF0  0853               	movf	sh_flag_clear@port^(0+128),w
  1865                           
  1866                           ; Switch size 1, requested type "space"
  1867                           ; Number of cases is 3, Range of values is 0 to 2
  1868                           ; switch strategies available:
  1869                           ; Name         Instructions Cycles
  1870                           ; simple_byte           10     6 (average)
  1871                           ; direct_byte           12     6 (fixed)
  1872                           ; jumptable            260     6 (fixed)
  1873                           ;	Chosen strategy is simple_byte
  1874  0CF1  3A00               	xorlw	0	; case 0
  1875  0CF2  1903               	skipnz
  1876  0CF3  2CDB               	goto	l3063
  1877  0CF4  3A01               	xorlw	1	; case 1
  1878  0CF5  1903               	skipnz
  1879  0CF6  2CE1               	goto	l3065
  1880  0CF7  3A03               	xorlw	3	; case 2
  1881  0CF8  1903               	skipnz
  1882  0CF9  2CE8               	goto	l3067
  1883  0CFA  2CFB               	goto	l373
  1884  0CFB                     l373:	
  1885  0CFB  0008               	return
  1886  0CFC                     __end_of_sh_flag_clear:	
  1887                           
  1888                           	psect	text3
  1889  0CFC                     __ptext3:	
  1890 ;; *************** function _main_init *****************
  1891 ;; Defined at:
  1892 ;;		line 299 in file "PIC16F1827-ChargeStation5-01.c"
  1893 ;; Parameters:    Size  Location     Type
  1894 ;;		None
  1895 ;; Auto vars:     Size  Location     Type
  1896 ;;		None
  1897 ;; Return value:  Size  Location     Type
  1898 ;;		None               void
  1899 ;; Registers used:
  1900 ;;		wreg, status,2, status,0, pclath, cstack
  1901 ;; Tracked objects:
  1902 ;;		On entry : 0/0
  1903 ;;		On exit  : 0/0
  1904 ;;		Unchanged: 0/0
  1905 ;; Data sizes:     COMMON   BANK0   BANK1   BANK2   BANK3   BANK4
  1906 ;;      Params:         0       0       0       0       0       0
  1907 ;;      Locals:         0       0       0       0       0       0
  1908 ;;      Temps:          0       0       0       0       0       0
  1909 ;;      Totals:         0       0       0       0       0       0
  1910 ;;Total ram usage:        0 bytes
  1911 ;; Hardware stack levels used:    1
  1912 ;; Hardware stack levels required when called:   11
  1913 ;; This function calls:
  1914 ;;		_I2C_init
  1915 ;;		_LCD_init
  1916 ;;		_adc_init
  1917 ;;		_timer0_init
  1918 ;;		_timer1_init
  1919 ;; This function is called by:
  1920 ;;		_main
  1921 ;; This function uses a non-reentrant model
  1922 ;;
  1923                           
  1924                           
  1925                           ;psect for function _main_init
  1926  0CFC                     _main_init:	
  1927                           
  1928                           ;PIC16F1827-ChargeStation5-01.c: 300: OSCCON = 0x70;
  1929                           
  1930                           ;incstack = 0
  1931                           ; Regs used in _main_init: [wreg+status,2+status,0+pclath+cstack]
  1932  0CFC  3070               	movlw	112
  1933  0CFD  0021               	movlb	1	; select bank1
  1934  0CFE  0099               	movwf	25	;volatile
  1935                           
  1936                           ;PIC16F1827-ChargeStation5-01.c: 302: TRISA = 0x37;
  1937  0CFF  3037               	movlw	55
  1938  0D00  008C               	movwf	12	;volatile
  1939                           
  1940                           ;PIC16F1827-ChargeStation5-01.c: 303: TRISB = 0x5B;
  1941  0D01  305B               	movlw	91
  1942  0D02  008D               	movwf	13	;volatile
  1943                           
  1944                           ;PIC16F1827-ChargeStation5-01.c: 304: ANSELA = 0x07;
  1945  0D03  3007               	movlw	7
  1946  0D04  0023               	movlb	3	; select bank3
  1947  0D05  008C               	movwf	12	;volatile
  1948                           
  1949                           ;PIC16F1827-ChargeStation5-01.c: 305: ANSELB = 0x00;
  1950  0D06  018D               	clrf	13	;volatile
  1951                           
  1952                           ;PIC16F1827-ChargeStation5-01.c: 306: WPUA = 0x30;
  1953  0D07  3030               	movlw	48
  1954  0D08  0024               	movlb	4	; select bank4
  1955  0D09  008C               	movwf	12	;volatile
  1956                           
  1957                           ;PIC16F1827-ChargeStation5-01.c: 307: WPUB = 0x5B;
  1958  0D0A  305B               	movlw	91
  1959  0D0B  008D               	movwf	13	;volatile
  1960                           
  1961                           ;PIC16F1827-ChargeStation5-01.c: 308: OPTION_REGbits.nWPUEN = 0;
  1962  0D0C  0021               	movlb	1	; select bank1
  1963  0D0D  1395               	bcf	21,7	;volatile
  1964                           
  1965                           ;PIC16F1827-ChargeStation5-01.c: 310: adc_init(3);
  1966  0D0E  3003               	movlw	3
  1967  0D0F  318B  2395  318C   	fcall	_adc_init
  1968                           
  1969                           ;PIC16F1827-ChargeStation5-01.c: 311: timer0_init(4);
  1970  0D12  3004               	movlw	4
  1971  0D13  318B  23AA  318C   	fcall	_timer0_init
  1972                           
  1973                           ;PIC16F1827-ChargeStation5-01.c: 312: timer1_init(2);
  1974  0D16  3002               	movlw	2
  1975  0D17  318B  23BF  318C   	fcall	_timer1_init
  1976                           
  1977                           ;PIC16F1827-ChargeStation5-01.c: 314: I2C_init();
  1978  0D1A  318B  233E  318C   	fcall	_I2C_init
  1979                           
  1980                           ;PIC16F1827-ChargeStation5-01.c: 315: LCD_init();
  1981  0D1D  318F  271A         	fcall	_LCD_init
  1982                           
  1983                           ;PIC16F1827-ChargeStation5-01.c: 317: INTCONbits.PEIE = 1;
  1984  0D1F  170B               	bsf	11,6	;volatile
  1985  0D20  0008               	return
  1986  0D21                     __end_of_main_init:	
  1987                           
  1988                           	psect	text4
  1989  0BBF                     __ptext4:	
  1990 ;; *************** function _timer1_init *****************
  1991 ;; Defined at:
  1992 ;;		line 28 in file "PIC16F1827-ChargeStation5-01.h"
  1993 ;; Parameters:    Size  Location     Type
  1994 ;;  prescaler       1    wreg     unsigned char 
  1995 ;; Auto vars:     Size  Location     Type
  1996 ;;  prescaler       1    1[BANK1 ] unsigned char 
  1997 ;; Return value:  Size  Location     Type
  1998 ;;		None               void
  1999 ;; Registers used:
  2000 ;;		wreg, status,2, status,0
  2001 ;; Tracked objects:
  2002 ;;		On entry : 0/0
  2003 ;;		On exit  : 0/0
  2004 ;;		Unchanged: 0/0
  2005 ;; Data sizes:     COMMON   BANK0   BANK1   BANK2   BANK3   BANK4
  2006 ;;      Params:         0       0       0       0       0       0
  2007 ;;      Locals:         0       0       1       0       0       0
  2008 ;;      Temps:          0       0       1       0       0       0
  2009 ;;      Totals:         0       0       2       0       0       0
  2010 ;;Total ram usage:        2 bytes
  2011 ;; Hardware stack levels used:    1
  2012 ;; Hardware stack levels required when called:    6
  2013 ;; This function calls:
  2014 ;;		Nothing
  2015 ;; This function is called by:
  2016 ;;		_main_init
  2017 ;; This function uses a non-reentrant model
  2018 ;;
  2019                           
  2020                           
  2021                           ;psect for function _timer1_init
  2022  0BBF                     _timer1_init:	
  2023                           
  2024                           ;incstack = 0
  2025                           ; Regs used in _timer1_init: [wreg+status,2+status,0]
  2026                           ;timer1_init@prescaler stored from wreg
  2027  0BBF  0021               	movlb	1	; select bank1
  2028  0BC0  00D2               	movwf	timer1_init@prescaler^(0+128)
  2029                           
  2030                           ;PIC16F1827-ChargeStation5-01.h: 29: T1CONbits.TMR1ON = 1;
  2031  0BC1  0020               	movlb	0	; select bank0
  2032  0BC2  1418               	bsf	24,0	;volatile
  2033                           
  2034                           ;PIC16F1827-ChargeStation5-01.h: 30: T1CONbits.TMR1CS = 0;
  2035  0BC3  303F               	movlw	-193
  2036  0BC4  0598               	andwf	24,f	;volatile
  2037                           
  2038                           ;PIC16F1827-ChargeStation5-01.h: 31: T1CONbits.T1CKPS = prescaler;
  2039  0BC5  0021               	movlb	1	; select bank1
  2040  0BC6  0852               	movf	timer1_init@prescaler^(0+128),w
  2041  0BC7  00D1               	movwf	??_timer1_init^(0+128)
  2042  0BC8  0ED1               	swapf	??_timer1_init^(0+128),f
  2043  0BC9  0020               	movlb	0	; select bank0
  2044  0BCA  0818               	movf	24,w	;volatile
  2045  0BCB  0021               	movlb	1	; select bank1
  2046  0BCC  0651               	xorwf	??_timer1_init^(0+128),w
  2047  0BCD  39CF               	andlw	-49
  2048  0BCE  0651               	xorwf	??_timer1_init^(0+128),w
  2049  0BCF  0020               	movlb	0	; select bank0
  2050  0BD0  0098               	movwf	24	;volatile
  2051                           
  2052                           ;PIC16F1827-ChargeStation5-01.h: 32: TMR1H = 0x00;
  2053  0BD1  0197               	clrf	23	;volatile
  2054                           
  2055                           ;PIC16F1827-ChargeStation5-01.h: 33: TMR1L = 0x00;
  2056  0BD2  0196               	clrf	22	;volatile
  2057                           
  2058                           ;PIC16F1827-ChargeStation5-01.h: 34: PIE1bits.TMR1IE = 1;
  2059  0BD3  0021               	movlb	1	; select bank1
  2060  0BD4  1411               	bsf	17,0	;volatile
  2061                           
  2062                           ;PIC16F1827-ChargeStation5-01.h: 35: INTCONbits.PEIE = 1;
  2063  0BD5  170B               	bsf	11,6	;volatile
  2064  0BD6  0008               	return
  2065  0BD7                     __end_of_timer1_init:	
  2066                           
  2067                           	psect	text5
  2068  0BAA                     __ptext5:	
  2069 ;; *************** function _timer0_init *****************
  2070 ;; Defined at:
  2071 ;;		line 14 in file "PIC16F1827-ChargeStation5-01.h"
  2072 ;; Parameters:    Size  Location     Type
  2073 ;;  prescaler       1    wreg     unsigned char 
  2074 ;; Auto vars:     Size  Location     Type
  2075 ;;  prescaler       1    1[BANK1 ] unsigned char 
  2076 ;; Return value:  Size  Location     Type
  2077 ;;		None               void
  2078 ;; Registers used:
  2079 ;;		wreg, status,2, status,0
  2080 ;; Tracked objects:
  2081 ;;		On entry : 0/0
  2082 ;;		On exit  : 0/0
  2083 ;;		Unchanged: 0/0
  2084 ;; Data sizes:     COMMON   BANK0   BANK1   BANK2   BANK3   BANK4
  2085 ;;      Params:         0       0       0       0       0       0
  2086 ;;      Locals:         0       0       1       0       0       0
  2087 ;;      Temps:          0       0       1       0       0       0
  2088 ;;      Totals:         0       0       2       0       0       0
  2089 ;;Total ram usage:        2 bytes
  2090 ;; Hardware stack levels used:    1
  2091 ;; Hardware stack levels required when called:    6
  2092 ;; This function calls:
  2093 ;;		Nothing
  2094 ;; This function is called by:
  2095 ;;		_main_init
  2096 ;; This function uses a non-reentrant model
  2097 ;;
  2098                           
  2099                           
  2100                           ;psect for function _timer0_init
  2101  0BAA                     _timer0_init:	
  2102                           
  2103                           ;incstack = 0
  2104                           ; Regs used in _timer0_init: [wreg+status,2+status,0]
  2105                           ;timer0_init@prescaler stored from wreg
  2106  0BAA  0021               	movlb	1	; select bank1
  2107  0BAB  00D2               	movwf	timer0_init@prescaler^(0+128)
  2108                           
  2109                           ;PIC16F1827-ChargeStation5-01.h: 15: if (prescaler == 0) {
  2110  0BAC  0852               	movf	timer0_init@prescaler^(0+128),w
  2111  0BAD  1D03               	btfss	3,2
  2112  0BAE  2BB1               	goto	l89
  2113                           
  2114                           ;PIC16F1827-ChargeStation5-01.h: 16: OPTION_REGbits.PSA = 1;
  2115  0BAF  1595               	bsf	21,3	;volatile
  2116                           
  2117                           ;PIC16F1827-ChargeStation5-01.h: 17: } else {
  2118  0BB0  2BBA               	goto	l2911
  2119  0BB1                     l89:	
  2120                           
  2121                           ;PIC16F1827-ChargeStation5-01.h: 18: OPTION_REGbits.PSA = 0;
  2122  0BB1  1195               	bcf	21,3	;volatile
  2123                           
  2124                           ;PIC16F1827-ChargeStation5-01.h: 19: OPTION_REGbits.PS = prescaler - 1;
  2125  0BB2  30FF               	movlw	255
  2126  0BB3  0752               	addwf	timer0_init@prescaler^(0+128),w
  2127  0BB4  00D1               	movwf	??_timer0_init^(0+128)
  2128  0BB5  0815               	movf	21,w	;volatile
  2129  0BB6  0651               	xorwf	??_timer0_init^(0+128),w
  2130  0BB7  39F8               	andlw	-8
  2131  0BB8  0651               	xorwf	??_timer0_init^(0+128),w
  2132  0BB9  0095               	movwf	21	;volatile
  2133  0BBA                     l2911:	
  2134                           
  2135                           ;PIC16F1827-ChargeStation5-01.h: 20: }
  2136                           ;PIC16F1827-ChargeStation5-01.h: 21: OPTION_REGbits.TMR0CS = 0;
  2137  0BBA  1295               	bcf	21,5	;volatile
  2138                           
  2139                           ;PIC16F1827-ChargeStation5-01.h: 22: OPTION_REGbits.TMR0SE = 0;
  2140  0BBB  1215               	bcf	21,4	;volatile
  2141                           
  2142                           ;PIC16F1827-ChargeStation5-01.h: 23: INTCONbits.TMR0IE = 1;
  2143  0BBC  168B               	bsf	11,5	;volatile
  2144                           
  2145                           ;PIC16F1827-ChargeStation5-01.h: 24: INTCONbits.PEIE = 1;
  2146  0BBD  170B               	bsf	11,6	;volatile
  2147  0BBE  0008               	return
  2148  0BBF                     __end_of_timer0_init:	
  2149                           
  2150                           	psect	text6
  2151  0B95                     __ptext6:	
  2152 ;; *************** function _adc_init *****************
  2153 ;; Defined at:
  2154 ;;		line 42 in file "PIC16F1827-ChargeStation5-01.h"
  2155 ;; Parameters:    Size  Location     Type
  2156 ;;  p_ref           1    wreg     unsigned char 
  2157 ;; Auto vars:     Size  Location     Type
  2158 ;;  p_ref           1    0[BANK1 ] unsigned char 
  2159 ;; Return value:  Size  Location     Type
  2160 ;;		None               void
  2161 ;; Registers used:
  2162 ;;		wreg, status,2, status,0
  2163 ;; Tracked objects:
  2164 ;;		On entry : 0/0
  2165 ;;		On exit  : 0/0
  2166 ;;		Unchanged: 0/0
  2167 ;; Data sizes:     COMMON   BANK0   BANK1   BANK2   BANK3   BANK4
  2168 ;;      Params:         0       0       0       0       0       0
  2169 ;;      Locals:         0       0       1       0       0       0
  2170 ;;      Temps:          0       0       0       0       0       0
  2171 ;;      Totals:         0       0       1       0       0       0
  2172 ;;Total ram usage:        1 bytes
  2173 ;; Hardware stack levels used:    1
  2174 ;; Hardware stack levels required when called:    6
  2175 ;; This function calls:
  2176 ;;		Nothing
  2177 ;; This function is called by:
  2178 ;;		_main_init
  2179 ;; This function uses a non-reentrant model
  2180 ;;
  2181                           
  2182                           
  2183                           ;psect for function _adc_init
  2184  0B95                     _adc_init:	
  2185                           
  2186                           ;incstack = 0
  2187                           ; Regs used in _adc_init: [wreg+status,2+status,0]
  2188                           ;adc_init@p_ref stored from wreg
  2189  0B95  0021               	movlb	1	; select bank1
  2190  0B96  00D1               	movwf	adc_init@p_ref^(0+128)
  2191                           
  2192                           ;PIC16F1827-ChargeStation5-01.h: 43: ADCON1bits.ADFM = 1;
  2193  0B97  179E               	bsf	30,7	;volatile
  2194                           
  2195                           ;PIC16F1827-ChargeStation5-01.h: 44: ADCON1bits.ADCS = 6;
  2196  0B98  081E               	movf	30,w	;volatile
  2197  0B99  398F               	andlw	-113
  2198  0B9A  3860               	iorlw	96
  2199  0B9B  009E               	movwf	30	;volatile
  2200                           
  2201                           ;PIC16F1827-ChargeStation5-01.h: 45: ADCON1bits.ADNREF = 0;
  2202  0B9C  111E               	bcf	30,2	;volatile
  2203                           
  2204                           ;PIC16F1827-ChargeStation5-01.h: 46: ADCON1bits.ADPREF = p_ref;
  2205  0B9D  081E               	movf	30,w	;volatile
  2206  0B9E  0651               	xorwf	adc_init@p_ref^(0+128),w
  2207  0B9F  39FC               	andlw	-4
  2208  0BA0  0651               	xorwf	adc_init@p_ref^(0+128),w
  2209  0BA1  009E               	movwf	30	;volatile
  2210                           
  2211                           ;PIC16F1827-ChargeStation5-01.h: 47: if (p_ref == 3) FVRCON = 0x83;
  2212  0BA2  3003               	movlw	3
  2213  0BA3  0651               	xorwf	adc_init@p_ref^(0+128),w
  2214  0BA4  1D03               	btfss	3,2
  2215  0BA5  0008               	return
  2216  0BA6  3083               	movlw	131
  2217  0BA7  0022               	movlb	2	; select bank2
  2218  0BA8  0097               	movwf	23	;volatile
  2219  0BA9  0008               	return
  2220  0BAA                     __end_of_adc_init:	
  2221                           
  2222                           	psect	text7
  2223  0F1A                     __ptext7:	
  2224 ;; *************** function _LCD_init *****************
  2225 ;; Defined at:
  2226 ;;		line 296 in file "PIC16F1827-ChargeStation5-01.h"
  2227 ;; Parameters:    Size  Location     Type
  2228 ;;		None
  2229 ;; Auto vars:     Size  Location     Type
  2230 ;;		None
  2231 ;; Return value:  Size  Location     Type
  2232 ;;		None               void
  2233 ;; Registers used:
  2234 ;;		wreg, status,2, status,0, pclath, cstack
  2235 ;; Tracked objects:
  2236 ;;		On entry : 0/0
  2237 ;;		On exit  : 0/0
  2238 ;;		Unchanged: 0/0
  2239 ;; Data sizes:     COMMON   BANK0   BANK1   BANK2   BANK3   BANK4
  2240 ;;      Params:         0       0       0       0       0       0
  2241 ;;      Locals:         0       0       0       0       0       0
  2242 ;;      Temps:          0       0       3       0       0       0
  2243 ;;      Totals:         0       0       3       0       0       0
  2244 ;;Total ram usage:        3 bytes
  2245 ;; Hardware stack levels used:    1
  2246 ;; Hardware stack levels required when called:   10
  2247 ;; This function calls:
  2248 ;;		_LCD_Clear
  2249 ;;		_LCD_Command
  2250 ;; This function is called by:
  2251 ;;		_main_init
  2252 ;; This function uses a non-reentrant model
  2253 ;;
  2254                           
  2255                           
  2256                           ;psect for function _LCD_init
  2257  0F1A                     _LCD_init:	
  2258                           
  2259                           ;PIC16F1827-ChargeStation5-01.h: 297: _delay((unsigned long)((40)*(32000000/4000.0)));
  2260                           
  2261                           ;incstack = 0
  2262                           ; Regs used in _LCD_init: [wreg+status,2+status,0+pclath+cstack]
  2263  0F1A  3002               	movlw	2
  2264  0F1B  0021               	movlb	1	; select bank1
  2265  0F1C  00DC               	movwf	(??_LCD_init^(0+128)+2)
  2266  0F1D  30A0               	movlw	160
  2267  0F1E  00DB               	movwf	(??_LCD_init^(0+128)+1)
  2268  0F1F  3092               	movlw	146
  2269  0F20  00DA               	movwf	??_LCD_init^(0+128)
  2270  0F21                     u3727:	
  2271  0F21  0BDA               	decfsz	??_LCD_init^(0+128),f
  2272  0F22  2F21               	goto	u3727
  2273  0F23  0BDB               	decfsz	(??_LCD_init^(0+128)+1),f
  2274  0F24  2F21               	goto	u3727
  2275  0F25  0BDC               	decfsz	(??_LCD_init^(0+128)+2),f
  2276  0F26  2F21               	goto	u3727
  2277  0F27  0000               	nop
  2278                           
  2279                           ;PIC16F1827-ChargeStation5-01.h: 298: LCD_Command(0x38);
  2280  0F28  3038               	movlw	56
  2281  0F29  318C  2498  318F   	fcall	_LCD_Command
  2282                           
  2283                           ;PIC16F1827-ChargeStation5-01.h: 299: LCD_Command(0x39);
  2284  0F2C  3039               	movlw	57
  2285  0F2D  318C  2498  318F   	fcall	_LCD_Command
  2286                           
  2287                           ;PIC16F1827-ChargeStation5-01.h: 300: LCD_Command(0x14);
  2288  0F30  3014               	movlw	20
  2289  0F31  318C  2498  318F   	fcall	_LCD_Command
  2290                           
  2291                           ;PIC16F1827-ChargeStation5-01.h: 301: LCD_Command(0x78);
  2292  0F34  3078               	movlw	120
  2293  0F35  318C  2498  318F   	fcall	_LCD_Command
  2294                           
  2295                           ;PIC16F1827-ChargeStation5-01.h: 302: LCD_Command(0x54);
  2296  0F38  3054               	movlw	84
  2297  0F39  318C  2498  318F   	fcall	_LCD_Command
  2298                           
  2299                           ;PIC16F1827-ChargeStation5-01.h: 303: LCD_Command(0x6C);
  2300  0F3C  306C               	movlw	108
  2301  0F3D  318C  2498  318F   	fcall	_LCD_Command
  2302                           
  2303                           ;PIC16F1827-ChargeStation5-01.h: 304: _delay((unsigned long)((200)*(32000000/4000.0)));
  2304  0F40  3009               	movlw	9
  2305  0F41  0021               	movlb	1	; select bank1
  2306  0F42  00DC               	movwf	(??_LCD_init^(0+128)+2)
  2307  0F43  301E               	movlw	30
  2308  0F44  00DB               	movwf	(??_LCD_init^(0+128)+1)
  2309  0F45  30EB               	movlw	235
  2310  0F46  00DA               	movwf	??_LCD_init^(0+128)
  2311  0F47                     u3737:	
  2312  0F47  0BDA               	decfsz	??_LCD_init^(0+128),f
  2313  0F48  2F47               	goto	u3737
  2314  0F49  0BDB               	decfsz	(??_LCD_init^(0+128)+1),f
  2315  0F4A  2F47               	goto	u3737
  2316  0F4B  0BDC               	decfsz	(??_LCD_init^(0+128)+2),f
  2317  0F4C  2F47               	goto	u3737
  2318  0F4D  0000               	nop
  2319                           
  2320                           ;PIC16F1827-ChargeStation5-01.h: 305: LCD_Command(0x38);
  2321  0F4E  3038               	movlw	56
  2322  0F4F  318C  2498  318F   	fcall	_LCD_Command
  2323                           
  2324                           ;PIC16F1827-ChargeStation5-01.h: 306: LCD_Command(0x0C);
  2325  0F52  300C               	movlw	12
  2326  0F53  318C  2498  318F   	fcall	_LCD_Command
  2327                           
  2328                           ;PIC16F1827-ChargeStation5-01.h: 307: LCD_Command(0x06);
  2329  0F56  3006               	movlw	6
  2330  0F57  318C  2498  318F   	fcall	_LCD_Command
  2331                           
  2332                           ;PIC16F1827-ChargeStation5-01.h: 308: LCD_Clear();
  2333  0F5A  318B  2366         	fcall	_LCD_Clear
  2334  0F5C  0008               	return
  2335  0F5D                     __end_of_LCD_init:	
  2336                           
  2337                           	psect	text8
  2338  0B66                     __ptext8:	
  2339 ;; *************** function _LCD_Clear *****************
  2340 ;; Defined at:
  2341 ;;		line 239 in file "PIC16F1827-ChargeStation5-01.h"
  2342 ;; Parameters:    Size  Location     Type
  2343 ;;		None
  2344 ;; Auto vars:     Size  Location     Type
  2345 ;;		None
  2346 ;; Return value:  Size  Location     Type
  2347 ;;		None               void
  2348 ;; Registers used:
  2349 ;;		wreg, status,2, status,0, pclath, cstack
  2350 ;; Tracked objects:
  2351 ;;		On entry : 0/0
  2352 ;;		On exit  : 0/0
  2353 ;;		Unchanged: 0/0
  2354 ;; Data sizes:     COMMON   BANK0   BANK1   BANK2   BANK3   BANK4
  2355 ;;      Params:         0       0       0       0       0       0
  2356 ;;      Locals:         0       0       0       0       0       0
  2357 ;;      Temps:          0       0       2       0       0       0
  2358 ;;      Totals:         0       0       2       0       0       0
  2359 ;;Total ram usage:        2 bytes
  2360 ;; Hardware stack levels used:    1
  2361 ;; Hardware stack levels required when called:    9
  2362 ;; This function calls:
  2363 ;;		_LCD_Command
  2364 ;; This function is called by:
  2365 ;;		_LCD_init
  2366 ;; This function uses a non-reentrant model
  2367 ;;
  2368                           
  2369                           
  2370                           ;psect for function _LCD_Clear
  2371  0B66                     _LCD_Clear:	
  2372                           
  2373                           ;PIC16F1827-ChargeStation5-01.h: 240: LCD_Command(0x01);
  2374                           
  2375                           ;incstack = 0
  2376                           ; Regs used in _LCD_Clear: [wreg+status,2+status,0+pclath+cstack]
  2377  0B66  3001               	movlw	1
  2378  0B67  318C  2498  318B   	fcall	_LCD_Command
  2379                           
  2380                           ;PIC16F1827-ChargeStation5-01.h: 241: _delay((unsigned long)((1100)*(32000000/4000000.0)
      +                          ));
  2381  0B6A  300C               	movlw	12
  2382  0B6B  0021               	movlb	1	; select bank1
  2383  0B6C  00D9               	movwf	(??_LCD_Clear^(0+128)+1)
  2384  0B6D  306C               	movlw	108
  2385  0B6E  00D8               	movwf	??_LCD_Clear^(0+128)
  2386  0B6F                     u3747:	
  2387  0B6F  0BD8               	decfsz	??_LCD_Clear^(0+128),f
  2388  0B70  2B6F               	goto	u3747
  2389  0B71  0BD9               	decfsz	(??_LCD_Clear^(0+128)+1),f
  2390  0B72  2B6F               	goto	u3747
  2391  0B73  0000               	nop
  2392  0B74  0008               	return
  2393  0B75                     __end_of_LCD_Clear:	
  2394                           
  2395                           	psect	text9
  2396  0C98                     __ptext9:	
  2397 ;; *************** function _LCD_Command *****************
  2398 ;; Defined at:
  2399 ;;		line 226 in file "PIC16F1827-ChargeStation5-01.h"
  2400 ;; Parameters:    Size  Location     Type
  2401 ;;  c               1    wreg     unsigned char 
  2402 ;; Auto vars:     Size  Location     Type
  2403 ;;  c               1    5[BANK1 ] unsigned char 
  2404 ;;  ans             1    6[BANK1 ] unsigned char 
  2405 ;; Return value:  Size  Location     Type
  2406 ;;		None               void
  2407 ;; Registers used:
  2408 ;;		wreg, status,2, status,0, pclath, cstack
  2409 ;; Tracked objects:
  2410 ;;		On entry : 0/0
  2411 ;;		On exit  : 0/0
  2412 ;;		Unchanged: 0/0
  2413 ;; Data sizes:     COMMON   BANK0   BANK1   BANK2   BANK3   BANK4
  2414 ;;      Params:         0       0       0       0       0       0
  2415 ;;      Locals:         0       0       2       0       0       0
  2416 ;;      Temps:          0       0       1       0       0       0
  2417 ;;      Totals:         0       0       3       0       0       0
  2418 ;;Total ram usage:        3 bytes
  2419 ;; Hardware stack levels used:    1
  2420 ;; Hardware stack levels required when called:    8
  2421 ;; This function calls:
  2422 ;;		_I2C_Send
  2423 ;;		_I2C_Start
  2424 ;;		_I2C_Stop
  2425 ;; This function is called by:
  2426 ;;		_LCD_Clear
  2427 ;;		_LCD_init
  2428 ;; This function uses a non-reentrant model
  2429 ;;
  2430                           
  2431                           
  2432                           ;psect for function _LCD_Command
  2433  0C98                     _LCD_Command:	
  2434                           
  2435                           ;incstack = 0
  2436                           ; Regs used in _LCD_Command: [wreg+status,2+status,0+pclath+cstack]
  2437                           ;LCD_Command@c stored from wreg
  2438  0C98  0021               	movlb	1	; select bank1
  2439  0C99  00D6               	movwf	LCD_Command@c^(0+128)
  2440                           
  2441                           ;PIC16F1827-ChargeStation5-01.h: 227: uint8_t ans;
  2442                           ;PIC16F1827-ChargeStation5-01.h: 229: ans = I2C_Start(0x3E, 0);
  2443  0C9A  01D3               	clrf	I2C_Start@rw^(0+128)
  2444  0C9B  303E               	movlw	62
  2445  0C9C  318C  245C  318C   	fcall	_I2C_Start
  2446  0C9F  0021               	movlb	1	; select bank1
  2447  0CA0  00D5               	movwf	??_LCD_Command^(0+128)
  2448  0CA1  0855               	movf	??_LCD_Command^(0+128),w
  2449  0CA2  00D7               	movwf	LCD_Command@ans^(0+128)
  2450                           
  2451                           ;PIC16F1827-ChargeStation5-01.h: 230: if (ans == 0) {
  2452  0CA3  0857               	movf	LCD_Command@ans^(0+128),w
  2453  0CA4  1D03               	btfss	3,2
  2454  0CA5  2CAF               	goto	l179
  2455                           
  2456                           ;PIC16F1827-ChargeStation5-01.h: 232: I2C_Send(0b10000000);
  2457  0CA6  3080               	movlw	128
  2458  0CA7  3187  27EE  318C   	fcall	_I2C_Send
  2459                           
  2460                           ;PIC16F1827-ChargeStation5-01.h: 233: I2C_Send(c);
  2461  0CAA  0021               	movlb	1	; select bank1
  2462  0CAB  0856               	movf	LCD_Command@c^(0+128),w
  2463  0CAC  3187  27EE  318C   	fcall	_I2C_Send
  2464  0CAF                     l179:	
  2465                           
  2466                           ;PIC16F1827-ChargeStation5-01.h: 234: }
  2467                           ;PIC16F1827-ChargeStation5-01.h: 235: I2C_Stop();
  2468  0CAF  318B  2327  318C   	fcall	_I2C_Stop
  2469                           
  2470                           ;PIC16F1827-ChargeStation5-01.h: 236: _delay((unsigned long)((26)*(32000000/4000000.0)))
      +                          ;
  2471  0CB2  3045               	movlw	69
  2472  0CB3  0021               	movlb	1	; select bank1
  2473  0CB4  00D5               	movwf	??_LCD_Command^(0+128)
  2474  0CB5                     u3757:	
  2475  0CB5  0BD5               	decfsz	??_LCD_Command^(0+128),f
  2476  0CB6  2CB5               	goto	u3757
  2477  0CB7  0008               	return
  2478  0CB8                     __end_of_LCD_Command:	
  2479                           
  2480                           	psect	text10
  2481  0B3E                     __ptext10:	
  2482 ;; *************** function _I2C_init *****************
  2483 ;; Defined at:
  2484 ;;		line 162 in file "PIC16F1827-ChargeStation5-01.h"
  2485 ;; Parameters:    Size  Location     Type
  2486 ;;		None
  2487 ;; Auto vars:     Size  Location     Type
  2488 ;;		None
  2489 ;; Return value:  Size  Location     Type
  2490 ;;		None               void
  2491 ;; Registers used:
  2492 ;;		wreg
  2493 ;; Tracked objects:
  2494 ;;		On entry : 0/0
  2495 ;;		On exit  : 0/0
  2496 ;;		Unchanged: 0/0
  2497 ;; Data sizes:     COMMON   BANK0   BANK1   BANK2   BANK3   BANK4
  2498 ;;      Params:         0       0       0       0       0       0
  2499 ;;      Locals:         0       0       0       0       0       0
  2500 ;;      Temps:          0       0       0       0       0       0
  2501 ;;      Totals:         0       0       0       0       0       0
  2502 ;;Total ram usage:        0 bytes
  2503 ;; Hardware stack levels used:    1
  2504 ;; Hardware stack levels required when called:    6
  2505 ;; This function calls:
  2506 ;;		Nothing
  2507 ;; This function is called by:
  2508 ;;		_main_init
  2509 ;; This function uses a non-reentrant model
  2510 ;;
  2511                           
  2512                           
  2513                           ;psect for function _I2C_init
  2514  0B3E                     _I2C_init:	
  2515                           
  2516                           ;PIC16F1827-ChargeStation5-01.h: 163: SSP1STAT = 0b10000000;
  2517                           
  2518                           ;incstack = 0
  2519                           ; Regs used in _I2C_init: [wreg]
  2520  0B3E  3080               	movlw	128
  2521  0B3F  0024               	movlb	4	; select bank4
  2522  0B40  0094               	movwf	20	;volatile
  2523                           
  2524                           ;PIC16F1827-ChargeStation5-01.h: 164: SSP1CON1 = 0b00101000;
  2525  0B41  3028               	movlw	40
  2526  0B42  0095               	movwf	21	;volatile
  2527                           
  2528                           ;PIC16F1827-ChargeStation5-01.h: 165: SSP1ADD = 0x13;
  2529  0B43  3013               	movlw	19
  2530  0B44  0092               	movwf	18	;volatile
  2531                           
  2532                           ;PIC16F1827-ChargeStation5-01.h: 168: SSP1IF = 0;
  2533  0B45  0020               	movlb	0	; select bank0
  2534  0B46  1191               	bcf	17,3	;volatile
  2535                           
  2536                           ;PIC16F1827-ChargeStation5-01.h: 169: BCL1IF = 0;
  2537  0B47  1192               	bcf	18,3	;volatile
  2538  0B48  0008               	return
  2539  0B49                     __end_of_I2C_init:	
  2540                           
  2541                           	psect	text11
  2542  0E79                     __ptext11:	
  2543 ;; *************** function ___lmul *****************
  2544 ;; Defined at:
  2545 ;;		line 15 in file "C:\Program Files (x86)\Microchip\xc8\v1.35\sources\common\Umul32.c"
  2546 ;; Parameters:    Size  Location     Type
  2547 ;;  multiplier      4    0[BANK1 ] unsigned long 
  2548 ;;  multiplicand    4    4[BANK1 ] unsigned long 
  2549 ;; Auto vars:     Size  Location     Type
  2550 ;;  product         4    8[BANK1 ] unsigned long 
  2551 ;; Return value:  Size  Location     Type
  2552 ;;                  4    0[BANK1 ] unsigned long 
  2553 ;; Registers used:
  2554 ;;		wreg, status,2, status,0
  2555 ;; Tracked objects:
  2556 ;;		On entry : 0/0
  2557 ;;		On exit  : 0/0
  2558 ;;		Unchanged: 0/0
  2559 ;; Data sizes:     COMMON   BANK0   BANK1   BANK2   BANK3   BANK4
  2560 ;;      Params:         0       0       8       0       0       0
  2561 ;;      Locals:         0       0       4       0       0       0
  2562 ;;      Temps:          0       0       0       0       0       0
  2563 ;;      Totals:         0       0      12       0       0       0
  2564 ;;Total ram usage:       12 bytes
  2565 ;; Hardware stack levels used:    1
  2566 ;; Hardware stack levels required when called:    6
  2567 ;; This function calls:
  2568 ;;		Nothing
  2569 ;; This function is called by:
  2570 ;;		_main
  2571 ;; This function uses a non-reentrant model
  2572 ;;
  2573                           
  2574                           
  2575                           ;psect for function ___lmul
  2576  0E79                     ___lmul:	
  2577                           
  2578                           ;incstack = 0
  2579                           ; Regs used in ___lmul: [wreg+status,2+status,0]
  2580  0E79  3000               	movlw	0
  2581  0E7A  0021               	movlb	1	; select bank1
  2582  0E7B  00DC               	movwf	(___lmul@product+3)^(0+128)
  2583  0E7C  3000               	movlw	0
  2584  0E7D  00DB               	movwf	(___lmul@product+2)^(0+128)
  2585  0E7E  3000               	movlw	0
  2586  0E7F  00DA               	movwf	(___lmul@product+1)^(0+128)
  2587  0E80  3000               	movlw	0
  2588  0E81  00D9               	movwf	___lmul@product^(0+128)
  2589  0E82                     l3097:	
  2590  0E82  1C51               	btfss	___lmul@multiplier^(0+128),0
  2591  0E83  2E8C               	goto	l3101
  2592  0E84  0855               	movf	___lmul@multiplicand^(0+128),w
  2593  0E85  07D9               	addwf	___lmul@product^(0+128),f
  2594  0E86  0856               	movf	(___lmul@multiplicand+1)^(0+128),w
  2595  0E87  3DDA               	addwfc	(___lmul@product+1)^(0+128),f
  2596  0E88  0857               	movf	(___lmul@multiplicand+2)^(0+128),w
  2597  0E89  3DDB               	addwfc	(___lmul@product+2)^(0+128),f
  2598  0E8A  0858               	movf	(___lmul@multiplicand+3)^(0+128),w
  2599  0E8B  3DDC               	addwfc	(___lmul@product+3)^(0+128),f
  2600  0E8C                     l3101:	
  2601  0E8C  3001               	movlw	1
  2602  0E8D                     u3345:	
  2603  0E8D  35D5               	lslf	___lmul@multiplicand^(0+128),f
  2604  0E8E  0DD6               	rlf	(___lmul@multiplicand+1)^(0+128),f
  2605  0E8F  0DD7               	rlf	(___lmul@multiplicand+2)^(0+128),f
  2606  0E90  0DD8               	rlf	(___lmul@multiplicand+3)^(0+128),f
  2607  0E91  0B89               	decfsz	9,f
  2608  0E92  2E8D               	goto	u3345
  2609  0E93  3001               	movlw	1
  2610  0E94                     u3355:	
  2611  0E94  36D4               	lsrf	(___lmul@multiplier+3)^(0+128),f
  2612  0E95  0CD3               	rrf	(___lmul@multiplier+2)^(0+128),f
  2613  0E96  0CD2               	rrf	(___lmul@multiplier+1)^(0+128),f
  2614  0E97  0CD1               	rrf	___lmul@multiplier^(0+128),f
  2615  0E98  0B89               	decfsz	9,f
  2616  0E99  2E94               	goto	u3355
  2617  0E9A  0854               	movf	(___lmul@multiplier+3)^(0+128),w
  2618  0E9B  0453               	iorwf	(___lmul@multiplier+2)^(0+128),w
  2619  0E9C  0452               	iorwf	(___lmul@multiplier+1)^(0+128),w
  2620  0E9D  0451               	iorwf	___lmul@multiplier^(0+128),w
  2621  0E9E  1D03               	skipz
  2622  0E9F  2E82               	goto	l3097
  2623  0EA0  085C               	movf	(___lmul@product+3)^(0+128),w
  2624  0EA1  00D4               	movwf	(?___lmul+3)^(0+128)
  2625  0EA2  085B               	movf	(___lmul@product+2)^(0+128),w
  2626  0EA3  00D3               	movwf	(?___lmul+2)^(0+128)
  2627  0EA4  085A               	movf	(___lmul@product+1)^(0+128),w
  2628  0EA5  00D2               	movwf	(?___lmul+1)^(0+128)
  2629  0EA6  0859               	movf	___lmul@product^(0+128),w
  2630  0EA7  00D1               	movwf	?___lmul^(0+128)
  2631  0EA8  0008               	return
  2632  0EA9                     __end_of___lmul:	
  2633                           
  2634                           	psect	text12
  2635  0E1E                     __ptext12:	
  2636 ;; *************** function _OUT *****************
  2637 ;; Defined at:
  2638 ;;		line 228 in file "PIC16F1827-ChargeStation5-01.c"
  2639 ;; Parameters:    Size  Location     Type
  2640 ;;  b               1    wreg     unsigned char 
  2641 ;;  value           1    0[BANK1 ] unsigned char 
  2642 ;; Auto vars:     Size  Location     Type
  2643 ;;  b               1    1[BANK1 ] unsigned char 
  2644 ;; Return value:  Size  Location     Type
  2645 ;;		None               void
  2646 ;; Registers used:
  2647 ;;		wreg, fsr0l, fsr0h, status,2, status,0
  2648 ;; Tracked objects:
  2649 ;;		On entry : 0/0
  2650 ;;		On exit  : 0/0
  2651 ;;		Unchanged: 0/0
  2652 ;; Data sizes:     COMMON   BANK0   BANK1   BANK2   BANK3   BANK4
  2653 ;;      Params:         0       0       1       0       0       0
  2654 ;;      Locals:         0       0       1       0       0       0
  2655 ;;      Temps:          0       0       0       0       0       0
  2656 ;;      Totals:         0       0       2       0       0       0
  2657 ;;Total ram usage:        2 bytes
  2658 ;; Hardware stack levels used:    1
  2659 ;; Hardware stack levels required when called:    6
  2660 ;; This function calls:
  2661 ;;		Nothing
  2662 ;; This function is called by:
  2663 ;;		_main
  2664 ;; This function uses a non-reentrant model
  2665 ;;
  2666                           
  2667                           
  2668                           ;psect for function _OUT
  2669  0E1E                     _OUT:	
  2670                           
  2671                           ;incstack = 0
  2672                           ; Regs used in _OUT: [wreg-fsr0h+status,2+status,0]
  2673                           ;OUT@b stored from wreg
  2674  0E1E  0021               	movlb	1	; select bank1
  2675  0E1F  00D2               	movwf	OUT@b^(0+128)
  2676                           
  2677                           ;PIC16F1827-ChargeStation5-01.c: 229: switch (b) {
  2678  0E20  2E3E               	goto	l3037
  2679  0E21                     l3023:	
  2680                           ;PIC16F1827-ChargeStation5-01.c: 230: case 0:
  2681                           
  2682                           
  2683                           ;PIC16F1827-ChargeStation5-01.c: 231: if (value) {
  2684  0E21  0851               	movf	OUT@value^(0+128),w
  2685  0E22  1903               	btfsc	3,2
  2686  0E23  2E27               	goto	l337
  2687                           
  2688                           ;PIC16F1827-ChargeStation5-01.c: 232: LATB2 = 0;
  2689  0E24  0022               	movlb	2	; select bank2
  2690  0E25  110D               	bcf	13,2	;volatile
  2691                           
  2692                           ;PIC16F1827-ChargeStation5-01.c: 233: } else {
  2693  0E26  0008               	return
  2694  0E27                     l337:	
  2695                           
  2696                           ;PIC16F1827-ChargeStation5-01.c: 234: LATB2 = 1;
  2697  0E27  0022               	movlb	2	; select bank2
  2698  0E28  150D               	bsf	13,2	;volatile
  2699                           
  2700                           ;PIC16F1827-ChargeStation5-01.c: 235: }
  2701                           ;PIC16F1827-ChargeStation5-01.c: 236: break;
  2702  0E29  0008               	return
  2703  0E2A                     l3027:	
  2704                           ;PIC16F1827-ChargeStation5-01.c: 237: case 1:
  2705                           
  2706                           
  2707                           ;PIC16F1827-ChargeStation5-01.c: 238: if (value) {
  2708  0E2A  0021               	movlb	1	; select bank1
  2709  0E2B  0851               	movf	OUT@value^(0+128),w
  2710  0E2C  1903               	btfsc	3,2
  2711  0E2D  2E31               	goto	l341
  2712                           
  2713                           ;PIC16F1827-ChargeStation5-01.c: 239: LATB5 = 0;
  2714  0E2E  0022               	movlb	2	; select bank2
  2715  0E2F  128D               	bcf	13,5	;volatile
  2716                           
  2717                           ;PIC16F1827-ChargeStation5-01.c: 240: } else {
  2718  0E30  0008               	return
  2719  0E31                     l341:	
  2720                           
  2721                           ;PIC16F1827-ChargeStation5-01.c: 241: LATB5 = 1;
  2722  0E31  0022               	movlb	2	; select bank2
  2723  0E32  168D               	bsf	13,5	;volatile
  2724                           
  2725                           ;PIC16F1827-ChargeStation5-01.c: 242: }
  2726                           ;PIC16F1827-ChargeStation5-01.c: 243: break;
  2727  0E33  0008               	return
  2728  0E34                     l3031:	
  2729                           ;PIC16F1827-ChargeStation5-01.c: 244: case 2:
  2730                           
  2731                           
  2732                           ;PIC16F1827-ChargeStation5-01.c: 245: if (value) {
  2733  0E34  0021               	movlb	1	; select bank1
  2734  0E35  0851               	movf	OUT@value^(0+128),w
  2735  0E36  1903               	btfsc	3,2
  2736  0E37  2E3B               	goto	l344
  2737                           
  2738                           ;PIC16F1827-ChargeStation5-01.c: 246: LATB7 = 0;
  2739  0E38  0022               	movlb	2	; select bank2
  2740  0E39  138D               	bcf	13,7	;volatile
  2741                           
  2742                           ;PIC16F1827-ChargeStation5-01.c: 247: } else {
  2743  0E3A  0008               	return
  2744  0E3B                     l344:	
  2745                           
  2746                           ;PIC16F1827-ChargeStation5-01.c: 248: LATB7 = 1;
  2747  0E3B  0022               	movlb	2	; select bank2
  2748  0E3C  178D               	bsf	13,7	;volatile
  2749                           
  2750                           ;PIC16F1827-ChargeStation5-01.c: 251: }
  2751                           
  2752                           ;PIC16F1827-ChargeStation5-01.c: 249: }
  2753                           ;PIC16F1827-ChargeStation5-01.c: 250: break;
  2754  0E3D  0008               	return
  2755  0E3E                     l3037:	
  2756  0E3E  0021               	movlb	1	; select bank1
  2757  0E3F  0852               	movf	OUT@b^(0+128),w
  2758                           
  2759                           ; Switch size 1, requested type "space"
  2760                           ; Number of cases is 3, Range of values is 0 to 2
  2761                           ; switch strategies available:
  2762                           ; Name         Instructions Cycles
  2763                           ; simple_byte           10     6 (average)
  2764                           ; direct_byte           12     6 (fixed)
  2765                           ; jumptable            260     6 (fixed)
  2766                           ;	Chosen strategy is simple_byte
  2767  0E40  3A00               	xorlw	0	; case 0
  2768  0E41  1903               	skipnz
  2769  0E42  2E21               	goto	l3023
  2770  0E43  3A01               	xorlw	1	; case 1
  2771  0E44  1903               	skipnz
  2772  0E45  2E2A               	goto	l3027
  2773  0E46  3A03               	xorlw	3	; case 2
  2774  0E47  1903               	skipnz
  2775  0E48  2E34               	goto	l3031
  2776  0E49  2E4A               	goto	l346
  2777  0E4A                     l346:	
  2778  0E4A  0008               	return
  2779  0E4B                     __end_of_OUT:	
  2780                           
  2781                           	psect	text13
  2782  0D47                     __ptext13:	
  2783 ;; *************** function _LED *****************
  2784 ;; Defined at:
  2785 ;;		line 254 in file "PIC16F1827-ChargeStation5-01.c"
  2786 ;; Parameters:    Size  Location     Type
  2787 ;;  b               1    wreg     unsigned char 
  2788 ;;  value           1    0[BANK1 ] unsigned char 
  2789 ;; Auto vars:     Size  Location     Type
  2790 ;;  b               1    1[BANK1 ] unsigned char 
  2791 ;; Return value:  Size  Location     Type
  2792 ;;		None               void
  2793 ;; Registers used:
  2794 ;;		wreg, fsr0l, fsr0h, status,2, status,0
  2795 ;; Tracked objects:
  2796 ;;		On entry : 0/0
  2797 ;;		On exit  : 0/0
  2798 ;;		Unchanged: 0/0
  2799 ;; Data sizes:     COMMON   BANK0   BANK1   BANK2   BANK3   BANK4
  2800 ;;      Params:         0       0       1       0       0       0
  2801 ;;      Locals:         0       0       1       0       0       0
  2802 ;;      Temps:          0       0       0       0       0       0
  2803 ;;      Totals:         0       0       2       0       0       0
  2804 ;;Total ram usage:        2 bytes
  2805 ;; Hardware stack levels used:    1
  2806 ;; Hardware stack levels required when called:    6
  2807 ;; This function calls:
  2808 ;;		Nothing
  2809 ;; This function is called by:
  2810 ;;		_main
  2811 ;; This function uses a non-reentrant model
  2812 ;;
  2813                           
  2814                           
  2815                           ;psect for function _LED
  2816  0D47                     _LED:	
  2817                           
  2818                           ;incstack = 0
  2819                           ; Regs used in _LED: [wreg-fsr0h+status,2+status,0]
  2820                           ;LED@b stored from wreg
  2821  0D47  0021               	movlb	1	; select bank1
  2822  0D48  00D2               	movwf	LED@b^(0+128)
  2823                           
  2824                           ;PIC16F1827-ChargeStation5-01.c: 255: switch (b) {
  2825  0D49  2D62               	goto	l3019
  2826  0D4A                     l350:	
  2827                           ;PIC16F1827-ChargeStation5-01.c: 256: case 0:
  2828                           
  2829                           
  2830                           ;PIC16F1827-ChargeStation5-01.c: 257: LATA3 = value;
  2831  0D4A  1C51               	btfss	LED@value^(0+128),0
  2832  0D4B  2D4F               	goto	u3240
  2833  0D4C  0022               	movlb	2	; select bank2
  2834  0D4D  158C               	bsf	12,3	;volatile
  2835  0D4E  0008               	return
  2836  0D4F                     u3240:	
  2837  0D4F  0022               	movlb	2	; select bank2
  2838  0D50  118C               	bcf	12,3	;volatile
  2839                           
  2840                           ;PIC16F1827-ChargeStation5-01.c: 258: break;
  2841  0D51  0008               	return
  2842  0D52                     l352:	
  2843                           ;PIC16F1827-ChargeStation5-01.c: 259: case 1:
  2844                           
  2845                           
  2846                           ;PIC16F1827-ChargeStation5-01.c: 260: LATA6 = value;
  2847  0D52  1C51               	btfss	LED@value^(0+128),0
  2848  0D53  2D57               	goto	u3260
  2849  0D54  0022               	movlb	2	; select bank2
  2850  0D55  170C               	bsf	12,6	;volatile
  2851  0D56  0008               	return
  2852  0D57                     u3260:	
  2853  0D57  0022               	movlb	2	; select bank2
  2854  0D58  130C               	bcf	12,6	;volatile
  2855                           
  2856                           ;PIC16F1827-ChargeStation5-01.c: 261: break;
  2857  0D59  0008               	return
  2858  0D5A                     l353:	
  2859                           ;PIC16F1827-ChargeStation5-01.c: 262: case 2:
  2860                           
  2861                           
  2862                           ;PIC16F1827-ChargeStation5-01.c: 263: LATA7 = value;
  2863  0D5A  1C51               	btfss	LED@value^(0+128),0
  2864  0D5B  2D5F               	goto	u3280
  2865  0D5C  0022               	movlb	2	; select bank2
  2866  0D5D  178C               	bsf	12,7	;volatile
  2867  0D5E  0008               	return
  2868  0D5F                     u3280:	
  2869  0D5F  0022               	movlb	2	; select bank2
  2870  0D60  138C               	bcf	12,7	;volatile
  2871                           
  2872                           ;PIC16F1827-ChargeStation5-01.c: 267: }
  2873                           
  2874                           ;PIC16F1827-ChargeStation5-01.c: 266: break;
  2875                           
  2876                           ;PIC16F1827-ChargeStation5-01.c: 265: default:
  2877                           
  2878                           ;PIC16F1827-ChargeStation5-01.c: 264: break;
  2879  0D61  0008               	return
  2880  0D62                     l3019:	
  2881  0D62  0021               	movlb	1	; select bank1
  2882  0D63  0852               	movf	LED@b^(0+128),w
  2883                           
  2884                           ; Switch size 1, requested type "space"
  2885                           ; Number of cases is 3, Range of values is 0 to 2
  2886                           ; switch strategies available:
  2887                           ; Name         Instructions Cycles
  2888                           ; simple_byte           10     6 (average)
  2889                           ; direct_byte           12     6 (fixed)
  2890                           ; jumptable            260     6 (fixed)
  2891                           ;	Chosen strategy is simple_byte
  2892  0D64  3A00               	xorlw	0	; case 0
  2893  0D65  1903               	skipnz
  2894  0D66  2D4A               	goto	l350
  2895  0D67  3A01               	xorlw	1	; case 1
  2896  0D68  1903               	skipnz
  2897  0D69  2D52               	goto	l352
  2898  0D6A  3A03               	xorlw	3	; case 2
  2899  0D6B  1903               	skipnz
  2900  0D6C  2D5A               	goto	l353
  2901  0D6D  2D6E               	goto	l355
  2902  0D6E                     l355:	
  2903  0D6E  0008               	return
  2904  0D6F                     __end_of_LED:	
  2905                           
  2906                           	psect	text14
  2907  0D6F                     __ptext14:	
  2908 ;; *************** function _EEP_Writes *****************
  2909 ;; Defined at:
  2910 ;;		line 412 in file "PIC16F1827-ChargeStation5-01.h"
  2911 ;; Parameters:    Size  Location     Type
  2912 ;;  Reg_h           1    wreg     unsigned char 
  2913 ;;  Reg_l           1    4[BANK1 ] unsigned char 
  2914 ;;  data_0          1    5[BANK1 ] unsigned char 
  2915 ;;  data_1          1    6[BANK1 ] unsigned char 
  2916 ;; Auto vars:     Size  Location     Type
  2917 ;;  Reg_h           1    8[BANK1 ] unsigned char 
  2918 ;;  ans             1    9[BANK1 ] unsigned char 
  2919 ;; Return value:  Size  Location     Type
  2920 ;;		None               void
  2921 ;; Registers used:
  2922 ;;		wreg, status,2, status,0, pclath, cstack
  2923 ;; Tracked objects:
  2924 ;;		On entry : 0/0
  2925 ;;		On exit  : 0/0
  2926 ;;		Unchanged: 0/0
  2927 ;; Data sizes:     COMMON   BANK0   BANK1   BANK2   BANK3   BANK4
  2928 ;;      Params:         0       0       3       0       0       0
  2929 ;;      Locals:         0       0       2       0       0       0
  2930 ;;      Temps:          0       0       1       0       0       0
  2931 ;;      Totals:         0       0       6       0       0       0
  2932 ;;Total ram usage:        6 bytes
  2933 ;; Hardware stack levels used:    1
  2934 ;; Hardware stack levels required when called:    8
  2935 ;; This function calls:
  2936 ;;		_I2C_Send
  2937 ;;		_I2C_Start
  2938 ;;		_I2C_Stop
  2939 ;; This function is called by:
  2940 ;;		_main
  2941 ;; This function uses a non-reentrant model
  2942 ;;
  2943                           
  2944                           
  2945                           ;psect for function _EEP_Writes
  2946  0D6F                     _EEP_Writes:	
  2947                           
  2948                           ;incstack = 0
  2949                           ; Regs used in _EEP_Writes: [wreg+status,2+status,0+pclath+cstack]
  2950                           ;EEP_Writes@Reg_h stored from wreg
  2951  0D6F  0021               	movlb	1	; select bank1
  2952  0D70  00D9               	movwf	EEP_Writes@Reg_h^(0+128)
  2953                           
  2954                           ;PIC16F1827-ChargeStation5-01.h: 413: uint8_t ans;
  2955                           ;PIC16F1827-ChargeStation5-01.h: 414: ans = I2C_Start(0x50, 0);
  2956  0D71  01D3               	clrf	I2C_Start@rw^(0+128)
  2957  0D72  3050               	movlw	80
  2958  0D73  318C  245C  318D   	fcall	_I2C_Start
  2959  0D76  0021               	movlb	1	; select bank1
  2960  0D77  00D8               	movwf	??_EEP_Writes^(0+128)
  2961  0D78  0858               	movf	??_EEP_Writes^(0+128),w
  2962  0D79  00DA               	movwf	EEP_Writes@ans^(0+128)
  2963                           
  2964                           ;PIC16F1827-ChargeStation5-01.h: 415: if (ans == 0) {
  2965  0D7A  085A               	movf	EEP_Writes@ans^(0+128),w
  2966  0D7B  1D03               	btfss	3,2
  2967  0D7C  2D90               	goto	l238
  2968                           
  2969                           ;PIC16F1827-ChargeStation5-01.h: 417: I2C_Send(Reg_h);
  2970  0D7D  0859               	movf	EEP_Writes@Reg_h^(0+128),w
  2971  0D7E  3187  27EE  318D   	fcall	_I2C_Send
  2972                           
  2973                           ;PIC16F1827-ChargeStation5-01.h: 418: I2C_Send(Reg_l);
  2974  0D81  0021               	movlb	1	; select bank1
  2975  0D82  0855               	movf	EEP_Writes@Reg_l^(0+128),w
  2976  0D83  3187  27EE  318D   	fcall	_I2C_Send
  2977                           
  2978                           ;PIC16F1827-ChargeStation5-01.h: 419: I2C_Send(data_0);
  2979  0D86  0021               	movlb	1	; select bank1
  2980  0D87  0856               	movf	EEP_Writes@data_0^(0+128),w
  2981  0D88  3187  27EE  318D   	fcall	_I2C_Send
  2982                           
  2983                           ;PIC16F1827-ChargeStation5-01.h: 420: I2C_Send(data_1);
  2984  0D8B  0021               	movlb	1	; select bank1
  2985  0D8C  0857               	movf	EEP_Writes@data_1^(0+128),w
  2986  0D8D  3187  27EE  318D   	fcall	_I2C_Send
  2987  0D90                     l238:	
  2988                           
  2989                           ;PIC16F1827-ChargeStation5-01.h: 421: }
  2990                           ;PIC16F1827-ChargeStation5-01.h: 422: I2C_Stop();
  2991  0D90  318B  2327  318D   	fcall	_I2C_Stop
  2992                           
  2993                           ;PIC16F1827-ChargeStation5-01.h: 423: _delay((unsigned long)((26)*(32000000/4000000.0)))
      +                          ;
  2994  0D93  3045               	movlw	69
  2995  0D94  0021               	movlb	1	; select bank1
  2996  0D95  00D8               	movwf	??_EEP_Writes^(0+128)
  2997  0D96                     u3767:	
  2998  0D96  0BD8               	decfsz	??_EEP_Writes^(0+128),f
  2999  0D97  2D96               	goto	u3767
  3000  0D98  0008               	return
  3001  0D99                     __end_of_EEP_Writes:	
  3002                           
  3003                           	psect	text15
  3004  0EDD                     __ptext15:	
  3005 ;; *************** function _EEP_Read *****************
  3006 ;; Defined at:
  3007 ;;		line 394 in file "PIC16F1827-ChargeStation5-01.h"
  3008 ;; Parameters:    Size  Location     Type
  3009 ;;  Reg_h           1    wreg     unsigned char 
  3010 ;;  Reg_l           1    6[BANK1 ] unsigned char 
  3011 ;; Auto vars:     Size  Location     Type
  3012 ;;  Reg_h           1    8[BANK1 ] unsigned char 
  3013 ;;  ans             1   10[BANK1 ] unsigned char 
  3014 ;;  data            1    9[BANK1 ] unsigned char 
  3015 ;; Return value:  Size  Location     Type
  3016 ;;                  1    wreg      unsigned char 
  3017 ;; Registers used:
  3018 ;;		wreg, status,2, status,0, pclath, cstack
  3019 ;; Tracked objects:
  3020 ;;		On entry : 0/0
  3021 ;;		On exit  : 0/0
  3022 ;;		Unchanged: 0/0
  3023 ;; Data sizes:     COMMON   BANK0   BANK1   BANK2   BANK3   BANK4
  3024 ;;      Params:         0       0       1       0       0       0
  3025 ;;      Locals:         0       0       3       0       0       0
  3026 ;;      Temps:          0       0       1       0       0       0
  3027 ;;      Totals:         0       0       5       0       0       0
  3028 ;;Total ram usage:        5 bytes
  3029 ;; Hardware stack levels used:    1
  3030 ;; Hardware stack levels required when called:    8
  3031 ;; This function calls:
  3032 ;;		_I2C_Receive
  3033 ;;		_I2C_Send
  3034 ;;		_I2C_Start
  3035 ;;		_I2C_Stop
  3036 ;;		_I2C_rStart
  3037 ;; This function is called by:
  3038 ;;		_main
  3039 ;; This function uses a non-reentrant model
  3040 ;;
  3041                           
  3042                           
  3043                           ;psect for function _EEP_Read
  3044  0EDD                     _EEP_Read:	
  3045                           
  3046                           ;incstack = 0
  3047                           ; Regs used in _EEP_Read: [wreg+status,2+status,0+pclath+cstack]
  3048                           ;EEP_Read@Reg_h stored from wreg
  3049  0EDD  0021               	movlb	1	; select bank1
  3050  0EDE  00D9               	movwf	EEP_Read@Reg_h^(0+128)
  3051                           
  3052                           ;PIC16F1827-ChargeStation5-01.h: 395: uint8_t ans;
  3053                           ;PIC16F1827-ChargeStation5-01.h: 396: uint8_t data;
  3054                           ;PIC16F1827-ChargeStation5-01.h: 398: ans = I2C_Start(0x50, 0);
  3055  0EDF  01D3               	clrf	I2C_Start@rw^(0+128)
  3056  0EE0  3050               	movlw	80
  3057  0EE1  318C  245C  318E   	fcall	_I2C_Start
  3058  0EE4  0021               	movlb	1	; select bank1
  3059  0EE5  00D8               	movwf	??_EEP_Read^(0+128)
  3060  0EE6  0858               	movf	??_EEP_Read^(0+128),w
  3061  0EE7  00DB               	movwf	EEP_Read@ans^(0+128)
  3062                           
  3063                           ;PIC16F1827-ChargeStation5-01.h: 399: if (ans == 0) {
  3064  0EE8  085B               	movf	EEP_Read@ans^(0+128),w
  3065  0EE9  1D03               	btfss	3,2
  3066  0EEA  2EF4               	goto	l233
  3067                           
  3068                           ;PIC16F1827-ChargeStation5-01.h: 400: I2C_Send(Reg_h);
  3069  0EEB  0859               	movf	EEP_Read@Reg_h^(0+128),w
  3070  0EEC  3187  27EE  318E   	fcall	_I2C_Send
  3071                           
  3072                           ;PIC16F1827-ChargeStation5-01.h: 401: I2C_Send(Reg_l);
  3073  0EEF  0021               	movlb	1	; select bank1
  3074  0EF0  0857               	movf	EEP_Read@Reg_l^(0+128),w
  3075  0EF1  3187  27EE  318E   	fcall	_I2C_Send
  3076  0EF4                     l233:	
  3077                           
  3078                           ;PIC16F1827-ChargeStation5-01.h: 402: }
  3079                           ;PIC16F1827-ChargeStation5-01.h: 403: ans = I2C_rStart(0x50, 1);
  3080  0EF4  3050               	movlw	80
  3081  0EF5  0021               	movlb	1	; select bank1
  3082  0EF6  00D3               	movwf	I2C_rStart@adrs^(0+128)
  3083  0EF7  3000               	movlw	0
  3084  0EF8  00D4               	movwf	(I2C_rStart@adrs^(0+128)+1)
  3085  0EF9  3001               	movlw	1
  3086  0EFA  00D5               	movwf	I2C_rStart@rw^(0+128)
  3087  0EFB  3000               	movlw	0
  3088  0EFC  00D6               	movwf	(I2C_rStart@rw^(0+128)+1)
  3089  0EFD  318C  240A  318E   	fcall	_I2C_rStart
  3090  0F00  0021               	movlb	1	; select bank1
  3091  0F01  00D8               	movwf	??_EEP_Read^(0+128)
  3092  0F02  0858               	movf	??_EEP_Read^(0+128),w
  3093  0F03  00DB               	movwf	EEP_Read@ans^(0+128)
  3094                           
  3095                           ;PIC16F1827-ChargeStation5-01.h: 404: if (ans == 0) {
  3096  0F04  085B               	movf	EEP_Read@ans^(0+128),w
  3097  0F05  1D03               	btfss	3,2
  3098  0F06  2F0F               	goto	l234
  3099                           
  3100                           ;PIC16F1827-ChargeStation5-01.h: 405: data = I2C_Receive(1);
  3101  0F07  3001               	movlw	1
  3102  0F08  318C  2478  318E   	fcall	_I2C_Receive
  3103  0F0B  0021               	movlb	1	; select bank1
  3104  0F0C  00D8               	movwf	??_EEP_Read^(0+128)
  3105  0F0D  0858               	movf	??_EEP_Read^(0+128),w
  3106  0F0E  00DA               	movwf	EEP_Read@data^(0+128)
  3107  0F0F                     l234:	
  3108                           
  3109                           ;PIC16F1827-ChargeStation5-01.h: 406: }
  3110                           ;PIC16F1827-ChargeStation5-01.h: 407: I2C_Stop();
  3111  0F0F  318B  2327  318E   	fcall	_I2C_Stop
  3112                           
  3113                           ;PIC16F1827-ChargeStation5-01.h: 408: _delay((unsigned long)((26)*(32000000/4000000.0)))
      +                          ;
  3114  0F12  3045               	movlw	69
  3115  0F13  0021               	movlb	1	; select bank1
  3116  0F14  00D8               	movwf	??_EEP_Read^(0+128)
  3117  0F15                     u3777:	
  3118  0F15  0BD8               	decfsz	??_EEP_Read^(0+128),f
  3119  0F16  2F15               	goto	u3777
  3120                           
  3121                           ;PIC16F1827-ChargeStation5-01.h: 409: return data;
  3122  0F17  0021               	movlb	1	; select bank1
  3123  0F18  085A               	movf	EEP_Read@data^(0+128),w
  3124  0F19  0008               	return
  3125  0F1A                     __end_of_EEP_Read:	
  3126                           
  3127                           	psect	text16
  3128  0C0A                     __ptext16:	
  3129 ;; *************** function _I2C_rStart *****************
  3130 ;; Defined at:
  3131 ;;		line 184 in file "PIC16F1827-ChargeStation5-01.h"
  3132 ;; Parameters:    Size  Location     Type
  3133 ;;  adrs            2    2[BANK1 ] int 
  3134 ;;  rw              2    4[BANK1 ] int 
  3135 ;; Auto vars:     Size  Location     Type
  3136 ;;		None
  3137 ;; Return value:  Size  Location     Type
  3138 ;;                  1    wreg      unsigned char 
  3139 ;; Registers used:
  3140 ;;		wreg, status,2, status,0, pclath, cstack
  3141 ;; Tracked objects:
  3142 ;;		On entry : 0/0
  3143 ;;		On exit  : 0/0
  3144 ;;		Unchanged: 0/0
  3145 ;; Data sizes:     COMMON   BANK0   BANK1   BANK2   BANK3   BANK4
  3146 ;;      Params:         0       0       4       0       0       0
  3147 ;;      Locals:         0       0       0       0       0       0
  3148 ;;      Temps:          0       0       0       0       0       0
  3149 ;;      Totals:         0       0       4       0       0       0
  3150 ;;Total ram usage:        4 bytes
  3151 ;; Hardware stack levels used:    1
  3152 ;; Hardware stack levels required when called:    7
  3153 ;; This function calls:
  3154 ;;		_I2C_IdleCheck
  3155 ;; This function is called by:
  3156 ;;		_EEP_Read
  3157 ;;		_RTC_Read
  3158 ;;		_TM_Read
  3159 ;; This function uses a non-reentrant model
  3160 ;;
  3161                           
  3162                           
  3163                           ;psect for function _I2C_rStart
  3164  0C0A                     _I2C_rStart:	
  3165                           
  3166                           ;PIC16F1827-ChargeStation5-01.h: 186: I2C_IdleCheck(0x5);
  3167                           
  3168                           ;incstack = 0
  3169                           ; Regs used in _I2C_rStart: [wreg+status,2+status,0+pclath+cstack]
  3170  0C0A  3005               	movlw	5
  3171  0C0B  318B  2357  318C   	fcall	_I2C_IdleCheck
  3172                           
  3173                           ;PIC16F1827-ChargeStation5-01.h: 187: SSP1CON2bits.RSEN = 1;
  3174  0C0E  0024               	movlb	4	; select bank4
  3175  0C0F  1496               	bsf	22,1	;volatile
  3176                           
  3177                           ;PIC16F1827-ChargeStation5-01.h: 189: I2C_IdleCheck(0x5);
  3178  0C10  3005               	movlw	5
  3179  0C11  318B  2357  318C   	fcall	_I2C_IdleCheck
  3180                           
  3181                           ;PIC16F1827-ChargeStation5-01.h: 190: SSP1IF = 0;
  3182  0C14  0020               	movlb	0	; select bank0
  3183  0C15  1191               	bcf	17,3	;volatile
  3184                           
  3185                           ;PIC16F1827-ChargeStation5-01.h: 191: SSP1BUF = (char) ((adrs << 1) + rw);
  3186  0C16  0021               	movlb	1	; select bank1
  3187  0C17  3553               	lslf	I2C_rStart@adrs^(0+128),w
  3188  0C18  0755               	addwf	I2C_rStart@rw^(0+128),w
  3189  0C19  0024               	movlb	4	; select bank4
  3190  0C1A  0091               	movwf	17	;volatile
  3191  0C1B                     l161:	
  3192                           ;PIC16F1827-ChargeStation5-01.h: 192: while (!SSP1IF);
  3193                           
  3194  0C1B  0020               	movlb	0	; select bank0
  3195  0C1C  1D91               	btfss	17,3	;volatile
  3196  0C1D  2C1B               	goto	l161
  3197                           
  3198                           ;PIC16F1827-ChargeStation5-01.h: 193: return SSP1CON2bits.ACKSTAT;
  3199  0C1E  0024               	movlb	4	; select bank4
  3200  0C1F  0E16               	swapf	22,w	;volatile
  3201  0C20  0C89               	rrf	9,f
  3202  0C21  0C89               	rrf	9,f
  3203  0C22  3901               	andlw	1
  3204  0C23  0008               	return
  3205  0C24                     __end_of_I2C_rStart:	
  3206                           
  3207                           	psect	text17
  3208  0B27                     __ptext17:	
  3209 ;; *************** function _I2C_Stop *****************
  3210 ;; Defined at:
  3211 ;;		line 196 in file "PIC16F1827-ChargeStation5-01.h"
  3212 ;; Parameters:    Size  Location     Type
  3213 ;;		None
  3214 ;; Auto vars:     Size  Location     Type
  3215 ;;		None
  3216 ;; Return value:  Size  Location     Type
  3217 ;;		None               void
  3218 ;; Registers used:
  3219 ;;		wreg, status,2, status,0, pclath, cstack
  3220 ;; Tracked objects:
  3221 ;;		On entry : 0/0
  3222 ;;		On exit  : 0/0
  3223 ;;		Unchanged: 0/0
  3224 ;; Data sizes:     COMMON   BANK0   BANK1   BANK2   BANK3   BANK4
  3225 ;;      Params:         0       0       0       0       0       0
  3226 ;;      Locals:         0       0       0       0       0       0
  3227 ;;      Temps:          0       0       0       0       0       0
  3228 ;;      Totals:         0       0       0       0       0       0
  3229 ;;Total ram usage:        0 bytes
  3230 ;; Hardware stack levels used:    1
  3231 ;; Hardware stack levels required when called:    7
  3232 ;; This function calls:
  3233 ;;		_I2C_IdleCheck
  3234 ;; This function is called by:
  3235 ;;		_LCD_Command
  3236 ;;		_EEP_Read
  3237 ;;		_EEP_Writes
  3238 ;;		_LCD_CreateChar
  3239 ;;		_RTC_Write
  3240 ;;		_RTC_Read
  3241 ;;		_TM_init
  3242 ;;		_TM_Read
  3243 ;;		_EEP_Write
  3244 ;; This function uses a non-reentrant model
  3245 ;;
  3246                           
  3247                           
  3248                           ;psect for function _I2C_Stop
  3249  0B27                     _I2C_Stop:	
  3250                           
  3251                           ;PIC16F1827-ChargeStation5-01.h: 198: I2C_IdleCheck(0x5);
  3252                           
  3253                           ;incstack = 0
  3254                           ; Regs used in _I2C_Stop: [wreg+status,2+status,0+pclath+cstack]
  3255  0B27  3005               	movlw	5
  3256  0B28  318B  2357         	fcall	_I2C_IdleCheck
  3257                           
  3258                           ;PIC16F1827-ChargeStation5-01.h: 199: SSP1CON2bits.PEN = 1;
  3259  0B2A  0024               	movlb	4	; select bank4
  3260  0B2B  1516               	bsf	22,2	;volatile
  3261  0B2C  0008               	return
  3262  0B2D                     __end_of_I2C_Stop:	
  3263                           
  3264                           	psect	text18
  3265  0C5C                     __ptext18:	
  3266 ;; *************** function _I2C_Start *****************
  3267 ;; Defined at:
  3268 ;;		line 172 in file "PIC16F1827-ChargeStation5-01.h"
  3269 ;; Parameters:    Size  Location     Type
  3270 ;;  adrs            1    wreg     unsigned char 
  3271 ;;  rw              1    2[BANK1 ] unsigned char 
  3272 ;; Auto vars:     Size  Location     Type
  3273 ;;  adrs            1    3[BANK1 ] unsigned char 
  3274 ;; Return value:  Size  Location     Type
  3275 ;;                  1    wreg      unsigned char 
  3276 ;; Registers used:
  3277 ;;		wreg, status,2, status,0, pclath, cstack
  3278 ;; Tracked objects:
  3279 ;;		On entry : 0/0
  3280 ;;		On exit  : 0/0
  3281 ;;		Unchanged: 0/0
  3282 ;; Data sizes:     COMMON   BANK0   BANK1   BANK2   BANK3   BANK4
  3283 ;;      Params:         0       0       1       0       0       0
  3284 ;;      Locals:         0       0       1       0       0       0
  3285 ;;      Temps:          0       0       0       0       0       0
  3286 ;;      Totals:         0       0       2       0       0       0
  3287 ;;Total ram usage:        2 bytes
  3288 ;; Hardware stack levels used:    1
  3289 ;; Hardware stack levels required when called:    7
  3290 ;; This function calls:
  3291 ;;		_I2C_IdleCheck
  3292 ;; This function is called by:
  3293 ;;		_LCD_Command
  3294 ;;		_EEP_Read
  3295 ;;		_EEP_Writes
  3296 ;;		_LCD_CreateChar
  3297 ;;		_RTC_Write
  3298 ;;		_RTC_Read
  3299 ;;		_TM_init
  3300 ;;		_TM_Read
  3301 ;;		_EEP_Write
  3302 ;; This function uses a non-reentrant model
  3303 ;;
  3304                           
  3305                           
  3306                           ;psect for function _I2C_Start
  3307  0C5C                     _I2C_Start:	
  3308                           
  3309                           ;incstack = 0
  3310                           ; Regs used in _I2C_Start: [wreg+status,2+status,0+pclath+cstack]
  3311                           ;I2C_Start@adrs stored from wreg
  3312  0C5C  0021               	movlb	1	; select bank1
  3313  0C5D  00D4               	movwf	I2C_Start@adrs^(0+128)
  3314                           
  3315                           ;PIC16F1827-ChargeStation5-01.h: 174: I2C_IdleCheck(0x5);
  3316  0C5E  3005               	movlw	5
  3317  0C5F  318B  2357  318C   	fcall	_I2C_IdleCheck
  3318                           
  3319                           ;PIC16F1827-ChargeStation5-01.h: 175: SSP1CON2bits.SEN = 1;
  3320  0C62  0024               	movlb	4	; select bank4
  3321  0C63  1416               	bsf	22,0	;volatile
  3322                           
  3323                           ;PIC16F1827-ChargeStation5-01.h: 177: I2C_IdleCheck(0x5);
  3324  0C64  3005               	movlw	5
  3325  0C65  318B  2357  318C   	fcall	_I2C_IdleCheck
  3326                           
  3327                           ;PIC16F1827-ChargeStation5-01.h: 178: SSP1IF = 0;
  3328  0C68  0020               	movlb	0	; select bank0
  3329  0C69  1191               	bcf	17,3	;volatile
  3330                           
  3331                           ;PIC16F1827-ChargeStation5-01.h: 179: SSP1BUF = (uint8_t) ((adrs << 1) + rw);
  3332  0C6A  0021               	movlb	1	; select bank1
  3333  0C6B  3554               	lslf	I2C_Start@adrs^(0+128),w
  3334  0C6C  0753               	addwf	I2C_Start@rw^(0+128),w
  3335  0C6D  0024               	movlb	4	; select bank4
  3336  0C6E  0091               	movwf	17	;volatile
  3337  0C6F                     l155:	
  3338                           ;PIC16F1827-ChargeStation5-01.h: 180: while (!SSP1IF);
  3339                           
  3340  0C6F  0020               	movlb	0	; select bank0
  3341  0C70  1D91               	btfss	17,3	;volatile
  3342  0C71  2C6F               	goto	l155
  3343                           
  3344                           ;PIC16F1827-ChargeStation5-01.h: 181: return SSP1CON2bits.ACKSTAT;
  3345  0C72  0024               	movlb	4	; select bank4
  3346  0C73  0E16               	swapf	22,w	;volatile
  3347  0C74  0C89               	rrf	9,f
  3348  0C75  0C89               	rrf	9,f
  3349  0C76  3901               	andlw	1
  3350  0C77  0008               	return
  3351  0C78                     __end_of_I2C_Start:	
  3352                           
  3353                           	psect	text19
  3354  07EE                     __ptext19:	
  3355 ;; *************** function _I2C_Send *****************
  3356 ;; Defined at:
  3357 ;;		line 202 in file "PIC16F1827-ChargeStation5-01.h"
  3358 ;; Parameters:    Size  Location     Type
  3359 ;;  data            1    wreg     unsigned char 
  3360 ;; Auto vars:     Size  Location     Type
  3361 ;;  data            1    2[BANK1 ] unsigned char 
  3362 ;; Return value:  Size  Location     Type
  3363 ;;                  1    wreg      unsigned char 
  3364 ;; Registers used:
  3365 ;;		wreg, status,2, status,0, pclath, cstack
  3366 ;; Tracked objects:
  3367 ;;		On entry : 0/0
  3368 ;;		On exit  : 0/0
  3369 ;;		Unchanged: 0/0
  3370 ;; Data sizes:     COMMON   BANK0   BANK1   BANK2   BANK3   BANK4
  3371 ;;      Params:         0       0       0       0       0       0
  3372 ;;      Locals:         0       0       1       0       0       0
  3373 ;;      Temps:          0       0       0       0       0       0
  3374 ;;      Totals:         0       0       1       0       0       0
  3375 ;;Total ram usage:        1 bytes
  3376 ;; Hardware stack levels used:    1
  3377 ;; Hardware stack levels required when called:    7
  3378 ;; This function calls:
  3379 ;;		_I2C_IdleCheck
  3380 ;; This function is called by:
  3381 ;;		_LCD_Command
  3382 ;;		_EEP_Read
  3383 ;;		_EEP_Writes
  3384 ;;		_LCD_CreateChar
  3385 ;;		_RTC_Write
  3386 ;;		_RTC_Read
  3387 ;;		_TM_init
  3388 ;;		_TM_Read
  3389 ;;		_EEP_Write
  3390 ;; This function uses a non-reentrant model
  3391 ;;
  3392                           
  3393                           
  3394                           ;psect for function _I2C_Send
  3395  07EE                     _I2C_Send:	
  3396                           
  3397                           ;incstack = 0
  3398                           ; Regs used in _I2C_Send: [wreg+status,2+status,0+pclath+cstack]
  3399                           ;I2C_Send@data stored from wreg
  3400  07EE  0021               	movlb	1	; select bank1
  3401  07EF  00D3               	movwf	I2C_Send@data^(0+128)
  3402                           
  3403                           ;PIC16F1827-ChargeStation5-01.h: 203: I2C_IdleCheck(0x5);
  3404  07F0  3005               	movlw	5
  3405  07F1  318B  2357  3187   	fcall	_I2C_IdleCheck
  3406                           
  3407                           ;PIC16F1827-ChargeStation5-01.h: 204: SSP1IF = 0;
  3408  07F4  0020               	movlb	0	; select bank0
  3409  07F5  1191               	bcf	17,3	;volatile
  3410                           
  3411                           ;PIC16F1827-ChargeStation5-01.h: 205: SSP1BUF = data;
  3412  07F6  0021               	movlb	1	; select bank1
  3413  07F7  0853               	movf	I2C_Send@data^(0+128),w
  3414  07F8  0024               	movlb	4	; select bank4
  3415  07F9  0091               	movwf	17	;volatile
  3416  07FA                     l170:	
  3417                           ;PIC16F1827-ChargeStation5-01.h: 206: while (!SSP1IF);
  3418                           
  3419  07FA  0020               	movlb	0	; select bank0
  3420  07FB  1D91               	btfss	17,3	;volatile
  3421  07FC  2FFA               	goto	l170
  3422                           
  3423                           ;PIC16F1827-ChargeStation5-01.h: 207: return SSP1CON2bits.ACKSTAT;
  3424                           ;	Return value of _I2C_Send is never used
  3425  07FD  0024               	movlb	4	; select bank4
  3426  07FE  0816               	movf	22,w	;volatile
  3427  07FF  0008               	return
  3428  0800                     __end_of_I2C_Send:	
  3429                           
  3430                           	psect	text20
  3431  0C78                     __ptext20:	
  3432 ;; *************** function _I2C_Receive *****************
  3433 ;; Defined at:
  3434 ;;		line 210 in file "PIC16F1827-ChargeStation5-01.h"
  3435 ;; Parameters:    Size  Location     Type
  3436 ;;  ack             1    wreg     unsigned char 
  3437 ;; Auto vars:     Size  Location     Type
  3438 ;;  ack             1    3[BANK1 ] unsigned char 
  3439 ;;  data            1    4[BANK1 ] unsigned char 
  3440 ;; Return value:  Size  Location     Type
  3441 ;;                  1    wreg      unsigned char 
  3442 ;; Registers used:
  3443 ;;		wreg, status,2, status,0, pclath, cstack
  3444 ;; Tracked objects:
  3445 ;;		On entry : 0/0
  3446 ;;		On exit  : 0/0
  3447 ;;		Unchanged: 0/0
  3448 ;; Data sizes:     COMMON   BANK0   BANK1   BANK2   BANK3   BANK4
  3449 ;;      Params:         0       0       0       0       0       0
  3450 ;;      Locals:         0       0       2       0       0       0
  3451 ;;      Temps:          0       0       1       0       0       0
  3452 ;;      Totals:         0       0       3       0       0       0
  3453 ;;Total ram usage:        3 bytes
  3454 ;; Hardware stack levels used:    1
  3455 ;; Hardware stack levels required when called:    7
  3456 ;; This function calls:
  3457 ;;		_I2C_IdleCheck
  3458 ;; This function is called by:
  3459 ;;		_EEP_Read
  3460 ;;		_RTC_Read
  3461 ;;		_TM_Read
  3462 ;; This function uses a non-reentrant model
  3463 ;;
  3464                           
  3465                           
  3466                           ;psect for function _I2C_Receive
  3467  0C78                     _I2C_Receive:	
  3468                           
  3469                           ;incstack = 0
  3470                           ; Regs used in _I2C_Receive: [wreg+status,2+status,0+pclath+cstack]
  3471                           ;I2C_Receive@ack stored from wreg
  3472  0C78  0021               	movlb	1	; select bank1
  3473  0C79  00D4               	movwf	I2C_Receive@ack^(0+128)
  3474                           
  3475                           ;PIC16F1827-ChargeStation5-01.h: 211: uint8_t data;
  3476                           ;PIC16F1827-ChargeStation5-01.h: 213: I2C_IdleCheck(0x5);
  3477  0C7A  3005               	movlw	5
  3478  0C7B  318B  2357  318C   	fcall	_I2C_IdleCheck
  3479                           
  3480                           ;PIC16F1827-ChargeStation5-01.h: 214: SSP1CON2bits.RCEN = 1;
  3481  0C7E  0024               	movlb	4	; select bank4
  3482  0C7F  1596               	bsf	22,3	;volatile
  3483                           
  3484                           ;PIC16F1827-ChargeStation5-01.h: 215: I2C_IdleCheck(0x4);
  3485  0C80  3004               	movlw	4
  3486  0C81  318B  2357  318C   	fcall	_I2C_IdleCheck
  3487                           
  3488                           ;PIC16F1827-ChargeStation5-01.h: 216: data = SSP1BUF;
  3489  0C84  0024               	movlb	4	; select bank4
  3490  0C85  0811               	movf	17,w	;volatile
  3491  0C86  0021               	movlb	1	; select bank1
  3492  0C87  00D3               	movwf	??_I2C_Receive^(0+128)
  3493  0C88  0853               	movf	??_I2C_Receive^(0+128),w
  3494  0C89  00D5               	movwf	I2C_Receive@data^(0+128)
  3495                           
  3496                           ;PIC16F1827-ChargeStation5-01.h: 217: I2C_IdleCheck(0x5);
  3497  0C8A  3005               	movlw	5
  3498  0C8B  318B  2357         	fcall	_I2C_IdleCheck
  3499                           
  3500                           ;PIC16F1827-ChargeStation5-01.h: 218: SSP1CON2bits.ACKDT = ack;
  3501  0C8D  0021               	movlb	1	; select bank1
  3502  0C8E  0854               	movf	I2C_Receive@ack^(0+128),w
  3503  0C8F  0024               	movlb	4	; select bank4
  3504  0C90  1D03               	skipz
  3505  0C91  1696               	bsf	22,5	;volatile
  3506  0C92  1903               	skipnz
  3507  0C93  1296               	bcf	22,5	;volatile
  3508                           
  3509                           ;PIC16F1827-ChargeStation5-01.h: 219: SSP1CON2bits.ACKEN = 1;
  3510  0C94  1616               	bsf	22,4	;volatile
  3511                           
  3512                           ;PIC16F1827-ChargeStation5-01.h: 220: return data;
  3513  0C95  0021               	movlb	1	; select bank1
  3514  0C96  0855               	movf	I2C_Receive@data^(0+128),w
  3515  0C97  0008               	return
  3516  0C98                     __end_of_I2C_Receive:	
  3517                           
  3518                           	psect	text21
  3519  0B57                     __ptext21:	
  3520 ;; *************** function _I2C_IdleCheck *****************
  3521 ;; Defined at:
  3522 ;;		line 158 in file "PIC16F1827-ChargeStation5-01.h"
  3523 ;; Parameters:    Size  Location     Type
  3524 ;;  mask            1    wreg     unsigned char 
  3525 ;; Auto vars:     Size  Location     Type
  3526 ;;  mask            1    1[BANK1 ] unsigned char 
  3527 ;; Return value:  Size  Location     Type
  3528 ;;		None               void
  3529 ;; Registers used:
  3530 ;;		wreg, status,2, status,0
  3531 ;; Tracked objects:
  3532 ;;		On entry : 0/0
  3533 ;;		On exit  : 0/0
  3534 ;;		Unchanged: 0/0
  3535 ;; Data sizes:     COMMON   BANK0   BANK1   BANK2   BANK3   BANK4
  3536 ;;      Params:         0       0       0       0       0       0
  3537 ;;      Locals:         0       0       1       0       0       0
  3538 ;;      Temps:          0       0       1       0       0       0
  3539 ;;      Totals:         0       0       2       0       0       0
  3540 ;;Total ram usage:        2 bytes
  3541 ;; Hardware stack levels used:    1
  3542 ;; Hardware stack levels required when called:    6
  3543 ;; This function calls:
  3544 ;;		Nothing
  3545 ;; This function is called by:
  3546 ;;		_I2C_Start
  3547 ;;		_I2C_rStart
  3548 ;;		_I2C_Stop
  3549 ;;		_I2C_Send
  3550 ;;		_I2C_Receive
  3551 ;; This function uses a non-reentrant model
  3552 ;;
  3553                           
  3554                           
  3555                           ;psect for function _I2C_IdleCheck
  3556  0B57                     _I2C_IdleCheck:	
  3557                           
  3558                           ;incstack = 0
  3559                           ; Regs used in _I2C_IdleCheck: [wreg+status,2+status,0]
  3560                           ;I2C_IdleCheck@mask stored from wreg
  3561  0B57  0021               	movlb	1	; select bank1
  3562  0B58  00D2               	movwf	I2C_IdleCheck@mask^(0+128)
  3563  0B59                     l2865:	
  3564                           ;PIC16F1827-ChargeStation5-01.h: 159: while ((SSP1CON2 & 0x1F) | (SSP1STAT & mask));
  3565                           
  3566  0B59  0852               	movf	I2C_IdleCheck@mask^(0+128),w
  3567  0B5A  0024               	movlb	4	; select bank4
  3568  0B5B  0514               	andwf	20,w	;volatile
  3569  0B5C  0021               	movlb	1	; select bank1
  3570  0B5D  00D1               	movwf	??_I2C_IdleCheck^(0+128)
  3571  0B5E  0024               	movlb	4	; select bank4
  3572  0B5F  0816               	movf	22,w	;volatile
  3573  0B60  391F               	andlw	31
  3574  0B61  0021               	movlb	1	; select bank1
  3575  0B62  0451               	iorwf	??_I2C_IdleCheck^(0+128),w
  3576  0B63  1903               	btfsc	3,2
  3577  0B64  0008               	return
  3578  0B65  2B59               	goto	l2865
  3579  0B66                     __end_of_I2C_IdleCheck:	
  3580                           
  3581                           	psect	intentry
  3582  0004                     __pintentry:	
  3583 ;; *************** function _isr *****************
  3584 ;; Defined at:
  3585 ;;		line 80 in file "PIC16F1827-ChargeStation5-01.c"
  3586 ;; Parameters:    Size  Location     Type
  3587 ;;		None
  3588 ;; Auto vars:     Size  Location     Type
  3589 ;;  i               1   26[BANK0 ] unsigned char 
  3590 ;; Return value:  Size  Location     Type
  3591 ;;		None               void
  3592 ;; Registers used:
  3593 ;;		wreg, fsr0l, fsr0h, fsr1l, fsr1h, status,2, status,0, pclath, cstack
  3594 ;; Tracked objects:
  3595 ;;		On entry : 0/0
  3596 ;;		On exit  : 0/0
  3597 ;;		Unchanged: 0/0
  3598 ;; Data sizes:     COMMON   BANK0   BANK1   BANK2   BANK3   BANK4
  3599 ;;      Params:         0       0       0       0       0       0
  3600 ;;      Locals:         0       1       0       0       0       0
  3601 ;;      Temps:          0       8       0       0       0       0
  3602 ;;      Totals:         0       9       0       0       0       0
  3603 ;;Total ram usage:        9 bytes
  3604 ;; Hardware stack levels used:    1
  3605 ;; Hardware stack levels required when called:    5
  3606 ;; This function calls:
  3607 ;;		___lldiv
  3608 ;;		___lwdiv
  3609 ;;		_adc
  3610 ;;		_button_timer_interrupt
  3611 ;;		_display
  3612 ;;		_lchika
  3613 ;;		_ringbuf_num
  3614 ;;		_ringbuf_pop
  3615 ;; This function is called by:
  3616 ;;		Interrupt level 1
  3617 ;; This function uses a non-reentrant model
  3618 ;;
  3619                           
  3620  0004                     _isr:	
  3621                           
  3622                           ;incstack = 0
  3623                           ; Regs used in _isr: [wreg-fsr1h+status,2+status,0+pclath+cstack]
  3624  0004  147E               	bsf	126,0	;set compiler interrupt flag (level 1)
  3625  0005  3180               	pagesel	$
  3626  0006  0020               	movlb	0	; select bank0
  3627  0007  087F               	movf	127,w
  3628  0008  00D5               	movwf	??_isr+7
  3629                           
  3630                           ;PIC16F1827-ChargeStation5-01.c: 81: uint8_t i;
  3631                           ;PIC16F1827-ChargeStation5-01.c: 82: if (PIR1bits.RCIF == 1) {
  3632  0009  1A91               	btfsc	17,5	;volatile
  3633                           
  3634                           ;PIC16F1827-ChargeStation5-01.c: 83: PIR1bits.RCIF = 0;
  3635  000A  1291               	bcf	17,5	;volatile
  3636                           
  3637                           ;PIC16F1827-ChargeStation5-01.c: 84: }
  3638                           ;PIC16F1827-ChargeStation5-01.c: 85: if (PIR1bits.TXIF & PIE1bits.TXIE) {
  3639  000B  0021               	movlb	1	; select bank1
  3640  000C  0E11               	swapf	17,w	;volatile
  3641  000D  3901               	andlw	1
  3642  000E  0020               	movlb	0	; select bank0
  3643  000F  00CE               	movwf	??_isr
  3644  0010  0E11               	swapf	17,w	;volatile
  3645  0011  3901               	andlw	1
  3646  0012  054E               	andwf	??_isr,w
  3647  0013  1903               	btfsc	3,2
  3648  0014  2825               	goto	i1l283
  3649                           
  3650                           ;PIC16F1827-ChargeStation5-01.c: 86: if (ringbuf_num(&tx_buf)) {
  3651  0015  30CC               	movlw	(low (_tx_buf| 0))& (0+255)
  3652  0016  318D  25C5  3180   	fcall	_ringbuf_num
  3653  0019  3A00               	xorlw	0
  3654  001A  1903               	skipnz
  3655  001B  2823               	goto	i1l284
  3656                           
  3657                           ;PIC16F1827-ChargeStation5-01.c: 87: TXREG = ringbuf_pop(&tx_buf);
  3658  001C  30CC               	movlw	(low (_tx_buf| 0))& (0+255)
  3659  001D  318D  25F1  3180   	fcall	_ringbuf_pop
  3660  0020  0023               	movlb	3	; select bank3
  3661  0021  009A               	movwf	26	;volatile
  3662                           
  3663                           ;PIC16F1827-ChargeStation5-01.c: 88: } else {
  3664  0022  2825               	goto	i1l283
  3665  0023                     i1l284:	
  3666                           
  3667                           ;PIC16F1827-ChargeStation5-01.c: 89: PIE1bits.TXIE = 0;
  3668  0023  0021               	movlb	1	; select bank1
  3669  0024  1211               	bcf	17,4	;volatile
  3670  0025                     i1l283:	
  3671                           
  3672                           ;PIC16F1827-ChargeStation5-01.c: 90: }
  3673                           ;PIC16F1827-ChargeStation5-01.c: 91: }
  3674                           ;PIC16F1827-ChargeStation5-01.c: 92: if (PIR1bits.TMR1IF == 1) {
  3675  0025  0020               	movlb	0	; select bank0
  3676  0026  1C11               	btfss	17,0	;volatile
  3677  0027  28D1               	goto	i1l286
  3678                           
  3679                           ;PIC16F1827-ChargeStation5-01.c: 93: PIR1bits.TMR1IF = 0;
  3680  0028  1011               	bcf	17,0	;volatile
  3681                           
  3682                           ;PIC16F1827-ChargeStation5-01.c: 94: button_timer_interrupt(&sh_0, !RB0);
  3683  0029  1003               	clrc
  3684  002A  1C0D               	btfss	13,0	;volatile
  3685  002B  1403               	setc
  3686  002C  3000               	movlw	0
  3687  002D  1803               	btfsc	3,0
  3688  002E  3001               	movlw	1
  3689  002F  00F0               	movwf	button_timer_interrupt@sw_value
  3690  0030  302D               	movlw	(low (_sh_0| 0))& (0+255)
  3691  0031  3185  2579  3180   	fcall	_button_timer_interrupt
  3692                           
  3693                           ;PIC16F1827-ChargeStation5-01.c: 95: button_timer_interrupt(&sh_1, !RB3);
  3694  0034  1003               	clrc
  3695  0035  0020               	movlb	0	; select bank0
  3696  0036  1D8D               	btfss	13,3	;volatile
  3697  0037  1403               	setc
  3698  0038  3000               	movlw	0
  3699  0039  1803               	btfsc	3,0
  3700  003A  3001               	movlw	1
  3701  003B  00F0               	movwf	button_timer_interrupt@sw_value
  3702  003C  3030               	movlw	(low (_sh_1| 0))& (0+255)
  3703  003D  3185  2579  3180   	fcall	_button_timer_interrupt
  3704                           
  3705                           ;PIC16F1827-ChargeStation5-01.c: 96: button_timer_interrupt(&sh_2, !RB6);
  3706  0040  1003               	clrc
  3707  0041  0020               	movlb	0	; select bank0
  3708  0042  1F0D               	btfss	13,6	;volatile
  3709  0043  1403               	setc
  3710  0044  3000               	movlw	0
  3711  0045  1803               	btfsc	3,0
  3712  0046  3001               	movlw	1
  3713  0047  00F0               	movwf	button_timer_interrupt@sw_value
  3714  0048  3033               	movlw	(low (_sh_2| 0))& (0+255)
  3715  0049  3185  2579  3180   	fcall	_button_timer_interrupt
  3716                           
  3717                           ;PIC16F1827-ChargeStation5-01.c: 97: button_timer_interrupt(&sw_0, !RA4);
  3718  004C  1003               	clrc
  3719  004D  0020               	movlb	0	; select bank0
  3720  004E  1E0C               	btfss	12,4	;volatile
  3721  004F  1403               	setc
  3722  0050  3000               	movlw	0
  3723  0051  1803               	btfsc	3,0
  3724  0052  3001               	movlw	1
  3725  0053  00F0               	movwf	button_timer_interrupt@sw_value
  3726  0054  3036               	movlw	(low (_sw_0| 0))& (0+255)
  3727  0055  3185  2579  3180   	fcall	_button_timer_interrupt
  3728                           
  3729                           ;PIC16F1827-ChargeStation5-01.c: 98: button_timer_interrupt(&sw_1, !RA5);
  3730  0058  1003               	clrc
  3731  0059  0020               	movlb	0	; select bank0
  3732  005A  1E8C               	btfss	12,5	;volatile
  3733  005B  1403               	setc
  3734  005C  3000               	movlw	0
  3735  005D  1803               	btfsc	3,0
  3736  005E  3001               	movlw	1
  3737  005F  00F0               	movwf	button_timer_interrupt@sw_value
  3738  0060  3039               	movlw	(low (_sw_1| 0))& (0+255)
  3739  0061  3185  2579  3180   	fcall	_button_timer_interrupt
  3740                           
  3741                           ;PIC16F1827-ChargeStation5-01.c: 99: for (i = 0; i < 3; i++) {
  3742  0064  0020               	movlb	0	; select bank0
  3743  0065  01D6               	clrf	isr@i
  3744  0066  3003               	movlw	3
  3745  0067  0256               	subwf	isr@i,w
  3746  0068  1803               	btfsc	3,0
  3747  0069  28D1               	goto	i1l286
  3748  006A                     i1l2651:	
  3749                           
  3750                           ;PIC16F1827-ChargeStation5-01.c: 100: if (auto_cut_ON[i]) {
  3751  006A  0856               	movf	isr@i,w
  3752  006B  3E26               	addlw	(low (_auto_cut_ON| 0))& (0+255)
  3753  006C  0086               	movwf	6
  3754  006D  0187               	clrf	7
  3755  006E  0801               	movf	1,w
  3756  006F  1903               	btfsc	3,2
  3757  0070  28C9               	goto	i1l2663
  3758                           
  3759                           ;PIC16F1827-ChargeStation5-01.c: 101: v[i] = 2 * adc(i)*4 / 5;
  3760  0071  3005               	movlw	5
  3761  0072  00F6               	movwf	___lwdiv@divisor
  3762  0073  3000               	movlw	0
  3763  0074  00F7               	movwf	___lwdiv@divisor+1
  3764  0075  0856               	movf	isr@i,w
  3765  0076  318B  23D7  3180   	fcall	_adc
  3766  0079  0870               	movf	?_adc,w
  3767  007A  0020               	movlb	0	; select bank0
  3768  007B  00CE               	movwf	??_isr
  3769  007C  0871               	movf	?_adc+1,w
  3770  007D  00CF               	movwf	??_isr+1
  3771  007E  35CE               	lslf	??_isr,f
  3772  007F  0DCF               	rlf	??_isr+1,f
  3773  0080  35CE               	lslf	??_isr,f
  3774  0081  0DCF               	rlf	??_isr+1,f
  3775  0082  35CE               	lslf	??_isr,f
  3776  0083  0DCF               	rlf	??_isr+1,f
  3777  0084  084E               	movf	??_isr,w
  3778  0085  00F8               	movwf	___lwdiv@dividend
  3779  0086  084F               	movf	??_isr+1,w
  3780  0087  00F9               	movwf	___lwdiv@dividend+1
  3781  0088  318E  26A9  3180   	fcall	___lwdiv
  3782  008B  0020               	movlb	0	; select bank0
  3783  008C  3556               	lslf	isr@i,w
  3784  008D  3EB8               	addlw	(low (_v| 0))& (0+255)
  3785  008E  0086               	movwf	6
  3786  008F  0187               	clrf	7
  3787  0090  0876               	movf	?___lwdiv,w
  3788  0091  3FC0               	movwi [0]fsr1
  3789  0092  0877               	movf	?___lwdiv+1,w
  3790  0093  3FC1               	movwi [1]fsr1
  3791                           
  3792                           ;PIC16F1827-ChargeStation5-01.c: 103: if (v[i] < 100) {
  3793  0094  3556               	lslf	isr@i,w
  3794  0095  3EB8               	addlw	(low (_v| 0))& (0+255)
  3795  0096  0086               	movwf	6
  3796  0097  0187               	clrf	7
  3797  0098  3F40               	moviw [0]fsr1
  3798  0099  00CE               	movwf	??_isr
  3799  009A  3F41               	moviw [1]fsr1
  3800  009B  00CF               	movwf	??_isr+1
  3801  009C  3000               	movlw	0
  3802  009D  024F               	subwf	??_isr+1,w
  3803  009E  3064               	movlw	100
  3804  009F  1903               	skipnz
  3805  00A0  024E               	subwf	??_isr,w
  3806  00A1  1803               	skipnc
  3807  00A2  28C2               	goto	i1l2661
  3808                           
  3809                           ;PIC16F1827-ChargeStation5-01.c: 104: cut[i]++;
  3810  00A3  3556               	lslf	isr@i,w
  3811  00A4  3EAC               	addlw	(low (_cut| 0))& (0+255)
  3812  00A5  0086               	movwf	6
  3813  00A6  0187               	clrf	7
  3814  00A7  3001               	movlw	1
  3815  00A8  0781               	addwf	1,f
  3816  00A9  3141               	addfsr 1,1
  3817  00AA  1803               	skipnc
  3818  00AB  0A81               	incf	1,f
  3819                           
  3820                           ;PIC16F1827-ChargeStation5-01.c: 105: if (cut[i] >= 30 * 6) {
  3821  00AC  3556               	lslf	isr@i,w
  3822  00AD  3EAC               	addlw	(low (_cut| 0))& (0+255)
  3823  00AE  0086               	movwf	6
  3824  00AF  0187               	clrf	7
  3825  00B0  3F40               	moviw [0]fsr1
  3826  00B1  00CE               	movwf	??_isr
  3827  00B2  3F41               	moviw [1]fsr1
  3828  00B3  00CF               	movwf	??_isr+1
  3829  00B4  3000               	movlw	0
  3830  00B5  024F               	subwf	??_isr+1,w
  3831  00B6  30B4               	movlw	180
  3832  00B7  1903               	skipnz
  3833  00B8  024E               	subwf	??_isr,w
  3834  00B9  1C03               	skipc
  3835  00BA  28C9               	goto	i1l2663
  3836                           
  3837                           ;PIC16F1827-ChargeStation5-01.c: 106: cut_flag[i] = 1;
  3838  00BB  0856               	movf	isr@i,w
  3839  00BC  3EC7               	addlw	(low (_cut_flag| 0))& (0+255)
  3840  00BD  0086               	movwf	6
  3841  00BE  0187               	clrf	7
  3842  00BF  0181               	clrf	1
  3843  00C0  0A81               	incf	1,f
  3844                           
  3845                           ;PIC16F1827-ChargeStation5-01.c: 107: }
  3846                           ;PIC16F1827-ChargeStation5-01.c: 108: } else {
  3847  00C1  28C9               	goto	i1l2663
  3848  00C2                     i1l2661:	
  3849                           
  3850                           ;PIC16F1827-ChargeStation5-01.c: 109: cut[i] = 0;
  3851  00C2  3556               	lslf	isr@i,w
  3852  00C3  3EAC               	addlw	(low (_cut| 0))& (0+255)
  3853  00C4  0086               	movwf	6
  3854  00C5  0187               	clrf	7
  3855  00C6  3000               	movlw	0
  3856  00C7  3FC0               	movwi [0]fsr1
  3857  00C8  3FC1               	movwi [1]fsr1
  3858  00C9                     i1l2663:	
  3859  00C9  3001               	movlw	1
  3860  00CA  00CE               	movwf	??_isr
  3861  00CB  084E               	movf	??_isr,w
  3862  00CC  07D6               	addwf	isr@i,f
  3863  00CD  3003               	movlw	3
  3864  00CE  0256               	subwf	isr@i,w
  3865  00CF  1C03               	skipc
  3866  00D0  286A               	goto	i1l2651
  3867  00D1                     i1l286:	
  3868                           
  3869                           ;PIC16F1827-ChargeStation5-01.c: 110: }
  3870                           ;PIC16F1827-ChargeStation5-01.c: 111: }
  3871                           ;PIC16F1827-ChargeStation5-01.c: 112: }
  3872                           ;PIC16F1827-ChargeStation5-01.c: 113: }
  3873                           ;PIC16F1827-ChargeStation5-01.c: 114: if (INTCONbits.TMR0IF == 1) {
  3874  00D1  1D0B               	btfss	11,2	;volatile
  3875  00D2  297E               	goto	i1l299
  3876                           
  3877                           ;PIC16F1827-ChargeStation5-01.c: 115: INTCONbits.TMR0IF = 0;
  3878  00D3  110B               	bcf	11,2	;volatile
  3879                           
  3880                           ;PIC16F1827-ChargeStation5-01.c: 116: cnt0++;
  3881  00D4  3001               	movlw	1
  3882  00D5  07A9               	addwf	_cnt0,f
  3883  00D6  3000               	movlw	0
  3884  00D7  3DAA               	addwfc	_cnt0+1,f
  3885                           
  3886                           ;PIC16F1827-ChargeStation5-01.c: 117: if (cnt0 == 400) {
  3887  00D8  3090               	movlw	144
  3888  00D9  0629               	xorwf	_cnt0,w
  3889  00DA  1D03               	skipz
  3890  00DB  28ED               	goto	i1l2679
  3891  00DC  032A               	decf	_cnt0+1,w
  3892  00DD  1D03               	btfss	3,2
  3893  00DE  28ED               	goto	i1l2679
  3894                           
  3895                           ;PIC16F1827-ChargeStation5-01.c: 118: cnt0 = 0;
  3896  00DF  01A9               	clrf	_cnt0
  3897  00E0  01AA               	clrf	_cnt0+1
  3898                           
  3899                           ;PIC16F1827-ChargeStation5-01.c: 119: lchika();
  3900  00E1  3186  26B0  3180   	fcall	_lchika
  3901                           
  3902                           ;PIC16F1827-ChargeStation5-01.c: 120: display(print_port, print_content);
  3903  00E4  0020               	movlb	0	; select bank0
  3904  00E5  082B               	movf	_print_content,w
  3905  00E6  00CE               	movwf	??_isr
  3906  00E7  084E               	movf	??_isr,w
  3907  00E8  00CA               	movwf	display@co
  3908  00E9  082C               	movf	_print_port,w
  3909  00EA  3181  21A1  3180   	fcall	_display
  3910  00ED                     i1l2679:	
  3911                           
  3912                           ;PIC16F1827-ChargeStation5-01.c: 121: }
  3913                           ;PIC16F1827-ChargeStation5-01.c: 122: cnt1s++;
  3914  00ED  3001               	movlw	1
  3915  00EE  0021               	movlb	1	; select bank1
  3916  00EF  07CA               	addwf	_cnt1s^(0+128),f
  3917  00F0  3000               	movlw	0
  3918  00F1  3DCB               	addwfc	(_cnt1s+1)^(0+128),f
  3919                           
  3920                           ;PIC16F1827-ChargeStation5-01.c: 123: if (cnt1s == 1953) {
  3921  00F2  30A1               	movlw	161
  3922  00F3  064A               	xorwf	_cnt1s^(0+128),w
  3923  00F4  3007               	movlw	7
  3924  00F5  1903               	skipnz
  3925  00F6  064B               	xorwf	(_cnt1s+1)^(0+128),w
  3926  00F7  1D03               	btfss	3,2
  3927  00F8  297E               	goto	i1l299
  3928                           
  3929                           ;PIC16F1827-ChargeStation5-01.c: 124: cnt1s = 0;
  3930  00F9  01CA               	clrf	_cnt1s^(0+128)
  3931  00FA  01CB               	clrf	(_cnt1s+1)^(0+128)
  3932                           
  3933                           ;PIC16F1827-ChargeStation5-01.c: 125: for (i = 0; i < 3; i++) {
  3934  00FB  0020               	movlb	0	; select bank0
  3935  00FC  01D6               	clrf	isr@i
  3936  00FD  3003               	movlw	3
  3937  00FE  0256               	subwf	isr@i,w
  3938  00FF  1803               	btfsc	3,0
  3939  0100  297E               	goto	i1l299
  3940  0101                     i1l2689:	
  3941                           
  3942                           ;PIC16F1827-ChargeStation5-01.c: 126: ss[i] += v[i];
  3943  0101  3556               	lslf	isr@i,w
  3944  0102  3EB8               	addlw	(low (_v| 0))& (0+255)
  3945  0103  0086               	movwf	6
  3946  0104  0187               	clrf	7
  3947  0105  3F40               	moviw [0]fsr1
  3948  0106  00CE               	movwf	??_isr
  3949  0107  3F41               	moviw [1]fsr1
  3950  0108  00CF               	movwf	??_isr+1
  3951  0109  084E               	movf	??_isr,w
  3952  010A  00D0               	movwf	??_isr+2
  3953  010B  084F               	movf	??_isr+1,w
  3954  010C  00D1               	movwf	??_isr+3
  3955  010D  01D2               	clrf	??_isr+4
  3956  010E  01D3               	clrf	??_isr+5
  3957  010F  0856               	movf	isr@i,w
  3958  0110  00D4               	movwf	??_isr+6
  3959  0111  3001               	movlw	1
  3960  0112                     u286_25:	
  3961  0112  35D4               	lslf	??_isr+6,f
  3962  0113  3EFF               	addlw	-1
  3963  0114  1D03               	skipz
  3964  0115  2912               	goto	u286_25
  3965  0116  3554               	lslf	??_isr+6,w
  3966  0117  3EA0               	addlw	(low (_ss| 0))& (0+255)
  3967  0118  0086               	movwf	6
  3968  0119  0187               	clrf	7
  3969  011A  0850               	movf	??_isr+2,w
  3970  011B  0781               	addwf	1,f
  3971  011C  3141               	addfsr 1,1
  3972  011D  0851               	movf	??_isr+3,w
  3973  011E  3D81               	addwfc	1,f
  3974  011F  3141               	addfsr 1,1
  3975  0120  0852               	movf	??_isr+4,w
  3976  0121  3D81               	addwfc	1,f
  3977  0122  3141               	addfsr 1,1
  3978  0123  0853               	movf	??_isr+5,w
  3979  0124  3D81               	addwfc	1,f
  3980                           
  3981                           ;PIC16F1827-ChargeStation5-01.c: 127: s[i] = ss[i] / 3600;
  3982  0125  3000               	movlw	0
  3983  0126  00F3               	movwf	___lldiv@divisor+3
  3984  0127  3000               	movlw	0
  3985  0128  00F2               	movwf	___lldiv@divisor+2
  3986  0129  300E               	movlw	14
  3987  012A  00F1               	movwf	___lldiv@divisor+1
  3988  012B  3010               	movlw	16
  3989  012C  00F0               	movwf	___lldiv@divisor
  3990  012D  0856               	movf	isr@i,w
  3991  012E  00CE               	movwf	??_isr
  3992  012F  3001               	movlw	1
  3993  0130                     u287_25:	
  3994  0130  35CE               	lslf	??_isr,f
  3995  0131  3EFF               	addlw	-1
  3996  0132  1D03               	skipz
  3997  0133  2930               	goto	u287_25
  3998  0134  354E               	lslf	??_isr,w
  3999  0135  3EA0               	addlw	(low (_ss| 0))& (0+255)
  4000  0136  0086               	movwf	6
  4001  0137  0187               	clrf	7
  4002  0138  3F40               	moviw [0]fsr1
  4003  0139  00F4               	movwf	___lldiv@dividend
  4004  013A  3F41               	moviw [1]fsr1
  4005  013B  00F5               	movwf	___lldiv@dividend+1
  4006  013C  3F42               	moviw [2]fsr1
  4007  013D  00F6               	movwf	___lldiv@dividend+2
  4008  013E  3F43               	moviw [3]fsr1
  4009  013F  00F7               	movwf	___lldiv@dividend+3
  4010  0140  318F  27AE  3180   	fcall	___lldiv
  4011  0143  0020               	movlb	0	; select bank0
  4012  0144  3556               	lslf	isr@i,w
  4013  0145  3E20               	addlw	(low (_s| 0))& (0+255)
  4014  0146  0086               	movwf	6
  4015  0147  0187               	clrf	7
  4016  0148  0870               	movf	?___lldiv,w
  4017  0149  3FC0               	movwi [0]fsr1
  4018  014A  0871               	movf	?___lldiv+1,w
  4019  014B  3FC1               	movwi [1]fsr1
  4020                           
  4021                           ;PIC16F1827-ChargeStation5-01.c: 128: if (s[i] != sp[i]) {
  4022  014C  3556               	lslf	isr@i,w
  4023  014D  3EB2               	addlw	(low (_sp| 0))& (0+255)
  4024  014E  0086               	movwf	6
  4025  014F  0187               	clrf	7
  4026  0150  3F40               	moviw [0]fsr1
  4027  0151  00CE               	movwf	??_isr
  4028  0152  3F41               	moviw [1]fsr1
  4029  0153  00CF               	movwf	??_isr+1
  4030  0154  3556               	lslf	isr@i,w
  4031  0155  3E20               	addlw	(low (_s| 0))& (0+255)
  4032  0156  0086               	movwf	6
  4033  0157  0187               	clrf	7
  4034  0158  3F40               	moviw [0]fsr1
  4035  0159  00D0               	movwf	??_isr+2
  4036  015A  3F41               	moviw [1]fsr1
  4037  015B  00D1               	movwf	??_isr+3
  4038  015C  084F               	movf	??_isr+1,w
  4039  015D  0651               	xorwf	??_isr+3,w
  4040  015E  1D03               	skipz
  4041  015F  2962               	goto	u288_25
  4042  0160  084E               	movf	??_isr,w
  4043  0161  0650               	xorwf	??_isr+2,w
  4044  0162                     u288_25:	
  4045  0162  1903               	skipnz
  4046  0163  2976               	goto	i1l2699
  4047                           
  4048                           ;PIC16F1827-ChargeStation5-01.c: 129: change_flag[i] = 1;
  4049  0164  0856               	movf	isr@i,w
  4050  0165  3EBE               	addlw	(low (_change_flag| 0))& (0+255)
  4051  0166  0086               	movwf	6
  4052  0167  0187               	clrf	7
  4053  0168  0181               	clrf	1
  4054  0169  0A81               	incf	1,f
  4055                           
  4056                           ;PIC16F1827-ChargeStation5-01.c: 130: sp[i] = s[i];
  4057  016A  3556               	lslf	isr@i,w
  4058  016B  3E20               	addlw	(low (_s| 0))& (0+255)
  4059  016C  0086               	movwf	6
  4060  016D  0187               	clrf	7
  4061  016E  3556               	lslf	isr@i,w
  4062  016F  3EB2               	addlw	(low (_sp| 0))& (0+255)
  4063  0170  0084               	movwf	4
  4064  0171  0185               	clrf	5
  4065  0172  3F40               	moviw [0]fsr1
  4066  0173  3F80               	movwi [0]fsr0
  4067  0174  3F41               	moviw [1]fsr1
  4068  0175  3F81               	movwi [1]fsr0
  4069  0176                     i1l2699:	
  4070  0176  3001               	movlw	1
  4071  0177  00CE               	movwf	??_isr
  4072  0178  084E               	movf	??_isr,w
  4073  0179  07D6               	addwf	isr@i,f
  4074  017A  3003               	movlw	3
  4075  017B  0256               	subwf	isr@i,w
  4076  017C  1C03               	skipc
  4077  017D  2901               	goto	i1l2689
  4078  017E                     i1l299:	
  4079  017E  0020               	movlb	0	; select bank0
  4080  017F  0855               	movf	??_isr+7,w
  4081  0180  00FF               	movwf	127
  4082  0181  107E               	bcf	126,0	;clear compiler interrupt flag (level 1)
  4083  0182  0009               	retfie
  4084  0183                     __end_of_isr:	
  4085                           
  4086                           	psect	text23
  4087  0DF1                     __ptext23:	
  4088 ;; *************** function _ringbuf_pop *****************
  4089 ;; Defined at:
  4090 ;;		line 128 in file "PIC16F1827-ChargeStation5-01.h"
  4091 ;; Parameters:    Size  Location     Type
  4092 ;;  rb              1    wreg     PTR struct ringbuf
  4093 ;;		 -> tx_buf(5), 
  4094 ;; Auto vars:     Size  Location     Type
  4095 ;;  rb              1    3[COMMON] PTR struct ringbuf
  4096 ;;		 -> tx_buf(5), 
  4097 ;;  ret             1    2[COMMON] unsigned char 
  4098 ;; Return value:  Size  Location     Type
  4099 ;;                  1    wreg      unsigned char 
  4100 ;; Registers used:
  4101 ;;		wreg, fsr0l, fsr0h, fsr1l, fsr1h, status,2, status,0
  4102 ;; Tracked objects:
  4103 ;;		On entry : 0/0
  4104 ;;		On exit  : 0/0
  4105 ;;		Unchanged: 0/0
  4106 ;; Data sizes:     COMMON   BANK0   BANK1   BANK2   BANK3   BANK4
  4107 ;;      Params:         0       0       0       0       0       0
  4108 ;;      Locals:         2       0       0       0       0       0
  4109 ;;      Temps:          2       0       0       0       0       0
  4110 ;;      Totals:         4       0       0       0       0       0
  4111 ;;Total ram usage:        4 bytes
  4112 ;; Hardware stack levels used:    1
  4113 ;; This function calls:
  4114 ;;		Nothing
  4115 ;; This function is called by:
  4116 ;;		_isr
  4117 ;; This function uses a non-reentrant model
  4118 ;;
  4119                           
  4120                           
  4121                           ;psect for function _ringbuf_pop
  4122  0DF1                     _ringbuf_pop:	
  4123                           
  4124                           ;incstack = 0
  4125                           ; Regs used in _ringbuf_pop: [wreg-fsr1h+status,2+status,0]
  4126                           ;ringbuf_pop@rb stored from wreg
  4127  0DF1  00F3               	movwf	ringbuf_pop@rb
  4128                           
  4129                           ;PIC16F1827-ChargeStation5-01.h: 129: uint8_t ret = rb->buf[rb->tail];
  4130  0DF2  0873               	movf	ringbuf_pop@rb,w
  4131  0DF3  0086               	movwf	6
  4132  0DF4  0187               	clrf	7
  4133  0DF5  0873               	movf	ringbuf_pop@rb,w
  4134  0DF6  3E04               	addlw	4
  4135  0DF7  0084               	movwf	4
  4136  0DF8  0185               	clrf	5
  4137  0DF9  0800               	movf	0,w
  4138  0DFA  0701               	addwf	1,w
  4139  0DFB  00F0               	movwf	??_ringbuf_pop
  4140  0DFC  0870               	movf	??_ringbuf_pop,w
  4141  0DFD  0086               	movwf	6
  4142  0DFE  0187               	clrf	7
  4143  0DFF  0801               	movf	1,w
  4144  0E00  00F1               	movwf	??_ringbuf_pop+1
  4145  0E01  0871               	movf	??_ringbuf_pop+1,w
  4146  0E02  00F2               	movwf	ringbuf_pop@ret
  4147                           
  4148                           ;PIC16F1827-ChargeStation5-01.h: 130: rb->tail++;
  4149  0E03  3001               	movlw	1
  4150  0E04  00F0               	movwf	??_ringbuf_pop
  4151  0E05  0873               	movf	ringbuf_pop@rb,w
  4152  0E06  3E04               	addlw	4
  4153  0E07  0086               	movwf	6
  4154  0E08  0187               	clrf	7
  4155  0E09  0870               	movf	??_ringbuf_pop,w
  4156  0E0A  0781               	addwf	1,f
  4157                           
  4158                           ;PIC16F1827-ChargeStation5-01.h: 131: if (rb->tail >= rb->size) {
  4159  0E0B  0873               	movf	ringbuf_pop@rb,w
  4160  0E0C  3E04               	addlw	4
  4161  0E0D  0086               	movwf	6
  4162  0E0E  0187               	clrf	7
  4163  0E0F  0873               	movf	ringbuf_pop@rb,w
  4164  0E10  3E02               	addlw	2
  4165  0E11  0084               	movwf	4
  4166  0E12  0185               	clrf	5
  4167  0E13  0800               	movf	0,w
  4168  0E14  0201               	subwf	1,w
  4169  0E15  1C03               	skipc
  4170  0E16  2E1C               	goto	i1l2295
  4171                           
  4172                           ;PIC16F1827-ChargeStation5-01.h: 132: rb->tail = 0;
  4173  0E17  0873               	movf	ringbuf_pop@rb,w
  4174  0E18  3E04               	addlw	4
  4175  0E19  0086               	movwf	6
  4176  0E1A  0187               	clrf	7
  4177  0E1B  0181               	clrf	1
  4178  0E1C                     i1l2295:	
  4179                           
  4180                           ;PIC16F1827-ChargeStation5-01.h: 133: }
  4181                           ;PIC16F1827-ChargeStation5-01.h: 134: return ret;
  4182  0E1C  0872               	movf	ringbuf_pop@ret,w
  4183  0E1D  0008               	return
  4184  0E1E                     __end_of_ringbuf_pop:	
  4185                           
  4186                           	psect	text24
  4187  0DC5                     __ptext24:	
  4188 ;; *************** function _ringbuf_num *****************
  4189 ;; Defined at:
  4190 ;;		line 137 in file "PIC16F1827-ChargeStation5-01.h"
  4191 ;; Parameters:    Size  Location     Type
  4192 ;;  rb              1    wreg     PTR struct ringbuf
  4193 ;;		 -> tx_buf(5), 
  4194 ;; Auto vars:     Size  Location     Type
  4195 ;;  rb              1    1[COMMON] PTR struct ringbuf
  4196 ;;		 -> tx_buf(5), 
  4197 ;; Return value:  Size  Location     Type
  4198 ;;                  1    wreg      unsigned char 
  4199 ;; Registers used:
  4200 ;;		wreg, fsr0l, fsr0h, fsr1l, fsr1h, status,2, status,0
  4201 ;; Tracked objects:
  4202 ;;		On entry : 0/0
  4203 ;;		On exit  : 0/0
  4204 ;;		Unchanged: 0/0
  4205 ;; Data sizes:     COMMON   BANK0   BANK1   BANK2   BANK3   BANK4
  4206 ;;      Params:         0       0       0       0       0       0
  4207 ;;      Locals:         1       0       0       0       0       0
  4208 ;;      Temps:          1       0       0       0       0       0
  4209 ;;      Totals:         2       0       0       0       0       0
  4210 ;;Total ram usage:        2 bytes
  4211 ;; Hardware stack levels used:    1
  4212 ;; This function calls:
  4213 ;;		Nothing
  4214 ;; This function is called by:
  4215 ;;		_isr
  4216 ;; This function uses a non-reentrant model
  4217 ;;
  4218                           
  4219                           
  4220                           ;psect for function _ringbuf_num
  4221  0DC5                     _ringbuf_num:	
  4222                           
  4223                           ;incstack = 0
  4224                           ; Regs used in _ringbuf_num: [wreg-fsr1h+status,2+status,0]
  4225                           ;ringbuf_num@rb stored from wreg
  4226  0DC5  00F1               	movwf	ringbuf_num@rb
  4227                           
  4228                           ;PIC16F1827-ChargeStation5-01.h: 138: if (rb->head >= rb->tail) {
  4229  0DC6  0871               	movf	ringbuf_num@rb,w
  4230  0DC7  3E03               	addlw	3
  4231  0DC8  0086               	movwf	6
  4232  0DC9  0187               	clrf	7
  4233  0DCA  0871               	movf	ringbuf_num@rb,w
  4234  0DCB  3E04               	addlw	4
  4235  0DCC  0084               	movwf	4
  4236  0DCD  0185               	clrf	5
  4237  0DCE  0800               	movf	0,w
  4238  0DCF  0201               	subwf	1,w
  4239  0DD0  1C03               	skipc
  4240  0DD1  2DDE               	goto	i1l2307
  4241                           
  4242                           ;PIC16F1827-ChargeStation5-01.h: 139: return (rb->head - rb->tail);
  4243  0DD2  0871               	movf	ringbuf_num@rb,w
  4244  0DD3  3E03               	addlw	3
  4245  0DD4  0086               	movwf	6
  4246  0DD5  0187               	clrf	7
  4247  0DD6  0871               	movf	ringbuf_num@rb,w
  4248  0DD7  3E04               	addlw	4
  4249  0DD8  0084               	movwf	4
  4250  0DD9  0185               	clrf	5
  4251  0DDA  0300               	decf	0,w
  4252  0DDB  3AFF               	xorlw	255
  4253  0DDC  0701               	addwf	1,w
  4254                           
  4255                           ;PIC16F1827-ChargeStation5-01.h: 140: } else {
  4256  0DDD  0008               	return
  4257  0DDE                     i1l2307:	
  4258                           
  4259                           ;PIC16F1827-ChargeStation5-01.h: 141: return (rb->size + rb->head - rb->tail);
  4260  0DDE  0871               	movf	ringbuf_num@rb,w
  4261  0DDF  3E03               	addlw	3
  4262  0DE0  0086               	movwf	6
  4263  0DE1  0187               	clrf	7
  4264  0DE2  0871               	movf	ringbuf_num@rb,w
  4265  0DE3  3E02               	addlw	2
  4266  0DE4  0084               	movwf	4
  4267  0DE5  0185               	clrf	5
  4268  0DE6  0800               	movf	0,w
  4269  0DE7  00F0               	movwf	??_ringbuf_num
  4270  0DE8  0871               	movf	ringbuf_num@rb,w
  4271  0DE9  3E04               	addlw	4
  4272  0DEA  0084               	movwf	4
  4273  0DEB  0185               	clrf	5
  4274  0DEC  0300               	decf	0,w
  4275  0DED  3AFF               	xorlw	255
  4276  0DEE  0770               	addwf	??_ringbuf_num,w
  4277  0DEF  0701               	addwf	1,w
  4278  0DF0  0008               	return
  4279  0DF1                     __end_of_ringbuf_num:	
  4280                           
  4281                           	psect	text25
  4282  06B0                     __ptext25:	
  4283 ;; *************** function _lchika *****************
  4284 ;; Defined at:
  4285 ;;		line 137 in file "PIC16F1827-ChargeStation5-01.c"
  4286 ;; Parameters:    Size  Location     Type
  4287 ;;		None
  4288 ;; Auto vars:     Size  Location     Type
  4289 ;;  i               1    4[BANK0 ] unsigned char 
  4290 ;; Return value:  Size  Location     Type
  4291 ;;		None               void
  4292 ;; Registers used:
  4293 ;;		wreg, fsr0l, fsr0h, fsr1l, fsr1h, status,2, status,0, pclath, cstack
  4294 ;; Tracked objects:
  4295 ;;		On entry : 0/0
  4296 ;;		On exit  : 0/0
  4297 ;;		Unchanged: 0/0
  4298 ;; Data sizes:     COMMON   BANK0   BANK1   BANK2   BANK3   BANK4
  4299 ;;      Params:         0       0       0       0       0       0
  4300 ;;      Locals:         0       1       0       0       0       0
  4301 ;;      Temps:          0       4       0       0       0       0
  4302 ;;      Totals:         0       5       0       0       0       0
  4303 ;;Total ram usage:        5 bytes
  4304 ;; Hardware stack levels used:    1
  4305 ;; Hardware stack levels required when called:    1
  4306 ;; This function calls:
  4307 ;;		___awdiv
  4308 ;;		___lwdiv
  4309 ;;		i1_LED
  4310 ;; This function is called by:
  4311 ;;		_isr
  4312 ;; This function uses a non-reentrant model
  4313 ;;
  4314                           
  4315                           
  4316                           ;psect for function _lchika
  4317  06B0                     _lchika:	
  4318                           
  4319                           ;PIC16F1827-ChargeStation5-01.c: 138: uint8_t i;
  4320                           ;PIC16F1827-ChargeStation5-01.c: 139: for (i = 0; i < 3; i++) {
  4321                           
  4322                           ;incstack = 0
  4323                           ; Regs used in _lchika: [wreg-fsr1h+status,2+status,0+pclath+cstack]
  4324  06B0  0020               	movlb	0	; select bank0
  4325  06B1  01C0               	clrf	lchika@i
  4326  06B2                     L3:	
  4327  06B2  3003               	movlw	3
  4328  06B3  0240               	subwf	lchika@i,w
  4329  06B4  1803               	btfsc	3,0
  4330  06B5  0008               	return
  4331                           
  4332                           ;PIC16F1827-ChargeStation5-01.c: 140: cnt[i]++;
  4333  06B6  3001               	movlw	1
  4334  06B7  00BC               	movwf	??_lchika
  4335  06B8  0840               	movf	lchika@i,w
  4336  06B9  3EC1               	addlw	(low (_cnt| 0))& (0+255)
  4337  06BA  0086               	movwf	6
  4338  06BB  0187               	clrf	7
  4339  06BC  083C               	movf	??_lchika,w
  4340  06BD  0781               	addwf	1,f
  4341                           
  4342                           ;PIC16F1827-ChargeStation5-01.c: 142: if (cnt[i] % 2 == 1) {
  4343  06BE  0840               	movf	lchika@i,w
  4344  06BF  3EC1               	addlw	(low (_cnt| 0))& (0+255)
  4345  06C0  0086               	movwf	6
  4346  06C1  0187               	clrf	7
  4347  06C2  1C01               	btfss	1,0
  4348  06C3  2ECA               	goto	i1l2345
  4349                           
  4350                           ;PIC16F1827-ChargeStation5-01.c: 143: LED(i, 0);
  4351  06C4  01F0               	clrf	i1LED@value
  4352  06C5  0840               	movf	lchika@i,w
  4353  06C6  318D  2521  3186   	fcall	i1_LED
  4354                           
  4355                           ;PIC16F1827-ChargeStation5-01.c: 144: } else {
  4356  06C9  2F1F               	goto	i1l2359
  4357  06CA                     i1l2345:	
  4358                           
  4359                           ;PIC16F1827-ChargeStation5-01.c: 145: if (cnt[i] / 2 <= v[i] / 100) {
  4360  06CA  3064               	movlw	100
  4361  06CB  00F6               	movwf	___lwdiv@divisor
  4362  06CC  3000               	movlw	0
  4363  06CD  00F7               	movwf	___lwdiv@divisor+1
  4364  06CE  0020               	movlb	0	; select bank0
  4365  06CF  3540               	lslf	lchika@i,w
  4366  06D0  3EB8               	addlw	(low (_v| 0))& (0+255)
  4367  06D1  0086               	movwf	6
  4368  06D2  0187               	clrf	7
  4369  06D3  3F40               	moviw [0]fsr1
  4370  06D4  00F8               	movwf	___lwdiv@dividend
  4371  06D5  3F41               	moviw [1]fsr1
  4372  06D6  00F9               	movwf	___lwdiv@dividend+1
  4373  06D7  318E  26A9  3186   	fcall	___lwdiv
  4374  06DA  0876               	movf	?___lwdiv,w
  4375  06DB  0020               	movlb	0	; select bank0
  4376  06DC  00BC               	movwf	??_lchika
  4377  06DD  0877               	movf	?___lwdiv+1,w
  4378  06DE  00BD               	movwf	??_lchika+1
  4379  06DF  3002               	movlw	2
  4380  06E0  00F0               	movwf	___awdiv@divisor
  4381  06E1  3000               	movlw	0
  4382  06E2  00F1               	movwf	___awdiv@divisor+1
  4383  06E3  0840               	movf	lchika@i,w
  4384  06E4  3EC1               	addlw	(low (_cnt| 0))& (0+255)
  4385  06E5  0086               	movwf	6
  4386  06E6  0187               	clrf	7
  4387  06E7  0801               	movf	1,w
  4388  06E8  00BE               	movwf	??_lchika+2
  4389  06E9  01BF               	clrf	??_lchika+3
  4390  06EA  083E               	movf	??_lchika+2,w
  4391  06EB  00F2               	movwf	___awdiv@dividend
  4392  06EC  083F               	movf	??_lchika+3,w
  4393  06ED  00F3               	movwf	___awdiv@dividend+1
  4394  06EE  318F  275D  3186   	fcall	___awdiv
  4395  06F1  0871               	movf	?___awdiv+1,w
  4396  06F2  0020               	movlb	0	; select bank0
  4397  06F3  023D               	subwf	??_lchika+1,w
  4398  06F4  1D03               	skipz
  4399  06F5  2EF8               	goto	u238_25
  4400  06F6  0870               	movf	?___awdiv,w
  4401  06F7  023C               	subwf	??_lchika,w
  4402  06F8                     u238_25:	
  4403  06F8  1C03               	skipc
  4404  06F9  2F04               	goto	i1l2351
  4405                           
  4406                           ;PIC16F1827-ChargeStation5-01.c: 146: LED(i, 1);
  4407  06FA  01F0               	clrf	i1LED@value
  4408  06FB  0AF0               	incf	i1LED@value,f
  4409  06FC  0840               	movf	lchika@i,w
  4410  06FD  318D  2521  3186   	fcall	i1_LED
  4411                           
  4412                           ;PIC16F1827-ChargeStation5-01.c: 147: cntf[i] = 0;
  4413  0700  0020               	movlb	0	; select bank0
  4414  0701  0840               	movf	lchika@i,w
  4415  0702  3EC4               	addlw	(low (_cntf| 0))& (0+255)
  4416  0703  2F1C               	goto	L2
  4417  0704                     i1l2351:	
  4418                           ;PIC16F1827-ChargeStation5-01.c: 148: } else {
  4419                           
  4420                           
  4421                           ;PIC16F1827-ChargeStation5-01.c: 149: cntf[i]++;
  4422  0704  3001               	movlw	1
  4423  0705  00BC               	movwf	??_lchika
  4424  0706  0840               	movf	lchika@i,w
  4425  0707  3EC4               	addlw	(low (_cntf| 0))& (0+255)
  4426  0708  0086               	movwf	6
  4427  0709  0187               	clrf	7
  4428  070A  083C               	movf	??_lchika,w
  4429  070B  0781               	addwf	1,f
  4430                           
  4431                           ;PIC16F1827-ChargeStation5-01.c: 150: LED(i, 0);
  4432  070C  01F0               	clrf	i1LED@value
  4433  070D  0840               	movf	lchika@i,w
  4434  070E  318D  2521  3186   	fcall	i1_LED
  4435                           
  4436                           ;PIC16F1827-ChargeStation5-01.c: 151: if (cntf[i] >= 2) {
  4437  0711  0020               	movlb	0	; select bank0
  4438  0712  0840               	movf	lchika@i,w
  4439  0713  3EC4               	addlw	(low (_cntf| 0))& (0+255)
  4440  0714  0086               	movwf	6
  4441  0715  0187               	clrf	7
  4442  0716  3002               	movlw	2
  4443  0717  0201               	subwf	1,w
  4444  0718  1C03               	skipc
  4445  0719  2F1F               	goto	i1l2359
  4446                           
  4447                           ;PIC16F1827-ChargeStation5-01.c: 152: cnt[i] = 0;
  4448  071A  0840               	movf	lchika@i,w
  4449  071B  3EC1               	addlw	(low (_cnt| 0))& (0+255)
  4450  071C                     L2:	
  4451  071C  0086               	movwf	6
  4452  071D  0187               	clrf	7
  4453  071E  0181               	clrf	1
  4454  071F                     i1l2359:	
  4455  071F  3001               	movlw	1
  4456  0720  0020               	movlb	0	; select bank0
  4457  0721  00BC               	movwf	??_lchika
  4458  0722  083C               	movf	??_lchika,w
  4459  0723  07C0               	addwf	lchika@i,f
  4460  0724  2EB2               	goto	L3
  4461  0725                     __end_of_lchika:	
  4462                           
  4463                           	psect	text26
  4464  0D21                     __ptext26:	
  4465 ;; *************** function i1_LED *****************
  4466 ;; Defined at:
  4467 ;;		line 254 in file "PIC16F1827-ChargeStation5-01.c"
  4468 ;; Parameters:    Size  Location     Type
  4469 ;;  b               1    wreg     unsigned char 
  4470 ;;  value           1    0[COMMON] unsigned char 
  4471 ;; Auto vars:     Size  Location     Type
  4472 ;;  b               1    1[COMMON] unsigned char 
  4473 ;; Return value:  Size  Location     Type
  4474 ;;		None               void
  4475 ;; Registers used:
  4476 ;;		wreg, fsr0l, fsr0h, status,2, status,0
  4477 ;; Tracked objects:
  4478 ;;		On entry : 0/0
  4479 ;;		On exit  : 0/0
  4480 ;;		Unchanged: 0/0
  4481 ;; Data sizes:     COMMON   BANK0   BANK1   BANK2   BANK3   BANK4
  4482 ;;      Params:         1       0       0       0       0       0
  4483 ;;      Locals:         1       0       0       0       0       0
  4484 ;;      Temps:          0       0       0       0       0       0
  4485 ;;      Totals:         2       0       0       0       0       0
  4486 ;;Total ram usage:        2 bytes
  4487 ;; Hardware stack levels used:    1
  4488 ;; This function calls:
  4489 ;;		Nothing
  4490 ;; This function is called by:
  4491 ;;		_lchika
  4492 ;; This function uses a non-reentrant model
  4493 ;;
  4494                           
  4495                           
  4496                           ;psect for function i1_LED
  4497  0D21                     i1_LED:	
  4498                           
  4499                           ;incstack = 0
  4500                           ; Regs used in i1_LED: [wreg-fsr0h+status,2+status,0]
  4501                           ;i1LED@b stored from wreg
  4502  0D21  00F1               	movwf	i1LED@b
  4503                           
  4504                           ;PIC16F1827-ChargeStation5-01.c: 255: switch (b) {
  4505  0D22  2D3B               	goto	i1l2239
  4506  0D23                     i1l350:	
  4507                           ;PIC16F1827-ChargeStation5-01.c: 256: case 0:
  4508                           
  4509                           
  4510                           ;PIC16F1827-ChargeStation5-01.c: 257: LATA3 = value;
  4511  0D23  1C70               	btfss	i1LED@value,0
  4512  0D24  2D28               	goto	u214_20
  4513  0D25  0022               	movlb	2	; select bank2
  4514  0D26  158C               	bsf	12,3	;volatile
  4515  0D27  0008               	return
  4516  0D28                     u214_20:	
  4517  0D28  0022               	movlb	2	; select bank2
  4518  0D29  118C               	bcf	12,3	;volatile
  4519                           
  4520                           ;PIC16F1827-ChargeStation5-01.c: 258: break;
  4521  0D2A  0008               	return
  4522  0D2B                     i1l352:	
  4523                           ;PIC16F1827-ChargeStation5-01.c: 259: case 1:
  4524                           
  4525                           
  4526                           ;PIC16F1827-ChargeStation5-01.c: 260: LATA6 = value;
  4527  0D2B  1C70               	btfss	i1LED@value,0
  4528  0D2C  2D30               	goto	u216_20
  4529  0D2D  0022               	movlb	2	; select bank2
  4530  0D2E  170C               	bsf	12,6	;volatile
  4531  0D2F  0008               	return
  4532  0D30                     u216_20:	
  4533  0D30  0022               	movlb	2	; select bank2
  4534  0D31  130C               	bcf	12,6	;volatile
  4535                           
  4536                           ;PIC16F1827-ChargeStation5-01.c: 261: break;
  4537  0D32  0008               	return
  4538  0D33                     i1l353:	
  4539                           ;PIC16F1827-ChargeStation5-01.c: 262: case 2:
  4540                           
  4541                           
  4542                           ;PIC16F1827-ChargeStation5-01.c: 263: LATA7 = value;
  4543  0D33  1C70               	btfss	i1LED@value,0
  4544  0D34  2D38               	goto	u218_20
  4545  0D35  0022               	movlb	2	; select bank2
  4546  0D36  178C               	bsf	12,7	;volatile
  4547  0D37  0008               	return
  4548  0D38                     u218_20:	
  4549  0D38  0022               	movlb	2	; select bank2
  4550  0D39  138C               	bcf	12,7	;volatile
  4551                           
  4552                           ;PIC16F1827-ChargeStation5-01.c: 267: }
  4553                           
  4554                           ;PIC16F1827-ChargeStation5-01.c: 266: break;
  4555                           
  4556                           ;PIC16F1827-ChargeStation5-01.c: 265: default:
  4557                           
  4558                           ;PIC16F1827-ChargeStation5-01.c: 264: break;
  4559  0D3A  0008               	return
  4560  0D3B                     i1l2239:	
  4561  0D3B  0871               	movf	i1LED@b,w
  4562                           
  4563                           ; Switch size 1, requested type "space"
  4564                           ; Number of cases is 3, Range of values is 0 to 2
  4565                           ; switch strategies available:
  4566                           ; Name         Instructions Cycles
  4567                           ; simple_byte           10     6 (average)
  4568                           ; direct_byte           12     6 (fixed)
  4569                           ; jumptable            260     6 (fixed)
  4570                           ;	Chosen strategy is simple_byte
  4571  0D3C  3A00               	xorlw	0	; case 0
  4572  0D3D  1903               	skipnz
  4573  0D3E  2D23               	goto	i1l350
  4574  0D3F  3A01               	xorlw	1	; case 1
  4575  0D40  1903               	skipnz
  4576  0D41  2D2B               	goto	i1l352
  4577  0D42  3A03               	xorlw	3	; case 2
  4578  0D43  1903               	skipnz
  4579  0D44  2D33               	goto	i1l353
  4580  0D45  2D46               	goto	i1l355
  4581  0D46                     i1l355:	
  4582  0D46  0008               	return
  4583  0D47                     __end_ofi1_LED:	
  4584                           
  4585                           	psect	text27
  4586  0F5D                     __ptext27:	
  4587 ;; *************** function ___awdiv *****************
  4588 ;; Defined at:
  4589 ;;		line 6 in file "C:\Program Files (x86)\Microchip\xc8\v1.35\sources\common\awdiv.c"
  4590 ;; Parameters:    Size  Location     Type
  4591 ;;  divisor         2    0[COMMON] int 
  4592 ;;  dividend        2    2[COMMON] int 
  4593 ;; Auto vars:     Size  Location     Type
  4594 ;;  quotient        2    7[COMMON] int 
  4595 ;;  sign            1    6[COMMON] unsigned char 
  4596 ;;  counter         1    5[COMMON] unsigned char 
  4597 ;; Return value:  Size  Location     Type
  4598 ;;                  2    0[COMMON] int 
  4599 ;; Registers used:
  4600 ;;		wreg, status,2, status,0
  4601 ;; Tracked objects:
  4602 ;;		On entry : 0/0
  4603 ;;		On exit  : 0/0
  4604 ;;		Unchanged: 0/0
  4605 ;; Data sizes:     COMMON   BANK0   BANK1   BANK2   BANK3   BANK4
  4606 ;;      Params:         4       0       0       0       0       0
  4607 ;;      Locals:         4       0       0       0       0       0
  4608 ;;      Temps:          1       0       0       0       0       0
  4609 ;;      Totals:         9       0       0       0       0       0
  4610 ;;Total ram usage:        9 bytes
  4611 ;; Hardware stack levels used:    1
  4612 ;; This function calls:
  4613 ;;		Nothing
  4614 ;; This function is called by:
  4615 ;;		_lchika
  4616 ;; This function uses a non-reentrant model
  4617 ;;
  4618                           
  4619                           
  4620                           ;psect for function ___awdiv
  4621  0F5D                     ___awdiv:	
  4622                           
  4623                           ;incstack = 0
  4624                           ; Regs used in ___awdiv: [wreg+status,2+status,0]
  4625  0F5D  01F6               	clrf	___awdiv@sign
  4626  0F5E  1FF1               	btfss	___awdiv@divisor+1,7
  4627  0F5F  2F67               	goto	i1l2147
  4628  0F60  09F0               	comf	___awdiv@divisor,f
  4629  0F61  09F1               	comf	___awdiv@divisor+1,f
  4630  0F62  0AF0               	incf	___awdiv@divisor,f
  4631  0F63  1903               	skipnz
  4632  0F64  0AF1               	incf	___awdiv@divisor+1,f
  4633  0F65  01F6               	clrf	___awdiv@sign
  4634  0F66  0AF6               	incf	___awdiv@sign,f
  4635  0F67                     i1l2147:	
  4636  0F67  1FF3               	btfss	___awdiv@dividend+1,7
  4637  0F68  2F72               	goto	i1l2153
  4638  0F69  09F2               	comf	___awdiv@dividend,f
  4639  0F6A  09F3               	comf	___awdiv@dividend+1,f
  4640  0F6B  0AF2               	incf	___awdiv@dividend,f
  4641  0F6C  1903               	skipnz
  4642  0F6D  0AF3               	incf	___awdiv@dividend+1,f
  4643  0F6E  3001               	movlw	1
  4644  0F6F  00F4               	movwf	??___awdiv
  4645  0F70  0874               	movf	??___awdiv,w
  4646  0F71  06F6               	xorwf	___awdiv@sign,f
  4647  0F72                     i1l2153:	
  4648  0F72  01F7               	clrf	___awdiv@quotient
  4649  0F73  01F8               	clrf	___awdiv@quotient+1
  4650  0F74  0870               	movf	___awdiv@divisor,w
  4651  0F75  0471               	iorwf	___awdiv@divisor+1,w
  4652  0F76  1903               	btfsc	3,2
  4653  0F77  2FA1               	goto	i1l2175
  4654  0F78  01F5               	clrf	___awdiv@counter
  4655  0F79  0AF5               	incf	___awdiv@counter,f
  4656  0F7A                     i1l2163:	
  4657  0F7A  1BF1               	btfsc	___awdiv@divisor+1,7
  4658  0F7B  2F86               	goto	i1l2165
  4659  0F7C  3001               	movlw	1
  4660  0F7D                     u194_25:	
  4661  0F7D  35F0               	lslf	___awdiv@divisor,f
  4662  0F7E  0DF1               	rlf	___awdiv@divisor+1,f
  4663  0F7F  0B89               	decfsz	9,f
  4664  0F80  2F7D               	goto	u194_25
  4665  0F81  3001               	movlw	1
  4666  0F82  00F4               	movwf	??___awdiv
  4667  0F83  0874               	movf	??___awdiv,w
  4668  0F84  07F5               	addwf	___awdiv@counter,f
  4669  0F85  2F7A               	goto	i1l2163
  4670  0F86                     i1l2165:	
  4671  0F86  3001               	movlw	1
  4672  0F87                     u196_25:	
  4673  0F87  35F7               	lslf	___awdiv@quotient,f
  4674  0F88  0DF8               	rlf	___awdiv@quotient+1,f
  4675  0F89  0B89               	decfsz	9,f
  4676  0F8A  2F87               	goto	u196_25
  4677  0F8B  0871               	movf	___awdiv@divisor+1,w
  4678  0F8C  0273               	subwf	___awdiv@dividend+1,w
  4679  0F8D  1D03               	skipz
  4680  0F8E  2F91               	goto	u197_25
  4681  0F8F  0870               	movf	___awdiv@divisor,w
  4682  0F90  0272               	subwf	___awdiv@dividend,w
  4683  0F91                     u197_25:	
  4684  0F91  1C03               	skipc
  4685  0F92  2F98               	goto	i1l2171
  4686  0F93  0870               	movf	___awdiv@divisor,w
  4687  0F94  02F2               	subwf	___awdiv@dividend,f
  4688  0F95  0871               	movf	___awdiv@divisor+1,w
  4689  0F96  3BF3               	subwfb	___awdiv@dividend+1,f
  4690  0F97  1477               	bsf	___awdiv@quotient,0
  4691  0F98                     i1l2171:	
  4692  0F98  3001               	movlw	1
  4693  0F99                     u198_25:	
  4694  0F99  36F1               	lsrf	___awdiv@divisor+1,f
  4695  0F9A  0CF0               	rrf	___awdiv@divisor,f
  4696  0F9B  0B89               	decfsz	9,f
  4697  0F9C  2F99               	goto	u198_25
  4698  0F9D  3001               	movlw	1
  4699  0F9E  02F5               	subwf	___awdiv@counter,f
  4700  0F9F  1D03               	btfss	3,2
  4701  0FA0  2F86               	goto	i1l2165
  4702  0FA1                     i1l2175:	
  4703  0FA1  0876               	movf	___awdiv@sign,w
  4704  0FA2  1903               	btfsc	3,2
  4705  0FA3  2FA9               	goto	i1l2179
  4706  0FA4  09F7               	comf	___awdiv@quotient,f
  4707  0FA5  09F8               	comf	___awdiv@quotient+1,f
  4708  0FA6  0AF7               	incf	___awdiv@quotient,f
  4709  0FA7  1903               	skipnz
  4710  0FA8  0AF8               	incf	___awdiv@quotient+1,f
  4711  0FA9                     i1l2179:	
  4712  0FA9  0878               	movf	___awdiv@quotient+1,w
  4713  0FAA  00F1               	movwf	?___awdiv+1
  4714  0FAB  0877               	movf	___awdiv@quotient,w
  4715  0FAC  00F0               	movwf	?___awdiv
  4716  0FAD  0008               	return
  4717  0FAE                     __end_of___awdiv:	
  4718                           
  4719                           	psect	text28
  4720  01A1                     __ptext28:	
  4721 ;; *************** function _display *****************
  4722 ;; Defined at:
  4723 ;;		line 159 in file "PIC16F1827-ChargeStation5-01.c"
  4724 ;; Parameters:    Size  Location     Type
  4725 ;;  i               1    wreg     unsigned char 
  4726 ;;  co              1   14[BANK0 ] unsigned char 
  4727 ;; Auto vars:     Size  Location     Type
  4728 ;;  i               1   17[BANK0 ] unsigned char 
  4729 ;; Return value:  Size  Location     Type
  4730 ;;		None               void
  4731 ;; Registers used:
  4732 ;;		wreg, fsr0l, fsr0h, fsr1l, fsr1h, status,2, status,0, pclath, cstack
  4733 ;; Tracked objects:
  4734 ;;		On entry : 0/0
  4735 ;;		On exit  : 0/0
  4736 ;;		Unchanged: 0/0
  4737 ;; Data sizes:     COMMON   BANK0   BANK1   BANK2   BANK3   BANK4
  4738 ;;      Params:         0       1       0       0       0       0
  4739 ;;      Locals:         0       1       0       0       0       0
  4740 ;;      Temps:          0       2       0       0       0       0
  4741 ;;      Totals:         0       4       0       0       0       0
  4742 ;;Total ram usage:        4 bytes
  4743 ;; Hardware stack levels used:    1
  4744 ;; Hardware stack levels required when called:    4
  4745 ;; This function calls:
  4746 ;;		_LCD_Putc
  4747 ;;		_LCD_Puts
  4748 ;;		_LCD_SetCursor
  4749 ;;		___aldiv
  4750 ;;		___almod
  4751 ;;		___lwdiv
  4752 ;;		___lwmod
  4753 ;;		i1_LCD_Clear
  4754 ;; This function is called by:
  4755 ;;		_isr
  4756 ;; This function uses a non-reentrant model
  4757 ;;
  4758                           
  4759                           
  4760                           ;psect for function _display
  4761  01A1                     _display:	
  4762                           
  4763                           ;incstack = 0
  4764                           ; Regs used in _display: [wreg-fsr1h+status,2+status,0+pclath+cstack]
  4765                           ;display@i stored from wreg
  4766  01A1  0020               	movlb	0	; select bank0
  4767  01A2  00CD               	movwf	display@i
  4768                           
  4769                           ;PIC16F1827-ChargeStation5-01.c: 160: LCD_Clear();
  4770  01A3  318B  2349  3181   	fcall	i1_LCD_Clear
  4771                           
  4772                           ;PIC16F1827-ChargeStation5-01.c: 161: LCD_SetCursor(0, 0);
  4773  01A6  01F7               	clrf	LCD_SetCursor@row
  4774  01A7  3000               	movlw	0
  4775  01A8  318B  2385  3181   	fcall	_LCD_SetCursor
  4776                           
  4777                           ;PIC16F1827-ChargeStation5-01.c: 162: LCD_Puts("Charge Station 5");
  4778  01AB  3092               	movlw	low (STR_1| (0+32768))
  4779  01AC  00F4               	movwf	LCD_Puts@s
  4780  01AD  3087               	movlw	high (STR_1| (0+32768))
  4781  01AE  00F5               	movwf	LCD_Puts@s+1
  4782  01AF  318E  264B  3181   	fcall	_LCD_Puts
  4783                           
  4784                           ;PIC16F1827-ChargeStation5-01.c: 163: LCD_SetCursor(0, 1);
  4785  01B2  01F7               	clrf	LCD_SetCursor@row
  4786  01B3  0AF7               	incf	LCD_SetCursor@row,f
  4787  01B4  3000               	movlw	0
  4788  01B5  318B  2385  3181   	fcall	_LCD_SetCursor
  4789                           
  4790                           ;PIC16F1827-ChargeStation5-01.c: 164: if (auto_cut_ON[print_port]) {
  4791  01B8  0020               	movlb	0	; select bank0
  4792  01B9  082C               	movf	_print_port,w
  4793  01BA  3E26               	addlw	(low (_auto_cut_ON| 0))& (0+255)
  4794  01BB  0086               	movwf	6
  4795  01BC  0187               	clrf	7
  4796  01BD  0801               	movf	1,w
  4797  01BE  1D03               	btfss	3,2
  4798  01BF  29D9               	goto	i1l2383
  4799  01C0  29FE               	goto	i1l2393
  4800  01C1                     i1l2375:	
  4801                           ;PIC16F1827-ChargeStation5-01.c: 166: case 0:
  4802                           
  4803                           ;PIC16F1827-ChargeStation5-01.c: 165: switch (i) {
  4804                           
  4805                           
  4806                           ;PIC16F1827-ChargeStation5-01.c: 167: LCD_Puts("Right");
  4807  01C1  30DA               	movlw	low (STR_2| (0+32768))
  4808  01C2  00F4               	movwf	LCD_Puts@s
  4809  01C3  3087               	movlw	high (STR_2| (0+32768))
  4810  01C4  00F5               	movwf	LCD_Puts@s+1
  4811  01C5  318E  264B  3181   	fcall	_LCD_Puts
  4812                           
  4813                           ;PIC16F1827-ChargeStation5-01.c: 168: break;
  4814  01C8  2BAC               	goto	i1l2427
  4815  01C9                     i1l2377:	
  4816                           ;PIC16F1827-ChargeStation5-01.c: 169: case 1:
  4817                           
  4818                           
  4819                           ;PIC16F1827-ChargeStation5-01.c: 170: LCD_Puts("Center");
  4820  01C9  30CD               	movlw	low (STR_3| (0+32768))
  4821  01CA  00F4               	movwf	LCD_Puts@s
  4822  01CB  3087               	movlw	high (STR_3| (0+32768))
  4823  01CC  00F5               	movwf	LCD_Puts@s+1
  4824  01CD  318E  264B  3181   	fcall	_LCD_Puts
  4825                           
  4826                           ;PIC16F1827-ChargeStation5-01.c: 171: break;
  4827  01D0  2BAC               	goto	i1l2427
  4828  01D1                     i1l2379:	
  4829                           ;PIC16F1827-ChargeStation5-01.c: 172: case 2:
  4830                           
  4831                           
  4832                           ;PIC16F1827-ChargeStation5-01.c: 173: LCD_Puts("Left");
  4833  01D1  30E5               	movlw	low (STR_4| (0+32768))
  4834  01D2  00F4               	movwf	LCD_Puts@s
  4835  01D3  3087               	movlw	high (STR_4| (0+32768))
  4836  01D4  00F5               	movwf	LCD_Puts@s+1
  4837  01D5  318E  264B  3181   	fcall	_LCD_Puts
  4838                           
  4839                           ;PIC16F1827-ChargeStation5-01.c: 175: }
  4840                           
  4841                           ;PIC16F1827-ChargeStation5-01.c: 174: break;
  4842  01D8  2BAC               	goto	i1l2427
  4843  01D9                     i1l2383:	
  4844  01D9  0020               	movlb	0	; select bank0
  4845  01DA  084D               	movf	display@i,w
  4846                           
  4847                           ; Switch size 1, requested type "space"
  4848                           ; Number of cases is 3, Range of values is 0 to 2
  4849                           ; switch strategies available:
  4850                           ; Name         Instructions Cycles
  4851                           ; simple_byte           10     6 (average)
  4852                           ; direct_byte           12     6 (fixed)
  4853                           ; jumptable            260     6 (fixed)
  4854                           ;	Chosen strategy is simple_byte
  4855  01DB  3A00               	xorlw	0	; case 0
  4856  01DC  1903               	skipnz
  4857  01DD  29C1               	goto	i1l2375
  4858  01DE  3A01               	xorlw	1	; case 1
  4859  01DF  1903               	skipnz
  4860  01E0  29C9               	goto	i1l2377
  4861  01E1  3A03               	xorlw	3	; case 2
  4862  01E2  1903               	skipnz
  4863  01E3  29D1               	goto	i1l2379
  4864  01E4  2BAC               	goto	i1l2427
  4865                           
  4866                           ;PIC16F1827-ChargeStation5-01.c: 176: } else {
  4867  01E5  2BAC               	goto	i1l2427
  4868  01E6                     i1l2385:	
  4869                           ;PIC16F1827-ChargeStation5-01.c: 178: case 0:
  4870                           
  4871                           ;PIC16F1827-ChargeStation5-01.c: 177: switch (i) {
  4872                           
  4873                           
  4874                           ;PIC16F1827-ChargeStation5-01.c: 179: LCD_Puts("RIGHT");
  4875  01E6  30D4               	movlw	low (STR_5| (0+32768))
  4876  01E7  00F4               	movwf	LCD_Puts@s
  4877  01E8  3087               	movlw	high (STR_5| (0+32768))
  4878  01E9  00F5               	movwf	LCD_Puts@s+1
  4879  01EA  318E  264B  3181   	fcall	_LCD_Puts
  4880                           
  4881                           ;PIC16F1827-ChargeStation5-01.c: 180: break;
  4882  01ED  2BAC               	goto	i1l2427
  4883  01EE                     i1l2387:	
  4884                           ;PIC16F1827-ChargeStation5-01.c: 181: case 1:
  4885                           
  4886                           
  4887                           ;PIC16F1827-ChargeStation5-01.c: 182: LCD_Puts("CENTER");
  4888  01EE  30C6               	movlw	low (STR_6| (0+32768))
  4889  01EF  00F4               	movwf	LCD_Puts@s
  4890  01F0  3087               	movlw	high (STR_6| (0+32768))
  4891  01F1  00F5               	movwf	LCD_Puts@s+1
  4892  01F2  318E  264B  3181   	fcall	_LCD_Puts
  4893                           
  4894                           ;PIC16F1827-ChargeStation5-01.c: 183: break;
  4895  01F5  2BAC               	goto	i1l2427
  4896  01F6                     i1l2389:	
  4897                           ;PIC16F1827-ChargeStation5-01.c: 184: case 2:
  4898                           
  4899                           
  4900                           ;PIC16F1827-ChargeStation5-01.c: 185: LCD_Puts("LEFT");
  4901  01F6  30E0               	movlw	low (STR_7| (0+32768))
  4902  01F7  00F4               	movwf	LCD_Puts@s
  4903  01F8  3087               	movlw	high (STR_7| (0+32768))
  4904  01F9  00F5               	movwf	LCD_Puts@s+1
  4905  01FA  318E  264B  3181   	fcall	_LCD_Puts
  4906                           
  4907                           ;PIC16F1827-ChargeStation5-01.c: 187: }
  4908                           
  4909                           ;PIC16F1827-ChargeStation5-01.c: 186: break;
  4910  01FD  2BAC               	goto	i1l2427
  4911  01FE                     i1l2393:	
  4912  01FE  0020               	movlb	0	; select bank0
  4913  01FF  084D               	movf	display@i,w
  4914                           
  4915                           ; Switch size 1, requested type "space"
  4916                           ; Number of cases is 3, Range of values is 0 to 2
  4917                           ; switch strategies available:
  4918                           ; Name         Instructions Cycles
  4919                           ; simple_byte           10     6 (average)
  4920                           ; direct_byte           12     6 (fixed)
  4921                           ; jumptable            260     6 (fixed)
  4922                           ;	Chosen strategy is simple_byte
  4923  0200  3A00               	xorlw	0	; case 0
  4924  0201  1903               	skipnz
  4925  0202  29E6               	goto	i1l2385
  4926  0203  3A01               	xorlw	1	; case 1
  4927  0204  1903               	skipnz
  4928  0205  29EE               	goto	i1l2387
  4929  0206  3A03               	xorlw	3	; case 2
  4930  0207  1903               	skipnz
  4931  0208  29F6               	goto	i1l2389
  4932  0209  2BAC               	goto	i1l2427
  4933                           
  4934                           ;PIC16F1827-ChargeStation5-01.c: 188: }
  4935                           ;PIC16F1827-ChargeStation5-01.c: 189: switch (co) {
  4936  020A  2BAC               	goto	i1l2427
  4937  020B                     i1l2395:	
  4938                           ;PIC16F1827-ChargeStation5-01.c: 190: case 0:
  4939                           
  4940                           
  4941                           ;PIC16F1827-ChargeStation5-01.c: 191: LCD_SetCursor(8, 1);
  4942  020B  01F7               	clrf	LCD_SetCursor@row
  4943  020C  0AF7               	incf	LCD_SetCursor@row,f
  4944  020D  3008               	movlw	8
  4945  020E  318B  2385  3181   	fcall	_LCD_SetCursor
  4946                           
  4947                           ;PIC16F1827-ChargeStation5-01.c: 192: LCD_Putc((v[i] % 10000) / 1000 + '0');
  4948  0211  30E8               	movlw	232
  4949  0212  00F6               	movwf	___lwdiv@divisor
  4950  0213  3003               	movlw	3
  4951  0214  00F7               	movwf	___lwdiv@divisor+1
  4952  0215  0020               	movlb	0	; select bank0
  4953  0216  354D               	lslf	display@i,w
  4954  0217  3EB8               	addlw	(low (_v| 0))& (0+255)
  4955  0218  0086               	movwf	6
  4956  0219  0187               	clrf	7
  4957  021A  3F40               	moviw [0]fsr1
  4958  021B  00F2               	movwf	___lwmod@dividend
  4959  021C  3F41               	moviw [1]fsr1
  4960  021D  00F3               	movwf	___lwmod@dividend+1
  4961  021E  3010               	movlw	16
  4962  021F  00F0               	movwf	___lwmod@divisor
  4963  0220  3027               	movlw	39
  4964  0221  00F1               	movwf	___lwmod@divisor+1
  4965  0222  318D  2599  3181   	fcall	___lwmod
  4966  0225  0871               	movf	?___lwmod+1,w
  4967  0226  00F9               	movwf	___lwdiv@dividend+1
  4968  0227  0870               	movf	?___lwmod,w
  4969  0228  00F8               	movwf	___lwdiv@dividend
  4970  0229  318E  26A9  3181   	fcall	___lwdiv
  4971  022C  0876               	movf	?___lwdiv,w
  4972  022D  3E30               	addlw	48
  4973  022E  318C  2424  3181   	fcall	_LCD_Putc
  4974                           
  4975                           ;PIC16F1827-ChargeStation5-01.c: 193: LCD_Putc('.');
  4976  0231  302E               	movlw	46
  4977  0232  318C  2424  3181   	fcall	_LCD_Putc
  4978                           
  4979                           ;PIC16F1827-ChargeStation5-01.c: 194: LCD_Putc((v[i] % 1000) / 100 + '0');
  4980  0235  3064               	movlw	100
  4981  0236  00F6               	movwf	___lwdiv@divisor
  4982  0237  3000               	movlw	0
  4983  0238  00F7               	movwf	___lwdiv@divisor+1
  4984  0239  0020               	movlb	0	; select bank0
  4985  023A  354D               	lslf	display@i,w
  4986  023B  3EB8               	addlw	(low (_v| 0))& (0+255)
  4987  023C  0086               	movwf	6
  4988  023D  0187               	clrf	7
  4989  023E  3F40               	moviw [0]fsr1
  4990  023F  00F2               	movwf	___lwmod@dividend
  4991  0240  3F41               	moviw [1]fsr1
  4992  0241  00F3               	movwf	___lwmod@dividend+1
  4993  0242  30E8               	movlw	232
  4994  0243  00F0               	movwf	___lwmod@divisor
  4995  0244  3003               	movlw	3
  4996  0245  00F1               	movwf	___lwmod@divisor+1
  4997  0246  318D  2599  3181   	fcall	___lwmod
  4998  0249  0871               	movf	?___lwmod+1,w
  4999  024A  00F9               	movwf	___lwdiv@dividend+1
  5000  024B  0870               	movf	?___lwmod,w
  5001  024C  00F8               	movwf	___lwdiv@dividend
  5002  024D  318E  26A9  3181   	fcall	___lwdiv
  5003  0250  0876               	movf	?___lwdiv,w
  5004  0251  3E30               	addlw	48
  5005  0252  318C  2424  3181   	fcall	_LCD_Putc
  5006                           
  5007                           ;PIC16F1827-ChargeStation5-01.c: 195: LCD_Putc((v[i] % 100) / 10 + '0');
  5008  0255  300A               	movlw	10
  5009  0256  00F6               	movwf	___lwdiv@divisor
  5010  0257  3000               	movlw	0
  5011  0258  00F7               	movwf	___lwdiv@divisor+1
  5012  0259  0020               	movlb	0	; select bank0
  5013  025A  354D               	lslf	display@i,w
  5014  025B  3EB8               	addlw	(low (_v| 0))& (0+255)
  5015  025C  0086               	movwf	6
  5016  025D  0187               	clrf	7
  5017  025E  3F40               	moviw [0]fsr1
  5018  025F  00F2               	movwf	___lwmod@dividend
  5019  0260  3F41               	moviw [1]fsr1
  5020  0261  00F3               	movwf	___lwmod@dividend+1
  5021  0262  3064               	movlw	100
  5022  0263  00F0               	movwf	___lwmod@divisor
  5023  0264  3000               	movlw	0
  5024  0265  00F1               	movwf	___lwmod@divisor+1
  5025  0266  318D  2599  3181   	fcall	___lwmod
  5026  0269  0871               	movf	?___lwmod+1,w
  5027  026A  00F9               	movwf	___lwdiv@dividend+1
  5028  026B  0870               	movf	?___lwmod,w
  5029  026C  00F8               	movwf	___lwdiv@dividend
  5030  026D  318E  26A9  3181   	fcall	___lwdiv
  5031  0270  0876               	movf	?___lwdiv,w
  5032  0271  3E30               	addlw	48
  5033  0272  318C  2424  3181   	fcall	_LCD_Putc
  5034                           
  5035                           ;PIC16F1827-ChargeStation5-01.c: 196: LCD_Putc((v[i] % 10) / 1 + '0');
  5036  0275  300A               	movlw	10
  5037  0276  00F0               	movwf	___lwmod@divisor
  5038  0277  3000               	movlw	0
  5039  0278  00F1               	movwf	___lwmod@divisor+1
  5040  0279  0020               	movlb	0	; select bank0
  5041  027A  354D               	lslf	display@i,w
  5042  027B  3EB8               	addlw	(low (_v| 0))& (0+255)
  5043  027C  0086               	movwf	6
  5044  027D  0187               	clrf	7
  5045  027E  3F40               	moviw [0]fsr1
  5046  027F  00F2               	movwf	___lwmod@dividend
  5047  0280  3F41               	moviw [1]fsr1
  5048  0281  00F3               	movwf	___lwmod@dividend+1
  5049  0282  318D  2599  3181   	fcall	___lwmod
  5050  0285  0870               	movf	?___lwmod,w
  5051  0286  3E30               	addlw	48
  5052  0287  318C  2424  3181   	fcall	_LCD_Putc
  5053                           
  5054                           ;PIC16F1827-ChargeStation5-01.c: 197: LCD_Putc('A');
  5055  028A  3041               	movlw	65
  5056  028B  318C  2424         	fcall	_LCD_Putc
  5057                           
  5058                           ;PIC16F1827-ChargeStation5-01.c: 198: break;
  5059  028D  0008               	return
  5060  028E                     i1l2405:	
  5061                           ;PIC16F1827-ChargeStation5-01.c: 199: case 1:
  5062                           
  5063                           
  5064                           ;PIC16F1827-ChargeStation5-01.c: 200: LCD_SetCursor(7, 1);
  5065  028E  01F7               	clrf	LCD_SetCursor@row
  5066  028F  0AF7               	incf	LCD_SetCursor@row,f
  5067  0290  3007               	movlw	7
  5068  0291  318B  2385  3181   	fcall	_LCD_SetCursor
  5069                           
  5070                           ;PIC16F1827-ChargeStation5-01.c: 201: LCD_Putc((s[i] % 1000000) / 100000 + '0');
  5071  0294  3000               	movlw	0
  5072  0295  0020               	movlb	0	; select bank0
  5073  0296  00BF               	movwf	___aldiv@divisor+3
  5074  0297  3001               	movlw	1
  5075  0298  00BE               	movwf	___aldiv@divisor+2
  5076  0299  3086               	movlw	134
  5077  029A  00BD               	movwf	___aldiv@divisor+1
  5078  029B  30A0               	movlw	160
  5079  029C  00BC               	movwf	___aldiv@divisor
  5080  029D  354D               	lslf	display@i,w
  5081  029E  3E20               	addlw	(low (_s| 0))& (0+255)
  5082  029F  0086               	movwf	6
  5083  02A0  0187               	clrf	7
  5084  02A1  3F40               	moviw [0]fsr1
  5085  02A2  00CB               	movwf	??_display
  5086  02A3  3F41               	moviw [1]fsr1
  5087  02A4  00CC               	movwf	??_display+1
  5088  02A5  084B               	movf	??_display,w
  5089  02A6  00F4               	movwf	___almod@dividend
  5090  02A7  084C               	movf	??_display+1,w
  5091  02A8  00F5               	movwf	___almod@dividend+1
  5092  02A9  01F6               	clrf	___almod@dividend+2
  5093  02AA  01F7               	clrf	___almod@dividend+3
  5094  02AB  3000               	movlw	0
  5095  02AC  00F3               	movwf	___almod@divisor+3
  5096  02AD  300F               	movlw	15
  5097  02AE  00F2               	movwf	___almod@divisor+2
  5098  02AF  3042               	movlw	66
  5099  02B0  00F1               	movwf	___almod@divisor+1
  5100  02B1  3040               	movlw	64
  5101  02B2  00F0               	movwf	___almod@divisor
  5102  02B3  3187  2725  3181   	fcall	___almod
  5103  02B6  0873               	movf	?___almod+3,w
  5104  02B7  0020               	movlb	0	; select bank0
  5105  02B8  00C3               	movwf	___aldiv@dividend+3
  5106  02B9  0872               	movf	?___almod+2,w
  5107  02BA  00C2               	movwf	___aldiv@dividend+2
  5108  02BB  0871               	movf	?___almod+1,w
  5109  02BC  00C1               	movwf	___aldiv@dividend+1
  5110  02BD  0870               	movf	?___almod,w
  5111  02BE  00C0               	movwf	___aldiv@dividend
  5112  02BF  3186  262E  3181   	fcall	___aldiv
  5113  02C2  0020               	movlb	0	; select bank0
  5114  02C3  083C               	movf	?___aldiv,w
  5115  02C4  3E30               	addlw	48
  5116  02C5  318C  2424  3181   	fcall	_LCD_Putc
  5117                           
  5118                           ;PIC16F1827-ChargeStation5-01.c: 202: LCD_Putc((s[i] % 100000) / 10000 + '0');
  5119  02C8  3000               	movlw	0
  5120  02C9  0020               	movlb	0	; select bank0
  5121  02CA  00BF               	movwf	___aldiv@divisor+3
  5122  02CB  3000               	movlw	0
  5123  02CC  00BE               	movwf	___aldiv@divisor+2
  5124  02CD  3027               	movlw	39
  5125  02CE  00BD               	movwf	___aldiv@divisor+1
  5126  02CF  3010               	movlw	16
  5127  02D0  00BC               	movwf	___aldiv@divisor
  5128  02D1  354D               	lslf	display@i,w
  5129  02D2  3E20               	addlw	(low (_s| 0))& (0+255)
  5130  02D3  0086               	movwf	6
  5131  02D4  0187               	clrf	7
  5132  02D5  3F40               	moviw [0]fsr1
  5133  02D6  00CB               	movwf	??_display
  5134  02D7  3F41               	moviw [1]fsr1
  5135  02D8  00CC               	movwf	??_display+1
  5136  02D9  084B               	movf	??_display,w
  5137  02DA  00F4               	movwf	___almod@dividend
  5138  02DB  084C               	movf	??_display+1,w
  5139  02DC  00F5               	movwf	___almod@dividend+1
  5140  02DD  01F6               	clrf	___almod@dividend+2
  5141  02DE  01F7               	clrf	___almod@dividend+3
  5142  02DF  3000               	movlw	0
  5143  02E0  00F3               	movwf	___almod@divisor+3
  5144  02E1  3001               	movlw	1
  5145  02E2  00F2               	movwf	___almod@divisor+2
  5146  02E3  3086               	movlw	134
  5147  02E4  00F1               	movwf	___almod@divisor+1
  5148  02E5  30A0               	movlw	160
  5149  02E6  00F0               	movwf	___almod@divisor
  5150  02E7  3187  2725  3181   	fcall	___almod
  5151  02EA  0873               	movf	?___almod+3,w
  5152  02EB  0020               	movlb	0	; select bank0
  5153  02EC  00C3               	movwf	___aldiv@dividend+3
  5154  02ED  0872               	movf	?___almod+2,w
  5155  02EE  00C2               	movwf	___aldiv@dividend+2
  5156  02EF  0871               	movf	?___almod+1,w
  5157  02F0  00C1               	movwf	___aldiv@dividend+1
  5158  02F1  0870               	movf	?___almod,w
  5159  02F2  00C0               	movwf	___aldiv@dividend
  5160  02F3  3186  262E  3181   	fcall	___aldiv
  5161  02F6  0020               	movlb	0	; select bank0
  5162  02F7  083C               	movf	?___aldiv,w
  5163  02F8  3E30               	addlw	48
  5164  02F9  318C  2424  3181   	fcall	_LCD_Putc
  5165                           
  5166                           ;PIC16F1827-ChargeStation5-01.c: 203: LCD_Putc((s[i] % 10000) / 1000 + '0');
  5167  02FC  30E8               	movlw	232
  5168  02FD  00F6               	movwf	___lwdiv@divisor
  5169  02FE  3003               	movlw	3
  5170  02FF  00F7               	movwf	___lwdiv@divisor+1
  5171  0300  0020               	movlb	0	; select bank0
  5172  0301  354D               	lslf	display@i,w
  5173  0302  3E20               	addlw	(low (_s| 0))& (0+255)
  5174  0303  0086               	movwf	6
  5175  0304  0187               	clrf	7
  5176  0305  3F40               	moviw [0]fsr1
  5177  0306  00F2               	movwf	___lwmod@dividend
  5178  0307  3F41               	moviw [1]fsr1
  5179  0308  00F3               	movwf	___lwmod@dividend+1
  5180  0309  3010               	movlw	16
  5181  030A  00F0               	movwf	___lwmod@divisor
  5182  030B  3027               	movlw	39
  5183  030C  00F1               	movwf	___lwmod@divisor+1
  5184  030D  318D  2599  3181   	fcall	___lwmod
  5185  0310  0871               	movf	?___lwmod+1,w
  5186  0311  00F9               	movwf	___lwdiv@dividend+1
  5187  0312  0870               	movf	?___lwmod,w
  5188  0313  00F8               	movwf	___lwdiv@dividend
  5189  0314  318E  26A9  3181   	fcall	___lwdiv
  5190  0317  0876               	movf	?___lwdiv,w
  5191  0318  3E30               	addlw	48
  5192  0319  318C  2424  3181   	fcall	_LCD_Putc
  5193                           
  5194                           ;PIC16F1827-ChargeStation5-01.c: 204: LCD_Putc((s[i] % 1000) / 100 + '0');
  5195  031C  3064               	movlw	100
  5196  031D  00F6               	movwf	___lwdiv@divisor
  5197  031E  3000               	movlw	0
  5198  031F  00F7               	movwf	___lwdiv@divisor+1
  5199  0320  0020               	movlb	0	; select bank0
  5200  0321  354D               	lslf	display@i,w
  5201  0322  3E20               	addlw	(low (_s| 0))& (0+255)
  5202  0323  0086               	movwf	6
  5203  0324  0187               	clrf	7
  5204  0325  3F40               	moviw [0]fsr1
  5205  0326  00F2               	movwf	___lwmod@dividend
  5206  0327  3F41               	moviw [1]fsr1
  5207  0328  00F3               	movwf	___lwmod@dividend+1
  5208  0329  30E8               	movlw	232
  5209  032A  00F0               	movwf	___lwmod@divisor
  5210  032B  3003               	movlw	3
  5211  032C  00F1               	movwf	___lwmod@divisor+1
  5212  032D  318D  2599  3181   	fcall	___lwmod
  5213  0330  0871               	movf	?___lwmod+1,w
  5214  0331  00F9               	movwf	___lwdiv@dividend+1
  5215  0332  0870               	movf	?___lwmod,w
  5216  0333  00F8               	movwf	___lwdiv@dividend
  5217  0334  318E  26A9  3181   	fcall	___lwdiv
  5218  0337  0876               	movf	?___lwdiv,w
  5219  0338  3E30               	addlw	48
  5220  0339  318C  2424  3181   	fcall	_LCD_Putc
  5221                           
  5222                           ;PIC16F1827-ChargeStation5-01.c: 205: LCD_Putc((s[i] % 100) / 10 + '0');
  5223  033C  300A               	movlw	10
  5224  033D  00F6               	movwf	___lwdiv@divisor
  5225  033E  3000               	movlw	0
  5226  033F  00F7               	movwf	___lwdiv@divisor+1
  5227  0340  0020               	movlb	0	; select bank0
  5228  0341  354D               	lslf	display@i,w
  5229  0342  3E20               	addlw	(low (_s| 0))& (0+255)
  5230  0343  0086               	movwf	6
  5231  0344  0187               	clrf	7
  5232  0345  3F40               	moviw [0]fsr1
  5233  0346  00F2               	movwf	___lwmod@dividend
  5234  0347  3F41               	moviw [1]fsr1
  5235  0348  00F3               	movwf	___lwmod@dividend+1
  5236  0349  3064               	movlw	100
  5237  034A  00F0               	movwf	___lwmod@divisor
  5238  034B  3000               	movlw	0
  5239  034C  00F1               	movwf	___lwmod@divisor+1
  5240  034D  318D  2599  3181   	fcall	___lwmod
  5241  0350  0871               	movf	?___lwmod+1,w
  5242  0351  00F9               	movwf	___lwdiv@dividend+1
  5243  0352  0870               	movf	?___lwmod,w
  5244  0353  00F8               	movwf	___lwdiv@dividend
  5245  0354  318E  26A9  3181   	fcall	___lwdiv
  5246  0357  0876               	movf	?___lwdiv,w
  5247  0358  3E30               	addlw	48
  5248  0359  318C  2424  3181   	fcall	_LCD_Putc
  5249                           
  5250                           ;PIC16F1827-ChargeStation5-01.c: 206: LCD_Putc((s[i] % 10) / 1 + '0');
  5251  035C  300A               	movlw	10
  5252  035D  00F0               	movwf	___lwmod@divisor
  5253  035E  3000               	movlw	0
  5254  035F  00F1               	movwf	___lwmod@divisor+1
  5255  0360  0020               	movlb	0	; select bank0
  5256  0361  354D               	lslf	display@i,w
  5257  0362  3E20               	addlw	(low (_s| 0))& (0+255)
  5258  0363  0086               	movwf	6
  5259  0364  0187               	clrf	7
  5260  0365  3F40               	moviw [0]fsr1
  5261  0366  00F2               	movwf	___lwmod@dividend
  5262  0367  3F41               	moviw [1]fsr1
  5263  0368  00F3               	movwf	___lwmod@dividend+1
  5264  0369  318D  2599  3181   	fcall	___lwmod
  5265  036C  0870               	movf	?___lwmod,w
  5266  036D  3E30               	addlw	48
  5267  036E  318C  2424  3181   	fcall	_LCD_Putc
  5268                           
  5269                           ;PIC16F1827-ChargeStation5-01.c: 207: LCD_Puts("mAh");
  5270  0371  30EA               	movlw	low (STR_8| (0+32768))
  5271  0372  00F4               	movwf	LCD_Puts@s
  5272  0373  3087               	movlw	high (STR_8| (0+32768))
  5273  0374  00F5               	movwf	LCD_Puts@s+1
  5274  0375  318E  264B         	fcall	_LCD_Puts
  5275                           
  5276                           ;PIC16F1827-ChargeStation5-01.c: 208: break;
  5277  0377  0008               	return
  5278  0378                     i1l2409:	
  5279                           ;PIC16F1827-ChargeStation5-01.c: 209: case 2:
  5280                           
  5281                           
  5282                           ;PIC16F1827-ChargeStation5-01.c: 210: LCD_SetCursor(8, 1);
  5283  0378  01F7               	clrf	LCD_SetCursor@row
  5284  0379  0AF7               	incf	LCD_SetCursor@row,f
  5285  037A  3008               	movlw	8
  5286  037B  318B  2385  3181   	fcall	_LCD_SetCursor
  5287                           
  5288                           ;PIC16F1827-ChargeStation5-01.c: 211: LCD_Puts("Reset?");
  5289  037E  30BF               	movlw	low (STR_9| (0+32768))
  5290  037F  00F4               	movwf	LCD_Puts@s
  5291  0380  3087               	movlw	high (STR_9| (0+32768))
  5292  0381  00F5               	movwf	LCD_Puts@s+1
  5293  0382  318E  264B         	fcall	_LCD_Puts
  5294                           
  5295                           ;PIC16F1827-ChargeStation5-01.c: 212: break;
  5296  0384  0008               	return
  5297  0385                     i1l2413:	
  5298                           ;PIC16F1827-ChargeStation5-01.c: 213: case 3:
  5299                           
  5300                           
  5301                           ;PIC16F1827-ChargeStation5-01.c: 214: LCD_SetCursor(8, 1);
  5302  0385  01F7               	clrf	LCD_SetCursor@row
  5303  0386  0AF7               	incf	LCD_SetCursor@row,f
  5304  0387  3008               	movlw	8
  5305  0388  318B  2385  3181   	fcall	_LCD_SetCursor
  5306                           
  5307                           ;PIC16F1827-ChargeStation5-01.c: 215: LCD_Puts("Reseted");
  5308  038B  30B7               	movlw	low (STR_10| (0+32768))
  5309  038C  00F4               	movwf	LCD_Puts@s
  5310  038D  3087               	movlw	high (STR_10| (0+32768))
  5311  038E  00F5               	movwf	LCD_Puts@s+1
  5312  038F  318E  264B         	fcall	_LCD_Puts
  5313                           
  5314                           ;PIC16F1827-ChargeStation5-01.c: 216: break;
  5315  0391  0008               	return
  5316  0392                     i1l2417:	
  5317                           ;PIC16F1827-ChargeStation5-01.c: 217: case 4:
  5318                           
  5319                           
  5320                           ;PIC16F1827-ChargeStation5-01.c: 218: LCD_SetCursor(7, 1);
  5321  0392  01F7               	clrf	LCD_SetCursor@row
  5322  0393  0AF7               	incf	LCD_SetCursor@row,f
  5323  0394  3007               	movlw	7
  5324  0395  318B  2385  3181   	fcall	_LCD_SetCursor
  5325                           
  5326                           ;PIC16F1827-ChargeStation5-01.c: 219: LCD_Puts("Always ON");
  5327  0398  30A3               	movlw	low (STR_11| (0+32768))
  5328  0399  00F4               	movwf	LCD_Puts@s
  5329  039A  3087               	movlw	high (STR_11| (0+32768))
  5330  039B  00F5               	movwf	LCD_Puts@s+1
  5331  039C  318E  264B         	fcall	_LCD_Puts
  5332                           
  5333                           ;PIC16F1827-ChargeStation5-01.c: 220: break;
  5334  039E  0008               	return
  5335  039F                     i1l2421:	
  5336                           ;PIC16F1827-ChargeStation5-01.c: 221: case 5:
  5337                           
  5338                           
  5339                           ;PIC16F1827-ChargeStation5-01.c: 222: LCD_SetCursor(7, 1);
  5340  039F  01F7               	clrf	LCD_SetCursor@row
  5341  03A0  0AF7               	incf	LCD_SetCursor@row,f
  5342  03A1  3007               	movlw	7
  5343  03A2  318B  2385  3181   	fcall	_LCD_SetCursor
  5344                           
  5345                           ;PIC16F1827-ChargeStation5-01.c: 223: LCD_Puts("Auto Stop");
  5346  03A5  30AD               	movlw	low (STR_12| (0+32768))
  5347  03A6  00F4               	movwf	LCD_Puts@s
  5348  03A7  3087               	movlw	high (STR_12| (0+32768))
  5349  03A8  00F5               	movwf	LCD_Puts@s+1
  5350  03A9  318E  264B         	fcall	_LCD_Puts
  5351                           
  5352                           ;PIC16F1827-ChargeStation5-01.c: 225: }
  5353                           
  5354                           ;PIC16F1827-ChargeStation5-01.c: 224: break;
  5355  03AB  0008               	return
  5356  03AC                     i1l2427:	
  5357  03AC  0020               	movlb	0	; select bank0
  5358  03AD  084A               	movf	display@co,w
  5359                           
  5360                           ; Switch size 1, requested type "space"
  5361                           ; Number of cases is 6, Range of values is 0 to 5
  5362                           ; switch strategies available:
  5363                           ; Name         Instructions Cycles
  5364                           ; direct_byte           18     6 (fixed)
  5365                           ; simple_byte           19    10 (average)
  5366                           ; jumptable            260     6 (fixed)
  5367                           ;	Chosen strategy is direct_byte
  5368  03AE  0084               	movwf	4
  5369  03AF  3006               	movlw	6
  5370  03B0  0204               	subwf	4,w
  5371  03B1  1803               	skipnc
  5372  03B2  0008               	return
  5373  03B3  3188               	movlp	high i1S3349
  5374  03B4  3504               	lslf	4,w
  5375  03B5  3E00               	addlw	low i1S3349
  5376  03B6  0082               	movwf	2
  5377  03B7  0008               	return
  5378  03B8                     __end_of_display:	
  5379                           
  5380                           	psect	swtext1
  5381  0800                     __pswtext1:	
  5382  0800                     i1S3349:	
  5383  0800  3182  2A0B         	ljmp	i1l2395
  5384  0802  3182  2A8E         	ljmp	i1l2405
  5385  0804  3183  2B78         	ljmp	i1l2409
  5386  0806  3183  2B85         	ljmp	i1l2413
  5387  0808  3183  2B92         	ljmp	i1l2417
  5388  080A  3183  2B9F         	ljmp	i1l2421
  5389                           
  5390                           	psect	text29
  5391  0B49                     __ptext29:	
  5392 ;; *************** function i1_LCD_Clear *****************
  5393 ;; Defined at:
  5394 ;;		line 239 in file "PIC16F1827-ChargeStation5-01.h"
  5395 ;; Parameters:    Size  Location     Type
  5396 ;;		None
  5397 ;; Auto vars:     Size  Location     Type
  5398 ;;		None
  5399 ;; Return value:  Size  Location     Type
  5400 ;;		None               void
  5401 ;; Registers used:
  5402 ;;		wreg, status,2, status,0, pclath, cstack
  5403 ;; Tracked objects:
  5404 ;;		On entry : 0/0
  5405 ;;		On exit  : 0/0
  5406 ;;		Unchanged: 0/0
  5407 ;; Data sizes:     COMMON   BANK0   BANK1   BANK2   BANK3   BANK4
  5408 ;;      Params:         0       0       0       0       0       0
  5409 ;;      Locals:         0       0       0       0       0       0
  5410 ;;      Temps:          2       0       0       0       0       0
  5411 ;;      Totals:         2       0       0       0       0       0
  5412 ;;Total ram usage:        2 bytes
  5413 ;; Hardware stack levels used:    1
  5414 ;; Hardware stack levels required when called:    3
  5415 ;; This function calls:
  5416 ;;		i1_LCD_Command
  5417 ;; This function is called by:
  5418 ;;		_display
  5419 ;; This function uses a non-reentrant model
  5420 ;;
  5421                           
  5422                           
  5423                           ;psect for function i1_LCD_Clear
  5424  0B49                     i1_LCD_Clear:	
  5425                           
  5426                           ;PIC16F1827-ChargeStation5-01.h: 240: LCD_Command(0x01);
  5427                           
  5428                           ;incstack = 0
  5429                           ; Regs used in i1_LCD_Clear: [wreg+status,2+status,0+pclath+cstack]
  5430  0B49  3001               	movlw	1
  5431  0B4A  318C  2440  318B   	fcall	i1_LCD_Command
  5432                           
  5433                           ;PIC16F1827-ChargeStation5-01.h: 241: _delay((unsigned long)((1100)*(32000000/4000000.0)
      +                          ));
  5434  0B4D  300C               	movlw	12
  5435  0B4E  00F8               	movwf	??i1_LCD_Clear+1
  5436  0B4F  306C               	movlw	108
  5437  0B50  00F7               	movwf	??i1_LCD_Clear
  5438  0B51                     u378_27:	
  5439  0B51  0BF7               	decfsz	??i1_LCD_Clear,f
  5440  0B52  2B51               	goto	u378_27
  5441  0B53  0BF8               	decfsz	??i1_LCD_Clear+1,f
  5442  0B54  2B51               	goto	u378_27
  5443  0B55  0000               	nop
  5444  0B56  0008               	return
  5445  0B57                     __end_ofi1_LCD_Clear:	
  5446                           
  5447                           	psect	text30
  5448  0D99                     __ptext30:	
  5449 ;; *************** function ___lwmod *****************
  5450 ;; Defined at:
  5451 ;;		line 6 in file "C:\Program Files (x86)\Microchip\xc8\v1.35\sources\common\lwmod.c"
  5452 ;; Parameters:    Size  Location     Type
  5453 ;;  divisor         2    0[COMMON] unsigned int 
  5454 ;;  dividend        2    2[COMMON] unsigned int 
  5455 ;; Auto vars:     Size  Location     Type
  5456 ;;  counter         1    5[COMMON] unsigned char 
  5457 ;; Return value:  Size  Location     Type
  5458 ;;                  2    0[COMMON] unsigned int 
  5459 ;; Registers used:
  5460 ;;		wreg, status,2, status,0
  5461 ;; Tracked objects:
  5462 ;;		On entry : 0/0
  5463 ;;		On exit  : 0/0
  5464 ;;		Unchanged: 0/0
  5465 ;; Data sizes:     COMMON   BANK0   BANK1   BANK2   BANK3   BANK4
  5466 ;;      Params:         4       0       0       0       0       0
  5467 ;;      Locals:         1       0       0       0       0       0
  5468 ;;      Temps:          1       0       0       0       0       0
  5469 ;;      Totals:         6       0       0       0       0       0
  5470 ;;Total ram usage:        6 bytes
  5471 ;; Hardware stack levels used:    1
  5472 ;; This function calls:
  5473 ;;		Nothing
  5474 ;; This function is called by:
  5475 ;;		_display
  5476 ;; This function uses a non-reentrant model
  5477 ;;
  5478                           
  5479                           
  5480                           ;psect for function ___lwmod
  5481  0D99                     ___lwmod:	
  5482                           
  5483                           ;incstack = 0
  5484                           ; Regs used in ___lwmod: [wreg+status,2+status,0]
  5485  0D99  0870               	movf	___lwmod@divisor,w
  5486  0D9A  0471               	iorwf	___lwmod@divisor+1,w
  5487  0D9B  1903               	btfsc	3,2
  5488  0D9C  2DC0               	goto	i1l2227
  5489  0D9D  01F5               	clrf	___lwmod@counter
  5490  0D9E  0AF5               	incf	___lwmod@counter,f
  5491  0D9F                     i1l2217:	
  5492  0D9F  1BF1               	btfsc	___lwmod@divisor+1,7
  5493  0DA0  2DAB               	goto	i1l2219
  5494  0DA1  3001               	movlw	1
  5495  0DA2                     u209_25:	
  5496  0DA2  35F0               	lslf	___lwmod@divisor,f
  5497  0DA3  0DF1               	rlf	___lwmod@divisor+1,f
  5498  0DA4  0B89               	decfsz	9,f
  5499  0DA5  2DA2               	goto	u209_25
  5500  0DA6  3001               	movlw	1
  5501  0DA7  00F4               	movwf	??___lwmod
  5502  0DA8  0874               	movf	??___lwmod,w
  5503  0DA9  07F5               	addwf	___lwmod@counter,f
  5504  0DAA  2D9F               	goto	i1l2217
  5505  0DAB                     i1l2219:	
  5506  0DAB  0871               	movf	___lwmod@divisor+1,w
  5507  0DAC  0273               	subwf	___lwmod@dividend+1,w
  5508  0DAD  1D03               	skipz
  5509  0DAE  2DB1               	goto	u211_25
  5510  0DAF  0870               	movf	___lwmod@divisor,w
  5511  0DB0  0272               	subwf	___lwmod@dividend,w
  5512  0DB1                     u211_25:	
  5513  0DB1  1C03               	skipc
  5514  0DB2  2DB7               	goto	i1l2223
  5515  0DB3  0870               	movf	___lwmod@divisor,w
  5516  0DB4  02F2               	subwf	___lwmod@dividend,f
  5517  0DB5  0871               	movf	___lwmod@divisor+1,w
  5518  0DB6  3BF3               	subwfb	___lwmod@dividend+1,f
  5519  0DB7                     i1l2223:	
  5520  0DB7  3001               	movlw	1
  5521  0DB8                     u212_25:	
  5522  0DB8  36F1               	lsrf	___lwmod@divisor+1,f
  5523  0DB9  0CF0               	rrf	___lwmod@divisor,f
  5524  0DBA  0B89               	decfsz	9,f
  5525  0DBB  2DB8               	goto	u212_25
  5526  0DBC  3001               	movlw	1
  5527  0DBD  02F5               	subwf	___lwmod@counter,f
  5528  0DBE  1D03               	btfss	3,2
  5529  0DBF  2DAB               	goto	i1l2219
  5530  0DC0                     i1l2227:	
  5531  0DC0  0873               	movf	___lwmod@dividend+1,w
  5532  0DC1  00F1               	movwf	?___lwmod+1
  5533  0DC2  0872               	movf	___lwmod@dividend,w
  5534  0DC3  00F0               	movwf	?___lwmod
  5535  0DC4  0008               	return
  5536  0DC5                     __end_of___lwmod:	
  5537                           
  5538                           	psect	text31
  5539  0EA9                     __ptext31:	
  5540 ;; *************** function ___lwdiv *****************
  5541 ;; Defined at:
  5542 ;;		line 6 in file "C:\Program Files (x86)\Microchip\xc8\v1.35\sources\common\lwdiv.c"
  5543 ;; Parameters:    Size  Location     Type
  5544 ;;  divisor         2    6[COMMON] unsigned int 
  5545 ;;  dividend        2    8[COMMON] unsigned int 
  5546 ;; Auto vars:     Size  Location     Type
  5547 ;;  quotient        2   11[COMMON] unsigned int 
  5548 ;;  counter         1   13[COMMON] unsigned char 
  5549 ;; Return value:  Size  Location     Type
  5550 ;;                  2    6[COMMON] unsigned int 
  5551 ;; Registers used:
  5552 ;;		wreg, status,2, status,0
  5553 ;; Tracked objects:
  5554 ;;		On entry : 0/0
  5555 ;;		On exit  : 0/0
  5556 ;;		Unchanged: 0/0
  5557 ;; Data sizes:     COMMON   BANK0   BANK1   BANK2   BANK3   BANK4
  5558 ;;      Params:         4       0       0       0       0       0
  5559 ;;      Locals:         3       0       0       0       0       0
  5560 ;;      Temps:          1       0       0       0       0       0
  5561 ;;      Totals:         8       0       0       0       0       0
  5562 ;;Total ram usage:        8 bytes
  5563 ;; Hardware stack levels used:    1
  5564 ;; This function calls:
  5565 ;;		Nothing
  5566 ;; This function is called by:
  5567 ;;		_isr
  5568 ;;		_lchika
  5569 ;;		_display
  5570 ;; This function uses a non-reentrant model
  5571 ;;
  5572                           
  5573                           
  5574                           ;psect for function ___lwdiv
  5575  0EA9                     ___lwdiv:	
  5576                           
  5577                           ;incstack = 0
  5578                           ; Regs used in ___lwdiv: [wreg+status,2+status,0]
  5579  0EA9  01FB               	clrf	___lwdiv@quotient
  5580  0EAA  01FC               	clrf	___lwdiv@quotient+1
  5581  0EAB  0876               	movf	___lwdiv@divisor,w
  5582  0EAC  0477               	iorwf	___lwdiv@divisor+1,w
  5583  0EAD  1903               	btfsc	3,2
  5584  0EAE  2ED8               	goto	i1l2205
  5585  0EAF  01FD               	clrf	___lwdiv@counter
  5586  0EB0  0AFD               	incf	___lwdiv@counter,f
  5587  0EB1                     i1l2193:	
  5588  0EB1  1BF7               	btfsc	___lwdiv@divisor+1,7
  5589  0EB2  2EBD               	goto	i1l2195
  5590  0EB3  3001               	movlw	1
  5591  0EB4                     u202_25:	
  5592  0EB4  35F6               	lslf	___lwdiv@divisor,f
  5593  0EB5  0DF7               	rlf	___lwdiv@divisor+1,f
  5594  0EB6  0B89               	decfsz	9,f
  5595  0EB7  2EB4               	goto	u202_25
  5596  0EB8  3001               	movlw	1
  5597  0EB9  00FA               	movwf	??___lwdiv
  5598  0EBA  087A               	movf	??___lwdiv,w
  5599  0EBB  07FD               	addwf	___lwdiv@counter,f
  5600  0EBC  2EB1               	goto	i1l2193
  5601  0EBD                     i1l2195:	
  5602  0EBD  3001               	movlw	1
  5603  0EBE                     u204_25:	
  5604  0EBE  35FB               	lslf	___lwdiv@quotient,f
  5605  0EBF  0DFC               	rlf	___lwdiv@quotient+1,f
  5606  0EC0  0B89               	decfsz	9,f
  5607  0EC1  2EBE               	goto	u204_25
  5608  0EC2  0877               	movf	___lwdiv@divisor+1,w
  5609  0EC3  0279               	subwf	___lwdiv@dividend+1,w
  5610  0EC4  1D03               	skipz
  5611  0EC5  2EC8               	goto	u205_25
  5612  0EC6  0876               	movf	___lwdiv@divisor,w
  5613  0EC7  0278               	subwf	___lwdiv@dividend,w
  5614  0EC8                     u205_25:	
  5615  0EC8  1C03               	skipc
  5616  0EC9  2ECF               	goto	i1l2201
  5617  0ECA  0876               	movf	___lwdiv@divisor,w
  5618  0ECB  02F8               	subwf	___lwdiv@dividend,f
  5619  0ECC  0877               	movf	___lwdiv@divisor+1,w
  5620  0ECD  3BF9               	subwfb	___lwdiv@dividend+1,f
  5621  0ECE  147B               	bsf	___lwdiv@quotient,0
  5622  0ECF                     i1l2201:	
  5623  0ECF  3001               	movlw	1
  5624  0ED0                     u206_25:	
  5625  0ED0  36F7               	lsrf	___lwdiv@divisor+1,f
  5626  0ED1  0CF6               	rrf	___lwdiv@divisor,f
  5627  0ED2  0B89               	decfsz	9,f
  5628  0ED3  2ED0               	goto	u206_25
  5629  0ED4  3001               	movlw	1
  5630  0ED5  02FD               	subwf	___lwdiv@counter,f
  5631  0ED6  1D03               	btfss	3,2
  5632  0ED7  2EBD               	goto	i1l2195
  5633  0ED8                     i1l2205:	
  5634  0ED8  087C               	movf	___lwdiv@quotient+1,w
  5635  0ED9  00F7               	movwf	?___lwdiv+1
  5636  0EDA  087B               	movf	___lwdiv@quotient,w
  5637  0EDB  00F6               	movwf	?___lwdiv
  5638  0EDC  0008               	return
  5639  0EDD                     __end_of___lwdiv:	
  5640                           
  5641                           	psect	text32
  5642  0725                     __ptext32:	
  5643 ;; *************** function ___almod *****************
  5644 ;; Defined at:
  5645 ;;		line 5 in file "C:\Program Files (x86)\Microchip\xc8\v1.35\sources\common\almod.c"
  5646 ;; Parameters:    Size  Location     Type
  5647 ;;  divisor         4    0[COMMON] long 
  5648 ;;  dividend        4    4[COMMON] long 
  5649 ;; Auto vars:     Size  Location     Type
  5650 ;;  sign            1   10[COMMON] unsigned char 
  5651 ;;  counter         1    9[COMMON] unsigned char 
  5652 ;; Return value:  Size  Location     Type
  5653 ;;                  4    0[COMMON] long 
  5654 ;; Registers used:
  5655 ;;		wreg, status,2, status,0
  5656 ;; Tracked objects:
  5657 ;;		On entry : 0/0
  5658 ;;		On exit  : 0/0
  5659 ;;		Unchanged: 0/0
  5660 ;; Data sizes:     COMMON   BANK0   BANK1   BANK2   BANK3   BANK4
  5661 ;;      Params:         8       0       0       0       0       0
  5662 ;;      Locals:         2       0       0       0       0       0
  5663 ;;      Temps:          1       0       0       0       0       0
  5664 ;;      Totals:        11       0       0       0       0       0
  5665 ;;Total ram usage:       11 bytes
  5666 ;; Hardware stack levels used:    1
  5667 ;; This function calls:
  5668 ;;		Nothing
  5669 ;; This function is called by:
  5670 ;;		_display
  5671 ;; This function uses a non-reentrant model
  5672 ;;
  5673                           
  5674                           
  5675                           ;psect for function ___almod
  5676  0725                     ___almod:	
  5677                           
  5678                           ;incstack = 0
  5679                           ; Regs used in ___almod: [wreg+status,2+status,0]
  5680  0725  01FA               	clrf	___almod@sign
  5681  0726  1FF7               	btfss	___almod@dividend+3,7
  5682  0727  2F35               	goto	i1l557
  5683  0728  09F4               	comf	___almod@dividend,f
  5684  0729  09F5               	comf	___almod@dividend+1,f
  5685  072A  09F6               	comf	___almod@dividend+2,f
  5686  072B  09F7               	comf	___almod@dividend+3,f
  5687  072C  0AF4               	incf	___almod@dividend,f
  5688  072D  1903               	skipnz
  5689  072E  0AF5               	incf	___almod@dividend+1,f
  5690  072F  1903               	skipnz
  5691  0730  0AF6               	incf	___almod@dividend+2,f
  5692  0731  1903               	skipnz
  5693  0732  0AF7               	incf	___almod@dividend+3,f
  5694  0733  01FA               	clrf	___almod@sign
  5695  0734  0AFA               	incf	___almod@sign,f
  5696  0735                     i1l557:	
  5697  0735  1FF3               	btfss	___almod@divisor+3,7
  5698  0736  2F42               	goto	i1l2115
  5699  0737  09F0               	comf	___almod@divisor,f
  5700  0738  09F1               	comf	___almod@divisor+1,f
  5701  0739  09F2               	comf	___almod@divisor+2,f
  5702  073A  09F3               	comf	___almod@divisor+3,f
  5703  073B  0AF0               	incf	___almod@divisor,f
  5704  073C  1903               	skipnz
  5705  073D  0AF1               	incf	___almod@divisor+1,f
  5706  073E  1903               	skipnz
  5707  073F  0AF2               	incf	___almod@divisor+2,f
  5708  0740  1903               	skipnz
  5709  0741  0AF3               	incf	___almod@divisor+3,f
  5710  0742                     i1l2115:	
  5711  0742  0873               	movf	___almod@divisor+3,w
  5712  0743  0472               	iorwf	___almod@divisor+2,w
  5713  0744  0471               	iorwf	___almod@divisor+1,w
  5714  0745  0470               	iorwf	___almod@divisor,w
  5715  0746  1903               	skipnz
  5716  0747  2F7B               	goto	i1l2131
  5717  0748  01F9               	clrf	___almod@counter
  5718  0749  0AF9               	incf	___almod@counter,f
  5719  074A                     i1l2121:	
  5720  074A  1BF3               	btfsc	___almod@divisor+3,7
  5721  074B  2F58               	goto	i1l2123
  5722  074C  3001               	movlw	1
  5723  074D                     u185_25:	
  5724  074D  35F0               	lslf	___almod@divisor,f
  5725  074E  0DF1               	rlf	___almod@divisor+1,f
  5726  074F  0DF2               	rlf	___almod@divisor+2,f
  5727  0750  0DF3               	rlf	___almod@divisor+3,f
  5728  0751  0B89               	decfsz	9,f
  5729  0752  2F4D               	goto	u185_25
  5730  0753  3001               	movlw	1
  5731  0754  00F8               	movwf	??___almod
  5732  0755  0878               	movf	??___almod,w
  5733  0756  07F9               	addwf	___almod@counter,f
  5734  0757  2F4A               	goto	i1l2121
  5735  0758                     i1l2123:	
  5736  0758  0873               	movf	___almod@divisor+3,w
  5737  0759  0277               	subwf	___almod@dividend+3,w
  5738  075A  1D03               	skipz
  5739  075B  2F66               	goto	u187_25
  5740  075C  0872               	movf	___almod@divisor+2,w
  5741  075D  0276               	subwf	___almod@dividend+2,w
  5742  075E  1D03               	skipz
  5743  075F  2F66               	goto	u187_25
  5744  0760  0871               	movf	___almod@divisor+1,w
  5745  0761  0275               	subwf	___almod@dividend+1,w
  5746  0762  1D03               	skipz
  5747  0763  2F66               	goto	u187_25
  5748  0764  0870               	movf	___almod@divisor,w
  5749  0765  0274               	subwf	___almod@dividend,w
  5750  0766                     u187_25:	
  5751  0766  1C03               	skipc
  5752  0767  2F70               	goto	i1l2127
  5753  0768  0870               	movf	___almod@divisor,w
  5754  0769  02F4               	subwf	___almod@dividend,f
  5755  076A  0871               	movf	___almod@divisor+1,w
  5756  076B  3BF5               	subwfb	___almod@dividend+1,f
  5757  076C  0872               	movf	___almod@divisor+2,w
  5758  076D  3BF6               	subwfb	___almod@dividend+2,f
  5759  076E  0873               	movf	___almod@divisor+3,w
  5760  076F  3BF7               	subwfb	___almod@dividend+3,f
  5761  0770                     i1l2127:	
  5762  0770  3001               	movlw	1
  5763  0771                     u188_25:	
  5764  0771  36F3               	lsrf	___almod@divisor+3,f
  5765  0772  0CF2               	rrf	___almod@divisor+2,f
  5766  0773  0CF1               	rrf	___almod@divisor+1,f
  5767  0774  0CF0               	rrf	___almod@divisor,f
  5768  0775  0B89               	decfsz	9,f
  5769  0776  2F71               	goto	u188_25
  5770  0777  3001               	movlw	1
  5771  0778  02F9               	subwf	___almod@counter,f
  5772  0779  1D03               	btfss	3,2
  5773  077A  2F58               	goto	i1l2123
  5774  077B                     i1l2131:	
  5775  077B  087A               	movf	___almod@sign,w
  5776  077C  1903               	btfsc	3,2
  5777  077D  2F89               	goto	i1l2135
  5778  077E  09F4               	comf	___almod@dividend,f
  5779  077F  09F5               	comf	___almod@dividend+1,f
  5780  0780  09F6               	comf	___almod@dividend+2,f
  5781  0781  09F7               	comf	___almod@dividend+3,f
  5782  0782  0AF4               	incf	___almod@dividend,f
  5783  0783  1903               	skipnz
  5784  0784  0AF5               	incf	___almod@dividend+1,f
  5785  0785  1903               	skipnz
  5786  0786  0AF6               	incf	___almod@dividend+2,f
  5787  0787  1903               	skipnz
  5788  0788  0AF7               	incf	___almod@dividend+3,f
  5789  0789                     i1l2135:	
  5790  0789  0877               	movf	___almod@dividend+3,w
  5791  078A  00F3               	movwf	?___almod+3
  5792  078B  0876               	movf	___almod@dividend+2,w
  5793  078C  00F2               	movwf	?___almod+2
  5794  078D  0875               	movf	___almod@dividend+1,w
  5795  078E  00F1               	movwf	?___almod+1
  5796  078F  0874               	movf	___almod@dividend,w
  5797  0790  00F0               	movwf	?___almod
  5798  0791  0008               	return
  5799  0792                     __end_of___almod:	
  5800                           
  5801                           	psect	text33
  5802  062E                     __ptext33:	
  5803 ;; *************** function ___aldiv *****************
  5804 ;; Defined at:
  5805 ;;		line 6 in file "C:\Program Files (x86)\Microchip\xc8\v1.35\sources\common\aldiv.c"
  5806 ;; Parameters:    Size  Location     Type
  5807 ;;  divisor         4    0[BANK0 ] long 
  5808 ;;  dividend        4    4[BANK0 ] long 
  5809 ;; Auto vars:     Size  Location     Type
  5810 ;;  quotient        4   10[BANK0 ] long 
  5811 ;;  sign            1    9[BANK0 ] unsigned char 
  5812 ;;  counter         1    8[BANK0 ] unsigned char 
  5813 ;; Return value:  Size  Location     Type
  5814 ;;                  4    0[BANK0 ] long 
  5815 ;; Registers used:
  5816 ;;		wreg, status,2, status,0
  5817 ;; Tracked objects:
  5818 ;;		On entry : 0/0
  5819 ;;		On exit  : 0/0
  5820 ;;		Unchanged: 0/0
  5821 ;; Data sizes:     COMMON   BANK0   BANK1   BANK2   BANK3   BANK4
  5822 ;;      Params:         0       8       0       0       0       0
  5823 ;;      Locals:         0       6       0       0       0       0
  5824 ;;      Temps:          1       0       0       0       0       0
  5825 ;;      Totals:         1      14       0       0       0       0
  5826 ;;Total ram usage:       15 bytes
  5827 ;; Hardware stack levels used:    1
  5828 ;; This function calls:
  5829 ;;		Nothing
  5830 ;; This function is called by:
  5831 ;;		_display
  5832 ;; This function uses a non-reentrant model
  5833 ;;
  5834                           
  5835                           
  5836                           ;psect for function ___aldiv
  5837  062E                     ___aldiv:	
  5838                           
  5839                           ;incstack = 0
  5840                           ; Regs used in ___aldiv: [wreg+status,2+status,0]
  5841  062E  0020               	movlb	0	; select bank0
  5842  062F  01C5               	clrf	___aldiv@sign
  5843  0630  1FBF               	btfss	___aldiv@divisor+3,7
  5844  0631  2E3F               	goto	i1l544
  5845  0632  09BC               	comf	___aldiv@divisor,f
  5846  0633  09BD               	comf	___aldiv@divisor+1,f
  5847  0634  09BE               	comf	___aldiv@divisor+2,f
  5848  0635  09BF               	comf	___aldiv@divisor+3,f
  5849  0636  0ABC               	incf	___aldiv@divisor,f
  5850  0637  1903               	skipnz
  5851  0638  0ABD               	incf	___aldiv@divisor+1,f
  5852  0639  1903               	skipnz
  5853  063A  0ABE               	incf	___aldiv@divisor+2,f
  5854  063B  1903               	skipnz
  5855  063C  0ABF               	incf	___aldiv@divisor+3,f
  5856  063D  01C5               	clrf	___aldiv@sign
  5857  063E  0AC5               	incf	___aldiv@sign,f
  5858  063F                     i1l544:	
  5859  063F  1FC3               	btfss	___aldiv@dividend+3,7
  5860  0640  2E50               	goto	i1l2077
  5861  0641  09C0               	comf	___aldiv@dividend,f
  5862  0642  09C1               	comf	___aldiv@dividend+1,f
  5863  0643  09C2               	comf	___aldiv@dividend+2,f
  5864  0644  09C3               	comf	___aldiv@dividend+3,f
  5865  0645  0AC0               	incf	___aldiv@dividend,f
  5866  0646  1903               	skipnz
  5867  0647  0AC1               	incf	___aldiv@dividend+1,f
  5868  0648  1903               	skipnz
  5869  0649  0AC2               	incf	___aldiv@dividend+2,f
  5870  064A  1903               	skipnz
  5871  064B  0AC3               	incf	___aldiv@dividend+3,f
  5872  064C  3001               	movlw	1
  5873  064D  00FB               	movwf	??___aldiv
  5874  064E  087B               	movf	??___aldiv,w
  5875  064F  06C5               	xorwf	___aldiv@sign,f
  5876  0650                     i1l2077:	
  5877  0650  3000               	movlw	0
  5878  0651  00C9               	movwf	___aldiv@quotient+3
  5879  0652  3000               	movlw	0
  5880  0653  00C8               	movwf	___aldiv@quotient+2
  5881  0654  3000               	movlw	0
  5882  0655  00C7               	movwf	___aldiv@quotient+1
  5883  0656  3000               	movlw	0
  5884  0657  00C6               	movwf	___aldiv@quotient
  5885  0658  083F               	movf	___aldiv@divisor+3,w
  5886  0659  043E               	iorwf	___aldiv@divisor+2,w
  5887  065A  043D               	iorwf	___aldiv@divisor+1,w
  5888  065B  043C               	iorwf	___aldiv@divisor,w
  5889  065C  1903               	skipnz
  5890  065D  2E99               	goto	i1l2099
  5891  065E  01C4               	clrf	___aldiv@counter
  5892  065F  0AC4               	incf	___aldiv@counter,f
  5893  0660                     i1l2085:	
  5894  0660  1BBF               	btfsc	___aldiv@divisor+3,7
  5895  0661  2E6E               	goto	i1l2087
  5896  0662  3001               	movlw	1
  5897  0663                     u175_25:	
  5898  0663  35BC               	lslf	___aldiv@divisor,f
  5899  0664  0DBD               	rlf	___aldiv@divisor+1,f
  5900  0665  0DBE               	rlf	___aldiv@divisor+2,f
  5901  0666  0DBF               	rlf	___aldiv@divisor+3,f
  5902  0667  0B89               	decfsz	9,f
  5903  0668  2E63               	goto	u175_25
  5904  0669  3001               	movlw	1
  5905  066A  00FB               	movwf	??___aldiv
  5906  066B  087B               	movf	??___aldiv,w
  5907  066C  07C4               	addwf	___aldiv@counter,f
  5908  066D  2E60               	goto	i1l2085
  5909  066E                     i1l2087:	
  5910  066E  3001               	movlw	1
  5911  066F                     u177_25:	
  5912  066F  35C6               	lslf	___aldiv@quotient,f
  5913  0670  0DC7               	rlf	___aldiv@quotient+1,f
  5914  0671  0DC8               	rlf	___aldiv@quotient+2,f
  5915  0672  0DC9               	rlf	___aldiv@quotient+3,f
  5916  0673  0B89               	decfsz	9,f
  5917  0674  2E6F               	goto	u177_25
  5918  0675  083F               	movf	___aldiv@divisor+3,w
  5919  0676  0243               	subwf	___aldiv@dividend+3,w
  5920  0677  1D03               	skipz
  5921  0678  2E83               	goto	u178_25
  5922  0679  083E               	movf	___aldiv@divisor+2,w
  5923  067A  0242               	subwf	___aldiv@dividend+2,w
  5924  067B  1D03               	skipz
  5925  067C  2E83               	goto	u178_25
  5926  067D  083D               	movf	___aldiv@divisor+1,w
  5927  067E  0241               	subwf	___aldiv@dividend+1,w
  5928  067F  1D03               	skipz
  5929  0680  2E83               	goto	u178_25
  5930  0681  083C               	movf	___aldiv@divisor,w
  5931  0682  0240               	subwf	___aldiv@dividend,w
  5932  0683                     u178_25:	
  5933  0683  1C03               	skipc
  5934  0684  2E8E               	goto	i1l2095
  5935  0685  083C               	movf	___aldiv@divisor,w
  5936  0686  02C0               	subwf	___aldiv@dividend,f
  5937  0687  083D               	movf	___aldiv@divisor+1,w
  5938  0688  3BC1               	subwfb	___aldiv@dividend+1,f
  5939  0689  083E               	movf	___aldiv@divisor+2,w
  5940  068A  3BC2               	subwfb	___aldiv@dividend+2,f
  5941  068B  083F               	movf	___aldiv@divisor+3,w
  5942  068C  3BC3               	subwfb	___aldiv@dividend+3,f
  5943  068D  1446               	bsf	___aldiv@quotient,0
  5944  068E                     i1l2095:	
  5945  068E  3001               	movlw	1
  5946  068F                     u179_25:	
  5947  068F  36BF               	lsrf	___aldiv@divisor+3,f
  5948  0690  0CBE               	rrf	___aldiv@divisor+2,f
  5949  0691  0CBD               	rrf	___aldiv@divisor+1,f
  5950  0692  0CBC               	rrf	___aldiv@divisor,f
  5951  0693  0B89               	decfsz	9,f
  5952  0694  2E8F               	goto	u179_25
  5953  0695  3001               	movlw	1
  5954  0696  02C4               	subwf	___aldiv@counter,f
  5955  0697  1D03               	btfss	3,2
  5956  0698  2E6E               	goto	i1l2087
  5957  0699                     i1l2099:	
  5958  0699  0845               	movf	___aldiv@sign,w
  5959  069A  1903               	btfsc	3,2
  5960  069B  2EA7               	goto	i1l2103
  5961  069C  09C6               	comf	___aldiv@quotient,f
  5962  069D  09C7               	comf	___aldiv@quotient+1,f
  5963  069E  09C8               	comf	___aldiv@quotient+2,f
  5964  069F  09C9               	comf	___aldiv@quotient+3,f
  5965  06A0  0AC6               	incf	___aldiv@quotient,f
  5966  06A1  1903               	skipnz
  5967  06A2  0AC7               	incf	___aldiv@quotient+1,f
  5968  06A3  1903               	skipnz
  5969  06A4  0AC8               	incf	___aldiv@quotient+2,f
  5970  06A5  1903               	skipnz
  5971  06A6  0AC9               	incf	___aldiv@quotient+3,f
  5972  06A7                     i1l2103:	
  5973  06A7  0849               	movf	___aldiv@quotient+3,w
  5974  06A8  00BF               	movwf	?___aldiv+3
  5975  06A9  0848               	movf	___aldiv@quotient+2,w
  5976  06AA  00BE               	movwf	?___aldiv+2
  5977  06AB  0847               	movf	___aldiv@quotient+1,w
  5978  06AC  00BD               	movwf	?___aldiv+1
  5979  06AD  0846               	movf	___aldiv@quotient,w
  5980  06AE  00BC               	movwf	?___aldiv
  5981  06AF  0008               	return
  5982  06B0                     __end_of___aldiv:	
  5983                           
  5984                           	psect	text34
  5985  0B85                     __ptext34:	
  5986 ;; *************** function _LCD_SetCursor *****************
  5987 ;; Defined at:
  5988 ;;		line 244 in file "PIC16F1827-ChargeStation5-01.h"
  5989 ;; Parameters:    Size  Location     Type
  5990 ;;  col             1    wreg     unsigned char 
  5991 ;;  row             1    7[COMMON] unsigned char 
  5992 ;; Auto vars:     Size  Location     Type
  5993 ;;  col             1   10[COMMON] unsigned char 
  5994 ;;  row_offsets     2    8[COMMON] unsigned char [2]
  5995 ;; Return value:  Size  Location     Type
  5996 ;;		None               void
  5997 ;; Registers used:
  5998 ;;		wreg, fsr1l, fsr1h, status,2, status,0, pclath, cstack
  5999 ;; Tracked objects:
  6000 ;;		On entry : 0/0
  6001 ;;		On exit  : 0/0
  6002 ;;		Unchanged: 0/0
  6003 ;; Data sizes:     COMMON   BANK0   BANK1   BANK2   BANK3   BANK4
  6004 ;;      Params:         1       0       0       0       0       0
  6005 ;;      Locals:         3       0       0       0       0       0
  6006 ;;      Temps:          0       0       0       0       0       0
  6007 ;;      Totals:         4       0       0       0       0       0
  6008 ;;Total ram usage:        4 bytes
  6009 ;; Hardware stack levels used:    1
  6010 ;; Hardware stack levels required when called:    3
  6011 ;; This function calls:
  6012 ;;		i1_LCD_Command
  6013 ;; This function is called by:
  6014 ;;		_display
  6015 ;; This function uses a non-reentrant model
  6016 ;;
  6017                           
  6018                           
  6019                           ;psect for function _LCD_SetCursor
  6020  0B85                     _LCD_SetCursor:	
  6021                           
  6022                           ;incstack = 0
  6023                           ; Regs used in _LCD_SetCursor: [wreg+fsr1l+fsr1h+status,2+status,0+pclath+cstack]
  6024                           ;LCD_SetCursor@col stored from wreg
  6025  0B85  00FA               	movwf	LCD_SetCursor@col
  6026                           
  6027                           ;PIC16F1827-ChargeStation5-01.h: 245: uint8_t row_offsets[] = {0x00, 0x40};
  6028  0B86  0021               	movlb	1	; select bank1
  6029  0B87  086B               	movf	(LCD_SetCursor@F2878+1)^(0+128),w
  6030  0B88  00F9               	movwf	LCD_SetCursor@row_offsets+1
  6031  0B89  086A               	movf	LCD_SetCursor@F2878^(0+128),w
  6032  0B8A  00F8               	movwf	LCD_SetCursor@row_offsets
  6033                           
  6034                           ;PIC16F1827-ChargeStation5-01.h: 247: LCD_Command(0x80 | (col + row_offsets[row]));
  6035  0B8B  0877               	movf	LCD_SetCursor@row,w
  6036  0B8C  3E78               	addlw	(low (LCD_SetCursor@row_offsets| 0))& (0+255)
  6037  0B8D  0086               	movwf	6
  6038  0B8E  0187               	clrf	7
  6039  0B8F  0801               	movf	1,w
  6040  0B90  077A               	addwf	LCD_SetCursor@col,w
  6041  0B91  3880               	iorlw	128
  6042  0B92  318C  2440         	fcall	i1_LCD_Command
  6043  0B94  0008               	return
  6044  0B95                     __end_of_LCD_SetCursor:	
  6045                           
  6046                           	psect	text35
  6047  0C40                     __ptext35:	
  6048 ;; *************** function i1_LCD_Command *****************
  6049 ;; Defined at:
  6050 ;;		line 226 in file "PIC16F1827-ChargeStation5-01.h"
  6051 ;; Parameters:    Size  Location     Type
  6052 ;;  c               1    wreg     unsigned char 
  6053 ;; Auto vars:     Size  Location     Type
  6054 ;;  c               1    5[COMMON] unsigned char 
  6055 ;;  LCD_Command     1    6[COMMON] unsigned char 
  6056 ;; Return value:  Size  Location     Type
  6057 ;;		None               void
  6058 ;; Registers used:
  6059 ;;		wreg, status,2, status,0, pclath, cstack
  6060 ;; Tracked objects:
  6061 ;;		On entry : 0/0
  6062 ;;		On exit  : 0/0
  6063 ;;		Unchanged: 0/0
  6064 ;; Data sizes:     COMMON   BANK0   BANK1   BANK2   BANK3   BANK4
  6065 ;;      Params:         0       0       0       0       0       0
  6066 ;;      Locals:         2       0       0       0       0       0
  6067 ;;      Temps:          1       0       0       0       0       0
  6068 ;;      Totals:         3       0       0       0       0       0
  6069 ;;Total ram usage:        3 bytes
  6070 ;; Hardware stack levels used:    1
  6071 ;; Hardware stack levels required when called:    2
  6072 ;; This function calls:
  6073 ;;		i1_I2C_Send
  6074 ;;		i1_I2C_Start
  6075 ;;		i1_I2C_Stop
  6076 ;; This function is called by:
  6077 ;;		_LCD_SetCursor
  6078 ;;		i1_LCD_Clear
  6079 ;; This function uses a non-reentrant model
  6080 ;;
  6081                           
  6082                           
  6083                           ;psect for function i1_LCD_Command
  6084  0C40                     i1_LCD_Command:	
  6085                           
  6086                           ;incstack = 0
  6087                           ; Regs used in i1_LCD_Command: [wreg+status,2+status,0+pclath+cstack]
  6088                           ;i1LCD_Command@c stored from wreg
  6089  0C40  00F5               	movwf	i1LCD_Command@c
  6090                           
  6091                           ;PIC16F1827-ChargeStation5-01.h: 227: uint8_t ans;
  6092                           ;PIC16F1827-ChargeStation5-01.h: 229: ans = I2C_Start(0x3E, 0);
  6093  0C41  01F2               	clrf	i1I2C_Start@rw
  6094  0C42  303E               	movlw	62
  6095  0C43  318B  23F0  318C   	fcall	i1_I2C_Start
  6096  0C46  00F4               	movwf	??i1_LCD_Command
  6097  0C47  0874               	movf	??i1_LCD_Command,w
  6098  0C48  00F6               	movwf	i1LCD_Command@ans
  6099                           
  6100                           ;PIC16F1827-ChargeStation5-01.h: 230: if (ans == 0) {
  6101  0C49  0876               	movf	i1LCD_Command@ans,w
  6102  0C4A  1D03               	btfss	3,2
  6103  0C4B  2C54               	goto	i1l179
  6104                           
  6105                           ;PIC16F1827-ChargeStation5-01.h: 232: I2C_Send(0b10000000);
  6106  0C4C  3080               	movlw	128
  6107  0C4D  318B  2375  318C   	fcall	i1_I2C_Send
  6108                           
  6109                           ;PIC16F1827-ChargeStation5-01.h: 233: I2C_Send(c);
  6110  0C50  0875               	movf	i1LCD_Command@c,w
  6111  0C51  318B  2375  318C   	fcall	i1_I2C_Send
  6112  0C54                     i1l179:	
  6113                           
  6114                           ;PIC16F1827-ChargeStation5-01.h: 234: }
  6115                           ;PIC16F1827-ChargeStation5-01.h: 235: I2C_Stop();
  6116  0C54  318B  2321  318C   	fcall	i1_I2C_Stop
  6117                           
  6118                           ;PIC16F1827-ChargeStation5-01.h: 236: _delay((unsigned long)((26)*(32000000/4000000.0)))
      +                          ;
  6119  0C57  3045               	movlw	69
  6120  0C58  00F4               	movwf	??i1_LCD_Command
  6121  0C59                     u379_27:	
  6122  0C59  0BF4               	decfsz	??i1_LCD_Command,f
  6123  0C5A  2C59               	goto	u379_27
  6124  0C5B  0008               	return
  6125  0C5C                     __end_ofi1_LCD_Command:	
  6126                           
  6127                           	psect	text36
  6128  0E4B                     __ptext36:	
  6129 ;; *************** function _LCD_Puts *****************
  6130 ;; Defined at:
  6131 ;;		line 263 in file "PIC16F1827-ChargeStation5-01.h"
  6132 ;; Parameters:    Size  Location     Type
  6133 ;;  s               2    4[COMMON] PTR const unsigned char 
  6134 ;;		 -> STR_12(10), STR_11(10), STR_10(8), STR_9(7), 
  6135 ;;		 -> STR_8(4), STR_7(5), STR_6(7), STR_5(6), 
  6136 ;;		 -> STR_4(5), STR_3(7), STR_2(6), STR_1(17), 
  6137 ;; Auto vars:     Size  Location     Type
  6138 ;;  ans             2    8[COMMON] int 
  6139 ;; Return value:  Size  Location     Type
  6140 ;;		None               void
  6141 ;; Registers used:
  6142 ;;		wreg, fsr0l, fsr0h, status,2, status,0, pclath, cstack
  6143 ;; Tracked objects:
  6144 ;;		On entry : 0/0
  6145 ;;		On exit  : 0/0
  6146 ;;		Unchanged: 0/0
  6147 ;; Data sizes:     COMMON   BANK0   BANK1   BANK2   BANK3   BANK4
  6148 ;;      Params:         2       0       0       0       0       0
  6149 ;;      Locals:         2       0       0       0       0       0
  6150 ;;      Temps:          2       0       0       0       0       0
  6151 ;;      Totals:         6       0       0       0       0       0
  6152 ;;Total ram usage:        6 bytes
  6153 ;; Hardware stack levels used:    1
  6154 ;; Hardware stack levels required when called:    2
  6155 ;; This function calls:
  6156 ;;		i1_I2C_Send
  6157 ;;		i1_I2C_Start
  6158 ;;		i1_I2C_Stop
  6159 ;; This function is called by:
  6160 ;;		_display
  6161 ;; This function uses a non-reentrant model
  6162 ;;
  6163                           
  6164                           
  6165                           ;psect for function _LCD_Puts
  6166  0E4B                     _LCD_Puts:	
  6167                           
  6168                           ;PIC16F1827-ChargeStation5-01.h: 264: int ans;
  6169                           ;PIC16F1827-ChargeStation5-01.h: 266: ans = I2C_Start(0x3E, 0);
  6170                           
  6171                           ;incstack = 0
  6172                           ; Regs used in _LCD_Puts: [wreg-fsr0h+status,2+status,0+pclath+cstack]
  6173  0E4B  01F2               	clrf	i1I2C_Start@rw
  6174  0E4C  303E               	movlw	62
  6175  0E4D  318B  23F0  318E   	fcall	i1_I2C_Start
  6176  0E50  00F6               	movwf	??_LCD_Puts
  6177  0E51  01F7               	clrf	??_LCD_Puts+1
  6178  0E52  0876               	movf	??_LCD_Puts,w
  6179  0E53  00F8               	movwf	LCD_Puts@ans
  6180  0E54  0877               	movf	??_LCD_Puts+1,w
  6181  0E55  00F9               	movwf	LCD_Puts@ans+1
  6182                           
  6183                           ;PIC16F1827-ChargeStation5-01.h: 267: if (ans == 0) {
  6184  0E56  0878               	movf	LCD_Puts@ans,w
  6185  0E57  0479               	iorwf	LCD_Puts@ans+1,w
  6186  0E58  1D03               	btfss	3,2
  6187  0E59  2E76               	goto	i1l2043
  6188                           
  6189                           ;PIC16F1827-ChargeStation5-01.h: 268: I2C_Send(0b01000000);
  6190  0E5A  3040               	movlw	64
  6191  0E5B  318B  2375  318E   	fcall	i1_I2C_Send
  6192  0E5E                     i1l2041:	
  6193                           ;PIC16F1827-ChargeStation5-01.h: 269: while (*s) {
  6194                           
  6195  0E5E  0874               	movf	LCD_Puts@s,w
  6196  0E5F  0084               	movwf	4
  6197  0E60  0875               	movf	LCD_Puts@s+1,w
  6198  0E61  0085               	movwf	5
  6199  0E62  0012               	moviw fsr0++
  6200  0E63  1903               	btfsc	3,2
  6201  0E64  2E76               	goto	i1l2043
  6202                           
  6203                           ;PIC16F1827-ChargeStation5-01.h: 270: I2C_Send(*s++);
  6204  0E65  0874               	movf	LCD_Puts@s,w
  6205  0E66  0084               	movwf	4
  6206  0E67  0875               	movf	LCD_Puts@s+1,w
  6207  0E68  0085               	movwf	5
  6208  0E69  0800               	movf	0,w	;code access
  6209  0E6A  318B  2375  318E   	fcall	i1_I2C_Send
  6210  0E6D  3001               	movlw	1
  6211  0E6E  07F4               	addwf	LCD_Puts@s,f
  6212  0E6F  3000               	movlw	0
  6213  0E70  3DF5               	addwfc	LCD_Puts@s+1,f
  6214                           
  6215                           ;PIC16F1827-ChargeStation5-01.h: 271: _delay((unsigned long)((26)*(32000000/4000000.0)))
      +                          ;
  6216  0E71  3045               	movlw	69
  6217  0E72  00F6               	movwf	??_LCD_Puts
  6218  0E73                     u380_27:	
  6219  0E73  0BF6               	decfsz	??_LCD_Puts,f
  6220  0E74  2E73               	goto	u380_27
  6221  0E75  2E5E               	goto	i1l2041
  6222  0E76                     i1l2043:	
  6223                           
  6224                           ;PIC16F1827-ChargeStation5-01.h: 272: }
  6225                           ;PIC16F1827-ChargeStation5-01.h: 273: }
  6226                           ;PIC16F1827-ChargeStation5-01.h: 274: I2C_Stop();
  6227  0E76  318B  2321         	fcall	i1_I2C_Stop
  6228  0E78  0008               	return
  6229  0E79                     __end_of_LCD_Puts:	
  6230                           
  6231                           	psect	text37
  6232  0C24                     __ptext37:	
  6233 ;; *************** function _LCD_Putc *****************
  6234 ;; Defined at:
  6235 ;;		line 250 in file "PIC16F1827-ChargeStation5-01.h"
  6236 ;; Parameters:    Size  Location     Type
  6237 ;;  c               1    wreg     unsigned char 
  6238 ;; Auto vars:     Size  Location     Type
  6239 ;;  c               1    5[COMMON] unsigned char 
  6240 ;;  ans             1    6[COMMON] unsigned char 
  6241 ;; Return value:  Size  Location     Type
  6242 ;;		None               void
  6243 ;; Registers used:
  6244 ;;		wreg, status,2, status,0, pclath, cstack
  6245 ;; Tracked objects:
  6246 ;;		On entry : 0/0
  6247 ;;		On exit  : 0/0
  6248 ;;		Unchanged: 0/0
  6249 ;; Data sizes:     COMMON   BANK0   BANK1   BANK2   BANK3   BANK4
  6250 ;;      Params:         0       0       0       0       0       0
  6251 ;;      Locals:         2       0       0       0       0       0
  6252 ;;      Temps:          1       0       0       0       0       0
  6253 ;;      Totals:         3       0       0       0       0       0
  6254 ;;Total ram usage:        3 bytes
  6255 ;; Hardware stack levels used:    1
  6256 ;; Hardware stack levels required when called:    2
  6257 ;; This function calls:
  6258 ;;		i1_I2C_Send
  6259 ;;		i1_I2C_Start
  6260 ;;		i1_I2C_Stop
  6261 ;; This function is called by:
  6262 ;;		_display
  6263 ;; This function uses a non-reentrant model
  6264 ;;
  6265                           
  6266                           
  6267                           ;psect for function _LCD_Putc
  6268  0C24                     _LCD_Putc:	
  6269                           
  6270                           ;incstack = 0
  6271                           ; Regs used in _LCD_Putc: [wreg+status,2+status,0+pclath+cstack]
  6272                           ;LCD_Putc@c stored from wreg
  6273  0C24  00F5               	movwf	LCD_Putc@c
  6274                           
  6275                           ;PIC16F1827-ChargeStation5-01.h: 251: uint8_t ans;
  6276                           ;PIC16F1827-ChargeStation5-01.h: 253: ans = I2C_Start(0x3E, 0);
  6277  0C25  01F2               	clrf	i1I2C_Start@rw
  6278  0C26  303E               	movlw	62
  6279  0C27  318B  23F0  318C   	fcall	i1_I2C_Start
  6280  0C2A  00F4               	movwf	??_LCD_Putc
  6281  0C2B  0874               	movf	??_LCD_Putc,w
  6282  0C2C  00F6               	movwf	LCD_Putc@ans
  6283                           
  6284                           ;PIC16F1827-ChargeStation5-01.h: 254: if (ans == 0) {
  6285  0C2D  0876               	movf	LCD_Putc@ans,w
  6286  0C2E  1D03               	btfss	3,2
  6287  0C2F  2C38               	goto	i1l191
  6288                           
  6289                           ;PIC16F1827-ChargeStation5-01.h: 256: I2C_Send(0b11000000);
  6290  0C30  30C0               	movlw	192
  6291  0C31  318B  2375  318C   	fcall	i1_I2C_Send
  6292                           
  6293                           ;PIC16F1827-ChargeStation5-01.h: 257: I2C_Send(c);
  6294  0C34  0875               	movf	LCD_Putc@c,w
  6295  0C35  318B  2375  318C   	fcall	i1_I2C_Send
  6296  0C38                     i1l191:	
  6297                           
  6298                           ;PIC16F1827-ChargeStation5-01.h: 258: }
  6299                           ;PIC16F1827-ChargeStation5-01.h: 259: I2C_Stop();
  6300  0C38  318B  2321  318C   	fcall	i1_I2C_Stop
  6301                           
  6302                           ;PIC16F1827-ChargeStation5-01.h: 260: _delay((unsigned long)((26)*(32000000/4000000.0)))
      +                          ;
  6303  0C3B  3045               	movlw	69
  6304  0C3C  00F4               	movwf	??_LCD_Putc
  6305  0C3D                     u381_27:	
  6306  0C3D  0BF4               	decfsz	??_LCD_Putc,f
  6307  0C3E  2C3D               	goto	u381_27
  6308  0C3F  0008               	return
  6309  0C40                     __end_of_LCD_Putc:	
  6310                           
  6311                           	psect	text38
  6312  0B21                     __ptext38:	
  6313 ;; *************** function i1_I2C_Stop *****************
  6314 ;; Defined at:
  6315 ;;		line 196 in file "PIC16F1827-ChargeStation5-01.h"
  6316 ;; Parameters:    Size  Location     Type
  6317 ;;		None
  6318 ;; Auto vars:     Size  Location     Type
  6319 ;;		None
  6320 ;; Return value:  Size  Location     Type
  6321 ;;		None               void
  6322 ;; Registers used:
  6323 ;;		wreg, status,2, status,0, pclath, cstack
  6324 ;; Tracked objects:
  6325 ;;		On entry : 0/0
  6326 ;;		On exit  : 0/0
  6327 ;;		Unchanged: 0/0
  6328 ;; Data sizes:     COMMON   BANK0   BANK1   BANK2   BANK3   BANK4
  6329 ;;      Params:         0       0       0       0       0       0
  6330 ;;      Locals:         0       0       0       0       0       0
  6331 ;;      Temps:          0       0       0       0       0       0
  6332 ;;      Totals:         0       0       0       0       0       0
  6333 ;;Total ram usage:        0 bytes
  6334 ;; Hardware stack levels used:    1
  6335 ;; Hardware stack levels required when called:    1
  6336 ;; This function calls:
  6337 ;;		i1_I2C_IdleCheck
  6338 ;; This function is called by:
  6339 ;;		_LCD_Putc
  6340 ;;		_LCD_Puts
  6341 ;;		i1_LCD_Command
  6342 ;; This function uses a non-reentrant model
  6343 ;;
  6344                           
  6345                           
  6346                           ;psect for function i1_I2C_Stop
  6347  0B21                     i1_I2C_Stop:	
  6348                           
  6349                           ;PIC16F1827-ChargeStation5-01.h: 198: I2C_IdleCheck(0x5);
  6350                           
  6351                           ;incstack = 0
  6352                           ; Regs used in i1_I2C_Stop: [wreg+status,2+status,0+pclath+cstack]
  6353  0B21  3005               	movlw	5
  6354  0B22  318B  2333         	fcall	i1_I2C_IdleCheck
  6355                           
  6356                           ;PIC16F1827-ChargeStation5-01.h: 199: SSP1CON2bits.PEN = 1;
  6357  0B24  0024               	movlb	4	; select bank4
  6358  0B25  1516               	bsf	22,2	;volatile
  6359  0B26  0008               	return
  6360  0B27                     __end_ofi1_I2C_Stop:	
  6361                           
  6362                           	psect	text39
  6363  0BF0                     __ptext39:	
  6364 ;; *************** function i1_I2C_Start *****************
  6365 ;; Defined at:
  6366 ;;		line 172 in file "PIC16F1827-ChargeStation5-01.h"
  6367 ;; Parameters:    Size  Location     Type
  6368 ;;  adrs            1    wreg     unsigned char 
  6369 ;;  rw              1    2[COMMON] unsigned char 
  6370 ;; Auto vars:     Size  Location     Type
  6371 ;;  adrs            1    3[COMMON] unsigned char 
  6372 ;; Return value:  Size  Location     Type
  6373 ;;                  1    wreg      unsigned char 
  6374 ;; Registers used:
  6375 ;;		wreg, status,2, status,0, pclath, cstack
  6376 ;; Tracked objects:
  6377 ;;		On entry : 0/0
  6378 ;;		On exit  : 0/0
  6379 ;;		Unchanged: 0/0
  6380 ;; Data sizes:     COMMON   BANK0   BANK1   BANK2   BANK3   BANK4
  6381 ;;      Params:         1       0       0       0       0       0
  6382 ;;      Locals:         1       0       0       0       0       0
  6383 ;;      Temps:          0       0       0       0       0       0
  6384 ;;      Totals:         2       0       0       0       0       0
  6385 ;;Total ram usage:        2 bytes
  6386 ;; Hardware stack levels used:    1
  6387 ;; Hardware stack levels required when called:    1
  6388 ;; This function calls:
  6389 ;;		i1_I2C_IdleCheck
  6390 ;; This function is called by:
  6391 ;;		_LCD_Putc
  6392 ;;		_LCD_Puts
  6393 ;;		i1_LCD_Command
  6394 ;; This function uses a non-reentrant model
  6395 ;;
  6396                           
  6397                           
  6398                           ;psect for function i1_I2C_Start
  6399  0BF0                     i1_I2C_Start:	
  6400                           
  6401                           ;incstack = 0
  6402                           ; Regs used in i1_I2C_Start: [wreg+status,2+status,0+pclath+cstack]
  6403                           ;i1I2C_Start@adrs stored from wreg
  6404  0BF0  00F3               	movwf	i1I2C_Start@adrs
  6405                           
  6406                           ;PIC16F1827-ChargeStation5-01.h: 174: I2C_IdleCheck(0x5);
  6407  0BF1  3005               	movlw	5
  6408  0BF2  318B  2333  318B   	fcall	i1_I2C_IdleCheck
  6409                           
  6410                           ;PIC16F1827-ChargeStation5-01.h: 175: SSP1CON2bits.SEN = 1;
  6411  0BF5  0024               	movlb	4	; select bank4
  6412  0BF6  1416               	bsf	22,0	;volatile
  6413                           
  6414                           ;PIC16F1827-ChargeStation5-01.h: 177: I2C_IdleCheck(0x5);
  6415  0BF7  3005               	movlw	5
  6416  0BF8  318B  2333  318B   	fcall	i1_I2C_IdleCheck
  6417                           
  6418                           ;PIC16F1827-ChargeStation5-01.h: 178: SSP1IF = 0;
  6419  0BFB  0020               	movlb	0	; select bank0
  6420  0BFC  1191               	bcf	17,3	;volatile
  6421                           
  6422                           ;PIC16F1827-ChargeStation5-01.h: 179: SSP1BUF = (uint8_t) ((adrs << 1) + rw);
  6423  0BFD  3573               	lslf	i1I2C_Start@adrs,w
  6424  0BFE  0772               	addwf	i1I2C_Start@rw,w
  6425  0BFF  0024               	movlb	4	; select bank4
  6426  0C00  0091               	movwf	17	;volatile
  6427  0C01                     i1l155:	
  6428                           ;PIC16F1827-ChargeStation5-01.h: 180: while (!SSP1IF);
  6429                           
  6430  0C01  0020               	movlb	0	; select bank0
  6431  0C02  1D91               	btfss	17,3	;volatile
  6432  0C03  2C01               	goto	i1l155
  6433                           
  6434                           ;PIC16F1827-ChargeStation5-01.h: 181: return SSP1CON2bits.ACKSTAT;
  6435  0C04  0024               	movlb	4	; select bank4
  6436  0C05  0E16               	swapf	22,w	;volatile
  6437  0C06  0C89               	rrf	9,f
  6438  0C07  0C89               	rrf	9,f
  6439  0C08  3901               	andlw	1
  6440  0C09  0008               	return
  6441  0C0A                     __end_ofi1_I2C_Start:	
  6442                           
  6443                           	psect	text40
  6444  0B75                     __ptext40:	
  6445 ;; *************** function i1_I2C_Send *****************
  6446 ;; Defined at:
  6447 ;;		line 202 in file "PIC16F1827-ChargeStation5-01.h"
  6448 ;; Parameters:    Size  Location     Type
  6449 ;;  data            1    wreg     unsigned char 
  6450 ;; Auto vars:     Size  Location     Type
  6451 ;;  data            1    2[COMMON] unsigned char 
  6452 ;; Return value:  Size  Location     Type
  6453 ;;                  1    wreg      unsigned char 
  6454 ;; Registers used:
  6455 ;;		wreg, status,2, status,0, pclath, cstack
  6456 ;; Tracked objects:
  6457 ;;		On entry : 0/0
  6458 ;;		On exit  : 0/0
  6459 ;;		Unchanged: 0/0
  6460 ;; Data sizes:     COMMON   BANK0   BANK1   BANK2   BANK3   BANK4
  6461 ;;      Params:         0       0       0       0       0       0
  6462 ;;      Locals:         1       0       0       0       0       0
  6463 ;;      Temps:          0       0       0       0       0       0
  6464 ;;      Totals:         1       0       0       0       0       0
  6465 ;;Total ram usage:        1 bytes
  6466 ;; Hardware stack levels used:    1
  6467 ;; Hardware stack levels required when called:    1
  6468 ;; This function calls:
  6469 ;;		i1_I2C_IdleCheck
  6470 ;; This function is called by:
  6471 ;;		_LCD_Putc
  6472 ;;		_LCD_Puts
  6473 ;;		i1_LCD_Command
  6474 ;; This function uses a non-reentrant model
  6475 ;;
  6476                           
  6477                           
  6478                           ;psect for function i1_I2C_Send
  6479  0B75                     i1_I2C_Send:	
  6480                           
  6481                           ;incstack = 0
  6482                           ; Regs used in i1_I2C_Send: [wreg+status,2+status,0+pclath+cstack]
  6483                           ;i1I2C_Send@data stored from wreg
  6484  0B75  00F2               	movwf	i1I2C_Send@data
  6485                           
  6486                           ;PIC16F1827-ChargeStation5-01.h: 203: I2C_IdleCheck(0x5);
  6487  0B76  3005               	movlw	5
  6488  0B77  318B  2333  318B   	fcall	i1_I2C_IdleCheck
  6489                           
  6490                           ;PIC16F1827-ChargeStation5-01.h: 204: SSP1IF = 0;
  6491  0B7A  0020               	movlb	0	; select bank0
  6492  0B7B  1191               	bcf	17,3	;volatile
  6493                           
  6494                           ;PIC16F1827-ChargeStation5-01.h: 205: SSP1BUF = data;
  6495  0B7C  0872               	movf	i1I2C_Send@data,w
  6496  0B7D  0024               	movlb	4	; select bank4
  6497  0B7E  0091               	movwf	17	;volatile
  6498  0B7F                     i1l170:	
  6499                           ;PIC16F1827-ChargeStation5-01.h: 206: while (!SSP1IF);
  6500                           
  6501  0B7F  0020               	movlb	0	; select bank0
  6502  0B80  1D91               	btfss	17,3	;volatile
  6503  0B81  2B7F               	goto	i1l170
  6504                           
  6505                           ;PIC16F1827-ChargeStation5-01.h: 207: return SSP1CON2bits.ACKSTAT;
  6506                           ;	Return value of i1_I2C_Send is never used
  6507  0B82  0024               	movlb	4	; select bank4
  6508  0B83  0816               	movf	22,w	;volatile
  6509  0B84  0008               	return
  6510  0B85                     __end_ofi1_I2C_Send:	
  6511                           
  6512                           	psect	text41
  6513  0B33                     __ptext41:	
  6514 ;; *************** function i1_I2C_IdleCheck *****************
  6515 ;; Defined at:
  6516 ;;		line 158 in file "PIC16F1827-ChargeStation5-01.h"
  6517 ;; Parameters:    Size  Location     Type
  6518 ;;  mask            1    wreg     unsigned char 
  6519 ;; Auto vars:     Size  Location     Type
  6520 ;;  mask            1    1[COMMON] unsigned char 
  6521 ;; Return value:  Size  Location     Type
  6522 ;;		None               void
  6523 ;; Registers used:
  6524 ;;		wreg, status,2, status,0
  6525 ;; Tracked objects:
  6526 ;;		On entry : 0/0
  6527 ;;		On exit  : 0/0
  6528 ;;		Unchanged: 0/0
  6529 ;; Data sizes:     COMMON   BANK0   BANK1   BANK2   BANK3   BANK4
  6530 ;;      Params:         0       0       0       0       0       0
  6531 ;;      Locals:         1       0       0       0       0       0
  6532 ;;      Temps:          1       0       0       0       0       0
  6533 ;;      Totals:         2       0       0       0       0       0
  6534 ;;Total ram usage:        2 bytes
  6535 ;; Hardware stack levels used:    1
  6536 ;; This function calls:
  6537 ;;		Nothing
  6538 ;; This function is called by:
  6539 ;;		i1_I2C_Start
  6540 ;;		i1_I2C_Stop
  6541 ;;		i1_I2C_Send
  6542 ;; This function uses a non-reentrant model
  6543 ;;
  6544                           
  6545                           
  6546                           ;psect for function i1_I2C_IdleCheck
  6547  0B33                     i1_I2C_IdleCheck:	
  6548                           
  6549                           ;incstack = 0
  6550                           ; Regs used in i1_I2C_IdleCheck: [wreg+status,2+status,0]
  6551                           ;i1I2C_IdleCheck@mask stored from wreg
  6552  0B33  00F1               	movwf	i1I2C_IdleCheck@mask
  6553  0B34                     i1l1905:	
  6554                           ;PIC16F1827-ChargeStation5-01.h: 159: while ((SSP1CON2 & 0x1F) | (SSP1STAT & mask));
  6555                           
  6556  0B34  0871               	movf	i1I2C_IdleCheck@mask,w
  6557  0B35  0024               	movlb	4	; select bank4
  6558  0B36  0514               	andwf	20,w	;volatile
  6559  0B37  00F0               	movwf	??i1_I2C_IdleCheck
  6560  0B38  0816               	movf	22,w	;volatile
  6561  0B39  391F               	andlw	31
  6562  0B3A  0470               	iorwf	??i1_I2C_IdleCheck,w
  6563  0B3B  1903               	btfsc	3,2
  6564  0B3C  0008               	return
  6565  0B3D  2B34               	goto	i1l1905
  6566  0B3E                     __end_ofi1_I2C_IdleCheck:	
  6567                           
  6568                           	psect	text42
  6569  0579                     __ptext42:	
  6570 ;; *************** function _button_timer_interrupt *****************
  6571 ;; Defined at:
  6572 ;;		line 86 in file "PIC16F1827-ChargeStation5-01.h"
  6573 ;; Parameters:    Size  Location     Type
  6574 ;;  bt              1    wreg     PTR struct button
  6575 ;;		 -> sw_1(3), sw_0(3), sh_2(3), sh_1(3), 
  6576 ;;		 -> sh_0(3), 
  6577 ;;  sw_value        1    0[COMMON] unsigned char 
  6578 ;; Auto vars:     Size  Location     Type
  6579 ;;  bt              1    3[COMMON] PTR struct button
  6580 ;;		 -> sw_1(3), sw_0(3), sh_2(3), sh_1(3), 
  6581 ;;		 -> sh_0(3), 
  6582 ;; Return value:  Size  Location     Type
  6583 ;;		None               void
  6584 ;; Registers used:
  6585 ;;		wreg, fsr1l, fsr1h, status,2, status,0
  6586 ;; Tracked objects:
  6587 ;;		On entry : 0/0
  6588 ;;		On exit  : 0/0
  6589 ;;		Unchanged: 0/0
  6590 ;; Data sizes:     COMMON   BANK0   BANK1   BANK2   BANK3   BANK4
  6591 ;;      Params:         1       0       0       0       0       0
  6592 ;;      Locals:         1       0       0       0       0       0
  6593 ;;      Temps:          2       0       0       0       0       0
  6594 ;;      Totals:         4       0       0       0       0       0
  6595 ;;Total ram usage:        4 bytes
  6596 ;; Hardware stack levels used:    1
  6597 ;; This function calls:
  6598 ;;		Nothing
  6599 ;; This function is called by:
  6600 ;;		_isr
  6601 ;; This function uses a non-reentrant model
  6602 ;;
  6603                           
  6604                           
  6605                           ;psect for function _button_timer_interrupt
  6606  0579                     _button_timer_interrupt:	
  6607                           
  6608                           ;incstack = 0
  6609                           ; Regs used in _button_timer_interrupt: [wreg+fsr1l+fsr1h+status,2+status,0]
  6610                           ;button_timer_interrupt@bt stored from wreg
  6611  0579  00F3               	movwf	button_timer_interrupt@bt
  6612                           
  6613                           ;PIC16F1827-ChargeStation5-01.h: 87: if (sw_value) {
  6614  057A  0870               	movf	button_timer_interrupt@sw_value,w
  6615  057B  1903               	btfsc	3,2
  6616  057C  2DD0               	goto	i1l2267
  6617                           
  6618                           ;PIC16F1827-ChargeStation5-01.h: 88: if (bt->cnt_sw < 150 + 1) bt->cnt_sw++;
  6619  057D  0873               	movf	button_timer_interrupt@bt,w
  6620  057E  0086               	movwf	6
  6621  057F  0187               	clrf	7
  6622  0580  3F40               	moviw [0]fsr1
  6623  0581  00F1               	movwf	??_button_timer_interrupt
  6624  0582  3F41               	moviw [1]fsr1
  6625  0583  00F2               	movwf	??_button_timer_interrupt+1
  6626  0584  3000               	movlw	0
  6627  0585  0272               	subwf	??_button_timer_interrupt+1,w
  6628  0586  3097               	movlw	151
  6629  0587  1903               	skipnz
  6630  0588  0271               	subwf	??_button_timer_interrupt,w
  6631  0589  1803               	skipnc
  6632  058A  2D93               	goto	i1l108
  6633  058B  0873               	movf	button_timer_interrupt@bt,w
  6634  058C  0086               	movwf	6
  6635  058D  0187               	clrf	7
  6636  058E  3001               	movlw	1
  6637  058F  0781               	addwf	1,f
  6638  0590  3141               	addfsr 1,1
  6639  0591  1803               	skipnc
  6640  0592  0A81               	incf	1,f
  6641  0593                     i1l108:	
  6642                           
  6643                           ;PIC16F1827-ChargeStation5-01.h: 89: if (bt->cnt_sw == 150)bt->flag.long_holding_3 = 1;
  6644  0593  0873               	movf	button_timer_interrupt@bt,w
  6645  0594  0086               	movwf	6
  6646  0595  0187               	clrf	7
  6647  0596  0016               	moviw fsr1++
  6648  0597  3A96               	xorlw	150
  6649  0598  00F1               	movwf	??_button_timer_interrupt
  6650  0599  0016               	moviw fsr1++
  6651  059A  04F1               	iorwf	??_button_timer_interrupt,f
  6652  059B  1D03               	btfss	3,2
  6653  059C  2DA2               	goto	i1l109
  6654  059D  0873               	movf	button_timer_interrupt@bt,w
  6655  059E  3E02               	addlw	2
  6656  059F  0086               	movwf	6
  6657  05A0  0187               	clrf	7
  6658  05A1  1781               	bsf	1,7
  6659  05A2                     i1l109:	
  6660                           
  6661                           ;PIC16F1827-ChargeStation5-01.h: 90: if (bt->cnt_sw == 75)bt->flag.long_holding_2 = 1;
  6662  05A2  0873               	movf	button_timer_interrupt@bt,w
  6663  05A3  0086               	movwf	6
  6664  05A4  0187               	clrf	7
  6665  05A5  0016               	moviw fsr1++
  6666  05A6  3A4B               	xorlw	75
  6667  05A7  00F1               	movwf	??_button_timer_interrupt
  6668  05A8  0016               	moviw fsr1++
  6669  05A9  04F1               	iorwf	??_button_timer_interrupt,f
  6670  05AA  1D03               	btfss	3,2
  6671  05AB  2DB1               	goto	i1l110
  6672  05AC  0873               	movf	button_timer_interrupt@bt,w
  6673  05AD  3E02               	addlw	2
  6674  05AE  0086               	movwf	6
  6675  05AF  0187               	clrf	7
  6676  05B0  1701               	bsf	1,6
  6677  05B1                     i1l110:	
  6678                           
  6679                           ;PIC16F1827-ChargeStation5-01.h: 91: if (bt->cnt_sw == 30)bt->flag.long_holding_1 = 1;
  6680  05B1  0873               	movf	button_timer_interrupt@bt,w
  6681  05B2  0086               	movwf	6
  6682  05B3  0187               	clrf	7
  6683  05B4  0016               	moviw fsr1++
  6684  05B5  3A1E               	xorlw	30
  6685  05B6  00F1               	movwf	??_button_timer_interrupt
  6686  05B7  0016               	moviw fsr1++
  6687  05B8  04F1               	iorwf	??_button_timer_interrupt,f
  6688  05B9  1D03               	btfss	3,2
  6689  05BA  2DC0               	goto	i1l111
  6690  05BB  0873               	movf	button_timer_interrupt@bt,w
  6691  05BC  3E02               	addlw	2
  6692  05BD  0086               	movwf	6
  6693  05BE  0187               	clrf	7
  6694  05BF  1681               	bsf	1,5
  6695  05C0                     i1l111:	
  6696                           
  6697                           ;PIC16F1827-ChargeStation5-01.h: 92: if (bt->cnt_sw == 2)bt->flag.pressing = 1;
  6698  05C0  0873               	movf	button_timer_interrupt@bt,w
  6699  05C1  0086               	movwf	6
  6700  05C2  0187               	clrf	7
  6701  05C3  0016               	moviw fsr1++
  6702  05C4  3A02               	xorlw	2
  6703  05C5  00F1               	movwf	??_button_timer_interrupt
  6704  05C6  0016               	moviw fsr1++
  6705  05C7  04F1               	iorwf	??_button_timer_interrupt,f
  6706  05C8  1D03               	btfss	3,2
  6707  05C9  0008               	return
  6708  05CA  0873               	movf	button_timer_interrupt@bt,w
  6709  05CB  3E02               	addlw	2
  6710  05CC  0086               	movwf	6
  6711  05CD  0187               	clrf	7
  6712  05CE  1601               	bsf	1,4
  6713                           
  6714                           ;PIC16F1827-ChargeStation5-01.h: 93: } else {
  6715  05CF  0008               	return
  6716  05D0                     i1l2267:	
  6717                           
  6718                           ;PIC16F1827-ChargeStation5-01.h: 94: if (bt->cnt_sw >= 150)bt->flag.long_hold_3 = 1;
  6719  05D0  0873               	movf	button_timer_interrupt@bt,w
  6720  05D1  0086               	movwf	6
  6721  05D2  0187               	clrf	7
  6722  05D3  3F40               	moviw [0]fsr1
  6723  05D4  00F1               	movwf	??_button_timer_interrupt
  6724  05D5  3F41               	moviw [1]fsr1
  6725  05D6  00F2               	movwf	??_button_timer_interrupt+1
  6726  05D7  3000               	movlw	0
  6727  05D8  0272               	subwf	??_button_timer_interrupt+1,w
  6728  05D9  3096               	movlw	150
  6729  05DA  1903               	skipnz
  6730  05DB  0271               	subwf	??_button_timer_interrupt,w
  6731  05DC  1C03               	skipc
  6732  05DD  2DE4               	goto	i1l2271
  6733  05DE  0873               	movf	button_timer_interrupt@bt,w
  6734  05DF  3E02               	addlw	2
  6735  05E0  0086               	movwf	6
  6736  05E1  0187               	clrf	7
  6737  05E2  1581               	bsf	1,3
  6738  05E3  2E1F               	goto	i1l2283
  6739  05E4                     i1l2271:	
  6740                           
  6741                           ;PIC16F1827-ChargeStation5-01.h: 95: else if (bt->cnt_sw >= 75)bt->flag.long_hold_2 = 1;
  6742  05E4  0873               	movf	button_timer_interrupt@bt,w
  6743  05E5  0086               	movwf	6
  6744  05E6  0187               	clrf	7
  6745  05E7  3F40               	moviw [0]fsr1
  6746  05E8  00F1               	movwf	??_button_timer_interrupt
  6747  05E9  3F41               	moviw [1]fsr1
  6748  05EA  00F2               	movwf	??_button_timer_interrupt+1
  6749  05EB  3000               	movlw	0
  6750  05EC  0272               	subwf	??_button_timer_interrupt+1,w
  6751  05ED  304B               	movlw	75
  6752  05EE  1903               	skipnz
  6753  05EF  0271               	subwf	??_button_timer_interrupt,w
  6754  05F0  1C03               	skipc
  6755  05F1  2DF8               	goto	i1l2275
  6756  05F2  0873               	movf	button_timer_interrupt@bt,w
  6757  05F3  3E02               	addlw	2
  6758  05F4  0086               	movwf	6
  6759  05F5  0187               	clrf	7
  6760  05F6  1501               	bsf	1,2
  6761  05F7  2E1F               	goto	i1l2283
  6762  05F8                     i1l2275:	
  6763                           
  6764                           ;PIC16F1827-ChargeStation5-01.h: 96: else if (bt->cnt_sw >= 30)bt->flag.long_hold_1 = 1;
  6765  05F8  0873               	movf	button_timer_interrupt@bt,w
  6766  05F9  0086               	movwf	6
  6767  05FA  0187               	clrf	7
  6768  05FB  3F40               	moviw [0]fsr1
  6769  05FC  00F1               	movwf	??_button_timer_interrupt
  6770  05FD  3F41               	moviw [1]fsr1
  6771  05FE  00F2               	movwf	??_button_timer_interrupt+1
  6772  05FF  3000               	movlw	0
  6773  0600  0272               	subwf	??_button_timer_interrupt+1,w
  6774  0601  301E               	movlw	30
  6775  0602  1903               	skipnz
  6776  0603  0271               	subwf	??_button_timer_interrupt,w
  6777  0604  1C03               	skipc
  6778  0605  2E0C               	goto	i1l2279
  6779  0606  0873               	movf	button_timer_interrupt@bt,w
  6780  0607  3E02               	addlw	2
  6781  0608  0086               	movwf	6
  6782  0609  0187               	clrf	7
  6783  060A  1481               	bsf	1,1
  6784  060B  2E1F               	goto	i1l2283
  6785  060C                     i1l2279:	
  6786                           
  6787                           ;PIC16F1827-ChargeStation5-01.h: 97: else if (bt->cnt_sw >= 2)bt->flag.press = 1;
  6788  060C  0873               	movf	button_timer_interrupt@bt,w
  6789  060D  0086               	movwf	6
  6790  060E  0187               	clrf	7
  6791  060F  3F40               	moviw [0]fsr1
  6792  0610  00F1               	movwf	??_button_timer_interrupt
  6793  0611  3F41               	moviw [1]fsr1
  6794  0612  00F2               	movwf	??_button_timer_interrupt+1
  6795  0613  3000               	movlw	0
  6796  0614  0272               	subwf	??_button_timer_interrupt+1,w
  6797  0615  3002               	movlw	2
  6798  0616  1903               	skipnz
  6799  0617  0271               	subwf	??_button_timer_interrupt,w
  6800  0618  1C03               	skipc
  6801  0619  2E1F               	goto	i1l2283
  6802  061A  0873               	movf	button_timer_interrupt@bt,w
  6803  061B  3E02               	addlw	2
  6804  061C  0086               	movwf	6
  6805  061D  0187               	clrf	7
  6806  061E  1401               	bsf	1,0
  6807  061F                     i1l2283:	
  6808                           
  6809                           ;PIC16F1827-ChargeStation5-01.h: 98: bt->cnt_sw = 0;
  6810  061F  0873               	movf	button_timer_interrupt@bt,w
  6811  0620  0086               	movwf	6
  6812  0621  0187               	clrf	7
  6813  0622  3000               	movlw	0
  6814  0623  3FC0               	movwi [0]fsr1
  6815  0624  3FC1               	movwi [1]fsr1
  6816                           
  6817                           ;PIC16F1827-ChargeStation5-01.h: 99: bt->flags &= 0x0F;
  6818  0625  300F               	movlw	15
  6819  0626  00F1               	movwf	??_button_timer_interrupt
  6820  0627  0873               	movf	button_timer_interrupt@bt,w
  6821  0628  3E02               	addlw	2
  6822  0629  0086               	movwf	6
  6823  062A  0187               	clrf	7
  6824  062B  0871               	movf	??_button_timer_interrupt,w
  6825  062C  0581               	andwf	1,f
  6826  062D  0008               	return
  6827  062E                     __end_of_button_timer_interrupt:	
  6828                           
  6829                           	psect	text43
  6830  0BD7                     __ptext43:	
  6831 ;; *************** function _adc *****************
  6832 ;; Defined at:
  6833 ;;		line 50 in file "PIC16F1827-ChargeStation5-01.h"
  6834 ;; Parameters:    Size  Location     Type
  6835 ;;  ch              1    wreg     unsigned char 
  6836 ;; Auto vars:     Size  Location     Type
  6837 ;;  ch              1    3[COMMON] unsigned char 
  6838 ;; Return value:  Size  Location     Type
  6839 ;;                  2    0[COMMON] unsigned int 
  6840 ;; Registers used:
  6841 ;;		wreg, status,2, status,0
  6842 ;; Tracked objects:
  6843 ;;		On entry : 0/0
  6844 ;;		On exit  : 0/0
  6845 ;;		Unchanged: 0/0
  6846 ;; Data sizes:     COMMON   BANK0   BANK1   BANK2   BANK3   BANK4
  6847 ;;      Params:         2       0       0       0       0       0
  6848 ;;      Locals:         1       0       0       0       0       0
  6849 ;;      Temps:          1       0       0       0       0       0
  6850 ;;      Totals:         4       0       0       0       0       0
  6851 ;;Total ram usage:        4 bytes
  6852 ;; Hardware stack levels used:    1
  6853 ;; This function calls:
  6854 ;;		Nothing
  6855 ;; This function is called by:
  6856 ;;		_isr
  6857 ;; This function uses a non-reentrant model
  6858 ;;
  6859                           
  6860                           
  6861                           ;psect for function _adc
  6862  0BD7                     _adc:	
  6863                           
  6864                           ;incstack = 0
  6865                           ; Regs used in _adc: [wreg+status,2+status,0]
  6866                           ;adc@ch stored from wreg
  6867  0BD7  00F3               	movwf	adc@ch
  6868                           
  6869                           ;PIC16F1827-ChargeStation5-01.h: 51: ADCON0bits.ADON = 1;
  6870  0BD8  0021               	movlb	1	; select bank1
  6871  0BD9  141D               	bsf	29,0	;volatile
  6872                           
  6873                           ;PIC16F1827-ChargeStation5-01.h: 52: ADCON0bits.CHS = ch;
  6874  0BDA  0873               	movf	adc@ch,w
  6875  0BDB  00F2               	movwf	??_adc
  6876  0BDC  0DF2               	rlf	??_adc,f
  6877  0BDD  0DF2               	rlf	??_adc,f
  6878  0BDE  081D               	movf	29,w	;volatile
  6879  0BDF  0672               	xorwf	??_adc,w
  6880  0BE0  3983               	andlw	-125
  6881  0BE1  0672               	xorwf	??_adc,w
  6882  0BE2  009D               	movwf	29	;volatile
  6883                           
  6884                           ;PIC16F1827-ChargeStation5-01.h: 53: _delay((unsigned long)((20)*(32000000/4000000.0)));
  6885  0BE3  3035               	movlw	53
  6886  0BE4  00F2               	movwf	??_adc
  6887  0BE5                     u382_27:	
  6888  0BE5  0BF2               	decfsz	??_adc,f
  6889  0BE6  2BE5               	goto	u382_27
  6890                           
  6891                           ;PIC16F1827-ChargeStation5-01.h: 54: ADCON0bits.GO_nDONE = 1;
  6892  0BE7  0021               	movlb	1	; select bank1
  6893  0BE8  149D               	bsf	29,1	;volatile
  6894  0BE9                     i1l101:	
  6895                           ;PIC16F1827-ChargeStation5-01.h: 55: while (ADCON0bits.GO_nDONE);
  6896                           
  6897  0BE9  189D               	btfsc	29,1	;volatile
  6898  0BEA  2BE9               	goto	i1l101
  6899                           
  6900                           ;PIC16F1827-ChargeStation5-01.h: 56: return ADRES;
  6901  0BEB  081C               	movf	28,w	;volatile
  6902  0BEC  00F1               	movwf	?_adc+1
  6903  0BED  081B               	movf	27,w	;volatile
  6904  0BEE  00F0               	movwf	?_adc
  6905  0BEF  0008               	return
  6906  0BF0                     __end_of_adc:	
  6907                           
  6908                           	psect	text44
  6909  0FAE                     __ptext44:	
  6910 ;; *************** function ___lldiv *****************
  6911 ;; Defined at:
  6912 ;;		line 6 in file "C:\Program Files (x86)\Microchip\xc8\v1.35\sources\common\lldiv.c"
  6913 ;; Parameters:    Size  Location     Type
  6914 ;;  divisor         4    0[COMMON] unsigned long 
  6915 ;;  dividend        4    4[COMMON] unsigned long 
  6916 ;; Auto vars:     Size  Location     Type
  6917 ;;  quotient        4    9[COMMON] unsigned long 
  6918 ;;  counter         1   13[COMMON] unsigned char 
  6919 ;; Return value:  Size  Location     Type
  6920 ;;                  4    0[COMMON] unsigned long 
  6921 ;; Registers used:
  6922 ;;		wreg, status,2, status,0
  6923 ;; Tracked objects:
  6924 ;;		On entry : 0/0
  6925 ;;		On exit  : 0/0
  6926 ;;		Unchanged: 0/0
  6927 ;; Data sizes:     COMMON   BANK0   BANK1   BANK2   BANK3   BANK4
  6928 ;;      Params:         8       0       0       0       0       0
  6929 ;;      Locals:         5       0       0       0       0       0
  6930 ;;      Temps:          1       0       0       0       0       0
  6931 ;;      Totals:        14       0       0       0       0       0
  6932 ;;Total ram usage:       14 bytes
  6933 ;; Hardware stack levels used:    1
  6934 ;; This function calls:
  6935 ;;		Nothing
  6936 ;; This function is called by:
  6937 ;;		_isr
  6938 ;; This function uses a non-reentrant model
  6939 ;;
  6940                           
  6941                           
  6942                           ;psect for function ___lldiv
  6943  0FAE                     ___lldiv:	
  6944                           
  6945                           ;incstack = 0
  6946                           ; Regs used in ___lldiv: [wreg+status,2+status,0]
  6947  0FAE  3000               	movlw	0
  6948  0FAF  00FC               	movwf	___lldiv@quotient+3
  6949  0FB0  3000               	movlw	0
  6950  0FB1  00FB               	movwf	___lldiv@quotient+2
  6951  0FB2  3000               	movlw	0
  6952  0FB3  00FA               	movwf	___lldiv@quotient+1
  6953  0FB4  3000               	movlw	0
  6954  0FB5  00F9               	movwf	___lldiv@quotient
  6955  0FB6  0873               	movf	___lldiv@divisor+3,w
  6956  0FB7  0472               	iorwf	___lldiv@divisor+2,w
  6957  0FB8  0471               	iorwf	___lldiv@divisor+1,w
  6958  0FB9  0470               	iorwf	___lldiv@divisor,w
  6959  0FBA  1903               	skipnz
  6960  0FBB  2FF7               	goto	i1l2547
  6961  0FBC  01FD               	clrf	___lldiv@counter
  6962  0FBD  0AFD               	incf	___lldiv@counter,f
  6963  0FBE                     i1l2533:	
  6964  0FBE  1BF3               	btfsc	___lldiv@divisor+3,7
  6965  0FBF  2FCC               	goto	i1l2535
  6966  0FC0  3001               	movlw	1
  6967  0FC1                     u256_25:	
  6968  0FC1  35F0               	lslf	___lldiv@divisor,f
  6969  0FC2  0DF1               	rlf	___lldiv@divisor+1,f
  6970  0FC3  0DF2               	rlf	___lldiv@divisor+2,f
  6971  0FC4  0DF3               	rlf	___lldiv@divisor+3,f
  6972  0FC5  0B89               	decfsz	9,f
  6973  0FC6  2FC1               	goto	u256_25
  6974  0FC7  3001               	movlw	1
  6975  0FC8  00F8               	movwf	??___lldiv
  6976  0FC9  0878               	movf	??___lldiv,w
  6977  0FCA  07FD               	addwf	___lldiv@counter,f
  6978  0FCB  2FBE               	goto	i1l2533
  6979  0FCC                     i1l2535:	
  6980  0FCC  3001               	movlw	1
  6981  0FCD                     u258_25:	
  6982  0FCD  35F9               	lslf	___lldiv@quotient,f
  6983  0FCE  0DFA               	rlf	___lldiv@quotient+1,f
  6984  0FCF  0DFB               	rlf	___lldiv@quotient+2,f
  6985  0FD0  0DFC               	rlf	___lldiv@quotient+3,f
  6986  0FD1  0B89               	decfsz	9,f
  6987  0FD2  2FCD               	goto	u258_25
  6988  0FD3  0873               	movf	___lldiv@divisor+3,w
  6989  0FD4  0277               	subwf	___lldiv@dividend+3,w
  6990  0FD5  1D03               	skipz
  6991  0FD6  2FE1               	goto	u259_25
  6992  0FD7  0872               	movf	___lldiv@divisor+2,w
  6993  0FD8  0276               	subwf	___lldiv@dividend+2,w
  6994  0FD9  1D03               	skipz
  6995  0FDA  2FE1               	goto	u259_25
  6996  0FDB  0871               	movf	___lldiv@divisor+1,w
  6997  0FDC  0275               	subwf	___lldiv@dividend+1,w
  6998  0FDD  1D03               	skipz
  6999  0FDE  2FE1               	goto	u259_25
  7000  0FDF  0870               	movf	___lldiv@divisor,w
  7001  0FE0  0274               	subwf	___lldiv@dividend,w
  7002  0FE1                     u259_25:	
  7003  0FE1  1C03               	skipc
  7004  0FE2  2FEC               	goto	i1l2543
  7005  0FE3  0870               	movf	___lldiv@divisor,w
  7006  0FE4  02F4               	subwf	___lldiv@dividend,f
  7007  0FE5  0871               	movf	___lldiv@divisor+1,w
  7008  0FE6  3BF5               	subwfb	___lldiv@dividend+1,f
  7009  0FE7  0872               	movf	___lldiv@divisor+2,w
  7010  0FE8  3BF6               	subwfb	___lldiv@dividend+2,f
  7011  0FE9  0873               	movf	___lldiv@divisor+3,w
  7012  0FEA  3BF7               	subwfb	___lldiv@dividend+3,f
  7013  0FEB  1479               	bsf	___lldiv@quotient,0
  7014  0FEC                     i1l2543:	
  7015  0FEC  3001               	movlw	1
  7016  0FED                     u260_25:	
  7017  0FED  36F3               	lsrf	___lldiv@divisor+3,f
  7018  0FEE  0CF2               	rrf	___lldiv@divisor+2,f
  7019  0FEF  0CF1               	rrf	___lldiv@divisor+1,f
  7020  0FF0  0CF0               	rrf	___lldiv@divisor,f
  7021  0FF1  0B89               	decfsz	9,f
  7022  0FF2  2FED               	goto	u260_25
  7023  0FF3  3001               	movlw	1
  7024  0FF4  02FD               	subwf	___lldiv@counter,f
  7025  0FF5  1D03               	btfss	3,2
  7026  0FF6  2FCC               	goto	i1l2535
  7027  0FF7                     i1l2547:	
  7028  0FF7  087C               	movf	___lldiv@quotient+3,w
  7029  0FF8  00F3               	movwf	?___lldiv+3
  7030  0FF9  087B               	movf	___lldiv@quotient+2,w
  7031  0FFA  00F2               	movwf	?___lldiv+2
  7032  0FFB  087A               	movf	___lldiv@quotient+1,w
  7033  0FFC  00F1               	movwf	?___lldiv+1
  7034  0FFD  0879               	movf	___lldiv@quotient,w
  7035  0FFE  00F0               	movwf	?___lldiv
  7036  0FFF  0008               	return
  7037  1000                     __end_of___lldiv:	
  7038  007E                     btemp	set	126	;btemp
  7039  007E                     int$flags	set	126
  7040  007E                     wtemp	set	126
  7041  007E                     wtemp0	set	126
  7042  0080                     wtemp1	set	128
  7043  0082                     wtemp2	set	130
  7044  0084                     wtemp3	set	132
  7045  0086                     wtemp4	set	134
  7046  0088                     wtemp5	set	136
  7047  007F                     wtemp6	set	127
  7048  007E                     ttemp	set	126
  7049  007E                     ttemp0	set	126
  7050  0081                     ttemp1	set	129
  7051  0084                     ttemp2	set	132
  7052  0087                     ttemp3	set	135
  7053  007F                     ttemp4	set	127
  7054  007E                     ltemp	set	126
  7055  007E                     ltemp0	set	126
  7056  0082                     ltemp1	set	130
  7057  0086                     ltemp2	set	134
  7058  0080                     ltemp3	set	128


Data Sizes:
    Strings     92
    Constant    0
    Data        2
    BSS         77
    Persistent  0
    Stack       0

Auto Spaces:
    Space          Size  Autos    Used
    COMMON           14     14      14
    BANK0            80     27      55
    BANK1            80     25      76
    BANK2            80      0       0
    BANK3            80      0       0
    BANK4            48      0       0

Pointer List with Targets:

    tx_buf.buf	PTR unsigned char  size(1) Largest target is 0

    LCD_Puts@s	PTR const unsigned char  size(2) Largest target is 17
		 -> STR_12(CODE[10]), STR_11(CODE[10]), STR_10(CODE[8]), STR_9(CODE[7]), 
		 -> STR_8(CODE[4]), STR_7(CODE[5]), STR_6(CODE[7]), STR_5(CODE[6]), 
		 -> STR_4(CODE[5]), STR_3(CODE[7]), STR_2(CODE[6]), STR_1(CODE[17]), 

    ringbuf_num@rb.buf	PTR unsigned char  size(1) Largest target is 0

    ringbuf_num@rb	PTR struct ringbuf size(1) Largest target is 5
		 -> tx_buf(BANK1[5]), 

    ringbuf_pop@rb.buf	PTR unsigned char  size(1) Largest target is 0

    ringbuf_pop@rb	PTR struct ringbuf size(1) Largest target is 5
		 -> tx_buf(BANK1[5]), 

    ringbuf_push@rb.buf	PTR unsigned char  size(1) Largest target is 0

    S224ringbuf$buf	PTR unsigned char  size(1) Largest target is 0

    ringbuf_init@rb.buf	PTR unsigned char  size(1) Largest target is 0

    button_timer_interrupt@bt	PTR struct button size(1) Largest target is 3
		 -> sw_1(BANK0[3]), sw_0(BANK0[3]), sh_2(BANK0[3]), sh_1(BANK0[3]), 
		 -> sh_0(BANK0[3]), 


Critical Paths under _main in COMMON

    None.

Critical Paths under _isr in COMMON

    _isr->___lldiv
    _isr->___lwdiv
    _lchika->___lwdiv
    _display->___lwdiv
    i1_LCD_Clear->i1_LCD_Command
    ___lwdiv->___lwmod
    ___aldiv->___almod
    _LCD_SetCursor->i1_LCD_Command
    i1_LCD_Command->i1_I2C_Start
    _LCD_Puts->i1_I2C_Start
    _LCD_Putc->i1_I2C_Start
    i1_I2C_Stop->i1_I2C_IdleCheck
    i1_I2C_Start->i1_I2C_IdleCheck
    i1_I2C_Send->i1_I2C_IdleCheck

Critical Paths under _main in BANK0

    None.

Critical Paths under _isr in BANK0

    _isr->_display
    _display->___aldiv

Critical Paths under _main in BANK1

    _main->___lmul
    _main_init->_LCD_init
    _LCD_init->_LCD_Clear
    _LCD_Clear->_LCD_Command
    _LCD_Command->_I2C_Start
    _EEP_Writes->_I2C_Start
    _EEP_Read->_I2C_rStart
    _I2C_rStart->_I2C_IdleCheck
    _I2C_Stop->_I2C_IdleCheck
    _I2C_Start->_I2C_IdleCheck
    _I2C_Send->_I2C_IdleCheck
    _I2C_Receive->_I2C_IdleCheck

Critical Paths under _isr in BANK1

    None.

Critical Paths under _main in BANK2

    None.

Critical Paths under _isr in BANK2

    None.

Critical Paths under _main in BANK3

    None.

Critical Paths under _isr in BANK3

    None.

Critical Paths under _main in BANK4

    None.

Critical Paths under _isr in BANK4

    None.

Call Graph Tables:

 ---------------------------------------------------------------------------------
 (Depth) Function   	        Calls       Base Space   Used Autos Params    Refs
 ---------------------------------------------------------------------------------
 (0) _main                                                13    13      0   10468
                                             12 BANK1     13    13      0
                           _EEP_Read
                         _EEP_Writes
                                _LED
                                _OUT
                             ___lmul
                          _main_init
                      _sh_flag_clear
                       _sh_flag_read
 ---------------------------------------------------------------------------------
 (1) _sh_flag_read                                         2     1      1     228
                                              0 BANK1      2     1      1
 ---------------------------------------------------------------------------------
 (1) _sh_flag_clear                                        3     2      1     228
                                              0 BANK1      3     2      1
 ---------------------------------------------------------------------------------
 (1) _main_init                                            0     0      0    2805
                           _I2C_init
                           _LCD_init
                           _adc_init
                        _timer0_init
                        _timer1_init
 ---------------------------------------------------------------------------------
 (2) _timer1_init                                          2     2      0      31
                                              0 BANK1      2     2      0
 ---------------------------------------------------------------------------------
 (2) _timer0_init                                          2     2      0      62
                                              0 BANK1      2     2      0
 ---------------------------------------------------------------------------------
 (2) _adc_init                                             1     1      0      62
                                              0 BANK1      1     1      0
 ---------------------------------------------------------------------------------
 (2) _LCD_init                                             3     3      0    2650
                                              9 BANK1      3     3      0
                          _LCD_Clear
                        _LCD_Command
 ---------------------------------------------------------------------------------
 (3) _LCD_Clear                                            2     2      0    1325
                                              7 BANK1      2     2      0
                        _LCD_Command
 ---------------------------------------------------------------------------------
 (3) _LCD_Command                                          3     3      0    1325
                                              4 BANK1      3     3      0
                           _I2C_Send
                          _I2C_Start
                           _I2C_Stop
 ---------------------------------------------------------------------------------
 (2) _I2C_init                                             0     0      0       0
 ---------------------------------------------------------------------------------
 (1) ___lmul                                              12     4      8     344
                                              0 BANK1     12     4      8
 ---------------------------------------------------------------------------------
 (1) _OUT                                                  2     1      1     956
                                              0 BANK1      2     1      1
 ---------------------------------------------------------------------------------
 (1) _LED                                                  2     1      1     747
                                              0 BANK1      2     1      1
 ---------------------------------------------------------------------------------
 (1) _EEP_Writes                                           6     3      3    1730
                                              4 BANK1      6     3      3
                           _I2C_Send
                          _I2C_Start
                           _I2C_Stop
 ---------------------------------------------------------------------------------
 (1) _EEP_Read                                             5     4      1    2445
                                              6 BANK1      5     4      1
                        _I2C_Receive
                           _I2C_Send
                          _I2C_Start
                           _I2C_Stop
                         _I2C_rStart
 ---------------------------------------------------------------------------------
 (2) _I2C_rStart                                           4     0      4     717
                                              2 BANK1      4     0      4
                      _I2C_IdleCheck
 ---------------------------------------------------------------------------------
 (4) _I2C_Stop                                             0     0      0      31
                      _I2C_IdleCheck
 ---------------------------------------------------------------------------------
 (4) _I2C_Start                                            2     1      1    1167
                                              2 BANK1      2     1      1
                      _I2C_IdleCheck
 ---------------------------------------------------------------------------------
 (4) _I2C_Send                                             1     1      0      62
                                              2 BANK1      1     1      0
                      _I2C_IdleCheck
 ---------------------------------------------------------------------------------
 (2) _I2C_Receive                                          3     3      0      96
                                              2 BANK1      3     3      0
                      _I2C_IdleCheck
 ---------------------------------------------------------------------------------
 (5) _I2C_IdleCheck                                        2     2      0      31
                                              0 BANK1      2     2      0
 ---------------------------------------------------------------------------------
 Estimated maximum stack depth 5
 ---------------------------------------------------------------------------------
 (Depth) Function   	        Calls       Base Space   Used Autos Params    Refs
 ---------------------------------------------------------------------------------
 (7) _isr                                                  9     9      0   14143
                                             18 BANK0      9     9      0
                            ___lldiv
                            ___lwdiv
                                _adc
             _button_timer_interrupt
                            _display
                             _lchika
                        _ringbuf_num
                        _ringbuf_pop
 ---------------------------------------------------------------------------------
 (8) _ringbuf_pop                                          4     4      0     191
                                              0 COMMON     4     4      0
 ---------------------------------------------------------------------------------
 (8) _ringbuf_num                                          2     2      0     190
                                              0 COMMON     2     2      0
 ---------------------------------------------------------------------------------
 (8) _lchika                                               5     5      0    2518
                                              0 BANK0      5     5      0
                            ___awdiv
                            ___lwdiv
                              i1_LED
 ---------------------------------------------------------------------------------
 (9) i1_LED                                                2     1      1     166
                                              0 COMMON     2     1      1
 ---------------------------------------------------------------------------------
 (9) ___awdiv                                              9     5      4     478
                                              0 COMMON     9     5      4
 ---------------------------------------------------------------------------------
 (8) _display                                              4     3      1    7743
                                             14 BANK0      4     3      1
                           _LCD_Putc
                           _LCD_Puts
                      _LCD_SetCursor
                            ___aldiv
                            ___almod
                            ___lwdiv
                            ___lwmod
                        i1_LCD_Clear
 ---------------------------------------------------------------------------------
 (9) i1_LCD_Clear                                          2     2      0     255
                                              7 COMMON     2     2      0
                      i1_LCD_Command
 ---------------------------------------------------------------------------------
 (9) ___lwmod                                              6     2      4    1583
                                              0 COMMON     6     2      4
 ---------------------------------------------------------------------------------
 (9) ___lwdiv                                              8     4      4    1586
                                              6 COMMON     8     4      4
                            ___lwmod (ARG)
                                _adc (ARG)
 ---------------------------------------------------------------------------------
 (9) ___almod                                             11     3      8     652
                                              0 COMMON    11     3      8
 ---------------------------------------------------------------------------------
 (9) ___aldiv                                             15     7      8     656
                                             11 COMMON     1     1      0
                                              0 BANK0     14     6      8
                            ___almod (ARG)
 ---------------------------------------------------------------------------------
 (9) _LCD_SetCursor                                        4     3      1    1035
                                              7 COMMON     4     3      1
                      i1_LCD_Command
 ---------------------------------------------------------------------------------
 (10) i1_LCD_Command                                       3     3      0     255
                                              4 COMMON     3     3      0
                         i1_I2C_Send
                        i1_I2C_Start
                         i1_I2C_Stop
 ---------------------------------------------------------------------------------
 (9) _LCD_Puts                                             6     4      2    1346
                                              4 COMMON     6     4      2
                         i1_I2C_Send
                        i1_I2C_Start
                         i1_I2C_Stop
 ---------------------------------------------------------------------------------
 (9) _LCD_Putc                                             3     3      0     255
                                              4 COMMON     3     3      0
                         i1_I2C_Send
                        i1_I2C_Start
                         i1_I2C_Stop
 ---------------------------------------------------------------------------------
 (11) i1_I2C_Stop                                          0     0      0      22
                    i1_I2C_IdleCheck
 ---------------------------------------------------------------------------------
 (11) i1_I2C_Start                                         2     1      1     144
                                              2 COMMON     2     1      1
                    i1_I2C_IdleCheck
 ---------------------------------------------------------------------------------
 (11) i1_I2C_Send                                          1     1      0      44
                                              2 COMMON     1     1      0
                    i1_I2C_IdleCheck
 ---------------------------------------------------------------------------------
 (12) i1_I2C_IdleCheck                                     2     2      0      22
                                              0 COMMON     2     2      0
 ---------------------------------------------------------------------------------
 (8) _button_timer_interrupt                               4     3      1    1087
                                              0 COMMON     4     3      1
 ---------------------------------------------------------------------------------
 (8) _adc                                                  4     2      2      22
                                              0 COMMON     4     2      2
 ---------------------------------------------------------------------------------
 (8) ___lldiv                                             14     6      8     340
                                              0 COMMON    14     6      8
 ---------------------------------------------------------------------------------
 Estimated maximum stack depth 12
 ---------------------------------------------------------------------------------

 Call Graph Graphs:

 _main (ROOT)
   _EEP_Read
     _I2C_Receive
       _I2C_IdleCheck
     _I2C_Send
       _I2C_IdleCheck
     _I2C_Start
       _I2C_IdleCheck
     _I2C_Stop
       _I2C_IdleCheck
     _I2C_rStart
       _I2C_IdleCheck
   _EEP_Writes
     _I2C_Send
       _I2C_IdleCheck
     _I2C_Start
       _I2C_IdleCheck
     _I2C_Stop
       _I2C_IdleCheck
   _LED
   _OUT
   ___lmul
   _main_init
     _I2C_init
     _LCD_init
       _LCD_Clear
         _LCD_Command
           _I2C_Send
             _I2C_IdleCheck
           _I2C_Start
             _I2C_IdleCheck
           _I2C_Stop
             _I2C_IdleCheck
       _LCD_Command
         _I2C_Send
           _I2C_IdleCheck
         _I2C_Start
           _I2C_IdleCheck
         _I2C_Stop
           _I2C_IdleCheck
     _adc_init
     _timer0_init
     _timer1_init
   _sh_flag_clear
   _sh_flag_read

 _isr (ROOT)
   ___lldiv
   ___lwdiv
     ___lwmod (ARG)
     _adc (ARG)
   _adc
   _button_timer_interrupt
   _display
     _LCD_Putc
       i1_I2C_Send
         i1_I2C_IdleCheck
       i1_I2C_Start
         i1_I2C_IdleCheck
       i1_I2C_Stop
         i1_I2C_IdleCheck
     _LCD_Puts
       i1_I2C_Send
         i1_I2C_IdleCheck
       i1_I2C_Start
         i1_I2C_IdleCheck
       i1_I2C_Stop
         i1_I2C_IdleCheck
     _LCD_SetCursor
       i1_LCD_Command
         i1_I2C_Send
           i1_I2C_IdleCheck
         i1_I2C_Start
           i1_I2C_IdleCheck
         i1_I2C_Stop
           i1_I2C_IdleCheck
     ___aldiv
       ___almod (ARG)
     ___almod
     ___lwdiv
       ___lwmod (ARG)
       _adc (ARG)
     ___lwmod
     i1_LCD_Clear
       i1_LCD_Command
         i1_I2C_Send
           i1_I2C_IdleCheck
         i1_I2C_Start
           i1_I2C_IdleCheck
         i1_I2C_Stop
           i1_I2C_IdleCheck
   _lchika
     ___awdiv
     ___lwdiv
       ___lwmod (ARG)
       _adc (ARG)
     i1_LED
   _ringbuf_num
   _ringbuf_pop

 Address spaces:
Name               Size   Autos  Total    Cost      Usage
BIGRAM             170      0       0       0        0.0%
EEDATA             100      0       0       0        0.0%
NULL                 0      0       0       0        0.0%
CODE                 0      0       0       0        0.0%
BITCOMMON            E      0       0       1        0.0%
BITSFR0              0      0       0       1        0.0%
SFR0                 0      0       0       1        0.0%
COMMON               E      E       E       2      100.0%
BITSFR1              0      0       0       2        0.0%
SFR1                 0      0       0       2        0.0%
BITSFR2              0      0       0       3        0.0%
SFR2                 0      0       0       3        0.0%
STACK                0      0       0       3        0.0%
BITSFR3              0      0       0       4        0.0%
SFR3                 0      0       0       4        0.0%
ABS                  0      0      91       4        0.0%
BITBANK0            50      0       0       5        0.0%
BITSFR4              0      0       0       5        0.0%
SFR4                 0      0       0       5        0.0%
BANK0               50     1B      37       6       68.8%
BITSFR5              0      0       0       6        0.0%
SFR5                 0      0       0       6        0.0%
BITBANK1            50      0       0       7        0.0%
BITSFR6              0      0       0       7        0.0%
SFR6                 0      0       0       7        0.0%
BANK1               50     19      4C       8       95.0%
BITSFR7              0      0       0       8        0.0%
SFR7                 0      0       0       8        0.0%
BITBANK2            50      0       0       9        0.0%
BITSFR8              0      0       0       9        0.0%
SFR8                 0      0       0       9        0.0%
BANK2               50      0       0      10        0.0%
BITSFR9              0      0       0      10        0.0%
SFR9                 0      0       0      10        0.0%
BITBANK3            50      0       0      11        0.0%
BITSFR10             0      0       0      11        0.0%
SFR10                0      0       0      11        0.0%
BANK3               50      0       0      12        0.0%
BITSFR11             0      0       0      12        0.0%
SFR11                0      0       0      12        0.0%
BITBANK4            30      0       0      13        0.0%
BITSFR12             0      0       0      13        0.0%
SFR12                0      0       0      13        0.0%
BANK4               30      0       0      14        0.0%
BITSFR13             0      0       0      14        0.0%
SFR13                0      0       0      14        0.0%
BITSFR14             0      0       0      15        0.0%
SFR14                0      0       0      15        0.0%
DATA                 0      0      91      15        0.0%
BITSFR15             0      0       0      16        0.0%
SFR15                0      0       0      16        0.0%
BITSFR16             0      0       0      17        0.0%
SFR16                0      0       0      17        0.0%
BITSFR17             0      0       0      18        0.0%
SFR17                0      0       0      18        0.0%
BITSFR18             0      0       0      19        0.0%
SFR18                0      0       0      19        0.0%
BITSFR19             0      0       0      20        0.0%
SFR19                0      0       0      20        0.0%
BITSFR20             0      0       0      21        0.0%
SFR20                0      0       0      21        0.0%
BITSFR21             0      0       0      22        0.0%
SFR21                0      0       0      22        0.0%
BITSFR22             0      0       0      23        0.0%
SFR22                0      0       0      23        0.0%
BITSFR23             0      0       0      24        0.0%
SFR23                0      0       0      24        0.0%
BITSFR24             0      0       0      25        0.0%
SFR24                0      0       0      25        0.0%
BITSFR25             0      0       0      26        0.0%
SFR25                0      0       0      26        0.0%
BITSFR26             0      0       0      27        0.0%
SFR26                0      0       0      27        0.0%
BITSFR27             0      0       0      28        0.0%
SFR27                0      0       0      28        0.0%
BITSFR28             0      0       0      29        0.0%
SFR28                0      0       0      29        0.0%
BITSFR29             0      0       0      30        0.0%
SFR29                0      0       0      30        0.0%
BITSFR30             0      0       0      31        0.0%
SFR30                0      0       0      31        0.0%
BITSFR31             0      0       0      32        0.0%
SFR31                0      0       0      32        0.0%


Microchip Technology PIC Macro Assembler V1.35 build -356382666 
Symbol Table                                                                                   Mon Nov 16 18:38:24 2015

                  EEP_Writes@ans 00DA                  EEP_Writes@Reg_h 00D9                  EEP_Writes@Reg_l 00D5  
                              _s 0020                                _v 00B8                                pc 0002  
             __size_of_I2C_Start 001C                      __CFG_CP$OFF 0000                     ?_LCD_Command 0070  
                             l89 0BB1                     ___awdiv@sign 0076                               _sp 00B2  
                             _ss 00A0                 EEP_Writes@data_0 00D6                 EEP_Writes@data_1 00D7  
                  _LCD_SetCursor 0B85                      ?i1_I2C_Send 0070                      ?i1_I2C_Stop 0070  
                            l161 0C1B                              l233 0EF4                              l170 07FA  
                            l234 0F0F                              l155 0C6F                              l341 0E31  
                            l238 0D90                              l350 0D4A                              l352 0D52  
                            l344 0E3B                              l353 0D5A                              l337 0E27  
                            l346 0E4A                              l355 0D6E                              l179 0CAF  
                            l380 0463                              l373 0CFB                              l383 04D2  
                            _GIE 005F                              _RB0 0068                              _RA4 0064  
                            _LED 0D47                              _RB3 006B                              _RA5 0065  
                            _RB6 006E                     __CFG_CPD$OFF 0000                              _OUT 0E1E  
                            _adc 0BD7                              _cnt 00C1                              _cut 00AC  
                            _isr 0004              __size_of_I2C_rStart 001A             __size_of_I2C_Receive 0020  
                   __CFG_BORV$LO 0000                              wreg 0009              sh_flag_read@bit_and 00D1  
                   __CFG_LVP$OFF 0000                             LED@b 00D2                             ?_LED 00D1  
                           ?_OUT 00D1                     ?i1_I2C_Start 0072                             ?_adc 0070  
                           l3101 0E8C                             l3031 0E34                             l3023 0E21  
                           l3041 0CBB                             l3019 0D62                             l3027 0E2A  
                           l3211 03EC                             l3037 0E3E                             l3053 0CCA  
                           l3045 0CC0                             l3063 0CDB                             l3071 0CEF  
                           l3231 0491                             l3065 0CE1                             l3049 0CC5  
                           l3225 046A                             l3067 0CE8                             l3059 0CCC  
                           l3323 0574                             l3307 054E                             l3243 04C9  
                           l3219 0464                             l3237 04A3                             l3319 0568  
                           l3263 04F2                             l3255 04DC                             l3097 0E82  
                           l3291 0524                             l3267 04F9                             l3293 052A  
                           l3269 04FF                             l2911 0BBA                             l3287 051E  
                           l3279 0508                             OUT@b 00D2                             l3299 0533  
                           l2865 0B59                             ?_isr 0070                             STR_1 0792  
                           STR_2 07DA                             STR_3 07CD                             STR_4 07E5  
                           STR_5 07D4                             STR_6 07C6                             STR_7 07E0  
                           STR_8 07EA                             STR_9 07BF                             u3240 0D4F  
                           u3260 0D57                             u3280 0D5F                             u3345 0E8D  
                           u3505 042E                             u3355 0E94                             u3515 0445  
                           u3727 0F21                             u3495 0413                             u3737 0F47  
                           u3747 0B6F                             u3757 0CB5                             u3685 0540  
                           u3767 0D96                             u3777 0F15                             _WPUA 020C  
                           _WPUB 020D            __end_of_sh_flag_clear 0CFC                     __CFG_WRT$OFF 0000  
                           _cnt0 0029                             _cntf 00C4                             _sh_0 002D  
                           _sh_1 0030                             _sh_2 0033                             _main 03B8  
       button_timer_interrupt@bt 0073                             _sw_0 0036                             _sw_1 0039  
             __size_of_LCD_Clear 000F                             fsr0h 0005                             fsr1h 0007  
                           fsr0l 0004                             indf0 0000                             indf1 0001  
                           fsr1l 0006                 __end_of_I2C_Send 0800                             btemp 007E  
                           isr@i 0056                 __end_of_I2C_Stop 0B2D                             ltemp 007E  
               __end_of_I2C_init 0B49                             start 0183                             ttemp 007E  
                           wtemp 007E                    __CFG_IESO$OFF 0000                            ??_LED 00D2  
               __end_of_EEP_Read 0F1A           __size_of_I2C_IdleCheck 000F                            ??_OUT 00D2  
                          ??_adc 0072                ??i1_I2C_IdleCheck 0070                            ??_isr 004E  
                  __CFG_PLLEN$ON 0000                 __end_of_LCD_Putc 0C40                 __end_of_LCD_Puts 0E79  
                 ?_LCD_SetCursor 0077                 __end_of_LCD_init 0F5D                     ?i1_LCD_Clear 0070  
                __end_of___aldiv 06B0                  __end_of___almod 0792                            ?_main 0070  
                __end_of___awdiv 0FAE                            _ADRES 009B                            STR_10 07B7  
                          STR_11 07A3                            STR_12 07AD                      LCD_Putc@ans 0076  
                  __CFG_WDTE$OFF 0000                  __end_of___lldiv 1000                  ___awdiv@divisor 0070  
                          _LATA3 0863                            _LATB2 086A                            _LATA6 0866  
                          _LATB5 086D                            _LATA7 0867                            _LATB7 086F  
                __end_of___lwdiv 0EDD                            i1l101 0BE9                            i1l110 05B1  
                          i1l111 05C0                            i1l108 0593                            i1l109 05A2  
                          i1l170 0B7F                            i1l155 0C01                            i1l350 0D23  
                          i1l191 0C38                            i1l352 0D2B                  __end_of___lwmod 0DC5  
                          i1l353 0D33                            i1l179 0C54                            i1l355 0D46  
                          i1l283 0025                            i1l284 0023                            i1l286 00D1  
                          i1l544 063F                            i1l299 017E                            i1l557 0735  
                ___awdiv@counter 0075                            i1_LED 0D21                      LCD_Puts@ans 0078  
                          _TMR1H 0017                            _TMR1L 0016                            _TRISA 008C  
                          _TRISB 008D                            _TXREG 019A              __size_of_EEP_Writes 002A  
            ___lmul@multiplicand 00D5                   __CFG_FCMEN$OFF 0000                  __end_of_display 03B8  
                          adc@ch 0073                            _cnt1s 00CA                            main@i 00E9  
              __end_of_I2C_Start 0C78                   __CFG_BOREN$OFF 0000                     LCD_Command@c 00D6  
                          ltemp0 007E                            ltemp1 0082                            ltemp2 0086  
                          ltemp3 0080                            ttemp0 007E                            ttemp1 0081  
                          ttemp2 0084                            ttemp3 0087                            ttemp4 007F  
                          status 0003                            wtemp0 007E                            wtemp1 0080  
                          wtemp2 0082                            wtemp3 0084                            wtemp4 0086  
                          wtemp5 0088                            wtemp6 007F              __size_ofi1_I2C_Send 0010  
            __size_ofi1_I2C_Stop 0006                   __CFG_MCLRE$OFF 0000                  __initialization 0185  
                   __end_of_main 0579                           ??_main 00DD                __end_of_LCD_Clear 0B75  
                         ?i1_LED 0070                           _BCL1IF 0093                    _I2C_IdleCheck 0B57  
                         i1S3349 0800                 ___awdiv@dividend 0072                           i1LED@b 0071  
                         _ANSELA 018C                           _ANSELB 018D              i1I2C_IdleCheck@mask 0071  
               __end_of_adc_init 0BAA                           i1l2103 06A7                           i1l2041 0E5E  
                         i1l2121 074A                           i1l2201 0ECF                           i1l2043 0E76  
                         i1l2123 0758                           i1l2131 077B                           i1l2115 0742  
                         i1l2205 0ED8                           i1l2135 0789                           i1l2127 0770  
                         i1l2223 0DB7                           i1l2217 0D9F                           i1l2153 0F72  
                         i1l2219 0DAB                           i1l2227 0DC0                           i1l2171 0F98  
                         i1l2163 0F7A                           i1l2147 0F67                           i1l2307 0DDE  
                         i1l2085 0660                           i1l2077 0650                           i1l2421 039F  
                         i1l2413 0385                           i1l2405 028E                           i1l2165 0F86  
                         i1l2271 05E4                           i1l2095 068E                           i1l2087 066E  
                         i1l2175 0FA1                           i1l2239 0D3B                           i1l2351 0704  
                         i1l2193 0EB1                           i1l2417 0392                           i1l2409 0378  
                         i1l2345 06CA                           i1l2275 05F8                           i1l2283 061F  
                         i1l2267 05D0                           i1l2099 0699                           i1l2195 0EBD  
                         i1l2427 03AC                           i1l2179 0FA9                           i1l2533 0FBE  
                         i1l2543 0FEC                           i1l2535 0FCC                           i1l2279 060C  
                         i1l2375 01C1                           i1l2383 01D9                           i1l2359 071F  
                         i1l2295 0E1C                           i1l1905 0B34                           i1l2385 01E6  
                         i1l2377 01C9                           i1l2393 01FE                           i1l2547 0FF7  
                         i1l2395 020B                           i1l2387 01EE                           i1l2379 01D1  
                         i1l2651 006A                           u202_25 0EB4                           i1l2389 01F6  
                         i1l2661 00C2                           i1l2663 00C9                           u211_25 0DB1  
                         i1l2679 00ED                           i1l2689 0101                           i1l2699 0176  
                         u204_25 0EBE                           u212_25 0DB8                           u205_25 0EC8  
                         u214_20 0D28                           u206_25 0ED0                           u216_20 0D30  
                         u209_25 0DA2                           u218_20 0D38                           _FVRCON 0117  
                         u260_25 0FED                           u238_25 06F8                           u175_25 0663  
                         u256_25 0FC1                           u177_25 066F                           u185_25 074D  
                         u258_25 0FCD                           u178_25 0683                           u194_25 0F7D  
                         u259_25 0FE1                           u179_25 068F                           u187_25 0766  
                         u188_25 0771                           u196_25 0F87                           u380_27 0E73  
                         u197_25 0F91                           u381_27 0C3D                           u198_25 0F99  
                         u286_25 0112                           u382_27 0BE5                           u287_25 0130  
                         u288_25 0162           __size_ofi1_LCD_Command 001C                           _OSCCON 0099  
                         u378_27 0B51                           u379_27 0C59                           _SSP1IF 008B  
                 i1LCD_Command@c 0075                     ??_I2C_rStart 00D7                   __CFG_PWRTE$OFF 0000  
                   ?_ringbuf_pop 0070                     ?_ringbuf_num 0070                           ___lmul 0E79  
                      ??___aldiv 007B                        ??___almod 0078                        ??___awdiv 0074  
                ??_LCD_SetCursor 0078                        ??___lldiv 0078                     ?_timer0_init 0070  
                   ?_timer1_init 0070                        ??___lwdiv 007A                        ??___lwmod 0074  
                         _lchika 06B0                 ___awdiv@quotient 0077                           _tx_buf 00CC  
           __size_of_LCD_Command 0020                        ??_display 004B                        ?_I2C_Send 0070  
                      ?_I2C_Stop 0070                    i1I2C_Start@rw 0072                        ?_I2C_init 0070  
             __end_of_I2C_rStart 0C24                   ?_I2C_IdleCheck 0070                        ?_EEP_Read 00D7  
           __size_ofi1_I2C_Start 001A          __end_of__initialization 019D                        ?_LCD_Putc 0070  
                      ?_LCD_Puts 0074                        ?_LCD_init 0070                     ??_EEP_Writes 00D8  
                  __end_ofi1_LED 0D47                   __pcstackCOMMON 0070                        LCD_Putc@c 0075  
                   __pidataBANK1 0002                        LCD_Puts@s 0074                    i1_LCD_Command 0C40  
                   ??i1_I2C_Send 0072                     ??i1_I2C_Stop 0072                          ??i1_LED 0071  
                  ?_sh_flag_read 00D1                   _OPTION_REGbits 0095                       ??_I2C_Send 00D3  
           __size_ofi1_LCD_Clear 000E                       ??_I2C_Stop 00D3                       ??_I2C_init 00D1  
             __end_of_EEP_Writes 0D99               __size_of_main_init 0025                       __pbssBANK0 0020  
                     ??_EEP_Read 00D8                       __pbssBANK1 00A0                  i1_I2C_IdleCheck 0B33  
                     ??_LCD_Putc 0074                       ??_LCD_Puts 0076                       ??_LCD_init 00DA  
             __end_ofi1_I2C_Send 0B85               __end_ofi1_I2C_Stop 0B27                       __pmaintext 03B8  
                        ?___lmul 00D1                       __pintentry 0004                          ?_lchika 0070  
                 ?i1_LCD_Command 0070                   ___lmul@product 00D9                    ??_I2C_Receive 00D3  
                   I2C_Send@data 00D3                        ?_adc_init 0070                   ??_sh_flag_read 00D2  
                ??_I2C_IdleCheck 00D1                          _SSP1ADD 0212                          _SSP1BUF 0211  
           timer1_init@prescaler 00D2         ??_button_timer_interrupt 0071                        _I2C_Start 0C5C  
                 I2C_Receive@ack 00D4                          ___aldiv 062E                          ___almod 0725  
                        ___awdiv 0F5D                  __size_of___lmul 0030                          ___lldiv 0FAE  
                        ___lwdiv 0EA9                          ___lwmod 0D99             __size_of_ringbuf_pop 002D  
           __size_of_ringbuf_num 002C                  __CFG_STVREN$OFF 0000         LCD_SetCursor@row_offsets 0078  
                __size_of_lchika 0075                __end_of_main_init 0D21             __size_of_timer0_init 0015  
                     ??_adc_init 00D1             __size_of_timer1_init 0018                          __ptext1 0CB8  
                        __ptext2 0CD8                          __ptext3 0CFC                          __ptext4 0BBF  
                        __ptext5 0BAA                          __ptext6 0B95                          __ptext7 0F1A  
                        __ptext8 0B66                          __ptext9 0C98           __size_of_sh_flag_clear 0024  
                        _display 01A1                     __size_of_LED 0028                        _T1CONbits 0018  
                   __size_of_OUT 002D                   i1I2C_Send@data 0072                     __size_of_adc 0019  
                   __size_of_isr 017F                 ___aldiv@dividend 0040                        _LCD_Clear 0B66  
            __end_of_I2C_Receive 0C98          __end_ofi1_I2C_IdleCheck 0B3E                          clrloop0 0B2E  
                        lchika@i 0040             end_of_initialization 019D                 LCD_SetCursor@col 007A  
               LCD_SetCursor@row 0077                   LCD_Command@ans 00D7                       ?_I2C_Start 00D3  
                ___lldiv@divisor 0070                     I2C_rStart@rw 00D5                  ___lldiv@counter 007D  
           sh_flag_clear@bit_and 00D1                 ___aldiv@quotient 0046                  ??i1_LCD_Command 0074  
                   __pstringtext 0792                       _print_port 002C                 __CFG_FOSC$INTOSC 0000  
                     ?_LCD_Clear 0070                __size_of_I2C_Send 0012                __size_of_I2C_Stop 0006  
               sh_flag_read@port 00D2                __size_of_I2C_init 000B  __size_of_button_timer_interrupt 00B5  
                  _sh_flag_clear 0CD8                __size_of_EEP_Read 003D             __end_of_sh_flag_read 0CD8  
              __size_of_LCD_Putc 001C                __size_of_LCD_Puts 002E                __size_of_LCD_init 0043  
                 ringbuf_pop@ret 0072                    ??_LCD_Command 00D5                   __end_of___lmul 0EA9  
          __end_of_LCD_SetCursor 0B95                   __end_of_lchika 0725                      _I2C_Receive 0C78  
            start_initialization 0185                      __end_of_LED 0D6F                      __end_of_OUT 0E4B  
                    __end_of_adc 0BF0                      __end_of_isr 0183                 ?i1_I2C_IdleCheck 0070  
                  ??i1_I2C_Start 0073                   ?_sh_flag_clear 00D1                      ??_I2C_Start 00D4  
                       ??___lmul 00D9                      __pdataBANK1 00EA                         ??_lchika 003C  
         _button_timer_interrupt 0579                    ??i1_LCD_Clear 0077              __end_of_LCD_Command 0CB8  
              __size_of_adc_init 0015                      _change_flag 00BE                        ___latbits 0001  
                       LED@value 00D1                    __pcstackBANK0 003C                    __pcstackBANK1 00D1  
                    ??_LCD_Clear 00D8                    adc_init@p_ref 00D1              __end_ofi1_I2C_Start 0C0A  
               ___lwdiv@dividend 0078                         ?___aldiv 003C                         ?___almod 0070  
                       ?___awdiv 0070                         ?___lldiv 0070                         ?___lwdiv 0076  
                       ?___lwmod 0070                 ___almod@dividend 0074                        __pswtext1 0800  
                       ?_display 004A                   __size_ofi1_LED 0026                        _main_init 0CFC  
                    I2C_Start@rw 00D3                         _I2C_Send 07EE                         OUT@value 00D1  
                       _I2C_Stop 0B27                         _I2C_init 0B3E            __end_of_I2C_IdleCheck 0B66  
            __end_ofi1_LCD_Clear 0B57                 ___lwdiv@quotient 007B                  ??_sh_flag_clear 00D2  
          __size_of_sh_flag_read 0020                         _EEP_Read 0EDD                  ___aldiv@divisor 003C  
                ___aldiv@counter 0044                         _LCD_Putc 0C24                         _LCD_Puts 0E4B  
                       _LCD_init 0F1A                        clear_ram0 0B2D                         _PIE1bits 0091  
                       _PIR1bits 0011                    ??_ringbuf_pop 0070                    ??_ringbuf_num 0070  
                       _SSP1CON1 0215                         _SSP1CON2 0216                    ??_timer0_init 00D1  
                  ??_timer1_init 00D1                         _SSP1STAT 0214                      _LCD_Command 0C98  
               i1LCD_Command@ans 0076                       _ADCON0bits 009D                       _ADCON1bits 009E  
 button_timer_interrupt@sw_value 0070                       ?_main_init 0070                     _sh_flag_read 0CB8  
                      display@co 004A                    ringbuf_pop@rb 0073                    ringbuf_num@rb 0071  
                  I2C_Start@adrs 00D4                ___lmul@multiplier 00D1                      i1_I2C_Start 0BF0  
             LCD_SetCursor@F2878 00EA                      _auto_cut_ON 0026                  I2C_Receive@data 00D5  
                     _I2C_rStart 0C0A                 __size_of___aldiv 0082                 __size_of___almod 006D  
          __end_ofi1_LCD_Command 0C5C                 __size_of___awdiv 0051                I2C_IdleCheck@mask 00D2  
               __size_of___lldiv 0052                 __size_of___lwdiv 0034                 __size_of___lwmod 002C  
                       _adc_init 0B95                      i1_LCD_Clear 0B49                     ?_I2C_Receive 0070  
            __end_of_ringbuf_pop 0E1E              __end_of_ringbuf_num 0DF1                       i1LED@value 0070  
            __end_of_timer0_init 0BBF              __end_of_timer1_init 0BD7                 __size_of_display 0217  
                ___lwdiv@divisor 0076                  ___lwdiv@counter 007D             timer0_init@prescaler 00D2  
                       __ptext10 0B3E                         __ptext11 0E79                         __ptext20 0C78  
                       __ptext12 0E1E                         __ptext21 0B57                         __ptext13 0D47  
                       __ptext30 0D99                         __ptext14 0D6F                         __ptext31 0EA9  
                       __ptext23 0DF1                         __ptext15 0EDD                         __ptext40 0B75  
                       __ptext32 0725                         __ptext24 0DC5                         __ptext16 0C0A  
                       __ptext41 0B33                         __ptext33 062E                         __ptext25 06B0  
                       __ptext17 0B27                         __ptext42 0579                         __ptext34 0B85  
                       __ptext26 0D21                         __ptext18 0C5C                         __ptext43 0BD7  
                       __ptext35 0C40                         __ptext27 0F5D                         __ptext19 07EE  
                       __ptext44 0FAE                         __ptext36 0E4B                         __ptext28 01A1  
                       __ptext37 0C24                         __ptext29 0B49                         __ptext38 0B21  
                       __ptext39 0BF0                     _SSP1CON2bits 0216                  ___almod@divisor 0070  
                ___almod@counter 0079                    EEP_Read@Reg_h 00D9                    EEP_Read@Reg_l 00D7  
                       _cut_flag 00C7                   I2C_rStart@adrs 00D3                    __size_of_main 01C1  
                     _EEP_Writes 0D6F          ?_button_timer_interrupt 0070                         int$flags 007E  
                       display@i 004D                       i1_I2C_Send 0B75                       i1_I2C_Stop 0B21  
                    ??_main_init 00DD                       _INTCONbits 000B                         intlevel1 0000  
               ___lwmod@dividend 0072           __size_of_LCD_SetCursor 0010                 ___lldiv@dividend 0074  
                i1I2C_Start@adrs 0073                __CFG_CLKOUTEN$OFF 0000                      ?_I2C_rStart 00D3  
       __size_ofi1_I2C_IdleCheck 000B                     EEP_Read@data 00DA                    _print_content 002B  
 __end_of_button_timer_interrupt 062E                sh_flag_clear@port 00D3                      _ringbuf_pop 0DF1  
                    _ringbuf_num 0DC5                      _timer0_init 0BAA                      _timer1_init 0BBF  
               ___lldiv@quotient 0079                  ___lwmod@divisor 0070                  ___lwmod@counter 0075  
                    EEP_Read@ans 00DB                     ___aldiv@sign 0045                     ___almod@sign 007A  
                    ?_EEP_Writes 00D5  
