

Microchip Technology PIC LITE Macro Assembler V1.33 build 59893 
                                                                                               Sat Jan 31 07:50:39 2015

Microchip Technology Omniscient Code Generator (Lite mode) build 59893
     1                           	processor	16F1827
     2                           	opt	pw 120
     3                           	opt	lm
     4                           	psect	text0,local,class=CODE,merge=1,delta=2
     5                           	psect	cinit,global,class=CODE,merge=1,delta=2
     6                           	psect	bssBANK0,global,class=BANK0,space=1,delta=1
     7                           	psect	bssBANK1,global,class=BANK1,space=1,delta=1
     8                           	psect	clrtext,global,class=CODE,delta=2
     9                           	psect	cstackBANK1,global,class=BANK1,space=1,delta=1
    10                           	psect	cstackCOMMON,global,class=COMMON,space=1,delta=1
    11                           	psect	cstackBANK0,global,class=BANK0,space=1,delta=1
    12                           	psect	maintext,global,class=CODE,merge=1,split=1,delta=2
    13                           	psect	text1,local,class=CODE,merge=1,delta=2
    14                           	psect	text2,local,class=CODE,merge=1,delta=2
    15                           	psect	text3,local,class=CODE,merge=1,delta=2
    16                           	psect	text4,local,class=CODE,merge=1,delta=2
    17                           	psect	text5,local,class=CODE,merge=1,delta=2
    18                           	psect	text6,local,class=CODE,merge=1,delta=2
    19                           	psect	text7,local,class=CODE,merge=1,delta=2
    20                           	psect	text8,local,class=CODE,merge=1,delta=2
    21                           	psect	text9,local,class=CODE,merge=1,delta=2
    22                           	psect	text10,local,class=CODE,merge=1,delta=2
    23                           	psect	intentry,global,class=CODE,delta=2
    24                           	psect	text12,local,class=CODE,merge=1,delta=2
    25                           	psect	text13,local,class=CODE,merge=1,delta=2
    26                           	psect	text14,local,class=CODE,merge=1,delta=2
    27                           	psect	text15,local,class=CODE,merge=1,delta=2
    28                           	psect	text16,local,class=CODE,merge=1,delta=2
    29                           	psect	text17,local,class=CODE,merge=1,delta=2
    30                           	psect	text18,local,class=CODE,merge=1,delta=2
    31                           	psect	text19,local,class=CODE,merge=1,delta=2
    32                           	psect	text20,local,class=CODE,merge=1,delta=2
    33                           	psect	text21,local,class=CODE,merge=1,delta=2
    34                           	psect	text22,local,class=CODE,merge=1,delta=2
    35                           	dabs	1,0x7E,2
    36  0000                     	;# 
    37  0001                     	;# 
    38  0002                     	;# 
    39  0003                     	;# 
    40  0004                     	;# 
    41  0005                     	;# 
    42  0006                     	;# 
    43  0007                     	;# 
    44  0008                     	;# 
    45  0009                     	;# 
    46  000A                     	;# 
    47  000B                     	;# 
    48  000C                     	;# 
    49  000D                     	;# 
    50  0011                     	;# 
    51  0012                     	;# 
    52  0013                     	;# 
    53  0014                     	;# 
    54  0015                     	;# 
    55  0016                     	;# 
    56  0016                     	;# 
    57  0017                     	;# 
    58  0018                     	;# 
    59  0019                     	;# 
    60  001A                     	;# 
    61  001B                     	;# 
    62  001C                     	;# 
    63  001E                     	;# 
    64  001F                     	;# 
    65  008C                     	;# 
    66  008D                     	;# 
    67  0091                     	;# 
    68  0092                     	;# 
    69  0093                     	;# 
    70  0094                     	;# 
    71  0095                     	;# 
    72  0096                     	;# 
    73  0097                     	;# 
    74  0098                     	;# 
    75  0099                     	;# 
    76  009A                     	;# 
    77  009B                     	;# 
    78  009B                     	;# 
    79  009C                     	;# 
    80  009D                     	;# 
    81  009E                     	;# 
    82  010C                     	;# 
    83  010D                     	;# 
    84  0111                     	;# 
    85  0112                     	;# 
    86  0113                     	;# 
    87  0114                     	;# 
    88  0115                     	;# 
    89  0116                     	;# 
    90  0117                     	;# 
    91  0118                     	;# 
    92  0119                     	;# 
    93  011A                     	;# 
    94  011B                     	;# 
    95  011D                     	;# 
    96  011E                     	;# 
    97  018C                     	;# 
    98  018D                     	;# 
    99  0191                     	;# 
   100  0191                     	;# 
   101  0192                     	;# 
   102  0193                     	;# 
   103  0193                     	;# 
   104  0193                     	;# 
   105  0194                     	;# 
   106  0195                     	;# 
   107  0196                     	;# 
   108  0199                     	;# 
   109  019A                     	;# 
   110  019B                     	;# 
   111  019B                     	;# 
   112  019B                     	;# 
   113  019B                     	;# 
   114  019C                     	;# 
   115  019C                     	;# 
   116  019D                     	;# 
   117  019E                     	;# 
   118  019F                     	;# 
   119  020C                     	;# 
   120  020D                     	;# 
   121  0211                     	;# 
   122  0211                     	;# 
   123  0212                     	;# 
   124  0212                     	;# 
   125  0213                     	;# 
   126  0213                     	;# 
   127  0214                     	;# 
   128  0214                     	;# 
   129  0215                     	;# 
   130  0215                     	;# 
   131  0215                     	;# 
   132  0216                     	;# 
   133  0216                     	;# 
   134  0217                     	;# 
   135  0217                     	;# 
   136  0219                     	;# 
   137  021A                     	;# 
   138  021B                     	;# 
   139  021C                     	;# 
   140  021D                     	;# 
   141  021E                     	;# 
   142  021F                     	;# 
   143  0291                     	;# 
   144  0291                     	;# 
   145  0292                     	;# 
   146  0293                     	;# 
   147  0294                     	;# 
   148  0295                     	;# 
   149  0295                     	;# 
   150  0296                     	;# 
   151  0298                     	;# 
   152  0298                     	;# 
   153  0299                     	;# 
   154  029A                     	;# 
   155  029B                     	;# 
   156  029C                     	;# 
   157  029C                     	;# 
   158  029D                     	;# 
   159  029E                     	;# 
   160  029E                     	;# 
   161  0311                     	;# 
   162  0311                     	;# 
   163  0312                     	;# 
   164  0313                     	;# 
   165  0318                     	;# 
   166  0318                     	;# 
   167  0319                     	;# 
   168  031A                     	;# 
   169  0394                     	;# 
   170  0395                     	;# 
   171  0396                     	;# 
   172  039A                     	;# 
   173  039C                     	;# 
   174  039D                     	;# 
   175  039E                     	;# 
   176  039F                     	;# 
   177  0415                     	;# 
   178  0416                     	;# 
   179  0417                     	;# 
   180  041C                     	;# 
   181  041D                     	;# 
   182  041E                     	;# 
   183  0FE4                     	;# 
   184  0FE5                     	;# 
   185  0FE6                     	;# 
   186  0FE7                     	;# 
   187  0FE8                     	;# 
   188  0FE9                     	;# 
   189  0FEA                     	;# 
   190  0FEB                     	;# 
   191  0FED                     	;# 
   192  0FEE                     	;# 
   193  0FEF                     	;# 
   194  000B                     _INTCONbits	set	11
   195  0011                     _PIR1bits	set	17
   196  000C                     _PORTA	set	12
   197  0018                     _T1CON	set	24
   198  0017                     _TMR1H	set	23
   199  0016                     _TMR1L	set	22
   200  009B                     _ADRES	set	155
   201  009D                     _ADCON0bits	set	157
   202  009E                     _ADCON1	set	158
   203  0095                     _OPTION_REG	set	149
   204  0099                     _OSCCON	set	153
   205  0091                     _PIE1bits	set	145
   206  008C                     _TRISA	set	140
   207  008D                     _TRISB	set	141
   208  0117                     _FVRCON	set	279
   209  0866                     _LATA6	set	2150
   210  0867                     _LATA7	set	2151
   211  0868                     _LATB0	set	2152
   212  086B                     _LATB3	set	2155
   213  086C                     _LATB4	set	2156
   214  086D                     _LATB5	set	2157
   215  018C                     _ANSELA	set	396
   216  018D                     _ANSELB	set	397
   217  0199                     _RCREG	set	409
   218  019D                     _RCSTA	set	413
   219  019C                     _SPBRGH	set	412
   220  019B                     _SPBRGL	set	411
   221  019A                     _TXREG	set	410
   222  019E                     _TXSTA	set	414
   223  0CFB                     _BRG16	set	3323
   224  0CEF                     _SPEN	set	3311
   225                           
   226                           	psect	text0
   227  0000                     __ptext0:	
   228                           ; #config settings
   229                           
   230                           
   231                           ;psect for function ___wmul
   232  0000                     
   233                           	psect	cinit
   234  00F0                     start_initialization:	
   235  00F0                     __initialization:	
   236                           
   237                           ; Clear objects allocated to BANK0
   238  00F0  3035               	movlw	low __pbssBANK0
   239  00F1  0084               	movwf	4
   240  00F2  3000               	movlw	high __pbssBANK0
   241  00F3  0085               	movwf	5
   242  00F4  3008               	movlw	8
   243  00F5  3185  2542  3180   	fcall	clear_ram0
   244                           
   245                           ; Clear objects allocated to BANK1
   246  00F8  30D3               	movlw	low __pbssBANK1
   247  00F9  0084               	movwf	4
   248  00FA  3000               	movlw	high __pbssBANK1
   249  00FB  0085               	movwf	5
   250  00FC  3010               	movlw	16
   251  00FD  3185  2542         	fcall	clear_ram0
   252  00FF                     end_of_initialization:	
   253                           ;End of C runtime variable initialization code
   254                           
   255  00FF                     __end_of__initialization:	
   256  00FF  107E               	bcf	pic14e$flags,0	;clear compiler interrupt flag
   257  0100  0020               	movlb	0
   258  0101  3181  29EA         	ljmp	_main	;jump to C main() function
   259                           
   260                           	psect	bssBANK0
   261  0035                     __pbssBANK0:	
   262  0035                     _cnt:	
   263  0035                     	ds	3
   264  0038                     _cntf:	
   265  0038                     	ds	3
   266  003B                     _cnt0:	
   267  003B                     	ds	2
   268                           
   269                           	psect	bssBANK1
   270  00D3                     __pbssBANK1:	
   271  00D3                     _cut:	
   272  00D3                     	ds	6
   273  00D9                     _v:	
   274  00D9                     	ds	6
   275  00DF                     _tx_buf:	
   276  00DF                     	ds	4
   277                           
   278                           	psect	clrtext
   279  0542                     clear_ram0:	
   280                           ;	Called with FSR0 containing the base address, and
   281                           ;	WREG with the size to clear
   282                           
   283  0542  0064               	clrwdt	;clear the watchdog before getting into this loop
   284  0543                     clrloop0:	
   285  0543  0180               	clrf	0	;clear RAM location pointed to by FSR
   286  0544  3101               	addfsr 0,1
   287  0545  0B89               	decfsz	9,f	;Have we reached the end of clearing yet?
   288  0546  2D43               	goto	clrloop0	;have we reached the end yet?
   289  0547  3400               	retlw	0	;all done for this memory range, return
   290                           
   291                           	psect	cstackBANK1
   292  00A0                     __pcstackBANK1:	
   293  00A0                     main@ringbuf:	
   294                           
   295                           ; 50 bytes @ 0x0
   296  00A0                     	ds	50
   297  00D2                     main@i:	
   298                           
   299                           ; 1 bytes @ 0x32
   300  00D2                     	ds	1
   301                           
   302                           	psect	cstackCOMMON
   303  0070                     __pcstackCOMMON:	
   304  0070                     ?_tx_send:	
   305  0070                     ??_ringbuf_num:	
   306                           ; 0 bytes @ 0x0
   307                           
   308  0070                     ??_ringbuf_pop:	
   309                           ; 0 bytes @ 0x0
   310                           
   311  0070                     ?_lchika:	
   312                           ; 0 bytes @ 0x0
   313                           
   314  0070                     ?_isr:	
   315                           ; 0 bytes @ 0x0
   316                           
   317  0070                     ?_display:	
   318                           ; 0 bytes @ 0x0
   319                           
   320  0070                     ?_main_init:	
   321                           ; 0 bytes @ 0x0
   322                           
   323  0070                     ?i1_tx_send:	
   324                           ; 0 bytes @ 0x0
   325                           
   326  0070                     ?i1_ringbuf_put:	
   327                           ; 0 bytes @ 0x0
   328                           
   329  0070                     ?i1_OUT:	
   330                           ; 0 bytes @ 0x0
   331                           
   332  0070                     ?i1_LED:	
   333                           ; 0 bytes @ 0x0
   334                           
   335  0070                     ?_ringbuf_num:	
   336                           ; 0 bytes @ 0x0
   337                           
   338  0070                     ?_ringbuf_pop:	
   339                           ; 1 bytes @ 0x0
   340                           
   341  0070                     ?_SW:	
   342                           ; 1 bytes @ 0x0
   343                           
   344  0070                     ?_adc:	
   345                           ; 1 bytes @ 0x0
   346                           
   347  0070                     ?_main:	
   348                           ; 2 bytes @ 0x0
   349                           
   350  0070                     ?___awdiv:	
   351                           ; 2 bytes @ 0x0
   352                           
   353  0070                     ?i1___lwdiv:	
   354                           ; 2 bytes @ 0x0
   355                           
   356  0070                     i1ringbuf_put@asciicode:	
   357                           ; 2 bytes @ 0x0
   358                           
   359  0070                     i1OUT@value:	
   360                           ; 1 bytes @ 0x0
   361                           
   362  0070                     i1LED@value:	
   363                           ; 1 bytes @ 0x0
   364                           
   365  0070                     ___awdiv@divisor:	
   366                           ; 1 bytes @ 0x0
   367                           
   368  0070                     i1___lwdiv@divisor:	
   369                           ; 2 bytes @ 0x0
   370                           
   371                           
   372                           ; 2 bytes @ 0x0
   373  0070                     	ds	1
   374  0071                     ??i1_ringbuf_put:	
   375  0071                     ??i1_OUT:	
   376                           ; 0 bytes @ 0x1
   377                           
   378  0071                     ??i1_LED:	
   379                           ; 0 bytes @ 0x1
   380                           
   381  0071                     ringbuf_num@rb:	
   382                           ; 0 bytes @ 0x1
   383                           
   384  0071                     i1OUT@b:	
   385                           ; 1 bytes @ 0x1
   386                           
   387  0071                     i1LED@b:	
   388                           ; 1 bytes @ 0x1
   389                           
   390                           
   391                           ; 1 bytes @ 0x1
   392  0071                     	ds	1
   393  0072                     ??_adc:	
   394  0072                     ringbuf_pop@ret:	
   395                           ; 0 bytes @ 0x2
   396                           
   397  0072                     ___awdiv@dividend:	
   398                           ; 1 bytes @ 0x2
   399                           
   400  0072                     i1___lwdiv@dividend:	
   401                           ; 2 bytes @ 0x2
   402                           
   403                           
   404                           ; 2 bytes @ 0x2
   405  0072                     	ds	1
   406  0073                     ringbuf_pop@rb:	
   407  0073                     adc@ch:	
   408                           ; 1 bytes @ 0x3
   409                           
   410  0073                     i1ringbuf_put@rb:	
   411                           ; 1 bytes @ 0x3
   412                           
   413                           
   414                           ; 1 bytes @ 0x3
   415  0073                     	ds	1
   416  0074                     ??___awdiv:	
   417  0074                     ??i1_tx_send:	
   418                           ; 0 bytes @ 0x4
   419                           
   420  0074                     ??i1___lwdiv:	
   421                           ; 0 bytes @ 0x4
   422                           
   423  0074                     ?___wmul:	
   424                           ; 0 bytes @ 0x4
   425                           
   426  0074                     ___wmul@multiplier:	
   427                           ; 2 bytes @ 0x4
   428                           
   429                           
   430                           ; 2 bytes @ 0x4
   431  0074                     	ds	1
   432  0075                     ___awdiv@counter:	
   433  0075                     i1tx_send@asciicode:	
   434                           ; 1 bytes @ 0x5
   435                           
   436  0075                     i1___lwdiv@quotient:	
   437                           ; 1 bytes @ 0x5
   438                           
   439                           
   440                           ; 2 bytes @ 0x5
   441  0075                     	ds	1
   442  0076                     ___awdiv@sign:	
   443  0076                     ___wmul@multiplicand:	
   444                           ; 1 bytes @ 0x6
   445                           
   446                           
   447                           ; 2 bytes @ 0x6
   448  0076                     	ds	1
   449  0077                     i1___lwdiv@counter:	
   450  0077                     ___awdiv@quotient:	
   451                           ; 1 bytes @ 0x7
   452                           
   453                           
   454                           ; 2 bytes @ 0x7
   455  0077                     	ds	1
   456  0078                     ??___wmul:	
   457  0078                     ___wmul@product:	
   458                           ; 0 bytes @ 0x8
   459                           
   460                           
   461                           ; 2 bytes @ 0x8
   462  0078                     	ds	1
   463  0079                     ??_lchika:	
   464                           
   465                           ; 0 bytes @ 0x9
   466  0079                     	ds	4
   467  007D                     lchika@i:	
   468                           
   469                           ; 1 bytes @ 0xD
   470  007D                     	ds	1
   471                           
   472                           	psect	cstackBANK0
   473  0020                     __pcstackBANK0:	
   474  0020                     ??_isr:	
   475                           
   476                           ; 0 bytes @ 0x0
   477  0020                     	ds	3
   478  0023                     isr@i:	
   479                           
   480                           ; 1 bytes @ 0x3
   481  0023                     	ds	1
   482  0024                     ?_OUT:	
   483  0024                     ?_LED:	
   484                           ; 0 bytes @ 0x4
   485                           
   486  0024                     ?_ringbuf_put:	
   487                           ; 0 bytes @ 0x4
   488                           
   489  0024                     ?_init_ringbuf:	
   490                           ; 0 bytes @ 0x4
   491                           
   492  0024                     ??_SW:	
   493                           ; 0 bytes @ 0x4
   494                           
   495  0024                     ??_main_init:	
   496                           ; 0 bytes @ 0x4
   497                           
   498  0024                     ?___lwmod:	
   499                           ; 0 bytes @ 0x4
   500                           
   501  0024                     ringbuf_put@asciicode:	
   502                           ; 2 bytes @ 0x4
   503                           
   504  0024                     init_ringbuf@internal_buf:	
   505                           ; 1 bytes @ 0x4
   506                           
   507  0024                     OUT@value:	
   508                           ; 1 bytes @ 0x4
   509                           
   510  0024                     LED@value:	
   511                           ; 1 bytes @ 0x4
   512                           
   513  0024                     ___lwmod@divisor:	
   514                           ; 1 bytes @ 0x4
   515                           
   516                           
   517                           ; 2 bytes @ 0x4
   518  0024                     	ds	1
   519  0025                     ??_OUT:	
   520  0025                     ??_LED:	
   521                           ; 0 bytes @ 0x5
   522                           
   523  0025                     ??_ringbuf_put:	
   524                           ; 0 bytes @ 0x5
   525                           
   526  0025                     init_ringbuf@bufsize:	
   527                           ; 0 bytes @ 0x5
   528                           
   529  0025                     OUT@b:	
   530                           ; 1 bytes @ 0x5
   531                           
   532  0025                     LED@b:	
   533                           ; 1 bytes @ 0x5
   534                           
   535  0025                     SW@b:	
   536                           ; 1 bytes @ 0x5
   537                           
   538                           
   539                           ; 1 bytes @ 0x5
   540  0025                     	ds	1
   541  0026                     ??_init_ringbuf:	
   542  0026                     SW@temp:	
   543                           ; 0 bytes @ 0x6
   544                           
   545  0026                     ___lwmod@dividend:	
   546                           ; 1 bytes @ 0x6
   547                           
   548                           
   549                           ; 2 bytes @ 0x6
   550  0026                     	ds	1
   551  0027                     ringbuf_put@rb:	
   552  0027                     init_ringbuf@rb:	
   553                           ; 1 bytes @ 0x7
   554                           
   555                           
   556                           ; 1 bytes @ 0x7
   557  0027                     	ds	1
   558  0028                     ??_tx_send:	
   559  0028                     ??___lwmod:	
   560                           ; 0 bytes @ 0x8
   561                           
   562                           
   563                           ; 0 bytes @ 0x8
   564  0028                     	ds	1
   565  0029                     tx_send@asciicode:	
   566  0029                     ___lwmod@counter:	
   567                           ; 1 bytes @ 0x9
   568                           
   569                           
   570                           ; 1 bytes @ 0x9
   571  0029                     	ds	1
   572  002A                     ?___lwdiv:	
   573  002A                     ___lwdiv@divisor:	
   574                           ; 2 bytes @ 0xA
   575                           
   576                           
   577                           ; 2 bytes @ 0xA
   578  002A                     	ds	2
   579  002C                     ___lwdiv@dividend:	
   580                           
   581                           ; 2 bytes @ 0xC
   582  002C                     	ds	2
   583  002E                     ??___lwdiv:	
   584                           
   585                           ; 0 bytes @ 0xE
   586  002E                     	ds	1
   587  002F                     ___lwdiv@counter:	
   588                           
   589                           ; 1 bytes @ 0xF
   590  002F                     	ds	1
   591  0030                     ___lwdiv@quotient:	
   592                           
   593                           ; 2 bytes @ 0x10
   594  0030                     	ds	2
   595  0032                     ??_display:	
   596  0032                     display@i:	
   597                           ; 0 bytes @ 0x12
   598                           
   599                           
   600                           ; 1 bytes @ 0x12
   601  0032                     	ds	1
   602  0033                     ??_main:	
   603                           
   604                           ; 0 bytes @ 0x13
   605  0033                     	ds	2
   606                           
   607                           	psect	maintext
   608  01EA                     __pmaintext:	
   609 ;;
   610 ;;Main: autosize = 0, tempsize = 2, incstack = 0, save=0
   611 ;;
   612 ;; *************** function _main *****************
   613 ;; Defined at:
   614 ;;		line 283 in file "PIC16F1827-ChargeStation3-02.c"
   615 ;; Parameters:    Size  Location     Type
   616 ;;		None
   617 ;; Auto vars:     Size  Location     Type
   618 ;;  ringbuf        50    0[BANK1 ] unsigned char [50]
   619 ;;  i               1   50[BANK1 ] unsigned char 
   620 ;; Return value:  Size  Location     Type
   621 ;;                  2  186[COMMON] int 
   622 ;; Registers used:
   623 ;;		wreg, fsr0l, fsr0h, fsr1l, fsr1h, status,2, status,0, pclath, cstack
   624 ;; Tracked objects:
   625 ;;		On entry : 17F/0
   626 ;;		On exit  : 0/0
   627 ;;		Unchanged: 0/0
   628 ;; Data sizes:     COMMON   BANK0   BANK1   BANK2   BANK3   BANK4
   629 ;;      Params:         0       0       0       0       0       0
   630 ;;      Locals:         0       0      51       0       0       0
   631 ;;      Temps:          0       2       0       0       0       0
   632 ;;      Totals:         0       2      51       0       0       0
   633 ;;Total ram usage:       53 bytes
   634 ;; Hardware stack levels required when called:    6
   635 ;; This function calls:
   636 ;;		_LED
   637 ;;		_OUT
   638 ;;		_SW
   639 ;;		_display
   640 ;;		_init_ringbuf
   641 ;;		_main_init
   642 ;; This function is called by:
   643 ;;		Startup code after reset
   644 ;; This function uses a non-reentrant model
   645 ;;
   646                           
   647                           
   648                           ;psect for function _main
   649  01EA                     _main:	
   650                           
   651                           ;PIC16F1827-ChargeStation3-02.c: 284: main_init();
   652                           
   653                           ;incstack = 0
   654                           ; Regs used in _main: [wreg-fsr1h+status,2+status,0+pclath+cstack]
   655  01EA  3184  241D  3181   	fcall	_main_init
   656                           
   657                           ;PIC16F1827-ChargeStation3-02.c: 286: OUT(0, 1);
   658  01ED  0020               	movlb	0	; select bank0
   659  01EE  01A4               	clrf	OUT@value
   660  01EF  0AA4               	incf	OUT@value,f
   661  01F0  3000               	movlw	0
   662  01F1  3183  239C  3181   	fcall	_OUT
   663                           
   664                           ;PIC16F1827-ChargeStation3-02.c: 287: OUT(1, 1);
   665  01F4  0020               	movlb	0	; select bank0
   666  01F5  01A4               	clrf	OUT@value
   667  01F6  0AA4               	incf	OUT@value,f
   668  01F7  3001               	movlw	1
   669  01F8  3183  239C  3181   	fcall	_OUT
   670                           
   671                           ;PIC16F1827-ChargeStation3-02.c: 288: OUT(2, 1);
   672  01FB  0020               	movlb	0	; select bank0
   673  01FC  01A4               	clrf	OUT@value
   674  01FD  0AA4               	incf	OUT@value,f
   675  01FE  3002               	movlw	2
   676  01FF  3183  239C  3181   	fcall	_OUT
   677                           
   678                           ;PIC16F1827-ChargeStation3-02.c: 289: LED(0, 1);
   679  0202  0020               	movlb	0	; select bank0
   680  0203  01A4               	clrf	LED@value
   681  0204  0AA4               	incf	LED@value,f
   682  0205  3000               	movlw	0
   683  0206  3184  2470  3181   	fcall	_LED
   684                           
   685                           ;PIC16F1827-ChargeStation3-02.c: 290: LED(1, 1);
   686  0209  0020               	movlb	0	; select bank0
   687  020A  01A4               	clrf	LED@value
   688  020B  0AA4               	incf	LED@value,f
   689  020C  3001               	movlw	1
   690  020D  3184  2470  3181   	fcall	_LED
   691                           
   692                           ;PIC16F1827-ChargeStation3-02.c: 291: LED(2, 1);
   693  0210  0020               	movlb	0	; select bank0
   694  0211  01A4               	clrf	LED@value
   695  0212  0AA4               	incf	LED@value,f
   696  0213  3002               	movlw	2
   697  0214  3184  2470  3181   	fcall	_LED
   698                           
   699                           ;PIC16F1827-ChargeStation3-02.c: 293: uint8_t ringbuf[50];
   700                           ;PIC16F1827-ChargeStation3-02.c: 294: init_ringbuf(&tx_buf, ringbuf, sizeof (ringbuf));
   701  0217  30A0               	movlw	main@ringbuf& (0+255)
   702  0218  0020               	movlb	0	; select bank0
   703  0219  00B3               	movwf	??_main
   704  021A  0833               	movf	??_main,w
   705  021B  00A4               	movwf	init_ringbuf@internal_buf
   706  021C  3032               	movlw	50
   707  021D  00B4               	movwf	??_main+1
   708  021E  0834               	movf	??_main+1,w
   709  021F  00A5               	movwf	init_ringbuf@bufsize
   710  0220  30DF               	movlw	_tx_buf& (0+255)
   711  0221  3184  24F8  3181   	fcall	_init_ringbuf
   712  0224                     l1642:	
   713                           ;PIC16F1827-ChargeStation3-02.c: 296: uint8_t i;
   714                           ;PIC16F1827-ChargeStation3-02.c: 298: while (1) {
   715                           
   716                           
   717                           ;PIC16F1827-ChargeStation3-02.c: 299: for (i = 0; i < 3; i++) {
   718  0224  0021               	movlb	1	; select bank1
   719  0225  01D2               	clrf	main@i^(0+128)
   720  0226                     L1:	
   721  0226  3003               	movlw	3
   722  0227  0252               	subwf	main@i^(0+128),w
   723  0228  1803               	btfsc	3,0
   724  0229  2A24               	goto	l1642
   725                           
   726                           ;PIC16F1827-ChargeStation3-02.c: 300: if (SW(i)) {
   727  022A  0852               	movf	main@i^(0+128),w
   728  022B  3185  2513  3181   	fcall	_SW
   729  022E  3A00               	xorlw	0
   730  022F  1903               	skipnz
   731  0230  2A4E               	goto	l190
   732                           
   733                           ;PIC16F1827-ChargeStation3-02.c: 301: OUT(i, 1);
   734  0231  0020               	movlb	0	; select bank0
   735  0232  01A4               	clrf	OUT@value
   736  0233  0AA4               	incf	OUT@value,f
   737  0234  0021               	movlb	1	; select bank1
   738  0235  0852               	movf	main@i^(0+128),w
   739  0236  3183  239C  3181   	fcall	_OUT
   740                           
   741                           ;PIC16F1827-ChargeStation3-02.c: 302: LED(i, 1);
   742  0239  0020               	movlb	0	; select bank0
   743  023A  01A4               	clrf	LED@value
   744  023B  0AA4               	incf	LED@value,f
   745  023C  0021               	movlb	1	; select bank1
   746  023D  0852               	movf	main@i^(0+128),w
   747  023E  3184  2470  3181   	fcall	_LED
   748                           
   749                           ;PIC16F1827-ChargeStation3-02.c: 303: display(i);
   750  0241  0021               	movlb	1	; select bank1
   751  0242  0852               	movf	main@i^(0+128),w
   752  0243  3181  2103  3181   	fcall	_display
   753                           
   754                           ;PIC16F1827-ChargeStation3-02.c: 304: cut[i] = 0;
   755  0246  0021               	movlb	1	; select bank1
   756  0247  3552               	lslf	main@i^(0+128),w
   757  0248  3ED3               	addlw	_cut& (0+255)
   758  0249  0086               	movwf	6
   759  024A  0187               	clrf	7
   760  024B  3000               	movlw	0
   761  024C  3FC0               	movwi [0]fsr1
   762  024D  3FC1               	movwi [1]fsr1
   763  024E                     l190:	
   764  024E  3001               	movlw	1
   765  024F  0020               	movlb	0	; select bank0
   766  0250  00B3               	movwf	??_main
   767  0251  0833               	movf	??_main,w
   768  0252  0021               	movlb	1	; select bank1
   769  0253  07D2               	addwf	main@i^(0+128),f
   770  0254  2A26               	goto	L1
   771  0255                     __end_of_main:	
   772                           ;PIC16F1827-ChargeStation3-02.c: 305: }
   773                           ;PIC16F1827-ChargeStation3-02.c: 306: }
   774                           ;PIC16F1827-ChargeStation3-02.c: 307: }
   775                           ;PIC16F1827-ChargeStation3-02.c: 308: return 0;
   776                           ;	Return value of _main is never used
   777                           
   778                           
   779                           	psect	text1
   780  041D                     __ptext1:	
   781 ;; *************** function _main_init *****************
   782 ;; Defined at:
   783 ;;		line 254 in file "PIC16F1827-ChargeStation3-02.c"
   784 ;; Parameters:    Size  Location     Type
   785 ;;		None
   786 ;; Auto vars:     Size  Location     Type
   787 ;;		None
   788 ;; Return value:  Size  Location     Type
   789 ;;		None               void
   790 ;; Registers used:
   791 ;;		wreg, status,2
   792 ;; Tracked objects:
   793 ;;		On entry : 0/0
   794 ;;		On exit  : 0/0
   795 ;;		Unchanged: 0/0
   796 ;; Data sizes:     COMMON   BANK0   BANK1   BANK2   BANK3   BANK4
   797 ;;      Params:         0       0       0       0       0       0
   798 ;;      Locals:         0       0       0       0       0       0
   799 ;;      Temps:          0       0       0       0       0       0
   800 ;;      Totals:         0       0       0       0       0       0
   801 ;;Total ram usage:        0 bytes
   802 ;; Hardware stack levels used:    1
   803 ;; Hardware stack levels required when called:    3
   804 ;; This function calls:
   805 ;;		Nothing
   806 ;; This function is called by:
   807 ;;		_main
   808 ;; This function uses a non-reentrant model
   809 ;;
   810                           
   811                           
   812                           ;psect for function _main_init
   813  041D                     _main_init:	
   814                           
   815                           ;PIC16F1827-ChargeStation3-02.c: 255: OSCCON = 0x70;
   816                           
   817                           ;incstack = 0
   818                           ; Regs used in _main_init: [wreg+status,2]
   819  041D  3070               	movlw	112
   820  041E  0021               	movlb	1	; select bank1
   821  041F  0099               	movwf	25	;volatile
   822                           
   823                           ;PIC16F1827-ChargeStation3-02.c: 256: TRISA = 0x3F;
   824  0420  303F               	movlw	63
   825  0421  008C               	movwf	12	;volatile
   826                           
   827                           ;PIC16F1827-ChargeStation3-02.c: 257: TRISB = 0x02;
   828  0422  3002               	movlw	2
   829  0423  008D               	movwf	13	;volatile
   830                           
   831                           ;PIC16F1827-ChargeStation3-02.c: 258: ANSELA = 0x07;
   832  0424  3007               	movlw	7
   833  0425  0023               	movlb	3	; select bank3
   834  0426  008C               	movwf	12	;volatile
   835                           
   836                           ;PIC16F1827-ChargeStation3-02.c: 259: ANSELB = 0x00;
   837  0427  018D               	clrf	13	;volatile
   838                           
   839                           ;PIC16F1827-ChargeStation3-02.c: 260: ADCON1 = 0x93;
   840  0428  3093               	movlw	147
   841  0429  0021               	movlb	1	; select bank1
   842  042A  009E               	movwf	30	;volatile
   843                           
   844                           ;PIC16F1827-ChargeStation3-02.c: 261: FVRCON = 0x83;
   845  042B  3083               	movlw	131
   846  042C  0022               	movlb	2	; select bank2
   847  042D  0097               	movwf	23	;volatile
   848                           
   849                           ;PIC16F1827-ChargeStation3-02.c: 263: SPEN = 1;
   850  042E  0023               	movlb	3	; select bank3
   851  042F  179D               	bsf	29,7	;volatile
   852                           
   853                           ;PIC16F1827-ChargeStation3-02.c: 264: RCSTA = 0x90;
   854  0430  3090               	movlw	144
   855  0431  009D               	movwf	29	;volatile
   856                           
   857                           ;PIC16F1827-ChargeStation3-02.c: 265: BRG16 = 0;
   858  0432  119F               	bcf	31,3	;volatile
   859                           
   860                           ;PIC16F1827-ChargeStation3-02.c: 266: SPBRGH = 0;
   861  0433  019C               	clrf	28	;volatile
   862                           
   863                           ;PIC16F1827-ChargeStation3-02.c: 267: SPBRGL = 207;
   864  0434  30CF               	movlw	207
   865  0435  009B               	movwf	27	;volatile
   866                           
   867                           ;PIC16F1827-ChargeStation3-02.c: 268: TXSTA = 0x24;
   868  0436  3024               	movlw	36
   869  0437  009E               	movwf	30	;volatile
   870                           
   871                           ;PIC16F1827-ChargeStation3-02.c: 269: PIE1bits.RCIE = 1;
   872  0438  0021               	movlb	1	; select bank1
   873  0439  1691               	bsf	17,5	;volatile
   874                           
   875                           ;PIC16F1827-ChargeStation3-02.c: 271: OPTION_REG = 0b10010011;
   876  043A  3093               	movlw	147
   877  043B  0095               	movwf	21	;volatile
   878                           
   879                           ;PIC16F1827-ChargeStation3-02.c: 272: INTCONbits.TMR0IE = 1;
   880  043C  168B               	bsf	11,5	;volatile
   881                           
   882                           ;PIC16F1827-ChargeStation3-02.c: 274: T1CON = 0x21;
   883  043D  3021               	movlw	33
   884  043E  0020               	movlb	0	; select bank0
   885  043F  0098               	movwf	24	;volatile
   886                           
   887                           ;PIC16F1827-ChargeStation3-02.c: 275: TMR1H = 0x00;
   888  0440  0197               	clrf	23	;volatile
   889                           
   890                           ;PIC16F1827-ChargeStation3-02.c: 276: TMR1L = 0x00;
   891  0441  0196               	clrf	22	;volatile
   892                           
   893                           ;PIC16F1827-ChargeStation3-02.c: 277: PIE1bits.TMR1IE = 1;
   894  0442  0021               	movlb	1	; select bank1
   895  0443  1411               	bsf	17,0	;volatile
   896                           
   897                           ;PIC16F1827-ChargeStation3-02.c: 279: INTCONbits.PEIE = 1;
   898  0444  170B               	bsf	11,6	;volatile
   899                           
   900                           ;PIC16F1827-ChargeStation3-02.c: 280: INTCONbits.GIE = 1;
   901  0445  178B               	bsf	11,7	;volatile
   902  0446  0008               	return
   903  0447                     __end_of_main_init:	
   904                           
   905                           	psect	text2
   906  04F8                     __ptext2:	
   907 ;; *************** function _init_ringbuf *****************
   908 ;; Defined at:
   909 ;;		line 179 in file "PIC16F1827-ChargeStation3-02.c"
   910 ;; Parameters:    Size  Location     Type
   911 ;;  rb              1    wreg     PTR struct ringbuf
   912 ;;		 -> tx_buf(4), 
   913 ;;  internal_buf    1    4[BANK0 ] PTR unsigned char 
   914 ;;		 -> main@ringbuf(50), 
   915 ;;  bufsize         1    5[BANK0 ] unsigned char 
   916 ;; Auto vars:     Size  Location     Type
   917 ;;  rb              1    7[BANK0 ] PTR struct ringbuf
   918 ;;		 -> tx_buf(4), 
   919 ;; Return value:  Size  Location     Type
   920 ;;		None               void
   921 ;; Registers used:
   922 ;;		wreg, fsr1l, fsr1h, status,2
   923 ;; Tracked objects:
   924 ;;		On entry : 0/0
   925 ;;		On exit  : 0/0
   926 ;;		Unchanged: 0/0
   927 ;; Data sizes:     COMMON   BANK0   BANK1   BANK2   BANK3   BANK4
   928 ;;      Params:         0       2       0       0       0       0
   929 ;;      Locals:         0       1       0       0       0       0
   930 ;;      Temps:          0       1       0       0       0       0
   931 ;;      Totals:         0       4       0       0       0       0
   932 ;;Total ram usage:        4 bytes
   933 ;; Hardware stack levels used:    1
   934 ;; Hardware stack levels required when called:    3
   935 ;; This function calls:
   936 ;;		Nothing
   937 ;; This function is called by:
   938 ;;		_main
   939 ;; This function uses a non-reentrant model
   940 ;;
   941                           
   942                           
   943                           ;psect for function _init_ringbuf
   944  04F8                     _init_ringbuf:	
   945                           
   946                           ;incstack = 0
   947                           ; Regs used in _init_ringbuf: [wreg+fsr1l+fsr1h+status,2]
   948                           ;init_ringbuf@rb stored from wreg
   949  04F8  0020               	movlb	0	; select bank0
   950  04F9  00A7               	movwf	init_ringbuf@rb
   951                           
   952                           ;PIC16F1827-ChargeStation3-02.c: 180: rb->buf = internal_buf;
   953  04FA  0824               	movf	init_ringbuf@internal_buf,w
   954  04FB  00A6               	movwf	??_init_ringbuf
   955  04FC  0827               	movf	init_ringbuf@rb,w
   956  04FD  0086               	movwf	6
   957  04FE  0187               	clrf	7
   958  04FF  0826               	movf	??_init_ringbuf,w
   959  0500  0081               	movwf	1
   960                           
   961                           ;PIC16F1827-ChargeStation3-02.c: 181: rb->size = bufsize;
   962  0501  0825               	movf	init_ringbuf@bufsize,w
   963  0502  00A6               	movwf	??_init_ringbuf
   964  0503  0A27               	incf	init_ringbuf@rb,w
   965  0504  0086               	movwf	6
   966  0505  0187               	clrf	7
   967  0506  0826               	movf	??_init_ringbuf,w
   968  0507  0081               	movwf	1
   969                           
   970                           ;PIC16F1827-ChargeStation3-02.c: 182: rb->head = 0;
   971  0508  0827               	movf	init_ringbuf@rb,w
   972  0509  3E02               	addlw	2
   973  050A  0086               	movwf	6
   974  050B  0187               	clrf	7
   975  050C  0181               	clrf	1
   976                           
   977                           ;PIC16F1827-ChargeStation3-02.c: 183: rb->tail = 0;
   978  050D  0827               	movf	init_ringbuf@rb,w
   979  050E  3E03               	addlw	3
   980  050F  0086               	movwf	6
   981  0510  0187               	clrf	7
   982  0511  0181               	clrf	1
   983  0512  0008               	return
   984  0513                     __end_of_init_ringbuf:	
   985                           
   986                           	psect	text3
   987  0103                     __ptext3:	
   988 ;; *************** function _display *****************
   989 ;; Defined at:
   990 ;;		line 140 in file "PIC16F1827-ChargeStation3-02.c"
   991 ;; Parameters:    Size  Location     Type
   992 ;;  i               1    wreg     unsigned char 
   993 ;; Auto vars:     Size  Location     Type
   994 ;;  i               1   18[BANK0 ] unsigned char 
   995 ;; Return value:  Size  Location     Type
   996 ;;		None               void
   997 ;; Registers used:
   998 ;;		wreg, fsr0l, fsr0h, fsr1l, fsr1h, status,2, status,0, pclath, cstack
   999 ;; Tracked objects:
  1000 ;;		On entry : 0/0
  1001 ;;		On exit  : 0/0
  1002 ;;		Unchanged: 0/0
  1003 ;; Data sizes:     COMMON   BANK0   BANK1   BANK2   BANK3   BANK4
  1004 ;;      Params:         0       0       0       0       0       0
  1005 ;;      Locals:         0       1       0       0       0       0
  1006 ;;      Temps:          0       0       0       0       0       0
  1007 ;;      Totals:         0       1       0       0       0       0
  1008 ;;Total ram usage:        1 bytes
  1009 ;; Hardware stack levels used:    1
  1010 ;; Hardware stack levels required when called:    5
  1011 ;; This function calls:
  1012 ;;		___lwdiv
  1013 ;;		___lwmod
  1014 ;;		_tx_send
  1015 ;; This function is called by:
  1016 ;;		_main
  1017 ;; This function uses a non-reentrant model
  1018 ;;
  1019                           
  1020                           
  1021                           ;psect for function _display
  1022  0103                     _display:	
  1023                           
  1024                           ;incstack = 0
  1025                           ; Regs used in _display: [wreg-fsr1h+status,2+status,0+pclath+cstack]
  1026                           ;display@i stored from wreg
  1027  0103  0020               	movlb	0	; select bank0
  1028  0104  00B2               	movwf	display@i
  1029                           
  1030                           ;PIC16F1827-ChargeStation3-02.c: 141: tx_send((v[i] % 10000) / 1000 + '0');
  1031  0105  30E8               	movlw	232
  1032  0106  00AA               	movwf	___lwdiv@divisor
  1033  0107  3003               	movlw	3
  1034  0108  00AB               	movwf	___lwdiv@divisor+1
  1035  0109  3532               	lslf	display@i,w
  1036  010A  3ED9               	addlw	_v& (0+255)
  1037  010B  0086               	movwf	6
  1038  010C  0187               	clrf	7
  1039  010D  3F40               	moviw [0]fsr1
  1040  010E  00A6               	movwf	___lwmod@dividend
  1041  010F  3F41               	moviw [1]fsr1
  1042  0110  00A7               	movwf	___lwmod@dividend+1
  1043  0111  3010               	movlw	16
  1044  0112  00A4               	movwf	___lwmod@divisor
  1045  0113  3027               	movlw	39
  1046  0114  00A5               	movwf	___lwmod@divisor+1
  1047  0115  3183  2315  3181   	fcall	___lwmod
  1048  0118  0020               	movlb	0	; select bank0
  1049  0119  0825               	movf	?___lwmod+1,w
  1050  011A  01AD               	clrf	___lwdiv@dividend+1
  1051  011B  07AD               	addwf	___lwdiv@dividend+1,f
  1052  011C  0824               	movf	?___lwmod,w
  1053  011D  01AC               	clrf	___lwdiv@dividend
  1054  011E  07AC               	addwf	___lwdiv@dividend,f
  1055  011F  3182  22A8  3181   	fcall	___lwdiv
  1056  0122  0020               	movlb	0	; select bank0
  1057  0123  082A               	movf	?___lwdiv,w
  1058  0124  3E30               	addlw	48
  1059  0125  3185  252B  3181   	fcall	_tx_send
  1060                           
  1061                           ;PIC16F1827-ChargeStation3-02.c: 142: tx_send('.');
  1062  0128  302E               	movlw	46
  1063  0129  3185  252B  3181   	fcall	_tx_send
  1064                           
  1065                           ;PIC16F1827-ChargeStation3-02.c: 143: tx_send((v[i] % 1000) / 100 + '0');
  1066  012C  3064               	movlw	100
  1067  012D  0020               	movlb	0	; select bank0
  1068  012E  00AA               	movwf	___lwdiv@divisor
  1069  012F  3000               	movlw	0
  1070  0130  00AB               	movwf	___lwdiv@divisor+1
  1071  0131  3532               	lslf	display@i,w
  1072  0132  3ED9               	addlw	_v& (0+255)
  1073  0133  0086               	movwf	6
  1074  0134  0187               	clrf	7
  1075  0135  3F40               	moviw [0]fsr1
  1076  0136  00A6               	movwf	___lwmod@dividend
  1077  0137  3F41               	moviw [1]fsr1
  1078  0138  00A7               	movwf	___lwmod@dividend+1
  1079  0139  30E8               	movlw	232
  1080  013A  00A4               	movwf	___lwmod@divisor
  1081  013B  3003               	movlw	3
  1082  013C  00A5               	movwf	___lwmod@divisor+1
  1083  013D  3183  2315  3181   	fcall	___lwmod
  1084  0140  0020               	movlb	0	; select bank0
  1085  0141  0825               	movf	?___lwmod+1,w
  1086  0142  01AD               	clrf	___lwdiv@dividend+1
  1087  0143  07AD               	addwf	___lwdiv@dividend+1,f
  1088  0144  0824               	movf	?___lwmod,w
  1089  0145  01AC               	clrf	___lwdiv@dividend
  1090  0146  07AC               	addwf	___lwdiv@dividend,f
  1091  0147  3182  22A8  3181   	fcall	___lwdiv
  1092  014A  0020               	movlb	0	; select bank0
  1093  014B  082A               	movf	?___lwdiv,w
  1094  014C  3E30               	addlw	48
  1095  014D  3185  252B  3181   	fcall	_tx_send
  1096                           
  1097                           ;PIC16F1827-ChargeStation3-02.c: 144: tx_send((v[i] % 100) / 10 + '0');
  1098  0150  300A               	movlw	10
  1099  0151  0020               	movlb	0	; select bank0
  1100  0152  00AA               	movwf	___lwdiv@divisor
  1101  0153  3000               	movlw	0
  1102  0154  00AB               	movwf	___lwdiv@divisor+1
  1103  0155  3532               	lslf	display@i,w
  1104  0156  3ED9               	addlw	_v& (0+255)
  1105  0157  0086               	movwf	6
  1106  0158  0187               	clrf	7
  1107  0159  3F40               	moviw [0]fsr1
  1108  015A  00A6               	movwf	___lwmod@dividend
  1109  015B  3F41               	moviw [1]fsr1
  1110  015C  00A7               	movwf	___lwmod@dividend+1
  1111  015D  3064               	movlw	100
  1112  015E  00A4               	movwf	___lwmod@divisor
  1113  015F  3000               	movlw	0
  1114  0160  00A5               	movwf	___lwmod@divisor+1
  1115  0161  3183  2315  3181   	fcall	___lwmod
  1116  0164  0020               	movlb	0	; select bank0
  1117  0165  0825               	movf	?___lwmod+1,w
  1118  0166  01AD               	clrf	___lwdiv@dividend+1
  1119  0167  07AD               	addwf	___lwdiv@dividend+1,f
  1120  0168  0824               	movf	?___lwmod,w
  1121  0169  01AC               	clrf	___lwdiv@dividend
  1122  016A  07AC               	addwf	___lwdiv@dividend,f
  1123  016B  3182  22A8  3181   	fcall	___lwdiv
  1124  016E  0020               	movlb	0	; select bank0
  1125  016F  082A               	movf	?___lwdiv,w
  1126  0170  3E30               	addlw	48
  1127  0171  3185  252B  3181   	fcall	_tx_send
  1128                           
  1129                           ;PIC16F1827-ChargeStation3-02.c: 145: tx_send('A');
  1130  0174  3041               	movlw	65
  1131  0175  3185  252B  3181   	fcall	_tx_send
  1132                           
  1133                           ;PIC16F1827-ChargeStation3-02.c: 146: tx_send(0x0D);
  1134  0178  300D               	movlw	13
  1135  0179  3185  252B         	fcall	_tx_send
  1136  017B  0008               	return
  1137  017C                     __end_of_display:	
  1138                           
  1139                           	psect	text4
  1140  052B                     __ptext4:	
  1141 ;; *************** function _tx_send *****************
  1142 ;; Defined at:
  1143 ;;		line 149 in file "PIC16F1827-ChargeStation3-02.c"
  1144 ;; Parameters:    Size  Location     Type
  1145 ;;  asciicode       1    wreg     unsigned char 
  1146 ;; Auto vars:     Size  Location     Type
  1147 ;;  asciicode       1    9[BANK0 ] unsigned char 
  1148 ;; Return value:  Size  Location     Type
  1149 ;;		None               void
  1150 ;; Registers used:
  1151 ;;		wreg, fsr0l, fsr0h, fsr1l, fsr1h, status,2, status,0, pclath, cstack
  1152 ;; Tracked objects:
  1153 ;;		On entry : 0/0
  1154 ;;		On exit  : 0/0
  1155 ;;		Unchanged: 0/0
  1156 ;; Data sizes:     COMMON   BANK0   BANK1   BANK2   BANK3   BANK4
  1157 ;;      Params:         0       0       0       0       0       0
  1158 ;;      Locals:         0       1       0       0       0       0
  1159 ;;      Temps:          0       1       0       0       0       0
  1160 ;;      Totals:         0       2       0       0       0       0
  1161 ;;Total ram usage:        2 bytes
  1162 ;; Hardware stack levels used:    1
  1163 ;; Hardware stack levels required when called:    4
  1164 ;; This function calls:
  1165 ;;		_ringbuf_put
  1166 ;; This function is called by:
  1167 ;;		_display
  1168 ;; This function uses a non-reentrant model
  1169 ;;
  1170                           
  1171                           
  1172                           ;psect for function _tx_send
  1173  052B                     _tx_send:	
  1174                           
  1175                           ;incstack = 0
  1176                           ; Regs used in _tx_send: [wreg-fsr1h+status,2+status,0+pclath+cstack]
  1177                           ;tx_send@asciicode stored from wreg
  1178  052B  0020               	movlb	0	; select bank0
  1179  052C  00A9               	movwf	tx_send@asciicode
  1180                           
  1181                           ;PIC16F1827-ChargeStation3-02.c: 150: ringbuf_put(&tx_buf, asciicode);
  1182  052D  0829               	movf	tx_send@asciicode,w
  1183  052E  00A8               	movwf	??_tx_send
  1184  052F  0828               	movf	??_tx_send,w
  1185  0530  00A4               	movwf	ringbuf_put@asciicode
  1186  0531  30DF               	movlw	_tx_buf& (0+255)
  1187  0532  3183  2344         	fcall	_ringbuf_put
  1188                           
  1189                           ;PIC16F1827-ChargeStation3-02.c: 151: PIE1bits.TXIE = 1;
  1190  0534  0021               	movlb	1	; select bank1
  1191  0535  1611               	bsf	17,4	;volatile
  1192  0536  0008               	return
  1193  0537                     __end_of_tx_send:	
  1194                           
  1195                           	psect	text5
  1196  0344                     __ptext5:	
  1197 ;; *************** function _ringbuf_put *****************
  1198 ;; Defined at:
  1199 ;;		line 154 in file "PIC16F1827-ChargeStation3-02.c"
  1200 ;; Parameters:    Size  Location     Type
  1201 ;;  rb              1    wreg     PTR struct ringbuf
  1202 ;;		 -> tx_buf(4), 
  1203 ;;  asciicode       1    4[BANK0 ] unsigned char 
  1204 ;; Auto vars:     Size  Location     Type
  1205 ;;  rb              1    7[BANK0 ] PTR struct ringbuf
  1206 ;;		 -> tx_buf(4), 
  1207 ;; Return value:  Size  Location     Type
  1208 ;;		None               void
  1209 ;; Registers used:
  1210 ;;		wreg, fsr0l, fsr0h, fsr1l, fsr1h, status,2, status,0
  1211 ;; Tracked objects:
  1212 ;;		On entry : 0/0
  1213 ;;		On exit  : 0/0
  1214 ;;		Unchanged: 0/0
  1215 ;; Data sizes:     COMMON   BANK0   BANK1   BANK2   BANK3   BANK4
  1216 ;;      Params:         0       1       0       0       0       0
  1217 ;;      Locals:         0       1       0       0       0       0
  1218 ;;      Temps:          0       2       0       0       0       0
  1219 ;;      Totals:         0       4       0       0       0       0
  1220 ;;Total ram usage:        4 bytes
  1221 ;; Hardware stack levels used:    1
  1222 ;; Hardware stack levels required when called:    3
  1223 ;; This function calls:
  1224 ;;		Nothing
  1225 ;; This function is called by:
  1226 ;;		_tx_send
  1227 ;; This function uses a non-reentrant model
  1228 ;;
  1229                           
  1230                           
  1231                           ;psect for function _ringbuf_put
  1232  0344                     _ringbuf_put:	
  1233                           
  1234                           ;incstack = 0
  1235                           ; Regs used in _ringbuf_put: [wreg-fsr1h+status,2+status,0]
  1236                           ;ringbuf_put@rb stored from wreg
  1237  0344  0020               	movlb	0	; select bank0
  1238  0345  00A7               	movwf	ringbuf_put@rb
  1239                           
  1240                           ;PIC16F1827-ChargeStation3-02.c: 155: rb->buf[rb->head] = asciicode;
  1241  0346  0824               	movf	ringbuf_put@asciicode,w
  1242  0347  00A5               	movwf	??_ringbuf_put
  1243  0348  0827               	movf	ringbuf_put@rb,w
  1244  0349  0086               	movwf	6
  1245  034A  0187               	clrf	7
  1246  034B  0827               	movf	ringbuf_put@rb,w
  1247  034C  3E02               	addlw	2
  1248  034D  0084               	movwf	4
  1249  034E  0185               	clrf	5
  1250  034F  0800               	movf	0,w
  1251  0350  0701               	addwf	1,w
  1252  0351  00A6               	movwf	??_ringbuf_put+1
  1253  0352  0826               	movf	??_ringbuf_put+1,w
  1254  0353  0086               	movwf	6
  1255  0354  0187               	clrf	7
  1256  0355  0825               	movf	??_ringbuf_put,w
  1257  0356  0081               	movwf	1
  1258                           
  1259                           ;PIC16F1827-ChargeStation3-02.c: 156: rb->head++;
  1260  0357  3001               	movlw	1
  1261  0358  00A5               	movwf	??_ringbuf_put
  1262  0359  0827               	movf	ringbuf_put@rb,w
  1263  035A  3E02               	addlw	2
  1264  035B  0086               	movwf	6
  1265  035C  0187               	clrf	7
  1266  035D  0825               	movf	??_ringbuf_put,w
  1267  035E  0781               	addwf	1,f
  1268                           
  1269                           ;PIC16F1827-ChargeStation3-02.c: 157: if (rb->head >= rb->size) {
  1270  035F  0827               	movf	ringbuf_put@rb,w
  1271  0360  3E02               	addlw	2
  1272  0361  0086               	movwf	6
  1273  0362  0187               	clrf	7
  1274  0363  0A27               	incf	ringbuf_put@rb,w
  1275  0364  0084               	movwf	4
  1276  0365  0185               	clrf	5
  1277  0366  0800               	movf	0,w
  1278  0367  0201               	subwf	1,w
  1279  0368  1C03               	skipc
  1280  0369  0008               	return
  1281                           
  1282                           ;PIC16F1827-ChargeStation3-02.c: 158: rb->head = 0;
  1283  036A  0827               	movf	ringbuf_put@rb,w
  1284  036B  3E02               	addlw	2
  1285  036C  0086               	movwf	6
  1286  036D  0187               	clrf	7
  1287  036E  0181               	clrf	1
  1288  036F  0008               	return
  1289  0370                     __end_of_ringbuf_put:	
  1290                           
  1291                           	psect	text6
  1292  0315                     __ptext6:	
  1293 ;; *************** function ___lwmod *****************
  1294 ;; Defined at:
  1295 ;;		line 6 in file "C:\Program Files (x86)\Microchip\xc8\v1.33\sources\common\lwmod.c"
  1296 ;; Parameters:    Size  Location     Type
  1297 ;;  divisor         2    4[BANK0 ] unsigned int 
  1298 ;;  dividend        2    6[BANK0 ] unsigned int 
  1299 ;; Auto vars:     Size  Location     Type
  1300 ;;  counter         1    9[BANK0 ] unsigned char 
  1301 ;; Return value:  Size  Location     Type
  1302 ;;                  2    4[BANK0 ] unsigned int 
  1303 ;; Registers used:
  1304 ;;		wreg, status,2, status,0
  1305 ;; Tracked objects:
  1306 ;;		On entry : 0/0
  1307 ;;		On exit  : 0/0
  1308 ;;		Unchanged: 0/0
  1309 ;; Data sizes:     COMMON   BANK0   BANK1   BANK2   BANK3   BANK4
  1310 ;;      Params:         0       4       0       0       0       0
  1311 ;;      Locals:         0       1       0       0       0       0
  1312 ;;      Temps:          0       1       0       0       0       0
  1313 ;;      Totals:         0       6       0       0       0       0
  1314 ;;Total ram usage:        6 bytes
  1315 ;; Hardware stack levels used:    1
  1316 ;; Hardware stack levels required when called:    3
  1317 ;; This function calls:
  1318 ;;		Nothing
  1319 ;; This function is called by:
  1320 ;;		_display
  1321 ;; This function uses a non-reentrant model
  1322 ;;
  1323                           
  1324                           
  1325                           ;psect for function ___lwmod
  1326  0315                     ___lwmod:	
  1327                           
  1328                           ;incstack = 0
  1329                           ; Regs used in ___lwmod: [wreg+status,2+status,0]
  1330  0315  0020               	movlb	0	; select bank0
  1331  0316  0825               	movf	___lwmod@divisor+1,w
  1332  0317  0424               	iorwf	___lwmod@divisor,w
  1333  0318  1903               	skipnz
  1334  0319  2B3D               	goto	l1482
  1335  031A  01A9               	clrf	___lwmod@counter
  1336  031B  0AA9               	incf	___lwmod@counter,f
  1337  031C                     l1472:	
  1338  031C  1BA5               	btfsc	___lwmod@divisor+1,7
  1339  031D  2B28               	goto	l1474
  1340  031E  3001               	movlw	1
  1341  031F                     u1675:	
  1342  031F  35A4               	lslf	___lwmod@divisor,f
  1343  0320  0DA5               	rlf	___lwmod@divisor+1,f
  1344  0321  0B89               	decfsz	9,f
  1345  0322  2B1F               	goto	u1675
  1346  0323  3001               	movlw	1
  1347  0324  00A8               	movwf	??___lwmod
  1348  0325  0828               	movf	??___lwmod,w
  1349  0326  07A9               	addwf	___lwmod@counter,f
  1350  0327  2B1C               	goto	l1472
  1351  0328                     l1474:	
  1352  0328  0825               	movf	___lwmod@divisor+1,w
  1353  0329  0227               	subwf	___lwmod@dividend+1,w
  1354  032A  1D03               	skipz
  1355  032B  2B2E               	goto	u1695
  1356  032C  0824               	movf	___lwmod@divisor,w
  1357  032D  0226               	subwf	___lwmod@dividend,w
  1358  032E                     u1695:	
  1359  032E  1C03               	skipc
  1360  032F  2B34               	goto	l1478
  1361  0330  0824               	movf	___lwmod@divisor,w
  1362  0331  02A6               	subwf	___lwmod@dividend,f
  1363  0332  0825               	movf	___lwmod@divisor+1,w
  1364  0333  3BA7               	subwfb	___lwmod@dividend+1,f
  1365  0334                     l1478:	
  1366  0334  3001               	movlw	1
  1367  0335                     u1705:	
  1368  0335  36A5               	lsrf	___lwmod@divisor+1,f
  1369  0336  0CA4               	rrf	___lwmod@divisor,f
  1370  0337  0B89               	decfsz	9,f
  1371  0338  2B35               	goto	u1705
  1372  0339  3001               	movlw	1
  1373  033A  02A9               	subwf	___lwmod@counter,f
  1374  033B  1D03               	btfss	3,2
  1375  033C  2B28               	goto	l1474
  1376  033D                     l1482:	
  1377  033D  0827               	movf	___lwmod@dividend+1,w
  1378  033E  01A5               	clrf	?___lwmod+1
  1379  033F  07A5               	addwf	?___lwmod+1,f
  1380  0340  0826               	movf	___lwmod@dividend,w
  1381  0341  01A4               	clrf	?___lwmod
  1382  0342  07A4               	addwf	?___lwmod,f
  1383  0343  0008               	return
  1384  0344                     __end_of___lwmod:	
  1385                           
  1386                           	psect	text7
  1387  02A8                     __ptext7:	
  1388 ;; *************** function ___lwdiv *****************
  1389 ;; Defined at:
  1390 ;;		line 6 in file "C:\Program Files (x86)\Microchip\xc8\v1.33\sources\common\lwdiv.c"
  1391 ;; Parameters:    Size  Location     Type
  1392 ;;  divisor         2   10[BANK0 ] unsigned int 
  1393 ;;  dividend        2   12[BANK0 ] unsigned int 
  1394 ;; Auto vars:     Size  Location     Type
  1395 ;;  quotient        2   16[BANK0 ] unsigned int 
  1396 ;;  counter         1   15[BANK0 ] unsigned char 
  1397 ;; Return value:  Size  Location     Type
  1398 ;;                  2   10[BANK0 ] unsigned int 
  1399 ;; Registers used:
  1400 ;;		wreg, status,2, status,0
  1401 ;; Tracked objects:
  1402 ;;		On entry : 0/0
  1403 ;;		On exit  : 0/0
  1404 ;;		Unchanged: 0/0
  1405 ;; Data sizes:     COMMON   BANK0   BANK1   BANK2   BANK3   BANK4
  1406 ;;      Params:         0       4       0       0       0       0
  1407 ;;      Locals:         0       3       0       0       0       0
  1408 ;;      Temps:          0       1       0       0       0       0
  1409 ;;      Totals:         0       8       0       0       0       0
  1410 ;;Total ram usage:        8 bytes
  1411 ;; Hardware stack levels used:    1
  1412 ;; Hardware stack levels required when called:    3
  1413 ;; This function calls:
  1414 ;;		Nothing
  1415 ;; This function is called by:
  1416 ;;		_display
  1417 ;; This function uses a non-reentrant model
  1418 ;;
  1419                           
  1420                           
  1421                           ;psect for function ___lwdiv
  1422  02A8                     ___lwdiv:	
  1423                           
  1424                           ;incstack = 0
  1425                           ; Regs used in ___lwdiv: [wreg+status,2+status,0]
  1426  02A8  0020               	movlb	0	; select bank0
  1427  02A9  01B0               	clrf	___lwdiv@quotient
  1428  02AA  01B1               	clrf	___lwdiv@quotient+1
  1429  02AB  082B               	movf	___lwdiv@divisor+1,w
  1430  02AC  042A               	iorwf	___lwdiv@divisor,w
  1431  02AD  1903               	skipnz
  1432  02AE  2AD8               	goto	l1460
  1433  02AF  01AF               	clrf	___lwdiv@counter
  1434  02B0  0AAF               	incf	___lwdiv@counter,f
  1435  02B1                     l1448:	
  1436  02B1  1BAB               	btfsc	___lwdiv@divisor+1,7
  1437  02B2  2ABD               	goto	l1450
  1438  02B3  3001               	movlw	1
  1439  02B4                     u1605:	
  1440  02B4  35AA               	lslf	___lwdiv@divisor,f
  1441  02B5  0DAB               	rlf	___lwdiv@divisor+1,f
  1442  02B6  0B89               	decfsz	9,f
  1443  02B7  2AB4               	goto	u1605
  1444  02B8  3001               	movlw	1
  1445  02B9  00AE               	movwf	??___lwdiv
  1446  02BA  082E               	movf	??___lwdiv,w
  1447  02BB  07AF               	addwf	___lwdiv@counter,f
  1448  02BC  2AB1               	goto	l1448
  1449  02BD                     l1450:	
  1450  02BD  3001               	movlw	1
  1451  02BE                     u1625:	
  1452  02BE  35B0               	lslf	___lwdiv@quotient,f
  1453  02BF  0DB1               	rlf	___lwdiv@quotient+1,f
  1454  02C0  0B89               	decfsz	9,f
  1455  02C1  2ABE               	goto	u1625
  1456  02C2  082B               	movf	___lwdiv@divisor+1,w
  1457  02C3  022D               	subwf	___lwdiv@dividend+1,w
  1458  02C4  1D03               	skipz
  1459  02C5  2AC8               	goto	u1635
  1460  02C6  082A               	movf	___lwdiv@divisor,w
  1461  02C7  022C               	subwf	___lwdiv@dividend,w
  1462  02C8                     u1635:	
  1463  02C8  1C03               	skipc
  1464  02C9  2ACF               	goto	l1456
  1465  02CA  082A               	movf	___lwdiv@divisor,w
  1466  02CB  02AC               	subwf	___lwdiv@dividend,f
  1467  02CC  082B               	movf	___lwdiv@divisor+1,w
  1468  02CD  3BAD               	subwfb	___lwdiv@dividend+1,f
  1469  02CE  1430               	bsf	___lwdiv@quotient,0
  1470  02CF                     l1456:	
  1471  02CF  3001               	movlw	1
  1472  02D0                     u1645:	
  1473  02D0  36AB               	lsrf	___lwdiv@divisor+1,f
  1474  02D1  0CAA               	rrf	___lwdiv@divisor,f
  1475  02D2  0B89               	decfsz	9,f
  1476  02D3  2AD0               	goto	u1645
  1477  02D4  3001               	movlw	1
  1478  02D5  02AF               	subwf	___lwdiv@counter,f
  1479  02D6  1D03               	btfss	3,2
  1480  02D7  2ABD               	goto	l1450
  1481  02D8                     l1460:	
  1482  02D8  0831               	movf	___lwdiv@quotient+1,w
  1483  02D9  01AB               	clrf	?___lwdiv+1
  1484  02DA  07AB               	addwf	?___lwdiv+1,f
  1485  02DB  0830               	movf	___lwdiv@quotient,w
  1486  02DC  01AA               	clrf	?___lwdiv
  1487  02DD  07AA               	addwf	?___lwdiv,f
  1488  02DE  0008               	return
  1489  02DF                     __end_of___lwdiv:	
  1490                           
  1491                           	psect	text8
  1492  0513                     __ptext8:	
  1493 ;; *************** function _SW *****************
  1494 ;; Defined at:
  1495 ;;		line 239 in file "PIC16F1827-ChargeStation3-02.c"
  1496 ;; Parameters:    Size  Location     Type
  1497 ;;  b               1    wreg     unsigned char 
  1498 ;; Auto vars:     Size  Location     Type
  1499 ;;  b               1    5[BANK0 ] unsigned char 
  1500 ;;  temp            1    6[BANK0 ] unsigned char 
  1501 ;; Return value:  Size  Location     Type
  1502 ;;                  1    wreg      unsigned char 
  1503 ;; Registers used:
  1504 ;;		wreg, status,2, status,0
  1505 ;; Tracked objects:
  1506 ;;		On entry : 0/0
  1507 ;;		On exit  : 0/0
  1508 ;;		Unchanged: 0/0
  1509 ;; Data sizes:     COMMON   BANK0   BANK1   BANK2   BANK3   BANK4
  1510 ;;      Params:         0       0       0       0       0       0
  1511 ;;      Locals:         0       2       0       0       0       0
  1512 ;;      Temps:          0       1       0       0       0       0
  1513 ;;      Totals:         0       3       0       0       0       0
  1514 ;;Total ram usage:        3 bytes
  1515 ;; Hardware stack levels used:    1
  1516 ;; Hardware stack levels required when called:    3
  1517 ;; This function calls:
  1518 ;;		Nothing
  1519 ;; This function is called by:
  1520 ;;		_main
  1521 ;; This function uses a non-reentrant model
  1522 ;;
  1523                           
  1524                           
  1525                           ;psect for function _SW
  1526  0513                     _SW:	
  1527                           
  1528                           ;incstack = 0
  1529                           ; Regs used in _SW: [wreg+status,2+status,0]
  1530                           ;SW@b stored from wreg
  1531  0513  0020               	movlb	0	; select bank0
  1532  0514  00A5               	movwf	SW@b
  1533                           
  1534                           ;PIC16F1827-ChargeStation3-02.c: 240: uint8_t temp;
  1535                           ;PIC16F1827-ChargeStation3-02.c: 241: temp = PORTA;
  1536  0515  080C               	movf	12,w	;volatile
  1537  0516  00A4               	movwf	??_SW
  1538  0517  0824               	movf	??_SW,w
  1539  0518  00A6               	movwf	SW@temp
  1540                           
  1541                           ;PIC16F1827-ChargeStation3-02.c: 242: if (temp & (0x01 << (2 - b + 3))) {
  1542  0519  3001               	movlw	1
  1543  051A  00A4               	movwf	??_SW
  1544  051B  0325               	decf	SW@b,w
  1545  051C  3AFF               	xorlw	255
  1546  051D  3E05               	addlw	5
  1547  051E  0A89               	incf	9,f
  1548  051F  2D21               	goto	u1834
  1549  0520                     u1835:	
  1550  0520  35A4               	lslf	??_SW,f
  1551  0521                     u1834:	
  1552  0521  0B89               	decfsz	9,f
  1553  0522  2D20               	goto	u1835
  1554  0523  0824               	movf	??_SW,w
  1555  0524  0526               	andwf	SW@temp,w
  1556  0525  1903               	btfsc	3,2
  1557  0526  2D29               	goto	l1542
  1558                           
  1559                           ;PIC16F1827-ChargeStation3-02.c: 243: return 0;
  1560  0527  3000               	movlw	0
  1561                           
  1562                           ;PIC16F1827-ChargeStation3-02.c: 244: } else {
  1563  0528  0008               	return
  1564  0529                     l1542:	
  1565                           
  1566                           ;PIC16F1827-ChargeStation3-02.c: 245: return 1;
  1567  0529  3001               	movlw	1
  1568  052A  0008               	return
  1569  052B                     __end_of_SW:	
  1570                           
  1571                           	psect	text9
  1572  039C                     __ptext9:	
  1573 ;; *************** function _OUT *****************
  1574 ;; Defined at:
  1575 ;;		line 195 in file "PIC16F1827-ChargeStation3-02.c"
  1576 ;; Parameters:    Size  Location     Type
  1577 ;;  b               1    wreg     unsigned char 
  1578 ;;  value           1    4[BANK0 ] unsigned char 
  1579 ;; Auto vars:     Size  Location     Type
  1580 ;;  b               1    5[BANK0 ] unsigned char 
  1581 ;; Return value:  Size  Location     Type
  1582 ;;		None               void
  1583 ;; Registers used:
  1584 ;;		wreg, fsr0l, fsr0h, status,2, status,0
  1585 ;; Tracked objects:
  1586 ;;		On entry : 0/0
  1587 ;;		On exit  : 0/0
  1588 ;;		Unchanged: 0/0
  1589 ;; Data sizes:     COMMON   BANK0   BANK1   BANK2   BANK3   BANK4
  1590 ;;      Params:         0       1       0       0       0       0
  1591 ;;      Locals:         0       1       0       0       0       0
  1592 ;;      Temps:          0       0       0       0       0       0
  1593 ;;      Totals:         0       2       0       0       0       0
  1594 ;;Total ram usage:        2 bytes
  1595 ;; Hardware stack levels used:    1
  1596 ;; Hardware stack levels required when called:    3
  1597 ;; This function calls:
  1598 ;;		Nothing
  1599 ;; This function is called by:
  1600 ;;		_main
  1601 ;; This function uses a non-reentrant model
  1602 ;;
  1603                           
  1604                           
  1605                           ;psect for function _OUT
  1606  039C                     _OUT:	
  1607                           
  1608                           ;incstack = 0
  1609                           ; Regs used in _OUT: [wreg-fsr0h+status,2+status,0]
  1610                           ;OUT@b stored from wreg
  1611  039C  0020               	movlb	0	; select bank0
  1612  039D  00A5               	movwf	OUT@b
  1613                           
  1614                           ;PIC16F1827-ChargeStation3-02.c: 196: switch (b) {
  1615  039E  2BBA               	goto	l1516
  1616  039F                     l150:	
  1617                           ;PIC16F1827-ChargeStation3-02.c: 197: case 0:
  1618                           
  1619                           
  1620                           ;PIC16F1827-ChargeStation3-02.c: 198: if (value) {
  1621  039F  0824               	movf	OUT@value,w
  1622  03A0  1903               	btfsc	3,2
  1623  03A1  2BA5               	goto	l151
  1624                           
  1625                           ;PIC16F1827-ChargeStation3-02.c: 199: LATB0 = 0;
  1626  03A2  0022               	movlb	2	; select bank2
  1627  03A3  100D               	bcf	13,0	;volatile
  1628                           
  1629                           ;PIC16F1827-ChargeStation3-02.c: 200: } else {
  1630  03A4  0008               	return
  1631  03A5                     l151:	
  1632                           
  1633                           ;PIC16F1827-ChargeStation3-02.c: 201: LATB0 = 1;
  1634  03A5  0022               	movlb	2	; select bank2
  1635  03A6  140D               	bsf	13,0	;volatile
  1636                           
  1637                           ;PIC16F1827-ChargeStation3-02.c: 202: }
  1638                           ;PIC16F1827-ChargeStation3-02.c: 203: break;
  1639  03A7  0008               	return
  1640  03A8                     l154:	
  1641                           ;PIC16F1827-ChargeStation3-02.c: 204: case 1:
  1642                           
  1643                           
  1644                           ;PIC16F1827-ChargeStation3-02.c: 205: if (value) {
  1645  03A8  0824               	movf	OUT@value,w
  1646  03A9  1903               	btfsc	3,2
  1647  03AA  2BAE               	goto	l155
  1648                           
  1649                           ;PIC16F1827-ChargeStation3-02.c: 206: LATB3 = 0;
  1650  03AB  0022               	movlb	2	; select bank2
  1651  03AC  118D               	bcf	13,3	;volatile
  1652                           
  1653                           ;PIC16F1827-ChargeStation3-02.c: 207: } else {
  1654  03AD  0008               	return
  1655  03AE                     l155:	
  1656                           
  1657                           ;PIC16F1827-ChargeStation3-02.c: 208: LATB3 = 1;
  1658  03AE  0022               	movlb	2	; select bank2
  1659  03AF  158D               	bsf	13,3	;volatile
  1660                           
  1661                           ;PIC16F1827-ChargeStation3-02.c: 209: }
  1662                           ;PIC16F1827-ChargeStation3-02.c: 210: break;
  1663  03B0  0008               	return
  1664  03B1                     l157:	
  1665                           ;PIC16F1827-ChargeStation3-02.c: 211: case 2:
  1666                           
  1667                           
  1668                           ;PIC16F1827-ChargeStation3-02.c: 212: if (value) {
  1669  03B1  0824               	movf	OUT@value,w
  1670  03B2  1903               	btfsc	3,2
  1671  03B3  2BB7               	goto	l158
  1672                           
  1673                           ;PIC16F1827-ChargeStation3-02.c: 213: LATB4 = 0;
  1674  03B4  0022               	movlb	2	; select bank2
  1675  03B5  120D               	bcf	13,4	;volatile
  1676                           
  1677                           ;PIC16F1827-ChargeStation3-02.c: 214: } else {
  1678  03B6  0008               	return
  1679  03B7                     l158:	
  1680                           
  1681                           ;PIC16F1827-ChargeStation3-02.c: 215: LATB4 = 1;
  1682  03B7  0022               	movlb	2	; select bank2
  1683  03B8  160D               	bsf	13,4	;volatile
  1684                           
  1685                           ;PIC16F1827-ChargeStation3-02.c: 220: }
  1686                           
  1687                           ;PIC16F1827-ChargeStation3-02.c: 219: break;
  1688                           
  1689                           ;PIC16F1827-ChargeStation3-02.c: 218: default:
  1690                           
  1691                           ;PIC16F1827-ChargeStation3-02.c: 216: }
  1692                           ;PIC16F1827-ChargeStation3-02.c: 217: break;
  1693  03B9  0008               	return
  1694  03BA                     l1516:	
  1695  03BA  0020               	movlb	0	; select bank0
  1696  03BB  0825               	movf	OUT@b,w
  1697                           
  1698                           ; Switch size 1, requested type "space"
  1699                           ; Number of cases is 3, Range of values is 0 to 2
  1700                           ; switch strategies available:
  1701                           ; Name         Instructions Cycles
  1702                           ; simple_byte           10     6 (average)
  1703                           ; direct_byte           12     6 (fixed)
  1704                           ; jumptable            260     6 (fixed)
  1705                           ;	Chosen strategy is simple_byte
  1706  03BC  3A00               	xorlw	0	; case 0
  1707  03BD  1903               	skipnz
  1708  03BE  2B9F               	goto	l150
  1709  03BF  3A01               	xorlw	1	; case 1
  1710  03C0  1903               	skipnz
  1711  03C1  2BA8               	goto	l154
  1712  03C2  3A03               	xorlw	3	; case 2
  1713  03C3  1903               	skipnz
  1714  03C4  2BB1               	goto	l157
  1715  03C5  2BC6               	goto	l161
  1716  03C6                     l161:	
  1717  03C6  0008               	return
  1718  03C7                     __end_of_OUT:	
  1719                           
  1720                           	psect	text10
  1721  0470                     __ptext10:	
  1722 ;; *************** function _LED *****************
  1723 ;; Defined at:
  1724 ;;		line 223 in file "PIC16F1827-ChargeStation3-02.c"
  1725 ;; Parameters:    Size  Location     Type
  1726 ;;  b               1    wreg     unsigned char 
  1727 ;;  value           1    4[BANK0 ] unsigned char 
  1728 ;; Auto vars:     Size  Location     Type
  1729 ;;  b               1    5[BANK0 ] unsigned char 
  1730 ;; Return value:  Size  Location     Type
  1731 ;;		None               void
  1732 ;; Registers used:
  1733 ;;		wreg, fsr0l, fsr0h, status,2, status,0
  1734 ;; Tracked objects:
  1735 ;;		On entry : 0/0
  1736 ;;		On exit  : 0/0
  1737 ;;		Unchanged: 0/0
  1738 ;; Data sizes:     COMMON   BANK0   BANK1   BANK2   BANK3   BANK4
  1739 ;;      Params:         0       1       0       0       0       0
  1740 ;;      Locals:         0       1       0       0       0       0
  1741 ;;      Temps:          0       0       0       0       0       0
  1742 ;;      Totals:         0       2       0       0       0       0
  1743 ;;Total ram usage:        2 bytes
  1744 ;; Hardware stack levels used:    1
  1745 ;; Hardware stack levels required when called:    3
  1746 ;; This function calls:
  1747 ;;		Nothing
  1748 ;; This function is called by:
  1749 ;;		_main
  1750 ;; This function uses a non-reentrant model
  1751 ;;
  1752                           
  1753                           
  1754                           ;psect for function _LED
  1755  0470                     _LED:	
  1756                           
  1757                           ;incstack = 0
  1758                           ; Regs used in _LED: [wreg-fsr0h+status,2+status,0]
  1759                           ;LED@b stored from wreg
  1760  0470  0020               	movlb	0	; select bank0
  1761  0471  00A5               	movwf	LED@b
  1762                           
  1763                           ;PIC16F1827-ChargeStation3-02.c: 224: switch (b) {
  1764  0472  2C8B               	goto	l1522
  1765  0473                     l165:	
  1766                           ;PIC16F1827-ChargeStation3-02.c: 225: case 0:
  1767                           
  1768                           
  1769                           ;PIC16F1827-ChargeStation3-02.c: 226: LATB5 = value;
  1770  0473  1C24               	btfss	LED@value,0
  1771  0474  2C78               	goto	u1770
  1772  0475  0022               	movlb	2	; select bank2
  1773  0476  168D               	bsf	13,5	;volatile
  1774  0477  0008               	return
  1775  0478                     u1770:	
  1776  0478  0022               	movlb	2	; select bank2
  1777  0479  128D               	bcf	13,5	;volatile
  1778                           
  1779                           ;PIC16F1827-ChargeStation3-02.c: 227: break;
  1780  047A  0008               	return
  1781  047B                     l167:	
  1782                           ;PIC16F1827-ChargeStation3-02.c: 228: case 1:
  1783                           
  1784                           
  1785                           ;PIC16F1827-ChargeStation3-02.c: 229: LATA6 = value;
  1786  047B  1C24               	btfss	LED@value,0
  1787  047C  2C80               	goto	u1790
  1788  047D  0022               	movlb	2	; select bank2
  1789  047E  170C               	bsf	12,6	;volatile
  1790  047F  0008               	return
  1791  0480                     u1790:	
  1792  0480  0022               	movlb	2	; select bank2
  1793  0481  130C               	bcf	12,6	;volatile
  1794                           
  1795                           ;PIC16F1827-ChargeStation3-02.c: 230: break;
  1796  0482  0008               	return
  1797  0483                     l168:	
  1798                           ;PIC16F1827-ChargeStation3-02.c: 231: case 2:
  1799                           
  1800                           
  1801                           ;PIC16F1827-ChargeStation3-02.c: 232: LATA7 = value;
  1802  0483  1C24               	btfss	LED@value,0
  1803  0484  2C88               	goto	u1810
  1804  0485  0022               	movlb	2	; select bank2
  1805  0486  178C               	bsf	12,7	;volatile
  1806  0487  0008               	return
  1807  0488                     u1810:	
  1808  0488  0022               	movlb	2	; select bank2
  1809  0489  138C               	bcf	12,7	;volatile
  1810                           
  1811                           ;PIC16F1827-ChargeStation3-02.c: 236: }
  1812                           
  1813                           ;PIC16F1827-ChargeStation3-02.c: 235: break;
  1814                           
  1815                           ;PIC16F1827-ChargeStation3-02.c: 234: default:
  1816                           
  1817                           ;PIC16F1827-ChargeStation3-02.c: 233: break;
  1818  048A  0008               	return
  1819  048B                     l1522:	
  1820  048B  0020               	movlb	0	; select bank0
  1821  048C  0825               	movf	LED@b,w
  1822                           
  1823                           ; Switch size 1, requested type "space"
  1824                           ; Number of cases is 3, Range of values is 0 to 2
  1825                           ; switch strategies available:
  1826                           ; Name         Instructions Cycles
  1827                           ; simple_byte           10     6 (average)
  1828                           ; direct_byte           12     6 (fixed)
  1829                           ; jumptable            260     6 (fixed)
  1830                           ;	Chosen strategy is simple_byte
  1831  048D  3A00               	xorlw	0	; case 0
  1832  048E  1903               	skipnz
  1833  048F  2C73               	goto	l165
  1834  0490  3A01               	xorlw	1	; case 1
  1835  0491  1903               	skipnz
  1836  0492  2C7B               	goto	l167
  1837  0493  3A03               	xorlw	3	; case 2
  1838  0494  1903               	skipnz
  1839  0495  2C83               	goto	l168
  1840  0496  2C97               	goto	l170
  1841  0497                     l170:	
  1842  0497  0008               	return
  1843  0498                     __end_of_LED:	
  1844                           
  1845                           	psect	intentry
  1846  0004                     __pintentry:	
  1847 ;; *************** function _isr *****************
  1848 ;; Defined at:
  1849 ;;		line 62 in file "PIC16F1827-ChargeStation3-02.c"
  1850 ;; Parameters:    Size  Location     Type
  1851 ;;		None
  1852 ;; Auto vars:     Size  Location     Type
  1853 ;;  i               1    3[BANK0 ] unsigned char 
  1854 ;; Return value:  Size  Location     Type
  1855 ;;		None               void
  1856 ;; Registers used:
  1857 ;;		wreg, fsr0l, fsr0h, fsr1l, fsr1h, status,2, status,0, pclath, cstack
  1858 ;; Tracked objects:
  1859 ;;		On entry : 0/0
  1860 ;;		On exit  : 0/0
  1861 ;;		Unchanged: 0/0
  1862 ;; Data sizes:     COMMON   BANK0   BANK1   BANK2   BANK3   BANK4
  1863 ;;      Params:         0       0       0       0       0       0
  1864 ;;      Locals:         0       1       0       0       0       0
  1865 ;;      Temps:          0       3       0       0       0       0
  1866 ;;      Totals:         0       4       0       0       0       0
  1867 ;;Total ram usage:        4 bytes
  1868 ;; Hardware stack levels used:    1
  1869 ;; Hardware stack levels required when called:    2
  1870 ;; This function calls:
  1871 ;;		___wmul
  1872 ;;		_adc
  1873 ;;		_lchika
  1874 ;;		_ringbuf_num
  1875 ;;		_ringbuf_pop
  1876 ;;		i1_OUT
  1877 ;;		i1_tx_send
  1878 ;; This function is called by:
  1879 ;;		Interrupt level 1
  1880 ;; This function uses a non-reentrant model
  1881 ;;
  1882                           
  1883  0004                     _isr:	
  1884                           
  1885                           ;incstack = 0
  1886                           ; Regs used in _isr: [wreg-fsr1h+status,2+status,0+pclath+cstack]
  1887  0004  147E               	bsf	126,0	;set compiler interrupt flag
  1888  0005  3180               	pagesel	$
  1889  0006  0020               	movlb	0	; select bank0
  1890  0007  087F               	movf	127,w
  1891  0008  00A2               	movwf	??_isr+2
  1892                           
  1893                           ;PIC16F1827-ChargeStation3-02.c: 63: uint8_t i;
  1894                           ;PIC16F1827-ChargeStation3-02.c: 64: if (PIR1bits.RCIF == 1) {
  1895  0009  1E91               	btfss	17,5	;volatile
  1896  000A  2855               	goto	i1l1590
  1897                           
  1898                           ;PIC16F1827-ChargeStation3-02.c: 65: PIR1bits.RCIF = 0;
  1899  000B  1291               	bcf	17,5	;volatile
  1900                           
  1901                           ;PIC16F1827-ChargeStation3-02.c: 66: if (RCREG == 'E') {
  1902  000C  0023               	movlb	3	; select bank3
  1903  000D  0819               	movf	25,w	;volatile
  1904  000E  3A45               	xorlw	69
  1905  000F  1D03               	skipz
  1906  0010  2855               	goto	i1l1590
  1907                           
  1908                           ;PIC16F1827-ChargeStation3-02.c: 67: tx_send('C');
  1909  0011  3043               	movlw	67
  1910  0012  3185  2537  3180   	fcall	i1_tx_send
  1911                           
  1912                           ;PIC16F1827-ChargeStation3-02.c: 68: tx_send('h');
  1913  0015  3068               	movlw	104
  1914  0016  3185  2537  3180   	fcall	i1_tx_send
  1915                           
  1916                           ;PIC16F1827-ChargeStation3-02.c: 69: tx_send('a');
  1917  0019  3061               	movlw	97
  1918  001A  3185  2537  3180   	fcall	i1_tx_send
  1919                           
  1920                           ;PIC16F1827-ChargeStation3-02.c: 70: tx_send('r');
  1921  001D  3072               	movlw	114
  1922  001E  3185  2537  3180   	fcall	i1_tx_send
  1923                           
  1924                           ;PIC16F1827-ChargeStation3-02.c: 71: tx_send('g');
  1925  0021  3067               	movlw	103
  1926  0022  3185  2537  3180   	fcall	i1_tx_send
  1927                           
  1928                           ;PIC16F1827-ChargeStation3-02.c: 72: tx_send('e');
  1929  0025  3065               	movlw	101
  1930  0026  3185  2537  3180   	fcall	i1_tx_send
  1931                           
  1932                           ;PIC16F1827-ChargeStation3-02.c: 73: tx_send(' ');
  1933  0029  3020               	movlw	32
  1934  002A  3185  2537  3180   	fcall	i1_tx_send
  1935                           
  1936                           ;PIC16F1827-ChargeStation3-02.c: 74: tx_send('S');
  1937  002D  3053               	movlw	83
  1938  002E  3185  2537  3180   	fcall	i1_tx_send
  1939                           
  1940                           ;PIC16F1827-ChargeStation3-02.c: 75: tx_send('t');
  1941  0031  3074               	movlw	116
  1942  0032  3185  2537  3180   	fcall	i1_tx_send
  1943                           
  1944                           ;PIC16F1827-ChargeStation3-02.c: 76: tx_send('a');
  1945  0035  3061               	movlw	97
  1946  0036  3185  2537  3180   	fcall	i1_tx_send
  1947                           
  1948                           ;PIC16F1827-ChargeStation3-02.c: 77: tx_send('t');
  1949  0039  3074               	movlw	116
  1950  003A  3185  2537  3180   	fcall	i1_tx_send
  1951                           
  1952                           ;PIC16F1827-ChargeStation3-02.c: 78: tx_send('i');
  1953  003D  3069               	movlw	105
  1954  003E  3185  2537  3180   	fcall	i1_tx_send
  1955                           
  1956                           ;PIC16F1827-ChargeStation3-02.c: 79: tx_send('o');
  1957  0041  306F               	movlw	111
  1958  0042  3185  2537  3180   	fcall	i1_tx_send
  1959                           
  1960                           ;PIC16F1827-ChargeStation3-02.c: 80: tx_send('n');
  1961  0045  306E               	movlw	110
  1962  0046  3185  2537  3180   	fcall	i1_tx_send
  1963                           
  1964                           ;PIC16F1827-ChargeStation3-02.c: 81: tx_send(' ');
  1965  0049  3020               	movlw	32
  1966  004A  3185  2537  3180   	fcall	i1_tx_send
  1967                           
  1968                           ;PIC16F1827-ChargeStation3-02.c: 82: tx_send('3');
  1969  004D  3033               	movlw	51
  1970  004E  3185  2537  3180   	fcall	i1_tx_send
  1971                           
  1972                           ;PIC16F1827-ChargeStation3-02.c: 83: tx_send(0x0D);
  1973  0051  300D               	movlw	13
  1974  0052  3185  2537  3180   	fcall	i1_tx_send
  1975  0055                     i1l1590:	
  1976                           
  1977                           ;PIC16F1827-ChargeStation3-02.c: 84: }
  1978                           ;PIC16F1827-ChargeStation3-02.c: 85: }
  1979                           ;PIC16F1827-ChargeStation3-02.c: 86: if (PIR1bits.TXIF & PIE1bits.TXIE) {
  1980  0055  0021               	movlb	1	; select bank1
  1981  0056  0E11               	swapf	17,w	;volatile
  1982  0057  3901               	andlw	1
  1983  0058  0020               	movlb	0	; select bank0
  1984  0059  00A0               	movwf	??_isr
  1985  005A  0E11               	swapf	17,w	;volatile
  1986  005B  3901               	andlw	1
  1987  005C  0520               	andwf	??_isr,w
  1988  005D  1903               	btfsc	3,2
  1989  005E  286F               	goto	i1l97
  1990                           
  1991                           ;PIC16F1827-ChargeStation3-02.c: 87: if (ringbuf_num(&tx_buf)) {
  1992  005F  30DF               	movlw	_tx_buf& (0+255)
  1993  0060  3183  23F2  3180   	fcall	_ringbuf_num
  1994  0063  3A00               	xorlw	0
  1995  0064  1903               	skipnz
  1996  0065  286D               	goto	i1l98
  1997                           
  1998                           ;PIC16F1827-ChargeStation3-02.c: 88: TXREG = ringbuf_pop(&tx_buf);
  1999  0066  30DF               	movlw	_tx_buf& (0+255)
  2000  0067  3183  2370  3180   	fcall	_ringbuf_pop
  2001  006A  0023               	movlb	3	; select bank3
  2002  006B  009A               	movwf	26	;volatile
  2003                           
  2004                           ;PIC16F1827-ChargeStation3-02.c: 89: } else {
  2005  006C  286F               	goto	i1l97
  2006  006D                     i1l98:	
  2007                           
  2008                           ;PIC16F1827-ChargeStation3-02.c: 90: PIE1bits.TXIE = 0;
  2009  006D  0021               	movlb	1	; select bank1
  2010  006E  1211               	bcf	17,4	;volatile
  2011  006F                     i1l97:	
  2012                           
  2013                           ;PIC16F1827-ChargeStation3-02.c: 91: }
  2014                           ;PIC16F1827-ChargeStation3-02.c: 92: }
  2015                           ;PIC16F1827-ChargeStation3-02.c: 93: if (PIR1bits.TMR1IF == 1) {
  2016  006F  0020               	movlb	0	; select bank0
  2017  0070  1C11               	btfss	17,0	;volatile
  2018  0071  28D6               	goto	i1l100
  2019                           
  2020                           ;PIC16F1827-ChargeStation3-02.c: 94: PIR1bits.TMR1IF = 0;
  2021  0072  1011               	bcf	17,0	;volatile
  2022                           
  2023                           ;PIC16F1827-ChargeStation3-02.c: 95: for (i = 0; i < 3; i++) {
  2024  0073  01A3               	clrf	isr@i
  2025  0074  3003               	movlw	3
  2026  0075  0223               	subwf	isr@i,w
  2027  0076  1803               	btfsc	3,0
  2028  0077  28D6               	goto	i1l100
  2029  0078                     i1l1604:	
  2030                           
  2031                           ;PIC16F1827-ChargeStation3-02.c: 96: v[i] = 2 * adc(i) * 3 / 4;
  2032  0078  0823               	movf	isr@i,w
  2033  0079  3184  24BE  3180   	fcall	_adc
  2034  007C  3570               	lslf	?_adc,w
  2035  007D  00F4               	movwf	___wmul@multiplier
  2036  007E  0D71               	rlf	?_adc+1,w
  2037  007F  00F5               	movwf	___wmul@multiplier+1
  2038  0080  3003               	movlw	3
  2039  0081  00F6               	movwf	___wmul@multiplicand
  2040  0082  3000               	movlw	0
  2041  0083  00F7               	movwf	___wmul@multiplicand+1
  2042  0084  3184  24DB  3180   	fcall	___wmul
  2043  0087  0874               	movf	?___wmul,w
  2044  0088  0020               	movlb	0	; select bank0
  2045  0089  00A0               	movwf	??_isr
  2046  008A  0875               	movf	?___wmul+1,w
  2047  008B  00A1               	movwf	??_isr+1
  2048  008C  36A1               	lsrf	??_isr+1,f
  2049  008D  0CA0               	rrf	??_isr,f
  2050  008E  36A1               	lsrf	??_isr+1,f
  2051  008F  0CA0               	rrf	??_isr,f
  2052  0090  3523               	lslf	isr@i,w
  2053  0091  3ED9               	addlw	_v& (0+255)
  2054  0092  0086               	movwf	6
  2055  0093  0187               	clrf	7
  2056  0094  0820               	movf	??_isr,w
  2057  0095  3FC0               	movwi [0]fsr1
  2058  0096  0821               	movf	??_isr+1,w
  2059  0097  3FC1               	movwi [1]fsr1
  2060                           
  2061                           ;PIC16F1827-ChargeStation3-02.c: 98: if (v[i] < 50) {
  2062  0098  3523               	lslf	isr@i,w
  2063  0099  3ED9               	addlw	_v& (0+255)
  2064  009A  0086               	movwf	6
  2065  009B  0187               	clrf	7
  2066  009C  3F40               	moviw [0]fsr1
  2067  009D  00A0               	movwf	??_isr
  2068  009E  3F41               	moviw [1]fsr1
  2069  009F  00A1               	movwf	??_isr+1
  2070  00A0  3000               	movlw	0
  2071  00A1  0221               	subwf	??_isr+1,w
  2072  00A2  3032               	movlw	50
  2073  00A3  1903               	skipnz
  2074  00A4  0220               	subwf	??_isr,w
  2075  00A5  1803               	skipnc
  2076  00A6  28C5               	goto	i1l1612
  2077                           
  2078                           ;PIC16F1827-ChargeStation3-02.c: 99: cut[i]++;
  2079  00A7  3523               	lslf	isr@i,w
  2080  00A8  3ED3               	addlw	_cut& (0+255)
  2081  00A9  0086               	movwf	6
  2082  00AA  0187               	clrf	7
  2083  00AB  3001               	movlw	1
  2084  00AC  0781               	addwf	1,f
  2085  00AD  3141               	addfsr 1,1
  2086  00AE  1803               	skipnc
  2087  00AF  0A81               	incf	1,f
  2088                           
  2089                           ;PIC16F1827-ChargeStation3-02.c: 100: if (cut[i] >= 8 * 6) {
  2090  00B0  3523               	lslf	isr@i,w
  2091  00B1  3ED3               	addlw	_cut& (0+255)
  2092  00B2  0086               	movwf	6
  2093  00B3  0187               	clrf	7
  2094  00B4  3F40               	moviw [0]fsr1
  2095  00B5  00A0               	movwf	??_isr
  2096  00B6  3F41               	moviw [1]fsr1
  2097  00B7  00A1               	movwf	??_isr+1
  2098  00B8  3000               	movlw	0
  2099  00B9  0221               	subwf	??_isr+1,w
  2100  00BA  3030               	movlw	48
  2101  00BB  1903               	skipnz
  2102  00BC  0220               	subwf	??_isr,w
  2103  00BD  1C03               	skipc
  2104  00BE  28CD               	goto	i1l1614
  2105                           
  2106                           ;PIC16F1827-ChargeStation3-02.c: 101: OUT(i, 0);
  2107  00BF  01F0               	clrf	i1OUT@value
  2108  00C0  0823               	movf	isr@i,w
  2109  00C1  3184  2447  3180   	fcall	i1_OUT
  2110                           
  2111                           ;PIC16F1827-ChargeStation3-02.c: 102: }
  2112                           ;PIC16F1827-ChargeStation3-02.c: 103: } else {
  2113  00C4  28CD               	goto	i1l1614
  2114  00C5                     i1l1612:	
  2115                           
  2116                           ;PIC16F1827-ChargeStation3-02.c: 104: cut[i] = 0;
  2117  00C5  0020               	movlb	0	; select bank0
  2118  00C6  3523               	lslf	isr@i,w
  2119  00C7  3ED3               	addlw	_cut& (0+255)
  2120  00C8  0086               	movwf	6
  2121  00C9  0187               	clrf	7
  2122  00CA  3000               	movlw	0
  2123  00CB  3FC0               	movwi [0]fsr1
  2124  00CC  3FC1               	movwi [1]fsr1
  2125  00CD                     i1l1614:	
  2126  00CD  3001               	movlw	1
  2127  00CE  0020               	movlb	0	; select bank0
  2128  00CF  00A0               	movwf	??_isr
  2129  00D0  0820               	movf	??_isr,w
  2130  00D1  07A3               	addwf	isr@i,f
  2131  00D2  3003               	movlw	3
  2132  00D3  0223               	subwf	isr@i,w
  2133  00D4  1C03               	skipc
  2134  00D5  2878               	goto	i1l1604
  2135  00D6                     i1l100:	
  2136                           
  2137                           ;PIC16F1827-ChargeStation3-02.c: 105: }
  2138                           ;PIC16F1827-ChargeStation3-02.c: 106: }
  2139                           ;PIC16F1827-ChargeStation3-02.c: 107: }
  2140                           ;PIC16F1827-ChargeStation3-02.c: 108: if (INTCONbits.TMR0IF == 1) {
  2141  00D6  1D0B               	btfss	11,2	;volatile
  2142  00D7  28E9               	goto	i1l108
  2143                           
  2144                           ;PIC16F1827-ChargeStation3-02.c: 109: INTCONbits.TMR0IF = 0;
  2145  00D8  110B               	bcf	11,2	;volatile
  2146                           
  2147                           ;PIC16F1827-ChargeStation3-02.c: 110: cnt0++;
  2148  00D9  3001               	movlw	1
  2149  00DA  07BB               	addwf	_cnt0,f
  2150  00DB  3000               	movlw	0
  2151  00DC  3DBC               	addwfc	_cnt0+1,f
  2152                           
  2153                           ;PIC16F1827-ChargeStation3-02.c: 111: if (cnt0 == 400) {
  2154  00DD  3001               	movlw	1
  2155  00DE  063C               	xorwf	_cnt0+1,w
  2156  00DF  1D03               	skipz
  2157  00E0  28E3               	goto	u195_25
  2158  00E1  3090               	movlw	144
  2159  00E2  063B               	xorwf	_cnt0,w
  2160  00E3                     u195_25:	
  2161  00E3  1D03               	skipz
  2162  00E4  28E9               	goto	i1l108
  2163                           
  2164                           ;PIC16F1827-ChargeStation3-02.c: 112: cnt0 = 0;
  2165  00E5  01BB               	clrf	_cnt0
  2166  00E6  01BC               	clrf	_cnt0+1
  2167                           
  2168                           ;PIC16F1827-ChargeStation3-02.c: 113: lchika();
  2169  00E7  3181  217C         	fcall	_lchika
  2170  00E9                     i1l108:	
  2171  00E9  0020               	movlb	0	; select bank0
  2172  00EA  0822               	movf	??_isr+2,w
  2173  00EB  00FF               	movwf	127
  2174  00EC  107E               	bcf	126,0	;clear compiler interrupt flag
  2175  00ED  0009               	retfie
  2176  00EE                     __end_of_isr:	
  2177                           
  2178                           	psect	text12
  2179  0537                     __ptext12:	
  2180 ;; *************** function i1_tx_send *****************
  2181 ;; Defined at:
  2182 ;;		line 149 in file "PIC16F1827-ChargeStation3-02.c"
  2183 ;; Parameters:    Size  Location     Type
  2184 ;;  asciicode       1    wreg     unsigned char 
  2185 ;; Auto vars:     Size  Location     Type
  2186 ;;  asciicode       1    5[COMMON] unsigned char 
  2187 ;; Return value:  Size  Location     Type
  2188 ;;		None               void
  2189 ;; Registers used:
  2190 ;;		wreg, fsr0l, fsr0h, fsr1l, fsr1h, status,2, status,0, pclath, cstack
  2191 ;; Tracked objects:
  2192 ;;		On entry : 0/0
  2193 ;;		On exit  : 0/0
  2194 ;;		Unchanged: 0/0
  2195 ;; Data sizes:     COMMON   BANK0   BANK1   BANK2   BANK3   BANK4
  2196 ;;      Params:         0       0       0       0       0       0
  2197 ;;      Locals:         1       0       0       0       0       0
  2198 ;;      Temps:          1       0       0       0       0       0
  2199 ;;      Totals:         2       0       0       0       0       0
  2200 ;;Total ram usage:        2 bytes
  2201 ;; Hardware stack levels used:    1
  2202 ;; Hardware stack levels required when called:    1
  2203 ;; This function calls:
  2204 ;;		i1_ringbuf_put
  2205 ;; This function is called by:
  2206 ;;		_isr
  2207 ;; This function uses a non-reentrant model
  2208 ;;
  2209                           
  2210                           
  2211                           ;psect for function i1_tx_send
  2212  0537                     i1_tx_send:	
  2213                           
  2214                           ;incstack = 0
  2215                           ; Regs used in i1_tx_send: [wreg-fsr1h+status,2+status,0+pclath+cstack]
  2216                           ;i1tx_send@asciicode stored from wreg
  2217  0537  00F5               	movwf	i1tx_send@asciicode
  2218                           
  2219                           ;PIC16F1827-ChargeStation3-02.c: 150: ringbuf_put(&tx_buf, asciicode);
  2220  0538  0875               	movf	i1tx_send@asciicode,w
  2221  0539  00F4               	movwf	??i1_tx_send
  2222  053A  0874               	movf	??i1_tx_send,w
  2223  053B  00F0               	movwf	i1ringbuf_put@asciicode
  2224  053C  30DF               	movlw	_tx_buf& (0+255)
  2225  053D  3183  23C7         	fcall	i1_ringbuf_put
  2226                           
  2227                           ;PIC16F1827-ChargeStation3-02.c: 151: PIE1bits.TXIE = 1;
  2228  053F  0021               	movlb	1	; select bank1
  2229  0540  1611               	bsf	17,4	;volatile
  2230  0541  0008               	return
  2231  0542                     __end_ofi1_tx_send:	
  2232                           
  2233                           	psect	text13
  2234  03C7                     __ptext13:	
  2235 ;; *************** function i1_ringbuf_put *****************
  2236 ;; Defined at:
  2237 ;;		line 154 in file "PIC16F1827-ChargeStation3-02.c"
  2238 ;; Parameters:    Size  Location     Type
  2239 ;;  rb              1    wreg     PTR struct ringbuf
  2240 ;;		 -> tx_buf(4), 
  2241 ;;  asciicode       1    0[COMMON] unsigned char 
  2242 ;; Auto vars:     Size  Location     Type
  2243 ;;  rb              1    3[COMMON] PTR struct ringbuf
  2244 ;;		 -> tx_buf(4), 
  2245 ;; Return value:  Size  Location     Type
  2246 ;;		None               void
  2247 ;; Registers used:
  2248 ;;		wreg, fsr0l, fsr0h, fsr1l, fsr1h, status,2, status,0
  2249 ;; Tracked objects:
  2250 ;;		On entry : 0/0
  2251 ;;		On exit  : 0/0
  2252 ;;		Unchanged: 0/0
  2253 ;; Data sizes:     COMMON   BANK0   BANK1   BANK2   BANK3   BANK4
  2254 ;;      Params:         1       0       0       0       0       0
  2255 ;;      Locals:         1       0       0       0       0       0
  2256 ;;      Temps:          2       0       0       0       0       0
  2257 ;;      Totals:         4       0       0       0       0       0
  2258 ;;Total ram usage:        4 bytes
  2259 ;; Hardware stack levels used:    1
  2260 ;; This function calls:
  2261 ;;		Nothing
  2262 ;; This function is called by:
  2263 ;;		i1_tx_send
  2264 ;; This function uses a non-reentrant model
  2265 ;;
  2266                           
  2267                           
  2268                           ;psect for function i1_ringbuf_put
  2269  03C7                     i1_ringbuf_put:	
  2270                           
  2271                           ;incstack = 0
  2272                           ; Regs used in i1_ringbuf_put: [wreg-fsr1h+status,2+status,0]
  2273                           ;i1ringbuf_put@rb stored from wreg
  2274  03C7  00F3               	movwf	i1ringbuf_put@rb
  2275                           
  2276                           ;PIC16F1827-ChargeStation3-02.c: 155: rb->buf[rb->head] = asciicode;
  2277  03C8  0870               	movf	i1ringbuf_put@asciicode,w
  2278  03C9  00F1               	movwf	??i1_ringbuf_put
  2279  03CA  0873               	movf	i1ringbuf_put@rb,w
  2280  03CB  0086               	movwf	6
  2281  03CC  0187               	clrf	7
  2282  03CD  0873               	movf	i1ringbuf_put@rb,w
  2283  03CE  3E02               	addlw	2
  2284  03CF  0084               	movwf	4
  2285  03D0  0185               	clrf	5
  2286  03D1  0800               	movf	0,w
  2287  03D2  0701               	addwf	1,w
  2288  03D3  00F2               	movwf	??i1_ringbuf_put+1
  2289  03D4  0872               	movf	??i1_ringbuf_put+1,w
  2290  03D5  0086               	movwf	6
  2291  03D6  0187               	clrf	7
  2292  03D7  0871               	movf	??i1_ringbuf_put,w
  2293  03D8  0081               	movwf	1
  2294                           
  2295                           ;PIC16F1827-ChargeStation3-02.c: 156: rb->head++;
  2296  03D9  3001               	movlw	1
  2297  03DA  00F1               	movwf	??i1_ringbuf_put
  2298  03DB  0873               	movf	i1ringbuf_put@rb,w
  2299  03DC  3E02               	addlw	2
  2300  03DD  0086               	movwf	6
  2301  03DE  0187               	clrf	7
  2302  03DF  0871               	movf	??i1_ringbuf_put,w
  2303  03E0  0781               	addwf	1,f
  2304                           
  2305                           ;PIC16F1827-ChargeStation3-02.c: 157: if (rb->head >= rb->size) {
  2306  03E1  0873               	movf	i1ringbuf_put@rb,w
  2307  03E2  3E02               	addlw	2
  2308  03E3  0086               	movwf	6
  2309  03E4  0187               	clrf	7
  2310  03E5  0A73               	incf	i1ringbuf_put@rb,w
  2311  03E6  0084               	movwf	4
  2312  03E7  0185               	clrf	5
  2313  03E8  0800               	movf	0,w
  2314  03E9  0201               	subwf	1,w
  2315  03EA  1C03               	skipc
  2316  03EB  0008               	return
  2317                           
  2318                           ;PIC16F1827-ChargeStation3-02.c: 158: rb->head = 0;
  2319  03EC  0873               	movf	i1ringbuf_put@rb,w
  2320  03ED  3E02               	addlw	2
  2321  03EE  0086               	movwf	6
  2322  03EF  0187               	clrf	7
  2323  03F0  0181               	clrf	1
  2324  03F1  0008               	return
  2325  03F2                     __end_ofi1_ringbuf_put:	
  2326                           
  2327                           	psect	text14
  2328  0447                     __ptext14:	
  2329 ;; *************** function i1_OUT *****************
  2330 ;; Defined at:
  2331 ;;		line 195 in file "PIC16F1827-ChargeStation3-02.c"
  2332 ;; Parameters:    Size  Location     Type
  2333 ;;  b               1    wreg     unsigned char 
  2334 ;;  value           1    0[COMMON] unsigned char 
  2335 ;; Auto vars:     Size  Location     Type
  2336 ;;  b               1    1[COMMON] unsigned char 
  2337 ;; Return value:  Size  Location     Type
  2338 ;;		None               void
  2339 ;; Registers used:
  2340 ;;		wreg, fsr0l, fsr0h, status,2, status,0
  2341 ;; Tracked objects:
  2342 ;;		On entry : 0/0
  2343 ;;		On exit  : 0/0
  2344 ;;		Unchanged: 0/0
  2345 ;; Data sizes:     COMMON   BANK0   BANK1   BANK2   BANK3   BANK4
  2346 ;;      Params:         1       0       0       0       0       0
  2347 ;;      Locals:         1       0       0       0       0       0
  2348 ;;      Temps:          0       0       0       0       0       0
  2349 ;;      Totals:         2       0       0       0       0       0
  2350 ;;Total ram usage:        2 bytes
  2351 ;; Hardware stack levels used:    1
  2352 ;; This function calls:
  2353 ;;		Nothing
  2354 ;; This function is called by:
  2355 ;;		_isr
  2356 ;; This function uses a non-reentrant model
  2357 ;;
  2358                           
  2359                           
  2360                           ;psect for function i1_OUT
  2361  0447                     i1_OUT:	
  2362                           
  2363                           ;incstack = 0
  2364                           ; Regs used in i1_OUT: [wreg-fsr0h+status,2+status,0]
  2365                           ;i1OUT@b stored from wreg
  2366  0447  00F1               	movwf	i1OUT@b
  2367                           
  2368                           ;PIC16F1827-ChargeStation3-02.c: 196: switch (b) {
  2369  0448  2C64               	goto	i1l1348
  2370  0449                     i1l150:	
  2371                           ;PIC16F1827-ChargeStation3-02.c: 197: case 0:
  2372                           
  2373                           
  2374                           ;PIC16F1827-ChargeStation3-02.c: 198: if (value) {
  2375  0449  0870               	movf	i1OUT@value,w
  2376  044A  1903               	btfsc	3,2
  2377  044B  2C4F               	goto	i1l151
  2378                           
  2379                           ;PIC16F1827-ChargeStation3-02.c: 199: LATB0 = 0;
  2380  044C  0022               	movlb	2	; select bank2
  2381  044D  100D               	bcf	13,0	;volatile
  2382                           
  2383                           ;PIC16F1827-ChargeStation3-02.c: 200: } else {
  2384  044E  0008               	return
  2385  044F                     i1l151:	
  2386                           
  2387                           ;PIC16F1827-ChargeStation3-02.c: 201: LATB0 = 1;
  2388  044F  0022               	movlb	2	; select bank2
  2389  0450  140D               	bsf	13,0	;volatile
  2390                           
  2391                           ;PIC16F1827-ChargeStation3-02.c: 202: }
  2392                           ;PIC16F1827-ChargeStation3-02.c: 203: break;
  2393  0451  0008               	return
  2394  0452                     i1l154:	
  2395                           ;PIC16F1827-ChargeStation3-02.c: 204: case 1:
  2396                           
  2397                           
  2398                           ;PIC16F1827-ChargeStation3-02.c: 205: if (value) {
  2399  0452  0870               	movf	i1OUT@value,w
  2400  0453  1903               	btfsc	3,2
  2401  0454  2C58               	goto	i1l155
  2402                           
  2403                           ;PIC16F1827-ChargeStation3-02.c: 206: LATB3 = 0;
  2404  0455  0022               	movlb	2	; select bank2
  2405  0456  118D               	bcf	13,3	;volatile
  2406                           
  2407                           ;PIC16F1827-ChargeStation3-02.c: 207: } else {
  2408  0457  0008               	return
  2409  0458                     i1l155:	
  2410                           
  2411                           ;PIC16F1827-ChargeStation3-02.c: 208: LATB3 = 1;
  2412  0458  0022               	movlb	2	; select bank2
  2413  0459  158D               	bsf	13,3	;volatile
  2414                           
  2415                           ;PIC16F1827-ChargeStation3-02.c: 209: }
  2416                           ;PIC16F1827-ChargeStation3-02.c: 210: break;
  2417  045A  0008               	return
  2418  045B                     i1l157:	
  2419                           ;PIC16F1827-ChargeStation3-02.c: 211: case 2:
  2420                           
  2421                           
  2422                           ;PIC16F1827-ChargeStation3-02.c: 212: if (value) {
  2423  045B  0870               	movf	i1OUT@value,w
  2424  045C  1903               	btfsc	3,2
  2425  045D  2C61               	goto	i1l158
  2426                           
  2427                           ;PIC16F1827-ChargeStation3-02.c: 213: LATB4 = 0;
  2428  045E  0022               	movlb	2	; select bank2
  2429  045F  120D               	bcf	13,4	;volatile
  2430                           
  2431                           ;PIC16F1827-ChargeStation3-02.c: 214: } else {
  2432  0460  0008               	return
  2433  0461                     i1l158:	
  2434                           
  2435                           ;PIC16F1827-ChargeStation3-02.c: 215: LATB4 = 1;
  2436  0461  0022               	movlb	2	; select bank2
  2437  0462  160D               	bsf	13,4	;volatile
  2438                           
  2439                           ;PIC16F1827-ChargeStation3-02.c: 220: }
  2440                           
  2441                           ;PIC16F1827-ChargeStation3-02.c: 219: break;
  2442                           
  2443                           ;PIC16F1827-ChargeStation3-02.c: 218: default:
  2444                           
  2445                           ;PIC16F1827-ChargeStation3-02.c: 216: }
  2446                           ;PIC16F1827-ChargeStation3-02.c: 217: break;
  2447  0463  0008               	return
  2448  0464                     i1l1348:	
  2449  0464  0871               	movf	i1OUT@b,w
  2450                           
  2451                           ; Switch size 1, requested type "space"
  2452                           ; Number of cases is 3, Range of values is 0 to 2
  2453                           ; switch strategies available:
  2454                           ; Name         Instructions Cycles
  2455                           ; simple_byte           10     6 (average)
  2456                           ; direct_byte           12     6 (fixed)
  2457                           ; jumptable            260     6 (fixed)
  2458                           ;	Chosen strategy is simple_byte
  2459  0465  3A00               	xorlw	0	; case 0
  2460  0466  1903               	skipnz
  2461  0467  2C49               	goto	i1l150
  2462  0468  3A01               	xorlw	1	; case 1
  2463  0469  1903               	skipnz
  2464  046A  2C52               	goto	i1l154
  2465  046B  3A03               	xorlw	3	; case 2
  2466  046C  1903               	skipnz
  2467  046D  2C5B               	goto	i1l157
  2468  046E  2C6F               	goto	i1l161
  2469  046F                     i1l161:	
  2470  046F  0008               	return
  2471  0470                     __end_ofi1_OUT:	
  2472                           
  2473                           	psect	text15
  2474  0370                     __ptext15:	
  2475 ;; *************** function _ringbuf_pop *****************
  2476 ;; Defined at:
  2477 ;;		line 162 in file "PIC16F1827-ChargeStation3-02.c"
  2478 ;; Parameters:    Size  Location     Type
  2479 ;;  rb              1    wreg     PTR struct ringbuf
  2480 ;;		 -> tx_buf(4), 
  2481 ;; Auto vars:     Size  Location     Type
  2482 ;;  rb              1    3[COMMON] PTR struct ringbuf
  2483 ;;		 -> tx_buf(4), 
  2484 ;;  ret             1    2[COMMON] unsigned char 
  2485 ;; Return value:  Size  Location     Type
  2486 ;;                  1    wreg      unsigned char 
  2487 ;; Registers used:
  2488 ;;		wreg, fsr0l, fsr0h, fsr1l, fsr1h, status,2, status,0
  2489 ;; Tracked objects:
  2490 ;;		On entry : 0/0
  2491 ;;		On exit  : 0/0
  2492 ;;		Unchanged: 0/0
  2493 ;; Data sizes:     COMMON   BANK0   BANK1   BANK2   BANK3   BANK4
  2494 ;;      Params:         0       0       0       0       0       0
  2495 ;;      Locals:         2       0       0       0       0       0
  2496 ;;      Temps:          2       0       0       0       0       0
  2497 ;;      Totals:         4       0       0       0       0       0
  2498 ;;Total ram usage:        4 bytes
  2499 ;; Hardware stack levels used:    1
  2500 ;; This function calls:
  2501 ;;		Nothing
  2502 ;; This function is called by:
  2503 ;;		_isr
  2504 ;; This function uses a non-reentrant model
  2505 ;;
  2506                           
  2507                           
  2508                           ;psect for function _ringbuf_pop
  2509  0370                     _ringbuf_pop:	
  2510                           
  2511                           ;incstack = 0
  2512                           ; Regs used in _ringbuf_pop: [wreg-fsr1h+status,2+status,0]
  2513                           ;ringbuf_pop@rb stored from wreg
  2514  0370  00F3               	movwf	ringbuf_pop@rb
  2515                           
  2516                           ;PIC16F1827-ChargeStation3-02.c: 163: uint8_t ret = rb->buf[rb->tail];
  2517  0371  0873               	movf	ringbuf_pop@rb,w
  2518  0372  0086               	movwf	6
  2519  0373  0187               	clrf	7
  2520  0374  0873               	movf	ringbuf_pop@rb,w
  2521  0375  3E03               	addlw	3
  2522  0376  0084               	movwf	4
  2523  0377  0185               	clrf	5
  2524  0378  0800               	movf	0,w
  2525  0379  0701               	addwf	1,w
  2526  037A  00F0               	movwf	??_ringbuf_pop
  2527  037B  0870               	movf	??_ringbuf_pop,w
  2528  037C  0086               	movwf	6
  2529  037D  0187               	clrf	7
  2530  037E  0801               	movf	1,w
  2531  037F  00F1               	movwf	??_ringbuf_pop+1
  2532  0380  0871               	movf	??_ringbuf_pop+1,w
  2533  0381  00F2               	movwf	ringbuf_pop@ret
  2534                           
  2535                           ;PIC16F1827-ChargeStation3-02.c: 164: rb->tail++;
  2536  0382  3001               	movlw	1
  2537  0383  00F0               	movwf	??_ringbuf_pop
  2538  0384  0873               	movf	ringbuf_pop@rb,w
  2539  0385  3E03               	addlw	3
  2540  0386  0086               	movwf	6
  2541  0387  0187               	clrf	7
  2542  0388  0870               	movf	??_ringbuf_pop,w
  2543  0389  0781               	addwf	1,f
  2544                           
  2545                           ;PIC16F1827-ChargeStation3-02.c: 165: if (rb->tail >= rb->size) {
  2546  038A  0873               	movf	ringbuf_pop@rb,w
  2547  038B  3E03               	addlw	3
  2548  038C  0086               	movwf	6
  2549  038D  0187               	clrf	7
  2550  038E  0A73               	incf	ringbuf_pop@rb,w
  2551  038F  0084               	movwf	4
  2552  0390  0185               	clrf	5
  2553  0391  0800               	movf	0,w
  2554  0392  0201               	subwf	1,w
  2555  0393  1C03               	skipc
  2556  0394  2B9A               	goto	i1l1502
  2557                           
  2558                           ;PIC16F1827-ChargeStation3-02.c: 166: rb->tail = 0;
  2559  0395  0873               	movf	ringbuf_pop@rb,w
  2560  0396  3E03               	addlw	3
  2561  0397  0086               	movwf	6
  2562  0398  0187               	clrf	7
  2563  0399  0181               	clrf	1
  2564  039A                     i1l1502:	
  2565                           
  2566                           ;PIC16F1827-ChargeStation3-02.c: 167: }
  2567                           ;PIC16F1827-ChargeStation3-02.c: 168: return ret;
  2568  039A  0872               	movf	ringbuf_pop@ret,w
  2569  039B  0008               	return
  2570  039C                     __end_of_ringbuf_pop:	
  2571                           
  2572                           	psect	text16
  2573  03F2                     __ptext16:	
  2574 ;; *************** function _ringbuf_num *****************
  2575 ;; Defined at:
  2576 ;;		line 171 in file "PIC16F1827-ChargeStation3-02.c"
  2577 ;; Parameters:    Size  Location     Type
  2578 ;;  rb              1    wreg     PTR struct ringbuf
  2579 ;;		 -> tx_buf(4), 
  2580 ;; Auto vars:     Size  Location     Type
  2581 ;;  rb              1    1[COMMON] PTR struct ringbuf
  2582 ;;		 -> tx_buf(4), 
  2583 ;; Return value:  Size  Location     Type
  2584 ;;                  1    wreg      unsigned char 
  2585 ;; Registers used:
  2586 ;;		wreg, fsr0l, fsr0h, fsr1l, fsr1h, status,2, status,0
  2587 ;; Tracked objects:
  2588 ;;		On entry : 0/0
  2589 ;;		On exit  : 0/0
  2590 ;;		Unchanged: 0/0
  2591 ;; Data sizes:     COMMON   BANK0   BANK1   BANK2   BANK3   BANK4
  2592 ;;      Params:         0       0       0       0       0       0
  2593 ;;      Locals:         1       0       0       0       0       0
  2594 ;;      Temps:          1       0       0       0       0       0
  2595 ;;      Totals:         2       0       0       0       0       0
  2596 ;;Total ram usage:        2 bytes
  2597 ;; Hardware stack levels used:    1
  2598 ;; This function calls:
  2599 ;;		Nothing
  2600 ;; This function is called by:
  2601 ;;		_isr
  2602 ;; This function uses a non-reentrant model
  2603 ;;
  2604                           
  2605                           
  2606                           ;psect for function _ringbuf_num
  2607  03F2                     _ringbuf_num:	
  2608                           
  2609                           ;incstack = 0
  2610                           ; Regs used in _ringbuf_num: [wreg-fsr1h+status,2+status,0]
  2611                           ;ringbuf_num@rb stored from wreg
  2612  03F2  00F1               	movwf	ringbuf_num@rb
  2613                           
  2614                           ;PIC16F1827-ChargeStation3-02.c: 172: if (rb->head >= rb->tail) {
  2615  03F3  0871               	movf	ringbuf_num@rb,w
  2616  03F4  3E02               	addlw	2
  2617  03F5  0086               	movwf	6
  2618  03F6  0187               	clrf	7
  2619  03F7  0871               	movf	ringbuf_num@rb,w
  2620  03F8  3E03               	addlw	3
  2621  03F9  0084               	movwf	4
  2622  03FA  0185               	clrf	5
  2623  03FB  0800               	movf	0,w
  2624  03FC  0201               	subwf	1,w
  2625  03FD  1C03               	skipc
  2626  03FE  2C0B               	goto	i1l1194
  2627                           
  2628                           ;PIC16F1827-ChargeStation3-02.c: 173: return (rb->head - rb->tail);
  2629  03FF  0871               	movf	ringbuf_num@rb,w
  2630  0400  3E02               	addlw	2
  2631  0401  0086               	movwf	6
  2632  0402  0187               	clrf	7
  2633  0403  0871               	movf	ringbuf_num@rb,w
  2634  0404  3E03               	addlw	3
  2635  0405  0084               	movwf	4
  2636  0406  0185               	clrf	5
  2637  0407  0300               	decf	0,w
  2638  0408  3AFF               	xorlw	255
  2639  0409  0701               	addwf	1,w
  2640                           
  2641                           ;PIC16F1827-ChargeStation3-02.c: 174: } else {
  2642  040A  0008               	return
  2643  040B                     i1l1194:	
  2644                           
  2645                           ;PIC16F1827-ChargeStation3-02.c: 175: return (rb->size + rb->head - rb->tail);
  2646  040B  0871               	movf	ringbuf_num@rb,w
  2647  040C  3E02               	addlw	2
  2648  040D  0086               	movwf	6
  2649  040E  0187               	clrf	7
  2650  040F  0A71               	incf	ringbuf_num@rb,w
  2651  0410  0084               	movwf	4
  2652  0411  0185               	clrf	5
  2653  0412  0800               	movf	0,w
  2654  0413  00F0               	movwf	??_ringbuf_num
  2655  0414  0871               	movf	ringbuf_num@rb,w
  2656  0415  3E03               	addlw	3
  2657  0416  0084               	movwf	4
  2658  0417  0185               	clrf	5
  2659  0418  0300               	decf	0,w
  2660  0419  3AFF               	xorlw	255
  2661  041A  0770               	addwf	??_ringbuf_num,w
  2662  041B  0701               	addwf	1,w
  2663  041C  0008               	return
  2664  041D                     __end_of_ringbuf_num:	
  2665                           
  2666                           	psect	text17
  2667  017C                     __ptext17:	
  2668 ;; *************** function _lchika *****************
  2669 ;; Defined at:
  2670 ;;		line 118 in file "PIC16F1827-ChargeStation3-02.c"
  2671 ;; Parameters:    Size  Location     Type
  2672 ;;		None
  2673 ;; Auto vars:     Size  Location     Type
  2674 ;;  i               1   13[COMMON] unsigned char 
  2675 ;; Return value:  Size  Location     Type
  2676 ;;		None               void
  2677 ;; Registers used:
  2678 ;;		wreg, fsr0l, fsr0h, fsr1l, fsr1h, status,2, status,0, pclath, cstack
  2679 ;; Tracked objects:
  2680 ;;		On entry : 0/0
  2681 ;;		On exit  : 0/0
  2682 ;;		Unchanged: 0/0
  2683 ;; Data sizes:     COMMON   BANK0   BANK1   BANK2   BANK3   BANK4
  2684 ;;      Params:         0       0       0       0       0       0
  2685 ;;      Locals:         1       0       0       0       0       0
  2686 ;;      Temps:          4       0       0       0       0       0
  2687 ;;      Totals:         5       0       0       0       0       0
  2688 ;;Total ram usage:        5 bytes
  2689 ;; Hardware stack levels used:    1
  2690 ;; Hardware stack levels required when called:    1
  2691 ;; This function calls:
  2692 ;;		___awdiv
  2693 ;;		i1_LED
  2694 ;;		i1___lwdiv
  2695 ;; This function is called by:
  2696 ;;		_isr
  2697 ;; This function uses a non-reentrant model
  2698 ;;
  2699                           
  2700                           
  2701                           ;psect for function _lchika
  2702  017C                     _lchika:	
  2703                           
  2704                           ;PIC16F1827-ChargeStation3-02.c: 119: uint8_t i;
  2705                           ;PIC16F1827-ChargeStation3-02.c: 120: for (i = 0; i < 3; i++) {
  2706                           
  2707                           ;incstack = 0
  2708                           ; Regs used in _lchika: [wreg-fsr1h+status,2+status,0+pclath+cstack]
  2709  017C  01FD               	clrf	lchika@i
  2710  017D                     L3:	
  2711  017D  3003               	movlw	3
  2712  017E  027D               	subwf	lchika@i,w
  2713  017F  1803               	btfsc	3,0
  2714  0180  0008               	return
  2715                           
  2716                           ;PIC16F1827-ChargeStation3-02.c: 121: cnt[i]++;
  2717  0181  3001               	movlw	1
  2718  0182  00F9               	movwf	??_lchika
  2719  0183  087D               	movf	lchika@i,w
  2720  0184  3E35               	addlw	_cnt& (0+255)
  2721  0185  0086               	movwf	6
  2722  0186  0187               	clrf	7
  2723  0187  0879               	movf	??_lchika,w
  2724  0188  0781               	addwf	1,f
  2725                           
  2726                           ;PIC16F1827-ChargeStation3-02.c: 123: if (cnt[i] % 2 == 1) {
  2727  0189  087D               	movf	lchika@i,w
  2728  018A  3E35               	addlw	_cnt& (0+255)
  2729  018B  0086               	movwf	6
  2730  018C  0187               	clrf	7
  2731  018D  1C01               	btfss	1,0
  2732  018E  2995               	goto	i1l1244
  2733                           
  2734                           ;PIC16F1827-ChargeStation3-02.c: 124: LED(i, 0);
  2735  018F  01F0               	clrf	i1LED@value
  2736  0190  087D               	movf	lchika@i,w
  2737  0191  3184  2498  3181   	fcall	i1_LED
  2738                           
  2739                           ;PIC16F1827-ChargeStation3-02.c: 125: } else {
  2740  0194  29E5               	goto	i1l1258
  2741  0195                     i1l1244:	
  2742                           
  2743                           ;PIC16F1827-ChargeStation3-02.c: 126: if (cnt[i] / 2 <= v[i] / 100) {
  2744  0195  3064               	movlw	100
  2745  0196  00F0               	movwf	i1___lwdiv@divisor
  2746  0197  3000               	movlw	0
  2747  0198  00F1               	movwf	i1___lwdiv@divisor+1
  2748  0199  357D               	lslf	lchika@i,w
  2749  019A  3ED9               	addlw	_v& (0+255)
  2750  019B  0086               	movwf	6
  2751  019C  0187               	clrf	7
  2752  019D  3F40               	moviw [0]fsr1
  2753  019E  00F2               	movwf	i1___lwdiv@dividend
  2754  019F  3F41               	moviw [1]fsr1
  2755  01A0  00F3               	movwf	i1___lwdiv@dividend+1
  2756  01A1  3182  22DF  3181   	fcall	i1___lwdiv
  2757  01A4  0870               	movf	?i1___lwdiv,w
  2758  01A5  00F9               	movwf	??_lchika
  2759  01A6  0871               	movf	?i1___lwdiv+1,w
  2760  01A7  00FA               	movwf	??_lchika+1
  2761  01A8  3002               	movlw	2
  2762  01A9  00F0               	movwf	___awdiv@divisor
  2763  01AA  3000               	movlw	0
  2764  01AB  00F1               	movwf	___awdiv@divisor+1
  2765  01AC  087D               	movf	lchika@i,w
  2766  01AD  3E35               	addlw	_cnt& (0+255)
  2767  01AE  0086               	movwf	6
  2768  01AF  0187               	clrf	7
  2769  01B0  0801               	movf	1,w
  2770  01B1  00FB               	movwf	??_lchika+2
  2771  01B2  01FC               	clrf	??_lchika+3
  2772  01B3  087B               	movf	??_lchika+2,w
  2773  01B4  00F2               	movwf	___awdiv@dividend
  2774  01B5  087C               	movf	??_lchika+3,w
  2775  01B6  00F3               	movwf	___awdiv@dividend+1
  2776  01B7  3182  2255  3181   	fcall	___awdiv
  2777  01BA  0871               	movf	?___awdiv+1,w
  2778  01BB  027A               	subwf	??_lchika+1,w
  2779  01BC  1D03               	skipz
  2780  01BD  29C0               	goto	u126_25
  2781  01BE  0870               	movf	?___awdiv,w
  2782  01BF  0279               	subwf	??_lchika,w
  2783  01C0                     u126_25:	
  2784  01C0  1C03               	skipc
  2785  01C1  29CB               	goto	i1l1250
  2786                           
  2787                           ;PIC16F1827-ChargeStation3-02.c: 127: LED(i, 1);
  2788  01C2  01F0               	clrf	i1LED@value
  2789  01C3  0AF0               	incf	i1LED@value,f
  2790  01C4  087D               	movf	lchika@i,w
  2791  01C5  3184  2498  3181   	fcall	i1_LED
  2792                           
  2793                           ;PIC16F1827-ChargeStation3-02.c: 128: cntf[i] = 0;
  2794  01C8  087D               	movf	lchika@i,w
  2795  01C9  3E38               	addlw	_cntf& (0+255)
  2796  01CA  29E2               	goto	L2
  2797  01CB                     i1l1250:	
  2798                           ;PIC16F1827-ChargeStation3-02.c: 129: } else {
  2799                           
  2800                           
  2801                           ;PIC16F1827-ChargeStation3-02.c: 130: cntf[i]++;
  2802  01CB  3001               	movlw	1
  2803  01CC  00F9               	movwf	??_lchika
  2804  01CD  087D               	movf	lchika@i,w
  2805  01CE  3E38               	addlw	_cntf& (0+255)
  2806  01CF  0086               	movwf	6
  2807  01D0  0187               	clrf	7
  2808  01D1  0879               	movf	??_lchika,w
  2809  01D2  0781               	addwf	1,f
  2810                           
  2811                           ;PIC16F1827-ChargeStation3-02.c: 131: LED(i, 0);
  2812  01D3  01F0               	clrf	i1LED@value
  2813  01D4  087D               	movf	lchika@i,w
  2814  01D5  3184  2498  3181   	fcall	i1_LED
  2815                           
  2816                           ;PIC16F1827-ChargeStation3-02.c: 132: if (cntf[i] >= 2) {
  2817  01D8  087D               	movf	lchika@i,w
  2818  01D9  3E38               	addlw	_cntf& (0+255)
  2819  01DA  0086               	movwf	6
  2820  01DB  0187               	clrf	7
  2821  01DC  3002               	movlw	2
  2822  01DD  0201               	subwf	1,w
  2823  01DE  1C03               	skipc
  2824  01DF  29E5               	goto	i1l1258
  2825                           
  2826                           ;PIC16F1827-ChargeStation3-02.c: 133: cnt[i] = 0;
  2827  01E0  087D               	movf	lchika@i,w
  2828  01E1  3E35               	addlw	_cnt& (0+255)
  2829  01E2                     L2:	
  2830  01E2  0086               	movwf	6
  2831  01E3  0187               	clrf	7
  2832  01E4  0181               	clrf	1
  2833  01E5                     i1l1258:	
  2834  01E5  3001               	movlw	1
  2835  01E6  00F9               	movwf	??_lchika
  2836  01E7  0879               	movf	??_lchika,w
  2837  01E8  07FD               	addwf	lchika@i,f
  2838  01E9  297D               	goto	L3
  2839  01EA                     __end_of_lchika:	
  2840                           
  2841                           	psect	text18
  2842  02DF                     __ptext18:	
  2843 ;; *************** function i1___lwdiv *****************
  2844 ;; Defined at:
  2845 ;;		line 6 in file "C:\Program Files (x86)\Microchip\xc8\v1.33\sources\common\lwdiv.c"
  2846 ;; Parameters:    Size  Location     Type
  2847 ;;  divisor         2    0[COMMON] unsigned int 
  2848 ;;  dividend        2    2[COMMON] unsigned int 
  2849 ;; Auto vars:     Size  Location     Type
  2850 ;;  __lwdiv         2    5[COMMON] unsigned int 
  2851 ;;  __lwdiv         1    7[COMMON] unsigned char 
  2852 ;; Return value:  Size  Location     Type
  2853 ;;                  2    0[COMMON] unsigned int 
  2854 ;; Registers used:
  2855 ;;		wreg, status,2, status,0
  2856 ;; Tracked objects:
  2857 ;;		On entry : 0/0
  2858 ;;		On exit  : 0/0
  2859 ;;		Unchanged: 0/0
  2860 ;; Data sizes:     COMMON   BANK0   BANK1   BANK2   BANK3   BANK4
  2861 ;;      Params:         4       0       0       0       0       0
  2862 ;;      Locals:         3       0       0       0       0       0
  2863 ;;      Temps:          1       0       0       0       0       0
  2864 ;;      Totals:         8       0       0       0       0       0
  2865 ;;Total ram usage:        8 bytes
  2866 ;; Hardware stack levels used:    1
  2867 ;; This function calls:
  2868 ;;		Nothing
  2869 ;; This function is called by:
  2870 ;;		_lchika
  2871 ;; This function uses a non-reentrant model
  2872 ;;
  2873                           
  2874                           
  2875                           ;psect for function i1___lwdiv
  2876  02DF                     i1___lwdiv:	
  2877                           
  2878                           ;incstack = 0
  2879                           ; Regs used in i1___lwdiv: [wreg+status,2+status,0]
  2880  02DF  01F5               	clrf	i1___lwdiv@quotient
  2881  02E0  01F6               	clrf	i1___lwdiv@quotient+1
  2882  02E1  0871               	movf	i1___lwdiv@divisor+1,w
  2883  02E2  0470               	iorwf	i1___lwdiv@divisor,w
  2884  02E3  1903               	skipnz
  2885  02E4  2B0E               	goto	i1l1182
  2886  02E5  01F7               	clrf	i1___lwdiv@counter
  2887  02E6  0AF7               	incf	i1___lwdiv@counter,f
  2888  02E7                     i1l1170:	
  2889  02E7  1BF1               	btfsc	i1___lwdiv@divisor+1,7
  2890  02E8  2AF3               	goto	i1l1172
  2891  02E9  3001               	movlw	1
  2892  02EA                     u112_25:	
  2893  02EA  35F0               	lslf	i1___lwdiv@divisor,f
  2894  02EB  0DF1               	rlf	i1___lwdiv@divisor+1,f
  2895  02EC  0B89               	decfsz	9,f
  2896  02ED  2AEA               	goto	u112_25
  2897  02EE  3001               	movlw	1
  2898  02EF  00F4               	movwf	??i1___lwdiv
  2899  02F0  0874               	movf	??i1___lwdiv,w
  2900  02F1  07F7               	addwf	i1___lwdiv@counter,f
  2901  02F2  2AE7               	goto	i1l1170
  2902  02F3                     i1l1172:	
  2903  02F3  3001               	movlw	1
  2904  02F4                     u114_25:	
  2905  02F4  35F5               	lslf	i1___lwdiv@quotient,f
  2906  02F5  0DF6               	rlf	i1___lwdiv@quotient+1,f
  2907  02F6  0B89               	decfsz	9,f
  2908  02F7  2AF4               	goto	u114_25
  2909  02F8  0871               	movf	i1___lwdiv@divisor+1,w
  2910  02F9  0273               	subwf	i1___lwdiv@dividend+1,w
  2911  02FA  1D03               	skipz
  2912  02FB  2AFE               	goto	u115_25
  2913  02FC  0870               	movf	i1___lwdiv@divisor,w
  2914  02FD  0272               	subwf	i1___lwdiv@dividend,w
  2915  02FE                     u115_25:	
  2916  02FE  1C03               	skipc
  2917  02FF  2B05               	goto	i1l1178
  2918  0300  0870               	movf	i1___lwdiv@divisor,w
  2919  0301  02F2               	subwf	i1___lwdiv@dividend,f
  2920  0302  0871               	movf	i1___lwdiv@divisor+1,w
  2921  0303  3BF3               	subwfb	i1___lwdiv@dividend+1,f
  2922  0304  1475               	bsf	i1___lwdiv@quotient,0
  2923  0305                     i1l1178:	
  2924  0305  3001               	movlw	1
  2925  0306                     u116_25:	
  2926  0306  36F1               	lsrf	i1___lwdiv@divisor+1,f
  2927  0307  0CF0               	rrf	i1___lwdiv@divisor,f
  2928  0308  0B89               	decfsz	9,f
  2929  0309  2B06               	goto	u116_25
  2930  030A  3001               	movlw	1
  2931  030B  02F7               	subwf	i1___lwdiv@counter,f
  2932  030C  1D03               	btfss	3,2
  2933  030D  2AF3               	goto	i1l1172
  2934  030E                     i1l1182:	
  2935  030E  0876               	movf	i1___lwdiv@quotient+1,w
  2936  030F  01F1               	clrf	?i1___lwdiv+1
  2937  0310  07F1               	addwf	?i1___lwdiv+1,f
  2938  0311  0875               	movf	i1___lwdiv@quotient,w
  2939  0312  01F0               	clrf	?i1___lwdiv
  2940  0313  07F0               	addwf	?i1___lwdiv,f
  2941  0314  0008               	return
  2942  0315                     __end_ofi1___lwdiv:	
  2943                           
  2944                           	psect	text19
  2945  0498                     __ptext19:	
  2946 ;; *************** function i1_LED *****************
  2947 ;; Defined at:
  2948 ;;		line 223 in file "PIC16F1827-ChargeStation3-02.c"
  2949 ;; Parameters:    Size  Location     Type
  2950 ;;  b               1    wreg     unsigned char 
  2951 ;;  value           1    0[COMMON] unsigned char 
  2952 ;; Auto vars:     Size  Location     Type
  2953 ;;  b               1    1[COMMON] unsigned char 
  2954 ;; Return value:  Size  Location     Type
  2955 ;;		None               void
  2956 ;; Registers used:
  2957 ;;		wreg, fsr0l, fsr0h, status,2, status,0
  2958 ;; Tracked objects:
  2959 ;;		On entry : 0/0
  2960 ;;		On exit  : 0/0
  2961 ;;		Unchanged: 0/0
  2962 ;; Data sizes:     COMMON   BANK0   BANK1   BANK2   BANK3   BANK4
  2963 ;;      Params:         1       0       0       0       0       0
  2964 ;;      Locals:         1       0       0       0       0       0
  2965 ;;      Temps:          0       0       0       0       0       0
  2966 ;;      Totals:         2       0       0       0       0       0
  2967 ;;Total ram usage:        2 bytes
  2968 ;; Hardware stack levels used:    1
  2969 ;; This function calls:
  2970 ;;		Nothing
  2971 ;; This function is called by:
  2972 ;;		_lchika
  2973 ;; This function uses a non-reentrant model
  2974 ;;
  2975                           
  2976                           
  2977                           ;psect for function i1_LED
  2978  0498                     i1_LED:	
  2979                           
  2980                           ;incstack = 0
  2981                           ; Regs used in i1_LED: [wreg-fsr0h+status,2+status,0]
  2982                           ;i1LED@b stored from wreg
  2983  0498  00F1               	movwf	i1LED@b
  2984                           
  2985                           ;PIC16F1827-ChargeStation3-02.c: 224: switch (b) {
  2986  0499  2CB2               	goto	i1l1158
  2987  049A                     i1l165:	
  2988                           ;PIC16F1827-ChargeStation3-02.c: 225: case 0:
  2989                           
  2990                           
  2991                           ;PIC16F1827-ChargeStation3-02.c: 226: LATB5 = value;
  2992  049A  1C70               	btfss	i1LED@value,0
  2993  049B  2C9F               	goto	u105_20
  2994  049C  0022               	movlb	2	; select bank2
  2995  049D  168D               	bsf	13,5	;volatile
  2996  049E  0008               	return
  2997  049F                     u105_20:	
  2998  049F  0022               	movlb	2	; select bank2
  2999  04A0  128D               	bcf	13,5	;volatile
  3000                           
  3001                           ;PIC16F1827-ChargeStation3-02.c: 227: break;
  3002  04A1  0008               	return
  3003  04A2                     i1l167:	
  3004                           ;PIC16F1827-ChargeStation3-02.c: 228: case 1:
  3005                           
  3006                           
  3007                           ;PIC16F1827-ChargeStation3-02.c: 229: LATA6 = value;
  3008  04A2  1C70               	btfss	i1LED@value,0
  3009  04A3  2CA7               	goto	u107_20
  3010  04A4  0022               	movlb	2	; select bank2
  3011  04A5  170C               	bsf	12,6	;volatile
  3012  04A6  0008               	return
  3013  04A7                     u107_20:	
  3014  04A7  0022               	movlb	2	; select bank2
  3015  04A8  130C               	bcf	12,6	;volatile
  3016                           
  3017                           ;PIC16F1827-ChargeStation3-02.c: 230: break;
  3018  04A9  0008               	return
  3019  04AA                     i1l168:	
  3020                           ;PIC16F1827-ChargeStation3-02.c: 231: case 2:
  3021                           
  3022                           
  3023                           ;PIC16F1827-ChargeStation3-02.c: 232: LATA7 = value;
  3024  04AA  1C70               	btfss	i1LED@value,0
  3025  04AB  2CAF               	goto	u109_20
  3026  04AC  0022               	movlb	2	; select bank2
  3027  04AD  178C               	bsf	12,7	;volatile
  3028  04AE  0008               	return
  3029  04AF                     u109_20:	
  3030  04AF  0022               	movlb	2	; select bank2
  3031  04B0  138C               	bcf	12,7	;volatile
  3032                           
  3033                           ;PIC16F1827-ChargeStation3-02.c: 236: }
  3034                           
  3035                           ;PIC16F1827-ChargeStation3-02.c: 235: break;
  3036                           
  3037                           ;PIC16F1827-ChargeStation3-02.c: 234: default:
  3038                           
  3039                           ;PIC16F1827-ChargeStation3-02.c: 233: break;
  3040  04B1  0008               	return
  3041  04B2                     i1l1158:	
  3042  04B2  0871               	movf	i1LED@b,w
  3043                           
  3044                           ; Switch size 1, requested type "space"
  3045                           ; Number of cases is 3, Range of values is 0 to 2
  3046                           ; switch strategies available:
  3047                           ; Name         Instructions Cycles
  3048                           ; simple_byte           10     6 (average)
  3049                           ; direct_byte           12     6 (fixed)
  3050                           ; jumptable            260     6 (fixed)
  3051                           ;	Chosen strategy is simple_byte
  3052  04B3  3A00               	xorlw	0	; case 0
  3053  04B4  1903               	skipnz
  3054  04B5  2C9A               	goto	i1l165
  3055  04B6  3A01               	xorlw	1	; case 1
  3056  04B7  1903               	skipnz
  3057  04B8  2CA2               	goto	i1l167
  3058  04B9  3A03               	xorlw	3	; case 2
  3059  04BA  1903               	skipnz
  3060  04BB  2CAA               	goto	i1l168
  3061  04BC  2CBD               	goto	i1l170
  3062  04BD                     i1l170:	
  3063  04BD  0008               	return
  3064  04BE                     __end_ofi1_LED:	
  3065                           
  3066                           	psect	text20
  3067  0255                     __ptext20:	
  3068 ;; *************** function ___awdiv *****************
  3069 ;; Defined at:
  3070 ;;		line 6 in file "C:\Program Files (x86)\Microchip\xc8\v1.33\sources\common\awdiv.c"
  3071 ;; Parameters:    Size  Location     Type
  3072 ;;  divisor         2    0[COMMON] int 
  3073 ;;  dividend        2    2[COMMON] int 
  3074 ;; Auto vars:     Size  Location     Type
  3075 ;;  quotient        2    7[COMMON] int 
  3076 ;;  sign            1    6[COMMON] unsigned char 
  3077 ;;  counter         1    5[COMMON] unsigned char 
  3078 ;; Return value:  Size  Location     Type
  3079 ;;                  2    0[COMMON] int 
  3080 ;; Registers used:
  3081 ;;		wreg, status,2, status,0
  3082 ;; Tracked objects:
  3083 ;;		On entry : 0/0
  3084 ;;		On exit  : 0/0
  3085 ;;		Unchanged: 0/0
  3086 ;; Data sizes:     COMMON   BANK0   BANK1   BANK2   BANK3   BANK4
  3087 ;;      Params:         4       0       0       0       0       0
  3088 ;;      Locals:         4       0       0       0       0       0
  3089 ;;      Temps:          1       0       0       0       0       0
  3090 ;;      Totals:         9       0       0       0       0       0
  3091 ;;Total ram usage:        9 bytes
  3092 ;; Hardware stack levels used:    1
  3093 ;; This function calls:
  3094 ;;		Nothing
  3095 ;; This function is called by:
  3096 ;;		_lchika
  3097 ;; This function uses a non-reentrant model
  3098 ;;
  3099                           
  3100                           
  3101                           ;psect for function ___awdiv
  3102  0255                     ___awdiv:	
  3103                           
  3104                           ;incstack = 0
  3105                           ; Regs used in ___awdiv: [wreg+status,2+status,0]
  3106  0255  01F6               	clrf	___awdiv@sign
  3107  0256  1FF1               	btfss	___awdiv@divisor+1,7
  3108  0257  2A5F               	goto	i1l1062
  3109  0258  09F0               	comf	___awdiv@divisor,f
  3110  0259  09F1               	comf	___awdiv@divisor+1,f
  3111  025A  0AF0               	incf	___awdiv@divisor,f
  3112  025B  1903               	skipnz
  3113  025C  0AF1               	incf	___awdiv@divisor+1,f
  3114  025D  01F6               	clrf	___awdiv@sign
  3115  025E  0AF6               	incf	___awdiv@sign,f
  3116  025F                     i1l1062:	
  3117  025F  1FF3               	btfss	___awdiv@dividend+1,7
  3118  0260  2A6A               	goto	i1l1068
  3119  0261  09F2               	comf	___awdiv@dividend,f
  3120  0262  09F3               	comf	___awdiv@dividend+1,f
  3121  0263  0AF2               	incf	___awdiv@dividend,f
  3122  0264  1903               	skipnz
  3123  0265  0AF3               	incf	___awdiv@dividend+1,f
  3124  0266  3001               	movlw	1
  3125  0267  00F4               	movwf	??___awdiv
  3126  0268  0874               	movf	??___awdiv,w
  3127  0269  06F6               	xorwf	___awdiv@sign,f
  3128  026A                     i1l1068:	
  3129  026A  01F7               	clrf	___awdiv@quotient
  3130  026B  01F8               	clrf	___awdiv@quotient+1
  3131  026C  0871               	movf	___awdiv@divisor+1,w
  3132  026D  0470               	iorwf	___awdiv@divisor,w
  3133  026E  1903               	skipnz
  3134  026F  2A99               	goto	i1l1090
  3135  0270  01F5               	clrf	___awdiv@counter
  3136  0271  0AF5               	incf	___awdiv@counter,f
  3137  0272                     i1l1078:	
  3138  0272  1BF1               	btfsc	___awdiv@divisor+1,7
  3139  0273  2A7E               	goto	i1l1080
  3140  0274  3001               	movlw	1
  3141  0275                     u84_25:	
  3142  0275  35F0               	lslf	___awdiv@divisor,f
  3143  0276  0DF1               	rlf	___awdiv@divisor+1,f
  3144  0277  0B89               	decfsz	9,f
  3145  0278  2A75               	goto	u84_25
  3146  0279  3001               	movlw	1
  3147  027A  00F4               	movwf	??___awdiv
  3148  027B  0874               	movf	??___awdiv,w
  3149  027C  07F5               	addwf	___awdiv@counter,f
  3150  027D  2A72               	goto	i1l1078
  3151  027E                     i1l1080:	
  3152  027E  3001               	movlw	1
  3153  027F                     u86_25:	
  3154  027F  35F7               	lslf	___awdiv@quotient,f
  3155  0280  0DF8               	rlf	___awdiv@quotient+1,f
  3156  0281  0B89               	decfsz	9,f
  3157  0282  2A7F               	goto	u86_25
  3158  0283  0871               	movf	___awdiv@divisor+1,w
  3159  0284  0273               	subwf	___awdiv@dividend+1,w
  3160  0285  1D03               	skipz
  3161  0286  2A89               	goto	u87_25
  3162  0287  0870               	movf	___awdiv@divisor,w
  3163  0288  0272               	subwf	___awdiv@dividend,w
  3164  0289                     u87_25:	
  3165  0289  1C03               	skipc
  3166  028A  2A90               	goto	i1l1086
  3167  028B  0870               	movf	___awdiv@divisor,w
  3168  028C  02F2               	subwf	___awdiv@dividend,f
  3169  028D  0871               	movf	___awdiv@divisor+1,w
  3170  028E  3BF3               	subwfb	___awdiv@dividend+1,f
  3171  028F  1477               	bsf	___awdiv@quotient,0
  3172  0290                     i1l1086:	
  3173  0290  3001               	movlw	1
  3174  0291                     u88_25:	
  3175  0291  36F1               	lsrf	___awdiv@divisor+1,f
  3176  0292  0CF0               	rrf	___awdiv@divisor,f
  3177  0293  0B89               	decfsz	9,f
  3178  0294  2A91               	goto	u88_25
  3179  0295  3001               	movlw	1
  3180  0296  02F5               	subwf	___awdiv@counter,f
  3181  0297  1D03               	btfss	3,2
  3182  0298  2A7E               	goto	i1l1080
  3183  0299                     i1l1090:	
  3184  0299  0876               	movf	___awdiv@sign,w
  3185  029A  1903               	btfsc	3,2
  3186  029B  2AA1               	goto	i1l1094
  3187  029C  09F7               	comf	___awdiv@quotient,f
  3188  029D  09F8               	comf	___awdiv@quotient+1,f
  3189  029E  0AF7               	incf	___awdiv@quotient,f
  3190  029F  1903               	skipnz
  3191  02A0  0AF8               	incf	___awdiv@quotient+1,f
  3192  02A1                     i1l1094:	
  3193  02A1  0878               	movf	___awdiv@quotient+1,w
  3194  02A2  01F1               	clrf	?___awdiv+1
  3195  02A3  07F1               	addwf	?___awdiv+1,f
  3196  02A4  0877               	movf	___awdiv@quotient,w
  3197  02A5  01F0               	clrf	?___awdiv
  3198  02A6  07F0               	addwf	?___awdiv,f
  3199  02A7  0008               	return
  3200  02A8                     __end_of___awdiv:	
  3201                           
  3202                           	psect	text21
  3203  04BE                     __ptext21:	
  3204 ;; *************** function _adc *****************
  3205 ;; Defined at:
  3206 ;;		line 186 in file "PIC16F1827-ChargeStation3-02.c"
  3207 ;; Parameters:    Size  Location     Type
  3208 ;;  ch              1    wreg     unsigned char 
  3209 ;; Auto vars:     Size  Location     Type
  3210 ;;  ch              1    3[COMMON] unsigned char 
  3211 ;; Return value:  Size  Location     Type
  3212 ;;                  2    0[COMMON] unsigned int 
  3213 ;; Registers used:
  3214 ;;		wreg, status,2, status,0
  3215 ;; Tracked objects:
  3216 ;;		On entry : 0/0
  3217 ;;		On exit  : 0/0
  3218 ;;		Unchanged: 0/0
  3219 ;; Data sizes:     COMMON   BANK0   BANK1   BANK2   BANK3   BANK4
  3220 ;;      Params:         2       0       0       0       0       0
  3221 ;;      Locals:         1       0       0       0       0       0
  3222 ;;      Temps:          1       0       0       0       0       0
  3223 ;;      Totals:         4       0       0       0       0       0
  3224 ;;Total ram usage:        4 bytes
  3225 ;; Hardware stack levels used:    1
  3226 ;; This function calls:
  3227 ;;		Nothing
  3228 ;; This function is called by:
  3229 ;;		_isr
  3230 ;; This function uses a non-reentrant model
  3231 ;;
  3232                           
  3233                           
  3234                           ;psect for function _adc
  3235  04BE                     _adc:	
  3236                           
  3237                           ;incstack = 0
  3238                           ; Regs used in _adc: [wreg+status,2+status,0]
  3239                           ;adc@ch stored from wreg
  3240  04BE  00F3               	movwf	adc@ch
  3241                           
  3242                           ;PIC16F1827-ChargeStation3-02.c: 187: ADCON0bits.ADON = 1;
  3243  04BF  0021               	movlb	1	; select bank1
  3244  04C0  141D               	bsf	29,0	;volatile
  3245                           
  3246                           ;PIC16F1827-ChargeStation3-02.c: 188: ADCON0bits.CHS = 2 - ch;
  3247  04C1  0373               	decf	adc@ch,w
  3248  04C2  3AFF               	xorlw	255
  3249  04C3  3E02               	addlw	2
  3250  04C4  00F2               	movwf	??_adc
  3251  04C5  0DF2               	rlf	??_adc,f
  3252  04C6  0DF2               	rlf	??_adc,f
  3253  04C7  081D               	movf	29,w	;volatile
  3254  04C8  0672               	xorwf	??_adc,w
  3255  04C9  3983               	andlw	-125
  3256  04CA  0672               	xorwf	??_adc,w
  3257  04CB  009D               	movwf	29	;volatile
  3258                           
  3259                           ;PIC16F1827-ChargeStation3-02.c: 189: _delay((unsigned long)((20)*(32000000/4000000.0)))
      +                          ;
  3260  04CC  3035               	movlw	53
  3261  04CD  00F2               	movwf	??_adc
  3262  04CE                     u199_27:	
  3263  04CE  0BF2               	decfsz	??_adc,f
  3264  04CF  2CCE               	goto	u199_27
  3265                           
  3266                           ;PIC16F1827-ChargeStation3-02.c: 190: ADCON0bits.GO_nDONE = 1;
  3267  04D0  0021               	movlb	1	; select bank1
  3268  04D1  149D               	bsf	29,1	;volatile
  3269  04D2                     i1l143:	
  3270                           ;PIC16F1827-ChargeStation3-02.c: 191: while (ADCON0bits.GO_nDONE);
  3271                           
  3272  04D2  189D               	btfsc	29,1	;volatile
  3273  04D3  2CD2               	goto	i1l143
  3274                           
  3275                           ;PIC16F1827-ChargeStation3-02.c: 192: return ADRES;
  3276  04D4  081C               	movf	28,w	;volatile
  3277  04D5  01F1               	clrf	?_adc+1
  3278  04D6  07F1               	addwf	?_adc+1,f
  3279  04D7  081B               	movf	27,w	;volatile
  3280  04D8  01F0               	clrf	?_adc
  3281  04D9  07F0               	addwf	?_adc,f
  3282  04DA  0008               	return
  3283  04DB                     __end_of_adc:	
  3284                           
  3285                           	psect	text22
  3286  04DB                     __ptext22:	
  3287 ;; *************** function ___wmul *****************
  3288 ;; Defined at:
  3289 ;;		line 15 in file "C:\Program Files (x86)\Microchip\xc8\v1.33\sources\common\Umul16.c"
  3290 ;; Parameters:    Size  Location     Type
  3291 ;;  multiplier      2    4[COMMON] unsigned int 
  3292 ;;  multiplicand    2    6[COMMON] unsigned int 
  3293 ;; Auto vars:     Size  Location     Type
  3294 ;;  product         2    8[COMMON] unsigned int 
  3295 ;; Return value:  Size  Location     Type
  3296 ;;                  2    4[COMMON] unsigned int 
  3297 ;; Registers used:
  3298 ;;		wreg, status,2, status,0
  3299 ;; Tracked objects:
  3300 ;;		On entry : 0/0
  3301 ;;		On exit  : 0/0
  3302 ;;		Unchanged: 0/0
  3303 ;; Data sizes:     COMMON   BANK0   BANK1   BANK2   BANK3   BANK4
  3304 ;;      Params:         4       0       0       0       0       0
  3305 ;;      Locals:         2       0       0       0       0       0
  3306 ;;      Temps:          0       0       0       0       0       0
  3307 ;;      Totals:         6       0       0       0       0       0
  3308 ;;Total ram usage:        6 bytes
  3309 ;; Hardware stack levels used:    1
  3310 ;; This function calls:
  3311 ;;		Nothing
  3312 ;; This function is called by:
  3313 ;;		_isr
  3314 ;; This function uses a non-reentrant model
  3315 ;;
  3316                           
  3317                           
  3318                           ;psect for function ___wmul
  3319  04DB                     ___wmul:	
  3320                           
  3321                           ;incstack = 0
  3322                           ; Regs used in ___wmul: [wreg+status,2+status,0]
  3323  04DB  01F8               	clrf	___wmul@product
  3324  04DC  01F9               	clrf	___wmul@product+1
  3325  04DD                     i1l1324:	
  3326  04DD  1C74               	btfss	___wmul@multiplier,0
  3327  04DE  2CE3               	goto	i1l277
  3328  04DF  0876               	movf	___wmul@multiplicand,w
  3329  04E0  07F8               	addwf	___wmul@product,f
  3330  04E1  0877               	movf	___wmul@multiplicand+1,w
  3331  04E2  3DF9               	addwfc	___wmul@product+1,f
  3332  04E3                     i1l277:	
  3333  04E3  3001               	movlw	1
  3334  04E4                     u138_25:	
  3335  04E4  35F6               	lslf	___wmul@multiplicand,f
  3336  04E5  0DF7               	rlf	___wmul@multiplicand+1,f
  3337  04E6  0B89               	decfsz	9,f
  3338  04E7  2CE4               	goto	u138_25
  3339  04E8  3001               	movlw	1
  3340  04E9                     u139_25:	
  3341  04E9  36F5               	lsrf	___wmul@multiplier+1,f
  3342  04EA  0CF4               	rrf	___wmul@multiplier,f
  3343  04EB  0B89               	decfsz	9,f
  3344  04EC  2CE9               	goto	u139_25
  3345  04ED  0875               	movf	___wmul@multiplier+1,w
  3346  04EE  0474               	iorwf	___wmul@multiplier,w
  3347  04EF  1D03               	skipz
  3348  04F0  2CDD               	goto	i1l1324
  3349  04F1  0879               	movf	___wmul@product+1,w
  3350  04F2  01F5               	clrf	?___wmul+1
  3351  04F3  07F5               	addwf	?___wmul+1,f
  3352  04F4  0878               	movf	___wmul@product,w
  3353  04F5  01F4               	clrf	?___wmul
  3354  04F6  07F4               	addwf	?___wmul,f
  3355  04F7  0008               	return
  3356  04F8                     __end_of___wmul:	
  3357  007E                     btemp	set	126	;btemp
  3358  007E                     pic14e$flags	set	126
  3359  007E                     wtemp	set	126
  3360  007E                     wtemp0	set	126
  3361  0080                     wtemp1	set	128
  3362  0082                     wtemp2	set	130
  3363  0084                     wtemp3	set	132
  3364  0086                     wtemp4	set	134
  3365  0088                     wtemp5	set	136
  3366  007F                     wtemp6	set	127
  3367  007E                     ttemp	set	126
  3368  007E                     ttemp0	set	126
  3369  0081                     ttemp1	set	129
  3370  0084                     ttemp2	set	132
  3371  0087                     ttemp3	set	135
  3372  007F                     ttemp4	set	127
  3373  007E                     ltemp	set	126
  3374  007E                     ltemp0	set	126
  3375  0082                     ltemp1	set	130
  3376  0086                     ltemp2	set	134
  3377  0080                     ltemp3	set	128


Data Sizes:
    Strings     0
    Constant    0
    Data        0
    BSS         24
    Persistent  0
    Stack       0

Auto Spaces:
    Space          Size  Autos    Used
    COMMON           14     14      14
    BANK0            80     21      29
    BANK1            80     51      67
    BANK2            80      0       0
    BANK3            80      0       0
    BANK4            48      0       0

Pointer List with Targets:

    init_ringbuf@rb.buf	PTR unsigned char  size(1) Largest target is 50
		 -> main@ringbuf(BANK1[50]), 

    init_ringbuf@internal_buf	PTR unsigned char  size(1) Largest target is 50
		 -> main@ringbuf(BANK1[50]), 

    init_ringbuf@rb	PTR struct ringbuf size(1) Largest target is 5
		 -> tx_buf(BANK1[4]), 

    ringbuf_num@rb.buf	PTR unsigned char  size(1) Largest target is 50
		 -> main@ringbuf(BANK1[50]), 

    ringbuf_num@rb	PTR struct ringbuf size(1) Largest target is 5
		 -> tx_buf(BANK1[4]), 

    ringbuf_pop@rb.buf	PTR unsigned char  size(1) Largest target is 50
		 -> main@ringbuf(BANK1[50]), 

    ringbuf_pop@rb	PTR struct ringbuf size(1) Largest target is 5
		 -> tx_buf(BANK1[4]), 

    ringbuf_put@rb.buf	PTR unsigned char  size(1) Largest target is 50
		 -> main@ringbuf(BANK1[50]), 

    ringbuf_put@rb	PTR struct ringbuf size(1) Largest target is 5
		 -> tx_buf(BANK1[4]), 

    S19ringbuf$buf	PTR unsigned char  size(1) Largest target is 50
		 -> main@ringbuf(BANK1[50]), 

    tx_buf.buf	PTR unsigned char  size(1) Largest target is 50
		 -> main@ringbuf(BANK1[50]), 


Critical Paths under _main in COMMON

    None.

Critical Paths under _isr in COMMON

    _isr->_lchika
    i1_tx_send->i1_ringbuf_put
    _lchika->___awdiv
    ___wmul->_adc

Critical Paths under _main in BANK0

    _main->_display
    _display->___lwdiv
    _tx_send->_ringbuf_put
    ___lwdiv->___lwmod

Critical Paths under _isr in BANK0

    None.

Critical Paths under _main in BANK1

    None.

Critical Paths under _isr in BANK1

    None.

Critical Paths under _main in BANK2

    None.

Critical Paths under _isr in BANK2

    None.

Critical Paths under _main in BANK3

    None.

Critical Paths under _isr in BANK3

    None.

Critical Paths under _main in BANK4

    None.

Critical Paths under _isr in BANK4

    None.

Call Graph Tables:

 ---------------------------------------------------------------------------------
 (Depth) Function   	        Calls       Base Space   Used Autos Params    Refs
 ---------------------------------------------------------------------------------
 (0) _main                                                53    53      0    3689
                                             19 BANK0      2     2      0
                                              0 BANK1     51    51      0
                                _LED
                                _OUT
                                 _SW
                            _display
                       _init_ringbuf
                          _main_init
 ---------------------------------------------------------------------------------
 (1) _main_init                                            0     0      0       0
 ---------------------------------------------------------------------------------
 (1) _init_ringbuf                                         4     2      2     382
                                              4 BANK0      4     2      2
 ---------------------------------------------------------------------------------
 (1) _display                                              1     1      0    1941
                                             18 BANK0      1     1      0
                            ___lwdiv
                            ___lwmod
                            _tx_send
 ---------------------------------------------------------------------------------
 (2) _tx_send                                              2     2      0     367
                                              8 BANK0      2     2      0
                        _ringbuf_put
 ---------------------------------------------------------------------------------
 (3) _ringbuf_put                                          4     3      1     336
                                              4 BANK0      4     3      1
 ---------------------------------------------------------------------------------
 (2) ___lwmod                                              6     2      4     694
                                              4 BANK0      6     2      4
 ---------------------------------------------------------------------------------
 (2) ___lwdiv                                              8     4      4     787
                                             10 BANK0      8     4      4
                            ___lwmod (ARG)
 ---------------------------------------------------------------------------------
 (1) _SW                                                   3     3      0      65
                                              4 BANK0      3     3      0
 ---------------------------------------------------------------------------------
 (1) _OUT                                                  2     1      1     474
                                              4 BANK0      2     1      1
 ---------------------------------------------------------------------------------
 (1) _LED                                                  2     1      1     558
                                              4 BANK0      2     1      1
 ---------------------------------------------------------------------------------
 Estimated maximum stack depth 3
 ---------------------------------------------------------------------------------
 (Depth) Function   	        Calls       Base Space   Used Autos Params    Refs
 ---------------------------------------------------------------------------------
 (4) _isr                                                  4     4      0    2474
                                              0 BANK0      4     4      0
                             ___wmul
                                _adc
                             _lchika
                        _ringbuf_num
                        _ringbuf_pop
                              i1_OUT
                          i1_tx_send
 ---------------------------------------------------------------------------------
 (5) i1_tx_send                                            2     2      0     283
                                              4 COMMON     2     2      0
                      i1_ringbuf_put
 ---------------------------------------------------------------------------------
 (6) i1_ringbuf_put                                        4     3      1     252
                                              0 COMMON     4     3      1
 ---------------------------------------------------------------------------------
 (5) i1_OUT                                                2     1      1     114
                                              0 COMMON     2     1      1
 ---------------------------------------------------------------------------------
 (5) _ringbuf_pop                                          4     4      0     262
                                              0 COMMON     4     4      0
 ---------------------------------------------------------------------------------
 (5) _ringbuf_num                                          2     2      0     192
                                              0 COMMON     2     2      0
 ---------------------------------------------------------------------------------
 (5) _lchika                                               5     5      0    1096
                                              9 COMMON     5     5      0
                            ___awdiv
                              i1_LED
                          i1___lwdiv
 ---------------------------------------------------------------------------------
 (6) i1___lwdiv                                            8     4      4     214
                                              0 COMMON     8     4      4
 ---------------------------------------------------------------------------------
 (6) i1_LED                                                2     1      1     166
                                              0 COMMON     2     1      1
 ---------------------------------------------------------------------------------
 (6) ___awdiv                                              9     5      4     428
                                              0 COMMON     9     5      4
 ---------------------------------------------------------------------------------
 (5) _adc                                                  4     2      2      22
                                              0 COMMON     4     2      2
 ---------------------------------------------------------------------------------
 (5) ___wmul                                               6     2      4     220
                                              4 COMMON     6     2      4
                                _adc (ARG)
 ---------------------------------------------------------------------------------
 Estimated maximum stack depth 6
 ---------------------------------------------------------------------------------

 Call Graph Graphs:

 _main (ROOT)
   _LED
   _OUT
   _SW
   _display
     ___lwdiv
       ___lwmod (ARG)
     ___lwmod
     _tx_send
       _ringbuf_put
   _init_ringbuf
   _main_init

 _isr (ROOT)
   ___wmul
     _adc (ARG)
   _adc
   _lchika
     ___awdiv
     i1_LED
     i1___lwdiv
   _ringbuf_num
   _ringbuf_pop
   i1_OUT
   i1_tx_send
     i1_ringbuf_put

 Address spaces:
Name               Size   Autos  Total    Cost      Usage
BIGRAM             170      0       0       0        0.0%
EEDATA             100      0       0       0        0.0%
NULL                 0      0       0       0        0.0%
CODE                 0      0       0       0        0.0%
BITCOMMON            E      0       0       1        0.0%
BITSFR0              0      0       0       1        0.0%
SFR0                 0      0       0       1        0.0%
COMMON               E      E       E       2      100.0%
BITSFR1              0      0       0       2        0.0%
SFR1                 0      0       0       2        0.0%
BITSFR2              0      0       0       3        0.0%
SFR2                 0      0       0       3        0.0%
STACK                0      0       0       3        0.0%
BITSFR3              0      0       0       4        0.0%
SFR3                 0      0       0       4        0.0%
ABS                  0      0      6E       4        0.0%
BITBANK0            50      0       0       5        0.0%
BITSFR4              0      0       0       5        0.0%
SFR4                 0      0       0       5        0.0%
BANK0               50     15      1D       6       36.3%
BITSFR5              0      0       0       6        0.0%
SFR5                 0      0       0       6        0.0%
BITBANK1            50      0       0       7        0.0%
BITSFR6              0      0       0       7        0.0%
SFR6                 0      0       0       7        0.0%
BANK1               50     33      43       8       83.8%
BITSFR7              0      0       0       8        0.0%
SFR7                 0      0       0       8        0.0%
BITBANK2            50      0       0       9        0.0%
BITSFR8              0      0       0       9        0.0%
SFR8                 0      0       0       9        0.0%
BANK2               50      0       0      10        0.0%
BITSFR9              0      0       0      10        0.0%
SFR9                 0      0       0      10        0.0%
BITBANK3            50      0       0      11        0.0%
BITSFR10             0      0       0      11        0.0%
SFR10                0      0       0      11        0.0%
BANK3               50      0       0      12        0.0%
BITSFR11             0      0       0      12        0.0%
SFR11                0      0       0      12        0.0%
BITBANK4            30      0       0      13        0.0%
BITSFR12             0      0       0      13        0.0%
SFR12                0      0       0      13        0.0%
BANK4               30      0       0      14        0.0%
BITSFR13             0      0       0      14        0.0%
SFR13                0      0       0      14        0.0%
BITSFR14             0      0       0      15        0.0%
SFR14                0      0       0      15        0.0%
DATA                 0      0      6E      15        0.0%
BITSFR15             0      0       0      16        0.0%
SFR15                0      0       0      16        0.0%
BITSFR16             0      0       0      17        0.0%
SFR16                0      0       0      17        0.0%
BITSFR17             0      0       0      18        0.0%
SFR17                0      0       0      18        0.0%
BITSFR18             0      0       0      19        0.0%
SFR18                0      0       0      19        0.0%
BITSFR19             0      0       0      20        0.0%
SFR19                0      0       0      20        0.0%
BITSFR20             0      0       0      21        0.0%
SFR20                0      0       0      21        0.0%
BITSFR21             0      0       0      22        0.0%
SFR21                0      0       0      22        0.0%
BITSFR22             0      0       0      23        0.0%
SFR22                0      0       0      23        0.0%
BITSFR23             0      0       0      24        0.0%
SFR23                0      0       0      24        0.0%
BITSFR24             0      0       0      25        0.0%
SFR24                0      0       0      25        0.0%
BITSFR25             0      0       0      26        0.0%
SFR25                0      0       0      26        0.0%
BITSFR26             0      0       0      27        0.0%
SFR26                0      0       0      27        0.0%
BITSFR27             0      0       0      28        0.0%
SFR27                0      0       0      28        0.0%
BITSFR28             0      0       0      29        0.0%
SFR28                0      0       0      29        0.0%
BITSFR29             0      0       0      30        0.0%
SFR29                0      0       0      30        0.0%
BITSFR30             0      0       0      31        0.0%
SFR30                0      0       0      31        0.0%
BITSFR31             0      0       0      32        0.0%
SFR31                0      0       0      32        0.0%


Microchip Technology PIC Macro Assembler V1.33 build 59893 
Symbol Table                                                                                   Sat Jan 31 07:50:39 2015

   __end_ofi1_ringbuf_put 03F2                         _v 00D9               __CFG_CP$OFF 0000  
                      _SW 0513              ___awdiv@sign 0076       ___wmul@multiplicand 0076  
                     ?_SW 0070                       l150 039F                       l151 03A5  
                     l161 03C6                       l170 0497                       l154 03A8  
                     l155 03AE                       l165 0473                       l157 03B1  
                     l158 03B7                       l190 024E                       l167 047B  
                     l168 0483                       SW@b 0025                       _LED 0470  
            __CFG_CPD$OFF 0000                       _OUT 039C                       _adc 04BE  
                     _cnt 0035                       _cut 00D3                       _isr 0004  
            __CFG_BORV$LO 0000                       wreg 0009                      ??_SW 0024  
            __CFG_LVP$OFF 0000                      LED@b 0025                      ?_LED 0024  
                    ?_OUT 0024                      ?_adc 0070                      l1522 048B  
                    l1450 02BD                      l1516 03BA                      l1460 02D8  
                    l1542 0529                      l1456 02CF                      l1448 02B1  
                    l1472 031C                      l1474 0328                      l1482 033D  
                    l1642 0224                      l1478 0334                      OUT@b 0025  
                    ?_isr 0070                      u1605 02B4                      u1625 02BE  
                    u1705 0335                      u1810 0488                      u1635 02C8  
                    u1645 02D0                      u1770 0478                      u1834 0521  
                    u1835 0520                      u1675 031F                      u1790 0480  
                    u1695 032E                      i1l97 006F                      i1l98 006D  
                    _SPEN 0CEF              __CFG_WRT$OFF 0000                      _cnt0 003B  
                    _cntf 0038                      _main 01EA               main@ringbuf 00A0  
                    fsr0h 0005                      fsr1h 0007                      fsr0l 0004  
                    indf0 0000                      indf1 0001                      fsr1l 0006  
                    btemp 007E                      isr@i 0023                      ltemp 007E  
                    start 00EE                      ttemp 007E                      wtemp 007E  
           __CFG_IESO$OFF 0000                     ??_LED 0025                     ??_OUT 0025  
                   ??_adc 0072                     ??_isr 0020             __CFG_PLLEN$ON 0000  
                   ?_main 0070           __end_of___awdiv 02A8                     _ADRES 009B  
                   _BRG16 0CFB             __CFG_WDTE$OFF 0000           ___awdiv@divisor 0070  
                   _T1CON 0018                     _LATB0 0868                     _LATB3 086B  
                   _LATB4 086C                     _LATA6 0866                     _LATB5 086D  
                   _LATA7 0867           __end_of___lwdiv 02DF                     i1l100 00D6  
                   i1l108 00E9                     i1l150 0449                     i1l143 04D2  
                   i1l151 044F                     i1l161 046F                     i1l170 04BD  
                   i1l154 0452                     i1l155 0458                     i1l165 049A  
                   i1l157 045B                     i1l158 0461                     i1l167 04A2  
                   i1l168 04AA           __end_of___lwmod 0344                     i1l277 04E3  
         ___awdiv@counter 0075                     i1_LED 0498                     _RCREG 0199  
                   _RCSTA 019D                     i1_OUT 0447                     _TMR1H 0017  
                   _TMR1L 0016                     _PORTA 000C                     _TRISA 008C  
                   _TRISB 008D                     u84_25 0275                     u86_25 027F  
                   u87_25 0289                     u88_25 0291                     _TXREG 019A  
                   _TXSTA 019E            __CFG_FCMEN$OFF 0000           __end_of_display 017C  
                   adc@ch 0073                     main@i 00D2            __CFG_BOREN$OFF 0000  
                   ltemp0 007E                     ltemp1 0082                     ltemp2 0086  
                   ltemp3 0080                     ttemp0 007E                     ttemp1 0081  
                   ttemp2 0084                     ttemp3 0087                     ttemp4 007F  
                   status 0003                     wtemp0 007E                     wtemp1 0080  
                   wtemp2 0082                     wtemp3 0084                     wtemp4 0086  
                   wtemp5 0088                     wtemp6 007F           __end_of_tx_send 0537  
      __size_ofi1___lwdiv 0036            __CFG_MCLRE$OFF 0000           __initialization 00F0  
            __end_of_main 0255                    ??_main 0033        __size_ofi1_tx_send 000B  
                  ?i1_LED 0070                    ?i1_OUT 0070                    _ADCON1 009E  
        ___awdiv@dividend 0072                    i1LED@b 0071                    _ANSELA 018C  
                  _ANSELB 018D                    i1l1062 025F                    i1l1080 027E  
                  i1l1090 0299                    i1l1170 02E7                    i1l1250 01CB  
                  i1l1324 04DD                    i1l1068 026A                    i1l1172 02F3  
                  i1l1244 0195                    i1l1094 02A1                    i1l1086 0290  
                  i1l1078 0272                    i1l1158 04B2                    i1l1182 030E  
                  i1l1502 039A                    i1l1178 0305                    i1l1258 01E5  
                  i1l1194 040B                    i1l1348 0464                    i1l1612 00C5  
                  i1l1604 0078                    u112_25 02EA                    i1l1614 00CD  
                  u105_20 049F                    i1l1590 0055                    SW@temp 0026  
                  u114_25 02F4                    u107_20 04A7                    i1OUT@b 0071  
                  u115_25 02FE                    u116_25 0306                    u109_20 04AF  
                  u126_25 01C0                    u138_25 04E4                    _FVRCON 0117  
                  u139_25 04E9                    u195_25 00E3                    u199_27 04CE  
                  _OSCCON 0099                    _SPBRGH 019C                    _SPBRGL 019B  
init_ringbuf@internal_buf 0024             ?_init_ringbuf 0024            __CFG_PWRTE$OFF 0000  
            ?_ringbuf_pop 0070              ?_ringbuf_num 0070              ?_ringbuf_put 0024  
                  ___wmul 04DB                 ??___awdiv 0074                 ??___lwdiv 002E  
               ??___lwmod 0028                    _lchika 017C          ___awdiv@quotient 0077  
                  _tx_buf 00DF                 ??_display 0032         __end_ofi1___lwdiv 0315  
               ??_tx_send 0028   __end_of__initialization 00FF            ??_init_ringbuf 0026  
       __end_ofi1_tx_send 0542             __end_ofi1_LED 04BE             __end_ofi1_OUT 0470  
          __pcstackCOMMON 0070                __end_of_SW 052B                   ??i1_LED 0071  
                 ??i1_OUT 0071        __size_of_main_init 002A                __pbssBANK0 0035  
              __pbssBANK1 00D3                __pmaintext 01EA                   ?___wmul 0074  
              __pintentry 0004                   ?_lchika 0070    __size_ofi1_ringbuf_put 002B  
                 ___awdiv 0255           __size_of___wmul 001D                   ___lwdiv 02A8  
                 ___lwmod 0315      __size_of_ringbuf_pop 002C      __size_of_ringbuf_num 002B  
    __size_of_ringbuf_put 002C           __CFG_STVREN$OFF 0000           __size_of_lchika 006E  
       __end_of_main_init 0447                   __ptext0 0000                   __ptext1 041D  
                 __ptext2 04F8                   __ptext3 0103                   __ptext4 052B  
                 __ptext5 0344                   __ptext6 0315                   __ptext7 02A8  
                 __ptext8 0513                   __ptext9 039C                   _display 0103  
            __size_of_LED 0028              __size_of_OUT 002B         i1___lwdiv@divisor 0070  
            __size_of_adc 001D      __end_of_init_ringbuf 0513              __size_of_isr 00EA  
       i1___lwdiv@counter 0077                   clrloop0 0543                   _tx_send 052B  
                 lchika@i 007D      end_of_initialization 00FF             i1_ringbuf_put 03C7  
        __CFG_FOSC$INTOSC 0000                 i1___lwdiv 02DF                 i1_tx_send 0537  
          ?i1_ringbuf_put 0070            ringbuf_pop@ret 0072            __end_of___wmul 04F8  
          __end_of_lchika 01EA       start_initialization 00F0               __end_of_LED 0498  
             __end_of_OUT 03C7               __end_of_adc 04DB               __end_of_isr 00EE  
              ?i1___lwdiv 0070                ?i1_tx_send 0070                  ??___wmul 0078  
                ??_lchika 0079     __size_of_init_ringbuf 001B                 ___latbits 0001  
                LED@value 0024             __pcstackBANK0 0020             __pcstackBANK1 00A0  
        tx_send@asciicode 0029              _init_ringbuf 04F8           ??i1_ringbuf_put 0071  
        ___lwdiv@dividend 002C                  ?___awdiv 0070                  ?___lwdiv 002A  
                ?___lwmod 0024                  ?_display 0070            __size_ofi1_LED 0026  
               _main_init 041D            __size_ofi1_OUT 0029                  OUT@value 0024  
        ___lwdiv@quotient 0030               ??i1___lwdiv 0074                  ?_tx_send 0070  
             __size_of_SW 0018            ___wmul@product 0078                 clear_ram0 0542  
                _PIE1bits 0091                  _PIR1bits 0011             ??_ringbuf_pop 0070  
           ??_ringbuf_num 0070             ??_ringbuf_put 0025               ??i1_tx_send 0074  
              _ADCON0bits 009D         ___wmul@multiplier 0074                ?_main_init 0070  
           ringbuf_pop@rb 0073             ringbuf_num@rb 0071             ringbuf_put@rb 0027  
        __size_of___awdiv 0053       init_ringbuf@bufsize 0025          __size_of___lwdiv 0037  
        __size_of___lwmod 002F       __end_of_ringbuf_pop 039C       __end_of_ringbuf_num 041D  
     __end_of_ringbuf_put 0370    i1ringbuf_put@asciicode 0070                i1LED@value 0070  
      i1tx_send@asciicode 0075          __size_of_display 0079           ___lwdiv@divisor 002A  
         ___lwdiv@counter 002F                  __ptext10 0470                  __ptext20 0255  
                __ptext12 0537                  __ptext21 04BE                  __ptext13 03C7  
                __ptext22 04DB                  __ptext14 0447                  __ptext15 0370  
                __ptext16 03F2                  __ptext17 017C                  __ptext18 02DF  
                __ptext19 0498            init_ringbuf@rb 0027          __size_of_tx_send 000C  
      i1___lwdiv@dividend 0072             __size_of_main 006B                  display@i 0032  
              i1OUT@value 0070        i1___lwdiv@quotient 0075               ??_main_init 0024  
              _INTCONbits 000B      ringbuf_put@asciicode 0024               pic14e$flags 007E  
                intlevel1 0000          ___lwmod@dividend 0026           i1ringbuf_put@rb 0073  
       __CFG_CLKOUTEN$OFF 0000               _ringbuf_pop 0370               _ringbuf_num 03F2  
             _ringbuf_put 0344                _OPTION_REG 0095           ___lwmod@divisor 0024  
         ___lwmod@counter 0029  
