

Microchip Technology PIC LITE Macro Assembler V1.33 build 59893 
                                                                                               Fri Jan 16 14:57:13 2015

Microchip Technology Omniscient Code Generator (Lite mode) build 59893
     1                           	processor	16F1827
     2                           	opt	pw 120
     3                           	opt	lm
     4                           	psect	idataBANK0,global,class=CODE,delta=2
     5                           	psect	stringtext,global,reloc=256,class=STRCODE,delta=2
     6                           	psect	cinit,global,class=CODE,merge=1,delta=2
     7                           	psect	bssCOMMON,global,class=COMMON,space=1,delta=1
     8                           	psect	bssBANK0,global,class=BANK0,space=1,delta=1
     9                           	psect	dataBANK0,global,class=BANK0,space=1,delta=1
    10                           	psect	bssBANK1,global,class=BANK1,space=1,delta=1
    11                           	psect	clrtext,global,class=CODE,delta=2
    12                           	psect	cstackBANK1,global,class=BANK1,space=1,delta=1
    13                           	psect	cstackCOMMON,global,class=COMMON,space=1,delta=1
    14                           	psect	cstackBANK0,global,class=BANK0,space=1,delta=1
    15                           	psect	maintext,global,class=CODE,merge=1,split=1,delta=2
    16                           	psect	text1,local,class=CODE,merge=1,delta=2
    17                           	psect	text2,local,class=CODE,merge=1,delta=2
    18                           	psect	text3,local,class=CODE,merge=1,delta=2
    19                           	psect	text4,local,class=CODE,merge=1,delta=2
    20                           	psect	text5,local,class=CODE,merge=1,delta=2
    21                           	psect	text6,local,class=CODE,merge=1,delta=2
    22                           	psect	text7,local,class=CODE,merge=1,delta=2
    23                           	psect	text8,local,class=CODE,merge=1,delta=2
    24                           	psect	text9,local,class=CODE,merge=1,delta=2
    25                           	psect	text10,local,class=CODE,merge=1,delta=2
    26                           	psect	text11,local,class=CODE,merge=1,delta=2
    27                           	psect	text12,local,class=CODE,merge=1,delta=2
    28                           	psect	text13,local,class=CODE,merge=1,delta=2
    29                           	psect	text14,local,class=CODE,merge=1,delta=2
    30                           	psect	text15,local,class=CODE,merge=1,delta=2
    31                           	psect	text16,local,class=CODE,merge=1,delta=2
    32                           	psect	text17,local,class=CODE,merge=1,delta=2
    33                           	psect	swtext1,local,class=CONST,delta=2
    34                           	psect	text18,local,class=CODE,merge=1,delta=2
    35                           	psect	text19,local,class=CODE,merge=1,delta=2
    36                           	psect	text20,local,class=CODE,merge=1,delta=2
    37                           	psect	text21,local,class=CODE,merge=1,delta=2
    38                           	psect	text22,local,class=CODE,merge=1,delta=2
    39                           	psect	text23,local,class=CODE,merge=1,delta=2
    40                           	psect	text24,local,class=CODE,merge=1,delta=2
    41                           	psect	text25,local,class=CODE,merge=1,delta=2
    42                           	psect	text26,local,class=CODE,merge=1,delta=2
    43                           	psect	intentry,global,class=CODE,delta=2
    44                           	psect	text28,local,class=CODE,merge=1,delta=2
    45                           	psect	text29,local,class=CODE,merge=1,delta=2
    46                           	psect	text30,local,class=CODE,merge=1,delta=2
    47                           	psect	text31,local,class=CODE,merge=1,delta=2
    48                           	psect	text32,local,class=CODE,merge=1,delta=2
    49                           	psect	text33,local,class=CODE,merge=1,delta=2
    50                           	dabs	1,0x7E,2
    51  0000                     	;# 
    52  0001                     	;# 
    53  0002                     	;# 
    54  0003                     	;# 
    55  0004                     	;# 
    56  0005                     	;# 
    57  0006                     	;# 
    58  0007                     	;# 
    59  0008                     	;# 
    60  0009                     	;# 
    61  000A                     	;# 
    62  000B                     	;# 
    63  000C                     	;# 
    64  000D                     	;# 
    65  0011                     	;# 
    66  0012                     	;# 
    67  0013                     	;# 
    68  0014                     	;# 
    69  0015                     	;# 
    70  0016                     	;# 
    71  0016                     	;# 
    72  0017                     	;# 
    73  0018                     	;# 
    74  0019                     	;# 
    75  001A                     	;# 
    76  001B                     	;# 
    77  001C                     	;# 
    78  001E                     	;# 
    79  001F                     	;# 
    80  008C                     	;# 
    81  008D                     	;# 
    82  0091                     	;# 
    83  0092                     	;# 
    84  0093                     	;# 
    85  0094                     	;# 
    86  0095                     	;# 
    87  0096                     	;# 
    88  0097                     	;# 
    89  0098                     	;# 
    90  0099                     	;# 
    91  009A                     	;# 
    92  009B                     	;# 
    93  009B                     	;# 
    94  009C                     	;# 
    95  009D                     	;# 
    96  009E                     	;# 
    97  010C                     	;# 
    98  010D                     	;# 
    99  0111                     	;# 
   100  0112                     	;# 
   101  0113                     	;# 
   102  0114                     	;# 
   103  0115                     	;# 
   104  0116                     	;# 
   105  0117                     	;# 
   106  0118                     	;# 
   107  0119                     	;# 
   108  011A                     	;# 
   109  011B                     	;# 
   110  011D                     	;# 
   111  011E                     	;# 
   112  018C                     	;# 
   113  018D                     	;# 
   114  0191                     	;# 
   115  0191                     	;# 
   116  0192                     	;# 
   117  0193                     	;# 
   118  0193                     	;# 
   119  0193                     	;# 
   120  0194                     	;# 
   121  0195                     	;# 
   122  0196                     	;# 
   123  0199                     	;# 
   124  019A                     	;# 
   125  019B                     	;# 
   126  019B                     	;# 
   127  019B                     	;# 
   128  019B                     	;# 
   129  019C                     	;# 
   130  019C                     	;# 
   131  019D                     	;# 
   132  019E                     	;# 
   133  019F                     	;# 
   134  020C                     	;# 
   135  020D                     	;# 
   136  0211                     	;# 
   137  0211                     	;# 
   138  0212                     	;# 
   139  0212                     	;# 
   140  0213                     	;# 
   141  0213                     	;# 
   142  0214                     	;# 
   143  0214                     	;# 
   144  0215                     	;# 
   145  0215                     	;# 
   146  0215                     	;# 
   147  0216                     	;# 
   148  0216                     	;# 
   149  0217                     	;# 
   150  0217                     	;# 
   151  0219                     	;# 
   152  021A                     	;# 
   153  021B                     	;# 
   154  021C                     	;# 
   155  021D                     	;# 
   156  021E                     	;# 
   157  021F                     	;# 
   158  0291                     	;# 
   159  0291                     	;# 
   160  0292                     	;# 
   161  0293                     	;# 
   162  0294                     	;# 
   163  0295                     	;# 
   164  0295                     	;# 
   165  0296                     	;# 
   166  0298                     	;# 
   167  0298                     	;# 
   168  0299                     	;# 
   169  029A                     	;# 
   170  029B                     	;# 
   171  029C                     	;# 
   172  029C                     	;# 
   173  029D                     	;# 
   174  029E                     	;# 
   175  029E                     	;# 
   176  0311                     	;# 
   177  0311                     	;# 
   178  0312                     	;# 
   179  0313                     	;# 
   180  0318                     	;# 
   181  0318                     	;# 
   182  0319                     	;# 
   183  031A                     	;# 
   184  0394                     	;# 
   185  0395                     	;# 
   186  0396                     	;# 
   187  039A                     	;# 
   188  039C                     	;# 
   189  039D                     	;# 
   190  039E                     	;# 
   191  039F                     	;# 
   192  0415                     	;# 
   193  0416                     	;# 
   194  0417                     	;# 
   195  041C                     	;# 
   196  041D                     	;# 
   197  041E                     	;# 
   198  0FE4                     	;# 
   199  0FE5                     	;# 
   200  0FE6                     	;# 
   201  0FE7                     	;# 
   202  0FE8                     	;# 
   203  0FE9                     	;# 
   204  0FEA                     	;# 
   205  0FEB                     	;# 
   206  0FED                     	;# 
   207  0FEE                     	;# 
   208  0FEF                     	;# 
   209                           
   210                           	psect	idataBANK0
   211  0002                     __pidataBANK0:	
   212                           
   213                           ;initializer for LCD_SetCursor@F2883
   214  0002  3400               	retlw	0
   215  0003  3440               	retlw	64
   216  000B                     _INTCONbits	set	11
   217  000C                     _PORTA	set	12
   218  000D                     _PORTB	set	13
   219  0018                     _T1CON	set	24
   220  0018                     _T1CONbits	set	24
   221  0017                     _TMR1H	set	23
   222  0016                     _TMR1L	set	22
   223  0093                     _BCL1IF	set	147
   224  0060                     _RA0	set	96
   225  0061                     _RA1	set	97
   226  008D                     _RCIF	set	141
   227  008B                     _SSP1IF	set	139
   228  0088                     _TMR1IF	set	136
   229  008C                     _TXIF	set	140
   230  009B                     _ADRES	set	155
   231  009D                     _ADCON0bits	set	157
   232  009E                     _ADCON1bits	set	158
   233  0095                     _OPTION_REG	set	149
   234  0095                     _OPTION_REGbits	set	149
   235  0099                     _OSCCON	set	153
   236  0091                     _PIE1bits	set	145
   237  008C                     _TRISA	set	140
   238  008D                     _TRISB	set	141
   239  048C                     _TXIE	set	1164
   240  011D                     _APFCON0bits	set	285
   241  011E                     _APFCON1bits	set	286
   242  0117                     _FVRCON	set	279
   243  0868                     _LATB0	set	2152
   244  018C                     _ANSELA	set	396
   245  018D                     _ANSELB	set	397
   246  0199                     _RCREG	set	409
   247  019D                     _RCSTA	set	413
   248  019C                     _SPBRGH	set	412
   249  019B                     _SPBRGL	set	411
   250  019A                     _TXREG	set	410
   251  019E                     _TXSTA	set	414
   252  0CFB                     _BRG16	set	3323
   253  0CEF                     _SPEN	set	3311
   254  0212                     _SSP1ADD	set	530
   255  0211                     _SSP1BUF	set	529
   256  0215                     _SSP1CON1	set	533
   257  0216                     _SSP1CON2	set	534
   258  0216                     _SSP1CON2bits	set	534
   259  0214                     _SSP1STAT	set	532
   260  020D                     _WPUB	set	525
   261                           
   262                           	psect	stringtext
   263  0800                     __pstringtext:	
   264  0800                     __stringdata:	
   265  0800                     STR_2:	
   266  0800  3452               	retlw	82	;'R'
   267  0801  3465               	retlw	101	;'e'
   268  0802  3461               	retlw	97	;'a'
   269  0803  346C               	retlw	108	;'l'
   270  0804  3420               	retlw	32	;' '
   271  0805  3454               	retlw	84	;'T'
   272  0806  3469               	retlw	105	;'i'
   273  0807  346D               	retlw	109	;'m'
   274  0808  3465               	retlw	101	;'e'
   275  0809  3420               	retlw	32	;' '
   276  080A  3443               	retlw	67	;'C'
   277  080B  346C               	retlw	108	;'l'
   278  080C  346F               	retlw	111	;'o'
   279  080D  3463               	retlw	99	;'c'
   280  080E  346B               	retlw	107	;'k'
   281  080F  340A               	retlw	10
   282  0810  3400               	retlw	0
   283  0811                     STR_1:	
   284  0811  3420               	retlw	32	;' '
   285  0812  3420               	retlw	32	;' '
   286  0813  3400               	retlw	0
   287  0814                     __end_of__stringdata:	
   288                           
   289                           ; #config settings
   290  0000                     
   291                           	psect	cinit
   292  0042                     start_initialization:	
   293  0042                     __initialization:	
   294                           
   295                           ; Clear objects allocated to COMMON
   296  0042  01F8               	clrf	__pbssCOMMON& (0+127)
   297  0043  01F9               	clrf	(__pbssCOMMON+1)& (0+127)
   298  0044  01FA               	clrf	(__pbssCOMMON+2)& (0+127)
   299  0045  01FB               	clrf	(__pbssCOMMON+3)& (0+127)
   300                           
   301                           ; Clear objects allocated to BANK0
   302  0046  303F               	movlw	low __pbssBANK0
   303  0047  0084               	movwf	4
   304  0048  3000               	movlw	high __pbssBANK0
   305  0049  0085               	movwf	5
   306  004A  300D               	movlw	13
   307  004B  3187  27F9  3180   	fcall	clear_ram0
   308                           
   309                           ; Clear objects allocated to BANK1
   310  004E  0021               	movlb	1	; select bank1
   311  004F  01E6               	clrf	__pbssBANK1& (0+127)
   312                           
   313                           ; Initialize objects allocated to BANK0
   314  0050  0020               	movlb	0	; select bank0
   315  0051  3180  2002  3180   	fcall	__pidataBANK0	;fetch initializer
   316  0054  00CC               	movwf	__pdataBANK0& (0+127)
   317  0055  3180  2003         	fcall	__pidataBANK0+1	;fetch initializer
   318  0057  00CD               	movwf	(__pdataBANK0+1)& (0+127)
   319  0058                     end_of_initialization:	
   320                           ;End of C runtime variable initialization code
   321                           
   322  0058                     __end_of__initialization:	
   323  0058  107E               	bcf	pic14e$flags,0	;clear compiler interrupt flag
   324  0059  0020               	movlb	0
   325  005A  3180  285C         	ljmp	_main	;jump to C main() function
   326                           
   327                           	psect	bssCOMMON
   328  0078                     __pbssCOMMON:	
   329  0078                     _cnt_t1:	
   330  0078                     	ds	1
   331  0079                     _sw_RA1:	
   332  0079                     	ds	3
   333                           
   334                           	psect	bssBANK0
   335  003F                     __pbssBANK0:	
   336  003F                     _tx_buf:	
   337  003F                     	ds	4
   338  0043                     _sw_RA0:	
   339  0043                     	ds	3
   340  0046                     _DD:	
   341  0046                     	ds	1
   342  0047                     _MM:	
   343  0047                     	ds	1
   344  0048                     _YY:	
   345  0048                     	ds	1
   346  0049                     _hh:	
   347  0049                     	ds	1
   348  004A                     _mm:	
   349  004A                     	ds	1
   350  004B                     _ss:	
   351  004B                     	ds	1
   352                           
   353                           	psect	dataBANK0
   354  004C                     __pdataBANK0:	
   355  004C                     LCD_SetCursor@F2883:	
   356  004C                     	ds	2
   357                           
   358                           	psect	bssBANK1
   359  00E6                     __pbssBANK1:	
   360  00E6                     _EE:	
   361  00E6                     	ds	1
   362                           
   363                           	psect	clrtext
   364  07F9                     clear_ram0:	
   365                           ;	Called with FSR0 containing the base address, and
   366                           ;	WREG with the size to clear
   367                           
   368  07F9  0064               	clrwdt	;clear the watchdog before getting into this loop
   369  07FA                     clrloop0:	
   370  07FA  0180               	clrf	0	;clear RAM location pointed to by FSR
   371  07FB  3101               	addfsr 0,1
   372  07FC  0B89               	decfsz	9,f	;Have we reached the end of clearing yet?
   373  07FD  2FFA               	goto	clrloop0	;have we reached the end yet?
   374  07FE  3400               	retlw	0	;all done for this memory range, return
   375                           
   376                           	psect	cstackBANK1
   377  00A0                     __pcstackBANK1:	
   378  00A0                     main@buf:	
   379                           
   380                           ; 70 bytes @ 0x0
   381  00A0                     	ds	70
   382                           
   383                           	psect	cstackCOMMON
   384  0070                     __pcstackCOMMON:	
   385  0070                     ?_display:	
   386  0070                     ?_button_timer_interrupt:	
   387                           ; 0 bytes @ 0x0
   388                           
   389  0070                     ??_ringbuf_pop:	
   390                           ; 0 bytes @ 0x0
   391                           
   392  0070                     ??_ringbuf_num:	
   393                           ; 0 bytes @ 0x0
   394                           
   395  0070                     ?_UART_init:	
   396                           ; 0 bytes @ 0x0
   397                           
   398  0070                     ?_tx_send:	
   399                           ; 0 bytes @ 0x0
   400                           
   401  0070                     ?_interrupt_TXIF:	
   402                           ; 0 bytes @ 0x0
   403                           
   404  0070                     ?_I2C_IdleCheck:	
   405                           ; 0 bytes @ 0x0
   406                           
   407  0070                     ?_I2C_init:	
   408                           ; 0 bytes @ 0x0
   409                           
   410  0070                     ?_I2C_Stop:	
   411                           ; 0 bytes @ 0x0
   412                           
   413  0070                     ?_command:	
   414                           ; 0 bytes @ 0x0
   415                           
   416  0070                     ?_LCD_Clear:	
   417                           ; 0 bytes @ 0x0
   418                           
   419  0070                     ?_LCD_Putc:	
   420                           ; 0 bytes @ 0x0
   421                           
   422  0070                     ?_LCD_init:	
   423                           ; 0 bytes @ 0x0
   424                           
   425  0070                     ?_isr:	
   426                           ; 0 bytes @ 0x0
   427                           
   428  0070                     ?_main:	
   429                           ; 0 bytes @ 0x0
   430                           
   431  0070                     ?i1_ringbuf_push:	
   432                           ; 0 bytes @ 0x0
   433                           
   434  0070                     ?i1_tx_send:	
   435                           ; 0 bytes @ 0x0
   436                           
   437  0070                     ?_ringbuf_pop:	
   438                           ; 0 bytes @ 0x0
   439                           
   440  0070                     ?_ringbuf_num:	
   441                           ; 1 bytes @ 0x0
   442                           
   443  0070                     ?_I2C_Send:	
   444                           ; 1 bytes @ 0x0
   445                           
   446  0070                     ?_I2C_Receive:	
   447                           ; 1 bytes @ 0x0
   448                           
   449  0070                     ?_RTC_Read:	
   450                           ; 1 bytes @ 0x0
   451                           
   452  0070                     button_timer_interrupt@sw_value:	
   453                           ; 1 bytes @ 0x0
   454                           
   455  0070                     i1ringbuf_push@asciicode:	
   456                           ; 1 bytes @ 0x0
   457                           
   458                           
   459                           ; 1 bytes @ 0x0
   460  0070                     	ds	1
   461  0071                     ??_button_timer_interrupt:	
   462  0071                     ??i1_ringbuf_push:	
   463                           ; 0 bytes @ 0x1
   464                           
   465  0071                     ringbuf_num@rb:	
   466                           ; 0 bytes @ 0x1
   467                           
   468                           
   469                           ; 1 bytes @ 0x1
   470  0071                     	ds	1
   471  0072                     ringbuf_pop@ret:	
   472                           
   473                           ; 1 bytes @ 0x2
   474  0072                     	ds	1
   475  0073                     button_timer_interrupt@bt:	
   476  0073                     ringbuf_pop@rb:	
   477                           ; 1 bytes @ 0x3
   478                           
   479  0073                     i1ringbuf_push@rb:	
   480                           ; 1 bytes @ 0x3
   481                           
   482                           
   483                           ; 1 bytes @ 0x3
   484  0073                     	ds	1
   485  0074                     ??_interrupt_TXIF:	
   486  0074                     ??i1_tx_send:	
   487                           ; 0 bytes @ 0x4
   488                           
   489                           
   490                           ; 0 bytes @ 0x4
   491  0074                     	ds	1
   492  0075                     i1tx_send@asciicode:	
   493                           
   494                           ; 1 bytes @ 0x5
   495  0075                     	ds	1
   496  0076                     ??_isr:	
   497                           
   498                           ; 0 bytes @ 0x6
   499  0076                     	ds	2
   500                           
   501                           	psect	cstackBANK0
   502  0020                     __pcstackBANK0:	
   503  0020                     ?_ringbuf_init:	
   504  0020                     ?_ringbuf_push:	
   505                           ; 0 bytes @ 0x0
   506                           
   507  0020                     ??_UART_init:	
   508                           ; 0 bytes @ 0x0
   509                           
   510  0020                     ??_I2C_IdleCheck:	
   511                           ; 0 bytes @ 0x0
   512                           
   513  0020                     ??_I2C_init:	
   514                           ; 0 bytes @ 0x0
   515                           
   516  0020                     ?_month_length:	
   517                           ; 0 bytes @ 0x0
   518                           
   519  0020                     ?___awdiv:	
   520                           ; 1 bytes @ 0x0
   521                           
   522  0020                     ?___awmod:	
   523                           ; 2 bytes @ 0x0
   524                           
   525  0020                     ringbuf_init@internal_buf:	
   526                           ; 2 bytes @ 0x0
   527                           
   528  0020                     ringbuf_push@asciicode:	
   529                           ; 1 bytes @ 0x0
   530                           
   531  0020                     UART_init@device:	
   532                           ; 1 bytes @ 0x0
   533                           
   534  0020                     month_length@month:	
   535                           ; 1 bytes @ 0x0
   536                           
   537  0020                     ___awdiv@divisor:	
   538                           ; 1 bytes @ 0x0
   539                           
   540  0020                     ___awmod@divisor:	
   541                           ; 2 bytes @ 0x0
   542                           
   543                           
   544                           ; 2 bytes @ 0x0
   545  0020                     	ds	1
   546  0021                     ??_ringbuf_push:	
   547  0021                     ??_month_length:	
   548                           ; 0 bytes @ 0x1
   549                           
   550  0021                     ringbuf_init@bufsize:	
   551                           ; 0 bytes @ 0x1
   552                           
   553  0021                     I2C_IdleCheck@mask:	
   554                           ; 1 bytes @ 0x1
   555                           
   556  0021                     month_length@year:	
   557                           ; 1 bytes @ 0x1
   558                           
   559                           
   560                           ; 1 bytes @ 0x1
   561  0021                     	ds	1
   562  0022                     ??_ringbuf_init:	
   563  0022                     ??_I2C_Stop:	
   564                           ; 0 bytes @ 0x2
   565                           
   566  0022                     ??_I2C_Send:	
   567                           ; 0 bytes @ 0x2
   568                           
   569  0022                     ??_I2C_Receive:	
   570                           ; 0 bytes @ 0x2
   571                           
   572  0022                     ?_I2C_Start:	
   573                           ; 0 bytes @ 0x2
   574                           
   575  0022                     ?_I2C_rStart:	
   576                           ; 1 bytes @ 0x2
   577                           
   578  0022                     I2C_Start@rw:	
   579                           ; 1 bytes @ 0x2
   580                           
   581  0022                     I2C_Send@data:	
   582                           ; 1 bytes @ 0x2
   583                           
   584  0022                     I2C_rStart@adrs:	
   585                           ; 1 bytes @ 0x2
   586                           
   587  0022                     ___awdiv@dividend:	
   588                           ; 2 bytes @ 0x2
   589                           
   590  0022                     ___awmod@dividend:	
   591                           ; 2 bytes @ 0x2
   592                           
   593                           
   594                           ; 2 bytes @ 0x2
   595  0022                     	ds	1
   596  0023                     ??_I2C_Start:	
   597  0023                     ringbuf_init@rb:	
   598                           ; 0 bytes @ 0x3
   599                           
   600  0023                     ringbuf_push@rb:	
   601                           ; 1 bytes @ 0x3
   602                           
   603  0023                     I2C_Start@adrs:	
   604                           ; 1 bytes @ 0x3
   605                           
   606  0023                     I2C_Receive@ack:	
   607                           ; 1 bytes @ 0x3
   608                           
   609                           
   610                           ; 1 bytes @ 0x3
   611  0023                     	ds	1
   612  0024                     ??_tx_send:	
   613  0024                     ?_tx_sends:	
   614                           ; 0 bytes @ 0x4
   615                           
   616  0024                     ??_command:	
   617                           ; 0 bytes @ 0x4
   618                           
   619  0024                     ??_LCD_Putc:	
   620                           ; 0 bytes @ 0x4
   621                           
   622  0024                     ?_LCD_Puts:	
   623                           ; 0 bytes @ 0x4
   624                           
   625  0024                     ?_RTC_Write:	
   626                           ; 0 bytes @ 0x4
   627                           
   628  0024                     ??___awdiv:	
   629                           ; 0 bytes @ 0x4
   630                           
   631  0024                     ??___awmod:	
   632                           ; 0 bytes @ 0x4
   633                           
   634  0024                     I2C_Receive@data:	
   635                           ; 0 bytes @ 0x4
   636                           
   637  0024                     RTC_Write@c:	
   638                           ; 1 bytes @ 0x4
   639                           
   640  0024                     tx_sends@asciicode:	
   641                           ; 1 bytes @ 0x4
   642                           
   643  0024                     I2C_rStart@rw:	
   644                           ; 2 bytes @ 0x4
   645                           
   646  0024                     LCD_Puts@s:	
   647                           ; 2 bytes @ 0x4
   648                           
   649                           
   650                           ; 2 bytes @ 0x4
   651  0024                     	ds	1
   652  0025                     ??_RTC_Write:	
   653  0025                     tx_send@asciicode:	
   654                           ; 0 bytes @ 0x5
   655                           
   656  0025                     command@c:	
   657                           ; 1 bytes @ 0x5
   658                           
   659  0025                     LCD_Putc@c:	
   660                           ; 1 bytes @ 0x5
   661                           
   662  0025                     ___awdiv@counter:	
   663                           ; 1 bytes @ 0x5
   664                           
   665  0025                     ___awmod@counter:	
   666                           ; 1 bytes @ 0x5
   667                           
   668                           
   669                           ; 1 bytes @ 0x5
   670  0025                     	ds	1
   671  0026                     ??_tx_sends:	
   672  0026                     ??_I2C_rStart:	
   673                           ; 0 bytes @ 0x6
   674                           
   675  0026                     ??_LCD_Puts:	
   676                           ; 0 bytes @ 0x6
   677                           
   678  0026                     ??_RTC_Read:	
   679                           ; 0 bytes @ 0x6
   680                           
   681  0026                     command@ans:	
   682                           ; 0 bytes @ 0x6
   683                           
   684  0026                     LCD_Putc@ans:	
   685                           ; 1 bytes @ 0x6
   686                           
   687  0026                     RTC_Write@Reg:	
   688                           ; 1 bytes @ 0x6
   689                           
   690  0026                     ___awdiv@sign:	
   691                           ; 1 bytes @ 0x6
   692                           
   693  0026                     ___awmod@sign:	
   694                           ; 1 bytes @ 0x6
   695                           
   696                           
   697                           ; 1 bytes @ 0x6
   698  0026                     	ds	1
   699  0027                     ??_LCD_Clear:	
   700  0027                     ?_LCD_SetCursor:	
   701                           ; 0 bytes @ 0x7
   702                           
   703  0027                     LCD_SetCursor@row:	
   704                           ; 0 bytes @ 0x7
   705                           
   706  0027                     RTC_Write@ans:	
   707                           ; 1 bytes @ 0x7
   708                           
   709  0027                     RTC_Read@Reg:	
   710                           ; 1 bytes @ 0x7
   711                           
   712  0027                     ___awdiv@quotient:	
   713                           ; 1 bytes @ 0x7
   714                           
   715                           
   716                           ; 2 bytes @ 0x7
   717  0027                     	ds	1
   718  0028                     ??_LCD_SetCursor:	
   719  0028                     RTC_Read@data:	
   720                           ; 0 bytes @ 0x8
   721                           
   722  0028                     LCD_SetCursor@row_offsets:	
   723                           ; 1 bytes @ 0x8
   724                           
   725  0028                     LCD_Puts@ans:	
   726                           ; 2 bytes @ 0x8
   727                           
   728                           
   729                           ; 2 bytes @ 0x8
   730  0028                     	ds	1
   731  0029                     ??_LCD_init:	
   732  0029                     ?___bmul:	
   733                           ; 0 bytes @ 0x9
   734                           
   735  0029                     tx_sends@i:	
   736                           ; 1 bytes @ 0x9
   737                           
   738  0029                     RTC_Read@ans:	
   739                           ; 1 bytes @ 0x9
   740                           
   741  0029                     ___bmul@multiplicand:	
   742                           ; 1 bytes @ 0x9
   743                           
   744                           
   745                           ; 1 bytes @ 0x9
   746  0029                     	ds	1
   747  002A                     ??___bmul:	
   748  002A                     LCD_SetCursor@col:	
   749                           ; 0 bytes @ 0xA
   750                           
   751                           
   752                           ; 1 bytes @ 0xA
   753  002A                     	ds	1
   754  002B                     ??_display:	
   755  002B                     ___bmul@product:	
   756                           ; 0 bytes @ 0xB
   757                           
   758                           
   759                           ; 1 bytes @ 0xB
   760  002B                     	ds	1
   761  002C                     ___bmul@multiplier:	
   762                           
   763                           ; 1 bytes @ 0xC
   764  002C                     	ds	1
   765  002D                     ?_timeset:	
   766  002D                     timeset@min_num:	
   767                           ; 0 bytes @ 0xD
   768                           
   769                           
   770                           ; 1 bytes @ 0xD
   771  002D                     	ds	1
   772  002E                     timeset@max_num:	
   773                           
   774                           ; 1 bytes @ 0xE
   775  002E                     	ds	1
   776  002F                     timeset@Reg:	
   777                           
   778                           ; 1 bytes @ 0xF
   779  002F                     	ds	1
   780  0030                     timeset@column:	
   781                           
   782                           ; 1 bytes @ 0x10
   783  0030                     	ds	1
   784  0031                     timeset@row:	
   785                           
   786                           ; 1 bytes @ 0x11
   787  0031                     	ds	1
   788  0032                     ??_timeset:	
   789                           
   790                           ; 0 bytes @ 0x12
   791  0032                     	ds	6
   792  0038                     timeset@t:	
   793                           
   794                           ; 1 bytes @ 0x18
   795  0038                     	ds	1
   796  0039                     timeset@t_576:	
   797                           
   798                           ; 1 bytes @ 0x19
   799  0039                     	ds	1
   800  003A                     timeset@value:	
   801                           
   802                           ; 1 bytes @ 0x1A
   803  003A                     	ds	1
   804  003B                     ??_main:	
   805                           
   806                           ; 0 bytes @ 0x1B
   807  003B                     	ds	4
   808                           
   809                           	psect	maintext
   810  005C                     __pmaintext:	
   811 ;;
   812 ;;Main: autosize = 0, tempsize = 4, incstack = 0, save=0
   813 ;;
   814 ;; *************** function _main *****************
   815 ;; Defined at:
   816 ;;		line 144 in file "PIC16F1827-I2C04.c"
   817 ;; Parameters:    Size  Location     Type
   818 ;;		None
   819 ;; Auto vars:     Size  Location     Type
   820 ;;  buf            70    0[BANK1 ] unsigned char [70]
   821 ;; Return value:  Size  Location     Type
   822 ;;		None               void
   823 ;; Registers used:
   824 ;;		wreg, fsr0l, fsr0h, fsr1l, fsr1h, status,2, status,0, pclath, cstack
   825 ;; Tracked objects:
   826 ;;		On entry : 17F/0
   827 ;;		On exit  : 0/0
   828 ;;		Unchanged: 0/0
   829 ;; Data sizes:     COMMON   BANK0   BANK1   BANK2   BANK3   BANK4
   830 ;;      Params:         0       0       0       0       0       0
   831 ;;      Locals:         0       0      70       0       0       0
   832 ;;      Temps:          0       4       0       0       0       0
   833 ;;      Totals:         0       4      70       0       0       0
   834 ;;Total ram usage:       74 bytes
   835 ;; Hardware stack levels required when called:    9
   836 ;; This function calls:
   837 ;;		_I2C_init
   838 ;;		_LCD_init
   839 ;;		_RTC_Write
   840 ;;		_UART_init
   841 ;;		_display
   842 ;;		_month_length
   843 ;;		_ringbuf_init
   844 ;;		_timeset
   845 ;;		_tx_send
   846 ;;		_tx_sends
   847 ;; This function is called by:
   848 ;;		Startup code after reset
   849 ;; This function uses a non-reentrant model
   850 ;;
   851                           
   852                           
   853                           ;psect for function _main
   854  005C                     _main:	
   855                           
   856                           ;PIC16F1827-I2C04.c: 145: OSCCON = 0b11110000;
   857                           
   858                           ;incstack = 0
   859                           ; Regs used in _main: [wreg-fsr1h+status,2+status,0+pclath+cstack]
   860  005C  30F0               	movlw	240
   861  005D  0021               	movlb	1	; select bank1
   862  005E  0099               	movwf	25	;volatile
   863                           
   864                           ;PIC16F1827-I2C04.c: 146: OPTION_REG = 0b00000000;
   865  005F  0195               	clrf	21	;volatile
   866                           
   867                           ;PIC16F1827-I2C04.c: 147: ANSELA = 0b00000000;
   868  0060  0023               	movlb	3	; select bank3
   869  0061  018C               	clrf	12	;volatile
   870                           
   871                           ;PIC16F1827-I2C04.c: 148: ANSELB = 0b00000000;
   872  0062  018D               	clrf	13	;volatile
   873                           
   874                           ;PIC16F1827-I2C04.c: 149: TRISA = 0b00000011;
   875  0063  3003               	movlw	3
   876  0064  0021               	movlb	1	; select bank1
   877  0065  008C               	movwf	12	;volatile
   878                           
   879                           ;PIC16F1827-I2C04.c: 150: TRISB = 0b00010110;
   880  0066  3016               	movlw	22
   881  0067  008D               	movwf	13	;volatile
   882                           
   883                           ;PIC16F1827-I2C04.c: 151: WPUB = 0b00010010;
   884  0068  3012               	movlw	18
   885  0069  0024               	movlb	4	; select bank4
   886  006A  008D               	movwf	13	;volatile
   887                           
   888                           ;PIC16F1827-I2C04.c: 152: PORTA = 0b00000000;
   889  006B  0020               	movlb	0	; select bank0
   890  006C  018C               	clrf	12	;volatile
   891                           
   892                           ;PIC16F1827-I2C04.c: 153: PORTB = 0b00000000;
   893  006D  018D               	clrf	13	;volatile
   894                           
   895                           ;PIC16F1827-I2C04.c: 154: APFCON0bits.RXDTSEL = 1;
   896  006E  0022               	movlb	2	; select bank2
   897  006F  179D               	bsf	29,7	;volatile
   898                           
   899                           ;PIC16F1827-I2C04.c: 155: APFCON1bits.TXCKSEL = 1;
   900  0070  141E               	bsf	30,0	;volatile
   901                           
   902                           ;PIC16F1827-I2C04.c: 157: T1CON = 0x21;
   903  0071  3021               	movlw	33
   904  0072  0020               	movlb	0	; select bank0
   905  0073  0098               	movwf	24	;volatile
   906                           
   907                           ;PIC16F1827-I2C04.c: 158: TMR1H = 0x00;
   908  0074  0197               	clrf	23	;volatile
   909                           
   910                           ;PIC16F1827-I2C04.c: 159: TMR1L = 0x00;
   911  0075  0196               	clrf	22	;volatile
   912                           
   913                           ;PIC16F1827-I2C04.c: 160: PIE1bits.TMR1IE = 1;
   914  0076  0021               	movlb	1	; select bank1
   915  0077  1411               	bsf	17,0	;volatile
   916                           
   917                           ;PIC16F1827-I2C04.c: 162: I2C_init();
   918  0078  318F  276D  3180   	fcall	_I2C_init
   919                           
   920                           ;PIC16F1827-I2C04.c: 163: LCD_init();
   921  007B  3185  256B  3180   	fcall	_LCD_init
   922                           
   923                           ;PIC16F1827-I2C04.c: 164: UART_init(0);
   924  007E  3000               	movlw	0
   925  007F  318F  27B3  3180   	fcall	_UART_init
   926                           
   927                           ;PIC16F1827-I2C04.c: 166: INTCONbits.PEIE = 1;
   928  0082  170B               	bsf	11,6	;volatile
   929                           
   930                           ;PIC16F1827-I2C04.c: 167: INTCONbits.GIE = 1;
   931  0083  178B               	bsf	11,7	;volatile
   932                           
   933                           ;PIC16F1827-I2C04.c: 169: uint8_t buf[70];
   934                           ;PIC16F1827-I2C04.c: 170: ringbuf_init(&tx_buf, buf, sizeof (buf));
   935  0084  30A0               	movlw	main@buf& (0+255)
   936  0085  0020               	movlb	0	; select bank0
   937  0086  00BB               	movwf	??_main
   938  0087  083B               	movf	??_main,w
   939  0088  00A0               	movwf	ringbuf_init@internal_buf
   940  0089  3046               	movlw	70
   941  008A  00BC               	movwf	??_main+1
   942  008B  083C               	movf	??_main+1,w
   943  008C  00A1               	movwf	ringbuf_init@bufsize
   944  008D  303F               	movlw	_tx_buf& (0+255)
   945  008E  3187  2792  3180   	fcall	_ringbuf_init
   946                           
   947                           ;PIC16F1827-I2C04.c: 172: RTC_Write(0x07, 0x00);
   948  0091  0020               	movlb	0	; select bank0
   949  0092  01A4               	clrf	RTC_Write@c
   950  0093  3007               	movlw	7
   951  0094  3187  2735  3180   	fcall	_RTC_Write
   952  0097                     l1973:	
   953                           ;PIC16F1827-I2C04.c: 174: while (1) {
   954                           
   955                           
   956                           ;PIC16F1827-I2C04.c: 175: display();
   957  0097  3183  2319  3180   	fcall	_display
   958                           
   959                           ;PIC16F1827-I2C04.c: 176: if (sw_RA1.flag.press) {
   960  009A  1C7B               	btfss	_sw_RA1+2,0
   961  009B  294C               	goto	l1981
   962                           
   963                           ;PIC16F1827-I2C04.c: 177: sw_RA1.flag.press=0;
   964  009C  107B               	bcf	_sw_RA1+2,0
   965                           
   966                           ;PIC16F1827-I2C04.c: 178: tx_send('2');
   967  009D  3032               	movlw	50
   968  009E  318F  2778  3180   	fcall	_tx_send
   969                           
   970                           ;PIC16F1827-I2C04.c: 179: tx_send('0');
   971  00A1  3030               	movlw	48
   972  00A2  318F  2778  3180   	fcall	_tx_send
   973                           
   974                           ;PIC16F1827-I2C04.c: 180: tx_send(((YY & 0xF0) >> 4) + '0');
   975  00A5  0020               	movlb	0	; select bank0
   976  00A6  0848               	movf	_YY,w
   977  00A7  00BB               	movwf	??_main
   978  00A8  3004               	movlw	4
   979  00A9                     u1485:	
   980  00A9  36BB               	lsrf	??_main,f
   981  00AA  0B89               	decfsz	9,f
   982  00AB  28A9               	goto	u1485
   983  00AC  083B               	movf	??_main,w
   984  00AD  390F               	andlw	15
   985  00AE  3E30               	addlw	48
   986  00AF  318F  2778  3180   	fcall	_tx_send
   987                           
   988                           ;PIC16F1827-I2C04.c: 181: tx_send((YY & 0x0F) + '0');
   989  00B2  0020               	movlb	0	; select bank0
   990  00B3  0848               	movf	_YY,w
   991  00B4  390F               	andlw	15
   992  00B5  3E30               	addlw	48
   993  00B6  318F  2778  3180   	fcall	_tx_send
   994                           
   995                           ;PIC16F1827-I2C04.c: 182: tx_send('/');
   996  00B9  302F               	movlw	47
   997  00BA  318F  2778  3180   	fcall	_tx_send
   998                           
   999                           ;PIC16F1827-I2C04.c: 183: tx_send(((MM & 0xF0) >> 4) + '0');
  1000  00BD  0020               	movlb	0	; select bank0
  1001  00BE  0847               	movf	_MM,w
  1002  00BF  00BB               	movwf	??_main
  1003  00C0  3004               	movlw	4
  1004  00C1                     u1495:	
  1005  00C1  36BB               	lsrf	??_main,f
  1006  00C2  0B89               	decfsz	9,f
  1007  00C3  28C1               	goto	u1495
  1008  00C4  083B               	movf	??_main,w
  1009  00C5  390F               	andlw	15
  1010  00C6  3E30               	addlw	48
  1011  00C7  318F  2778  3180   	fcall	_tx_send
  1012                           
  1013                           ;PIC16F1827-I2C04.c: 184: tx_send((MM & 0x0F) + '0');
  1014  00CA  0020               	movlb	0	; select bank0
  1015  00CB  0847               	movf	_MM,w
  1016  00CC  390F               	andlw	15
  1017  00CD  3E30               	addlw	48
  1018  00CE  318F  2778  3180   	fcall	_tx_send
  1019                           
  1020                           ;PIC16F1827-I2C04.c: 185: tx_send('/');
  1021  00D1  302F               	movlw	47
  1022  00D2  318F  2778  3180   	fcall	_tx_send
  1023                           
  1024                           ;PIC16F1827-I2C04.c: 186: tx_send(((DD & 0xF0) >> 4) + '0');
  1025  00D5  0020               	movlb	0	; select bank0
  1026  00D6  0846               	movf	_DD,w
  1027  00D7  00BB               	movwf	??_main
  1028  00D8  3004               	movlw	4
  1029  00D9                     u1505:	
  1030  00D9  36BB               	lsrf	??_main,f
  1031  00DA  0B89               	decfsz	9,f
  1032  00DB  28D9               	goto	u1505
  1033  00DC  083B               	movf	??_main,w
  1034  00DD  390F               	andlw	15
  1035  00DE  3E30               	addlw	48
  1036  00DF  318F  2778  3180   	fcall	_tx_send
  1037                           
  1038                           ;PIC16F1827-I2C04.c: 187: tx_send((DD & 0x0F) + '0');
  1039  00E2  0020               	movlb	0	; select bank0
  1040  00E3  0846               	movf	_DD,w
  1041  00E4  390F               	andlw	15
  1042  00E5  3E30               	addlw	48
  1043  00E6  318F  2778  3180   	fcall	_tx_send
  1044                           
  1045                           ;PIC16F1827-I2C04.c: 188: tx_send('(');
  1046  00E9  3028               	movlw	40
  1047  00EA  318F  2778  3180   	fcall	_tx_send
  1048                           
  1049                           ;PIC16F1827-I2C04.c: 189: tx_send((EE & 0x0F) + '0');
  1050  00ED  0021               	movlb	1	; select bank1
  1051  00EE  0866               	movf	_EE^(0+128),w
  1052  00EF  390F               	andlw	15
  1053  00F0  3E30               	addlw	48
  1054  00F1  318F  2778  3180   	fcall	_tx_send
  1055                           
  1056                           ;PIC16F1827-I2C04.c: 190: tx_send(')');
  1057  00F4  3029               	movlw	41
  1058  00F5  318F  2778  3180   	fcall	_tx_send
  1059                           
  1060                           ;PIC16F1827-I2C04.c: 191: tx_send(((hh & 0xF0) >> 4) + '0');
  1061  00F8  0020               	movlb	0	; select bank0
  1062  00F9  0849               	movf	_hh,w
  1063  00FA  00BB               	movwf	??_main
  1064  00FB  3004               	movlw	4
  1065  00FC                     u1515:	
  1066  00FC  36BB               	lsrf	??_main,f
  1067  00FD  0B89               	decfsz	9,f
  1068  00FE  28FC               	goto	u1515
  1069  00FF  083B               	movf	??_main,w
  1070  0100  390F               	andlw	15
  1071  0101  3E30               	addlw	48
  1072  0102  318F  2778  3180   	fcall	_tx_send
  1073                           
  1074                           ;PIC16F1827-I2C04.c: 192: tx_send((hh & 0x0F) + '0');
  1075  0105  0020               	movlb	0	; select bank0
  1076  0106  0849               	movf	_hh,w
  1077  0107  390F               	andlw	15
  1078  0108  3E30               	addlw	48
  1079  0109  318F  2778  3180   	fcall	_tx_send
  1080                           
  1081                           ;PIC16F1827-I2C04.c: 193: tx_send(':');
  1082  010C  303A               	movlw	58
  1083  010D  318F  2778  3180   	fcall	_tx_send
  1084                           
  1085                           ;PIC16F1827-I2C04.c: 194: tx_send(((mm & 0xF0) >> 4) + '0');
  1086  0110  0020               	movlb	0	; select bank0
  1087  0111  084A               	movf	_mm,w
  1088  0112  00BB               	movwf	??_main
  1089  0113  3004               	movlw	4
  1090  0114                     u1525:	
  1091  0114  36BB               	lsrf	??_main,f
  1092  0115  0B89               	decfsz	9,f
  1093  0116  2914               	goto	u1525
  1094  0117  083B               	movf	??_main,w
  1095  0118  390F               	andlw	15
  1096  0119  3E30               	addlw	48
  1097  011A  318F  2778  3180   	fcall	_tx_send
  1098                           
  1099                           ;PIC16F1827-I2C04.c: 195: tx_send((mm & 0x0F) + '0');
  1100  011D  0020               	movlb	0	; select bank0
  1101  011E  084A               	movf	_mm,w
  1102  011F  390F               	andlw	15
  1103  0120  3E30               	addlw	48
  1104  0121  318F  2778  3180   	fcall	_tx_send
  1105                           
  1106                           ;PIC16F1827-I2C04.c: 196: tx_send('-');
  1107  0124  302D               	movlw	45
  1108  0125  318F  2778  3180   	fcall	_tx_send
  1109                           
  1110                           ;PIC16F1827-I2C04.c: 197: tx_send(((ss & 0xF0) >> 4) + '0');
  1111  0128  0020               	movlb	0	; select bank0
  1112  0129  084B               	movf	_ss,w
  1113  012A  00BB               	movwf	??_main
  1114  012B  3004               	movlw	4
  1115  012C                     u1535:	
  1116  012C  36BB               	lsrf	??_main,f
  1117  012D  0B89               	decfsz	9,f
  1118  012E  292C               	goto	u1535
  1119  012F  083B               	movf	??_main,w
  1120  0130  390F               	andlw	15
  1121  0131  3E30               	addlw	48
  1122  0132  318F  2778  3180   	fcall	_tx_send
  1123                           
  1124                           ;PIC16F1827-I2C04.c: 198: tx_send((ss & 0x0F) + '0');
  1125  0135  0020               	movlb	0	; select bank0
  1126  0136  084B               	movf	_ss,w
  1127  0137  390F               	andlw	15
  1128  0138  3E30               	addlw	48
  1129  0139  318F  2778  3180   	fcall	_tx_send
  1130                           
  1131                           ;PIC16F1827-I2C04.c: 199: tx_send('.');
  1132  013C  302E               	movlw	46
  1133  013D  318F  2778  3180   	fcall	_tx_send
  1134                           
  1135                           ;PIC16F1827-I2C04.c: 200: tx_send('\n');
  1136  0140  300A               	movlw	10
  1137  0141  318F  2778  3180   	fcall	_tx_send
  1138                           
  1139                           ;PIC16F1827-I2C04.c: 201: tx_sends("Real Time Clock\n");
  1140  0144  3000               	movlw	low (STR_2| (0+32768))
  1141  0145  0020               	movlb	0	; select bank0
  1142  0146  00A4               	movwf	tx_sends@asciicode
  1143  0147  3088               	movlw	high (STR_2| (0+32768))
  1144  0148  00A5               	movwf	tx_sends@asciicode+1
  1145  0149  3186  261A  3180   	fcall	_tx_sends
  1146  014C                     l1981:	
  1147                           
  1148                           ;PIC16F1827-I2C04.c: 202: }
  1149                           ;PIC16F1827-I2C04.c: 203: if (sw_RA0.flag.long_holding_1) {
  1150  014C  0020               	movlb	0	; select bank0
  1151  014D  1EC5               	btfss	_sw_RA0+2,5
  1152  014E  2897               	goto	l1973
  1153                           
  1154                           ;PIC16F1827-I2C04.c: 204: sw_RA0.flag.long_holding_1 = 0;
  1155  014F  12C5               	bcf	_sw_RA0+2,5
  1156                           
  1157                           ;PIC16F1827-I2C04.c: 205: timeset(&YY, 0, 99, 0x06, 0, 0);
  1158  0150  01AD               	clrf	timeset@min_num
  1159  0151  3063               	movlw	99
  1160  0152  00BB               	movwf	??_main
  1161  0153  083B               	movf	??_main,w
  1162  0154  00AE               	movwf	timeset@max_num
  1163  0155  3006               	movlw	6
  1164  0156  00BC               	movwf	??_main+1
  1165  0157  083C               	movf	??_main+1,w
  1166  0158  00AF               	movwf	timeset@Reg
  1167  0159  01B0               	clrf	timeset@column
  1168  015A  01B1               	clrf	timeset@row
  1169  015B  3048               	movlw	_YY& (0+255)
  1170  015C  3181  21C4  3180   	fcall	_timeset
  1171                           
  1172                           ;PIC16F1827-I2C04.c: 206: timeset(&MM, 1, 12, 0x05, 3, 0);
  1173  015F  0020               	movlb	0	; select bank0
  1174  0160  01AD               	clrf	timeset@min_num
  1175  0161  0AAD               	incf	timeset@min_num,f
  1176  0162  300C               	movlw	12
  1177  0163  00BB               	movwf	??_main
  1178  0164  083B               	movf	??_main,w
  1179  0165  00AE               	movwf	timeset@max_num
  1180  0166  3005               	movlw	5
  1181  0167  00BC               	movwf	??_main+1
  1182  0168  083C               	movf	??_main+1,w
  1183  0169  00AF               	movwf	timeset@Reg
  1184  016A  3003               	movlw	3
  1185  016B  00BD               	movwf	??_main+2
  1186  016C  083D               	movf	??_main+2,w
  1187  016D  00B0               	movwf	timeset@column
  1188  016E  01B1               	clrf	timeset@row
  1189  016F  3047               	movlw	_MM& (0+255)
  1190  0170  3181  21C4  3180   	fcall	_timeset
  1191                           
  1192                           ;PIC16F1827-I2C04.c: 207: timeset(&DD, 1, month_length(YY, MM), 0x04, 6, 0);
  1193  0173  0020               	movlb	0	; select bank0
  1194  0174  01AD               	clrf	timeset@min_num
  1195  0175  0AAD               	incf	timeset@min_num,f
  1196  0176  0847               	movf	_MM,w
  1197  0177  00BB               	movwf	??_main
  1198  0178  083B               	movf	??_main,w
  1199  0179  00A0               	movwf	month_length@month
  1200  017A  0848               	movf	_YY,w
  1201  017B  3187  2775  3180   	fcall	_month_length
  1202  017E  0020               	movlb	0	; select bank0
  1203  017F  00BC               	movwf	??_main+1
  1204  0180  083C               	movf	??_main+1,w
  1205  0181  00AE               	movwf	timeset@max_num
  1206  0182  3004               	movlw	4
  1207  0183  00BD               	movwf	??_main+2
  1208  0184  083D               	movf	??_main+2,w
  1209  0185  00AF               	movwf	timeset@Reg
  1210  0186  3006               	movlw	6
  1211  0187  00BE               	movwf	??_main+3
  1212  0188  083E               	movf	??_main+3,w
  1213  0189  00B0               	movwf	timeset@column
  1214  018A  01B1               	clrf	timeset@row
  1215  018B  3046               	movlw	_DD& (0+255)
  1216  018C  3181  21C4  3180   	fcall	_timeset
  1217                           
  1218                           ;PIC16F1827-I2C04.c: 208: timeset(&hh, 0, 23, 0x02, 0, 1);
  1219  018F  0020               	movlb	0	; select bank0
  1220  0190  01AD               	clrf	timeset@min_num
  1221  0191  3017               	movlw	23
  1222  0192  00BB               	movwf	??_main
  1223  0193  083B               	movf	??_main,w
  1224  0194  00AE               	movwf	timeset@max_num
  1225  0195  3002               	movlw	2
  1226  0196  00BC               	movwf	??_main+1
  1227  0197  083C               	movf	??_main+1,w
  1228  0198  00AF               	movwf	timeset@Reg
  1229  0199  01B0               	clrf	timeset@column
  1230  019A  01B1               	clrf	timeset@row
  1231  019B  0AB1               	incf	timeset@row,f
  1232  019C  3049               	movlw	_hh& (0+255)
  1233  019D  3181  21C4  3180   	fcall	_timeset
  1234                           
  1235                           ;PIC16F1827-I2C04.c: 209: timeset(&mm, 0, 59, 0x01, 3, 1);
  1236  01A0  0020               	movlb	0	; select bank0
  1237  01A1  01AD               	clrf	timeset@min_num
  1238  01A2  303B               	movlw	59
  1239  01A3  00BB               	movwf	??_main
  1240  01A4  083B               	movf	??_main,w
  1241  01A5  00AE               	movwf	timeset@max_num
  1242  01A6  01AF               	clrf	timeset@Reg
  1243  01A7  0AAF               	incf	timeset@Reg,f
  1244  01A8  3003               	movlw	3
  1245  01A9  00BC               	movwf	??_main+1
  1246  01AA  083C               	movf	??_main+1,w
  1247  01AB  00B0               	movwf	timeset@column
  1248  01AC  01B1               	clrf	timeset@row
  1249  01AD  0AB1               	incf	timeset@row,f
  1250  01AE  304A               	movlw	_mm& (0+255)
  1251  01AF  3181  21C4  3180   	fcall	_timeset
  1252                           
  1253                           ;PIC16F1827-I2C04.c: 210: timeset(&ss, 0, 59, 0x00, 6, 1);
  1254  01B2  0020               	movlb	0	; select bank0
  1255  01B3  01AD               	clrf	timeset@min_num
  1256  01B4  303B               	movlw	59
  1257  01B5  00BB               	movwf	??_main
  1258  01B6  083B               	movf	??_main,w
  1259  01B7  00AE               	movwf	timeset@max_num
  1260  01B8  01AF               	clrf	timeset@Reg
  1261  01B9  3006               	movlw	6
  1262  01BA  00BC               	movwf	??_main+1
  1263  01BB  083C               	movf	??_main+1,w
  1264  01BC  00B0               	movwf	timeset@column
  1265  01BD  01B1               	clrf	timeset@row
  1266  01BE  0AB1               	incf	timeset@row,f
  1267  01BF  304B               	movlw	_ss& (0+255)
  1268  01C0  3181  21C4  3180   	fcall	_timeset
  1269  01C3  2897               	goto	l1973
  1270  01C4                     __end_of_main:	
  1271                           
  1272                           	psect	text1
  1273  061A                     __ptext1:	
  1274 ;; *************** function _tx_sends *****************
  1275 ;; Defined at:
  1276 ;;		line 161 in file "C:\Program Files (x86)\Microchip\xc8\v1.33\include\My_header.h"
  1277 ;; Parameters:    Size  Location     Type
  1278 ;;  asciicode       2    4[BANK0 ] PTR unsigned char 
  1279 ;;		 -> STR_2(17), 
  1280 ;; Auto vars:     Size  Location     Type
  1281 ;;  i               1    9[BANK0 ] unsigned char 
  1282 ;; Return value:  Size  Location     Type
  1283 ;;		None               void
  1284 ;; Registers used:
  1285 ;;		wreg, fsr0l, fsr0h, fsr1l, fsr1h, status,2, status,0, pclath, cstack
  1286 ;; Tracked objects:
  1287 ;;		On entry : 0/0
  1288 ;;		On exit  : 0/0
  1289 ;;		Unchanged: 0/0
  1290 ;; Data sizes:     COMMON   BANK0   BANK1   BANK2   BANK3   BANK4
  1291 ;;      Params:         0       2       0       0       0       0
  1292 ;;      Locals:         0       1       0       0       0       0
  1293 ;;      Temps:          0       3       0       0       0       0
  1294 ;;      Totals:         0       6       0       0       0       0
  1295 ;;Total ram usage:        6 bytes
  1296 ;; Hardware stack levels used:    1
  1297 ;; Hardware stack levels required when called:    4
  1298 ;; This function calls:
  1299 ;;		_ringbuf_push
  1300 ;; This function is called by:
  1301 ;;		_main
  1302 ;; This function uses a non-reentrant model
  1303 ;;
  1304                           
  1305                           
  1306                           ;psect for function _tx_sends
  1307  061A                     _tx_sends:	
  1308                           
  1309                           ;My_header.h: 162: uint8_t i;
  1310                           ;My_header.h: 163: for (i = 0; asciicode[i]; i++) {
  1311                           
  1312                           ;incstack = 0
  1313                           ; Regs used in _tx_sends: [wreg-fsr1h+status,2+status,0+pclath+cstack]
  1314  061A  0020               	movlb	0	; select bank0
  1315  061B  01A9               	clrf	tx_sends@i
  1316  061C                     l1763:	
  1317  061C  0825               	movf	tx_sends@asciicode+1,w
  1318  061D  00A7               	movwf	??_tx_sends+1
  1319  061E  0824               	movf	tx_sends@asciicode,w
  1320  061F  00A6               	movwf	??_tx_sends
  1321  0620  0829               	movf	tx_sends@i,w
  1322  0621  0726               	addwf	??_tx_sends,w
  1323  0622  0084               	movwf	4
  1324  0623  0827               	movf	??_tx_sends+1,w
  1325  0624  1803               	skipnc
  1326  0625  0A27               	incf	??_tx_sends+1,w
  1327  0626  0085               	movwf	5
  1328  0627  0800               	movf	0,w	;code access
  1329  0628  3800               	iorlw	0
  1330  0629  1903               	btfsc	3,2
  1331  062A  2E44               	goto	l159
  1332                           
  1333                           ;My_header.h: 164: ringbuf_push(&tx_buf, asciicode[i]);
  1334  062B  0825               	movf	tx_sends@asciicode+1,w
  1335  062C  00A7               	movwf	??_tx_sends+1
  1336  062D  0824               	movf	tx_sends@asciicode,w
  1337  062E  00A6               	movwf	??_tx_sends
  1338  062F  0829               	movf	tx_sends@i,w
  1339  0630  0726               	addwf	??_tx_sends,w
  1340  0631  0084               	movwf	4
  1341  0632  0827               	movf	??_tx_sends+1,w
  1342  0633  1803               	skipnc
  1343  0634  0A27               	incf	??_tx_sends+1,w
  1344  0635  0085               	movwf	5
  1345  0636  0800               	movf	0,w	;code access
  1346  0637  00A8               	movwf	??_tx_sends+2
  1347  0638  0828               	movf	??_tx_sends+2,w
  1348  0639  00A0               	movwf	ringbuf_push@asciicode
  1349  063A  303F               	movlw	_tx_buf& (0+255)
  1350  063B  3186  2647  3186   	fcall	_ringbuf_push
  1351  063E  3001               	movlw	1
  1352  063F  0020               	movlb	0	; select bank0
  1353  0640  00A6               	movwf	??_tx_sends
  1354  0641  0826               	movf	??_tx_sends,w
  1355  0642  07A9               	addwf	tx_sends@i,f
  1356  0643  2E1C               	goto	l1763
  1357  0644                     l159:	
  1358                           
  1359                           ;My_header.h: 165: }
  1360                           ;My_header.h: 166: PIE1bits.TXIE = 1;
  1361  0644  0021               	movlb	1	; select bank1
  1362  0645  1611               	bsf	17,4	;volatile
  1363  0646  0008               	return
  1364  0647                     __end_of_tx_sends:	
  1365                           
  1366                           	psect	text2
  1367  0F78                     __ptext2:	
  1368 ;; *************** function _tx_send *****************
  1369 ;; Defined at:
  1370 ;;		line 156 in file "C:\Program Files (x86)\Microchip\xc8\v1.33\include\My_header.h"
  1371 ;; Parameters:    Size  Location     Type
  1372 ;;  asciicode       1    wreg     unsigned char 
  1373 ;; Auto vars:     Size  Location     Type
  1374 ;;  asciicode       1    5[BANK0 ] unsigned char 
  1375 ;; Return value:  Size  Location     Type
  1376 ;;		None               void
  1377 ;; Registers used:
  1378 ;;		wreg, fsr0l, fsr0h, fsr1l, fsr1h, status,2, status,0, pclath, cstack
  1379 ;; Tracked objects:
  1380 ;;		On entry : 0/0
  1381 ;;		On exit  : 0/0
  1382 ;;		Unchanged: 0/0
  1383 ;; Data sizes:     COMMON   BANK0   BANK1   BANK2   BANK3   BANK4
  1384 ;;      Params:         0       0       0       0       0       0
  1385 ;;      Locals:         0       1       0       0       0       0
  1386 ;;      Temps:          0       1       0       0       0       0
  1387 ;;      Totals:         0       2       0       0       0       0
  1388 ;;Total ram usage:        2 bytes
  1389 ;; Hardware stack levels used:    1
  1390 ;; Hardware stack levels required when called:    4
  1391 ;; This function calls:
  1392 ;;		_ringbuf_push
  1393 ;; This function is called by:
  1394 ;;		_main
  1395 ;; This function uses a non-reentrant model
  1396 ;;
  1397                           
  1398                           
  1399                           ;psect for function _tx_send
  1400  0F78                     _tx_send:	
  1401                           
  1402                           ;incstack = 0
  1403                           ; Regs used in _tx_send: [wreg-fsr1h+status,2+status,0+pclath+cstack]
  1404                           ;tx_send@asciicode stored from wreg
  1405  0F78  0020               	movlb	0	; select bank0
  1406  0F79  00A5               	movwf	tx_send@asciicode
  1407                           
  1408                           ;My_header.h: 157: ringbuf_push(&tx_buf, asciicode);
  1409  0F7A  0825               	movf	tx_send@asciicode,w
  1410  0F7B  00A4               	movwf	??_tx_send
  1411  0F7C  0824               	movf	??_tx_send,w
  1412  0F7D  00A0               	movwf	ringbuf_push@asciicode
  1413  0F7E  303F               	movlw	_tx_buf& (0+255)
  1414  0F7F  3186  2647         	fcall	_ringbuf_push
  1415                           
  1416                           ;My_header.h: 158: PIE1bits.TXIE = 1;
  1417  0F81  0021               	movlb	1	; select bank1
  1418  0F82  1611               	bsf	17,4	;volatile
  1419  0F83  0008               	return
  1420  0F84                     __end_of_tx_send:	
  1421                           
  1422                           	psect	text3
  1423  0647                     __ptext3:	
  1424 ;; *************** function _ringbuf_push *****************
  1425 ;; Defined at:
  1426 ;;		line 116 in file "C:\Program Files (x86)\Microchip\xc8\v1.33\include\My_header.h"
  1427 ;; Parameters:    Size  Location     Type
  1428 ;;  rb              1    wreg     PTR struct ringbuf
  1429 ;;		 -> tx_buf(4), 
  1430 ;;  asciicode       1    0[BANK0 ] unsigned char 
  1431 ;; Auto vars:     Size  Location     Type
  1432 ;;  rb              1    3[BANK0 ] PTR struct ringbuf
  1433 ;;		 -> tx_buf(4), 
  1434 ;; Return value:  Size  Location     Type
  1435 ;;		None               void
  1436 ;; Registers used:
  1437 ;;		wreg, fsr0l, fsr0h, fsr1l, fsr1h, status,2, status,0
  1438 ;; Tracked objects:
  1439 ;;		On entry : 0/0
  1440 ;;		On exit  : 0/0
  1441 ;;		Unchanged: 0/0
  1442 ;; Data sizes:     COMMON   BANK0   BANK1   BANK2   BANK3   BANK4
  1443 ;;      Params:         0       1       0       0       0       0
  1444 ;;      Locals:         0       1       0       0       0       0
  1445 ;;      Temps:          0       2       0       0       0       0
  1446 ;;      Totals:         0       4       0       0       0       0
  1447 ;;Total ram usage:        4 bytes
  1448 ;; Hardware stack levels used:    1
  1449 ;; Hardware stack levels required when called:    3
  1450 ;; This function calls:
  1451 ;;		Nothing
  1452 ;; This function is called by:
  1453 ;;		_tx_send
  1454 ;;		_tx_sends
  1455 ;; This function uses a non-reentrant model
  1456 ;;
  1457                           
  1458                           
  1459                           ;psect for function _ringbuf_push
  1460  0647                     _ringbuf_push:	
  1461                           
  1462                           ;incstack = 0
  1463                           ; Regs used in _ringbuf_push: [wreg-fsr1h+status,2+status,0]
  1464                           ;ringbuf_push@rb stored from wreg
  1465  0647  0020               	movlb	0	; select bank0
  1466  0648  00A3               	movwf	ringbuf_push@rb
  1467                           
  1468                           ;My_header.h: 117: rb->buf[rb->head] = asciicode;
  1469  0649  0820               	movf	ringbuf_push@asciicode,w
  1470  064A  00A1               	movwf	??_ringbuf_push
  1471  064B  0823               	movf	ringbuf_push@rb,w
  1472  064C  0086               	movwf	6
  1473  064D  0187               	clrf	7
  1474  064E  0823               	movf	ringbuf_push@rb,w
  1475  064F  3E02               	addlw	2
  1476  0650  0084               	movwf	4
  1477  0651  0185               	clrf	5
  1478  0652  0800               	movf	0,w
  1479  0653  0701               	addwf	1,w
  1480  0654  00A2               	movwf	??_ringbuf_push+1
  1481  0655  0822               	movf	??_ringbuf_push+1,w
  1482  0656  0086               	movwf	6
  1483  0657  0187               	clrf	7
  1484  0658  0821               	movf	??_ringbuf_push,w
  1485  0659  0081               	movwf	1
  1486                           
  1487                           ;My_header.h: 118: rb->head++;
  1488  065A  3001               	movlw	1
  1489  065B  00A1               	movwf	??_ringbuf_push
  1490  065C  0823               	movf	ringbuf_push@rb,w
  1491  065D  3E02               	addlw	2
  1492  065E  0086               	movwf	6
  1493  065F  0187               	clrf	7
  1494  0660  0821               	movf	??_ringbuf_push,w
  1495  0661  0781               	addwf	1,f
  1496                           
  1497                           ;My_header.h: 119: if (rb->head >= rb->size) {
  1498  0662  0823               	movf	ringbuf_push@rb,w
  1499  0663  3E02               	addlw	2
  1500  0664  0086               	movwf	6
  1501  0665  0187               	clrf	7
  1502  0666  0A23               	incf	ringbuf_push@rb,w
  1503  0667  0084               	movwf	4
  1504  0668  0185               	clrf	5
  1505  0669  0800               	movf	0,w
  1506  066A  0201               	subwf	1,w
  1507  066B  1C03               	skipc
  1508  066C  0008               	return
  1509                           
  1510                           ;My_header.h: 120: rb->head = 0;
  1511  066D  0823               	movf	ringbuf_push@rb,w
  1512  066E  3E02               	addlw	2
  1513  066F  0086               	movwf	6
  1514  0670  0187               	clrf	7
  1515  0671  0181               	clrf	1
  1516  0672  0008               	return
  1517  0673                     __end_of_ringbuf_push:	
  1518                           
  1519                           	psect	text4
  1520  01C4                     __ptext4:	
  1521 ;; *************** function _timeset *****************
  1522 ;; Defined at:
  1523 ;;		line 76 in file "PIC16F1827-I2C04.c"
  1524 ;; Parameters:    Size  Location     Type
  1525 ;;  value           1    wreg     PTR unsigned char 
  1526 ;;		 -> YY(1), MM(1), DD(1), hh(1), 
  1527 ;;		 -> mm(1), ss(1), 
  1528 ;;  min_num         1   13[BANK0 ] unsigned char 
  1529 ;;  max_num         1   14[BANK0 ] unsigned char 
  1530 ;;  Reg             1   15[BANK0 ] unsigned char 
  1531 ;;  column          1   16[BANK0 ] unsigned char 
  1532 ;;  row             1   17[BANK0 ] unsigned char 
  1533 ;; Auto vars:     Size  Location     Type
  1534 ;;  value           1   26[BANK0 ] PTR unsigned char 
  1535 ;;		 -> YY(1), MM(1), DD(1), hh(1), 
  1536 ;;		 -> mm(1), ss(1), 
  1537 ;;  t               1   25[BANK0 ] unsigned char 
  1538 ;;  t               1   24[BANK0 ] unsigned char 
  1539 ;; Return value:  Size  Location     Type
  1540 ;;		None               void
  1541 ;; Registers used:
  1542 ;;		wreg, fsr0l, fsr0h, fsr1l, fsr1h, status,2, status,0, pclath, cstack
  1543 ;; Tracked objects:
  1544 ;;		On entry : 0/0
  1545 ;;		On exit  : 0/0
  1546 ;;		Unchanged: 0/0
  1547 ;; Data sizes:     COMMON   BANK0   BANK1   BANK2   BANK3   BANK4
  1548 ;;      Params:         0       5       0       0       0       0
  1549 ;;      Locals:         0       3       0       0       0       0
  1550 ;;      Temps:          0       6       0       0       0       0
  1551 ;;      Totals:         0      14       0       0       0       0
  1552 ;;Total ram usage:       14 bytes
  1553 ;; Hardware stack levels used:    1
  1554 ;; Hardware stack levels required when called:    8
  1555 ;; This function calls:
  1556 ;;		_LCD_Putc
  1557 ;;		_LCD_Puts
  1558 ;;		_LCD_SetCursor
  1559 ;;		_RTC_Read
  1560 ;;		_RTC_Write
  1561 ;;		___awdiv
  1562 ;;		___awmod
  1563 ;;		___bmul
  1564 ;;		_display
  1565 ;; This function is called by:
  1566 ;;		_main
  1567 ;; This function uses a non-reentrant model
  1568 ;;
  1569                           
  1570                           
  1571                           ;psect for function _timeset
  1572  01C4                     _timeset:	
  1573                           
  1574                           ;incstack = 0
  1575                           ; Regs used in _timeset: [wreg-fsr1h+status,2+status,0+pclath+cstack]
  1576                           ;timeset@value stored from wreg
  1577  01C4  0020               	movlb	0	; select bank0
  1578  01C5  00BA               	movwf	timeset@value
  1579                           
  1580                           ;PIC16F1827-I2C04.c: 77: sw_RA0.flags = 0;
  1581  01C6  01C5               	clrf	_sw_RA0+2
  1582                           
  1583                           ;PIC16F1827-I2C04.c: 78: sw_RA1.flags = 0;
  1584  01C7  01FB               	clrf	_sw_RA1+2
  1585  01C8                     l1875:	
  1586                           ;PIC16F1827-I2C04.c: 79: while (!sw_RA0.flag.press) {
  1587                           
  1588  01C8  0020               	movlb	0	; select bank0
  1589  01C9  1845               	btfsc	_sw_RA0+2,0
  1590  01CA  2B17               	goto	l1877
  1591                           
  1592                           ;PIC16F1827-I2C04.c: 80: if (cnt_t1 % 16 >= 8) {
  1593  01CB  300F               	movlw	15
  1594  01CC  0578               	andwf	_cnt_t1,w
  1595  01CD  00B2               	movwf	??_timeset
  1596  01CE  3008               	movlw	8
  1597  01CF  0232               	subwf	??_timeset,w
  1598  01D0  1C03               	skipc
  1599  01D1  29E3               	goto	l1841
  1600                           
  1601                           ;PIC16F1827-I2C04.c: 81: LCD_SetCursor(column, row);
  1602  01D2  0831               	movf	timeset@row,w
  1603  01D3  00B2               	movwf	??_timeset
  1604  01D4  0832               	movf	??_timeset,w
  1605  01D5  00A7               	movwf	LCD_SetCursor@row
  1606  01D6  0830               	movf	timeset@column,w
  1607  01D7  318F  27D7  3181   	fcall	_LCD_SetCursor
  1608                           
  1609                           ;PIC16F1827-I2C04.c: 82: LCD_Puts("  ");
  1610  01DA  3011               	movlw	low (STR_1| (0+32768))
  1611  01DB  0020               	movlb	0	; select bank0
  1612  01DC  00A4               	movwf	LCD_Puts@s
  1613  01DD  3088               	movlw	high (STR_1| (0+32768))
  1614  01DE  00A5               	movwf	LCD_Puts@s+1
  1615  01DF  3185  25E6  3181   	fcall	_LCD_Puts
  1616                           
  1617                           ;PIC16F1827-I2C04.c: 83: } else {
  1618  01E2  2A1D               	goto	l1843
  1619  01E3                     l1841:	
  1620                           
  1621                           ;PIC16F1827-I2C04.c: 84: *value = RTC_Read(Reg);
  1622  01E3  0020               	movlb	0	; select bank0
  1623  01E4  082F               	movf	timeset@Reg,w
  1624  01E5  3185  25AE  3181   	fcall	_RTC_Read
  1625  01E8  0020               	movlb	0	; select bank0
  1626  01E9  00B2               	movwf	??_timeset
  1627  01EA  083A               	movf	timeset@value,w
  1628  01EB  0086               	movwf	6
  1629  01EC  0187               	clrf	7
  1630  01ED  0832               	movf	??_timeset,w
  1631  01EE  0081               	movwf	1
  1632                           
  1633                           ;PIC16F1827-I2C04.c: 85: display();
  1634  01EF  3183  2319  3181   	fcall	_display
  1635                           
  1636                           ;PIC16F1827-I2C04.c: 86: LCD_SetCursor(column, row);
  1637  01F2  0020               	movlb	0	; select bank0
  1638  01F3  0831               	movf	timeset@row,w
  1639  01F4  00B2               	movwf	??_timeset
  1640  01F5  0832               	movf	??_timeset,w
  1641  01F6  00A7               	movwf	LCD_SetCursor@row
  1642  01F7  0830               	movf	timeset@column,w
  1643  01F8  318F  27D7  3181   	fcall	_LCD_SetCursor
  1644                           
  1645                           ;PIC16F1827-I2C04.c: 87: LCD_Putc(*value / 16 + '0');
  1646  01FB  3010               	movlw	16
  1647  01FC  0020               	movlb	0	; select bank0
  1648  01FD  00A0               	movwf	___awdiv@divisor
  1649  01FE  3000               	movlw	0
  1650  01FF  00A1               	movwf	___awdiv@divisor+1
  1651  0200  083A               	movf	timeset@value,w
  1652  0201  0086               	movwf	6
  1653  0202  0187               	clrf	7
  1654  0203  0801               	movf	1,w
  1655  0204  00B2               	movwf	??_timeset
  1656  0205  01B3               	clrf	??_timeset+1
  1657  0206  0832               	movf	??_timeset,w
  1658  0207  00A2               	movwf	___awdiv@dividend
  1659  0208  0833               	movf	??_timeset+1,w
  1660  0209  00A3               	movwf	___awdiv@dividend+1
  1661  020A  3184  24CF  3181   	fcall	___awdiv
  1662  020D  0020               	movlb	0	; select bank0
  1663  020E  0820               	movf	?___awdiv,w
  1664  020F  3E30               	addlw	48
  1665  0210  3187  2715  3181   	fcall	_LCD_Putc
  1666                           
  1667                           ;PIC16F1827-I2C04.c: 88: LCD_Putc(*value % 16 + '0');
  1668  0213  0020               	movlb	0	; select bank0
  1669  0214  083A               	movf	timeset@value,w
  1670  0215  0086               	movwf	6
  1671  0216  0187               	clrf	7
  1672  0217  0801               	movf	1,w
  1673  0218  390F               	andlw	15
  1674  0219  3E30               	addlw	48
  1675  021A  3187  2715  3181   	fcall	_LCD_Putc
  1676  021D                     l1843:	
  1677                           
  1678                           ;PIC16F1827-I2C04.c: 89: }
  1679                           ;PIC16F1827-I2C04.c: 90: if (sw_RA1.flag.press) {
  1680  021D  1C7B               	btfss	_sw_RA1+2,0
  1681  021E  2A8A               	goto	l1859
  1682                           
  1683                           ;PIC16F1827-I2C04.c: 91: sw_RA1.flag.press = 0;
  1684  021F  107B               	bcf	_sw_RA1+2,0
  1685                           
  1686                           ;PIC16F1827-I2C04.c: 92: uint8_t t = *value % 16 + (*value / 16)*10;
  1687  0220  0020               	movlb	0	; select bank0
  1688  0221  083A               	movf	timeset@value,w
  1689  0222  0086               	movwf	6
  1690  0223  0187               	clrf	7
  1691  0224  300F               	movlw	15
  1692  0225  0501               	andwf	1,w
  1693  0226  00B2               	movwf	??_timeset
  1694  0227  300A               	movlw	10
  1695  0228  00B3               	movwf	??_timeset+1
  1696  0229  0833               	movf	??_timeset+1,w
  1697  022A  00A9               	movwf	___bmul@multiplicand
  1698  022B  083A               	movf	timeset@value,w
  1699  022C  0086               	movwf	6
  1700  022D  0187               	clrf	7
  1701  022E  0801               	movf	1,w
  1702  022F  00B4               	movwf	??_timeset+2
  1703  0230  01B5               	clrf	??_timeset+3
  1704  0231  0834               	movf	??_timeset+2,w
  1705  0232  00A2               	movwf	___awdiv@dividend
  1706  0233  0835               	movf	??_timeset+3,w
  1707  0234  00A3               	movwf	___awdiv@dividend+1
  1708  0235  3010               	movlw	16
  1709  0236  00A0               	movwf	___awdiv@divisor
  1710  0237  3000               	movlw	0
  1711  0238  00A1               	movwf	___awdiv@divisor+1
  1712  0239  3184  24CF  3181   	fcall	___awdiv
  1713  023C  0020               	movlb	0	; select bank0
  1714  023D  0820               	movf	?___awdiv,w
  1715  023E  318F  27C5  3181   	fcall	___bmul
  1716  0241  0020               	movlb	0	; select bank0
  1717  0242  0732               	addwf	??_timeset,w
  1718  0243  00B6               	movwf	??_timeset+4
  1719  0244  0836               	movf	??_timeset+4,w
  1720  0245  00B8               	movwf	timeset@t
  1721                           
  1722                           ;PIC16F1827-I2C04.c: 93: if (t >= max_num) {
  1723  0246  082E               	movf	timeset@max_num,w
  1724  0247  0238               	subwf	timeset@t,w
  1725  0248  1C03               	skipc
  1726  0249  2A4F               	goto	l1853
  1727                           
  1728                           ;PIC16F1827-I2C04.c: 94: t = min_num;
  1729  024A  082D               	movf	timeset@min_num,w
  1730  024B  00B2               	movwf	??_timeset
  1731  024C  0832               	movf	??_timeset,w
  1732  024D  00B8               	movwf	timeset@t
  1733                           
  1734                           ;PIC16F1827-I2C04.c: 95: } else {
  1735  024E  2A53               	goto	l1855
  1736  024F                     l1853:	
  1737                           
  1738                           ;PIC16F1827-I2C04.c: 96: t++;
  1739  024F  3001               	movlw	1
  1740  0250  00B2               	movwf	??_timeset
  1741  0251  0832               	movf	??_timeset,w
  1742  0252  07B8               	addwf	timeset@t,f
  1743  0253                     l1855:	
  1744                           
  1745                           ;PIC16F1827-I2C04.c: 97: }
  1746                           ;PIC16F1827-I2C04.c: 98: *value = t % 10 + (t / 10)* 16;
  1747  0253  300A               	movlw	10
  1748  0254  00A0               	movwf	___awdiv@divisor
  1749  0255  3000               	movlw	0
  1750  0256  00A1               	movwf	___awdiv@divisor+1
  1751  0257  0838               	movf	timeset@t,w
  1752  0258  00B2               	movwf	??_timeset
  1753  0259  01B3               	clrf	??_timeset+1
  1754  025A  0832               	movf	??_timeset,w
  1755  025B  00A2               	movwf	___awdiv@dividend
  1756  025C  0833               	movf	??_timeset+1,w
  1757  025D  00A3               	movwf	___awdiv@dividend+1
  1758  025E  3184  24CF  3181   	fcall	___awdiv
  1759  0261  0020               	movlb	0	; select bank0
  1760  0262  0820               	movf	?___awdiv,w
  1761  0263  00B4               	movwf	??_timeset+2
  1762  0264  3004               	movlw	4
  1763  0265                     u1355:	
  1764  0265  35B4               	lslf	??_timeset+2,f
  1765  0266  0B89               	decfsz	9,f
  1766  0267  2A65               	goto	u1355
  1767  0268  300A               	movlw	10
  1768  0269  00A0               	movwf	___awmod@divisor
  1769  026A  3000               	movlw	0
  1770  026B  00A1               	movwf	___awmod@divisor+1
  1771  026C  0838               	movf	timeset@t,w
  1772  026D  00B5               	movwf	??_timeset+3
  1773  026E  01B6               	clrf	??_timeset+4
  1774  026F  0835               	movf	??_timeset+3,w
  1775  0270  00A2               	movwf	___awmod@dividend
  1776  0271  0836               	movf	??_timeset+4,w
  1777  0272  00A3               	movwf	___awmod@dividend+1
  1778  0273  3185  2523  3181   	fcall	___awmod
  1779  0276  0020               	movlb	0	; select bank0
  1780  0277  0820               	movf	?___awmod,w
  1781  0278  0734               	addwf	??_timeset+2,w
  1782  0279  00B7               	movwf	??_timeset+5
  1783  027A  083A               	movf	timeset@value,w
  1784  027B  0086               	movwf	6
  1785  027C  0187               	clrf	7
  1786  027D  0837               	movf	??_timeset+5,w
  1787  027E  0081               	movwf	1
  1788                           
  1789                           ;PIC16F1827-I2C04.c: 99: RTC_Write(Reg, *value);
  1790  027F  083A               	movf	timeset@value,w
  1791  0280  0086               	movwf	6
  1792  0281  0187               	clrf	7
  1793  0282  0801               	movf	1,w
  1794  0283  00B2               	movwf	??_timeset
  1795  0284  0832               	movf	??_timeset,w
  1796  0285  00A4               	movwf	RTC_Write@c
  1797  0286  082F               	movf	timeset@Reg,w
  1798  0287  3187  2735  3181   	fcall	_RTC_Write
  1799  028A                     l1859:	
  1800                           
  1801                           ;PIC16F1827-I2C04.c: 100: }
  1802                           ;PIC16F1827-I2C04.c: 101: if (sw_RA1.flag.long_holding_1) {
  1803  028A  1EFB               	btfss	_sw_RA1+2,5
  1804  028B  29C8               	goto	l1875
  1805                           
  1806                           ;PIC16F1827-I2C04.c: 102: sw_RA1.flag.long_holding_1 = 0;
  1807  028C  12FB               	bcf	_sw_RA1+2,5
  1808                           
  1809                           ;PIC16F1827-I2C04.c: 103: uint8_t t = *value % 16 + (*value / 16)*10;
  1810  028D  0020               	movlb	0	; select bank0
  1811  028E  083A               	movf	timeset@value,w
  1812  028F  0086               	movwf	6
  1813  0290  0187               	clrf	7
  1814  0291  300F               	movlw	15
  1815  0292  0501               	andwf	1,w
  1816  0293  00B2               	movwf	??_timeset
  1817  0294  300A               	movlw	10
  1818  0295  00B3               	movwf	??_timeset+1
  1819  0296  0833               	movf	??_timeset+1,w
  1820  0297  00A9               	movwf	___bmul@multiplicand
  1821  0298  083A               	movf	timeset@value,w
  1822  0299  0086               	movwf	6
  1823  029A  0187               	clrf	7
  1824  029B  0801               	movf	1,w
  1825  029C  00B4               	movwf	??_timeset+2
  1826  029D  01B5               	clrf	??_timeset+3
  1827  029E  0834               	movf	??_timeset+2,w
  1828  029F  00A2               	movwf	___awdiv@dividend
  1829  02A0  0835               	movf	??_timeset+3,w
  1830  02A1  00A3               	movwf	___awdiv@dividend+1
  1831  02A2  3010               	movlw	16
  1832  02A3  00A0               	movwf	___awdiv@divisor
  1833  02A4  3000               	movlw	0
  1834  02A5  00A1               	movwf	___awdiv@divisor+1
  1835  02A6  3184  24CF  3181   	fcall	___awdiv
  1836  02A9  0020               	movlb	0	; select bank0
  1837  02AA  0820               	movf	?___awdiv,w
  1838  02AB  318F  27C5  3181   	fcall	___bmul
  1839  02AE  0020               	movlb	0	; select bank0
  1840  02AF  0732               	addwf	??_timeset,w
  1841  02B0  00B6               	movwf	??_timeset+4
  1842  02B1  0836               	movf	??_timeset+4,w
  1843  02B2  00B9               	movwf	timeset@t_576
  1844                           
  1845                           ;PIC16F1827-I2C04.c: 104: if (t + 9 >= max_num) {
  1846  02B3  0839               	movf	timeset@t_576,w
  1847  02B4  3E09               	addlw	9
  1848  02B5  00B2               	movwf	??_timeset
  1849  02B6  3000               	movlw	0
  1850  02B7  1803               	skipnc
  1851  02B8  3001               	movlw	1
  1852  02B9  00B3               	movwf	??_timeset+1
  1853  02BA  0833               	movf	??_timeset+1,w
  1854  02BB  3A80               	xorlw	128
  1855  02BC  00B4               	movwf	??_timeset+2
  1856  02BD  3080               	movlw	128
  1857  02BE  0234               	subwf	??_timeset+2,w
  1858  02BF  1D03               	skipz
  1859  02C0  2AC3               	goto	u1375
  1860  02C1  082E               	movf	timeset@max_num,w
  1861  02C2  0232               	subwf	??_timeset,w
  1862  02C3                     u1375:	
  1863  02C3  1C03               	skipc
  1864  02C4  2ADA               	goto	l1869
  1865                           
  1866                           ;PIC16F1827-I2C04.c: 105: t = t % 10;
  1867  02C5  300A               	movlw	10
  1868  02C6  0020               	movlb	0	; select bank0
  1869  02C7  00A0               	movwf	___awmod@divisor
  1870  02C8  3000               	movlw	0
  1871  02C9  00A1               	movwf	___awmod@divisor+1
  1872  02CA  0839               	movf	timeset@t_576,w
  1873  02CB  00B2               	movwf	??_timeset
  1874  02CC  01B3               	clrf	??_timeset+1
  1875  02CD  0832               	movf	??_timeset,w
  1876  02CE  00A2               	movwf	___awmod@dividend
  1877  02CF  0833               	movf	??_timeset+1,w
  1878  02D0  00A3               	movwf	___awmod@dividend+1
  1879  02D1  3185  2523  3181   	fcall	___awmod
  1880  02D4  0020               	movlb	0	; select bank0
  1881  02D5  0820               	movf	?___awmod,w
  1882  02D6  00B4               	movwf	??_timeset+2
  1883  02D7  0834               	movf	??_timeset+2,w
  1884  02D8  00B9               	movwf	timeset@t_576
  1885                           
  1886                           ;PIC16F1827-I2C04.c: 106: } else {
  1887  02D9  2ADF               	goto	l1871
  1888  02DA                     l1869:	
  1889                           
  1890                           ;PIC16F1827-I2C04.c: 107: t += 10;
  1891  02DA  300A               	movlw	10
  1892  02DB  0020               	movlb	0	; select bank0
  1893  02DC  00B2               	movwf	??_timeset
  1894  02DD  0832               	movf	??_timeset,w
  1895  02DE  07B9               	addwf	timeset@t_576,f
  1896  02DF                     l1871:	
  1897                           
  1898                           ;PIC16F1827-I2C04.c: 108: }
  1899                           ;PIC16F1827-I2C04.c: 109: *value = t % 10 + (t / 10)* 16;
  1900  02DF  300A               	movlw	10
  1901  02E0  00A0               	movwf	___awdiv@divisor
  1902  02E1  3000               	movlw	0
  1903  02E2  00A1               	movwf	___awdiv@divisor+1
  1904  02E3  0839               	movf	timeset@t_576,w
  1905  02E4  00B2               	movwf	??_timeset
  1906  02E5  01B3               	clrf	??_timeset+1
  1907  02E6  0832               	movf	??_timeset,w
  1908  02E7  00A2               	movwf	___awdiv@dividend
  1909  02E8  0833               	movf	??_timeset+1,w
  1910  02E9  00A3               	movwf	___awdiv@dividend+1
  1911  02EA  3184  24CF  3181   	fcall	___awdiv
  1912  02ED  0020               	movlb	0	; select bank0
  1913  02EE  0820               	movf	?___awdiv,w
  1914  02EF  00B4               	movwf	??_timeset+2
  1915  02F0  3004               	movlw	4
  1916  02F1                     u1385:	
  1917  02F1  35B4               	lslf	??_timeset+2,f
  1918  02F2  0B89               	decfsz	9,f
  1919  02F3  2AF1               	goto	u1385
  1920  02F4  300A               	movlw	10
  1921  02F5  00A0               	movwf	___awmod@divisor
  1922  02F6  3000               	movlw	0
  1923  02F7  00A1               	movwf	___awmod@divisor+1
  1924  02F8  0839               	movf	timeset@t_576,w
  1925  02F9  00B5               	movwf	??_timeset+3
  1926  02FA  01B6               	clrf	??_timeset+4
  1927  02FB  0835               	movf	??_timeset+3,w
  1928  02FC  00A2               	movwf	___awmod@dividend
  1929  02FD  0836               	movf	??_timeset+4,w
  1930  02FE  00A3               	movwf	___awmod@dividend+1
  1931  02FF  3185  2523  3181   	fcall	___awmod
  1932  0302  0020               	movlb	0	; select bank0
  1933  0303  0820               	movf	?___awmod,w
  1934  0304  0734               	addwf	??_timeset+2,w
  1935  0305  00B7               	movwf	??_timeset+5
  1936  0306  083A               	movf	timeset@value,w
  1937  0307  0086               	movwf	6
  1938  0308  0187               	clrf	7
  1939  0309  0837               	movf	??_timeset+5,w
  1940  030A  0081               	movwf	1
  1941                           
  1942                           ;PIC16F1827-I2C04.c: 110: RTC_Write(Reg, *value);
  1943  030B  083A               	movf	timeset@value,w
  1944  030C  0086               	movwf	6
  1945  030D  0187               	clrf	7
  1946  030E  0801               	movf	1,w
  1947  030F  00B2               	movwf	??_timeset
  1948  0310  0832               	movf	??_timeset,w
  1949  0311  00A4               	movwf	RTC_Write@c
  1950  0312  082F               	movf	timeset@Reg,w
  1951  0313  3187  2735  3181   	fcall	_RTC_Write
  1952  0316  29C8               	goto	l1875
  1953  0317                     l1877:	
  1954                           
  1955                           ;PIC16F1827-I2C04.c: 111: }
  1956                           ;PIC16F1827-I2C04.c: 112: }
  1957                           ;PIC16F1827-I2C04.c: 113: sw_RA0.flags = 0;
  1958  0317  01C5               	clrf	_sw_RA0+2
  1959  0318  0008               	return
  1960  0319                     __end_of_timeset:	
  1961                           
  1962                           	psect	text5
  1963  0319                     __ptext5:	
  1964 ;; *************** function _display *****************
  1965 ;; Defined at:
  1966 ;;		line 116 in file "PIC16F1827-I2C04.c"
  1967 ;; Parameters:    Size  Location     Type
  1968 ;;		None
  1969 ;; Auto vars:     Size  Location     Type
  1970 ;;		None
  1971 ;; Return value:  Size  Location     Type
  1972 ;;		None               void
  1973 ;; Registers used:
  1974 ;;		wreg, fsr1l, fsr1h, status,2, status,0, pclath, cstack
  1975 ;; Tracked objects:
  1976 ;;		On entry : 0/0
  1977 ;;		On exit  : 0/0
  1978 ;;		Unchanged: 0/0
  1979 ;; Data sizes:     COMMON   BANK0   BANK1   BANK2   BANK3   BANK4
  1980 ;;      Params:         0       0       0       0       0       0
  1981 ;;      Locals:         0       0       0       0       0       0
  1982 ;;      Temps:          0       2       0       0       0       0
  1983 ;;      Totals:         0       2       0       0       0       0
  1984 ;;Total ram usage:        2 bytes
  1985 ;; Hardware stack levels used:    1
  1986 ;; Hardware stack levels required when called:    7
  1987 ;; This function calls:
  1988 ;;		_LCD_Putc
  1989 ;;		_LCD_SetCursor
  1990 ;;		_RTC_Read
  1991 ;;		___awdiv
  1992 ;; This function is called by:
  1993 ;;		_timeset
  1994 ;;		_main
  1995 ;; This function uses a non-reentrant model
  1996 ;;
  1997                           
  1998                           
  1999                           ;psect for function _display
  2000  0319                     _display:	
  2001                           
  2002                           ;PIC16F1827-I2C04.c: 117: ss = RTC_Read(0x00);
  2003                           
  2004                           ;incstack = 0
  2005                           ; Regs used in _display: [wreg+fsr1l+fsr1h+status,2+status,0+pclath+cstack]
  2006  0319  3000               	movlw	0
  2007  031A  3185  25AE  3183   	fcall	_RTC_Read
  2008  031D  0020               	movlb	0	; select bank0
  2009  031E  00AB               	movwf	??_display
  2010  031F  082B               	movf	??_display,w
  2011  0320  00CB               	movwf	_ss
  2012                           
  2013                           ;PIC16F1827-I2C04.c: 118: mm = RTC_Read(0x01);
  2014  0321  3001               	movlw	1
  2015  0322  3185  25AE  3183   	fcall	_RTC_Read
  2016  0325  0020               	movlb	0	; select bank0
  2017  0326  00AB               	movwf	??_display
  2018  0327  082B               	movf	??_display,w
  2019  0328  00CA               	movwf	_mm
  2020                           
  2021                           ;PIC16F1827-I2C04.c: 119: hh = RTC_Read(0x02);
  2022  0329  3002               	movlw	2
  2023  032A  3185  25AE  3183   	fcall	_RTC_Read
  2024  032D  0020               	movlb	0	; select bank0
  2025  032E  00AB               	movwf	??_display
  2026  032F  082B               	movf	??_display,w
  2027  0330  00C9               	movwf	_hh
  2028                           
  2029                           ;PIC16F1827-I2C04.c: 120: EE = RTC_Read(0x03);
  2030  0331  3003               	movlw	3
  2031  0332  3185  25AE  3183   	fcall	_RTC_Read
  2032  0335  0020               	movlb	0	; select bank0
  2033  0336  00AB               	movwf	??_display
  2034  0337  082B               	movf	??_display,w
  2035  0338  0021               	movlb	1	; select bank1
  2036  0339  00E6               	movwf	_EE^(0+128)
  2037                           
  2038                           ;PIC16F1827-I2C04.c: 121: DD = RTC_Read(0x04);
  2039  033A  3004               	movlw	4
  2040  033B  3185  25AE  3183   	fcall	_RTC_Read
  2041  033E  0020               	movlb	0	; select bank0
  2042  033F  00AB               	movwf	??_display
  2043  0340  082B               	movf	??_display,w
  2044  0341  00C6               	movwf	_DD
  2045                           
  2046                           ;PIC16F1827-I2C04.c: 122: MM = RTC_Read(0x05);
  2047  0342  3005               	movlw	5
  2048  0343  3185  25AE  3183   	fcall	_RTC_Read
  2049  0346  0020               	movlb	0	; select bank0
  2050  0347  00AB               	movwf	??_display
  2051  0348  082B               	movf	??_display,w
  2052  0349  00C7               	movwf	_MM
  2053                           
  2054                           ;PIC16F1827-I2C04.c: 123: YY = RTC_Read(0x06);
  2055  034A  3006               	movlw	6
  2056  034B  3185  25AE  3183   	fcall	_RTC_Read
  2057  034E  0020               	movlb	0	; select bank0
  2058  034F  00AB               	movwf	??_display
  2059  0350  082B               	movf	??_display,w
  2060  0351  00C8               	movwf	_YY
  2061                           
  2062                           ;PIC16F1827-I2C04.c: 124: LCD_SetCursor(0, 0);
  2063  0352  01A7               	clrf	LCD_SetCursor@row
  2064  0353  3000               	movlw	0
  2065  0354  318F  27D7  3183   	fcall	_LCD_SetCursor
  2066                           
  2067                           ;PIC16F1827-I2C04.c: 125: LCD_Putc(YY / 16 + '0');
  2068  0357  3010               	movlw	16
  2069  0358  0020               	movlb	0	; select bank0
  2070  0359  00A0               	movwf	___awdiv@divisor
  2071  035A  3000               	movlw	0
  2072  035B  00A1               	movwf	___awdiv@divisor+1
  2073  035C  0848               	movf	_YY,w
  2074  035D  00AB               	movwf	??_display
  2075  035E  01AC               	clrf	??_display+1
  2076  035F  082B               	movf	??_display,w
  2077  0360  00A2               	movwf	___awdiv@dividend
  2078  0361  082C               	movf	??_display+1,w
  2079  0362  00A3               	movwf	___awdiv@dividend+1
  2080  0363  3184  24CF  3183   	fcall	___awdiv
  2081  0366  0020               	movlb	0	; select bank0
  2082  0367  0820               	movf	?___awdiv,w
  2083  0368  3E30               	addlw	48
  2084  0369  3187  2715  3183   	fcall	_LCD_Putc
  2085                           
  2086                           ;PIC16F1827-I2C04.c: 126: LCD_Putc(YY % 16 + '0');
  2087  036C  0020               	movlb	0	; select bank0
  2088  036D  0848               	movf	_YY,w
  2089  036E  390F               	andlw	15
  2090  036F  3E30               	addlw	48
  2091  0370  3187  2715  3183   	fcall	_LCD_Putc
  2092                           
  2093                           ;PIC16F1827-I2C04.c: 127: LCD_Putc('/');
  2094  0373  302F               	movlw	47
  2095  0374  3187  2715  3183   	fcall	_LCD_Putc
  2096                           
  2097                           ;PIC16F1827-I2C04.c: 128: LCD_Putc(MM / 16 + '0');
  2098  0377  3010               	movlw	16
  2099  0378  0020               	movlb	0	; select bank0
  2100  0379  00A0               	movwf	___awdiv@divisor
  2101  037A  3000               	movlw	0
  2102  037B  00A1               	movwf	___awdiv@divisor+1
  2103  037C  0847               	movf	_MM,w
  2104  037D  00AB               	movwf	??_display
  2105  037E  01AC               	clrf	??_display+1
  2106  037F  082B               	movf	??_display,w
  2107  0380  00A2               	movwf	___awdiv@dividend
  2108  0381  082C               	movf	??_display+1,w
  2109  0382  00A3               	movwf	___awdiv@dividend+1
  2110  0383  3184  24CF  3183   	fcall	___awdiv
  2111  0386  0020               	movlb	0	; select bank0
  2112  0387  0820               	movf	?___awdiv,w
  2113  0388  3E30               	addlw	48
  2114  0389  3187  2715  3183   	fcall	_LCD_Putc
  2115                           
  2116                           ;PIC16F1827-I2C04.c: 129: LCD_Putc(MM % 16 + '0');
  2117  038C  0020               	movlb	0	; select bank0
  2118  038D  0847               	movf	_MM,w
  2119  038E  390F               	andlw	15
  2120  038F  3E30               	addlw	48
  2121  0390  3187  2715  3183   	fcall	_LCD_Putc
  2122                           
  2123                           ;PIC16F1827-I2C04.c: 130: LCD_Putc('/');
  2124  0393  302F               	movlw	47
  2125  0394  3187  2715  3183   	fcall	_LCD_Putc
  2126                           
  2127                           ;PIC16F1827-I2C04.c: 131: LCD_Putc(DD / 16 + '0');
  2128  0397  3010               	movlw	16
  2129  0398  0020               	movlb	0	; select bank0
  2130  0399  00A0               	movwf	___awdiv@divisor
  2131  039A  3000               	movlw	0
  2132  039B  00A1               	movwf	___awdiv@divisor+1
  2133  039C  0846               	movf	_DD,w
  2134  039D  00AB               	movwf	??_display
  2135  039E  01AC               	clrf	??_display+1
  2136  039F  082B               	movf	??_display,w
  2137  03A0  00A2               	movwf	___awdiv@dividend
  2138  03A1  082C               	movf	??_display+1,w
  2139  03A2  00A3               	movwf	___awdiv@dividend+1
  2140  03A3  3184  24CF  3183   	fcall	___awdiv
  2141  03A6  0020               	movlb	0	; select bank0
  2142  03A7  0820               	movf	?___awdiv,w
  2143  03A8  3E30               	addlw	48
  2144  03A9  3187  2715  3183   	fcall	_LCD_Putc
  2145                           
  2146                           ;PIC16F1827-I2C04.c: 132: LCD_Putc(DD % 16 + '0');
  2147  03AC  0020               	movlb	0	; select bank0
  2148  03AD  0846               	movf	_DD,w
  2149  03AE  390F               	andlw	15
  2150  03AF  3E30               	addlw	48
  2151  03B0  3187  2715  3183   	fcall	_LCD_Putc
  2152                           
  2153                           ;PIC16F1827-I2C04.c: 133: LCD_SetCursor(0, 1);
  2154  03B3  0020               	movlb	0	; select bank0
  2155  03B4  01A7               	clrf	LCD_SetCursor@row
  2156  03B5  0AA7               	incf	LCD_SetCursor@row,f
  2157  03B6  3000               	movlw	0
  2158  03B7  318F  27D7  3183   	fcall	_LCD_SetCursor
  2159                           
  2160                           ;PIC16F1827-I2C04.c: 134: LCD_Putc(hh / 16 + '0');
  2161  03BA  3010               	movlw	16
  2162  03BB  0020               	movlb	0	; select bank0
  2163  03BC  00A0               	movwf	___awdiv@divisor
  2164  03BD  3000               	movlw	0
  2165  03BE  00A1               	movwf	___awdiv@divisor+1
  2166  03BF  0849               	movf	_hh,w
  2167  03C0  00AB               	movwf	??_display
  2168  03C1  01AC               	clrf	??_display+1
  2169  03C2  082B               	movf	??_display,w
  2170  03C3  00A2               	movwf	___awdiv@dividend
  2171  03C4  082C               	movf	??_display+1,w
  2172  03C5  00A3               	movwf	___awdiv@dividend+1
  2173  03C6  3184  24CF  3183   	fcall	___awdiv
  2174  03C9  0020               	movlb	0	; select bank0
  2175  03CA  0820               	movf	?___awdiv,w
  2176  03CB  3E30               	addlw	48
  2177  03CC  3187  2715  3183   	fcall	_LCD_Putc
  2178                           
  2179                           ;PIC16F1827-I2C04.c: 135: LCD_Putc(hh % 16 + '0');
  2180  03CF  0020               	movlb	0	; select bank0
  2181  03D0  0849               	movf	_hh,w
  2182  03D1  390F               	andlw	15
  2183  03D2  3E30               	addlw	48
  2184  03D3  3187  2715  3183   	fcall	_LCD_Putc
  2185                           
  2186                           ;PIC16F1827-I2C04.c: 136: LCD_Putc(':');
  2187  03D6  303A               	movlw	58
  2188  03D7  3187  2715  3183   	fcall	_LCD_Putc
  2189                           
  2190                           ;PIC16F1827-I2C04.c: 137: LCD_Putc(mm / 16 + '0');
  2191  03DA  3010               	movlw	16
  2192  03DB  0020               	movlb	0	; select bank0
  2193  03DC  00A0               	movwf	___awdiv@divisor
  2194  03DD  3000               	movlw	0
  2195  03DE  00A1               	movwf	___awdiv@divisor+1
  2196  03DF  084A               	movf	_mm,w
  2197  03E0  00AB               	movwf	??_display
  2198  03E1  01AC               	clrf	??_display+1
  2199  03E2  082B               	movf	??_display,w
  2200  03E3  00A2               	movwf	___awdiv@dividend
  2201  03E4  082C               	movf	??_display+1,w
  2202  03E5  00A3               	movwf	___awdiv@dividend+1
  2203  03E6  3184  24CF  3183   	fcall	___awdiv
  2204  03E9  0020               	movlb	0	; select bank0
  2205  03EA  0820               	movf	?___awdiv,w
  2206  03EB  3E30               	addlw	48
  2207  03EC  3187  2715  3183   	fcall	_LCD_Putc
  2208                           
  2209                           ;PIC16F1827-I2C04.c: 138: LCD_Putc(mm % 16 + '0');
  2210  03EF  0020               	movlb	0	; select bank0
  2211  03F0  084A               	movf	_mm,w
  2212  03F1  390F               	andlw	15
  2213  03F2  3E30               	addlw	48
  2214  03F3  3187  2715  3183   	fcall	_LCD_Putc
  2215                           
  2216                           ;PIC16F1827-I2C04.c: 139: LCD_Putc('-');
  2217  03F6  302D               	movlw	45
  2218  03F7  3187  2715  3183   	fcall	_LCD_Putc
  2219                           
  2220                           ;PIC16F1827-I2C04.c: 140: LCD_Putc(ss / 16 + '0');
  2221  03FA  3010               	movlw	16
  2222  03FB  0020               	movlb	0	; select bank0
  2223  03FC  00A0               	movwf	___awdiv@divisor
  2224  03FD  3000               	movlw	0
  2225  03FE  00A1               	movwf	___awdiv@divisor+1
  2226  03FF  084B               	movf	_ss,w
  2227  0400  00AB               	movwf	??_display
  2228  0401  01AC               	clrf	??_display+1
  2229  0402  082B               	movf	??_display,w
  2230  0403  00A2               	movwf	___awdiv@dividend
  2231  0404  082C               	movf	??_display+1,w
  2232  0405  00A3               	movwf	___awdiv@dividend+1
  2233  0406  3184  24CF  3183   	fcall	___awdiv
  2234  0409  0020               	movlb	0	; select bank0
  2235  040A  0820               	movf	?___awdiv,w
  2236  040B  3E30               	addlw	48
  2237  040C  3187  2715  3183   	fcall	_LCD_Putc
  2238                           
  2239                           ;PIC16F1827-I2C04.c: 141: LCD_Putc(ss % 16 + '0');
  2240  040F  0020               	movlb	0	; select bank0
  2241  0410  084B               	movf	_ss,w
  2242  0411  390F               	andlw	15
  2243  0412  3E30               	addlw	48
  2244  0413  3187  2715         	fcall	_LCD_Putc
  2245  0415  0008               	return
  2246  0416                     __end_of_display:	
  2247                           
  2248                           	psect	text6
  2249  04CF                     __ptext6:	
  2250 ;; *************** function ___awdiv *****************
  2251 ;; Defined at:
  2252 ;;		line 6 in file "C:\Program Files (x86)\Microchip\xc8\v1.33\sources\common\awdiv.c"
  2253 ;; Parameters:    Size  Location     Type
  2254 ;;  divisor         2    0[BANK0 ] int 
  2255 ;;  dividend        2    2[BANK0 ] int 
  2256 ;; Auto vars:     Size  Location     Type
  2257 ;;  quotient        2    7[BANK0 ] int 
  2258 ;;  sign            1    6[BANK0 ] unsigned char 
  2259 ;;  counter         1    5[BANK0 ] unsigned char 
  2260 ;; Return value:  Size  Location     Type
  2261 ;;                  2    0[BANK0 ] int 
  2262 ;; Registers used:
  2263 ;;		wreg, status,2, status,0
  2264 ;; Tracked objects:
  2265 ;;		On entry : 0/0
  2266 ;;		On exit  : 0/0
  2267 ;;		Unchanged: 0/0
  2268 ;; Data sizes:     COMMON   BANK0   BANK1   BANK2   BANK3   BANK4
  2269 ;;      Params:         0       4       0       0       0       0
  2270 ;;      Locals:         0       4       0       0       0       0
  2271 ;;      Temps:          0       1       0       0       0       0
  2272 ;;      Totals:         0       9       0       0       0       0
  2273 ;;Total ram usage:        9 bytes
  2274 ;; Hardware stack levels used:    1
  2275 ;; Hardware stack levels required when called:    3
  2276 ;; This function calls:
  2277 ;;		Nothing
  2278 ;; This function is called by:
  2279 ;;		_timeset
  2280 ;;		_display
  2281 ;; This function uses a non-reentrant model
  2282 ;;
  2283                           
  2284                           
  2285                           ;psect for function ___awdiv
  2286  04CF                     ___awdiv:	
  2287                           
  2288                           ;incstack = 0
  2289                           ; Regs used in ___awdiv: [wreg+status,2+status,0]
  2290  04CF  0020               	movlb	0	; select bank0
  2291  04D0  01A6               	clrf	___awdiv@sign
  2292  04D1  1FA1               	btfss	___awdiv@divisor+1,7
  2293  04D2  2CDA               	goto	l1517
  2294  04D3  09A0               	comf	___awdiv@divisor,f
  2295  04D4  09A1               	comf	___awdiv@divisor+1,f
  2296  04D5  0AA0               	incf	___awdiv@divisor,f
  2297  04D6  1903               	skipnz
  2298  04D7  0AA1               	incf	___awdiv@divisor+1,f
  2299  04D8  01A6               	clrf	___awdiv@sign
  2300  04D9  0AA6               	incf	___awdiv@sign,f
  2301  04DA                     l1517:	
  2302  04DA  1FA3               	btfss	___awdiv@dividend+1,7
  2303  04DB  2CE5               	goto	l1523
  2304  04DC  09A2               	comf	___awdiv@dividend,f
  2305  04DD  09A3               	comf	___awdiv@dividend+1,f
  2306  04DE  0AA2               	incf	___awdiv@dividend,f
  2307  04DF  1903               	skipnz
  2308  04E0  0AA3               	incf	___awdiv@dividend+1,f
  2309  04E1  3001               	movlw	1
  2310  04E2  00A4               	movwf	??___awdiv
  2311  04E3  0824               	movf	??___awdiv,w
  2312  04E4  06A6               	xorwf	___awdiv@sign,f
  2313  04E5                     l1523:	
  2314  04E5  01A7               	clrf	___awdiv@quotient
  2315  04E6  01A8               	clrf	___awdiv@quotient+1
  2316  04E7  0821               	movf	___awdiv@divisor+1,w
  2317  04E8  0420               	iorwf	___awdiv@divisor,w
  2318  04E9  1903               	skipnz
  2319  04EA  2D14               	goto	l1545
  2320  04EB  01A5               	clrf	___awdiv@counter
  2321  04EC  0AA5               	incf	___awdiv@counter,f
  2322  04ED                     l1533:	
  2323  04ED  1BA1               	btfsc	___awdiv@divisor+1,7
  2324  04EE  2CF9               	goto	l1535
  2325  04EF  3001               	movlw	1
  2326  04F0                     u915:	
  2327  04F0  35A0               	lslf	___awdiv@divisor,f
  2328  04F1  0DA1               	rlf	___awdiv@divisor+1,f
  2329  04F2  0B89               	decfsz	9,f
  2330  04F3  2CF0               	goto	u915
  2331  04F4  3001               	movlw	1
  2332  04F5  00A4               	movwf	??___awdiv
  2333  04F6  0824               	movf	??___awdiv,w
  2334  04F7  07A5               	addwf	___awdiv@counter,f
  2335  04F8  2CED               	goto	l1533
  2336  04F9                     l1535:	
  2337  04F9  3001               	movlw	1
  2338  04FA                     u935:	
  2339  04FA  35A7               	lslf	___awdiv@quotient,f
  2340  04FB  0DA8               	rlf	___awdiv@quotient+1,f
  2341  04FC  0B89               	decfsz	9,f
  2342  04FD  2CFA               	goto	u935
  2343  04FE  0821               	movf	___awdiv@divisor+1,w
  2344  04FF  0223               	subwf	___awdiv@dividend+1,w
  2345  0500  1D03               	skipz
  2346  0501  2D04               	goto	u945
  2347  0502  0820               	movf	___awdiv@divisor,w
  2348  0503  0222               	subwf	___awdiv@dividend,w
  2349  0504                     u945:	
  2350  0504  1C03               	skipc
  2351  0505  2D0B               	goto	l1541
  2352  0506  0820               	movf	___awdiv@divisor,w
  2353  0507  02A2               	subwf	___awdiv@dividend,f
  2354  0508  0821               	movf	___awdiv@divisor+1,w
  2355  0509  3BA3               	subwfb	___awdiv@dividend+1,f
  2356  050A  1427               	bsf	___awdiv@quotient,0
  2357  050B                     l1541:	
  2358  050B  3001               	movlw	1
  2359  050C                     u955:	
  2360  050C  36A1               	lsrf	___awdiv@divisor+1,f
  2361  050D  0CA0               	rrf	___awdiv@divisor,f
  2362  050E  0B89               	decfsz	9,f
  2363  050F  2D0C               	goto	u955
  2364  0510  3001               	movlw	1
  2365  0511  02A5               	subwf	___awdiv@counter,f
  2366  0512  1D03               	btfss	3,2
  2367  0513  2CF9               	goto	l1535
  2368  0514                     l1545:	
  2369  0514  0826               	movf	___awdiv@sign,w
  2370  0515  1903               	btfsc	3,2
  2371  0516  2D1C               	goto	l1549
  2372  0517  09A7               	comf	___awdiv@quotient,f
  2373  0518  09A8               	comf	___awdiv@quotient+1,f
  2374  0519  0AA7               	incf	___awdiv@quotient,f
  2375  051A  1903               	skipnz
  2376  051B  0AA8               	incf	___awdiv@quotient+1,f
  2377  051C                     l1549:	
  2378  051C  0828               	movf	___awdiv@quotient+1,w
  2379  051D  01A1               	clrf	?___awdiv+1
  2380  051E  07A1               	addwf	?___awdiv+1,f
  2381  051F  0827               	movf	___awdiv@quotient,w
  2382  0520  01A0               	clrf	?___awdiv
  2383  0521  07A0               	addwf	?___awdiv,f
  2384  0522  0008               	return
  2385  0523                     __end_of___awdiv:	
  2386                           
  2387                           	psect	text7
  2388  05AE                     __ptext7:	
  2389 ;; *************** function _RTC_Read *****************
  2390 ;; Defined at:
  2391 ;;		line 363 in file "C:\Program Files (x86)\Microchip\xc8\v1.33\include\My_header.h"
  2392 ;; Parameters:    Size  Location     Type
  2393 ;;  Reg             1    wreg     unsigned char 
  2394 ;; Auto vars:     Size  Location     Type
  2395 ;;  Reg             1    7[BANK0 ] unsigned char 
  2396 ;;  ans             1    9[BANK0 ] unsigned char 
  2397 ;;  data            1    8[BANK0 ] unsigned char 
  2398 ;; Return value:  Size  Location     Type
  2399 ;;                  1    wreg      unsigned char 
  2400 ;; Registers used:
  2401 ;;		wreg, status,2, status,0, pclath, cstack
  2402 ;; Tracked objects:
  2403 ;;		On entry : 0/0
  2404 ;;		On exit  : 0/0
  2405 ;;		Unchanged: 0/0
  2406 ;; Data sizes:     COMMON   BANK0   BANK1   BANK2   BANK3   BANK4
  2407 ;;      Params:         0       0       0       0       0       0
  2408 ;;      Locals:         0       3       0       0       0       0
  2409 ;;      Temps:          0       1       0       0       0       0
  2410 ;;      Totals:         0       4       0       0       0       0
  2411 ;;Total ram usage:        4 bytes
  2412 ;; Hardware stack levels used:    1
  2413 ;; Hardware stack levels required when called:    5
  2414 ;; This function calls:
  2415 ;;		_I2C_Receive
  2416 ;;		_I2C_Send
  2417 ;;		_I2C_Start
  2418 ;;		_I2C_Stop
  2419 ;;		_I2C_rStart
  2420 ;; This function is called by:
  2421 ;;		_timeset
  2422 ;;		_display
  2423 ;; This function uses a non-reentrant model
  2424 ;;
  2425                           
  2426                           
  2427                           ;psect for function _RTC_Read
  2428  05AE                     _RTC_Read:	
  2429                           
  2430                           ;incstack = 0
  2431                           ; Regs used in _RTC_Read: [wreg+status,2+status,0+pclath+cstack]
  2432                           ;RTC_Read@Reg stored from wreg
  2433  05AE  0020               	movlb	0	; select bank0
  2434  05AF  00A7               	movwf	RTC_Read@Reg
  2435                           
  2436                           ;My_header.h: 364: uint8_t ans;
  2437                           ;My_header.h: 365: uint8_t data;
  2438                           ;My_header.h: 367: ans = I2C_Start(0x68, 0);
  2439  05B0  01A2               	clrf	I2C_Start@rw
  2440  05B1  3068               	movlw	104
  2441  05B2  3187  27AD  3185   	fcall	_I2C_Start
  2442  05B5  0020               	movlb	0	; select bank0
  2443  05B6  00A6               	movwf	??_RTC_Read
  2444  05B7  0826               	movf	??_RTC_Read,w
  2445  05B8  00A9               	movwf	RTC_Read@ans
  2446                           
  2447                           ;My_header.h: 368: if (ans == 0) {
  2448  05B9  08A9               	movf	RTC_Read@ans,f
  2449  05BA  1D03               	skipz
  2450  05BB  2DC0               	goto	l244
  2451                           
  2452                           ;My_header.h: 370: I2C_Send(Reg);
  2453  05BC  0827               	movf	RTC_Read@Reg,w
  2454  05BD  318F  27A2  3185   	fcall	_I2C_Send
  2455  05C0                     l244:	
  2456                           
  2457                           ;My_header.h: 371: }
  2458                           ;My_header.h: 372: ans = I2C_rStart(0x68, 1);
  2459  05C0  3068               	movlw	104
  2460  05C1  0020               	movlb	0	; select bank0
  2461  05C2  00A2               	movwf	I2C_rStart@adrs
  2462  05C3  3000               	movlw	0
  2463  05C4  00A3               	movwf	I2C_rStart@adrs+1
  2464  05C5  3001               	movlw	1
  2465  05C6  00A4               	movwf	I2C_rStart@rw
  2466  05C7  3000               	movlw	0
  2467  05C8  00A5               	movwf	I2C_rStart@rw+1
  2468  05C9  3187  27C8  3185   	fcall	_I2C_rStart
  2469  05CC  0020               	movlb	0	; select bank0
  2470  05CD  00A6               	movwf	??_RTC_Read
  2471  05CE  0826               	movf	??_RTC_Read,w
  2472  05CF  00A9               	movwf	RTC_Read@ans
  2473                           
  2474                           ;My_header.h: 373: if (ans == 0) {
  2475  05D0  08A9               	movf	RTC_Read@ans,f
  2476  05D1  1D03               	skipz
  2477  05D2  2DDB               	goto	l245
  2478                           
  2479                           ;My_header.h: 375: data = I2C_Receive(1);
  2480  05D3  3001               	movlw	1
  2481  05D4  3186  26F5  3185   	fcall	_I2C_Receive
  2482  05D7  0020               	movlb	0	; select bank0
  2483  05D8  00A6               	movwf	??_RTC_Read
  2484  05D9  0826               	movf	??_RTC_Read,w
  2485  05DA  00A8               	movwf	RTC_Read@data
  2486  05DB                     l245:	
  2487                           
  2488                           ;My_header.h: 376: }
  2489                           ;My_header.h: 377: I2C_Stop();
  2490  05DB  318F  275C  3185   	fcall	_I2C_Stop
  2491                           
  2492                           ;My_header.h: 378: _delay((unsigned long)((26)*(32000000/4000000.0)));
  2493  05DE  3045               	movlw	69
  2494  05DF  0020               	movlb	0	; select bank0
  2495  05E0  00A6               	movwf	??_RTC_Read
  2496  05E1                     u1557:	
  2497  05E1  0BA6               	decfsz	??_RTC_Read,f
  2498  05E2  2DE1               	goto	u1557
  2499                           
  2500                           ;My_header.h: 379: return data;
  2501  05E3  0020               	movlb	0	; select bank0
  2502  05E4  0828               	movf	RTC_Read@data,w
  2503  05E5  0008               	return
  2504  05E6                     __end_of_RTC_Read:	
  2505                           
  2506                           	psect	text8
  2507  07C8                     __ptext8:	
  2508 ;; *************** function _I2C_rStart *****************
  2509 ;; Defined at:
  2510 ;;		line 220 in file "C:\Program Files (x86)\Microchip\xc8\v1.33\include\My_header.h"
  2511 ;; Parameters:    Size  Location     Type
  2512 ;;  adrs            2    2[BANK0 ] int 
  2513 ;;  rw              2    4[BANK0 ] int 
  2514 ;; Auto vars:     Size  Location     Type
  2515 ;;		None
  2516 ;; Return value:  Size  Location     Type
  2517 ;;                  1    wreg      unsigned char 
  2518 ;; Registers used:
  2519 ;;		wreg, status,2, status,0, pclath, cstack
  2520 ;; Tracked objects:
  2521 ;;		On entry : 0/0
  2522 ;;		On exit  : 0/0
  2523 ;;		Unchanged: 0/0
  2524 ;; Data sizes:     COMMON   BANK0   BANK1   BANK2   BANK3   BANK4
  2525 ;;      Params:         0       4       0       0       0       0
  2526 ;;      Locals:         0       0       0       0       0       0
  2527 ;;      Temps:          0       0       0       0       0       0
  2528 ;;      Totals:         0       4       0       0       0       0
  2529 ;;Total ram usage:        4 bytes
  2530 ;; Hardware stack levels used:    1
  2531 ;; Hardware stack levels required when called:    4
  2532 ;; This function calls:
  2533 ;;		_I2C_IdleCheck
  2534 ;; This function is called by:
  2535 ;;		_RTC_Read
  2536 ;; This function uses a non-reentrant model
  2537 ;;
  2538                           
  2539                           
  2540                           ;psect for function _I2C_rStart
  2541  07C8                     _I2C_rStart:	
  2542                           
  2543                           ;My_header.h: 222: I2C_IdleCheck(0x5);
  2544                           
  2545                           ;incstack = 0
  2546                           ; Regs used in _I2C_rStart: [wreg+status,2+status,0+pclath+cstack]
  2547  07C8  3005               	movlw	5
  2548  07C9  318F  2784  3187   	fcall	_I2C_IdleCheck
  2549                           
  2550                           ;My_header.h: 223: SSP1CON2bits.RSEN = 1;
  2551  07CC  0024               	movlb	4	; select bank4
  2552  07CD  1496               	bsf	22,1	;volatile
  2553                           
  2554                           ;My_header.h: 225: I2C_IdleCheck(0x5);
  2555  07CE  3005               	movlw	5
  2556  07CF  318F  2784  3187   	fcall	_I2C_IdleCheck
  2557                           
  2558                           ;My_header.h: 226: SSP1IF = 0;
  2559  07D2  0020               	movlb	0	; select bank0
  2560  07D3  1191               	bcf	17,3	;volatile
  2561                           
  2562                           ;My_header.h: 227: SSP1BUF = (char) ((adrs << 1) + rw);
  2563  07D4  3522               	lslf	I2C_rStart@adrs,w
  2564  07D5  0724               	addwf	I2C_rStart@rw,w
  2565  07D6  0024               	movlb	4	; select bank4
  2566  07D7  0091               	movwf	17	;volatile
  2567  07D8                     l190:	
  2568                           ;My_header.h: 228: while (!SSP1IF);
  2569                           
  2570  07D8  0020               	movlb	0	; select bank0
  2571  07D9  1D91               	btfss	17,3	;volatile
  2572  07DA  2FD8               	goto	l190
  2573                           
  2574                           ;My_header.h: 229: return SSP1CON2bits.ACKSTAT;
  2575  07DB  0024               	movlb	4	; select bank4
  2576  07DC  0E16               	swapf	22,w	;volatile
  2577  07DD  0C89               	rrf	9,f
  2578  07DE  0C89               	rrf	9,f
  2579  07DF  3901               	andlw	1
  2580  07E0  0008               	return
  2581  07E1                     __end_of_I2C_rStart:	
  2582                           
  2583                           	psect	text9
  2584  06F5                     __ptext9:	
  2585 ;; *************** function _I2C_Receive *****************
  2586 ;; Defined at:
  2587 ;;		line 246 in file "C:\Program Files (x86)\Microchip\xc8\v1.33\include\My_header.h"
  2588 ;; Parameters:    Size  Location     Type
  2589 ;;  ack             1    wreg     unsigned char 
  2590 ;; Auto vars:     Size  Location     Type
  2591 ;;  ack             1    3[BANK0 ] unsigned char 
  2592 ;;  data            1    4[BANK0 ] unsigned char 
  2593 ;; Return value:  Size  Location     Type
  2594 ;;                  1    wreg      unsigned char 
  2595 ;; Registers used:
  2596 ;;		wreg, status,2, status,0, pclath, cstack
  2597 ;; Tracked objects:
  2598 ;;		On entry : 0/0
  2599 ;;		On exit  : 0/0
  2600 ;;		Unchanged: 0/0
  2601 ;; Data sizes:     COMMON   BANK0   BANK1   BANK2   BANK3   BANK4
  2602 ;;      Params:         0       0       0       0       0       0
  2603 ;;      Locals:         0       2       0       0       0       0
  2604 ;;      Temps:          0       1       0       0       0       0
  2605 ;;      Totals:         0       3       0       0       0       0
  2606 ;;Total ram usage:        3 bytes
  2607 ;; Hardware stack levels used:    1
  2608 ;; Hardware stack levels required when called:    4
  2609 ;; This function calls:
  2610 ;;		_I2C_IdleCheck
  2611 ;; This function is called by:
  2612 ;;		_RTC_Read
  2613 ;; This function uses a non-reentrant model
  2614 ;;
  2615                           
  2616                           
  2617                           ;psect for function _I2C_Receive
  2618  06F5                     _I2C_Receive:	
  2619                           
  2620                           ;incstack = 0
  2621                           ; Regs used in _I2C_Receive: [wreg+status,2+status,0+pclath+cstack]
  2622                           ;I2C_Receive@ack stored from wreg
  2623  06F5  0020               	movlb	0	; select bank0
  2624  06F6  00A3               	movwf	I2C_Receive@ack
  2625                           
  2626                           ;My_header.h: 247: uint8_t data;
  2627                           ;My_header.h: 249: I2C_IdleCheck(0x5);
  2628  06F7  3005               	movlw	5
  2629  06F8  318F  2784  3186   	fcall	_I2C_IdleCheck
  2630                           
  2631                           ;My_header.h: 250: SSP1CON2bits.RCEN = 1;
  2632  06FB  0024               	movlb	4	; select bank4
  2633  06FC  1596               	bsf	22,3	;volatile
  2634                           
  2635                           ;My_header.h: 251: I2C_IdleCheck(0x4);
  2636  06FD  3004               	movlw	4
  2637  06FE  318F  2784  3186   	fcall	_I2C_IdleCheck
  2638                           
  2639                           ;My_header.h: 252: data = SSP1BUF;
  2640  0701  0024               	movlb	4	; select bank4
  2641  0702  0811               	movf	17,w	;volatile
  2642  0703  0020               	movlb	0	; select bank0
  2643  0704  00A2               	movwf	??_I2C_Receive
  2644  0705  0822               	movf	??_I2C_Receive,w
  2645  0706  00A4               	movwf	I2C_Receive@data
  2646                           
  2647                           ;My_header.h: 253: I2C_IdleCheck(0x5);
  2648  0707  3005               	movlw	5
  2649  0708  318F  2784         	fcall	_I2C_IdleCheck
  2650                           
  2651                           ;My_header.h: 254: SSP1CON2bits.ACKDT = ack;
  2652  070A  0020               	movlb	0	; select bank0
  2653  070B  0823               	movf	I2C_Receive@ack,w
  2654  070C  0024               	movlb	4	; select bank4
  2655  070D  1D03               	skipz
  2656  070E  1696               	bsf	22,5	;volatile
  2657  070F  1903               	skipnz
  2658  0710  1296               	bcf	22,5	;volatile
  2659                           
  2660                           ;My_header.h: 255: SSP1CON2bits.ACKEN = 1;
  2661  0711  1616               	bsf	22,4	;volatile
  2662                           
  2663                           ;My_header.h: 256: return data;
  2664  0712  0020               	movlb	0	; select bank0
  2665  0713  0824               	movf	I2C_Receive@data,w
  2666  0714  0008               	return
  2667  0715                     __end_of_I2C_Receive:	
  2668                           
  2669                           	psect	text10
  2670  0FD7                     __ptext10:	
  2671 ;; *************** function _LCD_SetCursor *****************
  2672 ;; Defined at:
  2673 ;;		line 280 in file "C:\Program Files (x86)\Microchip\xc8\v1.33\include\My_header.h"
  2674 ;; Parameters:    Size  Location     Type
  2675 ;;  col             1    wreg     unsigned char 
  2676 ;;  row             1    7[BANK0 ] unsigned char 
  2677 ;; Auto vars:     Size  Location     Type
  2678 ;;  col             1   10[BANK0 ] unsigned char 
  2679 ;;  row_offsets     2    8[BANK0 ] unsigned char [2]
  2680 ;; Return value:  Size  Location     Type
  2681 ;;		None               void
  2682 ;; Registers used:
  2683 ;;		wreg, fsr1l, fsr1h, status,2, status,0, pclath, cstack
  2684 ;; Tracked objects:
  2685 ;;		On entry : 0/0
  2686 ;;		On exit  : 0/0
  2687 ;;		Unchanged: 0/0
  2688 ;; Data sizes:     COMMON   BANK0   BANK1   BANK2   BANK3   BANK4
  2689 ;;      Params:         0       1       0       0       0       0
  2690 ;;      Locals:         0       3       0       0       0       0
  2691 ;;      Temps:          0       0       0       0       0       0
  2692 ;;      Totals:         0       4       0       0       0       0
  2693 ;;Total ram usage:        4 bytes
  2694 ;; Hardware stack levels used:    1
  2695 ;; Hardware stack levels required when called:    6
  2696 ;; This function calls:
  2697 ;;		_command
  2698 ;; This function is called by:
  2699 ;;		_timeset
  2700 ;;		_display
  2701 ;; This function uses a non-reentrant model
  2702 ;;
  2703                           
  2704                           
  2705                           ;psect for function _LCD_SetCursor
  2706  0FD7                     _LCD_SetCursor:	
  2707                           
  2708                           ;incstack = 0
  2709                           ; Regs used in _LCD_SetCursor: [wreg+fsr1l+fsr1h+status,2+status,0+pclath+cstack]
  2710                           ;LCD_SetCursor@col stored from wreg
  2711  0FD7  0020               	movlb	0	; select bank0
  2712  0FD8  00AA               	movwf	LCD_SetCursor@col
  2713                           
  2714                           ;My_header.h: 281: uint8_t row_offsets[] = {0x00, 0x40};
  2715  0FD9  084D               	movf	LCD_SetCursor@F2883+1,w
  2716  0FDA  01A9               	clrf	LCD_SetCursor@row_offsets+1
  2717  0FDB  07A9               	addwf	LCD_SetCursor@row_offsets+1,f
  2718  0FDC  084C               	movf	LCD_SetCursor@F2883,w
  2719  0FDD  01A8               	clrf	LCD_SetCursor@row_offsets
  2720  0FDE  07A8               	addwf	LCD_SetCursor@row_offsets,f
  2721                           
  2722                           ;My_header.h: 283: command(0x80 | (col + row_offsets[row]));
  2723  0FDF  0827               	movf	LCD_SetCursor@row,w
  2724  0FE0  3E28               	addlw	LCD_SetCursor@row_offsets& (0+255)
  2725  0FE1  0086               	movwf	6
  2726  0FE2  0187               	clrf	7
  2727  0FE3  0801               	movf	1,w
  2728  0FE4  072A               	addwf	LCD_SetCursor@col,w
  2729  0FE5  3880               	iorlw	128
  2730  0FE6  3187  2755         	fcall	_command
  2731  0FE8  0008               	return
  2732  0FE9                     __end_of_LCD_SetCursor:	
  2733                           
  2734                           	psect	text11
  2735  0715                     __ptext11:	
  2736 ;; *************** function _LCD_Putc *****************
  2737 ;; Defined at:
  2738 ;;		line 286 in file "C:\Program Files (x86)\Microchip\xc8\v1.33\include\My_header.h"
  2739 ;; Parameters:    Size  Location     Type
  2740 ;;  c               1    wreg     unsigned char 
  2741 ;; Auto vars:     Size  Location     Type
  2742 ;;  c               1    5[BANK0 ] unsigned char 
  2743 ;;  ans             1    6[BANK0 ] unsigned char 
  2744 ;; Return value:  Size  Location     Type
  2745 ;;		None               void
  2746 ;; Registers used:
  2747 ;;		wreg, status,2, status,0, pclath, cstack
  2748 ;; Tracked objects:
  2749 ;;		On entry : 0/0
  2750 ;;		On exit  : 0/0
  2751 ;;		Unchanged: 0/0
  2752 ;; Data sizes:     COMMON   BANK0   BANK1   BANK2   BANK3   BANK4
  2753 ;;      Params:         0       0       0       0       0       0
  2754 ;;      Locals:         0       2       0       0       0       0
  2755 ;;      Temps:          0       1       0       0       0       0
  2756 ;;      Totals:         0       3       0       0       0       0
  2757 ;;Total ram usage:        3 bytes
  2758 ;; Hardware stack levels used:    1
  2759 ;; Hardware stack levels required when called:    5
  2760 ;; This function calls:
  2761 ;;		_I2C_Send
  2762 ;;		_I2C_Start
  2763 ;;		_I2C_Stop
  2764 ;; This function is called by:
  2765 ;;		_timeset
  2766 ;;		_display
  2767 ;; This function uses a non-reentrant model
  2768 ;;
  2769                           
  2770                           
  2771                           ;psect for function _LCD_Putc
  2772  0715                     _LCD_Putc:	
  2773                           
  2774                           ;incstack = 0
  2775                           ; Regs used in _LCD_Putc: [wreg+status,2+status,0+pclath+cstack]
  2776                           ;LCD_Putc@c stored from wreg
  2777  0715  0020               	movlb	0	; select bank0
  2778  0716  00A5               	movwf	LCD_Putc@c
  2779                           
  2780                           ;My_header.h: 287: uint8_t ans;
  2781                           ;My_header.h: 289: ans = I2C_Start(0x3E, 0);
  2782  0717  01A2               	clrf	I2C_Start@rw
  2783  0718  303E               	movlw	62
  2784  0719  3187  27AD  3187   	fcall	_I2C_Start
  2785  071C  0020               	movlb	0	; select bank0
  2786  071D  00A4               	movwf	??_LCD_Putc
  2787  071E  0824               	movf	??_LCD_Putc,w
  2788  071F  00A6               	movwf	LCD_Putc@ans
  2789                           
  2790                           ;My_header.h: 290: if (ans == 0) {
  2791  0720  08A6               	movf	LCD_Putc@ans,f
  2792  0721  1D03               	skipz
  2793  0722  2F2C               	goto	l220
  2794                           
  2795                           ;My_header.h: 292: I2C_Send(0b11000000);
  2796  0723  30C0               	movlw	192
  2797  0724  318F  27A2  3187   	fcall	_I2C_Send
  2798                           
  2799                           ;My_header.h: 293: I2C_Send(c);
  2800  0727  0020               	movlb	0	; select bank0
  2801  0728  0825               	movf	LCD_Putc@c,w
  2802  0729  318F  27A2  3187   	fcall	_I2C_Send
  2803  072C                     l220:	
  2804                           
  2805                           ;My_header.h: 294: }
  2806                           ;My_header.h: 295: I2C_Stop();
  2807  072C  318F  275C  3187   	fcall	_I2C_Stop
  2808                           
  2809                           ;My_header.h: 296: _delay((unsigned long)((26)*(32000000/4000000.0)));
  2810  072F  3045               	movlw	69
  2811  0730  0020               	movlb	0	; select bank0
  2812  0731  00A4               	movwf	??_LCD_Putc
  2813  0732                     u1567:	
  2814  0732  0BA4               	decfsz	??_LCD_Putc,f
  2815  0733  2F32               	goto	u1567
  2816  0734  0008               	return
  2817  0735                     __end_of_LCD_Putc:	
  2818                           
  2819                           	psect	text12
  2820  0FC5                     __ptext12:	
  2821 ;; *************** function ___bmul *****************
  2822 ;; Defined at:
  2823 ;;		line 4 in file "C:\Program Files (x86)\Microchip\xc8\v1.33\sources\common\Umul8.c"
  2824 ;; Parameters:    Size  Location     Type
  2825 ;;  multiplier      1    wreg     unsigned char 
  2826 ;;  multiplicand    1    9[BANK0 ] unsigned char 
  2827 ;; Auto vars:     Size  Location     Type
  2828 ;;  multiplier      1   12[BANK0 ] unsigned char 
  2829 ;;  product         1   11[BANK0 ] unsigned char 
  2830 ;; Return value:  Size  Location     Type
  2831 ;;                  1    wreg      unsigned char 
  2832 ;; Registers used:
  2833 ;;		wreg, status,2, status,0
  2834 ;; Tracked objects:
  2835 ;;		On entry : 0/0
  2836 ;;		On exit  : 0/0
  2837 ;;		Unchanged: 0/0
  2838 ;; Data sizes:     COMMON   BANK0   BANK1   BANK2   BANK3   BANK4
  2839 ;;      Params:         0       1       0       0       0       0
  2840 ;;      Locals:         0       2       0       0       0       0
  2841 ;;      Temps:          0       1       0       0       0       0
  2842 ;;      Totals:         0       4       0       0       0       0
  2843 ;;Total ram usage:        4 bytes
  2844 ;; Hardware stack levels used:    1
  2845 ;; Hardware stack levels required when called:    3
  2846 ;; This function calls:
  2847 ;;		Nothing
  2848 ;; This function is called by:
  2849 ;;		_timeset
  2850 ;; This function uses a non-reentrant model
  2851 ;;
  2852                           
  2853                           
  2854                           ;psect for function ___bmul
  2855  0FC5                     ___bmul:	
  2856                           
  2857                           ;incstack = 0
  2858                           ; Regs used in ___bmul: [wreg+status,2+status,0]
  2859                           ;___bmul@multiplier stored from wreg
  2860  0FC5  0020               	movlb	0	; select bank0
  2861  0FC6  00AC               	movwf	___bmul@multiplier
  2862  0FC7  01AB               	clrf	___bmul@product
  2863  0FC8                     l1637:	
  2864  0FC8  1C2C               	btfss	___bmul@multiplier,0
  2865  0FC9  2FCE               	goto	l1641
  2866  0FCA  0829               	movf	___bmul@multiplicand,w
  2867  0FCB  00AA               	movwf	??___bmul
  2868  0FCC  082A               	movf	??___bmul,w
  2869  0FCD  07AB               	addwf	___bmul@product,f
  2870  0FCE                     l1641:	
  2871  0FCE  1003               	clrc
  2872  0FCF  0DA9               	rlf	___bmul@multiplicand,f
  2873  0FD0  1003               	clrc
  2874  0FD1  0CAC               	rrf	___bmul@multiplier,f
  2875  0FD2  08AC               	movf	___bmul@multiplier,f
  2876  0FD3  1D03               	skipz
  2877  0FD4  2FC8               	goto	l1637
  2878  0FD5  082B               	movf	___bmul@product,w
  2879  0FD6  0008               	return
  2880  0FD7                     __end_of___bmul:	
  2881                           
  2882                           	psect	text13
  2883  0523                     __ptext13:	
  2884 ;; *************** function ___awmod *****************
  2885 ;; Defined at:
  2886 ;;		line 6 in file "C:\Program Files (x86)\Microchip\xc8\v1.33\sources\common\awmod.c"
  2887 ;; Parameters:    Size  Location     Type
  2888 ;;  divisor         2    0[BANK0 ] int 
  2889 ;;  dividend        2    2[BANK0 ] int 
  2890 ;; Auto vars:     Size  Location     Type
  2891 ;;  sign            1    6[BANK0 ] unsigned char 
  2892 ;;  counter         1    5[BANK0 ] unsigned char 
  2893 ;; Return value:  Size  Location     Type
  2894 ;;                  2    0[BANK0 ] int 
  2895 ;; Registers used:
  2896 ;;		wreg, status,2, status,0
  2897 ;; Tracked objects:
  2898 ;;		On entry : 0/0
  2899 ;;		On exit  : 0/0
  2900 ;;		Unchanged: 0/0
  2901 ;; Data sizes:     COMMON   BANK0   BANK1   BANK2   BANK3   BANK4
  2902 ;;      Params:         0       4       0       0       0       0
  2903 ;;      Locals:         0       2       0       0       0       0
  2904 ;;      Temps:          0       1       0       0       0       0
  2905 ;;      Totals:         0       7       0       0       0       0
  2906 ;;Total ram usage:        7 bytes
  2907 ;; Hardware stack levels used:    1
  2908 ;; Hardware stack levels required when called:    3
  2909 ;; This function calls:
  2910 ;;		Nothing
  2911 ;; This function is called by:
  2912 ;;		_timeset
  2913 ;; This function uses a non-reentrant model
  2914 ;;
  2915                           
  2916                           
  2917                           ;psect for function ___awmod
  2918  0523                     ___awmod:	
  2919                           
  2920                           ;incstack = 0
  2921                           ; Regs used in ___awmod: [wreg+status,2+status,0]
  2922  0523  0020               	movlb	0	; select bank0
  2923  0524  01A6               	clrf	___awmod@sign
  2924  0525  1FA3               	btfss	___awmod@dividend+1,7
  2925  0526  2D2E               	goto	l1659
  2926  0527  09A2               	comf	___awmod@dividend,f
  2927  0528  09A3               	comf	___awmod@dividend+1,f
  2928  0529  0AA2               	incf	___awmod@dividend,f
  2929  052A  1903               	skipnz
  2930  052B  0AA3               	incf	___awmod@dividend+1,f
  2931  052C  01A6               	clrf	___awmod@sign
  2932  052D  0AA6               	incf	___awmod@sign,f
  2933  052E                     l1659:	
  2934  052E  1FA1               	btfss	___awmod@divisor+1,7
  2935  052F  2D35               	goto	l1663
  2936  0530  09A0               	comf	___awmod@divisor,f
  2937  0531  09A1               	comf	___awmod@divisor+1,f
  2938  0532  0AA0               	incf	___awmod@divisor,f
  2939  0533  1903               	skipnz
  2940  0534  0AA1               	incf	___awmod@divisor+1,f
  2941  0535                     l1663:	
  2942  0535  0821               	movf	___awmod@divisor+1,w
  2943  0536  0420               	iorwf	___awmod@divisor,w
  2944  0537  1903               	skipnz
  2945  0538  2D5C               	goto	l1681
  2946  0539  01A5               	clrf	___awmod@counter
  2947  053A  0AA5               	incf	___awmod@counter,f
  2948  053B                     l1671:	
  2949  053B  1BA1               	btfsc	___awmod@divisor+1,7
  2950  053C  2D47               	goto	l1673
  2951  053D  3001               	movlw	1
  2952  053E                     u1095:	
  2953  053E  35A0               	lslf	___awmod@divisor,f
  2954  053F  0DA1               	rlf	___awmod@divisor+1,f
  2955  0540  0B89               	decfsz	9,f
  2956  0541  2D3E               	goto	u1095
  2957  0542  3001               	movlw	1
  2958  0543  00A4               	movwf	??___awmod
  2959  0544  0824               	movf	??___awmod,w
  2960  0545  07A5               	addwf	___awmod@counter,f
  2961  0546  2D3B               	goto	l1671
  2962  0547                     l1673:	
  2963  0547  0821               	movf	___awmod@divisor+1,w
  2964  0548  0223               	subwf	___awmod@dividend+1,w
  2965  0549  1D03               	skipz
  2966  054A  2D4D               	goto	u1115
  2967  054B  0820               	movf	___awmod@divisor,w
  2968  054C  0222               	subwf	___awmod@dividend,w
  2969  054D                     u1115:	
  2970  054D  1C03               	skipc
  2971  054E  2D53               	goto	l1677
  2972  054F  0820               	movf	___awmod@divisor,w
  2973  0550  02A2               	subwf	___awmod@dividend,f
  2974  0551  0821               	movf	___awmod@divisor+1,w
  2975  0552  3BA3               	subwfb	___awmod@dividend+1,f
  2976  0553                     l1677:	
  2977  0553  3001               	movlw	1
  2978  0554                     u1125:	
  2979  0554  36A1               	lsrf	___awmod@divisor+1,f
  2980  0555  0CA0               	rrf	___awmod@divisor,f
  2981  0556  0B89               	decfsz	9,f
  2982  0557  2D54               	goto	u1125
  2983  0558  3001               	movlw	1
  2984  0559  02A5               	subwf	___awmod@counter,f
  2985  055A  1D03               	btfss	3,2
  2986  055B  2D47               	goto	l1673
  2987  055C                     l1681:	
  2988  055C  0826               	movf	___awmod@sign,w
  2989  055D  1903               	btfsc	3,2
  2990  055E  2D64               	goto	l1685
  2991  055F  09A2               	comf	___awmod@dividend,f
  2992  0560  09A3               	comf	___awmod@dividend+1,f
  2993  0561  0AA2               	incf	___awmod@dividend,f
  2994  0562  1903               	skipnz
  2995  0563  0AA3               	incf	___awmod@dividend+1,f
  2996  0564                     l1685:	
  2997  0564  0823               	movf	___awmod@dividend+1,w
  2998  0565  01A1               	clrf	?___awmod+1
  2999  0566  07A1               	addwf	?___awmod+1,f
  3000  0567  0822               	movf	___awmod@dividend,w
  3001  0568  01A0               	clrf	?___awmod
  3002  0569  07A0               	addwf	?___awmod,f
  3003  056A  0008               	return
  3004  056B                     __end_of___awmod:	
  3005                           
  3006                           	psect	text14
  3007  0735                     __ptext14:	
  3008 ;; *************** function _RTC_Write *****************
  3009 ;; Defined at:
  3010 ;;		line 350 in file "C:\Program Files (x86)\Microchip\xc8\v1.33\include\My_header.h"
  3011 ;; Parameters:    Size  Location     Type
  3012 ;;  Reg             1    wreg     unsigned char 
  3013 ;;  c               1    4[BANK0 ] unsigned char 
  3014 ;; Auto vars:     Size  Location     Type
  3015 ;;  Reg             1    6[BANK0 ] unsigned char 
  3016 ;;  ans             1    7[BANK0 ] unsigned char 
  3017 ;; Return value:  Size  Location     Type
  3018 ;;		None               void
  3019 ;; Registers used:
  3020 ;;		wreg, status,2, status,0, pclath, cstack
  3021 ;; Tracked objects:
  3022 ;;		On entry : 0/0
  3023 ;;		On exit  : 0/0
  3024 ;;		Unchanged: 0/0
  3025 ;; Data sizes:     COMMON   BANK0   BANK1   BANK2   BANK3   BANK4
  3026 ;;      Params:         0       1       0       0       0       0
  3027 ;;      Locals:         0       2       0       0       0       0
  3028 ;;      Temps:          0       1       0       0       0       0
  3029 ;;      Totals:         0       4       0       0       0       0
  3030 ;;Total ram usage:        4 bytes
  3031 ;; Hardware stack levels used:    1
  3032 ;; Hardware stack levels required when called:    5
  3033 ;; This function calls:
  3034 ;;		_I2C_Send
  3035 ;;		_I2C_Start
  3036 ;;		_I2C_Stop
  3037 ;; This function is called by:
  3038 ;;		_timeset
  3039 ;;		_main
  3040 ;; This function uses a non-reentrant model
  3041 ;;
  3042                           
  3043                           
  3044                           ;psect for function _RTC_Write
  3045  0735                     _RTC_Write:	
  3046                           
  3047                           ;incstack = 0
  3048                           ; Regs used in _RTC_Write: [wreg+status,2+status,0+pclath+cstack]
  3049                           ;RTC_Write@Reg stored from wreg
  3050  0735  0020               	movlb	0	; select bank0
  3051  0736  00A6               	movwf	RTC_Write@Reg
  3052                           
  3053                           ;My_header.h: 351: uint8_t ans;
  3054                           ;My_header.h: 353: ans = I2C_Start(0x68, 0);
  3055  0737  01A2               	clrf	I2C_Start@rw
  3056  0738  3068               	movlw	104
  3057  0739  3187  27AD  3187   	fcall	_I2C_Start
  3058  073C  0020               	movlb	0	; select bank0
  3059  073D  00A5               	movwf	??_RTC_Write
  3060  073E  0825               	movf	??_RTC_Write,w
  3061  073F  00A7               	movwf	RTC_Write@ans
  3062                           
  3063                           ;My_header.h: 354: if (ans == 0) {
  3064  0740  08A7               	movf	RTC_Write@ans,f
  3065  0741  1D03               	skipz
  3066  0742  2F4C               	goto	l240
  3067                           
  3068                           ;My_header.h: 356: I2C_Send(Reg);
  3069  0743  0826               	movf	RTC_Write@Reg,w
  3070  0744  318F  27A2  3187   	fcall	_I2C_Send
  3071                           
  3072                           ;My_header.h: 357: I2C_Send(c);
  3073  0747  0020               	movlb	0	; select bank0
  3074  0748  0824               	movf	RTC_Write@c,w
  3075  0749  318F  27A2  3187   	fcall	_I2C_Send
  3076  074C                     l240:	
  3077                           
  3078                           ;My_header.h: 358: }
  3079                           ;My_header.h: 359: I2C_Stop();
  3080  074C  318F  275C  3187   	fcall	_I2C_Stop
  3081                           
  3082                           ;My_header.h: 360: _delay((unsigned long)((26)*(32000000/4000000.0)));
  3083  074F  3045               	movlw	69
  3084  0750  0020               	movlb	0	; select bank0
  3085  0751  00A5               	movwf	??_RTC_Write
  3086  0752                     u1577:	
  3087  0752  0BA5               	decfsz	??_RTC_Write,f
  3088  0753  2F52               	goto	u1577
  3089  0754  0008               	return
  3090  0755                     __end_of_RTC_Write:	
  3091                           
  3092                           	psect	text15
  3093  05E6                     __ptext15:	
  3094 ;; *************** function _LCD_Puts *****************
  3095 ;; Defined at:
  3096 ;;		line 299 in file "C:\Program Files (x86)\Microchip\xc8\v1.33\include\My_header.h"
  3097 ;; Parameters:    Size  Location     Type
  3098 ;;  s               2    4[BANK0 ] PTR const unsigned char 
  3099 ;;		 -> STR_1(3), 
  3100 ;; Auto vars:     Size  Location     Type
  3101 ;;  ans             2    8[BANK0 ] int 
  3102 ;; Return value:  Size  Location     Type
  3103 ;;		None               void
  3104 ;; Registers used:
  3105 ;;		wreg, fsr0l, fsr0h, status,2, status,0, pclath, cstack
  3106 ;; Tracked objects:
  3107 ;;		On entry : 0/0
  3108 ;;		On exit  : 0/0
  3109 ;;		Unchanged: 0/0
  3110 ;; Data sizes:     COMMON   BANK0   BANK1   BANK2   BANK3   BANK4
  3111 ;;      Params:         0       2       0       0       0       0
  3112 ;;      Locals:         0       2       0       0       0       0
  3113 ;;      Temps:          0       2       0       0       0       0
  3114 ;;      Totals:         0       6       0       0       0       0
  3115 ;;Total ram usage:        6 bytes
  3116 ;; Hardware stack levels used:    1
  3117 ;; Hardware stack levels required when called:    5
  3118 ;; This function calls:
  3119 ;;		_I2C_Send
  3120 ;;		_I2C_Start
  3121 ;;		_I2C_Stop
  3122 ;; This function is called by:
  3123 ;;		_timeset
  3124 ;; This function uses a non-reentrant model
  3125 ;;
  3126                           
  3127                           
  3128                           ;psect for function _LCD_Puts
  3129  05E6                     _LCD_Puts:	
  3130                           
  3131                           ;My_header.h: 300: int ans;
  3132                           ;My_header.h: 302: ans = I2C_Start(0x3E, 0);
  3133                           
  3134                           ;incstack = 0
  3135                           ; Regs used in _LCD_Puts: [wreg-fsr0h+status,2+status,0+pclath+cstack]
  3136  05E6  0020               	movlb	0	; select bank0
  3137  05E7  01A2               	clrf	I2C_Start@rw
  3138  05E8  303E               	movlw	62
  3139  05E9  3187  27AD  3185   	fcall	_I2C_Start
  3140  05EC  0020               	movlb	0	; select bank0
  3141  05ED  00A6               	movwf	??_LCD_Puts
  3142  05EE  01A7               	clrf	??_LCD_Puts+1
  3143  05EF  0826               	movf	??_LCD_Puts,w
  3144  05F0  00A8               	movwf	LCD_Puts@ans
  3145  05F1  0827               	movf	??_LCD_Puts+1,w
  3146  05F2  00A9               	movwf	LCD_Puts@ans+1
  3147                           
  3148                           ;My_header.h: 303: if (ans == 0) {
  3149  05F3  0829               	movf	LCD_Puts@ans+1,w
  3150  05F4  0428               	iorwf	LCD_Puts@ans,w
  3151  05F5  1D03               	skipz
  3152  05F6  2E17               	goto	l1603
  3153                           
  3154                           ;My_header.h: 304: I2C_Send(0b01000000);
  3155  05F7  3040               	movlw	64
  3156  05F8  318F  27A2  3185   	fcall	_I2C_Send
  3157  05FB                     l1601:	
  3158                           ;My_header.h: 305: while (*s) {
  3159                           
  3160  05FB  0020               	movlb	0	; select bank0
  3161  05FC  0824               	movf	LCD_Puts@s,w
  3162  05FD  0084               	movwf	4
  3163  05FE  0825               	movf	LCD_Puts@s+1,w
  3164  05FF  0085               	movwf	5
  3165  0600  0800               	movf	0,w	;code access
  3166  0601  3800               	iorlw	0
  3167  0602  1903               	btfsc	3,2
  3168  0603  2E17               	goto	l1603
  3169                           
  3170                           ;My_header.h: 306: I2C_Send(*s++);
  3171  0604  0020               	movlb	0	; select bank0
  3172  0605  0824               	movf	LCD_Puts@s,w
  3173  0606  0084               	movwf	4
  3174  0607  0825               	movf	LCD_Puts@s+1,w
  3175  0608  0085               	movwf	5
  3176  0609  0800               	movf	0,w	;code access
  3177  060A  318F  27A2  3185   	fcall	_I2C_Send
  3178  060D  3001               	movlw	1
  3179  060E  0020               	movlb	0	; select bank0
  3180  060F  07A4               	addwf	LCD_Puts@s,f
  3181  0610  3000               	movlw	0
  3182  0611  3DA5               	addwfc	LCD_Puts@s+1,f
  3183                           
  3184                           ;My_header.h: 307: _delay((unsigned long)((26)*(32000000/4000000.0)));
  3185  0612  3045               	movlw	69
  3186  0613  00A6               	movwf	??_LCD_Puts
  3187  0614                     u1587:	
  3188  0614  0BA6               	decfsz	??_LCD_Puts,f
  3189  0615  2E14               	goto	u1587
  3190  0616  2DFB               	goto	l1601
  3191  0617                     l1603:	
  3192                           
  3193                           ;My_header.h: 308: }
  3194                           ;My_header.h: 309: }
  3195                           ;My_header.h: 310: I2C_Stop();
  3196  0617  318F  275C         	fcall	_I2C_Stop
  3197  0619  0008               	return
  3198  061A                     __end_of_LCD_Puts:	
  3199                           
  3200                           	psect	text16
  3201  0792                     __ptext16:	
  3202 ;; *************** function _ringbuf_init *****************
  3203 ;; Defined at:
  3204 ;;		line 109 in file "C:\Program Files (x86)\Microchip\xc8\v1.33\include\My_header.h"
  3205 ;; Parameters:    Size  Location     Type
  3206 ;;  rb              1    wreg     PTR struct ringbuf
  3207 ;;		 -> tx_buf(4), 
  3208 ;;  internal_buf    1    0[BANK0 ] PTR unsigned char 
  3209 ;;		 -> main@buf(70), 
  3210 ;;  bufsize         1    1[BANK0 ] unsigned char 
  3211 ;; Auto vars:     Size  Location     Type
  3212 ;;  rb              1    3[BANK0 ] PTR struct ringbuf
  3213 ;;		 -> tx_buf(4), 
  3214 ;; Return value:  Size  Location     Type
  3215 ;;		None               void
  3216 ;; Registers used:
  3217 ;;		wreg, fsr1l, fsr1h, status,2
  3218 ;; Tracked objects:
  3219 ;;		On entry : 0/0
  3220 ;;		On exit  : 0/0
  3221 ;;		Unchanged: 0/0
  3222 ;; Data sizes:     COMMON   BANK0   BANK1   BANK2   BANK3   BANK4
  3223 ;;      Params:         0       2       0       0       0       0
  3224 ;;      Locals:         0       1       0       0       0       0
  3225 ;;      Temps:          0       1       0       0       0       0
  3226 ;;      Totals:         0       4       0       0       0       0
  3227 ;;Total ram usage:        4 bytes
  3228 ;; Hardware stack levels used:    1
  3229 ;; Hardware stack levels required when called:    3
  3230 ;; This function calls:
  3231 ;;		Nothing
  3232 ;; This function is called by:
  3233 ;;		_main
  3234 ;; This function uses a non-reentrant model
  3235 ;;
  3236                           
  3237                           
  3238                           ;psect for function _ringbuf_init
  3239  0792                     _ringbuf_init:	
  3240                           
  3241                           ;incstack = 0
  3242                           ; Regs used in _ringbuf_init: [wreg+fsr1l+fsr1h+status,2]
  3243                           ;ringbuf_init@rb stored from wreg
  3244  0792  0020               	movlb	0	; select bank0
  3245  0793  00A3               	movwf	ringbuf_init@rb
  3246                           
  3247                           ;My_header.h: 110: rb->buf = internal_buf;
  3248  0794  0820               	movf	ringbuf_init@internal_buf,w
  3249  0795  00A2               	movwf	??_ringbuf_init
  3250  0796  0823               	movf	ringbuf_init@rb,w
  3251  0797  0086               	movwf	6
  3252  0798  0187               	clrf	7
  3253  0799  0822               	movf	??_ringbuf_init,w
  3254  079A  0081               	movwf	1
  3255                           
  3256                           ;My_header.h: 111: rb->size = bufsize;
  3257  079B  0821               	movf	ringbuf_init@bufsize,w
  3258  079C  00A2               	movwf	??_ringbuf_init
  3259  079D  0A23               	incf	ringbuf_init@rb,w
  3260  079E  0086               	movwf	6
  3261  079F  0187               	clrf	7
  3262  07A0  0822               	movf	??_ringbuf_init,w
  3263  07A1  0081               	movwf	1
  3264                           
  3265                           ;My_header.h: 112: rb->head = 0;
  3266  07A2  0823               	movf	ringbuf_init@rb,w
  3267  07A3  3E02               	addlw	2
  3268  07A4  0086               	movwf	6
  3269  07A5  0187               	clrf	7
  3270  07A6  0181               	clrf	1
  3271                           
  3272                           ;My_header.h: 113: rb->tail = 0;
  3273  07A7  0823               	movf	ringbuf_init@rb,w
  3274  07A8  3E03               	addlw	3
  3275  07A9  0086               	movwf	6
  3276  07AA  0187               	clrf	7
  3277  07AB  0181               	clrf	1
  3278  07AC  0008               	return
  3279  07AD                     __end_of_ringbuf_init:	
  3280                           
  3281                           	psect	text17
  3282  0775                     __ptext17:	
  3283 ;; *************** function _month_length *****************
  3284 ;; Defined at:
  3285 ;;		line 55 in file "PIC16F1827-I2C04.c"
  3286 ;; Parameters:    Size  Location     Type
  3287 ;;  year            1    wreg     unsigned char 
  3288 ;;  month           1    0[BANK0 ] unsigned char 
  3289 ;; Auto vars:     Size  Location     Type
  3290 ;;  year            1    1[BANK0 ] unsigned char 
  3291 ;; Return value:  Size  Location     Type
  3292 ;;                  1    wreg      unsigned char 
  3293 ;; Registers used:
  3294 ;;		wreg, fsr0l, fsr0h, status,2, status,0
  3295 ;; Tracked objects:
  3296 ;;		On entry : 0/0
  3297 ;;		On exit  : 0/0
  3298 ;;		Unchanged: 0/0
  3299 ;; Data sizes:     COMMON   BANK0   BANK1   BANK2   BANK3   BANK4
  3300 ;;      Params:         0       1       0       0       0       0
  3301 ;;      Locals:         0       1       0       0       0       0
  3302 ;;      Temps:          0       0       0       0       0       0
  3303 ;;      Totals:         0       2       0       0       0       0
  3304 ;;Total ram usage:        2 bytes
  3305 ;; Hardware stack levels used:    1
  3306 ;; Hardware stack levels required when called:    3
  3307 ;; This function calls:
  3308 ;;		Nothing
  3309 ;; This function is called by:
  3310 ;;		_main
  3311 ;; This function uses a non-reentrant model
  3312 ;;
  3313                           
  3314                           
  3315                           ;psect for function _month_length
  3316  0775                     _month_length:	
  3317                           
  3318                           ;incstack = 0
  3319                           ; Regs used in _month_length: [wreg-fsr0h+status,2+status,0]
  3320                           ;month_length@year stored from wreg
  3321  0775  0020               	movlb	0	; select bank0
  3322  0776  00A1               	movwf	month_length@year
  3323                           
  3324                           ;PIC16F1827-I2C04.c: 56: switch (month) {
  3325  0777  2F84               	goto	l1825
  3326  0778                     l1805:	
  3327                           ;PIC16F1827-I2C04.c: 57: case 1:
  3328                           
  3329                           
  3330                           ;PIC16F1827-I2C04.c: 58: case 3:
  3331                           ;PIC16F1827-I2C04.c: 59: case 5:
  3332                           ;PIC16F1827-I2C04.c: 60: case 7:
  3333                           ;PIC16F1827-I2C04.c: 61: case 8:
  3334                           ;PIC16F1827-I2C04.c: 62: case 10:
  3335                           ;PIC16F1827-I2C04.c: 63: case 12:
  3336                           ;PIC16F1827-I2C04.c: 64: return 31;
  3337  0778  301F               	movlw	31
  3338  0779  0008               	return
  3339  077A                     l1809:	
  3340                           ;PIC16F1827-I2C04.c: 65: case 4:
  3341                           
  3342                           
  3343                           ;PIC16F1827-I2C04.c: 66: case 6:
  3344                           ;PIC16F1827-I2C04.c: 67: case 9:
  3345                           ;PIC16F1827-I2C04.c: 68: case 11:
  3346                           ;PIC16F1827-I2C04.c: 69: return 30;
  3347  077A  301E               	movlw	30
  3348  077B  0008               	return
  3349  077C                     l1813:	
  3350                           ;PIC16F1827-I2C04.c: 70: case 2:
  3351                           
  3352                           
  3353                           ;PIC16F1827-I2C04.c: 71: if (year % 4 == 0) return 29;
  3354  077C  0821               	movf	month_length@year,w
  3355  077D  3903               	andlw	3
  3356  077E  1D03               	btfss	3,2
  3357  077F  2F82               	goto	l1821
  3358  0780  301D               	movlw	29
  3359  0781  0008               	return
  3360  0782                     l1821:	
  3361                           
  3362                           ;PIC16F1827-I2C04.c: 72: else return 28;
  3363  0782  301C               	movlw	28
  3364                           
  3365                           ;PIC16F1827-I2C04.c: 73: }
  3366  0783  0008               	return
  3367  0784                     l1825:	
  3368  0784  0820               	movf	month_length@month,w
  3369                           
  3370                           ; Switch size 1, requested type "space"
  3371                           ; Number of cases is 12, Range of values is 1 to 12
  3372                           ; switch strategies available:
  3373                           ; Name         Instructions Cycles
  3374                           ; direct_byte           33     9 (fixed)
  3375                           ; simple_byte           37    19 (average)
  3376                           ; jumptable            263     9 (fixed)
  3377                           ;	Chosen strategy is direct_byte
  3378  0785  3EFF               	addlw	-1
  3379  0786  1C03               	skipc
  3380  0787  0008               	return
  3381  0788  0084               	movwf	4
  3382  0789  300C               	movlw	12
  3383  078A  0204               	subwf	4,w
  3384  078B  1803               	skipnc
  3385  078C  0008               	return
  3386  078D  3187               	movlp	high S2017
  3387  078E  3504               	lslf	4,w
  3388  078F  3EE1               	addlw	low S2017
  3389  0790  0082               	movwf	2
  3390  0791  0008               	return
  3391  0792                     __end_of_month_length:	
  3392                           
  3393                           	psect	swtext1
  3394  07E1                     __pswtext1:	
  3395  07E1                     S2017:	
  3396  07E1  3187  2F78         	ljmp	l1805
  3397  07E3  3187  2F7C         	ljmp	l1813
  3398  07E5  3187  2F78         	ljmp	l1805
  3399  07E7  3187  2F7A         	ljmp	l1809
  3400  07E9  3187  2F78         	ljmp	l1805
  3401  07EB  3187  2F7A         	ljmp	l1809
  3402  07ED  3187  2F78         	ljmp	l1805
  3403  07EF  3187  2F78         	ljmp	l1805
  3404  07F1  3187  2F7A         	ljmp	l1809
  3405  07F3  3187  2F78         	ljmp	l1805
  3406  07F5  3187  2F7A         	ljmp	l1809
  3407  07F7  3187  2F78         	ljmp	l1805
  3408                           
  3409                           	psect	text18
  3410  0FB3                     __ptext18:	
  3411 ;; *************** function _UART_init *****************
  3412 ;; Defined at:
  3413 ;;		line 144 in file "C:\Program Files (x86)\Microchip\xc8\v1.33\include\My_header.h"
  3414 ;; Parameters:    Size  Location     Type
  3415 ;;  device          1    wreg     unsigned char 
  3416 ;; Auto vars:     Size  Location     Type
  3417 ;;  device          1    0[BANK0 ] unsigned char 
  3418 ;; Return value:  Size  Location     Type
  3419 ;;		None               void
  3420 ;; Registers used:
  3421 ;;		wreg, status,2, status,0
  3422 ;; Tracked objects:
  3423 ;;		On entry : 0/0
  3424 ;;		On exit  : 0/0
  3425 ;;		Unchanged: 0/0
  3426 ;; Data sizes:     COMMON   BANK0   BANK1   BANK2   BANK3   BANK4
  3427 ;;      Params:         0       0       0       0       0       0
  3428 ;;      Locals:         0       1       0       0       0       0
  3429 ;;      Temps:          0       0       0       0       0       0
  3430 ;;      Totals:         0       1       0       0       0       0
  3431 ;;Total ram usage:        1 bytes
  3432 ;; Hardware stack levels used:    1
  3433 ;; Hardware stack levels required when called:    3
  3434 ;; This function calls:
  3435 ;;		Nothing
  3436 ;; This function is called by:
  3437 ;;		_main
  3438 ;; This function uses a non-reentrant model
  3439 ;;
  3440                           
  3441                           
  3442                           ;psect for function _UART_init
  3443  0FB3                     _UART_init:	
  3444                           
  3445                           ;incstack = 0
  3446                           ; Regs used in _UART_init: [wreg+status,2+status,0]
  3447                           ;UART_init@device stored from wreg
  3448  0FB3  0020               	movlb	0	; select bank0
  3449  0FB4  00A0               	movwf	UART_init@device
  3450                           
  3451                           ;My_header.h: 145: if (device == 0) {
  3452  0FB5  08A0               	movf	UART_init@device,f
  3453  0FB6  1D03               	skipz
  3454  0FB7  0008               	return
  3455                           
  3456                           ;My_header.h: 146: SPEN = 1;
  3457  0FB8  0023               	movlb	3	; select bank3
  3458  0FB9  179D               	bsf	29,7	;volatile
  3459                           
  3460                           ;My_header.h: 147: RCSTA = 0x90;
  3461  0FBA  3090               	movlw	144
  3462  0FBB  009D               	movwf	29	;volatile
  3463                           
  3464                           ;My_header.h: 148: BRG16 = 0;
  3465  0FBC  119F               	bcf	31,3	;volatile
  3466                           
  3467                           ;My_header.h: 149: SPBRGH = 0;
  3468  0FBD  019C               	clrf	28	;volatile
  3469                           
  3470                           ;My_header.h: 150: SPBRGL = 207;
  3471  0FBE  30CF               	movlw	207
  3472  0FBF  009B               	movwf	27	;volatile
  3473                           
  3474                           ;My_header.h: 151: TXSTA = 0x24;
  3475  0FC0  3024               	movlw	36
  3476  0FC1  009E               	movwf	30	;volatile
  3477                           
  3478                           ;My_header.h: 152: PIE1bits.RCIE = 1;
  3479  0FC2  0021               	movlb	1	; select bank1
  3480  0FC3  1691               	bsf	17,5	;volatile
  3481  0FC4  0008               	return
  3482  0FC5                     __end_of_UART_init:	
  3483                           
  3484                           	psect	text19
  3485  056B                     __ptext19:	
  3486 ;; *************** function _LCD_init *****************
  3487 ;; Defined at:
  3488 ;;		line 332 in file "C:\Program Files (x86)\Microchip\xc8\v1.33\include\My_header.h"
  3489 ;; Parameters:    Size  Location     Type
  3490 ;;		None
  3491 ;; Auto vars:     Size  Location     Type
  3492 ;;		None
  3493 ;; Return value:  Size  Location     Type
  3494 ;;		None               void
  3495 ;; Registers used:
  3496 ;;		wreg, status,2, status,0, pclath, cstack
  3497 ;; Tracked objects:
  3498 ;;		On entry : 0/0
  3499 ;;		On exit  : 0/0
  3500 ;;		Unchanged: 0/0
  3501 ;; Data sizes:     COMMON   BANK0   BANK1   BANK2   BANK3   BANK4
  3502 ;;      Params:         0       0       0       0       0       0
  3503 ;;      Locals:         0       0       0       0       0       0
  3504 ;;      Temps:          0       3       0       0       0       0
  3505 ;;      Totals:         0       3       0       0       0       0
  3506 ;;Total ram usage:        3 bytes
  3507 ;; Hardware stack levels used:    1
  3508 ;; Hardware stack levels required when called:    7
  3509 ;; This function calls:
  3510 ;;		_LCD_Clear
  3511 ;;		_command
  3512 ;; This function is called by:
  3513 ;;		_main
  3514 ;; This function uses a non-reentrant model
  3515 ;;
  3516                           
  3517                           
  3518                           ;psect for function _LCD_init
  3519  056B                     _LCD_init:	
  3520                           
  3521                           ;My_header.h: 333: _delay((unsigned long)((40)*(32000000/4000.0)));
  3522                           
  3523                           ;incstack = 0
  3524                           ; Regs used in _LCD_init: [wreg+status,2+status,0+pclath+cstack]
  3525  056B  3002               	movlw	2
  3526  056C  0020               	movlb	0	; select bank0
  3527  056D  00AB               	movwf	??_LCD_init+2
  3528  056E  30A0               	movlw	160
  3529  056F  00AA               	movwf	??_LCD_init+1
  3530  0570  3092               	movlw	146
  3531  0571  00A9               	movwf	??_LCD_init
  3532  0572                     u1597:	
  3533  0572  0BA9               	decfsz	??_LCD_init,f
  3534  0573  2D72               	goto	u1597
  3535  0574  0BAA               	decfsz	??_LCD_init+1,f
  3536  0575  2D72               	goto	u1597
  3537  0576  0BAB               	decfsz	??_LCD_init+2,f
  3538  0577  2D72               	goto	u1597
  3539  0578  0000               	nop
  3540                           
  3541                           ;My_header.h: 334: command(0x38);
  3542  0579  3038               	movlw	56
  3543  057A  3187  2755  3185   	fcall	_command
  3544                           
  3545                           ;My_header.h: 335: command(0x39);
  3546  057D  3039               	movlw	57
  3547  057E  3187  2755  3185   	fcall	_command
  3548                           
  3549                           ;My_header.h: 336: command(0x14);
  3550  0581  3014               	movlw	20
  3551  0582  3187  2755  3185   	fcall	_command
  3552                           
  3553                           ;My_header.h: 337: command(0x70);
  3554  0585  3070               	movlw	112
  3555  0586  3187  2755  3185   	fcall	_command
  3556                           
  3557                           ;My_header.h: 338: command(0x56);
  3558  0589  3056               	movlw	86
  3559  058A  3187  2755  3185   	fcall	_command
  3560                           
  3561                           ;My_header.h: 339: command(0x6C);
  3562  058D  306C               	movlw	108
  3563  058E  3187  2755  3185   	fcall	_command
  3564                           
  3565                           ;My_header.h: 340: _delay((unsigned long)((200)*(32000000/4000.0)));
  3566  0591  3009               	movlw	9
  3567  0592  0020               	movlb	0	; select bank0
  3568  0593  00AB               	movwf	??_LCD_init+2
  3569  0594  301E               	movlw	30
  3570  0595  00AA               	movwf	??_LCD_init+1
  3571  0596  30EB               	movlw	235
  3572  0597  00A9               	movwf	??_LCD_init
  3573  0598                     u1607:	
  3574  0598  0BA9               	decfsz	??_LCD_init,f
  3575  0599  2D98               	goto	u1607
  3576  059A  0BAA               	decfsz	??_LCD_init+1,f
  3577  059B  2D98               	goto	u1607
  3578  059C  0BAB               	decfsz	??_LCD_init+2,f
  3579  059D  2D98               	goto	u1607
  3580  059E  0000               	nop
  3581                           
  3582                           ;My_header.h: 341: command(0x38);
  3583  059F  3038               	movlw	56
  3584  05A0  3187  2755  3185   	fcall	_command
  3585                           
  3586                           ;My_header.h: 342: command(0x0C);
  3587  05A3  300C               	movlw	12
  3588  05A4  3187  2755  3185   	fcall	_command
  3589                           
  3590                           ;My_header.h: 343: command(0x06);
  3591  05A7  3006               	movlw	6
  3592  05A8  3187  2755  3185   	fcall	_command
  3593                           
  3594                           ;My_header.h: 344: LCD_Clear();
  3595  05AB  318F  2793         	fcall	_LCD_Clear
  3596  05AD  0008               	return
  3597  05AE                     __end_of_LCD_init:	
  3598                           
  3599                           	psect	text20
  3600  0F93                     __ptext20:	
  3601 ;; *************** function _LCD_Clear *****************
  3602 ;; Defined at:
  3603 ;;		line 275 in file "C:\Program Files (x86)\Microchip\xc8\v1.33\include\My_header.h"
  3604 ;; Parameters:    Size  Location     Type
  3605 ;;		None
  3606 ;; Auto vars:     Size  Location     Type
  3607 ;;		None
  3608 ;; Return value:  Size  Location     Type
  3609 ;;		None               void
  3610 ;; Registers used:
  3611 ;;		wreg, status,2, status,0, pclath, cstack
  3612 ;; Tracked objects:
  3613 ;;		On entry : 0/0
  3614 ;;		On exit  : 0/0
  3615 ;;		Unchanged: 0/0
  3616 ;; Data sizes:     COMMON   BANK0   BANK1   BANK2   BANK3   BANK4
  3617 ;;      Params:         0       0       0       0       0       0
  3618 ;;      Locals:         0       0       0       0       0       0
  3619 ;;      Temps:          0       2       0       0       0       0
  3620 ;;      Totals:         0       2       0       0       0       0
  3621 ;;Total ram usage:        2 bytes
  3622 ;; Hardware stack levels used:    1
  3623 ;; Hardware stack levels required when called:    6
  3624 ;; This function calls:
  3625 ;;		_command
  3626 ;; This function is called by:
  3627 ;;		_LCD_init
  3628 ;; This function uses a non-reentrant model
  3629 ;;
  3630                           
  3631                           
  3632                           ;psect for function _LCD_Clear
  3633  0F93                     _LCD_Clear:	
  3634                           
  3635                           ;My_header.h: 276: command(0x01);
  3636                           
  3637                           ;incstack = 0
  3638                           ; Regs used in _LCD_Clear: [wreg+status,2+status,0+pclath+cstack]
  3639  0F93  3001               	movlw	1
  3640  0F94  3187  2755  318F   	fcall	_command
  3641                           
  3642                           ;My_header.h: 277: _delay((unsigned long)((1100)*(32000000/4000000.0)));
  3643  0F97  300C               	movlw	12
  3644  0F98  0020               	movlb	0	; select bank0
  3645  0F99  00A8               	movwf	??_LCD_Clear+1
  3646  0F9A  306C               	movlw	108
  3647  0F9B  00A7               	movwf	??_LCD_Clear
  3648  0F9C                     u1617:	
  3649  0F9C  0BA7               	decfsz	??_LCD_Clear,f
  3650  0F9D  2F9C               	goto	u1617
  3651  0F9E  0BA8               	decfsz	??_LCD_Clear+1,f
  3652  0F9F  2F9C               	goto	u1617
  3653  0FA0  0000               	nop
  3654  0FA1  0008               	return
  3655  0FA2                     __end_of_LCD_Clear:	
  3656                           
  3657                           	psect	text21
  3658  0755                     __ptext21:	
  3659 ;; *************** function _command *****************
  3660 ;; Defined at:
  3661 ;;		line 262 in file "C:\Program Files (x86)\Microchip\xc8\v1.33\include\My_header.h"
  3662 ;; Parameters:    Size  Location     Type
  3663 ;;  c               1    wreg     unsigned char 
  3664 ;; Auto vars:     Size  Location     Type
  3665 ;;  c               1    5[BANK0 ] unsigned char 
  3666 ;;  ans             1    6[BANK0 ] unsigned char 
  3667 ;; Return value:  Size  Location     Type
  3668 ;;		None               void
  3669 ;; Registers used:
  3670 ;;		wreg, status,2, status,0, pclath, cstack
  3671 ;; Tracked objects:
  3672 ;;		On entry : 0/0
  3673 ;;		On exit  : 0/0
  3674 ;;		Unchanged: 0/0
  3675 ;; Data sizes:     COMMON   BANK0   BANK1   BANK2   BANK3   BANK4
  3676 ;;      Params:         0       0       0       0       0       0
  3677 ;;      Locals:         0       2       0       0       0       0
  3678 ;;      Temps:          0       1       0       0       0       0
  3679 ;;      Totals:         0       3       0       0       0       0
  3680 ;;Total ram usage:        3 bytes
  3681 ;; Hardware stack levels used:    1
  3682 ;; Hardware stack levels required when called:    5
  3683 ;; This function calls:
  3684 ;;		_I2C_Send
  3685 ;;		_I2C_Start
  3686 ;;		_I2C_Stop
  3687 ;; This function is called by:
  3688 ;;		_LCD_Clear
  3689 ;;		_LCD_SetCursor
  3690 ;;		_LCD_init
  3691 ;; This function uses a non-reentrant model
  3692 ;;
  3693                           
  3694                           
  3695                           ;psect for function _command
  3696  0755                     _command:	
  3697                           
  3698                           ;incstack = 0
  3699                           ; Regs used in _command: [wreg+status,2+status,0+pclath+cstack]
  3700                           ;command@c stored from wreg
  3701  0755  0020               	movlb	0	; select bank0
  3702  0756  00A5               	movwf	command@c
  3703                           
  3704                           ;My_header.h: 263: uint8_t ans;
  3705                           ;My_header.h: 265: ans = I2C_Start(0x3E, 0);
  3706  0757  01A2               	clrf	I2C_Start@rw
  3707  0758  303E               	movlw	62
  3708  0759  3187  27AD  3187   	fcall	_I2C_Start
  3709  075C  0020               	movlb	0	; select bank0
  3710  075D  00A4               	movwf	??_command
  3711  075E  0824               	movf	??_command,w
  3712  075F  00A6               	movwf	command@ans
  3713                           
  3714                           ;My_header.h: 266: if (ans == 0) {
  3715  0760  08A6               	movf	command@ans,f
  3716  0761  1D03               	skipz
  3717  0762  2F6C               	goto	l208
  3718                           
  3719                           ;My_header.h: 268: I2C_Send(0b10000000);
  3720  0763  3080               	movlw	128
  3721  0764  318F  27A2  3187   	fcall	_I2C_Send
  3722                           
  3723                           ;My_header.h: 269: I2C_Send(c);
  3724  0767  0020               	movlb	0	; select bank0
  3725  0768  0825               	movf	command@c,w
  3726  0769  318F  27A2  3187   	fcall	_I2C_Send
  3727  076C                     l208:	
  3728                           
  3729                           ;My_header.h: 270: }
  3730                           ;My_header.h: 271: I2C_Stop();
  3731  076C  318F  275C  3187   	fcall	_I2C_Stop
  3732                           
  3733                           ;My_header.h: 272: _delay((unsigned long)((26)*(32000000/4000000.0)));
  3734  076F  3045               	movlw	69
  3735  0770  0020               	movlb	0	; select bank0
  3736  0771  00A4               	movwf	??_command
  3737  0772                     u1627:	
  3738  0772  0BA4               	decfsz	??_command,f
  3739  0773  2F72               	goto	u1627
  3740  0774  0008               	return
  3741  0775                     __end_of_command:	
  3742                           
  3743                           	psect	text22
  3744  0F5C                     __ptext22:	
  3745 ;; *************** function _I2C_Stop *****************
  3746 ;; Defined at:
  3747 ;;		line 232 in file "C:\Program Files (x86)\Microchip\xc8\v1.33\include\My_header.h"
  3748 ;; Parameters:    Size  Location     Type
  3749 ;;		None
  3750 ;; Auto vars:     Size  Location     Type
  3751 ;;		None
  3752 ;; Return value:  Size  Location     Type
  3753 ;;		None               void
  3754 ;; Registers used:
  3755 ;;		wreg, status,2, status,0, pclath, cstack
  3756 ;; Tracked objects:
  3757 ;;		On entry : 0/0
  3758 ;;		On exit  : 0/0
  3759 ;;		Unchanged: 0/0
  3760 ;; Data sizes:     COMMON   BANK0   BANK1   BANK2   BANK3   BANK4
  3761 ;;      Params:         0       0       0       0       0       0
  3762 ;;      Locals:         0       0       0       0       0       0
  3763 ;;      Temps:          0       0       0       0       0       0
  3764 ;;      Totals:         0       0       0       0       0       0
  3765 ;;Total ram usage:        0 bytes
  3766 ;; Hardware stack levels used:    1
  3767 ;; Hardware stack levels required when called:    4
  3768 ;; This function calls:
  3769 ;;		_I2C_IdleCheck
  3770 ;; This function is called by:
  3771 ;;		_command
  3772 ;;		_LCD_Putc
  3773 ;;		_LCD_Puts
  3774 ;;		_RTC_Write
  3775 ;;		_RTC_Read
  3776 ;;		_LCD_CreateChar
  3777 ;; This function uses a non-reentrant model
  3778 ;;
  3779                           
  3780                           
  3781                           ;psect for function _I2C_Stop
  3782  0F5C                     _I2C_Stop:	
  3783                           
  3784                           ;My_header.h: 234: I2C_IdleCheck(0x5);
  3785                           
  3786                           ;incstack = 0
  3787                           ; Regs used in _I2C_Stop: [wreg+status,2+status,0+pclath+cstack]
  3788  0F5C  3005               	movlw	5
  3789  0F5D  318F  2784         	fcall	_I2C_IdleCheck
  3790                           
  3791                           ;My_header.h: 235: SSP1CON2bits.PEN = 1;
  3792  0F5F  0024               	movlb	4	; select bank4
  3793  0F60  1516               	bsf	22,2	;volatile
  3794  0F61  0008               	return
  3795  0F62                     __end_of_I2C_Stop:	
  3796                           
  3797                           	psect	text23
  3798  07AD                     __ptext23:	
  3799 ;; *************** function _I2C_Start *****************
  3800 ;; Defined at:
  3801 ;;		line 208 in file "C:\Program Files (x86)\Microchip\xc8\v1.33\include\My_header.h"
  3802 ;; Parameters:    Size  Location     Type
  3803 ;;  adrs            1    wreg     unsigned char 
  3804 ;;  rw              1    2[BANK0 ] unsigned char 
  3805 ;; Auto vars:     Size  Location     Type
  3806 ;;  adrs            1    3[BANK0 ] unsigned char 
  3807 ;; Return value:  Size  Location     Type
  3808 ;;                  1    wreg      unsigned char 
  3809 ;; Registers used:
  3810 ;;		wreg, status,2, status,0, pclath, cstack
  3811 ;; Tracked objects:
  3812 ;;		On entry : 0/0
  3813 ;;		On exit  : 0/0
  3814 ;;		Unchanged: 0/0
  3815 ;; Data sizes:     COMMON   BANK0   BANK1   BANK2   BANK3   BANK4
  3816 ;;      Params:         0       1       0       0       0       0
  3817 ;;      Locals:         0       1       0       0       0       0
  3818 ;;      Temps:          0       0       0       0       0       0
  3819 ;;      Totals:         0       2       0       0       0       0
  3820 ;;Total ram usage:        2 bytes
  3821 ;; Hardware stack levels used:    1
  3822 ;; Hardware stack levels required when called:    4
  3823 ;; This function calls:
  3824 ;;		_I2C_IdleCheck
  3825 ;; This function is called by:
  3826 ;;		_command
  3827 ;;		_LCD_Putc
  3828 ;;		_LCD_Puts
  3829 ;;		_RTC_Write
  3830 ;;		_RTC_Read
  3831 ;;		_LCD_CreateChar
  3832 ;; This function uses a non-reentrant model
  3833 ;;
  3834                           
  3835                           
  3836                           ;psect for function _I2C_Start
  3837  07AD                     _I2C_Start:	
  3838                           
  3839                           ;incstack = 0
  3840                           ; Regs used in _I2C_Start: [wreg+status,2+status,0+pclath+cstack]
  3841                           ;I2C_Start@adrs stored from wreg
  3842  07AD  0020               	movlb	0	; select bank0
  3843  07AE  00A3               	movwf	I2C_Start@adrs
  3844                           
  3845                           ;My_header.h: 210: I2C_IdleCheck(0x5);
  3846  07AF  3005               	movlw	5
  3847  07B0  318F  2784  3187   	fcall	_I2C_IdleCheck
  3848                           
  3849                           ;My_header.h: 211: SSP1CON2bits.SEN = 1;
  3850  07B3  0024               	movlb	4	; select bank4
  3851  07B4  1416               	bsf	22,0	;volatile
  3852                           
  3853                           ;My_header.h: 213: I2C_IdleCheck(0x5);
  3854  07B5  3005               	movlw	5
  3855  07B6  318F  2784  3187   	fcall	_I2C_IdleCheck
  3856                           
  3857                           ;My_header.h: 214: SSP1IF = 0;
  3858  07B9  0020               	movlb	0	; select bank0
  3859  07BA  1191               	bcf	17,3	;volatile
  3860                           
  3861                           ;My_header.h: 215: SSP1BUF = (uint8_t) ((adrs << 1) + rw);
  3862  07BB  3523               	lslf	I2C_Start@adrs,w
  3863  07BC  0722               	addwf	I2C_Start@rw,w
  3864  07BD  0024               	movlb	4	; select bank4
  3865  07BE  0091               	movwf	17	;volatile
  3866  07BF                     l184:	
  3867                           ;My_header.h: 216: while (!SSP1IF);
  3868                           
  3869  07BF  0020               	movlb	0	; select bank0
  3870  07C0  1D91               	btfss	17,3	;volatile
  3871  07C1  2FBF               	goto	l184
  3872                           
  3873                           ;My_header.h: 217: return SSP1CON2bits.ACKSTAT;
  3874  07C2  0024               	movlb	4	; select bank4
  3875  07C3  0E16               	swapf	22,w	;volatile
  3876  07C4  0C89               	rrf	9,f
  3877  07C5  0C89               	rrf	9,f
  3878  07C6  3901               	andlw	1
  3879  07C7  0008               	return
  3880  07C8                     __end_of_I2C_Start:	
  3881                           
  3882                           	psect	text24
  3883  0FA2                     __ptext24:	
  3884 ;; *************** function _I2C_Send *****************
  3885 ;; Defined at:
  3886 ;;		line 238 in file "C:\Program Files (x86)\Microchip\xc8\v1.33\include\My_header.h"
  3887 ;; Parameters:    Size  Location     Type
  3888 ;;  data            1    wreg     unsigned char 
  3889 ;; Auto vars:     Size  Location     Type
  3890 ;;  data            1    2[BANK0 ] unsigned char 
  3891 ;; Return value:  Size  Location     Type
  3892 ;;                  1    wreg      unsigned char 
  3893 ;; Registers used:
  3894 ;;		wreg, status,2, status,0, pclath, cstack
  3895 ;; Tracked objects:
  3896 ;;		On entry : 0/0
  3897 ;;		On exit  : 0/0
  3898 ;;		Unchanged: 0/0
  3899 ;; Data sizes:     COMMON   BANK0   BANK1   BANK2   BANK3   BANK4
  3900 ;;      Params:         0       0       0       0       0       0
  3901 ;;      Locals:         0       1       0       0       0       0
  3902 ;;      Temps:          0       0       0       0       0       0
  3903 ;;      Totals:         0       1       0       0       0       0
  3904 ;;Total ram usage:        1 bytes
  3905 ;; Hardware stack levels used:    1
  3906 ;; Hardware stack levels required when called:    4
  3907 ;; This function calls:
  3908 ;;		_I2C_IdleCheck
  3909 ;; This function is called by:
  3910 ;;		_command
  3911 ;;		_LCD_Putc
  3912 ;;		_LCD_Puts
  3913 ;;		_RTC_Write
  3914 ;;		_RTC_Read
  3915 ;;		_LCD_CreateChar
  3916 ;; This function uses a non-reentrant model
  3917 ;;
  3918                           
  3919                           
  3920                           ;psect for function _I2C_Send
  3921  0FA2                     _I2C_Send:	
  3922                           
  3923                           ;incstack = 0
  3924                           ; Regs used in _I2C_Send: [wreg+status,2+status,0+pclath+cstack]
  3925                           ;I2C_Send@data stored from wreg
  3926  0FA2  0020               	movlb	0	; select bank0
  3927  0FA3  00A2               	movwf	I2C_Send@data
  3928                           
  3929                           ;My_header.h: 239: I2C_IdleCheck(0x5);
  3930  0FA4  3005               	movlw	5
  3931  0FA5  318F  2784  318F   	fcall	_I2C_IdleCheck
  3932                           
  3933                           ;My_header.h: 240: SSP1IF = 0;
  3934  0FA8  0020               	movlb	0	; select bank0
  3935  0FA9  1191               	bcf	17,3	;volatile
  3936                           
  3937                           ;My_header.h: 241: SSP1BUF = data;
  3938  0FAA  0822               	movf	I2C_Send@data,w
  3939  0FAB  0024               	movlb	4	; select bank4
  3940  0FAC  0091               	movwf	17	;volatile
  3941  0FAD                     l199:	
  3942                           ;My_header.h: 242: while (!SSP1IF);
  3943                           
  3944  0FAD  0020               	movlb	0	; select bank0
  3945  0FAE  1D91               	btfss	17,3	;volatile
  3946  0FAF  2FAD               	goto	l199
  3947                           
  3948                           ;My_header.h: 243: return SSP1CON2bits.ACKSTAT;
  3949                           ;	Return value of _I2C_Send is never used
  3950  0FB0  0024               	movlb	4	; select bank4
  3951  0FB1  0816               	movf	22,w	;volatile
  3952  0FB2  0008               	return
  3953  0FB3                     __end_of_I2C_Send:	
  3954                           
  3955                           	psect	text25
  3956  0F84                     __ptext25:	
  3957 ;; *************** function _I2C_IdleCheck *****************
  3958 ;; Defined at:
  3959 ;;		line 194 in file "C:\Program Files (x86)\Microchip\xc8\v1.33\include\My_header.h"
  3960 ;; Parameters:    Size  Location     Type
  3961 ;;  mask            1    wreg     unsigned char 
  3962 ;; Auto vars:     Size  Location     Type
  3963 ;;  mask            1    1[BANK0 ] unsigned char 
  3964 ;; Return value:  Size  Location     Type
  3965 ;;		None               void
  3966 ;; Registers used:
  3967 ;;		wreg, status,2, status,0
  3968 ;; Tracked objects:
  3969 ;;		On entry : 0/0
  3970 ;;		On exit  : 0/0
  3971 ;;		Unchanged: 0/0
  3972 ;; Data sizes:     COMMON   BANK0   BANK1   BANK2   BANK3   BANK4
  3973 ;;      Params:         0       0       0       0       0       0
  3974 ;;      Locals:         0       1       0       0       0       0
  3975 ;;      Temps:          0       1       0       0       0       0
  3976 ;;      Totals:         0       2       0       0       0       0
  3977 ;;Total ram usage:        2 bytes
  3978 ;; Hardware stack levels used:    1
  3979 ;; Hardware stack levels required when called:    3
  3980 ;; This function calls:
  3981 ;;		Nothing
  3982 ;; This function is called by:
  3983 ;;		_I2C_Start
  3984 ;;		_I2C_rStart
  3985 ;;		_I2C_Stop
  3986 ;;		_I2C_Send
  3987 ;;		_I2C_Receive
  3988 ;; This function uses a non-reentrant model
  3989 ;;
  3990                           
  3991                           
  3992                           ;psect for function _I2C_IdleCheck
  3993  0F84                     _I2C_IdleCheck:	
  3994                           
  3995                           ;incstack = 0
  3996                           ; Regs used in _I2C_IdleCheck: [wreg+status,2+status,0]
  3997                           ;I2C_IdleCheck@mask stored from wreg
  3998  0F84  0020               	movlb	0	; select bank0
  3999  0F85  00A1               	movwf	I2C_IdleCheck@mask
  4000  0F86                     l1421:	
  4001                           ;My_header.h: 195: while ((SSP1CON2 & 0x1F) | (SSP1STAT & mask));
  4002                           
  4003  0F86  0821               	movf	I2C_IdleCheck@mask,w
  4004  0F87  0024               	movlb	4	; select bank4
  4005  0F88  0514               	andwf	20,w	;volatile
  4006  0F89  0020               	movlb	0	; select bank0
  4007  0F8A  00A0               	movwf	??_I2C_IdleCheck
  4008  0F8B  0024               	movlb	4	; select bank4
  4009  0F8C  0816               	movf	22,w	;volatile
  4010  0F8D  391F               	andlw	31
  4011  0F8E  0020               	movlb	0	; select bank0
  4012  0F8F  0420               	iorwf	??_I2C_IdleCheck,w
  4013  0F90  1903               	btfsc	3,2
  4014  0F91  0008               	return
  4015  0F92  2F86               	goto	l1421
  4016  0F93                     __end_of_I2C_IdleCheck:	
  4017                           
  4018                           	psect	text26
  4019  0F6D                     __ptext26:	
  4020 ;; *************** function _I2C_init *****************
  4021 ;; Defined at:
  4022 ;;		line 198 in file "C:\Program Files (x86)\Microchip\xc8\v1.33\include\My_header.h"
  4023 ;; Parameters:    Size  Location     Type
  4024 ;;		None
  4025 ;; Auto vars:     Size  Location     Type
  4026 ;;		None
  4027 ;; Return value:  Size  Location     Type
  4028 ;;		None               void
  4029 ;; Registers used:
  4030 ;;		wreg
  4031 ;; Tracked objects:
  4032 ;;		On entry : 0/0
  4033 ;;		On exit  : 0/0
  4034 ;;		Unchanged: 0/0
  4035 ;; Data sizes:     COMMON   BANK0   BANK1   BANK2   BANK3   BANK4
  4036 ;;      Params:         0       0       0       0       0       0
  4037 ;;      Locals:         0       0       0       0       0       0
  4038 ;;      Temps:          0       0       0       0       0       0
  4039 ;;      Totals:         0       0       0       0       0       0
  4040 ;;Total ram usage:        0 bytes
  4041 ;; Hardware stack levels used:    1
  4042 ;; Hardware stack levels required when called:    3
  4043 ;; This function calls:
  4044 ;;		Nothing
  4045 ;; This function is called by:
  4046 ;;		_main
  4047 ;; This function uses a non-reentrant model
  4048 ;;
  4049                           
  4050                           
  4051                           ;psect for function _I2C_init
  4052  0F6D                     _I2C_init:	
  4053                           
  4054                           ;My_header.h: 199: SSP1STAT = 0b10000000;
  4055                           
  4056                           ;incstack = 0
  4057                           ; Regs used in _I2C_init: [wreg]
  4058  0F6D  3080               	movlw	128
  4059  0F6E  0024               	movlb	4	; select bank4
  4060  0F6F  0094               	movwf	20	;volatile
  4061                           
  4062                           ;My_header.h: 200: SSP1CON1 = 0b00101000;
  4063  0F70  3028               	movlw	40
  4064  0F71  0095               	movwf	21	;volatile
  4065                           
  4066                           ;My_header.h: 201: SSP1ADD = 0x13;
  4067  0F72  3013               	movlw	19
  4068  0F73  0092               	movwf	18	;volatile
  4069                           
  4070                           ;My_header.h: 204: SSP1IF = 0;
  4071  0F74  0020               	movlb	0	; select bank0
  4072  0F75  1191               	bcf	17,3	;volatile
  4073                           
  4074                           ;My_header.h: 205: BCL1IF = 0;
  4075  0F76  1192               	bcf	18,3	;volatile
  4076  0F77  0008               	return
  4077  0F78                     __end_of_I2C_init:	
  4078                           
  4079                           	psect	intentry
  4080  0004                     __pintentry:	
  4081 ;; *************** function _isr *****************
  4082 ;; Defined at:
  4083 ;;		line 40 in file "PIC16F1827-I2C04.c"
  4084 ;; Parameters:    Size  Location     Type
  4085 ;;		None
  4086 ;; Auto vars:     Size  Location     Type
  4087 ;;		None
  4088 ;; Return value:  Size  Location     Type
  4089 ;;		None               void
  4090 ;; Registers used:
  4091 ;;		wreg, fsr0l, fsr0h, fsr1l, fsr1h, status,2, status,0, pclath, cstack
  4092 ;; Tracked objects:
  4093 ;;		On entry : 0/0
  4094 ;;		On exit  : 0/0
  4095 ;;		Unchanged: 0/0
  4096 ;; Data sizes:     COMMON   BANK0   BANK1   BANK2   BANK3   BANK4
  4097 ;;      Params:         0       0       0       0       0       0
  4098 ;;      Locals:         0       0       0       0       0       0
  4099 ;;      Temps:          2       0       0       0       0       0
  4100 ;;      Totals:         2       0       0       0       0       0
  4101 ;;Total ram usage:        2 bytes
  4102 ;; Hardware stack levels used:    1
  4103 ;; Hardware stack levels required when called:    2
  4104 ;; This function calls:
  4105 ;;		_button_timer_interrupt
  4106 ;;		_interrupt_TXIF
  4107 ;;		i1_tx_send
  4108 ;; This function is called by:
  4109 ;;		Interrupt level 1
  4110 ;; This function uses a non-reentrant model
  4111 ;;
  4112                           
  4113  0004                     _isr:	
  4114                           
  4115                           ;incstack = 0
  4116                           ; Regs used in _isr: [wreg-fsr1h+status,2+status,0+pclath+cstack]
  4117  0004  147E               	bsf	126,0	;set compiler interrupt flag
  4118  0005  3180               	pagesel	$
  4119  0006  0020               	movlb	0	; select bank0
  4120  0007  087F               	movf	127,w
  4121  0008  00F7               	movwf	??_isr+1
  4122                           
  4123                           ;PIC16F1827-I2C04.c: 41: interrupt_TXIF();
  4124  0009  318F  27E9  3180   	fcall	_interrupt_TXIF
  4125                           
  4126                           ;PIC16F1827-I2C04.c: 42: if (RCIF) {
  4127  000C  0020               	movlb	0	; select bank0
  4128  000D  1E91               	btfss	17,5	;volatile
  4129  000E  2815               	goto	i1l1919
  4130                           
  4131                           ;PIC16F1827-I2C04.c: 43: RCIF = 0;
  4132  000F  1291               	bcf	17,5	;volatile
  4133                           
  4134                           ;PIC16F1827-I2C04.c: 44: tx_send(RCREG);
  4135  0010  0023               	movlb	3	; select bank3
  4136  0011  0819               	movf	25,w	;volatile
  4137  0012  318F  2762  3180   	fcall	i1_tx_send
  4138  0015                     i1l1919:	
  4139                           
  4140                           ;PIC16F1827-I2C04.c: 45: }
  4141                           ;PIC16F1827-I2C04.c: 46: if (TMR1IF == 1) {
  4142  0015  0020               	movlb	0	; select bank0
  4143  0016  1C11               	btfss	17,0	;volatile
  4144  0017  283B               	goto	i1l272
  4145                           
  4146                           ;PIC16F1827-I2C04.c: 47: TMR1IF = 0;
  4147  0018  1011               	bcf	17,0	;volatile
  4148                           
  4149                           ;PIC16F1827-I2C04.c: 48: cnt_t1++;
  4150  0019  3001               	movlw	1
  4151  001A  00F6               	movwf	??_isr
  4152  001B  0876               	movf	??_isr,w
  4153  001C  07F8               	addwf	_cnt_t1,f
  4154                           
  4155                           ;PIC16F1827-I2C04.c: 49: if (cnt_t1 % 16 == 0)LATB0 = ~LATB0;
  4156  001D  0878               	movf	_cnt_t1,w
  4157  001E  390F               	andlw	15
  4158  001F  1D03               	btfss	3,2
  4159  0020  2824               	goto	i1l1929
  4160  0021  3001               	movlw	1
  4161  0022  0022               	movlb	2	; select bank2
  4162  0023  068D               	xorwf	13,f
  4163  0024                     i1l1929:	
  4164                           
  4165                           ;PIC16F1827-I2C04.c: 50: button_timer_interrupt(&sw_RA0, !RA0);
  4166  0024  1003               	clrc
  4167  0025  0020               	movlb	0	; select bank0
  4168  0026  1C0C               	btfss	12,0	;volatile
  4169  0027  1403               	setc
  4170  0028  3000               	movlw	0
  4171  0029  1803               	btfsc	3,0
  4172  002A  3001               	movlw	1
  4173  002B  00F0               	movwf	button_timer_interrupt@sw_value
  4174  002C  3043               	movlw	_sw_RA0& (0+255)
  4175  002D  3184  2416  3180   	fcall	_button_timer_interrupt
  4176                           
  4177                           ;PIC16F1827-I2C04.c: 51: button_timer_interrupt(&sw_RA1, !RA1);
  4178  0030  1003               	clrc
  4179  0031  0020               	movlb	0	; select bank0
  4180  0032  1C8C               	btfss	12,1	;volatile
  4181  0033  1403               	setc
  4182  0034  3000               	movlw	0
  4183  0035  1803               	btfsc	3,0
  4184  0036  3001               	movlw	1
  4185  0037  00F0               	movwf	button_timer_interrupt@sw_value
  4186  0038  3079               	movlw	_sw_RA1& (0+255)
  4187  0039  3184  2416         	fcall	_button_timer_interrupt
  4188  003B                     i1l272:	
  4189  003B  0877               	movf	??_isr+1,w
  4190  003C  0020               	movlb	0	; select bank0
  4191  003D  00FF               	movwf	127
  4192  003E  107E               	bcf	126,0	;clear compiler interrupt flag
  4193  003F  0009               	retfie
  4194  0040                     __end_of_isr:	
  4195                           
  4196                           	psect	text28
  4197  0F62                     __ptext28:	
  4198 ;; *************** function i1_tx_send *****************
  4199 ;; Defined at:
  4200 ;;		line 156 in file "C:\Program Files (x86)\Microchip\xc8\v1.33\include\My_header.h"
  4201 ;; Parameters:    Size  Location     Type
  4202 ;;  asciicode       1    wreg     unsigned char 
  4203 ;; Auto vars:     Size  Location     Type
  4204 ;;  asciicode       1    5[COMMON] unsigned char 
  4205 ;; Return value:  Size  Location     Type
  4206 ;;		None               void
  4207 ;; Registers used:
  4208 ;;		wreg, fsr0l, fsr0h, fsr1l, fsr1h, status,2, status,0, pclath, cstack
  4209 ;; Tracked objects:
  4210 ;;		On entry : 0/0
  4211 ;;		On exit  : 0/0
  4212 ;;		Unchanged: 0/0
  4213 ;; Data sizes:     COMMON   BANK0   BANK1   BANK2   BANK3   BANK4
  4214 ;;      Params:         0       0       0       0       0       0
  4215 ;;      Locals:         1       0       0       0       0       0
  4216 ;;      Temps:          1       0       0       0       0       0
  4217 ;;      Totals:         2       0       0       0       0       0
  4218 ;;Total ram usage:        2 bytes
  4219 ;; Hardware stack levels used:    1
  4220 ;; Hardware stack levels required when called:    1
  4221 ;; This function calls:
  4222 ;;		i1_ringbuf_push
  4223 ;; This function is called by:
  4224 ;;		_isr
  4225 ;; This function uses a non-reentrant model
  4226 ;;
  4227                           
  4228                           
  4229                           ;psect for function i1_tx_send
  4230  0F62                     i1_tx_send:	
  4231                           
  4232                           ;incstack = 0
  4233                           ; Regs used in i1_tx_send: [wreg-fsr1h+status,2+status,0+pclath+cstack]
  4234                           ;i1tx_send@asciicode stored from wreg
  4235  0F62  00F5               	movwf	i1tx_send@asciicode
  4236                           
  4237                           ;My_header.h: 157: ringbuf_push(&tx_buf, asciicode);
  4238  0F63  0875               	movf	i1tx_send@asciicode,w
  4239  0F64  00F4               	movwf	??i1_tx_send
  4240  0F65  0874               	movf	??i1_tx_send,w
  4241  0F66  00F0               	movwf	i1ringbuf_push@asciicode
  4242  0F67  303F               	movlw	_tx_buf& (0+255)
  4243  0F68  3186  269F         	fcall	i1_ringbuf_push
  4244                           
  4245                           ;My_header.h: 158: PIE1bits.TXIE = 1;
  4246  0F6A  0021               	movlb	1	; select bank1
  4247  0F6B  1611               	bsf	17,4	;volatile
  4248  0F6C  0008               	return
  4249  0F6D                     __end_ofi1_tx_send:	
  4250                           
  4251                           	psect	text29
  4252  069F                     __ptext29:	
  4253 ;; *************** function i1_ringbuf_push *****************
  4254 ;; Defined at:
  4255 ;;		line 116 in file "C:\Program Files (x86)\Microchip\xc8\v1.33\include\My_header.h"
  4256 ;; Parameters:    Size  Location     Type
  4257 ;;  rb              1    wreg     PTR struct ringbuf
  4258 ;;		 -> tx_buf(4), 
  4259 ;;  asciicode       1    0[COMMON] unsigned char 
  4260 ;; Auto vars:     Size  Location     Type
  4261 ;;  rb              1    3[COMMON] PTR struct ringbuf
  4262 ;;		 -> tx_buf(4), 
  4263 ;; Return value:  Size  Location     Type
  4264 ;;		None               void
  4265 ;; Registers used:
  4266 ;;		wreg, fsr0l, fsr0h, fsr1l, fsr1h, status,2, status,0
  4267 ;; Tracked objects:
  4268 ;;		On entry : 0/0
  4269 ;;		On exit  : 0/0
  4270 ;;		Unchanged: 0/0
  4271 ;; Data sizes:     COMMON   BANK0   BANK1   BANK2   BANK3   BANK4
  4272 ;;      Params:         1       0       0       0       0       0
  4273 ;;      Locals:         1       0       0       0       0       0
  4274 ;;      Temps:          2       0       0       0       0       0
  4275 ;;      Totals:         4       0       0       0       0       0
  4276 ;;Total ram usage:        4 bytes
  4277 ;; Hardware stack levels used:    1
  4278 ;; This function calls:
  4279 ;;		Nothing
  4280 ;; This function is called by:
  4281 ;;		i1_tx_send
  4282 ;; This function uses a non-reentrant model
  4283 ;;
  4284                           
  4285                           
  4286                           ;psect for function i1_ringbuf_push
  4287  069F                     i1_ringbuf_push:	
  4288                           
  4289                           ;incstack = 0
  4290                           ; Regs used in i1_ringbuf_push: [wreg-fsr1h+status,2+status,0]
  4291                           ;i1ringbuf_push@rb stored from wreg
  4292  069F  00F3               	movwf	i1ringbuf_push@rb
  4293                           
  4294                           ;My_header.h: 117: rb->buf[rb->head] = asciicode;
  4295  06A0  0870               	movf	i1ringbuf_push@asciicode,w
  4296  06A1  00F1               	movwf	??i1_ringbuf_push
  4297  06A2  0873               	movf	i1ringbuf_push@rb,w
  4298  06A3  0086               	movwf	6
  4299  06A4  0187               	clrf	7
  4300  06A5  0873               	movf	i1ringbuf_push@rb,w
  4301  06A6  3E02               	addlw	2
  4302  06A7  0084               	movwf	4
  4303  06A8  0185               	clrf	5
  4304  06A9  0800               	movf	0,w
  4305  06AA  0701               	addwf	1,w
  4306  06AB  00F2               	movwf	??i1_ringbuf_push+1
  4307  06AC  0872               	movf	??i1_ringbuf_push+1,w
  4308  06AD  0086               	movwf	6
  4309  06AE  0187               	clrf	7
  4310  06AF  0871               	movf	??i1_ringbuf_push,w
  4311  06B0  0081               	movwf	1
  4312                           
  4313                           ;My_header.h: 118: rb->head++;
  4314  06B1  3001               	movlw	1
  4315  06B2  00F1               	movwf	??i1_ringbuf_push
  4316  06B3  0873               	movf	i1ringbuf_push@rb,w
  4317  06B4  3E02               	addlw	2
  4318  06B5  0086               	movwf	6
  4319  06B6  0187               	clrf	7
  4320  06B7  0871               	movf	??i1_ringbuf_push,w
  4321  06B8  0781               	addwf	1,f
  4322                           
  4323                           ;My_header.h: 119: if (rb->head >= rb->size) {
  4324  06B9  0873               	movf	i1ringbuf_push@rb,w
  4325  06BA  3E02               	addlw	2
  4326  06BB  0086               	movwf	6
  4327  06BC  0187               	clrf	7
  4328  06BD  0A73               	incf	i1ringbuf_push@rb,w
  4329  06BE  0084               	movwf	4
  4330  06BF  0185               	clrf	5
  4331  06C0  0800               	movf	0,w
  4332  06C1  0201               	subwf	1,w
  4333  06C2  1C03               	skipc
  4334  06C3  0008               	return
  4335                           
  4336                           ;My_header.h: 120: rb->head = 0;
  4337  06C4  0873               	movf	i1ringbuf_push@rb,w
  4338  06C5  3E02               	addlw	2
  4339  06C6  0086               	movwf	6
  4340  06C7  0187               	clrf	7
  4341  06C8  0181               	clrf	1
  4342  06C9  0008               	return
  4343  06CA                     __end_ofi1_ringbuf_push:	
  4344                           
  4345                           	psect	text30
  4346  0FE9                     __ptext30:	
  4347 ;; *************** function _interrupt_TXIF *****************
  4348 ;; Defined at:
  4349 ;;		line 169 in file "C:\Program Files (x86)\Microchip\xc8\v1.33\include\My_header.h"
  4350 ;; Parameters:    Size  Location     Type
  4351 ;;		None
  4352 ;; Auto vars:     Size  Location     Type
  4353 ;;		None
  4354 ;; Return value:  Size  Location     Type
  4355 ;;		None               void
  4356 ;; Registers used:
  4357 ;;		wreg, fsr0l, fsr0h, fsr1l, fsr1h, status,2, status,0, pclath, cstack
  4358 ;; Tracked objects:
  4359 ;;		On entry : 0/0
  4360 ;;		On exit  : 0/0
  4361 ;;		Unchanged: 0/0
  4362 ;; Data sizes:     COMMON   BANK0   BANK1   BANK2   BANK3   BANK4
  4363 ;;      Params:         0       0       0       0       0       0
  4364 ;;      Locals:         0       0       0       0       0       0
  4365 ;;      Temps:          0       0       0       0       0       0
  4366 ;;      Totals:         0       0       0       0       0       0
  4367 ;;Total ram usage:        0 bytes
  4368 ;; Hardware stack levels used:    1
  4369 ;; Hardware stack levels required when called:    1
  4370 ;; This function calls:
  4371 ;;		_ringbuf_num
  4372 ;;		_ringbuf_pop
  4373 ;; This function is called by:
  4374 ;;		_isr
  4375 ;; This function uses a non-reentrant model
  4376 ;;
  4377                           
  4378                           
  4379                           ;psect for function _interrupt_TXIF
  4380  0FE9                     _interrupt_TXIF:	
  4381                           
  4382                           ;My_header.h: 170: if (TXIE && TXIF) {
  4383                           
  4384                           ;incstack = 0
  4385                           ; Regs used in _interrupt_TXIF: [wreg-fsr1h+status,2+status,0+pclath+cstack]
  4386  0FE9  0021               	movlb	1	; select bank1
  4387  0FEA  1E11               	btfss	17,4	;volatile
  4388  0FEB  0008               	return
  4389  0FEC  0020               	movlb	0	; select bank0
  4390  0FED  1E11               	btfss	17,4	;volatile
  4391  0FEE  0008               	return
  4392                           
  4393                           ;My_header.h: 171: TXIF = 0;
  4394  0FEF  1211               	bcf	17,4	;volatile
  4395                           
  4396                           ;My_header.h: 172: if (ringbuf_num(&tx_buf) > 0) {
  4397  0FF0  303F               	movlw	_tx_buf& (0+255)
  4398  0FF1  3186  26CA  318F   	fcall	_ringbuf_num
  4399  0FF4  3A00               	xorlw	0
  4400  0FF5  1903               	skipnz
  4401  0FF6  2FFD               	goto	i1l164
  4402                           
  4403                           ;My_header.h: 173: TXREG = ringbuf_pop(&tx_buf);
  4404  0FF7  303F               	movlw	_tx_buf& (0+255)
  4405  0FF8  3186  2673         	fcall	_ringbuf_pop
  4406  0FFA  0023               	movlb	3	; select bank3
  4407  0FFB  009A               	movwf	26	;volatile
  4408                           
  4409                           ;My_header.h: 174: } else {
  4410  0FFC  0008               	return
  4411  0FFD                     i1l164:	
  4412                           
  4413                           ;My_header.h: 175: PIE1bits.TXIE = 0;
  4414  0FFD  0021               	movlb	1	; select bank1
  4415  0FFE  1211               	bcf	17,4	;volatile
  4416  0FFF  0008               	return
  4417  1000                     __end_of_interrupt_TXIF:	
  4418                           
  4419                           	psect	text31
  4420  0673                     __ptext31:	
  4421 ;; *************** function _ringbuf_pop *****************
  4422 ;; Defined at:
  4423 ;;		line 124 in file "C:\Program Files (x86)\Microchip\xc8\v1.33\include\My_header.h"
  4424 ;; Parameters:    Size  Location     Type
  4425 ;;  rb              1    wreg     PTR struct ringbuf
  4426 ;;		 -> tx_buf(4), 
  4427 ;; Auto vars:     Size  Location     Type
  4428 ;;  rb              1    3[COMMON] PTR struct ringbuf
  4429 ;;		 -> tx_buf(4), 
  4430 ;;  ret             1    2[COMMON] unsigned char 
  4431 ;; Return value:  Size  Location     Type
  4432 ;;                  1    wreg      unsigned char 
  4433 ;; Registers used:
  4434 ;;		wreg, fsr0l, fsr0h, fsr1l, fsr1h, status,2, status,0
  4435 ;; Tracked objects:
  4436 ;;		On entry : 0/0
  4437 ;;		On exit  : 0/0
  4438 ;;		Unchanged: 0/0
  4439 ;; Data sizes:     COMMON   BANK0   BANK1   BANK2   BANK3   BANK4
  4440 ;;      Params:         0       0       0       0       0       0
  4441 ;;      Locals:         2       0       0       0       0       0
  4442 ;;      Temps:          2       0       0       0       0       0
  4443 ;;      Totals:         4       0       0       0       0       0
  4444 ;;Total ram usage:        4 bytes
  4445 ;; Hardware stack levels used:    1
  4446 ;; This function calls:
  4447 ;;		Nothing
  4448 ;; This function is called by:
  4449 ;;		_interrupt_TXIF
  4450 ;; This function uses a non-reentrant model
  4451 ;;
  4452                           
  4453                           
  4454                           ;psect for function _ringbuf_pop
  4455  0673                     _ringbuf_pop:	
  4456                           
  4457                           ;incstack = 0
  4458                           ; Regs used in _ringbuf_pop: [wreg-fsr1h+status,2+status,0]
  4459                           ;ringbuf_pop@rb stored from wreg
  4460  0673  00F3               	movwf	ringbuf_pop@rb
  4461                           
  4462                           ;My_header.h: 125: uint8_t ret = rb->buf[rb->tail];
  4463  0674  0873               	movf	ringbuf_pop@rb,w
  4464  0675  0086               	movwf	6
  4465  0676  0187               	clrf	7
  4466  0677  0873               	movf	ringbuf_pop@rb,w
  4467  0678  3E03               	addlw	3
  4468  0679  0084               	movwf	4
  4469  067A  0185               	clrf	5
  4470  067B  0800               	movf	0,w
  4471  067C  0701               	addwf	1,w
  4472  067D  00F0               	movwf	??_ringbuf_pop
  4473  067E  0870               	movf	??_ringbuf_pop,w
  4474  067F  0086               	movwf	6
  4475  0680  0187               	clrf	7
  4476  0681  0801               	movf	1,w
  4477  0682  00F1               	movwf	??_ringbuf_pop+1
  4478  0683  0871               	movf	??_ringbuf_pop+1,w
  4479  0684  00F2               	movwf	ringbuf_pop@ret
  4480                           
  4481                           ;My_header.h: 126: rb->tail++;
  4482  0685  3001               	movlw	1
  4483  0686  00F0               	movwf	??_ringbuf_pop
  4484  0687  0873               	movf	ringbuf_pop@rb,w
  4485  0688  3E03               	addlw	3
  4486  0689  0086               	movwf	6
  4487  068A  0187               	clrf	7
  4488  068B  0870               	movf	??_ringbuf_pop,w
  4489  068C  0781               	addwf	1,f
  4490                           
  4491                           ;My_header.h: 127: if (rb->tail >= rb->size) {
  4492  068D  0873               	movf	ringbuf_pop@rb,w
  4493  068E  3E03               	addlw	3
  4494  068F  0086               	movwf	6
  4495  0690  0187               	clrf	7
  4496  0691  0A73               	incf	ringbuf_pop@rb,w
  4497  0692  0084               	movwf	4
  4498  0693  0185               	clrf	5
  4499  0694  0800               	movf	0,w
  4500  0695  0201               	subwf	1,w
  4501  0696  1C03               	skipc
  4502  0697  2E9D               	goto	i1l1569
  4503                           
  4504                           ;My_header.h: 128: rb->tail = 0;
  4505  0698  0873               	movf	ringbuf_pop@rb,w
  4506  0699  3E03               	addlw	3
  4507  069A  0086               	movwf	6
  4508  069B  0187               	clrf	7
  4509  069C  0181               	clrf	1
  4510  069D                     i1l1569:	
  4511                           
  4512                           ;My_header.h: 129: }
  4513                           ;My_header.h: 130: return ret;
  4514  069D  0872               	movf	ringbuf_pop@ret,w
  4515  069E  0008               	return
  4516  069F                     __end_of_ringbuf_pop:	
  4517                           
  4518                           	psect	text32
  4519  06CA                     __ptext32:	
  4520 ;; *************** function _ringbuf_num *****************
  4521 ;; Defined at:
  4522 ;;		line 133 in file "C:\Program Files (x86)\Microchip\xc8\v1.33\include\My_header.h"
  4523 ;; Parameters:    Size  Location     Type
  4524 ;;  rb              1    wreg     PTR struct ringbuf
  4525 ;;		 -> tx_buf(4), 
  4526 ;; Auto vars:     Size  Location     Type
  4527 ;;  rb              1    1[COMMON] PTR struct ringbuf
  4528 ;;		 -> tx_buf(4), 
  4529 ;; Return value:  Size  Location     Type
  4530 ;;                  1    wreg      unsigned char 
  4531 ;; Registers used:
  4532 ;;		wreg, fsr0l, fsr0h, fsr1l, fsr1h, status,2, status,0
  4533 ;; Tracked objects:
  4534 ;;		On entry : 0/0
  4535 ;;		On exit  : 0/0
  4536 ;;		Unchanged: 0/0
  4537 ;; Data sizes:     COMMON   BANK0   BANK1   BANK2   BANK3   BANK4
  4538 ;;      Params:         0       0       0       0       0       0
  4539 ;;      Locals:         1       0       0       0       0       0
  4540 ;;      Temps:          1       0       0       0       0       0
  4541 ;;      Totals:         2       0       0       0       0       0
  4542 ;;Total ram usage:        2 bytes
  4543 ;; Hardware stack levels used:    1
  4544 ;; This function calls:
  4545 ;;		Nothing
  4546 ;; This function is called by:
  4547 ;;		_interrupt_TXIF
  4548 ;; This function uses a non-reentrant model
  4549 ;;
  4550                           
  4551                           
  4552                           ;psect for function _ringbuf_num
  4553  06CA                     _ringbuf_num:	
  4554                           
  4555                           ;incstack = 0
  4556                           ; Regs used in _ringbuf_num: [wreg-fsr1h+status,2+status,0]
  4557                           ;ringbuf_num@rb stored from wreg
  4558  06CA  00F1               	movwf	ringbuf_num@rb
  4559                           
  4560                           ;My_header.h: 134: if (rb->head >= rb->tail) {
  4561  06CB  0871               	movf	ringbuf_num@rb,w
  4562  06CC  3E02               	addlw	2
  4563  06CD  0086               	movwf	6
  4564  06CE  0187               	clrf	7
  4565  06CF  0871               	movf	ringbuf_num@rb,w
  4566  06D0  3E03               	addlw	3
  4567  06D1  0084               	movwf	4
  4568  06D2  0185               	clrf	5
  4569  06D3  0800               	movf	0,w
  4570  06D4  0201               	subwf	1,w
  4571  06D5  1C03               	skipc
  4572  06D6  2EE3               	goto	i1l1581
  4573                           
  4574                           ;My_header.h: 135: return (rb->head - rb->tail);
  4575  06D7  0871               	movf	ringbuf_num@rb,w
  4576  06D8  3E02               	addlw	2
  4577  06D9  0086               	movwf	6
  4578  06DA  0187               	clrf	7
  4579  06DB  0871               	movf	ringbuf_num@rb,w
  4580  06DC  3E03               	addlw	3
  4581  06DD  0084               	movwf	4
  4582  06DE  0185               	clrf	5
  4583  06DF  0300               	decf	0,w
  4584  06E0  3AFF               	xorlw	255
  4585  06E1  0701               	addwf	1,w
  4586                           
  4587                           ;My_header.h: 136: } else {
  4588  06E2  0008               	return
  4589  06E3                     i1l1581:	
  4590                           
  4591                           ;My_header.h: 137: return (rb->size + rb->head - rb->tail);
  4592  06E3  0871               	movf	ringbuf_num@rb,w
  4593  06E4  3E02               	addlw	2
  4594  06E5  0086               	movwf	6
  4595  06E6  0187               	clrf	7
  4596  06E7  0A71               	incf	ringbuf_num@rb,w
  4597  06E8  0084               	movwf	4
  4598  06E9  0185               	clrf	5
  4599  06EA  0800               	movf	0,w
  4600  06EB  00F0               	movwf	??_ringbuf_num
  4601  06EC  0871               	movf	ringbuf_num@rb,w
  4602  06ED  3E03               	addlw	3
  4603  06EE  0084               	movwf	4
  4604  06EF  0185               	clrf	5
  4605  06F0  0300               	decf	0,w
  4606  06F1  3AFF               	xorlw	255
  4607  06F2  0770               	addwf	??_ringbuf_num,w
  4608  06F3  0701               	addwf	1,w
  4609  06F4  0008               	return
  4610  06F5                     __end_of_ringbuf_num:	
  4611                           
  4612                           	psect	text33
  4613  0416                     __ptext33:	
  4614 ;; *************** function _button_timer_interrupt *****************
  4615 ;; Defined at:
  4616 ;;		line 84 in file "C:\Program Files (x86)\Microchip\xc8\v1.33\include\My_header.h"
  4617 ;; Parameters:    Size  Location     Type
  4618 ;;  bt              1    wreg     PTR struct button
  4619 ;;		 -> sw_RA1(3), sw_RA0(3), 
  4620 ;;  sw_value        1    0[COMMON] unsigned char 
  4621 ;; Auto vars:     Size  Location     Type
  4622 ;;  bt              1    3[COMMON] PTR struct button
  4623 ;;		 -> sw_RA1(3), sw_RA0(3), 
  4624 ;; Return value:  Size  Location     Type
  4625 ;;		None               void
  4626 ;; Registers used:
  4627 ;;		wreg, fsr1l, fsr1h, status,2, status,0
  4628 ;; Tracked objects:
  4629 ;;		On entry : 0/0
  4630 ;;		On exit  : 0/0
  4631 ;;		Unchanged: 0/0
  4632 ;; Data sizes:     COMMON   BANK0   BANK1   BANK2   BANK3   BANK4
  4633 ;;      Params:         1       0       0       0       0       0
  4634 ;;      Locals:         1       0       0       0       0       0
  4635 ;;      Temps:          2       0       0       0       0       0
  4636 ;;      Totals:         4       0       0       0       0       0
  4637 ;;Total ram usage:        4 bytes
  4638 ;; Hardware stack levels used:    1
  4639 ;; This function calls:
  4640 ;;		Nothing
  4641 ;; This function is called by:
  4642 ;;		_isr
  4643 ;; This function uses a non-reentrant model
  4644 ;;
  4645                           
  4646                           
  4647                           ;psect for function _button_timer_interrupt
  4648  0416                     _button_timer_interrupt:	
  4649                           
  4650                           ;incstack = 0
  4651                           ; Regs used in _button_timer_interrupt: [wreg+fsr1l+fsr1h+status,2+status,0]
  4652                           ;button_timer_interrupt@bt stored from wreg
  4653  0416  00F3               	movwf	button_timer_interrupt@bt
  4654                           
  4655                           ;My_header.h: 85: if (sw_value) {
  4656  0417  0870               	movf	button_timer_interrupt@sw_value,w
  4657  0418  1903               	btfsc	3,2
  4658  0419  2C71               	goto	i1l1713
  4659                           
  4660                           ;My_header.h: 86: if (bt->cnt_sw < 150 + 1) bt->cnt_sw++;
  4661  041A  0873               	movf	button_timer_interrupt@bt,w
  4662  041B  0086               	movwf	6
  4663  041C  0187               	clrf	7
  4664  041D  3F40               	moviw [0]fsr1
  4665  041E  00F1               	movwf	??_button_timer_interrupt
  4666  041F  3F41               	moviw [1]fsr1
  4667  0420  00F2               	movwf	??_button_timer_interrupt+1
  4668  0421  3000               	movlw	0
  4669  0422  0272               	subwf	??_button_timer_interrupt+1,w
  4670  0423  3097               	movlw	151
  4671  0424  1903               	skipnz
  4672  0425  0271               	subwf	??_button_timer_interrupt,w
  4673  0426  1803               	skipnc
  4674  0427  2C30               	goto	i1l1703
  4675  0428  0873               	movf	button_timer_interrupt@bt,w
  4676  0429  0086               	movwf	6
  4677  042A  0187               	clrf	7
  4678  042B  3001               	movlw	1
  4679  042C  0781               	addwf	1,f
  4680  042D  3141               	addfsr 1,1
  4681  042E  1803               	skipnc
  4682  042F  0A81               	incf	1,f
  4683  0430                     i1l1703:	
  4684                           
  4685                           ;My_header.h: 87: if (bt->cnt_sw == 150)bt->flag.long_holding_3 = 1;
  4686  0430  0873               	movf	button_timer_interrupt@bt,w
  4687  0431  0086               	movwf	6
  4688  0432  0187               	clrf	7
  4689  0433  3F40               	moviw [0]fsr1
  4690  0434  3A96               	xorlw	150
  4691  0435  1D03               	skipz
  4692  0436  2C39               	goto	u118_25
  4693  0437  3F41               	moviw [1]fsr1
  4694  0438  3A00               	xorlw	0
  4695  0439                     u118_25:	
  4696  0439  1D03               	skipz
  4697  043A  2C40               	goto	i1l117
  4698  043B  0873               	movf	button_timer_interrupt@bt,w
  4699  043C  3E02               	addlw	2
  4700  043D  0086               	movwf	6
  4701  043E  0187               	clrf	7
  4702  043F  1781               	bsf	1,7
  4703  0440                     i1l117:	
  4704                           
  4705                           ;My_header.h: 88: if (bt->cnt_sw == 75)bt->flag.long_holding_2 = 1;
  4706  0440  0873               	movf	button_timer_interrupt@bt,w
  4707  0441  0086               	movwf	6
  4708  0442  0187               	clrf	7
  4709  0443  3F40               	moviw [0]fsr1
  4710  0444  3A4B               	xorlw	75
  4711  0445  1D03               	skipz
  4712  0446  2C49               	goto	u119_25
  4713  0447  3F41               	moviw [1]fsr1
  4714  0448  3A00               	xorlw	0
  4715  0449                     u119_25:	
  4716  0449  1D03               	skipz
  4717  044A  2C50               	goto	i1l118
  4718  044B  0873               	movf	button_timer_interrupt@bt,w
  4719  044C  3E02               	addlw	2
  4720  044D  0086               	movwf	6
  4721  044E  0187               	clrf	7
  4722  044F  1701               	bsf	1,6
  4723  0450                     i1l118:	
  4724                           
  4725                           ;My_header.h: 89: if (bt->cnt_sw == 30)bt->flag.long_holding_1 = 1;
  4726  0450  0873               	movf	button_timer_interrupt@bt,w
  4727  0451  0086               	movwf	6
  4728  0452  0187               	clrf	7
  4729  0453  3F40               	moviw [0]fsr1
  4730  0454  3A1E               	xorlw	30
  4731  0455  1D03               	skipz
  4732  0456  2C59               	goto	u120_25
  4733  0457  3F41               	moviw [1]fsr1
  4734  0458  3A00               	xorlw	0
  4735  0459                     u120_25:	
  4736  0459  1D03               	skipz
  4737  045A  2C60               	goto	i1l119
  4738  045B  0873               	movf	button_timer_interrupt@bt,w
  4739  045C  3E02               	addlw	2
  4740  045D  0086               	movwf	6
  4741  045E  0187               	clrf	7
  4742  045F  1681               	bsf	1,5
  4743  0460                     i1l119:	
  4744                           
  4745                           ;My_header.h: 90: if (bt->cnt_sw == 2)bt->flag.pressing = 1;
  4746  0460  0873               	movf	button_timer_interrupt@bt,w
  4747  0461  0086               	movwf	6
  4748  0462  0187               	clrf	7
  4749  0463  3F40               	moviw [0]fsr1
  4750  0464  3A02               	xorlw	2
  4751  0465  1D03               	skipz
  4752  0466  2C69               	goto	u121_25
  4753  0467  3F41               	moviw [1]fsr1
  4754  0468  3A00               	xorlw	0
  4755  0469                     u121_25:	
  4756  0469  1D03               	skipz
  4757  046A  0008               	return
  4758  046B  0873               	movf	button_timer_interrupt@bt,w
  4759  046C  3E02               	addlw	2
  4760  046D  0086               	movwf	6
  4761  046E  0187               	clrf	7
  4762  046F  1601               	bsf	1,4
  4763                           
  4764                           ;My_header.h: 91: } else {
  4765  0470  0008               	return
  4766  0471                     i1l1713:	
  4767                           
  4768                           ;My_header.h: 92: if (bt->cnt_sw >= 150)bt->flag.long_hold_3 = 1;
  4769  0471  0873               	movf	button_timer_interrupt@bt,w
  4770  0472  0086               	movwf	6
  4771  0473  0187               	clrf	7
  4772  0474  3F40               	moviw [0]fsr1
  4773  0475  00F1               	movwf	??_button_timer_interrupt
  4774  0476  3F41               	moviw [1]fsr1
  4775  0477  00F2               	movwf	??_button_timer_interrupt+1
  4776  0478  3000               	movlw	0
  4777  0479  0272               	subwf	??_button_timer_interrupt+1,w
  4778  047A  3096               	movlw	150
  4779  047B  1903               	skipnz
  4780  047C  0271               	subwf	??_button_timer_interrupt,w
  4781  047D  1C03               	skipc
  4782  047E  2C85               	goto	i1l1717
  4783  047F  0873               	movf	button_timer_interrupt@bt,w
  4784  0480  3E02               	addlw	2
  4785  0481  0086               	movwf	6
  4786  0482  0187               	clrf	7
  4787  0483  1581               	bsf	1,3
  4788  0484  2CC0               	goto	i1l123
  4789  0485                     i1l1717:	
  4790                           
  4791                           ;My_header.h: 93: else if (bt->cnt_sw >= 75)bt->flag.long_hold_2 = 1;
  4792  0485  0873               	movf	button_timer_interrupt@bt,w
  4793  0486  0086               	movwf	6
  4794  0487  0187               	clrf	7
  4795  0488  3F40               	moviw [0]fsr1
  4796  0489  00F1               	movwf	??_button_timer_interrupt
  4797  048A  3F41               	moviw [1]fsr1
  4798  048B  00F2               	movwf	??_button_timer_interrupt+1
  4799  048C  3000               	movlw	0
  4800  048D  0272               	subwf	??_button_timer_interrupt+1,w
  4801  048E  304B               	movlw	75
  4802  048F  1903               	skipnz
  4803  0490  0271               	subwf	??_button_timer_interrupt,w
  4804  0491  1C03               	skipc
  4805  0492  2C99               	goto	i1l1721
  4806  0493  0873               	movf	button_timer_interrupt@bt,w
  4807  0494  3E02               	addlw	2
  4808  0495  0086               	movwf	6
  4809  0496  0187               	clrf	7
  4810  0497  1501               	bsf	1,2
  4811  0498  2CC0               	goto	i1l123
  4812  0499                     i1l1721:	
  4813                           
  4814                           ;My_header.h: 94: else if (bt->cnt_sw >= 30)bt->flag.long_hold_1 = 1;
  4815  0499  0873               	movf	button_timer_interrupt@bt,w
  4816  049A  0086               	movwf	6
  4817  049B  0187               	clrf	7
  4818  049C  3F40               	moviw [0]fsr1
  4819  049D  00F1               	movwf	??_button_timer_interrupt
  4820  049E  3F41               	moviw [1]fsr1
  4821  049F  00F2               	movwf	??_button_timer_interrupt+1
  4822  04A0  3000               	movlw	0
  4823  04A1  0272               	subwf	??_button_timer_interrupt+1,w
  4824  04A2  301E               	movlw	30
  4825  04A3  1903               	skipnz
  4826  04A4  0271               	subwf	??_button_timer_interrupt,w
  4827  04A5  1C03               	skipc
  4828  04A6  2CAD               	goto	i1l1725
  4829  04A7  0873               	movf	button_timer_interrupt@bt,w
  4830  04A8  3E02               	addlw	2
  4831  04A9  0086               	movwf	6
  4832  04AA  0187               	clrf	7
  4833  04AB  1481               	bsf	1,1
  4834  04AC  2CC0               	goto	i1l123
  4835  04AD                     i1l1725:	
  4836                           
  4837                           ;My_header.h: 95: else if (bt->cnt_sw >= 2)bt->flag.press = 1;
  4838  04AD  0873               	movf	button_timer_interrupt@bt,w
  4839  04AE  0086               	movwf	6
  4840  04AF  0187               	clrf	7
  4841  04B0  3F40               	moviw [0]fsr1
  4842  04B1  00F1               	movwf	??_button_timer_interrupt
  4843  04B2  3F41               	moviw [1]fsr1
  4844  04B3  00F2               	movwf	??_button_timer_interrupt+1
  4845  04B4  3000               	movlw	0
  4846  04B5  0272               	subwf	??_button_timer_interrupt+1,w
  4847  04B6  3002               	movlw	2
  4848  04B7  1903               	skipnz
  4849  04B8  0271               	subwf	??_button_timer_interrupt,w
  4850  04B9  1C03               	skipc
  4851  04BA  2CC0               	goto	i1l123
  4852  04BB  0873               	movf	button_timer_interrupt@bt,w
  4853  04BC  3E02               	addlw	2
  4854  04BD  0086               	movwf	6
  4855  04BE  0187               	clrf	7
  4856  04BF  1401               	bsf	1,0
  4857  04C0                     i1l123:	
  4858                           
  4859                           ;My_header.h: 96: bt->cnt_sw = 0;
  4860  04C0  0873               	movf	button_timer_interrupt@bt,w
  4861  04C1  0086               	movwf	6
  4862  04C2  0187               	clrf	7
  4863  04C3  3000               	movlw	0
  4864  04C4  3FC0               	movwi [0]fsr1
  4865  04C5  3FC1               	movwi [1]fsr1
  4866                           
  4867                           ;My_header.h: 97: bt->flags &= 0x0F;
  4868  04C6  300F               	movlw	15
  4869  04C7  00F1               	movwf	??_button_timer_interrupt
  4870  04C8  0873               	movf	button_timer_interrupt@bt,w
  4871  04C9  3E02               	addlw	2
  4872  04CA  0086               	movwf	6
  4873  04CB  0187               	clrf	7
  4874  04CC  0871               	movf	??_button_timer_interrupt,w
  4875  04CD  0581               	andwf	1,f
  4876  04CE  0008               	return
  4877  04CF                     __end_of_button_timer_interrupt:	
  4878  007E                     btemp	set	126	;btemp
  4879  007E                     pic14e$flags	set	126
  4880  007E                     wtemp	set	126
  4881  007E                     wtemp0	set	126
  4882  0080                     wtemp1	set	128
  4883  0082                     wtemp2	set	130
  4884  0084                     wtemp3	set	132
  4885  0086                     wtemp4	set	134
  4886  0088                     wtemp5	set	136
  4887  007F                     wtemp6	set	127
  4888  007E                     ttemp	set	126
  4889  007E                     ttemp0	set	126
  4890  0081                     ttemp1	set	129
  4891  0084                     ttemp2	set	132
  4892  0087                     ttemp3	set	135
  4893  007F                     ttemp4	set	127
  4894  007E                     ltemp	set	126
  4895  007E                     ltemp0	set	126
  4896  0082                     ltemp1	set	130
  4897  0086                     ltemp2	set	134
  4898  0080                     ltemp3	set	128


Data Sizes:
    Strings     20
    Constant    0
    Data        2
    BSS         18
    Persistent  0
    Stack       0

Auto Spaces:
    Space          Size  Autos    Used
    COMMON           14      8      12
    BANK0            80     31      46
    BANK1            80     70      71
    BANK2            80      0       0
    BANK3            80      0       0
    BANK4            48      0       0

Pointer List with Targets:

    timeset@value	PTR unsigned char  size(1) Largest target is 1
		 -> YY(BANK0[1]), MM(BANK0[1]), DD(BANK0[1]), hh(BANK0[1]), 
		 -> mm(BANK0[1]), ss(BANK0[1]), 

    LCD_Puts@s	PTR const unsigned char  size(2) Largest target is 3
		 -> STR_1(CODE[3]), 

    tx_sends@asciicode	PTR unsigned char  size(2) Largest target is 17
		 -> STR_2(CODE[17]), 

    tx_buf.buf	PTR unsigned char  size(1) Largest target is 70
		 -> main@buf(BANK1[70]), 

    ringbuf_num@rb.buf	PTR unsigned char  size(1) Largest target is 70
		 -> main@buf(BANK1[70]), 

    ringbuf_num@rb	PTR struct ringbuf size(1) Largest target is 5
		 -> tx_buf(BANK0[4]), 

    ringbuf_pop@rb.buf	PTR unsigned char  size(1) Largest target is 70
		 -> main@buf(BANK1[70]), 

    ringbuf_pop@rb	PTR struct ringbuf size(1) Largest target is 5
		 -> tx_buf(BANK0[4]), 

    ringbuf_push@rb.buf	PTR unsigned char  size(1) Largest target is 70
		 -> main@buf(BANK1[70]), 

    ringbuf_push@rb	PTR struct ringbuf size(1) Largest target is 5
		 -> tx_buf(BANK0[4]), 

    S224ringbuf$buf	PTR unsigned char  size(1) Largest target is 70
		 -> main@buf(BANK1[70]), 

    ringbuf_init@rb.buf	PTR unsigned char  size(1) Largest target is 70
		 -> main@buf(BANK1[70]), 

    ringbuf_init@internal_buf	PTR unsigned char  size(1) Largest target is 70
		 -> main@buf(BANK1[70]), 

    ringbuf_init@rb	PTR struct ringbuf size(1) Largest target is 5
		 -> tx_buf(BANK0[4]), 

    button_timer_interrupt@bt	PTR struct button size(1) Largest target is 3
		 -> sw_RA1(COMMON[3]), sw_RA0(BANK0[3]), 


Critical Paths under _main in COMMON

    None.

Critical Paths under _isr in COMMON

    _isr->i1_tx_send
    i1_tx_send->i1_ringbuf_push
    _interrupt_TXIF->_ringbuf_pop

Critical Paths under _main in BANK0

    _main->_timeset
    _tx_sends->_ringbuf_push
    _tx_send->_ringbuf_push
    _timeset->___bmul
    _timeset->_display
    _display->_LCD_SetCursor
    _RTC_Read->_I2C_rStart
    _I2C_rStart->_I2C_IdleCheck
    _I2C_Receive->_I2C_IdleCheck
    _LCD_SetCursor->_command
    _LCD_Putc->_I2C_Start
    ___bmul->___awdiv
    _RTC_Write->_I2C_Start
    _LCD_Puts->_I2C_Start
    _LCD_init->_LCD_Clear
    _LCD_Clear->_command
    _command->_I2C_Start
    _I2C_Stop->_I2C_IdleCheck
    _I2C_Start->_I2C_IdleCheck
    _I2C_Send->_I2C_IdleCheck

Critical Paths under _isr in BANK0

    None.

Critical Paths under _main in BANK1

    None.

Critical Paths under _isr in BANK1

    None.

Critical Paths under _main in BANK2

    None.

Critical Paths under _isr in BANK2

    None.

Critical Paths under _main in BANK3

    None.

Critical Paths under _isr in BANK3

    None.

Critical Paths under _main in BANK4

    None.

Critical Paths under _isr in BANK4

    None.

Call Graph Tables:

 ---------------------------------------------------------------------------------
 (Depth) Function   	        Calls       Base Space   Used Autos Params    Refs
 ---------------------------------------------------------------------------------
 (0) _main                                                74    74      0   26203
                                             27 BANK0      4     4      0
                                              0 BANK1     70    70      0
                           _I2C_init
                           _LCD_init
                          _RTC_Write
                          _UART_init
                            _display
                       _month_length
                       _ringbuf_init
                            _timeset
                            _tx_send
                           _tx_sends
 ---------------------------------------------------------------------------------
 (1) _tx_sends                                             6     4      2     637
                                              4 BANK0      6     4      2
                       _ringbuf_push
 ---------------------------------------------------------------------------------
 (1) _tx_send                                              2     2      0     480
                                              4 BANK0      2     2      0
                       _ringbuf_push
 ---------------------------------------------------------------------------------
 (2) _ringbuf_push                                         4     3      1     458
                                              0 BANK0      4     3      1
 ---------------------------------------------------------------------------------
 (1) _timeset                                             14     9      5   16937
                                             13 BANK0     14     9      5
                           _LCD_Putc
                           _LCD_Puts
                      _LCD_SetCursor
                           _RTC_Read
                          _RTC_Write
                            ___awdiv
                            ___awmod
                             ___bmul
                            _display
                       _month_length (ARG)
 ---------------------------------------------------------------------------------
 (2) _display                                              2     2      0    5172
                                             11 BANK0      2     2      0
                           _LCD_Putc
                      _LCD_SetCursor
                           _RTC_Read
                            ___awdiv
 ---------------------------------------------------------------------------------
 (3) ___awdiv                                              9     5      4    2258
                                              0 BANK0      9     5      4
 ---------------------------------------------------------------------------------
 (3) _RTC_Read                                             4     4      0    1068
                                              6 BANK0      4     4      0
                        _I2C_Receive
                           _I2C_Send
                          _I2C_Start
                           _I2C_Stop
                         _I2C_rStart
 ---------------------------------------------------------------------------------
 (4) _I2C_rStart                                           4     0      4     244
                                              2 BANK0      4     0      4
                      _I2C_IdleCheck
 ---------------------------------------------------------------------------------
 (4) _I2C_Receive                                          3     3      0      67
                                              2 BANK0      3     3      0
                      _I2C_IdleCheck
 ---------------------------------------------------------------------------------
 (3) _LCD_SetCursor                                        4     3      1    1135
                                              7 BANK0      4     3      1
                            _command
 ---------------------------------------------------------------------------------
 (3) _LCD_Putc                                             3     3      0     711
                                              4 BANK0      3     3      0
                           _I2C_Send
                          _I2C_Start
                           _I2C_Stop
 ---------------------------------------------------------------------------------
 (2) ___bmul                                               4     3      1     270
                                              9 BANK0      4     3      1
                            ___awdiv (ARG)
 ---------------------------------------------------------------------------------
 (2) ___awmod                                              7     3      4     830
                                              0 BANK0      7     3      4
 ---------------------------------------------------------------------------------
 (2) _RTC_Write                                            4     3      1    1000
                                              4 BANK0      4     3      1
                           _I2C_Send
                          _I2C_Start
                           _I2C_Stop
 ---------------------------------------------------------------------------------
 (2) _LCD_Puts                                             6     4      2     823
                                              4 BANK0      6     4      2
                           _I2C_Send
                          _I2C_Start
                           _I2C_Stop
 ---------------------------------------------------------------------------------
 (1) _ringbuf_init                                         4     2      2     373
                                              0 BANK0      4     2      2
 ---------------------------------------------------------------------------------
 (1) _month_length                                         2     1      1     133
                                              0 BANK0      2     1      1
 ---------------------------------------------------------------------------------
 (1) _UART_init                                            1     1      0      22
                                              0 BANK0      1     1      0
 ---------------------------------------------------------------------------------
 (1) _LCD_init                                             3     3      0    1422
                                              9 BANK0      3     3      0
                          _LCD_Clear
                            _command
 ---------------------------------------------------------------------------------
 (2) _LCD_Clear                                            2     2      0     711
                                              7 BANK0      2     2      0
                            _command
 ---------------------------------------------------------------------------------
 (4) _command                                              3     3      0     711
                                              4 BANK0      3     3      0
                           _I2C_Send
                          _I2C_Start
                           _I2C_Stop
 ---------------------------------------------------------------------------------
 (4) _I2C_Stop                                             0     0      0      22
                      _I2C_IdleCheck
 ---------------------------------------------------------------------------------
 (4) _I2C_Start                                            2     1      1     600
                                              2 BANK0      2     1      1
                      _I2C_IdleCheck
 ---------------------------------------------------------------------------------
 (4) _I2C_Send                                             1     1      0      44
                                              2 BANK0      1     1      0
                      _I2C_IdleCheck
 ---------------------------------------------------------------------------------
 (5) _I2C_IdleCheck                                        2     2      0      22
                                              0 BANK0      2     2      0
 ---------------------------------------------------------------------------------
 (1) _I2C_init                                             0     0      0       0
 ---------------------------------------------------------------------------------
 Estimated maximum stack depth 5
 ---------------------------------------------------------------------------------
 (Depth) Function   	        Calls       Base Space   Used Autos Params    Refs
 ---------------------------------------------------------------------------------
 (7) _isr                                                  2     2      0    1403
                                              6 COMMON     2     2      0
             _button_timer_interrupt
                     _interrupt_TXIF
                          i1_tx_send
 ---------------------------------------------------------------------------------
 (8) i1_tx_send                                            2     2      0     202
                                              4 COMMON     2     2      0
                     i1_ringbuf_push
 ---------------------------------------------------------------------------------
 (9) i1_ringbuf_push                                       4     3      1     180
                                              0 COMMON     4     3      1
 ---------------------------------------------------------------------------------
 (8) _interrupt_TXIF                                       0     0      0     435
                        _ringbuf_num
                        _ringbuf_pop
 ---------------------------------------------------------------------------------
 (9) _ringbuf_pop                                          4     4      0     218
                                              0 COMMON     4     4      0
 ---------------------------------------------------------------------------------
 (9) _ringbuf_num                                          2     2      0     217
                                              0 COMMON     2     2      0
 ---------------------------------------------------------------------------------
 (8) _button_timer_interrupt                               4     3      1     766
                                              0 COMMON     4     3      1
 ---------------------------------------------------------------------------------
 Estimated maximum stack depth 9
 ---------------------------------------------------------------------------------

 Call Graph Graphs:

 _main (ROOT)
   _I2C_init
   _LCD_init
     _LCD_Clear
       _command
         _I2C_Send
           _I2C_IdleCheck
         _I2C_Start
           _I2C_IdleCheck
         _I2C_Stop
           _I2C_IdleCheck
     _command
       _I2C_Send
         _I2C_IdleCheck
       _I2C_Start
         _I2C_IdleCheck
       _I2C_Stop
         _I2C_IdleCheck
   _RTC_Write
     _I2C_Send
       _I2C_IdleCheck
     _I2C_Start
       _I2C_IdleCheck
     _I2C_Stop
       _I2C_IdleCheck
   _UART_init
   _display
     _LCD_Putc
       _I2C_Send
         _I2C_IdleCheck
       _I2C_Start
         _I2C_IdleCheck
       _I2C_Stop
         _I2C_IdleCheck
     _LCD_SetCursor
       _command
         _I2C_Send
           _I2C_IdleCheck
         _I2C_Start
           _I2C_IdleCheck
         _I2C_Stop
           _I2C_IdleCheck
     _RTC_Read
       _I2C_Receive
         _I2C_IdleCheck
       _I2C_Send
         _I2C_IdleCheck
       _I2C_Start
         _I2C_IdleCheck
       _I2C_Stop
         _I2C_IdleCheck
       _I2C_rStart
         _I2C_IdleCheck
     ___awdiv
   _month_length
   _ringbuf_init
   _timeset
     _LCD_Putc
       _I2C_Send
         _I2C_IdleCheck
       _I2C_Start
         _I2C_IdleCheck
       _I2C_Stop
         _I2C_IdleCheck
     _LCD_Puts
       _I2C_Send
         _I2C_IdleCheck
       _I2C_Start
         _I2C_IdleCheck
       _I2C_Stop
         _I2C_IdleCheck
     _LCD_SetCursor
       _command
         _I2C_Send
           _I2C_IdleCheck
         _I2C_Start
           _I2C_IdleCheck
         _I2C_Stop
           _I2C_IdleCheck
     _RTC_Read
       _I2C_Receive
         _I2C_IdleCheck
       _I2C_Send
         _I2C_IdleCheck
       _I2C_Start
         _I2C_IdleCheck
       _I2C_Stop
         _I2C_IdleCheck
       _I2C_rStart
         _I2C_IdleCheck
     _RTC_Write
       _I2C_Send
         _I2C_IdleCheck
       _I2C_Start
         _I2C_IdleCheck
       _I2C_Stop
         _I2C_IdleCheck
     ___awdiv
     ___awmod
     ___bmul
       ___awdiv (ARG)
     _display
       _LCD_Putc
         _I2C_Send
           _I2C_IdleCheck
         _I2C_Start
           _I2C_IdleCheck
         _I2C_Stop
           _I2C_IdleCheck
       _LCD_SetCursor
         _command
           _I2C_Send
             _I2C_IdleCheck
           _I2C_Start
             _I2C_IdleCheck
           _I2C_Stop
             _I2C_IdleCheck
       _RTC_Read
         _I2C_Receive
           _I2C_IdleCheck
         _I2C_Send
           _I2C_IdleCheck
         _I2C_Start
           _I2C_IdleCheck
         _I2C_Stop
           _I2C_IdleCheck
         _I2C_rStart
           _I2C_IdleCheck
       ___awdiv
     _month_length (ARG)
   _tx_send
     _ringbuf_push
   _tx_sends
     _ringbuf_push

 _isr (ROOT)
   _button_timer_interrupt
   _interrupt_TXIF
     _ringbuf_num
     _ringbuf_pop
   i1_tx_send
     i1_ringbuf_push

 Address spaces:
Name               Size   Autos  Total    Cost      Usage
BIGRAM             170      0       0       0        0.0%
EEDATA             100      0       0       0        0.0%
NULL                 0      0       0       0        0.0%
CODE                 0      0       0       0        0.0%
BITCOMMON            E      0       0       1        0.0%
BITSFR0              0      0       0       1        0.0%
SFR0                 0      0       0       1        0.0%
COMMON               E      8       C       2       85.7%
BITSFR1              0      0       0       2        0.0%
SFR1                 0      0       0       2        0.0%
BITSFR2              0      0       0       3        0.0%
SFR2                 0      0       0       3        0.0%
STACK                0      0       0       3        0.0%
BITSFR3              0      0       0       4        0.0%
SFR3                 0      0       0       4        0.0%
ABS                  0      0      81       4        0.0%
BITBANK0            50      0       0       5        0.0%
BITSFR4              0      0       0       5        0.0%
SFR4                 0      0       0       5        0.0%
BANK0               50     1F      2E       6       57.5%
BITSFR5              0      0       0       6        0.0%
SFR5                 0      0       0       6        0.0%
BITBANK1            50      0       0       7        0.0%
BITSFR6              0      0       0       7        0.0%
SFR6                 0      0       0       7        0.0%
BANK1               50     46      47       8       88.8%
BITSFR7              0      0       0       8        0.0%
SFR7                 0      0       0       8        0.0%
BITBANK2            50      0       0       9        0.0%
BITSFR8              0      0       0       9        0.0%
SFR8                 0      0       0       9        0.0%
BANK2               50      0       0      10        0.0%
BITSFR9              0      0       0      10        0.0%
SFR9                 0      0       0      10        0.0%
BITBANK3            50      0       0      11        0.0%
BITSFR10             0      0       0      11        0.0%
SFR10                0      0       0      11        0.0%
BANK3               50      0       0      12        0.0%
BITSFR11             0      0       0      12        0.0%
SFR11                0      0       0      12        0.0%
BITBANK4            30      0       0      13        0.0%
BITSFR12             0      0       0      13        0.0%
SFR12                0      0       0      13        0.0%
BANK4               30      0       0      14        0.0%
BITSFR13             0      0       0      14        0.0%
SFR13                0      0       0      14        0.0%
BITSFR14             0      0       0      15        0.0%
SFR14                0      0       0      15        0.0%
DATA                 0      0      81      15        0.0%
BITSFR15             0      0       0      16        0.0%
SFR15                0      0       0      16        0.0%
BITSFR16             0      0       0      17        0.0%
SFR16                0      0       0      17        0.0%
BITSFR17             0      0       0      18        0.0%
SFR17                0      0       0      18        0.0%
BITSFR18             0      0       0      19        0.0%
SFR18                0      0       0      19        0.0%
BITSFR19             0      0       0      20        0.0%
SFR19                0      0       0      20        0.0%
BITSFR20             0      0       0      21        0.0%
SFR20                0      0       0      21        0.0%
BITSFR21             0      0       0      22        0.0%
SFR21                0      0       0      22        0.0%
BITSFR22             0      0       0      23        0.0%
SFR22                0      0       0      23        0.0%
BITSFR23             0      0       0      24        0.0%
SFR23                0      0       0      24        0.0%
BITSFR24             0      0       0      25        0.0%
SFR24                0      0       0      25        0.0%
BITSFR25             0      0       0      26        0.0%
SFR25                0      0       0      26        0.0%
BITSFR26             0      0       0      27        0.0%
SFR26                0      0       0      27        0.0%
BITSFR27             0      0       0      28        0.0%
SFR27                0      0       0      28        0.0%
BITSFR28             0      0       0      29        0.0%
SFR28                0      0       0      29        0.0%
BITSFR29             0      0       0      30        0.0%
SFR29                0      0       0      30        0.0%
BITSFR30             0      0       0      31        0.0%
SFR30                0      0       0      31        0.0%
BITSFR31             0      0       0      32        0.0%
SFR31                0      0       0      32        0.0%


Microchip Technology PIC Macro Assembler V1.33 build 59893 
Symbol Table                                                                                   Fri Jan 16 14:57:13 2015

                              pc 0002           __end_ofi1_ringbuf_push 06CA                   ___bmul@product 002B  
             __size_of_I2C_Start 001B                      __CFG_CP$OFF 0000                               _DD 0046  
                             _EE 00E6                               _MM 0047                               _YY 0048  
                   ___awdiv@sign 0026                               _hh 0049                               _mm 004A  
                             _ss 004B           __end_of_interrupt_TXIF 1000                     timeset@t_576 0039  
                  _LCD_SetCursor 0FD7                              l220 072C                              l208 076C  
                            l240 074C                              l244 05C0                              l245 05DB  
                            l190 07D8                              l159 0644                              l184 07BF  
                            l199 0FAD                              _RA0 0060                              _RA1 0061  
                   __CFG_CPD$OFF 0000                              u915 04F0                              u935 04FA  
                            u945 0504                              u955 050C                     timeset@value 003A  
                            _isr 0004                     ___awmod@sign 0026              __size_of_I2C_rStart 0019  
           __size_of_I2C_Receive 0020                     __CFG_BORV$LO 0000                              wreg 0009  
                           S2017 07E1                     __CFG_LVP$OFF 0000                             l1421 0F86  
                           l1601 05FB                             l1603 0617                             l1523 04E5  
                           l1541 050B                             l1533 04ED                             l1517 04DA  
                           l1535 04F9                             l1641 0FCE                             l1545 0514  
                           l1821 0782                             l1813 077C                             l1805 0778  
                           l1637 0FC8                             l1549 051C                             l1671 053B  
                           l1663 0535                             l1809 077A                             l1825 0784  
                           l1673 0547                             l1681 055C                             l1841 01E3  
                           l1659 052E                             l1843 021D                             l1763 061C  
                           l1685 0564                             l1677 0553                             l1853 024F  
                  timeset@column 0030                             l1871 02DF                             l1855 0253  
                           l1859 028A                             l1875 01C8                             l1877 0317  
                           l1869 02DA                             l1981 014C                             l1973 0097  
                           ?_isr 0070                             STR_1 0811                             STR_2 0800  
                           u1115 054D                             u1125 0554                             u1095 053E  
                           u1505 00D9                             u1355 0265                             u1515 00FC  
                           u1525 0114                             u1607 0598                             u1375 02C3  
                           u1535 012C                             u1617 0F9C                             u1385 02F1  
                           u1627 0772                             u1557 05E1                             u1485 00A9  
                           u1567 0732                             u1495 00C1                             u1577 0752  
                           u1587 0614                             u1597 0572                             _RCIF 008D  
                           _SPEN 0CEF                             _TXIE 048C                             _TXIF 008C  
                           _WPUB 020D                     __CFG_WRT$OFF 0000                             _main 005C  
       button_timer_interrupt@bt 0073               __size_of_LCD_Clear 000F                             fsr0h 0005  
                           fsr1h 0007                             fsr0l 0004                             indf0 0000  
                           indf1 0001                             fsr1l 0006                 __end_of_I2C_Send 0FB3  
                           btemp 007E                 __end_of_I2C_Stop 0F62                             ltemp 007E  
               __end_of_I2C_init 0F78                             start 0040                             ttemp 007E  
                           wtemp 007E                    __CFG_IESO$OFF 0000                ___bmul@multiplier 002C  
         __size_of_I2C_IdleCheck 000F                  ?i1_ringbuf_push 0070                            ??_isr 0076  
                  __CFG_PLLEN$ON 0000                 __end_of_LCD_Putc 0735                 __end_of_LCD_Puts 061A  
                 ?_LCD_SetCursor 0027                  ?_interrupt_TXIF 0070                 __end_of_LCD_init 05AE  
                          ?_main 0070                  __end_of___awdiv 0523                            _ADRES 009B  
                    LCD_Putc@ans 0026                            _BRG16 0CFB                    __CFG_WDTE$OFF 0000  
                __end_of___awmod 056B                  ___awdiv@divisor 0020                            _T1CON 0018  
                          _LATB0 0868                   timeset@max_num 002E                            i1l123 04C0  
                          i1l117 0440                            i1l118 0450                            i1l119 0460  
                          i1l164 0FFD                            i1l272 003B                  ___awdiv@counter 0025  
                          _RCREG 0199                   timeset@min_num 002D                      LCD_Puts@ans 0028  
                          _RCSTA 019D                            _TMR1H 0017                            _TMR1L 0016  
                          _PORTA 000C                            _PORTB 000D                            _TRISA 008C  
                          _TRISB 008D                     RTC_Read@data 0028                            _TXREG 019A  
                          _TXSTA 019E                   __CFG_FCMEN$OFF 0000                  __end_of_command 0775  
                __end_of_display 0416               __size_of_UART_init 0012            ringbuf_push@asciicode 0020  
               __end_of_RTC_Read 05E6                __end_of_I2C_Start 07C8                   __CFG_BOREN$OFF 0000  
                          ltemp0 007E                            ltemp1 0082                            ltemp2 0086  
                          ltemp3 0080                  __end_of_timeset 0319                            ttemp0 007E  
                          ttemp1 0081                            ttemp2 0084                            ttemp3 0087  
                          ttemp4 007F                            status 0003                            wtemp0 007E  
                          wtemp1 0080                            wtemp2 0082                            wtemp3 0084  
                          wtemp4 0086                            wtemp5 0088                            wtemp6 007F  
             __size_of_RTC_Write 0020                  __end_of_tx_send 0F84                month_length@month 0020  
                 __CFG_MCLRE$OFF 0000                  __initialization 0042                     __end_of_main 01C4  
            ringbuf_init@bufsize 0021                           ??_main 003B                __end_of_LCD_Clear 0FA2  
             __size_ofi1_tx_send 000B                     RTC_Write@Reg 0026                     RTC_Write@ans 0027  
                         _BCL1IF 0093                    _I2C_IdleCheck 0F84                 ___awdiv@dividend 0022  
                         _ANSELA 018C                           _ANSELB 018D                           u120_25 0459  
                         i1l1703 0430                           i1l1721 0499                           i1l1713 0471  
                         i1l1725 04AD                           i1l1717 0485                           u121_25 0469  
                         i1l1581 06E3                           i1l1569 069D                           i1l1919 0015  
                         i1l1929 0024                           u118_25 0439                           u119_25 0449  
                         _FVRCON 0117                           _OSCCON 0099                           _TMR1IF 0088  
                         _SPBRGH 019C                           _SPBRGL 019B                           _SSP1IF 008B  
                   ??_I2C_rStart 0026                   __CFG_PWRTE$OFF 0000                           ___bmul 0FC5  
                   ?_ringbuf_pop 0070                     ?_ringbuf_num 0070                __end_of_UART_init 0FC5  
                      ??___awdiv 0024                        ??___awmod 0024                  ??_LCD_SetCursor 0028  
                         _cnt_t1 0078                 ___awdiv@quotient 0027                           _sw_RA0 0043  
                         _sw_RA1 0079                  ___awmod@divisor 0020                  ___awmod@counter 0025  
                         _tx_buf 003F                        ??_command 0024                        ??_display 002B  
              __end_of_RTC_Write 0755                        ?_I2C_Send 0070                        ?_I2C_Stop 0070  
                UART_init@device 0020                        ?_I2C_init 0070               __end_of_I2C_rStart 07E1  
                 ?_I2C_IdleCheck 0070                        ??_timeset 0032                        ??_tx_send 0024  
               __end_of_tx_sends 0647          __end_of__initialization 0058                        ?_LCD_Putc 0070  
                      ?_LCD_Puts 0024                        ?_LCD_init 0070                __end_ofi1_tx_send 0F6D  
            ___bmul@multiplicand 0029                   __pcstackCOMMON 0070                        LCD_Putc@c 0025  
                   __pidataBANK0 0002                        LCD_Puts@s 0024                        ?_RTC_Read 0070  
                 _OPTION_REGbits 0095                       ??_I2C_Send 0022                       ??_I2C_Stop 0022  
                     ??_I2C_init 0020                       __pbssBANK0 003F                       __pbssBANK1 00E6  
                     ??_LCD_Putc 0024                       ??_LCD_Puts 0026                       ??_LCD_init 0029  
               ??i1_ringbuf_push 0071                       __pmaintext 005C                 ??_interrupt_TXIF 0074  
                        ?___bmul 0029                       __pintentry 0004                       ??_RTC_Read 0026  
                  ??_I2C_Receive 0022                     I2C_Send@data 0022                  ??_I2C_IdleCheck 0020  
                        _SSP1ADD 0212                          _SSP1BUF 0211         ??_button_timer_interrupt 0071  
                  ?_month_length 0020                        _I2C_Start 07AD                   I2C_Receive@ack 0023  
                __size_of___bmul 0012                    ?_ringbuf_init 0020                          ___awdiv 04CF  
                        ___awmod 0523                    ?_ringbuf_push 0020             __size_of_ringbuf_pop 002C  
           __size_of_ringbuf_num 002B                  __CFG_STVREN$OFF 0000         LCD_SetCursor@row_offsets 0028  
                      ?_tx_sends 0024                          __ptext1 061A                          __ptext2 0F78  
                        __ptext3 0647                          __ptext4 01C4                          __ptext5 0319  
                        __ptext6 04CF                          __ptext7 05AE                          __ptext8 07C8  
                        __ptext9 06F5                          _command 0755                          _display 0319  
                      _T1CONbits 0018                     __size_of_isr 003C                 ___awmod@dividend 0022  
                      _LCD_Clear 0F93              __end_of_I2C_Receive 0715                          _timeset 01C4  
                        main@buf 00A0                          clrloop0 07FA                          _tx_send 0F78  
           end_of_initialization 0058                 LCD_SetCursor@col 002A                 LCD_SetCursor@row 0027  
                 ??_month_length 0021                       ?_I2C_Start 0022                     I2C_rStart@rw 0024  
                 ??_ringbuf_init 0022                   ??_ringbuf_push 0021                     __pstringtext 0800  
                     ??_tx_sends 0026                        _UART_init 0FB3                 __CFG_FOSC$INTOSC 0000  
                     ?_LCD_Clear 0070                        _RTC_Write 0735                __size_of_I2C_Send 0011  
              __size_of_I2C_Stop 0006                __size_of_I2C_init 000B                       command@ans 0026  
__size_of_button_timer_interrupt 00B9                __size_of_LCD_Putc 0020                __size_of_LCD_Puts 0034  
              __size_of_LCD_init 0043                   ringbuf_init@rb 0023                        i1_tx_send 0F62  
                 ringbuf_pop@ret 0072                   __end_of___bmul 0FD7                      RTC_Read@Reg 0027  
                    RTC_Read@ans 0029            __end_of_LCD_SetCursor 0FE9                   ringbuf_push@rb 0023  
                     ?_UART_init 0070                      _I2C_Receive 06F5                __size_of_RTC_Read 0038  
            start_initialization 0042                 month_length@year 0021                       ?_RTC_Write 0024  
                    __end_of_isr 0040                      ??_I2C_Start 0023                      _APFCON0bits 011D  
                    _APFCON1bits 011E                         ??___bmul 002A                       ?i1_tx_send 0070  
                    __pdataBANK0 004C           _button_timer_interrupt 0416             __end_of_month_length 0792  
                    __pbssCOMMON 0078                        ___latbits 0001                    __pcstackBANK0 0020  
                  __pcstackBANK1 00A0                      ??_LCD_Clear 0027              __end_of__stringdata 0814  
           __end_of_ringbuf_init 07AD             __end_of_ringbuf_push 0673                 tx_send@asciicode 0025  
                       ?___awdiv 0020                         ?___awmod 0020                      ??_UART_init 0020  
                      __pswtext1 07E1                         ?_command 0070                         ?_display 0070  
              __size_of_tx_sends 002D                      I2C_Start@rw 0022                         _I2C_Send 0FA2  
                       _I2C_Stop 0F5C                         _I2C_init 0F6D            __end_of_I2C_IdleCheck 0F93  
                    ??_RTC_Write 0025                         ?_timeset 002D                         ?_tx_send 0070  
       ringbuf_init@internal_buf 0020                         _LCD_Putc 0715                         _LCD_Puts 05E6  
                       _LCD_init 056B                        clear_ram0 07F9                         _PIE1bits 0091  
                  ??_ringbuf_pop 0070                    ??_ringbuf_num 0070                      ??i1_tx_send 0074  
                       _SSP1CON1 0215                         _SSP1CON2 0216                         _SSP1STAT 0214  
                       _RTC_Read 05AE                       _ADCON0bits 009D          __size_ofi1_ringbuf_push 002B  
                     _ADCON1bits 009E                      __stringdata 0800                       timeset@Reg 002F  
                     timeset@row 0031   button_timer_interrupt@sw_value 0070          __size_of_interrupt_TXIF 0017  
                  ringbuf_pop@rb 0073                    ringbuf_num@rb 0071                    I2C_Start@adrs 0023  
             LCD_SetCursor@F2883 004C                  I2C_Receive@data 0024                       RTC_Write@c 0024  
                     _I2C_rStart 07C8            __size_of_month_length 001D                 __size_of___awdiv 0054  
               __size_of___awmod 0048                I2C_IdleCheck@mask 0021                     ?_I2C_Receive 0070  
              tx_sends@asciicode 0024              __end_of_ringbuf_pop 069F              __end_of_ringbuf_num 06F5  
             i1tx_send@asciicode 0075            __size_of_ringbuf_init 001B                 __size_of_command 0020  
               __size_of_display 00FD            __size_of_ringbuf_push 002C                         __ptext10 0FD7  
                       __ptext11 0715                         __ptext20 0F93                         __ptext12 0FC5  
                       __ptext21 0755                         __ptext13 0523                         __ptext30 0FE9  
                       __ptext22 0F5C                         __ptext14 0735                         __ptext31 0673  
                       __ptext23 07AD                         __ptext15 05E6                         __ptext32 06CA  
                       __ptext24 0FA2                         __ptext16 0792                         __ptext33 0416  
                       __ptext25 0F84                         __ptext17 0775                         __ptext26 0F6D  
                       __ptext18 0FB3                         __ptext19 056B                         __ptext28 0F62  
                       __ptext29 069F                     _SSP1CON2bits 0216                 __size_of_timeset 0155  
               i1ringbuf_push@rb 0073                 __size_of_tx_send 000C                   I2C_rStart@adrs 0022  
                  __size_of_main 0168                     _month_length 0775          ?_button_timer_interrupt 0070  
                   _ringbuf_init 0792                     _ringbuf_push 0647                         command@c 0025  
                       _tx_sends 061A                       _INTCONbits 000B                      pic14e$flags 007E  
                       intlevel1 0000           __size_of_LCD_SetCursor 0012                        tx_sends@i 0029  
              __CFG_CLKOUTEN$OFF 0000                      ?_I2C_rStart 0022   __end_of_button_timer_interrupt 04CF  
                    _ringbuf_pop 0673                      _ringbuf_num 06CA                         timeset@t 0038  
                 i1_ringbuf_push 069F                       _OPTION_REG 0095                   _interrupt_TXIF 0FE9  
        i1ringbuf_push@asciicode 0070  
