

Microchip Technology PIC18 LITE Macro Assembler V1.34 build -361300703 
                                                                                               Sat Jul 18 21:53:09 2015

Microchip Technology Omniscient Code Generator (Lite mode) build 201502162209
     1                           	processor	18F27J53
     2                           	fnconf	rparam,??,?,0
     3                           	opt	pw 120
     4                           	opt	lm
     5                           	psect	idataBANK0,global,class=CODE,delta=1
     6                           	psect	smallconst,global,reloc=2,class=SMALLCONST,delta=1
     7                           	psect	cinit,global,reloc=2,class=CODE,delta=1
     8                           	psect	bssCOMRAM,global,class=COMRAM,space=1,delta=1
     9                           	psect	bssBANK0,global,class=BANK0,space=1,delta=1
    10                           	psect	dataBANK0,global,class=BANK0,space=1,delta=1
    11                           	psect	bssBANK1,global,class=BANK1,space=1,delta=1
    12                           	psect	bssBANK3,global,class=BANK3,space=1,delta=1
    13                           	psect	cstackBANK3,global,class=BANK3,space=1,delta=1
    14                           	psect	cstackBANK2,global,class=BANK2,space=1,delta=1
    15                           	psect	cstackBANK1,global,class=BANK1,space=1,delta=1
    16                           	psect	cstackBANK0,global,class=BANK0,space=1,delta=1
    17                           	psect	cstackCOMRAM,global,class=COMRAM,space=1,delta=1
    18                           	psect	text0,global,reloc=2,class=CODE,delta=1
    19                           	psect	text1,global,reloc=2,class=CODE,delta=1
    20                           	psect	text2,global,reloc=2,class=CODE,delta=1
    21                           	psect	text3,global,reloc=2,class=CODE,delta=1
    22                           	psect	text4,global,reloc=2,class=CODE,delta=1
    23                           	psect	text5,global,reloc=2,class=CODE,delta=1
    24                           	psect	text6,global,reloc=2,class=CODE,delta=1
    25                           	psect	text7,global,reloc=2,class=CODE,delta=1
    26                           	psect	text8,global,reloc=2,class=CODE,delta=1
    27                           	psect	text9,global,reloc=2,class=CODE,delta=1
    28                           	psect	text10,global,reloc=2,class=CODE,delta=1
    29                           	psect	text11,global,reloc=2,class=CODE,delta=1
    30                           	psect	text12,global,reloc=2,class=CODE,delta=1
    31                           	psect	text13,global,reloc=2,class=CODE,delta=1
    32                           	psect	text14,global,reloc=2,class=CODE,delta=1
    33                           	psect	text15,global,reloc=2,class=CODE,delta=1
    34                           	psect	text16,global,reloc=2,class=CODE,delta=1
    35                           	psect	text17,global,reloc=2,class=CODE,delta=1
    36                           	psect	text18,global,reloc=2,class=CODE,delta=1
    37                           	psect	text19,global,reloc=2,class=CODE,delta=1
    38                           	psect	text20,global,reloc=2,class=CODE,delta=1
    39                           	psect	text21,global,reloc=2,class=CODE,delta=1
    40                           	psect	text22,global,reloc=2,class=CODE,delta=1
    41                           	psect	text23,global,reloc=2,class=CODE,delta=1
    42                           	psect	text24,global,reloc=2,class=CODE,delta=1
    43                           	psect	text25,global,reloc=2,class=CODE,delta=1
    44                           	psect	text26,global,reloc=2,class=CODE,delta=1
    45                           	psect	text27,global,reloc=2,class=CODE,delta=1
    46                           	psect	text28,global,reloc=2,class=CODE,delta=1
    47                           	psect	text29,global,reloc=2,class=CODE,delta=1
    48                           	psect	text30,global,reloc=2,class=CODE,delta=1
    49                           	psect	intcode,global,reloc=2,class=CODE,delta=1
    50                           	psect	text32,global,reloc=2,class=CODE,delta=1
    51                           	psect	text33,global,reloc=2,class=CODE,delta=1
    52                           	psect	text34,global,reloc=2,class=CODE,delta=1
    53                           	psect	text35,global,reloc=2,class=CODE,delta=1
    54                           	psect	text36,global,reloc=2,class=CODE,delta=1
    55                           	psect	text37,global,reloc=2,class=CODE,delta=1
    56                           	psect	text38,global,reloc=2,class=CODE,delta=1
    57                           	psect	text39,global,reloc=2,class=CODE,delta=1
    58                           	psect	text40,global,reloc=2,class=CODE,delta=1
    59                           	psect	text41,global,reloc=2,class=CODE,delta=1
    60                           	psect	text42,global,reloc=2,class=CODE,delta=1
    61                           	psect	text43,global,reloc=2,class=CODE,delta=1
    62                           	psect	text44,global,reloc=2,class=CODE,delta=1
    63                           	psect	text45,global,reloc=2,class=CODE,delta=1
    64                           	psect	text46,global,reloc=2,class=CODE,delta=1
    65                           	psect	text47,global,reloc=2,class=CODE,delta=1
    66                           	psect	text48,global,reloc=2,class=CODE,delta=1
    67                           	psect	text49,global,reloc=2,class=CODE,delta=1
    68                           	psect	text50,global,reloc=2,class=CODE,delta=1
    69                           	psect	text51,global,reloc=2,class=CODE,delta=1
    70                           	psect	text52,global,reloc=2,class=CODE,delta=1
    71                           	psect	text53,global,reloc=2,class=CODE,delta=1
    72                           	psect	text54,global,reloc=2,class=CODE,delta=1
    73                           	psect	text55,global,reloc=2,class=CODE,delta=1
    74                           	psect	text56,global,reloc=2,class=CODE,delta=1
    75                           	psect	text57,global,reloc=2,class=CODE,delta=1
    76                           	psect	text58,global,reloc=2,class=CODE,delta=1
    77                           	psect	text59,global,reloc=2,class=CODE,delta=1
    78                           	psect	text60,global,reloc=2,class=CODE,delta=1
    79                           	psect	text61,global,reloc=2,class=CODE,delta=1
    80                           	psect	intsave_regs,global,class=BIGRAM,space=1,delta=1
    81                           	psect	rparam,global,class=COMRAM,space=1,delta=1
    82                           	dabs	1,0xD00,48,_BDT
    83                           	dabs	1,0xD38,8,_CtrlTrfData
    84                           	dabs	1,0xD30,8,_SetupPkt
    85  0000                     
    86                           	psect	idataBANK0
    87  00334A                     __pidataBANK0:
    88                           	opt stack 0
    89                           
    90                           ;initializer for I2C_LCD_SetCursor@F9845
    91  00334A  00                 	db	0
    92  00334B  40                 	db	64
    93                           
    94                           ;initializer for epoch_to_caltime@month_cache
    95  00334C  01                 	db	1
    96                           
    97                           	psect	smallconst
    98  001100                     __psmallconst:
    99                           	opt stack 0
   100  001100  00                 	db	0
   101  001101                     _USB_SD_Ptr:
   102                           	opt stack 0
   103  001101  E2                 	db	low _sd000
   104  001102  11                 	db	high _sd000
   105  001103  4C                 	db	low _sd001
   106  001104  11                 	db	high _sd001
   107  001105  80                 	db	low _sd002
   108  001106  11                 	db	high _sd002
   109  001107                     __end_of_USB_SD_Ptr:
   110                           	opt stack 0
   111  001107                     _USB_CD_Ptr:
   112                           	opt stack 0
   113  001107  09                 	db	low _configDescriptor1
   114  001108  11                 	db	high _configDescriptor1
   115  001109                     __end_of_USB_CD_Ptr:
   116                           	opt stack 0
   117  001109                     _configDescriptor1:
   118                           	opt stack 0
   119  001109  09                 	db	9
   120  00110A  02                 	db	2
   121  00110B  43                 	db	67
   122  00110C  00                 	db	0
   123  00110D  02                 	db	2
   124  00110E  01                 	db	1
   125  00110F  00                 	db	0
   126  001110  C0                 	db	192
   127  001111  32                 	db	50
   128  001112  09                 	db	9
   129  001113  04                 	db	4
   130  001114  00                 	db	0
   131  001115  00                 	db	0
   132  001116  01                 	db	1
   133  001117  02                 	db	2
   134  001118  02                 	db	2
   135  001119  01                 	db	1
   136  00111A  00                 	db	0
   137  00111B  05                 	db	5
   138  00111C  24                 	db	36
   139  00111D  00                 	db	0
   140  00111E  10                 	db	16
   141  00111F  01                 	db	1
   142  001120  04                 	db	4
   143  001121  24                 	db	36
   144  001122  02                 	db	2
   145  001123  02                 	db	2
   146  001124  05                 	db	5
   147  001125  24                 	db	36
   148  001126  06                 	db	6
   149  001127  00                 	db	0
   150  001128  01                 	db	1
   151  001129  05                 	db	5
   152  00112A  24                 	db	36
   153  00112B  01                 	db	1
   154  00112C  00                 	db	0
   155  00112D  01                 	db	1
   156  00112E  07                 	db	7
   157  00112F  05                 	db	5
   158  001130  81                 	db	129
   159  001131  03                 	db	3
   160  001132  08                 	db	8
   161  001133  00                 	db	0
   162  001134  02                 	db	2
   163  001135  09                 	db	9
   164  001136  04                 	db	4
   165  001137  01                 	db	1
   166  001138  00                 	db	0
   167  001139  02                 	db	2
   168  00113A  0A                 	db	10
   169  00113B  00                 	db	0
   170  00113C  00                 	db	0
   171  00113D  00                 	db	0
   172  00113E  07                 	db	7
   173  00113F  05                 	db	5
   174  001140  02                 	db	2
   175  001141  02                 	db	2
   176  001142  40                 	db	64
   177  001143  00                 	db	0
   178  001144  00                 	db	0
   179  001145  07                 	db	7
   180  001146  05                 	db	5
   181  001147  82                 	db	130
   182  001148  02                 	db	2
   183  001149  40                 	db	64
   184  00114A  00                 	db	0
   185  00114B  00                 	db	0
   186  00114C                     __end_of_configDescriptor1:
   187                           	opt stack 0
   188  00114C                     _sd001:
   189                           	opt stack 0
   190  00114C  34                 	db	52
   191  00114D  03                 	db	3
   192  00114E  004D               	dw	77
   193  001150  0069               	dw	105
   194  001152  0063               	dw	99
   195  001154  0072               	dw	114
   196  001156  006F               	dw	111
   197  001158  0063               	dw	99
   198  00115A  0068               	dw	104
   199  00115C  0069               	dw	105
   200  00115E  0070               	dw	112
   201  001160  0020               	dw	32
   202  001162  0054               	dw	84
   203  001164  0065               	dw	101
   204  001166  0063               	dw	99
   205  001168  0068               	dw	104
   206  00116A  006E               	dw	110
   207  00116C  006F               	dw	111
   208  00116E  006C               	dw	108
   209  001170  006F               	dw	111
   210  001172  0067               	dw	103
   211  001174  0079               	dw	121
   212  001176  0020               	dw	32
   213  001178  0049               	dw	73
   214  00117A  006E               	dw	110
   215  00117C  0063               	dw	99
   216  00117E  002E               	dw	46
   217  001180                     __end_of_sd001:
   218                           	opt stack 0
   219  001180                     _sd002:
   220                           	opt stack 0
   221  001180  34                 	db	52
   222  001181  03                 	db	3
   223  001182  0043               	dw	67
   224  001184  0044               	dw	68
   225  001186  0043               	dw	67
   226  001188  0020               	dw	32
   227  00118A  0052               	dw	82
   228  00118C  0053               	dw	83
   229  00118E  002D               	dw	45
   230  001190  0032               	dw	50
   231  001192  0033               	dw	51
   232  001194  0032               	dw	50
   233  001196  0020               	dw	32
   234  001198  0045               	dw	69
   235  00119A  006D               	dw	109
   236  00119C  0075               	dw	117
   237  00119E  006C               	dw	108
   238  0011A0  0061               	dw	97
   239  0011A2  0074               	dw	116
   240  0011A4  0069               	dw	105
   241  0011A6  006F               	dw	111
   242  0011A8  006E               	dw	110
   243  0011AA  0020               	dw	32
   244  0011AC  0044               	dw	68
   245  0011AE  0065               	dw	101
   246  0011B0  006D               	dw	109
   247  0011B2  006F               	dw	111
   248  0011B4                     __end_of_sd002:
   249                           	opt stack 0
   250  0011B4                     _weekday_3char:
   251                           	opt stack 0
   252  0011B4  53                 	db	83
   253  0011B5  55                 	db	85
   254  0011B6  4E                 	db	78
   255  0011B7  00                 	db	0
   256  0011B8  4D                 	db	77
   257  0011B9  4F                 	db	79
   258  0011BA  4E                 	db	78
   259  0011BB  00                 	db	0
   260  0011BC  54                 	db	84
   261  0011BD  55                 	db	85
   262  0011BE  45                 	db	69
   263  0011BF  00                 	db	0
   264  0011C0  57                 	db	87
   265  0011C1  45                 	db	69
   266  0011C2  44                 	db	68
   267  0011C3  00                 	db	0
   268  0011C4  54                 	db	84
   269  0011C5  48                 	db	72
   270  0011C6  55                 	db	85
   271  0011C7  00                 	db	0
   272  0011C8  46                 	db	70
   273  0011C9  52                 	db	82
   274  0011CA  49                 	db	73
   275  0011CB  00                 	db	0
   276  0011CC  53                 	db	83
   277  0011CD  41                 	db	65
   278  0011CE  54                 	db	84
   279  0011CF  00                 	db	0
   280  0011D0                     __end_of_weekday_3char:
   281                           	opt stack 0
   282  0011D0                     _device_dsc:
   283                           	opt stack 0
   284  0011D0  12                 	db	18
   285  0011D1  01                 	db	1
   286  0011D2  0200               	dw	512
   287  0011D4  02                 	db	2
   288  0011D5  00                 	db	0
   289  0011D6  00                 	db	0
   290  0011D7  08                 	db	8
   291  0011D8  04D8               	dw	1240
   292  0011DA  000A               	dw	10
   293  0011DC  0100               	dw	256
   294  0011DE  01                 	db	1
   295  0011DF  02                 	db	2
   296  0011E0  00                 	db	0
   297  0011E1  01                 	db	1
   298  0011E2                     __end_of_device_dsc:
   299                           	opt stack 0
   300  0011E2                     _sd000:
   301                           	opt stack 0
   302  0011E2  04                 	db	4
   303  0011E3  03                 	db	3
   304  0011E4  0409               	dw	1033
   305  0011E6                     __end_of_sd000:
   306                           	opt stack 0
   307  0000                     _ANCON0	set	3912
   308  0000                     _ANCON1	set	3913
   309  0000                     _PADCFG1bits	set	3900
   310  0000                     _RTCCAL	set	3902
   311  0000                     _RTCCFGbits	set	3903
   312  0000                     _RTCVALH	set	3899
   313  0000                     _RTCVALL	set	3898
   314  0000                     _T5CONbits	set	3874
   315  0000                     _UADDR	set	3896
   316  0000                     _UCFG	set	3897
   317  0000                     _UEIE	set	3895
   318  0000                     _UEP0bits	set	3878
   319  0000                     _UIE	set	3894
   320  0000                     _UIEbits	set	3894
   321  0000                     _UEP0	set	3878
   322  0000                     _UEP1	set	3879
   323  0000                     _ADRES	set	4035
   324  0000                     _ADCON0bits	set	4034
   325  0000                     _ADCON1bits	set	4033
   326  0000                     _BAUDCON1bits	set	3966
   327  0000                     _CTMUCONH	set	4019
   328  0000                     _CTMUCONHbits	set	4019
   329  0000                     _CTMUCONL	set	4018
   330  0000                     _CTMUCONLbits	set	4018
   331  0000                     _CTMUICON	set	4017
   332  0000                     _EECON2	set	4007
   333  0000                     _INTCON2bits	set	4081
   334  0000                     _INTCONbits	set	4082
   335  0000                     _IPR1bits	set	3999
   336  0000                     _IPR2bits	set	4002
   337  0000                     _IPR5bits	set	3993
   338  0000                     _OSCCONbits	set	4051
   339  0000                     _OSCTUNEbits	set	3995
   340  0000                     _PIE1bits	set	3997
   341  0000                     _PIE2bits	set	4000
   342  0000                     _PIE5bits	set	3985
   343  0000                     _PIR1bits	set	3998
   344  0000                     _PIR2bits	set	4001
   345  0000                     _PIR5bits	set	3992
   346  0000                     _RCONbits	set	4048
   347  0000                     _RCREG1	set	4015
   348  0000                     _RCSTA1bits	set	4012
   349  0000                     _SPBRG1	set	4016
   350  0000                     _SPBRGH1	set	3967
   351  0000                     _SSP1ADD	set	4040
   352  0000                     _SSP1BUF	set	4041
   353  0000                     _SSP1CON1	set	4038
   354  0000                     _SSP1CON2	set	4037
   355  0000                     _SSP1CON2bits	set	4037
   356  0000                     _SSP1STAT	set	4039
   357  0000                     _T0CONbits	set	4053
   358  0000                     _T1CONbits	set	4045
   359  0000                     _T3CONbits	set	3961
   360  0000                     _TRISA	set	3986
   361  0000                     _TRISB	set	3987
   362  0000                     _TRISC	set	3988
   363  0000                     _TXREG1	set	4014
   364  0000                     _TXSTA1bits	set	4013
   365  0000                     _UCON	set	3941
   366  0000                     _UCONbits	set	3941
   367  0000                     _UEIR	set	3939
   368  0000                     _UIR	set	3938
   369  0000                     _UIRbits	set	3938
   370  0000                     _USTAT	set	3940
   371  0000                     _BCL1IF	set	32011
   372  0000                     _LATB2	set	31826
   373  0000                     _SSP1IF	set	31987
   374  0011E6                     STR_3:
   375  0011E6  57                 	db	87	;'W'
   376  0011E7  6F                 	db	111	;'o'
   377  0011E8  72                 	db	114	;'r'
   378  0011E9  6C                 	db	108	;'l'
   379  0011EA  64                 	db	100	;'d'
   380  0011EB  00                 	db	0
   381  0011EC                     STR_2:
   382  0011EC  48                 	db	72	;'H'
   383  0011ED  65                 	db	101	;'e'
   384  0011EE  6C                 	db	108	;'l'
   385  0011EF  6C                 	db	108	;'l'
   386  0011F0  6F                 	db	111	;'o'
   387  0011F1  00                 	db	0
   388  0011F2  20                 	db	32
   389  0011F3  20                 	db	32
   390  0011F4  00                 	db	0
   391                           
   392                           ; #config settings
   393  0011F5  00                 	db	0	; dummy byte at the end
   394  0000                     
   395                           	psect	cinit
   396  002D48                     __pcinit:
   397                           	opt stack 0
   398  002D48                     start_initialization:
   399                           	opt stack 0
   400  002D48                     __initialization:
   401                           	opt stack 0
   402                           
   403                           ; Clear objects allocated to BANK3 (128 bytes)
   404  002D48  EE03  F000         	lfsr	0,__pbssBANK3
   405  002D4C  0E80               	movlw	128
   406  002D4E                     clear_0:
   407  002D4E  6AEE               	clrf	postinc0,c
   408  002D50  06E8               	decf	wreg,f,c
   409  002D52  E1FD               	bnz	clear_0
   410                           
   411                           ; Clear objects allocated to BANK1 (55 bytes)
   412  002D54  EE01  F0C8         	lfsr	0,__pbssBANK1
   413  002D58  0E37               	movlw	55
   414  002D5A                     clear_1:
   415  002D5A  6AEE               	clrf	postinc0,c
   416  002D5C  06E8               	decf	wreg,f,c
   417  002D5E  E1FD               	bnz	clear_1
   418                           
   419                           ; Clear objects allocated to BANK0 (41 bytes)
   420  002D60  EE00  F060         	lfsr	0,__pbssBANK0
   421  002D64  0E29               	movlw	41
   422  002D66                     clear_2:
   423  002D66  6AEE               	clrf	postinc0,c
   424  002D68  06E8               	decf	wreg,f,c
   425  002D6A  E1FD               	bnz	clear_2
   426                           
   427                           ; Clear objects allocated to COMRAM (44 bytes)
   428  002D6C  EE00  F001         	lfsr	0,__pbssCOMRAM
   429  002D70  0E2C               	movlw	44
   430  002D72                     clear_3:
   431  002D72  6AEE               	clrf	postinc0,c
   432  002D74  06E8               	decf	wreg,f,c
   433  002D76  E1FD               	bnz	clear_3
   434                           
   435                           ; Initialize objects allocated to BANK0 (3 bytes)
   436                           ; load TBLPTR registers with __pidataBANK0
   437  002D78  0E4A               	movlw	low __pidataBANK0
   438  002D7A  6EF6               	movwf	tblptrl,c
   439  002D7C  0E33               	movlw	high __pidataBANK0
   440  002D7E  6EF7               	movwf	tblptrh,c
   441  002D80  0E00               	movlw	low (__pidataBANK0 shr (0+16))
   442  002D82  6EF8               	movwf	tblptru,c
   443  002D84  0009               	tblrd		*+	;fetch initializer
   444  002D86  CFF5 F09D          	movff	tablat,__pdataBANK0
   445  002D8A  0009               	tblrd		*+	;fetch initializer
   446  002D8C  CFF5 F09E          	movff	tablat,__pdataBANK0+1
   447  002D90  0009               	tblrd		*+	;fetch initializer
   448  002D92  CFF5 F09F          	movff	tablat,__pdataBANK0+2
   449  002D96                     end_of_initialization:
   450                           	opt stack 0
   451  002D96                     __end_of__initialization:
   452                           	opt stack 0
   453  002D96  0100               	movlb	0
   454  002D98  EFEE  F013         	goto	_main	;jump to C main() function
   455                           tblptru	equ	0xFF8
   456                           tblptrh	equ	0xFF7
   457                           tblptrl	equ	0xFF6
   458                           tablat	equ	0xFF5
   459                           postinc0	equ	0xFEE
   460                           wreg	equ	0xFE8
   461                           
   462                           	psect	bssCOMRAM
   463  000001                     __pbssCOMRAM:
   464                           	opt stack 0
   465  000001                     _outPipes:
   466                           	opt stack 0
   467  000001                     	ds	9
   468  00000A                     _pBDTEntryIn:
   469                           	opt stack 0
   470  00000A                     	ds	6
   471  000010                     _pBDTEntryEP0OutCurrent:
   472                           	opt stack 0
   473  000010                     	ds	2
   474  000012                     _pBDTEntryEP0OutNext:
   475                           	opt stack 0
   476  000012                     	ds	2
   477  000014                     RTCC_loop@prev_halfsec:
   478                           	opt stack 0
   479  000014                     	ds	1
   480  000015                     _BothEP0OutUOWNsSet:
   481                           	opt stack 0
   482  000015                     	ds	1
   483  000016                     _RemoteWakeup:
   484                           	opt stack 0
   485  000016                     	ds	1
   486  000017                     _USBDeferINDataStagePackets:
   487                           	opt stack 0
   488  000017                     	ds	1
   489  000018                     _USBDeferOUTDataStagePackets:
   490                           	opt stack 0
   491  000018                     	ds	1
   492  000019                     _USBDeferStatusStagePacket:
   493                           	opt stack 0
   494  000019                     	ds	1
   495  00001A                     _USBDeviceState:
   496                           	opt stack 0
   497  00001A                     	ds	1
   498  00001B                     _USBStatusStageEnabledFlag1:
   499                           	opt stack 0
   500  00001B                     	ds	1
   501  00001C                     _USBStatusStageEnabledFlag2:
   502                           	opt stack 0
   503  00001C                     	ds	1
   504  00001D                     _USBStatusStageTimeoutCounter:
   505                           	opt stack 0
   506  00001D                     	ds	1
   507  00001E                     _colon:
   508                           	opt stack 0
   509  00001E                     	ds	1
   510  00001F                     _controlTransferState:
   511                           	opt stack 0
   512  00001F                     	ds	1
   513  000020                     _edit_flag:
   514                           	opt stack 0
   515  000020                     	ds	1
   516  000021                     _endpoint_number:
   517                           	opt stack 0
   518  000021                     	ds	1
   519  000022                     _halfsec:
   520                           	opt stack 0
   521  000022                     	ds	1
   522  000023                     _shortPacketStatus:
   523                           	opt stack 0
   524  000023                     	ds	1
   525  000024                     _time_change_flag:
   526                           	opt stack 0
   527  000024                     	ds	1
   528  000025                     _inPipes:
   529                           	opt stack 0
   530  000025                     	ds	6
   531  00002B                     _USBActiveConfiguration:
   532                           	opt stack 0
   533  00002B                     	ds	1
   534  00002C                     _USTATcopy:
   535                           	opt stack 0
   536  00002C                     	ds	1
   537                           tblptru	equ	0xFF8
   538                           tblptrh	equ	0xFF7
   539                           tblptrl	equ	0xFF6
   540                           tablat	equ	0xFF5
   541                           postinc0	equ	0xFEE
   542                           wreg	equ	0xFE8
   543                           
   544                           	psect	bssBANK0
   545  000060                     __pbssBANK0:
   546                           	opt stack 0
   547  000060                     _pBDTEntryOut:
   548                           	opt stack 0
   549  000060                     	ds	6
   550  000066                     _ep_data_in:
   551                           	opt stack 0
   552  000066                     	ds	3
   553  000069                     _ep_data_out:
   554                           	opt stack 0
   555  000069                     	ds	3
   556  00006C                     _pCDCDst:
   557                           	opt stack 0
   558  00006C                     	ds	3
   559  00006F                     _pCDCSrc:
   560                           	opt stack 0
   561  00006F                     	ds	3
   562  000072                     USBCBSendResume@delay_count:
   563                           	opt stack 0
   564  000072                     	ds	2
   565  000074                     _CDCDataInHandle:
   566                           	opt stack 0
   567  000074                     	ds	2
   568  000076                     _CDCDataOutHandle:
   569                           	opt stack 0
   570  000076                     	ds	2
   571  000078                     _pDst:
   572                           	opt stack 0
   573  000078                     	ds	2
   574  00007A                     epoch_to_caltime@day_cache:
   575                           	opt stack 0
   576  00007A                     	ds	2
   577  00007C                     _USBBusIsSuspended:
   578                           	opt stack 0
   579  00007C                     	ds	1
   580  00007D                     _cdc_mem_type:
   581                           	opt stack 0
   582  00007D                     	ds	1
   583  00007E                     _cdc_rx_len:
   584                           	opt stack 0
   585  00007E                     	ds	1
   586  00007F                     _cdc_trf_state:
   587                           	opt stack 0
   588  00007F                     	ds	1
   589  000080                     _cdc_tx_len:
   590                           	opt stack 0
   591  000080                     	ds	1
   592  000081                     _control_signal_bitmap:
   593                           	opt stack 0
   594  000081                     	ds	1
   595  000082                     epoch_to_caltime@year_cache:
   596                           	opt stack 0
   597  000082                     	ds	1
   598  000083                     _epoch_now:
   599                           	opt stack 0
   600  000083                     	ds	4
   601  000087                     _USBAlternateInterface:
   602                           	opt stack 0
   603  000087                     	ds	2
   604                           tblptru	equ	0xFF8
   605                           tblptrh	equ	0xFF7
   606                           tblptrl	equ	0xFF6
   607                           tablat	equ	0xFF5
   608                           postinc0	equ	0xFEE
   609                           wreg	equ	0xFE8
   610                           
   611                           	psect	dataBANK0
   612  00009D                     __pdataBANK0:
   613                           	opt stack 0
   614  00009D                     I2C_LCD_SetCursor@F9845:
   615                           	opt stack 0
   616  00009D                     	ds	2
   617  00009F                     epoch_to_caltime@month_cache:
   618                           	opt stack 0
   619  00009F                     	ds	1
   620                           tblptru	equ	0xFF8
   621                           tblptrh	equ	0xFF7
   622                           tblptrl	equ	0xFF6
   623                           tablat	equ	0xFF5
   624                           postinc0	equ	0xFEE
   625                           wreg	equ	0xFE8
   626                           
   627                           	psect	bssBANK1
   628  0001C8                     __pbssBANK1:
   629                           	opt stack 0
   630  0001C8                     _cdc_notice:
   631                           	opt stack 0
   632  0001C8                     	ds	10
   633  0001D2                     _BaudRateGen:
   634                           	opt stack 0
   635  0001D2                     	ds	4
   636  0001D6                     _d1:
   637                           	opt stack 0
   638  0001D6                     	ds	3
   639  0001D9                     _dummy_encapsulated_cmd_response:
   640                           	opt stack 0
   641  0001D9                     	ds	8
   642  0001E1                     _rx_buf:
   643                           	opt stack 0
   644  0001E1                     	ds	8
   645  0001E9                     _tx_buf:
   646                           	opt stack 0
   647  0001E9                     	ds	8
   648  0001F1                     _caltime_now:
   649                           	opt stack 0
   650  0001F1                     	ds	7
   651  0001F8                     _line_coding:
   652                           	opt stack 0
   653  0001F8                     	ds	7
   654                           tblptru	equ	0xFF8
   655                           tblptrh	equ	0xFF7
   656                           tblptrl	equ	0xFF6
   657                           tablat	equ	0xFF5
   658                           postinc0	equ	0xFEE
   659                           wreg	equ	0xFE8
   660                           
   661                           	psect	bssBANK3
   662  000300                     __pbssBANK3:
   663                           	opt stack 0
   664  000300                     _cdc_data_rx:
   665                           	opt stack 0
   666  000300                     	ds	64
   667  000340                     _cdc_data_tx:
   668                           	opt stack 0
   669  000340                     	ds	64
   670                           tblptru	equ	0xFF8
   671                           tblptrh	equ	0xFF7
   672                           tblptrl	equ	0xFF6
   673                           tablat	equ	0xFF5
   674                           postinc0	equ	0xFEE
   675                           wreg	equ	0xFE8
   676                           
   677                           	psect	cstackBANK3
   678  000380                     __pcstackBANK3:
   679                           	opt stack 0
   680  000380                     main@str:
   681                           	opt stack 0
   682                           
   683                           ; 100 bytes @ 0x0
   684  000380                     	ds	100
   685  0003E4                     main@rx_len:
   686                           	opt stack 0
   687                           
   688                           ; 2 bytes @ 0x64
   689  0003E4                     	ds	2
   690                           tblptru	equ	0xFF8
   691                           tblptrh	equ	0xFF7
   692                           tblptrl	equ	0xFF6
   693                           tablat	equ	0xFF5
   694                           postinc0	equ	0xFEE
   695                           wreg	equ	0xFE8
   696                           
   697                           	psect	cstackBANK2
   698  000200                     __pcstackBANK2:
   699                           	opt stack 0
   700  000200                     main_init@rxbuf:
   701                           	opt stack 0
   702                           
   703                           ; 200 bytes @ 0x0
   704  000200                     	ds	200
   705                           tblptru	equ	0xFF8
   706                           tblptrh	equ	0xFF7
   707                           tblptrl	equ	0xFF6
   708                           tablat	equ	0xFF5
   709                           postinc0	equ	0xFEE
   710                           wreg	equ	0xFE8
   711                           
   712                           	psect	cstackBANK1
   713  000100                     __pcstackBANK1:
   714                           	opt stack 0
   715  000100                     main_init@txbuf:
   716                           	opt stack 0
   717                           
   718                           ; 200 bytes @ 0x0
   719  000100                     	ds	200
   720                           tblptru	equ	0xFF8
   721                           tblptrh	equ	0xFF7
   722                           tblptrl	equ	0xFF6
   723                           tablat	equ	0xFF5
   724                           postinc0	equ	0xFEE
   725                           wreg	equ	0xFE8
   726                           
   727                           	psect	cstackBANK0
   728  000089                     __pcstackBANK0:
   729                           	opt stack 0
   730  000089                     ??_timer0_init:
   731  000089                     ??_timer3_init:
   732  000089                     ??_I2C_IdleCheck:
   733  000089                     ?_USBTransferOnePacket:
   734                           	opt stack 0
   735  000089                     timer1_init@clock_select:
   736                           	opt stack 0
   737  000089                     _is_usb_available$2207:
   738                           	opt stack 0
   739  000089                     USBTransferOnePacket@dir:
   740                           	opt stack 0
   741  000089                     ringbuf_init@rb:
   742                           	opt stack 0
   743  000089                     Delay_ms@ms:
   744                           	opt stack 0
   745  000089                     putUSBUSART@data:
   746                           	opt stack 0
   747  000089                     memset@p1:
   748                           	opt stack 0
   749                           
   750                           ; 2 bytes @ 0x0
   751  000089                     	ds	1
   752  00008A                     ??_timer1_init:
   753  00008A                     timer0_init@prescaler:
   754                           	opt stack 0
   755  00008A                     timer3_init@prescaler:
   756                           	opt stack 0
   757  00008A                     I2C_IdleCheck@mask:
   758                           	opt stack 0
   759  00008A                     USBTransferOnePacket@data:
   760                           	opt stack 0
   761                           
   762                           ; 2 bytes @ 0x1
   763  00008A                     	ds	1
   764  00008B                     ??_Delay_ms:
   765  00008B                     timer1_init@prescaler:
   766                           	opt stack 0
   767  00008B                     I2C_Start@rw:
   768                           	opt stack 0
   769  00008B                     I2C_Send@data:
   770                           	opt stack 0
   771  00008B                     putUSBUSART@length:
   772                           	opt stack 0
   773  00008B                     ringbuf_init@internal_buf:
   774                           	opt stack 0
   775  00008B                     memset@c:
   776                           	opt stack 0
   777                           
   778                           ; 2 bytes @ 0x2
   779  00008B                     	ds	1
   780  00008C                     I2C_Start@adrs:
   781                           	opt stack 0
   782  00008C                     USBTransferOnePacket@len:
   783                           	opt stack 0
   784                           
   785                           ; 1 bytes @ 0x3
   786  00008C                     	ds	1
   787  00008D                     I2C_LCD_Command@c:
   788                           	opt stack 0
   789  00008D                     USBTransferOnePacket@ep:
   790                           	opt stack 0
   791  00008D                     ringbuf_init@bufsize:
   792                           	opt stack 0
   793  00008D                     I2C_LCD_Puts@s:
   794                           	opt stack 0
   795  00008D                     memset@n:
   796                           	opt stack 0
   797                           
   798                           ; 2 bytes @ 0x4
   799  00008D                     	ds	1
   800  00008E                     I2C_LCD_Command@ans:
   801                           	opt stack 0
   802  00008E                     USBTransferOnePacket@handle:
   803                           	opt stack 0
   804                           
   805                           ; 2 bytes @ 0x5
   806  00008E                     	ds	1
   807  00008F                     ??_I2C_LCD_Clear:
   808  00008F                     ??_I2C_LCD_Puts:
   809  00008F                     I2C_LCD_SetCursor@row:
   810                           	opt stack 0
   811  00008F                     memset@p:
   812                           	opt stack 0
   813                           
   814                           ; 2 bytes @ 0x6
   815  00008F                     	ds	1
   816  000090                     ??_CDCTxService:
   817  000090                     I2C_LCD_SetCursor@row_offsets:
   818                           	opt stack 0
   819  000090                     I2C_LCD_Puts@ans:
   820                           	opt stack 0
   821  000090                     getsUSBUSART@buffer:
   822                           	opt stack 0
   823                           
   824                           ; 2 bytes @ 0x7
   825  000090                     	ds	1
   826  000091                     USBDeviceInit@i:
   827                           	opt stack 0
   828  000091                     _CDCTxService$4007:
   829                           	opt stack 0
   830                           
   831                           ; 2 bytes @ 0x8
   832  000091                     	ds	1
   833  000092                     I2C_LCD_SetCursor@col:
   834                           	opt stack 0
   835  000092                     getsUSBUSART@len:
   836                           	opt stack 0
   837                           
   838                           ; 1 bytes @ 0x9
   839  000092                     	ds	1
   840  000093                     ??_getsUSBUSART:
   841  000093                     CDCTxService@i:
   842                           	opt stack 0
   843                           
   844                           ; 1 bytes @ 0xA
   845  000093                     	ds	1
   846  000094                     CDCTxService@byte_to_send:
   847                           	opt stack 0
   848  000094                     _getsUSBUSART$3959:
   849                           	opt stack 0
   850                           
   851                           ; 2 bytes @ 0xB
   852  000094                     	ds	1
   853  000095                     ?_put_string_usb:
   854                           	opt stack 0
   855  000095                     put_string_usb@s:
   856                           	opt stack 0
   857                           
   858                           ; 2 bytes @ 0xC
   859  000095                     	ds	1
   860  000096                     ?_get_string_usb:
   861                           	opt stack 0
   862  000096                     get_string_usb@s:
   863                           	opt stack 0
   864                           
   865                           ; 2 bytes @ 0xD
   866  000096                     	ds	1
   867  000097                     put_string_usb@len:
   868                           	opt stack 0
   869                           
   870                           ; 2 bytes @ 0xE
   871  000097                     	ds	1
   872  000098                     get_string_usb@len:
   873                           	opt stack 0
   874                           
   875                           ; 2 bytes @ 0xF
   876  000098                     	ds	1
   877  000099                     
   878                           ; 0 bytes @ 0x10
   879  000099                     	ds	1
   880  00009A                     ??_get_string_usb:
   881                           
   882                           ; 0 bytes @ 0x11
   883  00009A                     	ds	1
   884  00009B                     get_string_usb@rx_len:
   885                           	opt stack 0
   886                           
   887                           ; 2 bytes @ 0x12
   888  00009B                     	ds	2
   889  00009D                     tblptru	equ	0xFF8
   890                           tblptrh	equ	0xFF7
   891                           tblptrl	equ	0xFF6
   892                           tablat	equ	0xFF5
   893                           postinc0	equ	0xFEE
   894                           wreg	equ	0xFE8
   895                           
   896                           ; 0 bytes @ 0x14
   897                           
   898                           	psect	cstackCOMRAM
   899  00002D                     __pcstackCOMRAM:
   900                           	opt stack 0
   901  00002D                     ??_USBStdGetDscHandler:
   902  00002D                     ??_USBStdGetStatusHandler:
   903  00002D                     ?_ringbuf_num:
   904                           	opt stack 0
   905  00002D                     ?i2_USBTransferOnePacket:
   906                           	opt stack 0
   907  00002D                     USBConfigureEndpoint@direction:
   908                           	opt stack 0
   909  00002D                     USBCtrlTrfTxService@byteToSend:
   910                           	opt stack 0
   911  00002D                     USBCtrlTrfRxService@i:
   912                           	opt stack 0
   913  00002D                     i2USBTransferOnePacket@dir:
   914                           	opt stack 0
   915  00002D                     ringbuf_num@rb:
   916                           	opt stack 0
   917  00002D                     i2memset@p1:
   918                           	opt stack 0
   919                           
   920                           ; 2 bytes @ 0x0
   921  00002D                     	ds	1
   922  00002E                     ??_USBConfigureEndpoint:
   923  00002E                     USBCtrlTrfRxService@byteToRead:
   924                           	opt stack 0
   925  00002E                     USBCtrlTrfInHandler@lastDTS:
   926                           	opt stack 0
   927  00002E                     USBStdGetStatusHandler@p:
   928                           	opt stack 0
   929  00002E                     i2USBTransferOnePacket@data:
   930                           	opt stack 0
   931                           
   932                           ; 2 bytes @ 0x1
   933  00002E                     	ds	1
   934  00002F                     ??_ringbuf_num:
   935  00002F                     i2memset@c:
   936                           	opt stack 0
   937                           
   938                           ; 2 bytes @ 0x2
   939  00002F                     	ds	1
   940  000030                     i2USBTransferOnePacket@len:
   941                           	opt stack 0
   942                           
   943                           ; 1 bytes @ 0x3
   944  000030                     	ds	1
   945  000031                     i2USBTransferOnePacket@ep:
   946                           	opt stack 0
   947  000031                     i2memset@n:
   948                           	opt stack 0
   949                           
   950                           ; 2 bytes @ 0x4
   951  000031                     	ds	1
   952  000032                     USBConfigureEndpoint@EPNum:
   953                           	opt stack 0
   954  000032                     i2USBTransferOnePacket@handle:
   955                           	opt stack 0
   956                           
   957                           ; 2 bytes @ 0x5
   958  000032                     	ds	1
   959  000033                     USBConfigureEndpoint@handle:
   960                           	opt stack 0
   961  000033                     i2memset@p:
   962                           	opt stack 0
   963                           
   964                           ; 2 bytes @ 0x6
   965  000033                     	ds	2
   966  000035                     USBEnableEndpoint@options:
   967                           	opt stack 0
   968  000035                     i2USBDeviceInit@i:
   969                           	opt stack 0
   970  000035                     ringbuf_put@rb:
   971                           	opt stack 0
   972  000035                     ringbuf_pop@rb:
   973                           	opt stack 0
   974                           
   975                           ; 2 bytes @ 0x8
   976  000035                     	ds	1
   977  000036                     USBEnableEndpoint@p:
   978                           	opt stack 0
   979                           
   980                           ; 2 bytes @ 0x9
   981  000036                     	ds	1
   982  000037                     ??_ringbuf_pop:
   983  000037                     ringbuf_put@asciicode:
   984                           	opt stack 0
   985                           
   986                           ; 1 bytes @ 0xA
   987  000037                     	ds	1
   988  000038                     ??_ringbuf_put:
   989  000038                     USBEnableEndpoint@ep:
   990                           	opt stack 0
   991                           
   992                           ; 1 bytes @ 0xB
   993  000038                     	ds	1
   994  000039                     USER_USB_CALLBACK_EVENT_HANDLER@event:
   995                           	opt stack 0
   996                           
   997                           ; 2 bytes @ 0xC
   998  000039                     	ds	2
   999  00003B                     ringbuf_pop@ret:
  1000                           	opt stack 0
  1001  00003B                     USER_USB_CALLBACK_EVENT_HANDLER@pdata:
  1002                           	opt stack 0
  1003                           
  1004                           ; 2 bytes @ 0xE
  1005  00003B                     	ds	1
  1006  00003C                     UART_ISR@ascii:
  1007                           	opt stack 0
  1008                           
  1009                           ; 1 bytes @ 0xF
  1010  00003C                     	ds	1
  1011  00003D                     USER_USB_CALLBACK_EVENT_HANDLER@size:
  1012                           	opt stack 0
  1013                           
  1014                           ; 2 bytes @ 0x10
  1015  00003D                     	ds	2
  1016  00003F                     ??_USER_USB_CALLBACK_EVENT_HANDLER:
  1017                           
  1018                           ; 0 bytes @ 0x12
  1019  00003F                     	ds	2
  1020  000041                     ??_USBStdFeatureReqHandler:
  1021  000041                     USBStdSetCfgHandler@i:
  1022                           	opt stack 0
  1023                           
  1024                           ; 1 bytes @ 0x14
  1025  000041                     	ds	1
  1026  000042                     USBStdFeatureReqHandler@pUEP:
  1027                           	opt stack 0
  1028                           
  1029                           ; 2 bytes @ 0x15
  1030  000042                     	ds	2
  1031  000044                     USBStdFeatureReqHandler@current_ep_data:
  1032                           	opt stack 0
  1033                           
  1034                           ; 1 bytes @ 0x17
  1035  000044                     	ds	1
  1036  000045                     USBStdFeatureReqHandler@p:
  1037                           	opt stack 0
  1038                           
  1039                           ; 2 bytes @ 0x18
  1040  000045                     	ds	2
  1041  000047                     ??_USBCtrlEPService:
  1042  000047                     
  1043                           ; 0 bytes @ 0x1A
  1044  000047                     	ds	2
  1045  000049                     USBCtrlEPService@setup_cnt:
  1046                           	opt stack 0
  1047                           
  1048                           ; 1 bytes @ 0x1C
  1049  000049                     	ds	1
  1050  00004A                     USBDeviceTasks@i:
  1051                           	opt stack 0
  1052                           
  1053                           ; 1 bytes @ 0x1D
  1054  00004A                     	ds	1
  1055  00004B                     ??_ISR:
  1056                           
  1057                           ; 0 bytes @ 0x1E
  1058  00004B                     	ds	14
  1059                           tblptru	equ	0xFF8
  1060                           tblptrh	equ	0xFF7
  1061                           tblptrl	equ	0xFF6
  1062                           tablat	equ	0xFF5
  1063                           postinc0	equ	0xFEE
  1064                           wreg	equ	0xFE8
  1065                           
  1066 ;;
  1067 ;;Main: autosize = 0, tempsize = 0, incstack = 0, save=0
  1068 ;;
  1069 ;; *************** function _main *****************
  1070 ;; Defined at:
  1071 ;;		line 76 in file "PIC18F27J53-USB03.c"
  1072 ;; Parameters:    Size  Location     Type
  1073 ;;		None
  1074 ;; Auto vars:     Size  Location     Type
  1075 ;;  str           100    0[BANK3 ] unsigned char [100]
  1076 ;;  rx_len          2  100[BANK3 ] int 
  1077 ;; Return value:  Size  Location     Type
  1078 ;;                  2  546[None  ] int 
  1079 ;; Registers used:
  1080 ;;		wreg, fsr0l, fsr0h, fsr1l, fsr1h, fsr2l, fsr2h, status,2, status,0, tblptrl, tblptrh, tblptru, prodl, prodh, cstack
  1081 ;; Tracked objects:
  1082 ;;		On entry : 0/0
  1083 ;;		On exit  : 0/0
  1084 ;;		Unchanged: 0/0
  1085 ;; Data sizes:     COMRAM   BANK0   BANK1   BANK2   BANK3   BANK4   BANK5   BANK6   BANK7   BANK8   BANK9  BANK10  BANK1
      +1  BANK12  BANK13  BANK14
  1086 ;;      Params:         0       0       0       0       0       0       0       0       0       0       0       0       
      +0       0       0       0
  1087 ;;      Locals:         0       0       0       0     102       0       0       0       0       0       0       0       
      +0       0       0       0
  1088 ;;      Temps:          0       0       0       0       0       0       0       0       0       0       0       0       
      +0       0       0       0
  1089 ;;      Totals:         0       0       0       0     102       0       0       0       0       0       0       0       
      +0       0       0       0
  1090 ;;Total ram usage:      102 bytes
  1091 ;; Hardware stack levels required when called:   16
  1092 ;; This function calls:
  1093 ;;		_I2C_LCD_Puts
  1094 ;;		_I2C_LCD_SetCursor
  1095 ;;		_USB_init
  1096 ;;		_get_string_usb
  1097 ;;		_main_init
  1098 ;;		_put_string_usb
  1099 ;; This function is called by:
  1100 ;;		Startup code after reset
  1101 ;; This function uses a non-reentrant model
  1102 ;;
  1103                           
  1104                           	psect	text0
  1105  0027DC                     __ptext0:
  1106                           	opt stack 0
  1107  0027DC                     _main:
  1108                           	opt stack 15
  1109                           
  1110                           ;PIC18F27J53-USB03.c: 77: main_init();
  1111                           
  1112                           ;incstack = 0
  1113  0027DC  EC9E  F014         	call	_main_init	;wreg free
  1114                           
  1115                           ;PIC18F27J53-USB03.c: 78: INTCONbits.GIE = 1;
  1116  0027E0  8EF2               	bsf	intcon,7,c	;volatile
  1117                           
  1118                           ;PIC18F27J53-USB03.c: 80: I2C_LCD_SetCursor(0, 0);
  1119  0027E2  0E00               	movlw	0
  1120  0027E4  0100               	movlb	0	; () banked
  1121  0027E6  6F8F               	movwf	I2C_LCD_SetCursor@row& (0+255),b
  1122  0027E8  0E00               	movlw	0
  1123  0027EA  ECF4  F018         	call	_I2C_LCD_SetCursor
  1124                           
  1125                           ;PIC18F27J53-USB03.c: 81: I2C_LCD_Puts("Hello");
  1126  0027EE  0EEC               	movlw	low STR_2
  1127  0027F0  0100               	movlb	0	; () banked
  1128  0027F2  6F8D               	movwf	I2C_LCD_Puts@s& (0+255),b
  1129  0027F4  0E11               	movlw	high STR_2
  1130  0027F6  0100               	movlb	0	; () banked
  1131  0027F8  6F8E               	movwf	(I2C_LCD_Puts@s+1)& (0+255),b
  1132  0027FA  EC86  F015         	call	_I2C_LCD_Puts	;wreg free
  1133                           
  1134                           ;PIC18F27J53-USB03.c: 82: I2C_LCD_SetCursor(0, 1);
  1135  0027FE  0E01               	movlw	1
  1136  002800  0100               	movlb	0	; () banked
  1137  002802  6F8F               	movwf	I2C_LCD_SetCursor@row& (0+255),b
  1138  002804  0E00               	movlw	0
  1139  002806  ECF4  F018         	call	_I2C_LCD_SetCursor
  1140                           
  1141                           ;PIC18F27J53-USB03.c: 83: I2C_LCD_Puts("World");
  1142  00280A  0EE6               	movlw	low STR_3
  1143  00280C  0100               	movlb	0	; () banked
  1144  00280E  6F8D               	movwf	I2C_LCD_Puts@s& (0+255),b
  1145  002810  0E11               	movlw	high STR_3
  1146  002812  0100               	movlb	0	; () banked
  1147  002814  6F8E               	movwf	(I2C_LCD_Puts@s+1)& (0+255),b
  1148  002816  EC86  F015         	call	_I2C_LCD_Puts	;wreg free
  1149                           
  1150                           ;PIC18F27J53-USB03.c: 85: USB_init();
  1151  00281A  EC9B  F019         	call	_USB_init	;wreg free
  1152  00281E  D000               	goto	l6896
  1153  002820                     l6896:
  1154                           
  1155                           ;PIC18F27J53-USB03.c: 88: INTCONbits.GIE = 0;
  1156  002820  9EF2               	bcf	intcon,7,c	;volatile
  1157                           
  1158                           ;PIC18F27J53-USB03.c: 89: char str[100];
  1159                           ;PIC18F27J53-USB03.c: 90: int rx_len;
  1160                           ;PIC18F27J53-USB03.c: 91: rx_len = get_string_usb(str, sizeof (str));
  1161  002822  0E80               	movlw	low main@str
  1162  002824  0100               	movlb	0	; () banked
  1163  002826  6F96               	movwf	get_string_usb@s& (0+255),b
  1164  002828  0E03               	movlw	high main@str
  1165  00282A  0100               	movlb	0	; () banked
  1166  00282C  6F97               	movwf	(get_string_usb@s+1)& (0+255),b
  1167  00282E  0E00               	movlw	0
  1168  002830  0100               	movlb	0	; () banked
  1169  002832  6F99               	movwf	(get_string_usb@len+1)& (0+255),b
  1170  002834  0E64               	movlw	100
  1171  002836  6F98               	movwf	get_string_usb@len& (0+255),b
  1172  002838  ECF8  F016         	call	_get_string_usb	;wreg free
  1173  00283C  C096  F3E4         	movff	?_get_string_usb,main@rx_len
  1174  002840  C097  F3E5         	movff	?_get_string_usb+1,main@rx_len+1
  1175                           
  1176                           ;PIC18F27J53-USB03.c: 92: if (rx_len) {
  1177  002844  0103               	movlb	3	; () banked
  1178  002846  51E4               	movf	main@rx_len& (0+255),w,b
  1179  002848  0103               	movlb	3	; () banked
  1180  00284A  11E5               	iorwf	(main@rx_len+1)& (0+255),w,b
  1181  00284C  A4D8               	btfss	status,2,c
  1182  00284E  D002               	goto	l6904
  1183  002850  D019               	goto	l6908
  1184                           
  1185                           ; BSR set to: 3
  1186                           
  1187                           ; BSR set to: 3
  1188                           ;PIC18F27J53-USB03.c: 93: while (put_string_usb(str, rx_len));
  1189  002852  D000               	goto	l6904
  1190  002854                     l6904:
  1191  002854  0E80               	movlw	low main@str
  1192  002856  0100               	movlb	0	; () banked
  1193  002858  6F95               	movwf	put_string_usb@s& (0+255),b
  1194  00285A  0E03               	movlw	high main@str
  1195  00285C  0100               	movlb	0	; () banked
  1196  00285E  6F96               	movwf	(put_string_usb@s+1)& (0+255),b
  1197  002860  C3E4  F097         	movff	main@rx_len,put_string_usb@len
  1198  002864  C3E5  F098         	movff	main@rx_len+1,put_string_usb@len+1
  1199  002868  EC72  F017         	call	_put_string_usb	;wreg free
  1200  00286C  0100               	movlb	0	; () banked
  1201  00286E  5195               	movf	?_put_string_usb& (0+255),w,b
  1202  002870  0100               	movlb	0	; () banked
  1203  002872  1196               	iorwf	(?_put_string_usb+1)& (0+255),w,b
  1204  002874  A4D8               	btfss	status,2,c
  1205  002876  D7EE               	goto	l6904
  1206                           
  1207                           ; BSR set to: 0
  1208                           ;PIC18F27J53-USB03.c: 94: rx_len = 0;
  1209                           
  1210                           ; BSR set to: 0
  1211  002878  0E00               	movlw	0
  1212  00287A  0103               	movlb	3	; () banked
  1213  00287C  6FE5               	movwf	(main@rx_len+1)& (0+255),b
  1214  00287E  0E00               	movlw	0
  1215  002880  6FE4               	movwf	main@rx_len& (0+255),b
  1216  002882  D000               	goto	l6908
  1217  002884                     l6908:
  1218                           
  1219                           ; BSR set to: 3
  1220                           ;PIC18F27J53-USB03.c: 95: }
  1221                           ;PIC18F27J53-USB03.c: 96: INTCONbits.GIE = 1;
  1222  002884  8EF2               	bsf	intcon,7,c	;volatile
  1223                           
  1224                           ; BSR set to: 3
  1225  002886  D7CC               	goto	l6896
  1226                           
  1227                           ; BSR set to: 3
  1228                           
  1229                           ; BSR set to: 3
  1230                           ;PIC18F27J53-USB03.c: 97: }
  1231                           ;PIC18F27J53-USB03.c: 98: return 0;
  1232                           ;	Return value of _main is never used
  1233  002888  EF4E  F008         	goto	start
  1234  00288C                     __end_of_main:
  1235                           	opt stack 0
  1236                           tblptru	equ	0xFF8
  1237                           tblptrh	equ	0xFF7
  1238                           tblptrl	equ	0xFF6
  1239                           tablat	equ	0xFF5
  1240                           intcon	equ	0xFF2
  1241                           postinc0	equ	0xFEE
  1242                           wreg	equ	0xFE8
  1243                           status	equ	0xFD8
  1244                           
  1245 ;; *************** function _put_string_usb *****************
  1246 ;; Defined at:
  1247 ;;		line 16 in file "../My_header/usb_cdc/my_usb_cdc.c"
  1248 ;; Parameters:    Size  Location     Type
  1249 ;;  s               2   12[BANK0 ] PTR unsigned char 
  1250 ;;		 -> main@str(100), 
  1251 ;;  len             2   14[BANK0 ] int 
  1252 ;; Auto vars:     Size  Location     Type
  1253 ;;		None
  1254 ;; Return value:  Size  Location     Type
  1255 ;;                  2   12[BANK0 ] int 
  1256 ;; Registers used:
  1257 ;;		wreg, fsr1l, fsr1h, fsr2l, fsr2h, status,2, status,0, prodl, prodh, cstack
  1258 ;; Tracked objects:
  1259 ;;		On entry : 0/0
  1260 ;;		On exit  : 0/0
  1261 ;;		Unchanged: 0/0
  1262 ;; Data sizes:     COMRAM   BANK0   BANK1   BANK2   BANK3   BANK4   BANK5   BANK6   BANK7   BANK8   BANK9  BANK10  BANK1
      +1  BANK12  BANK13  BANK14
  1263 ;;      Params:         0       4       0       0       0       0       0       0       0       0       0       0       
      +0       0       0       0
  1264 ;;      Locals:         0       0       0       0       0       0       0       0       0       0       0       0       
      +0       0       0       0
  1265 ;;      Temps:          0       0       0       0       0       0       0       0       0       0       0       0       
      +0       0       0       0
  1266 ;;      Totals:         0       4       0       0       0       0       0       0       0       0       0       0       
      +0       0       0       0
  1267 ;;Total ram usage:        4 bytes
  1268 ;; Hardware stack levels used:    1
  1269 ;; Hardware stack levels required when called:   12
  1270 ;; This function calls:
  1271 ;;		_CDCTxService
  1272 ;;		_is_usb_available
  1273 ;;		_putUSBUSART
  1274 ;; This function is called by:
  1275 ;;		_main
  1276 ;; This function uses a non-reentrant model
  1277 ;;
  1278                           
  1279                           	psect	text1
  1280  002EE4                     __ptext1:
  1281                           	opt stack 0
  1282  002EE4                     _put_string_usb:
  1283                           	opt stack 18
  1284                           
  1285                           ;my_usb_cdc.c: 17: if (!is_usb_available()) {
  1286                           
  1287                           ; BSR set to: 3
  1288                           ;incstack = 0
  1289  002EE4  EC68  F019         	call	_is_usb_available	;wreg free
  1290  002EE8  0900               	iorlw	0
  1291  002EEA  A4D8               	btfss	status,2,c
  1292  002EEC  D00A               	goto	l6752
  1293                           
  1294                           ;my_usb_cdc.c: 19: return 1;
  1295  002EEE  0E00               	movlw	0
  1296  002EF0  0100               	movlb	0	; () banked
  1297  002EF2  6F96               	movwf	(?_put_string_usb+1)& (0+255),b
  1298  002EF4  0E01               	movlw	1
  1299  002EF6  6F95               	movwf	?_put_string_usb& (0+255),b
  1300                           
  1301                           ; BSR set to: 0
  1302  002EF8  0012               	return	
  1303                           
  1304                           ; BSR set to: 0
  1305                           ;my_usb_cdc.c: 20: }
  1306                           ;my_usb_cdc.c: 21: while (!(cdc_trf_state == 0)) CDCTxService();
  1307  002EFA  D003               	goto	l6752
  1308  002EFC                     l6750:
  1309                           
  1310                           ; BSR set to: 0
  1311  002EFC  EC44  F00A         	call	_CDCTxService	;wreg free
  1312  002F00  D000               	goto	l6752
  1313  002F02                     l6752:
  1314  002F02  0100               	movlb	0	; () banked
  1315  002F04  517F               	movf	_cdc_trf_state& (0+255),w,b
  1316  002F06  A4D8               	btfss	status,2,c
  1317  002F08  D7F9               	goto	l6750
  1318                           
  1319                           ; BSR set to: 0
  1320                           ;my_usb_cdc.c: 22: putUSBUSART(s, len);
  1321                           
  1322                           ; BSR set to: 0
  1323  002F0A  C095  F089         	movff	put_string_usb@s,putUSBUSART@data
  1324  002F0E  C096  F08A         	movff	put_string_usb@s+1,putUSBUSART@data+1
  1325  002F12  C097  F08B         	movff	put_string_usb@len,putUSBUSART@length
  1326  002F16  EC20  F019         	call	_putUSBUSART	;wreg free
  1327                           
  1328                           ;my_usb_cdc.c: 23: CDCTxService();
  1329  002F1A  EC44  F00A         	call	_CDCTxService	;wreg free
  1330                           
  1331                           ;my_usb_cdc.c: 24: return 0;
  1332  002F1E  0E00               	movlw	0
  1333  002F20  0100               	movlb	0	; () banked
  1334  002F22  6F96               	movwf	(?_put_string_usb+1)& (0+255),b
  1335  002F24  0E00               	movlw	0
  1336  002F26  6F95               	movwf	?_put_string_usb& (0+255),b
  1337  002F28  0012               	return	
  1338                           
  1339                           ; BSR set to: 0
  1340                           
  1341                           ; BSR set to: 0
  1342  002F2A  0012               	return		;funcret
  1343  002F2C                     __end_of_put_string_usb:
  1344                           	opt stack 0
  1345                           tblptru	equ	0xFF8
  1346                           tblptrh	equ	0xFF7
  1347                           tblptrl	equ	0xFF6
  1348                           tablat	equ	0xFF5
  1349                           intcon	equ	0xFF2
  1350                           postinc0	equ	0xFEE
  1351                           wreg	equ	0xFE8
  1352                           status	equ	0xFD8
  1353                           
  1354 ;; *************** function _putUSBUSART *****************
  1355 ;; Defined at:
  1356 ;;		line 613 in file "../My_header/usb_cdc/usb/usb_device_cdc.c"
  1357 ;; Parameters:    Size  Location     Type
  1358 ;;  data            2    0[BANK0 ] PTR unsigned char 
  1359 ;;		 -> main@str(100), 
  1360 ;;  length          1    2[BANK0 ] unsigned char 
  1361 ;; Auto vars:     Size  Location     Type
  1362 ;;		None
  1363 ;; Return value:  Size  Location     Type
  1364 ;;		None               void
  1365 ;; Registers used:
  1366 ;;		wreg, status,2, status,0
  1367 ;; Tracked objects:
  1368 ;;		On entry : 0/0
  1369 ;;		On exit  : 0/0
  1370 ;;		Unchanged: 0/0
  1371 ;; Data sizes:     COMRAM   BANK0   BANK1   BANK2   BANK3   BANK4   BANK5   BANK6   BANK7   BANK8   BANK9  BANK10  BANK1
      +1  BANK12  BANK13  BANK14
  1372 ;;      Params:         0       3       0       0       0       0       0       0       0       0       0       0       
      +0       0       0       0
  1373 ;;      Locals:         0       0       0       0       0       0       0       0       0       0       0       0       
      +0       0       0       0
  1374 ;;      Temps:          0       0       0       0       0       0       0       0       0       0       0       0       
      +0       0       0       0
  1375 ;;      Totals:         0       3       0       0       0       0       0       0       0       0       0       0       
      +0       0       0       0
  1376 ;;Total ram usage:        3 bytes
  1377 ;; Hardware stack levels used:    1
  1378 ;; Hardware stack levels required when called:   10
  1379 ;; This function calls:
  1380 ;;		Nothing
  1381 ;; This function is called by:
  1382 ;;		_put_string_usb
  1383 ;; This function uses a non-reentrant model
  1384 ;;
  1385                           
  1386                           	psect	text2
  1387  003240                     __ptext2:
  1388                           	opt stack 0
  1389  003240                     _putUSBUSART:
  1390                           	opt stack 19
  1391                           
  1392                           ;usb_device_cdc.c: 638: {PIE2bits.USBIE = 0;};
  1393                           
  1394                           ; BSR set to: 0
  1395                           ;incstack = 0
  1396  003240  98A0               	bcf	4000,4,c	;volatile
  1397                           
  1398                           ;usb_device_cdc.c: 639: if(cdc_trf_state == 0)
  1399  003242  0100               	movlb	0	; () banked
  1400  003244  517F               	movf	_cdc_trf_state& (0+255),w,b
  1401  003246  A4D8               	btfss	status,2,c
  1402  003248  D00D               	goto	l6628
  1403                           
  1404                           ; BSR set to: 0
  1405                           ;usb_device_cdc.c: 640: {
  1406                           ;usb_device_cdc.c: 641: { pCDCSrc.bRam = (uint8_t*)data; cdc_tx_len = length; cdc_mem_ty
      +                          pe = 0x01; cdc_trf_state = 1; };
  1407  00324A  C089  F06F         	movff	putUSBUSART@data,_pCDCSrc
  1408  00324E  C08A  F070         	movff	putUSBUSART@data+1,_pCDCSrc+1
  1409                           
  1410                           ; BSR set to: 0
  1411  003252  C08B  F080         	movff	putUSBUSART@length,_cdc_tx_len
  1412                           
  1413                           ; BSR set to: 0
  1414  003256  0E01               	movlw	1
  1415  003258  0100               	movlb	0	; () banked
  1416  00325A  6F7D               	movwf	_cdc_mem_type& (0+255),b
  1417                           
  1418                           ; BSR set to: 0
  1419  00325C  0E01               	movlw	1
  1420  00325E  0100               	movlb	0	; () banked
  1421  003260  6F7F               	movwf	_cdc_trf_state& (0+255),b
  1422  003262  D000               	goto	l6628
  1423  003264                     l6628:
  1424                           
  1425                           ; BSR set to: 0
  1426                           ;usb_device_cdc.c: 642: }
  1427                           ;usb_device_cdc.c: 643: {PIE2bits.USBIE = 1;};
  1428  003264  88A0               	bsf	4000,4,c	;volatile
  1429                           
  1430                           ; BSR set to: 0
  1431  003266  0012               	return		;funcret
  1432  003268                     __end_of_putUSBUSART:
  1433                           	opt stack 0
  1434                           tblptru	equ	0xFF8
  1435                           tblptrh	equ	0xFF7
  1436                           tblptrl	equ	0xFF6
  1437                           tablat	equ	0xFF5
  1438                           intcon	equ	0xFF2
  1439                           postinc0	equ	0xFEE
  1440                           wreg	equ	0xFE8
  1441                           status	equ	0xFD8
  1442                           
  1443 ;; *************** function _main_init *****************
  1444 ;; Defined at:
  1445 ;;		line 50 in file "PIC18F27J53-USB03.c"
  1446 ;; Parameters:    Size  Location     Type
  1447 ;;		None
  1448 ;; Auto vars:     Size  Location     Type
  1449 ;;  rxbuf         200    0[BANK2 ] unsigned char [200]
  1450 ;;  txbuf         200    0[BANK1 ] unsigned char [200]
  1451 ;; Return value:  Size  Location     Type
  1452 ;;		None               void
  1453 ;; Registers used:
  1454 ;;		wreg, fsr2l, fsr2h, status,2, status,0, cstack
  1455 ;; Tracked objects:
  1456 ;;		On entry : 0/0
  1457 ;;		On exit  : 0/0
  1458 ;;		Unchanged: 0/0
  1459 ;; Data sizes:     COMRAM   BANK0   BANK1   BANK2   BANK3   BANK4   BANK5   BANK6   BANK7   BANK8   BANK9  BANK10  BANK1
      +1  BANK12  BANK13  BANK14
  1460 ;;      Params:         0       0       0       0       0       0       0       0       0       0       0       0       
      +0       0       0       0
  1461 ;;      Locals:         0       0     200     200       0       0       0       0       0       0       0       0       
      +0       0       0       0
  1462 ;;      Temps:          0       0       0       0       0       0       0       0       0       0       0       0       
      +0       0       0       0
  1463 ;;      Totals:         0       0     200     200       0       0       0       0       0       0       0       0       
      +0       0       0       0
  1464 ;;Total ram usage:      400 bytes
  1465 ;; Hardware stack levels used:    1
  1466 ;; Hardware stack levels required when called:   15
  1467 ;; This function calls:
  1468 ;;		_CTMU_init
  1469 ;;		_I2C_LCD_init
  1470 ;;		_I2C_init
  1471 ;;		_RTCC_init
  1472 ;;		_UART_init
  1473 ;;		_ringbuf_init
  1474 ;;		_timer0_init
  1475 ;;		_timer1_init
  1476 ;;		_timer3_init
  1477 ;; This function is called by:
  1478 ;;		_main
  1479 ;; This function uses a non-reentrant model
  1480 ;;
  1481                           
  1482                           	psect	text3
  1483  00293C                     __ptext3:
  1484                           	opt stack 0
  1485  00293C                     _main_init:
  1486                           	opt stack 15
  1487                           
  1488                           ;PIC18F27J53-USB03.c: 51: OSCCONbits.IRCF = 7;
  1489                           
  1490                           ; BSR set to: 0
  1491                           ;incstack = 0
  1492  00293C  88D3               	bsf	4051,4,c	;volatile
  1493  00293E  8AD3               	bsf	4051,5,c	;volatile
  1494  002940  8CD3               	bsf	4051,6,c	;volatile
  1495                           
  1496                           ;PIC18F27J53-USB03.c: 52: OSCTUNEbits.PLLEN = 1;
  1497  002942  8C9B               	bsf	3995,6,c	;volatile
  1498                           
  1499                           ;PIC18F27J53-USB03.c: 53: OSCCONbits.SCS = 0;
  1500  002944  0EFC               	movlw	-4
  1501  002946  16D3               	andwf	4051,f,c	;volatile
  1502                           
  1503                           ;PIC18F27J53-USB03.c: 54: TRISA = 0b00011111;
  1504  002948  0E1F               	movlw	31
  1505  00294A  6E92               	movwf	3986,c	;volatile
  1506                           
  1507                           ;PIC18F27J53-USB03.c: 55: TRISB = 0b00111111;
  1508  00294C  0E3F               	movlw	63
  1509  00294E  6E93               	movwf	3987,c	;volatile
  1510                           
  1511                           ;PIC18F27J53-USB03.c: 56: TRISC = 0b10111010;
  1512  002950  0EBA               	movlw	186
  1513  002952  6E94               	movwf	3988,c	;volatile
  1514                           
  1515                           ;PIC18F27J53-USB03.c: 57: ANCON0 = 0b11111111;
  1516  002954  010F               	movlb	15	; () banked
  1517  002956  6948               	setf	72,b	;volatile
  1518                           
  1519                           ;PIC18F27J53-USB03.c: 58: ANCON1 = 0b00011000;
  1520  002958  0E18               	movlw	24
  1521  00295A  010F               	movlb	15	; () banked
  1522  00295C  6F49               	movwf	73,b	;volatile
  1523                           
  1524                           ; BSR set to: 15
  1525                           ;PIC18F27J53-USB03.c: 59: INTCON2bits.RBPU = 0;
  1526  00295E  9EF1               	bcf	intcon2,7,c	;volatile
  1527                           
  1528                           ; BSR set to: 15
  1529                           ;PIC18F27J53-USB03.c: 61: timer0_init(6);
  1530  002960  0E06               	movlw	6
  1531  002962  ECDA  F017         	call	_timer0_init
  1532                           
  1533                           ;PIC18F27J53-USB03.c: 62: timer1_init(0, 2);
  1534  002966  0E02               	movlw	2
  1535  002968  0100               	movlb	0	; () banked
  1536  00296A  6F89               	movwf	timer1_init@clock_select& (0+255),b
  1537  00296C  0E00               	movlw	0
  1538  00296E  EC22  F017         	call	_timer1_init
  1539                           
  1540                           ;PIC18F27J53-USB03.c: 63: timer3_init(2);
  1541  002972  0E02               	movlw	2
  1542  002974  ECDE  F018         	call	_timer3_init
  1543                           
  1544                           ;PIC18F27J53-USB03.c: 64: I2C_init();
  1545  002978  EC92  F019         	call	_I2C_init	;wreg free
  1546                           
  1547                           ;PIC18F27J53-USB03.c: 65: I2C_LCD_init();
  1548  00297C  EC78  F016         	call	_I2C_LCD_init	;wreg free
  1549                           
  1550                           ;PIC18F27J53-USB03.c: 66: RTCC_init();
  1551  002980  EC80  F018         	call	_RTCC_init	;wreg free
  1552                           
  1553                           ;PIC18F27J53-USB03.c: 67: CTMU_init();
  1554  002984  EC34  F019         	call	_CTMU_init	;wreg free
  1555                           
  1556                           ;PIC18F27J53-USB03.c: 69: UART_init();
  1557  002988  EC48  F019         	call	_UART_init	;wreg free
  1558                           
  1559                           ;PIC18F27J53-USB03.c: 70: uint8_t txbuf[200];
  1560                           ;PIC18F27J53-USB03.c: 71: ringbuf_init(&tx_buf, txbuf, sizeof (txbuf));
  1561  00298C  0EE9               	movlw	low _tx_buf
  1562  00298E  0100               	movlb	0	; () banked
  1563  002990  6F89               	movwf	ringbuf_init@rb& (0+255),b
  1564  002992  0E01               	movlw	high _tx_buf
  1565  002994  0100               	movlb	0	; () banked
  1566  002996  6F8A               	movwf	(ringbuf_init@rb+1)& (0+255),b
  1567  002998  0E00               	movlw	low main_init@txbuf
  1568  00299A  0100               	movlb	0	; () banked
  1569  00299C  6F8B               	movwf	ringbuf_init@internal_buf& (0+255),b
  1570  00299E  0E01               	movlw	high main_init@txbuf
  1571  0029A0  0100               	movlb	0	; () banked
  1572  0029A2  6F8C               	movwf	(ringbuf_init@internal_buf+1)& (0+255),b
  1573  0029A4  0E00               	movlw	0
  1574  0029A6  0100               	movlb	0	; () banked
  1575  0029A8  6F8E               	movwf	(ringbuf_init@bufsize+1)& (0+255),b
  1576  0029AA  0EC8               	movlw	200
  1577  0029AC  6F8D               	movwf	ringbuf_init@bufsize& (0+255),b
  1578  0029AE  ECCE  F016         	call	_ringbuf_init	;wreg free
  1579                           
  1580                           ;PIC18F27J53-USB03.c: 72: uint8_t rxbuf[200];
  1581                           ;PIC18F27J53-USB03.c: 73: ringbuf_init(&rx_buf, rxbuf, sizeof (rxbuf));
  1582  0029B2  0EE1               	movlw	low _rx_buf
  1583  0029B4  0100               	movlb	0	; () banked
  1584  0029B6  6F89               	movwf	ringbuf_init@rb& (0+255),b
  1585  0029B8  0E01               	movlw	high _rx_buf
  1586  0029BA  0100               	movlb	0	; () banked
  1587  0029BC  6F8A               	movwf	(ringbuf_init@rb+1)& (0+255),b
  1588  0029BE  0E00               	movlw	low main_init@rxbuf
  1589  0029C0  0100               	movlb	0	; () banked
  1590  0029C2  6F8B               	movwf	ringbuf_init@internal_buf& (0+255),b
  1591  0029C4  0E02               	movlw	high main_init@rxbuf
  1592  0029C6  0100               	movlb	0	; () banked
  1593  0029C8  6F8C               	movwf	(ringbuf_init@internal_buf+1)& (0+255),b
  1594  0029CA  0E00               	movlw	0
  1595  0029CC  0100               	movlb	0	; () banked
  1596  0029CE  6F8E               	movwf	(ringbuf_init@bufsize+1)& (0+255),b
  1597  0029D0  0EC8               	movlw	200
  1598  0029D2  6F8D               	movwf	ringbuf_init@bufsize& (0+255),b
  1599  0029D4  ECCE  F016         	call	_ringbuf_init	;wreg free
  1600  0029D8  0012               	return		;funcret
  1601  0029DA                     __end_of_main_init:
  1602                           	opt stack 0
  1603                           tblptru	equ	0xFF8
  1604                           tblptrh	equ	0xFF7
  1605                           tblptrl	equ	0xFF6
  1606                           tablat	equ	0xFF5
  1607                           intcon	equ	0xFF2
  1608                           intcon2	equ	0xFF1
  1609                           postinc0	equ	0xFEE
  1610                           wreg	equ	0xFE8
  1611                           status	equ	0xFD8
  1612                           
  1613 ;; *************** function _timer3_init *****************
  1614 ;; Defined at:
  1615 ;;		line 85 in file "../My_header\My_header.h"
  1616 ;; Parameters:    Size  Location     Type
  1617 ;;  prescaler       1    wreg     unsigned char 
  1618 ;; Auto vars:     Size  Location     Type
  1619 ;;  prescaler       1    1[BANK0 ] unsigned char 
  1620 ;; Return value:  Size  Location     Type
  1621 ;;		None               void
  1622 ;; Registers used:
  1623 ;;		wreg, status,2, status,0
  1624 ;; Tracked objects:
  1625 ;;		On entry : 0/0
  1626 ;;		On exit  : 0/0
  1627 ;;		Unchanged: 0/0
  1628 ;; Data sizes:     COMRAM   BANK0   BANK1   BANK2   BANK3   BANK4   BANK5   BANK6   BANK7   BANK8   BANK9  BANK10  BANK1
      +1  BANK12  BANK13  BANK14
  1629 ;;      Params:         0       0       0       0       0       0       0       0       0       0       0       0       
      +0       0       0       0
  1630 ;;      Locals:         0       1       0       0       0       0       0       0       0       0       0       0       
      +0       0       0       0
  1631 ;;      Temps:          0       1       0       0       0       0       0       0       0       0       0       0       
      +0       0       0       0
  1632 ;;      Totals:         0       2       0       0       0       0       0       0       0       0       0       0       
      +0       0       0       0
  1633 ;;Total ram usage:        2 bytes
  1634 ;; Hardware stack levels used:    1
  1635 ;; Hardware stack levels required when called:   10
  1636 ;; This function calls:
  1637 ;;		Nothing
  1638 ;; This function is called by:
  1639 ;;		_main_init
  1640 ;; This function uses a non-reentrant model
  1641 ;;
  1642                           
  1643                           	psect	text4
  1644  0031BC                     __ptext4:
  1645                           	opt stack 0
  1646  0031BC                     _timer3_init:
  1647                           	opt stack 19
  1648                           
  1649                           ;incstack = 0
  1650                           ;timer3_init@prescaler stored from wreg
  1651  0031BC  0100               	movlb	0	; () banked
  1652  0031BE  6F8A               	movwf	timer3_init@prescaler& (0+255),b
  1653                           
  1654                           ; BSR set to: 0
  1655                           ;My_header\My_header.h: 86: T3CONbits.TMR3CS = 0;
  1656  0031C0  0E3F               	movlw	-193
  1657  0031C2  1679               	andwf	3961,f,c	;volatile
  1658                           
  1659                           ; BSR set to: 0
  1660                           ;My_header\My_header.h: 87: T3CONbits.T3OSCEN = 0;
  1661  0031C4  9679               	bcf	3961,3,c	;volatile
  1662                           
  1663                           ; BSR set to: 0
  1664                           ;My_header\My_header.h: 88: T3CONbits.T3CKPS = prescaler;
  1665  0031C6  C08A  F089         	movff	timer3_init@prescaler,??_timer3_init
  1666  0031CA  0100               	movlb	0	; () banked
  1667  0031CC  3B89               	swapf	??_timer3_init& (0+255),f,b
  1668  0031CE  5079               	movf	3961,w,c	;volatile
  1669  0031D0  0100               	movlb	0	; () banked
  1670  0031D2  1989               	xorwf	??_timer3_init& (0+255),w,b
  1671  0031D4  0BCF               	andlw	-49
  1672  0031D6  1989               	xorwf	??_timer3_init& (0+255),w,b
  1673  0031D8  6E79               	movwf	3961,c	;volatile
  1674                           
  1675                           ; BSR set to: 0
  1676                           ;My_header\My_header.h: 89: T3CONbits.RD163 = 0;
  1677  0031DA  9E79               	bcf	3961,7,c	;volatile
  1678                           
  1679                           ; BSR set to: 0
  1680                           ;My_header\My_header.h: 90: T3CONbits.TMR3ON = 1;
  1681  0031DC  8079               	bsf	3961,0,c	;volatile
  1682                           
  1683                           ; BSR set to: 0
  1684                           ;My_header\My_header.h: 91: IPR2bits.TMR3IP = 0;
  1685  0031DE  92A2               	bcf	4002,1,c	;volatile
  1686                           
  1687                           ; BSR set to: 0
  1688                           ;My_header\My_header.h: 92: PIR2bits.TMR3IF = 0;
  1689  0031E0  92A1               	bcf	4001,1,c	;volatile
  1690                           
  1691                           ; BSR set to: 0
  1692                           ;My_header\My_header.h: 93: PIE2bits.TMR3IE = 1;
  1693  0031E2  82A0               	bsf	4000,1,c	;volatile
  1694                           
  1695                           ; BSR set to: 0
  1696                           ;My_header\My_header.h: 94: INTCONbits.PEIE = 1;
  1697  0031E4  8CF2               	bsf	intcon,6,c	;volatile
  1698                           
  1699                           ; BSR set to: 0
  1700  0031E6  0012               	return		;funcret
  1701  0031E8                     __end_of_timer3_init:
  1702                           	opt stack 0
  1703                           tblptru	equ	0xFF8
  1704                           tblptrh	equ	0xFF7
  1705                           tblptrl	equ	0xFF6
  1706                           tablat	equ	0xFF5
  1707                           intcon	equ	0xFF2
  1708                           intcon2	equ	0xFF1
  1709                           postinc0	equ	0xFEE
  1710                           wreg	equ	0xFE8
  1711                           status	equ	0xFD8
  1712                           
  1713 ;; *************** function _timer1_init *****************
  1714 ;; Defined at:
  1715 ;;		line 54 in file "../My_header\My_header.h"
  1716 ;; Parameters:    Size  Location     Type
  1717 ;;  prescaler       1    wreg     unsigned char 
  1718 ;;  clock_select    1    0[BANK0 ] unsigned char 
  1719 ;; Auto vars:     Size  Location     Type
  1720 ;;  prescaler       1    2[BANK0 ] unsigned char 
  1721 ;; Return value:  Size  Location     Type
  1722 ;;		None               void
  1723 ;; Registers used:
  1724 ;;		wreg, status,2, status,0
  1725 ;; Tracked objects:
  1726 ;;		On entry : 0/0
  1727 ;;		On exit  : 0/0
  1728 ;;		Unchanged: 0/0
  1729 ;; Data sizes:     COMRAM   BANK0   BANK1   BANK2   BANK3   BANK4   BANK5   BANK6   BANK7   BANK8   BANK9  BANK10  BANK1
      +1  BANK12  BANK13  BANK14
  1730 ;;      Params:         0       1       0       0       0       0       0       0       0       0       0       0       
      +0       0       0       0
  1731 ;;      Locals:         0       1       0       0       0       0       0       0       0       0       0       0       
      +0       0       0       0
  1732 ;;      Temps:          0       1       0       0       0       0       0       0       0       0       0       0       
      +0       0       0       0
  1733 ;;      Totals:         0       3       0       0       0       0       0       0       0       0       0       0       
      +0       0       0       0
  1734 ;;Total ram usage:        3 bytes
  1735 ;; Hardware stack levels used:    1
  1736 ;; Hardware stack levels required when called:   10
  1737 ;; This function calls:
  1738 ;;		Nothing
  1739 ;; This function is called by:
  1740 ;;		_main_init
  1741 ;; This function uses a non-reentrant model
  1742 ;;
  1743                           
  1744                           	psect	text5
  1745  002E44                     __ptext5:
  1746                           	opt stack 0
  1747  002E44                     _timer1_init:
  1748                           	opt stack 19
  1749                           
  1750                           ; BSR set to: 0
  1751                           ;incstack = 0
  1752                           ;timer1_init@prescaler stored from wreg
  1753  002E44  0100               	movlb	0	; () banked
  1754  002E46  6F8B               	movwf	timer1_init@prescaler& (0+255),b
  1755                           
  1756                           ; BSR set to: 0
  1757                           ;My_header\My_header.h: 55: T1CONbits.TMR1CS = clock_select;
  1758  002E48  C089  F08A         	movff	timer1_init@clock_select,??_timer1_init
  1759  002E4C  0100               	movlb	0	; () banked
  1760  002E4E  3B8A               	swapf	??_timer1_init& (0+255),f,b
  1761  002E50  478A               	rlncf	??_timer1_init& (0+255),f,b
  1762  002E52  478A               	rlncf	??_timer1_init& (0+255),f,b
  1763  002E54  50CD               	movf	4045,w,c	;volatile
  1764  002E56  0100               	movlb	0	; () banked
  1765  002E58  198A               	xorwf	??_timer1_init& (0+255),w,b
  1766  002E5A  0B3F               	andlw	-193
  1767  002E5C  198A               	xorwf	??_timer1_init& (0+255),w,b
  1768  002E5E  6ECD               	movwf	4045,c	;volatile
  1769                           
  1770                           ;My_header\My_header.h: 56: if (clock_select == 2) T1CONbits.T1OSCEN = 1;
  1771  002E60  0E02               	movlw	2
  1772  002E62  0100               	movlb	0	; () banked
  1773  002E64  1989               	xorwf	timer1_init@clock_select& (0+255),w,b
  1774  002E66  A4D8               	btfss	status,2,c
  1775  002E68  D002               	goto	l122
  1776                           
  1777                           ; BSR set to: 0
  1778  002E6A  86CD               	bsf	4045,3,c	;volatile
  1779  002E6C  D002               	goto	l6368
  1780  002E6E                     l122:
  1781                           
  1782                           ; BSR set to: 0
  1783                           ;My_header\My_header.h: 57: else T1CONbits.T1OSCEN = 0;
  1784  002E6E  96CD               	bcf	4045,3,c	;volatile
  1785  002E70  D000               	goto	l6368
  1786  002E72                     l6368:
  1787                           
  1788                           ; BSR set to: 0
  1789                           ;My_header\My_header.h: 58: T1CONbits.T1CKPS = prescaler;
  1790  002E72  C08B  F08A         	movff	timer1_init@prescaler,??_timer1_init
  1791  002E76  0100               	movlb	0	; () banked
  1792  002E78  3B8A               	swapf	??_timer1_init& (0+255),f,b
  1793  002E7A  50CD               	movf	4045,w,c	;volatile
  1794  002E7C  0100               	movlb	0	; () banked
  1795  002E7E  198A               	xorwf	??_timer1_init& (0+255),w,b
  1796  002E80  0BCF               	andlw	-49
  1797  002E82  198A               	xorwf	??_timer1_init& (0+255),w,b
  1798  002E84  6ECD               	movwf	4045,c	;volatile
  1799                           
  1800                           ; BSR set to: 0
  1801                           ;My_header\My_header.h: 59: T1CONbits.nT1SYNC = 1;
  1802  002E86  84CD               	bsf	4045,2,c	;volatile
  1803                           
  1804                           ; BSR set to: 0
  1805                           ;My_header\My_header.h: 60: T1CONbits.RD16 = 0;
  1806  002E88  92CD               	bcf	4045,1,c	;volatile
  1807                           
  1808                           ; BSR set to: 0
  1809                           ;My_header\My_header.h: 61: T1CONbits.TMR1ON = 1;
  1810  002E8A  80CD               	bsf	4045,0,c	;volatile
  1811                           
  1812                           ; BSR set to: 0
  1813                           ;My_header\My_header.h: 62: IPR1bits.TMR1IP = 0;
  1814  002E8C  909F               	bcf	3999,0,c	;volatile
  1815                           
  1816                           ; BSR set to: 0
  1817                           ;My_header\My_header.h: 63: PIR1bits.TMR1IF = 0;
  1818  002E8E  909E               	bcf	3998,0,c	;volatile
  1819                           
  1820                           ; BSR set to: 0
  1821                           ;My_header\My_header.h: 64: PIE1bits.TMR1IE = 1;
  1822  002E90  809D               	bsf	3997,0,c	;volatile
  1823                           
  1824                           ; BSR set to: 0
  1825                           ;My_header\My_header.h: 65: INTCONbits.PEIE = 1;
  1826  002E92  8CF2               	bsf	intcon,6,c	;volatile
  1827                           
  1828                           ; BSR set to: 0
  1829  002E94  0012               	return		;funcret
  1830  002E96                     __end_of_timer1_init:
  1831                           	opt stack 0
  1832                           tblptru	equ	0xFF8
  1833                           tblptrh	equ	0xFF7
  1834                           tblptrl	equ	0xFF6
  1835                           tablat	equ	0xFF5
  1836                           intcon	equ	0xFF2
  1837                           intcon2	equ	0xFF1
  1838                           postinc0	equ	0xFEE
  1839                           wreg	equ	0xFE8
  1840                           status	equ	0xFD8
  1841                           
  1842 ;; *************** function _timer0_init *****************
  1843 ;; Defined at:
  1844 ;;		line 15 in file "../My_header\My_header.h"
  1845 ;; Parameters:    Size  Location     Type
  1846 ;;  prescaler       1    wreg     unsigned char 
  1847 ;; Auto vars:     Size  Location     Type
  1848 ;;  prescaler       1    1[BANK0 ] unsigned char 
  1849 ;; Return value:  Size  Location     Type
  1850 ;;		None               void
  1851 ;; Registers used:
  1852 ;;		wreg, status,2, status,0
  1853 ;; Tracked objects:
  1854 ;;		On entry : 0/0
  1855 ;;		On exit  : 0/0
  1856 ;;		Unchanged: 0/0
  1857 ;; Data sizes:     COMRAM   BANK0   BANK1   BANK2   BANK3   BANK4   BANK5   BANK6   BANK7   BANK8   BANK9  BANK10  BANK1
      +1  BANK12  BANK13  BANK14
  1858 ;;      Params:         0       0       0       0       0       0       0       0       0       0       0       0       
      +0       0       0       0
  1859 ;;      Locals:         0       1       0       0       0       0       0       0       0       0       0       0       
      +0       0       0       0
  1860 ;;      Temps:          0       1       0       0       0       0       0       0       0       0       0       0       
      +0       0       0       0
  1861 ;;      Totals:         0       2       0       0       0       0       0       0       0       0       0       0       
      +0       0       0       0
  1862 ;;Total ram usage:        2 bytes
  1863 ;; Hardware stack levels used:    1
  1864 ;; Hardware stack levels required when called:   10
  1865 ;; This function calls:
  1866 ;;		Nothing
  1867 ;; This function is called by:
  1868 ;;		_main_init
  1869 ;; This function uses a non-reentrant model
  1870 ;;
  1871                           
  1872                           	psect	text6
  1873  002FB4                     __ptext6:
  1874                           	opt stack 0
  1875  002FB4                     _timer0_init:
  1876                           	opt stack 19
  1877                           
  1878                           ; BSR set to: 0
  1879                           ;incstack = 0
  1880                           ;timer0_init@prescaler stored from wreg
  1881  002FB4  0100               	movlb	0	; () banked
  1882  002FB6  6F8A               	movwf	timer0_init@prescaler& (0+255),b
  1883                           
  1884                           ; BSR set to: 0
  1885                           ;My_header\My_header.h: 16: T0CONbits.TMR0ON = 1;
  1886  002FB8  8ED5               	bsf	4053,7,c	;volatile
  1887                           
  1888                           ;My_header\My_header.h: 17: T0CONbits.T08BIT = 1;
  1889  002FBA  8CD5               	bsf	4053,6,c	;volatile
  1890                           
  1891                           ;My_header\My_header.h: 18: T0CONbits.T0CS = 0;
  1892  002FBC  9AD5               	bcf	4053,5,c	;volatile
  1893                           
  1894                           ; BSR set to: 0
  1895                           ;My_header\My_header.h: 19: if (prescaler == 0) {
  1896  002FBE  0100               	movlb	0	; () banked
  1897  002FC0  518A               	movf	timer0_init@prescaler& (0+255),w,b
  1898  002FC2  0100               	movlb	0	; () banked
  1899  002FC4  A4D8               	btfss	status,2,c
  1900  002FC6  D002               	goto	l117
  1901                           
  1902                           ; BSR set to: 0
  1903                           ;My_header\My_header.h: 20: T0CONbits.PSA = 1;
  1904  002FC8  86D5               	bsf	4053,3,c	;volatile
  1905                           
  1906                           ;My_header\My_header.h: 21: } else {
  1907  002FCA  D00D               	goto	l6356
  1908  002FCC                     l117:
  1909                           
  1910                           ; BSR set to: 0
  1911                           ;My_header\My_header.h: 22: T0CONbits.PSA = 0;
  1912  002FCC  96D5               	bcf	4053,3,c	;volatile
  1913                           
  1914                           ; BSR set to: 0
  1915                           ;My_header\My_header.h: 23: T0CONbits.T0PS = prescaler - 1;
  1916  002FCE  C08A  F089         	movff	timer0_init@prescaler,??_timer0_init
  1917  002FD2  0EFF               	movlw	255
  1918  002FD4  0100               	movlb	0	; () banked
  1919  002FD6  2789               	addwf	??_timer0_init& (0+255),f,b
  1920  002FD8  50D5               	movf	4053,w,c	;volatile
  1921  002FDA  0100               	movlb	0	; () banked
  1922  002FDC  1989               	xorwf	??_timer0_init& (0+255),w,b
  1923  002FDE  0BF8               	andlw	-8
  1924  002FE0  1989               	xorwf	??_timer0_init& (0+255),w,b
  1925  002FE2  6ED5               	movwf	4053,c	;volatile
  1926  002FE4  D000               	goto	l6356
  1927  002FE6                     l6356:
  1928                           
  1929                           ; BSR set to: 0
  1930                           ;My_header\My_header.h: 24: }
  1931                           ;My_header\My_header.h: 25: INTCONbits.T0IE = 1;
  1932  002FE6  8AF2               	bsf	intcon,5,c	;volatile
  1933                           
  1934                           ; BSR set to: 0
  1935                           ;My_header\My_header.h: 26: INTCONbits.TMR0IF = 0;
  1936  002FE8  94F2               	bcf	intcon,2,c	;volatile
  1937                           
  1938                           ; BSR set to: 0
  1939                           ;My_header\My_header.h: 27: INTCON2bits.TMR0IP = 0;
  1940  002FEA  94F1               	bcf	intcon2,2,c	;volatile
  1941                           
  1942                           ; BSR set to: 0
  1943                           ;My_header\My_header.h: 28: INTCONbits.PEIE = 1;
  1944  002FEC  8CF2               	bsf	intcon,6,c	;volatile
  1945                           
  1946                           ; BSR set to: 0
  1947  002FEE  0012               	return		;funcret
  1948  002FF0                     __end_of_timer0_init:
  1949                           	opt stack 0
  1950                           tblptru	equ	0xFF8
  1951                           tblptrh	equ	0xFF7
  1952                           tblptrl	equ	0xFF6
  1953                           tablat	equ	0xFF5
  1954                           intcon	equ	0xFF2
  1955                           intcon2	equ	0xFF1
  1956                           postinc0	equ	0xFEE
  1957                           wreg	equ	0xFE8
  1958                           status	equ	0xFD8
  1959                           
  1960 ;; *************** function _ringbuf_init *****************
  1961 ;; Defined at:
  1962 ;;		line 24 in file "../My_header\My_ringbuf.h"
  1963 ;; Parameters:    Size  Location     Type
  1964 ;;  rb              2    0[BANK0 ] PTR struct ringbuf
  1965 ;;		 -> rx_buf(8), tx_buf(8), 
  1966 ;;  internal_buf    2    2[BANK0 ] PTR unsigned char 
  1967 ;;		 -> main_init@rxbuf(200), main_init@txbuf(200), 
  1968 ;;  bufsize         2    4[BANK0 ] unsigned int 
  1969 ;; Auto vars:     Size  Location     Type
  1970 ;;		None
  1971 ;; Return value:  Size  Location     Type
  1972 ;;		None               void
  1973 ;; Registers used:
  1974 ;;		wreg, fsr2l, fsr2h, status,2, status,0
  1975 ;; Tracked objects:
  1976 ;;		On entry : 0/0
  1977 ;;		On exit  : 0/0
  1978 ;;		Unchanged: 0/0
  1979 ;; Data sizes:     COMRAM   BANK0   BANK1   BANK2   BANK3   BANK4   BANK5   BANK6   BANK7   BANK8   BANK9  BANK10  BANK1
      +1  BANK12  BANK13  BANK14
  1980 ;;      Params:         0       6       0       0       0       0       0       0       0       0       0       0       
      +0       0       0       0
  1981 ;;      Locals:         0       0       0       0       0       0       0       0       0       0       0       0       
      +0       0       0       0
  1982 ;;      Temps:          0       0       0       0       0       0       0       0       0       0       0       0       
      +0       0       0       0
  1983 ;;      Totals:         0       6       0       0       0       0       0       0       0       0       0       0       
      +0       0       0       0
  1984 ;;Total ram usage:        6 bytes
  1985 ;; Hardware stack levels used:    1
  1986 ;; Hardware stack levels required when called:   10
  1987 ;; This function calls:
  1988 ;;		Nothing
  1989 ;; This function is called by:
  1990 ;;		_main_init
  1991 ;; This function uses a non-reentrant model
  1992 ;;
  1993                           
  1994                           	psect	text7
  1995  002D9C                     __ptext7:
  1996                           	opt stack 0
  1997  002D9C                     _ringbuf_init:
  1998                           	opt stack 19
  1999                           
  2000                           ;My_header\My_ringbuf.h: 25: rb->buf = internal_buf;
  2001                           
  2002                           ; BSR set to: 0
  2003                           ;incstack = 0
  2004  002D9C  C089  FFD9         	movff	ringbuf_init@rb,fsr2l
  2005  002DA0  C08A  FFDA         	movff	ringbuf_init@rb+1,fsr2h
  2006  002DA4  C08B  FFDE         	movff	ringbuf_init@internal_buf,postinc2
  2007  002DA8  C08C  FFDD         	movff	ringbuf_init@internal_buf+1,postdec2
  2008                           
  2009                           ;My_header\My_ringbuf.h: 26: rb->size = bufsize;
  2010  002DAC  0100               	movlb	0	; () banked
  2011  002DAE  EE20 F002          	lfsr	2,2
  2012  002DB2  5189               	movf	ringbuf_init@rb& (0+255),w,b
  2013  002DB4  26D9               	addwf	fsr2l,f,c
  2014  002DB6  518A               	movf	(ringbuf_init@rb+1)& (0+255),w,b
  2015  002DB8  22DA               	addwfc	fsr2h,f,c
  2016  002DBA  C08D  FFDE         	movff	ringbuf_init@bufsize,postinc2
  2017  002DBE  C08E  FFDD         	movff	ringbuf_init@bufsize+1,postdec2
  2018                           
  2019                           ; BSR set to: 0
  2020                           ;My_header\My_ringbuf.h: 27: rb->head = 0;
  2021  002DC2  0100               	movlb	0	; () banked
  2022  002DC4  EE20 F004          	lfsr	2,4
  2023  002DC8  5189               	movf	ringbuf_init@rb& (0+255),w,b
  2024  002DCA  26D9               	addwf	fsr2l,f,c
  2025  002DCC  518A               	movf	(ringbuf_init@rb+1)& (0+255),w,b
  2026  002DCE  22DA               	addwfc	fsr2h,f,c
  2027  002DD0  0E00               	movlw	0
  2028  002DD2  6EDE               	movwf	postinc2,c
  2029  002DD4  0E00               	movlw	0
  2030  002DD6  6EDD               	movwf	postdec2,c
  2031                           
  2032                           ; BSR set to: 0
  2033                           ;My_header\My_ringbuf.h: 28: rb->tail = 0;
  2034  002DD8  0100               	movlb	0	; () banked
  2035  002DDA  EE20 F006          	lfsr	2,6
  2036  002DDE  5189               	movf	ringbuf_init@rb& (0+255),w,b
  2037  002DE0  26D9               	addwf	fsr2l,f,c
  2038  002DE2  518A               	movf	(ringbuf_init@rb+1)& (0+255),w,b
  2039  002DE4  22DA               	addwfc	fsr2h,f,c
  2040  002DE6  0E00               	movlw	0
  2041  002DE8  6EDE               	movwf	postinc2,c
  2042  002DEA  0E00               	movlw	0
  2043  002DEC  6EDD               	movwf	postdec2,c
  2044                           
  2045                           ; BSR set to: 0
  2046  002DEE  0012               	return		;funcret
  2047  002DF0                     __end_of_ringbuf_init:
  2048                           	opt stack 0
  2049                           tblptru	equ	0xFF8
  2050                           tblptrh	equ	0xFF7
  2051                           tblptrl	equ	0xFF6
  2052                           tablat	equ	0xFF5
  2053                           intcon	equ	0xFF2
  2054                           intcon2	equ	0xFF1
  2055                           postinc0	equ	0xFEE
  2056                           wreg	equ	0xFE8
  2057                           postinc2	equ	0xFDE
  2058                           postdec2	equ	0xFDD
  2059                           fsr2h	equ	0xFDA
  2060                           fsr2l	equ	0xFD9
  2061                           status	equ	0xFD8
  2062                           
  2063 ;; *************** function _UART_init *****************
  2064 ;; Defined at:
  2065 ;;		line 192 in file "../My_header\My_header.h"
  2066 ;; Parameters:    Size  Location     Type
  2067 ;;		None
  2068 ;; Auto vars:     Size  Location     Type
  2069 ;;		None
  2070 ;; Return value:  Size  Location     Type
  2071 ;;		None               void
  2072 ;; Registers used:
  2073 ;;		wreg, status,2
  2074 ;; Tracked objects:
  2075 ;;		On entry : 0/0
  2076 ;;		On exit  : 0/0
  2077 ;;		Unchanged: 0/0
  2078 ;; Data sizes:     COMRAM   BANK0   BANK1   BANK2   BANK3   BANK4   BANK5   BANK6   BANK7   BANK8   BANK9  BANK10  BANK1
      +1  BANK12  BANK13  BANK14
  2079 ;;      Params:         0       0       0       0       0       0       0       0       0       0       0       0       
      +0       0       0       0
  2080 ;;      Locals:         0       0       0       0       0       0       0       0       0       0       0       0       
      +0       0       0       0
  2081 ;;      Temps:          0       0       0       0       0       0       0       0       0       0       0       0       
      +0       0       0       0
  2082 ;;      Totals:         0       0       0       0       0       0       0       0       0       0       0       0       
      +0       0       0       0
  2083 ;;Total ram usage:        0 bytes
  2084 ;; Hardware stack levels used:    1
  2085 ;; Hardware stack levels required when called:   10
  2086 ;; This function calls:
  2087 ;;		Nothing
  2088 ;; This function is called by:
  2089 ;;		_main_init
  2090 ;; This function uses a non-reentrant model
  2091 ;;
  2092                           
  2093                           	psect	text8
  2094  003290                     __ptext8:
  2095                           	opt stack 0
  2096  003290                     _UART_init:
  2097                           	opt stack 19
  2098                           
  2099                           ;My_header\My_header.h: 193: TXSTA1bits.TX9 = 0;
  2100                           
  2101                           ; BSR set to: 0
  2102                           ;incstack = 0
  2103  003290  9CAD               	bcf	4013,6,c	;volatile
  2104                           
  2105                           ;My_header\My_header.h: 194: TXSTA1bits.TXEN = 1;
  2106  003292  8AAD               	bsf	4013,5,c	;volatile
  2107                           
  2108                           ;My_header\My_header.h: 195: TXSTA1bits.SYNC = 0;
  2109  003294  98AD               	bcf	4013,4,c	;volatile
  2110                           
  2111                           ;My_header\My_header.h: 196: TXSTA1bits.BRGH = 0;
  2112  003296  94AD               	bcf	4013,2,c	;volatile
  2113                           
  2114                           ;My_header\My_header.h: 197: RCSTA1bits.SPEN = 1;
  2115  003298  8EAC               	bsf	4012,7,c	;volatile
  2116                           
  2117                           ;My_header\My_header.h: 198: RCSTA1bits.RX9 = 0;
  2118  00329A  9CAC               	bcf	4012,6,c	;volatile
  2119                           
  2120                           ;My_header\My_header.h: 199: RCSTA1bits.CREN = 1;
  2121  00329C  88AC               	bsf	4012,4,c	;volatile
  2122                           
  2123                           ;My_header\My_header.h: 200: BAUDCON1bits.BRG16 = 0;
  2124  00329E  967E               	bcf	3966,3,c	;volatile
  2125                           
  2126                           ;My_header\My_header.h: 201: SPBRG1 = 48000000 / 64 / 9600 - 1;
  2127  0032A0  0E4D               	movlw	77
  2128  0032A2  6EB0               	movwf	4016,c	;volatile
  2129                           
  2130                           ;My_header\My_header.h: 202: SPBRGH1 = 0;
  2131  0032A4  0E00               	movlw	0
  2132  0032A6  6E7F               	movwf	3967,c	;volatile
  2133                           
  2134                           ;My_header\My_header.h: 203: IPR1bits.RC1IP = 0;
  2135  0032A8  9A9F               	bcf	3999,5,c	;volatile
  2136                           
  2137                           ;My_header\My_header.h: 204: PIE1bits.RCIE = 1;
  2138  0032AA  8A9D               	bsf	3997,5,c	;volatile
  2139                           
  2140                           ;My_header\My_header.h: 205: INTCONbits.PEIE = 1;
  2141  0032AC  8CF2               	bsf	intcon,6,c	;volatile
  2142  0032AE  0012               	return		;funcret
  2143  0032B0                     __end_of_UART_init:
  2144                           	opt stack 0
  2145                           tblptru	equ	0xFF8
  2146                           tblptrh	equ	0xFF7
  2147                           tblptrl	equ	0xFF6
  2148                           tablat	equ	0xFF5
  2149                           intcon	equ	0xFF2
  2150                           intcon2	equ	0xFF1
  2151                           postinc0	equ	0xFEE
  2152                           wreg	equ	0xFE8
  2153                           postinc2	equ	0xFDE
  2154                           postdec2	equ	0xFDD
  2155                           fsr2h	equ	0xFDA
  2156                           fsr2l	equ	0xFD9
  2157                           status	equ	0xFD8
  2158                           
  2159 ;; *************** function _RTCC_init *****************
  2160 ;; Defined at:
  2161 ;;		line 56 in file "../My_header\My_RTCC.h"
  2162 ;; Parameters:    Size  Location     Type
  2163 ;;		None
  2164 ;; Auto vars:     Size  Location     Type
  2165 ;;		None
  2166 ;; Return value:  Size  Location     Type
  2167 ;;		None               void
  2168 ;; Registers used:
  2169 ;;		wreg, status,2
  2170 ;; Tracked objects:
  2171 ;;		On entry : 0/0
  2172 ;;		On exit  : 0/0
  2173 ;;		Unchanged: 0/0
  2174 ;; Data sizes:     COMRAM   BANK0   BANK1   BANK2   BANK3   BANK4   BANK5   BANK6   BANK7   BANK8   BANK9  BANK10  BANK1
      +1  BANK12  BANK13  BANK14
  2175 ;;      Params:         0       0       0       0       0       0       0       0       0       0       0       0       
      +0       0       0       0
  2176 ;;      Locals:         0       0       0       0       0       0       0       0       0       0       0       0       
      +0       0       0       0
  2177 ;;      Temps:          0       0       0       0       0       0       0       0       0       0       0       0       
      +0       0       0       0
  2178 ;;      Totals:         0       0       0       0       0       0       0       0       0       0       0       0       
      +0       0       0       0
  2179 ;;Total ram usage:        0 bytes
  2180 ;; Hardware stack levels used:    1
  2181 ;; Hardware stack levels required when called:   10
  2182 ;; This function calls:
  2183 ;;		Nothing
  2184 ;; This function is called by:
  2185 ;;		_main_init
  2186 ;; This function uses a non-reentrant model
  2187 ;;
  2188                           
  2189                           	psect	text9
  2190  003100                     __ptext9:
  2191                           	opt stack 0
  2192  003100                     _RTCC_init:
  2193                           	opt stack 19
  2194                           
  2195                           ;My_header\My_RTCC.h: 57: RTCCFGbits.RTCWREN = 1;
  2196                           
  2197                           ;incstack = 0
  2198  003100  010F               	movlb	15	; () banked
  2199  003102  8B3F               	bsf	63,5,b	;volatile
  2200                           
  2201                           ;My_header\My_RTCC.h: 58: if (RTCCFGbits.RTCWREN != 1) {
  2202  003104  010F               	movlb	15	; () banked
  2203  003106  BB3F               	btfsc	63,5,b	;volatile
  2204  003108  D007               	goto	l6446
  2205                           
  2206                           ; BSR set to: 15
  2207                           ;My_header\My_RTCC.h: 59: EECON2 = 0x55;
  2208  00310A  0E55               	movlw	85
  2209  00310C  6EA7               	movwf	4007,c	;volatile
  2210                           
  2211                           ;My_header\My_RTCC.h: 60: EECON2 = 0xAA;
  2212  00310E  0EAA               	movlw	170
  2213  003110  6EA7               	movwf	4007,c	;volatile
  2214                           
  2215                           ; BSR set to: 15
  2216                           ;My_header\My_RTCC.h: 61: RTCCFGbits.RTCWREN = 1;
  2217  003112  010F               	movlb	15	; () banked
  2218  003114  8B3F               	bsf	63,5,b	;volatile
  2219  003116  D000               	goto	l6446
  2220  003118                     l6446:
  2221                           
  2222                           ; BSR set to: 15
  2223                           ;My_header\My_RTCC.h: 62: }
  2224                           ;My_header\My_RTCC.h: 63: RTCCFGbits.RTCEN = 1;
  2225  003118  010F               	movlb	15	; () banked
  2226  00311A  8F3F               	bsf	63,7,b	;volatile
  2227                           
  2228                           ; BSR set to: 15
  2229                           ;My_header\My_RTCC.h: 64: RTCCFGbits.RTCOE = 0;
  2230  00311C  010F               	movlb	15	; () banked
  2231  00311E  953F               	bcf	63,2,b	;volatile
  2232                           
  2233                           ; BSR set to: 15
  2234                           ;My_header\My_RTCC.h: 65: PADCFG1bits.RTSECSEL0 = 1;
  2235  003120  010F               	movlb	15	; () banked
  2236  003122  833C               	bsf	60,1,b	;volatile
  2237                           
  2238                           ; BSR set to: 15
  2239                           ;My_header\My_RTCC.h: 66: PADCFG1bits.RTSECSEL1 = 1;
  2240  003124  010F               	movlb	15	; () banked
  2241  003126  853C               	bsf	60,2,b	;volatile
  2242                           
  2243                           ;My_header\My_RTCC.h: 67: RTCCAL = 0x00;
  2244  003128  0E00               	movlw	0
  2245  00312A  010F               	movlb	15	; () banked
  2246  00312C  6F3E               	movwf	62,b	;volatile
  2247                           
  2248                           ; BSR set to: 15
  2249  00312E  0012               	return		;funcret
  2250  003130                     __end_of_RTCC_init:
  2251                           	opt stack 0
  2252                           tblptru	equ	0xFF8
  2253                           tblptrh	equ	0xFF7
  2254                           tblptrl	equ	0xFF6
  2255                           tablat	equ	0xFF5
  2256                           intcon	equ	0xFF2
  2257                           intcon2	equ	0xFF1
  2258                           postinc0	equ	0xFEE
  2259                           wreg	equ	0xFE8
  2260                           postinc2	equ	0xFDE
  2261                           postdec2	equ	0xFDD
  2262                           fsr2h	equ	0xFDA
  2263                           fsr2l	equ	0xFD9
  2264                           status	equ	0xFD8
  2265                           
  2266 ;; *************** function _I2C_init *****************
  2267 ;; Defined at:
  2268 ;;		line 25 in file "../My_header\My_I2C.h"
  2269 ;; Parameters:    Size  Location     Type
  2270 ;;		None
  2271 ;; Auto vars:     Size  Location     Type
  2272 ;;		None
  2273 ;; Return value:  Size  Location     Type
  2274 ;;		None               void
  2275 ;; Registers used:
  2276 ;;		wreg, status,2
  2277 ;; Tracked objects:
  2278 ;;		On entry : 0/0
  2279 ;;		On exit  : 0/0
  2280 ;;		Unchanged: 0/0
  2281 ;; Data sizes:     COMRAM   BANK0   BANK1   BANK2   BANK3   BANK4   BANK5   BANK6   BANK7   BANK8   BANK9  BANK10  BANK1
      +1  BANK12  BANK13  BANK14
  2282 ;;      Params:         0       0       0       0       0       0       0       0       0       0       0       0       
      +0       0       0       0
  2283 ;;      Locals:         0       0       0       0       0       0       0       0       0       0       0       0       
      +0       0       0       0
  2284 ;;      Temps:          0       0       0       0       0       0       0       0       0       0       0       0       
      +0       0       0       0
  2285 ;;      Totals:         0       0       0       0       0       0       0       0       0       0       0       0       
      +0       0       0       0
  2286 ;;Total ram usage:        0 bytes
  2287 ;; Hardware stack levels used:    1
  2288 ;; Hardware stack levels required when called:   10
  2289 ;; This function calls:
  2290 ;;		Nothing
  2291 ;; This function is called by:
  2292 ;;		_main_init
  2293 ;; This function uses a non-reentrant model
  2294 ;;
  2295                           
  2296                           	psect	text10
  2297  003324                     __ptext10:
  2298                           	opt stack 0
  2299  003324                     _I2C_init:
  2300                           	opt stack 19
  2301                           
  2302                           ;My_header\My_I2C.h: 26: SSP1STAT = 0b10000000;
  2303                           
  2304                           ; BSR set to: 15
  2305                           ;incstack = 0
  2306  003324  0E80               	movlw	128
  2307  003326  6EC7               	movwf	4039,c	;volatile
  2308                           
  2309                           ;My_header\My_I2C.h: 27: SSP1CON1 = 0b00101000;
  2310  003328  0E28               	movlw	40
  2311  00332A  6EC6               	movwf	4038,c	;volatile
  2312                           
  2313                           ;My_header\My_I2C.h: 28: SSP1ADD = 0x13;
  2314  00332C  0E13               	movlw	19
  2315  00332E  6EC8               	movwf	4040,c	;volatile
  2316                           
  2317                           ;My_header\My_I2C.h: 31: SSP1IF = 0;
  2318  003330  969E               	bcf	3998,3,c	;volatile
  2319                           
  2320                           ;My_header\My_I2C.h: 32: BCL1IF = 0;
  2321  003332  96A1               	bcf	4001,3,c	;volatile
  2322  003334  0012               	return		;funcret
  2323  003336                     __end_of_I2C_init:
  2324                           	opt stack 0
  2325                           tblptru	equ	0xFF8
  2326                           tblptrh	equ	0xFF7
  2327                           tblptrl	equ	0xFF6
  2328                           tablat	equ	0xFF5
  2329                           intcon	equ	0xFF2
  2330                           intcon2	equ	0xFF1
  2331                           postinc0	equ	0xFEE
  2332                           wreg	equ	0xFE8
  2333                           postinc2	equ	0xFDE
  2334                           postdec2	equ	0xFDD
  2335                           fsr2h	equ	0xFDA
  2336                           fsr2l	equ	0xFD9
  2337                           status	equ	0xFD8
  2338                           
  2339 ;; *************** function _I2C_LCD_init *****************
  2340 ;; Defined at:
  2341 ;;		line 164 in file "../My_header\My_I2C.h"
  2342 ;; Parameters:    Size  Location     Type
  2343 ;;		None
  2344 ;; Auto vars:     Size  Location     Type
  2345 ;;		None
  2346 ;; Return value:  Size  Location     Type
  2347 ;;		None               void
  2348 ;; Registers used:
  2349 ;;		wreg, status,2, status,0, cstack
  2350 ;; Tracked objects:
  2351 ;;		On entry : 0/0
  2352 ;;		On exit  : 0/0
  2353 ;;		Unchanged: 0/0
  2354 ;; Data sizes:     COMRAM   BANK0   BANK1   BANK2   BANK3   BANK4   BANK5   BANK6   BANK7   BANK8   BANK9  BANK10  BANK1
      +1  BANK12  BANK13  BANK14
  2355 ;;      Params:         0       0       0       0       0       0       0       0       0       0       0       0       
      +0       0       0       0
  2356 ;;      Locals:         0       0       0       0       0       0       0       0       0       0       0       0       
      +0       0       0       0
  2357 ;;      Temps:          0       0       0       0       0       0       0       0       0       0       0       0       
      +0       0       0       0
  2358 ;;      Totals:         0       0       0       0       0       0       0       0       0       0       0       0       
      +0       0       0       0
  2359 ;;Total ram usage:        0 bytes
  2360 ;; Hardware stack levels used:    1
  2361 ;; Hardware stack levels required when called:   14
  2362 ;; This function calls:
  2363 ;;		_Delay_ms
  2364 ;;		_I2C_LCD_Clear
  2365 ;;		_I2C_LCD_Command
  2366 ;; This function is called by:
  2367 ;;		_main_init
  2368 ;; This function uses a non-reentrant model
  2369 ;;
  2370                           
  2371                           	psect	text11
  2372  002CF0                     __ptext11:
  2373                           	opt stack 0
  2374  002CF0                     _I2C_LCD_init:
  2375                           	opt stack 15
  2376                           
  2377                           ;My_header\My_I2C.h: 165: Delay_ms(40);
  2378                           
  2379                           ;incstack = 0
  2380  002CF0  0E00               	movlw	0
  2381  002CF2  0100               	movlb	0	; () banked
  2382  002CF4  6F8A               	movwf	(Delay_ms@ms+1)& (0+255),b
  2383  002CF6  0E28               	movlw	40
  2384  002CF8  6F89               	movwf	Delay_ms@ms& (0+255),b
  2385  002CFA  ECB0  F018         	call	_Delay_ms	;wreg free
  2386                           
  2387                           ;My_header\My_I2C.h: 166: I2C_LCD_Command(0x38);
  2388  002CFE  0E38               	movlw	56
  2389  002D00  EC15  F018         	call	_I2C_LCD_Command
  2390                           
  2391                           ;My_header\My_I2C.h: 167: I2C_LCD_Command(0x39);
  2392  002D04  0E39               	movlw	57
  2393  002D06  EC15  F018         	call	_I2C_LCD_Command
  2394                           
  2395                           ;My_header\My_I2C.h: 168: I2C_LCD_Command(0x14);
  2396  002D0A  0E14               	movlw	20
  2397  002D0C  EC15  F018         	call	_I2C_LCD_Command
  2398                           
  2399                           ;My_header\My_I2C.h: 169: I2C_LCD_Command(0x70);
  2400  002D10  0E70               	movlw	112
  2401  002D12  EC15  F018         	call	_I2C_LCD_Command
  2402                           
  2403                           ;My_header\My_I2C.h: 170: I2C_LCD_Command(0x56);
  2404  002D16  0E56               	movlw	86
  2405  002D18  EC15  F018         	call	_I2C_LCD_Command
  2406                           
  2407                           ;My_header\My_I2C.h: 171: I2C_LCD_Command(0x6C);
  2408  002D1C  0E6C               	movlw	108
  2409  002D1E  EC15  F018         	call	_I2C_LCD_Command
  2410                           
  2411                           ;My_header\My_I2C.h: 172: Delay_ms(200);
  2412  002D22  0E00               	movlw	0
  2413  002D24  0100               	movlb	0	; () banked
  2414  002D26  6F8A               	movwf	(Delay_ms@ms+1)& (0+255),b
  2415  002D28  0EC8               	movlw	200
  2416  002D2A  6F89               	movwf	Delay_ms@ms& (0+255),b
  2417  002D2C  ECB0  F018         	call	_Delay_ms	;wreg free
  2418                           
  2419                           ;My_header\My_I2C.h: 173: I2C_LCD_Command(0x38);
  2420  002D30  0E38               	movlw	56
  2421  002D32  EC15  F018         	call	_I2C_LCD_Command
  2422                           
  2423                           ;My_header\My_I2C.h: 174: I2C_LCD_Command(0x0C);
  2424  002D36  0E0C               	movlw	12
  2425  002D38  EC15  F018         	call	_I2C_LCD_Command
  2426                           
  2427                           ;My_header\My_I2C.h: 175: I2C_LCD_Command(0x06);
  2428  002D3C  0E06               	movlw	6
  2429  002D3E  EC15  F018         	call	_I2C_LCD_Command
  2430                           
  2431                           ;My_header\My_I2C.h: 176: I2C_LCD_Clear();
  2432  002D42  EC85  F019         	call	_I2C_LCD_Clear	;wreg free
  2433  002D46  0012               	return		;funcret
  2434  002D48                     __end_of_I2C_LCD_init:
  2435                           	opt stack 0
  2436                           tblptru	equ	0xFF8
  2437                           tblptrh	equ	0xFF7
  2438                           tblptrl	equ	0xFF6
  2439                           tablat	equ	0xFF5
  2440                           intcon	equ	0xFF2
  2441                           intcon2	equ	0xFF1
  2442                           postinc0	equ	0xFEE
  2443                           wreg	equ	0xFE8
  2444                           postinc2	equ	0xFDE
  2445                           postdec2	equ	0xFDD
  2446                           fsr2h	equ	0xFDA
  2447                           fsr2l	equ	0xFD9
  2448                           status	equ	0xFD8
  2449                           
  2450 ;; *************** function _I2C_LCD_Clear *****************
  2451 ;; Defined at:
  2452 ;;		line 107 in file "../My_header\My_I2C.h"
  2453 ;; Parameters:    Size  Location     Type
  2454 ;;		None
  2455 ;; Auto vars:     Size  Location     Type
  2456 ;;		None
  2457 ;; Return value:  Size  Location     Type
  2458 ;;		None               void
  2459 ;; Registers used:
  2460 ;;		wreg, status,2, status,0, cstack
  2461 ;; Tracked objects:
  2462 ;;		On entry : 0/0
  2463 ;;		On exit  : 0/0
  2464 ;;		Unchanged: 0/0
  2465 ;; Data sizes:     COMRAM   BANK0   BANK1   BANK2   BANK3   BANK4   BANK5   BANK6   BANK7   BANK8   BANK9  BANK10  BANK1
      +1  BANK12  BANK13  BANK14
  2466 ;;      Params:         0       0       0       0       0       0       0       0       0       0       0       0       
      +0       0       0       0
  2467 ;;      Locals:         0       0       0       0       0       0       0       0       0       0       0       0       
      +0       0       0       0
  2468 ;;      Temps:          0       1       0       0       0       0       0       0       0       0       0       0       
      +0       0       0       0
  2469 ;;      Totals:         0       1       0       0       0       0       0       0       0       0       0       0       
      +0       0       0       0
  2470 ;;Total ram usage:        1 bytes
  2471 ;; Hardware stack levels used:    1
  2472 ;; Hardware stack levels required when called:   13
  2473 ;; This function calls:
  2474 ;;		_I2C_LCD_Command
  2475 ;; This function is called by:
  2476 ;;		_I2C_LCD_init
  2477 ;; This function uses a non-reentrant model
  2478 ;;
  2479                           
  2480                           	psect	text12
  2481  00330A                     __ptext12:
  2482                           	opt stack 0
  2483  00330A                     _I2C_LCD_Clear:
  2484                           	opt stack 15
  2485                           
  2486                           ;My_header\My_I2C.h: 108: I2C_LCD_Command(0x01);
  2487                           
  2488                           ;incstack = 0
  2489  00330A  0E01               	movlw	1
  2490  00330C  EC15  F018         	call	_I2C_LCD_Command
  2491                           
  2492                           ;My_header\My_I2C.h: 109: _delay((unsigned long)((1100)*(48000000/4000000.0)));
  2493  003310  0E12               	movlw	18
  2494  003312  0100               	movlb	0	; () banked
  2495  003314  6F8F               	movwf	??_I2C_LCD_Clear& (0+255),b
  2496  003316  0E23               	movlw	35
  2497  003318                     u6407:
  2498  003318  2EE8               	decfsz	wreg,f,c
  2499  00331A  D7FE               	goto	u6407
  2500  00331C  2F8F               	decfsz	??_I2C_LCD_Clear& (0+255),f,b
  2501  00331E  D7FC               	goto	u6407
  2502  003320  F000               	nop	
  2503  003322  0012               	return		;funcret
  2504  003324                     __end_of_I2C_LCD_Clear:
  2505                           	opt stack 0
  2506                           tblptru	equ	0xFF8
  2507                           tblptrh	equ	0xFF7
  2508                           tblptrl	equ	0xFF6
  2509                           tablat	equ	0xFF5
  2510                           intcon	equ	0xFF2
  2511                           intcon2	equ	0xFF1
  2512                           postinc0	equ	0xFEE
  2513                           wreg	equ	0xFE8
  2514                           postinc2	equ	0xFDE
  2515                           postdec2	equ	0xFDD
  2516                           fsr2h	equ	0xFDA
  2517                           fsr2l	equ	0xFD9
  2518                           status	equ	0xFD8
  2519                           
  2520 ;; *************** function _Delay_ms *****************
  2521 ;; Defined at:
  2522 ;;		line 333 in file "../My_header\My_header.h"
  2523 ;; Parameters:    Size  Location     Type
  2524 ;;  ms              2    0[BANK0 ] unsigned int 
  2525 ;; Auto vars:     Size  Location     Type
  2526 ;;		None
  2527 ;; Return value:  Size  Location     Type
  2528 ;;		None               void
  2529 ;; Registers used:
  2530 ;;		wreg, status,2, status,0
  2531 ;; Tracked objects:
  2532 ;;		On entry : 0/0
  2533 ;;		On exit  : 0/0
  2534 ;;		Unchanged: 0/0
  2535 ;; Data sizes:     COMRAM   BANK0   BANK1   BANK2   BANK3   BANK4   BANK5   BANK6   BANK7   BANK8   BANK9  BANK10  BANK1
      +1  BANK12  BANK13  BANK14
  2536 ;;      Params:         0       2       0       0       0       0       0       0       0       0       0       0       
      +0       0       0       0
  2537 ;;      Locals:         0       0       0       0       0       0       0       0       0       0       0       0       
      +0       0       0       0
  2538 ;;      Temps:          0       1       0       0       0       0       0       0       0       0       0       0       
      +0       0       0       0
  2539 ;;      Totals:         0       3       0       0       0       0       0       0       0       0       0       0       
      +0       0       0       0
  2540 ;;Total ram usage:        3 bytes
  2541 ;; Hardware stack levels used:    1
  2542 ;; Hardware stack levels required when called:   10
  2543 ;; This function calls:
  2544 ;;		Nothing
  2545 ;; This function is called by:
  2546 ;;		_I2C_LCD_init
  2547 ;; This function uses a non-reentrant model
  2548 ;;
  2549                           
  2550                           	psect	text13
  2551  003160                     __ptext13:
  2552                           	opt stack 0
  2553  003160                     _Delay_ms:
  2554                           	opt stack 18
  2555                           
  2556                           ;My_header\My_header.h: 334: while (ms--)_delay((unsigned long)((1)*(48000000/4000.0)));
  2557                           
  2558                           ;incstack = 0
  2559  003160  D00A               	goto	l6304
  2560  003162                     l6302:
  2561  003162  0E10               	movlw	16
  2562  003164  0100               	movlb	0	; () banked
  2563  003166  6F8B               	movwf	??_Delay_ms& (0+255),b
  2564  003168  0E94               	movlw	148
  2565  00316A                     u6417:
  2566  00316A  2EE8               	decfsz	wreg,f,c
  2567  00316C  D7FE               	goto	u6417
  2568  00316E  2F8B               	decfsz	??_Delay_ms& (0+255),f,b
  2569  003170  D7FC               	goto	u6417
  2570  003172  D000               	nop2	
  2571  003174  D000               	goto	l6304
  2572  003176                     l6304:
  2573  003176  0100               	movlb	0	; () banked
  2574  003178  0789               	decf	Delay_ms@ms& (0+255),f,b
  2575  00317A  A0D8               	btfss	status,0,c
  2576  00317C  078A               	decf	(Delay_ms@ms+1)& (0+255),f,b
  2577  00317E  0100               	movlb	0	; () banked
  2578  003180  2989               	incf	Delay_ms@ms& (0+255),w,b
  2579  003182  E1EF               	bnz	l6302
  2580  003184  0100               	movlb	0	; () banked
  2581  003186  298A               	incf	(Delay_ms@ms+1)& (0+255),w,b
  2582  003188  A4D8               	btfss	status,2,c
  2583  00318A  D7EB               	goto	l6302
  2584                           
  2585                           ; BSR set to: 0
  2586                           
  2587                           ; BSR set to: 0
  2588  00318C  0012               	return		;funcret
  2589  00318E                     __end_of_Delay_ms:
  2590                           	opt stack 0
  2591                           tblptru	equ	0xFF8
  2592                           tblptrh	equ	0xFF7
  2593                           tblptrl	equ	0xFF6
  2594                           tablat	equ	0xFF5
  2595                           intcon	equ	0xFF2
  2596                           intcon2	equ	0xFF1
  2597                           postinc0	equ	0xFEE
  2598                           wreg	equ	0xFE8
  2599                           postinc2	equ	0xFDE
  2600                           postdec2	equ	0xFDD
  2601                           fsr2h	equ	0xFDA
  2602                           fsr2l	equ	0xFD9
  2603                           status	equ	0xFD8
  2604                           
  2605 ;; *************** function _CTMU_init *****************
  2606 ;; Defined at:
  2607 ;;		line 289 in file "../My_header\My_header.h"
  2608 ;; Parameters:    Size  Location     Type
  2609 ;;		None
  2610 ;; Auto vars:     Size  Location     Type
  2611 ;;		None
  2612 ;; Return value:  Size  Location     Type
  2613 ;;		None               void
  2614 ;; Registers used:
  2615 ;;		wreg, status,2
  2616 ;; Tracked objects:
  2617 ;;		On entry : 0/0
  2618 ;;		On exit  : 0/0
  2619 ;;		Unchanged: 0/0
  2620 ;; Data sizes:     COMRAM   BANK0   BANK1   BANK2   BANK3   BANK4   BANK5   BANK6   BANK7   BANK8   BANK9  BANK10  BANK1
      +1  BANK12  BANK13  BANK14
  2621 ;;      Params:         0       0       0       0       0       0       0       0       0       0       0       0       
      +0       0       0       0
  2622 ;;      Locals:         0       0       0       0       0       0       0       0       0       0       0       0       
      +0       0       0       0
  2623 ;;      Temps:          0       0       0       0       0       0       0       0       0       0       0       0       
      +0       0       0       0
  2624 ;;      Totals:         0       0       0       0       0       0       0       0       0       0       0       0       
      +0       0       0       0
  2625 ;;Total ram usage:        0 bytes
  2626 ;; Hardware stack levels used:    1
  2627 ;; Hardware stack levels required when called:   10
  2628 ;; This function calls:
  2629 ;;		Nothing
  2630 ;; This function is called by:
  2631 ;;		_main_init
  2632 ;; This function uses a non-reentrant model
  2633 ;;
  2634                           
  2635                           	psect	text14
  2636  003268                     __ptext14:
  2637                           	opt stack 0
  2638  003268                     _CTMU_init:
  2639                           	opt stack 19
  2640                           
  2641                           ;My_header\My_header.h: 290: CTMUCONH = 0x00;
  2642                           
  2643                           ; BSR set to: 0
  2644                           ;incstack = 0
  2645  003268  0E00               	movlw	0
  2646  00326A  6EB3               	movwf	4019,c	;volatile
  2647                           
  2648                           ;My_header\My_header.h: 291: CTMUCONL = 0x90;
  2649  00326C  0E90               	movlw	144
  2650  00326E  6EB2               	movwf	4018,c	;volatile
  2651                           
  2652                           ;My_header\My_header.h: 292: CTMUICON = 0x01;
  2653  003270  0E01               	movlw	1
  2654  003272  6EB1               	movwf	4017,c	;volatile
  2655                           
  2656                           ;My_header\My_header.h: 294: ADCON1bits.ADFM = 1;
  2657  003274  8EC1               	bsf	4033,7,c	;volatile
  2658                           
  2659                           ;My_header\My_header.h: 295: ADCON1bits.ADCAL = 0;
  2660  003276  9CC1               	bcf	4033,6,c	;volatile
  2661                           
  2662                           ;My_header\My_header.h: 296: ADCON1bits.ACQT = 1;
  2663  003278  50C1               	movf	4033,w,c	;volatile
  2664  00327A  0BC7               	andlw	-57
  2665  00327C  0908               	iorlw	8
  2666  00327E  6EC1               	movwf	4033,c	;volatile
  2667                           
  2668                           ;My_header\My_header.h: 297: ADCON1bits.ADCS = 6;
  2669  003280  50C1               	movf	4033,w,c	;volatile
  2670  003282  0BF8               	andlw	-8
  2671  003284  0906               	iorlw	6
  2672  003286  6EC1               	movwf	4033,c	;volatile
  2673                           
  2674                           ;My_header\My_header.h: 299: ADCON0bits.VCFG0 = 0;
  2675  003288  9CC2               	bcf	4034,6,c	;volatile
  2676                           
  2677                           ;My_header\My_header.h: 300: ADCON0bits.VCFG1 = 0;
  2678  00328A  9EC2               	bcf	4034,7,c	;volatile
  2679                           
  2680                           ;My_header\My_header.h: 301: ADCON0bits.ADON = 1;
  2681  00328C  80C2               	bsf	4034,0,c	;volatile
  2682  00328E  0012               	return		;funcret
  2683  003290                     __end_of_CTMU_init:
  2684                           	opt stack 0
  2685                           tblptru	equ	0xFF8
  2686                           tblptrh	equ	0xFF7
  2687                           tblptrl	equ	0xFF6
  2688                           tablat	equ	0xFF5
  2689                           intcon	equ	0xFF2
  2690                           intcon2	equ	0xFF1
  2691                           postinc0	equ	0xFEE
  2692                           wreg	equ	0xFE8
  2693                           postinc2	equ	0xFDE
  2694                           postdec2	equ	0xFDD
  2695                           fsr2h	equ	0xFDA
  2696                           fsr2l	equ	0xFD9
  2697                           status	equ	0xFD8
  2698                           
  2699 ;; *************** function _get_string_usb *****************
  2700 ;; Defined at:
  2701 ;;		line 27 in file "../My_header/usb_cdc/my_usb_cdc.c"
  2702 ;; Parameters:    Size  Location     Type
  2703 ;;  s               2   13[BANK0 ] PTR unsigned char 
  2704 ;;		 -> main@str(100), 
  2705 ;;  len             2   15[BANK0 ] int 
  2706 ;; Auto vars:     Size  Location     Type
  2707 ;;  rx_len          2   18[BANK0 ] int 
  2708 ;; Return value:  Size  Location     Type
  2709 ;;                  2   13[BANK0 ] int 
  2710 ;; Registers used:
  2711 ;;		wreg, fsr1l, fsr1h, fsr2l, fsr2h, status,2, status,0, prodl, prodh, cstack
  2712 ;; Tracked objects:
  2713 ;;		On entry : 0/0
  2714 ;;		On exit  : 0/0
  2715 ;;		Unchanged: 0/0
  2716 ;; Data sizes:     COMRAM   BANK0   BANK1   BANK2   BANK3   BANK4   BANK5   BANK6   BANK7   BANK8   BANK9  BANK10  BANK1
      +1  BANK12  BANK13  BANK14
  2717 ;;      Params:         0       4       0       0       0       0       0       0       0       0       0       0       
      +0       0       0       0
  2718 ;;      Locals:         0       2       0       0       0       0       0       0       0       0       0       0       
      +0       0       0       0
  2719 ;;      Temps:          0       1       0       0       0       0       0       0       0       0       0       0       
      +0       0       0       0
  2720 ;;      Totals:         0       7       0       0       0       0       0       0       0       0       0       0       
      +0       0       0       0
  2721 ;;Total ram usage:        7 bytes
  2722 ;; Hardware stack levels used:    1
  2723 ;; Hardware stack levels required when called:   12
  2724 ;; This function calls:
  2725 ;;		_CDCTxService
  2726 ;;		_getsUSBUSART
  2727 ;;		_is_usb_available
  2728 ;; This function is called by:
  2729 ;;		_main
  2730 ;; This function uses a non-reentrant model
  2731 ;;
  2732                           
  2733                           	psect	text15
  2734  002DF0                     __ptext15:
  2735                           	opt stack 0
  2736  002DF0                     _get_string_usb:
  2737                           	opt stack 18
  2738                           
  2739                           ;my_usb_cdc.c: 28: int rx_len;
  2740                           ;my_usb_cdc.c: 29: if (!is_usb_available()) {
  2741                           
  2742                           ;incstack = 0
  2743  002DF0  EC68  F019         	call	_is_usb_available	;wreg free
  2744  002DF4  0900               	iorlw	0
  2745  002DF6  A4D8               	btfss	status,2,c
  2746  002DF8  D00A               	goto	l6736
  2747                           
  2748                           ;my_usb_cdc.c: 31: return 0;
  2749  002DFA  0E00               	movlw	0
  2750  002DFC  0100               	movlb	0	; () banked
  2751  002DFE  6F97               	movwf	(?_get_string_usb+1)& (0+255),b
  2752  002E00  0E00               	movlw	0
  2753  002E02  6F96               	movwf	?_get_string_usb& (0+255),b
  2754                           
  2755                           ; BSR set to: 0
  2756  002E04  0012               	return	
  2757                           
  2758                           ; BSR set to: 0
  2759                           ;my_usb_cdc.c: 32: }
  2760                           ;my_usb_cdc.c: 33: while (!(cdc_trf_state == 0)) CDCTxService();
  2761  002E06  D003               	goto	l6736
  2762  002E08                     l6734:
  2763                           
  2764                           ; BSR set to: 0
  2765  002E08  EC44  F00A         	call	_CDCTxService	;wreg free
  2766  002E0C  D000               	goto	l6736
  2767  002E0E                     l6736:
  2768  002E0E  0100               	movlb	0	; () banked
  2769  002E10  517F               	movf	_cdc_trf_state& (0+255),w,b
  2770  002E12  A4D8               	btfss	status,2,c
  2771  002E14  D7F9               	goto	l6734
  2772                           
  2773                           ; BSR set to: 0
  2774                           ;my_usb_cdc.c: 34: rx_len = getsUSBUSART(s, len);
  2775                           
  2776                           ; BSR set to: 0
  2777  002E16  C096  F090         	movff	get_string_usb@s,getsUSBUSART@buffer
  2778  002E1A  C097  F091         	movff	get_string_usb@s+1,getsUSBUSART@buffer+1
  2779  002E1E  C098  F092         	movff	get_string_usb@len,getsUSBUSART@len
  2780  002E22  ECB4  F00E         	call	_getsUSBUSART	;wreg free
  2781  002E26  0100               	movlb	0	; () banked
  2782  002E28  6F9A               	movwf	??_get_string_usb& (0+255),b
  2783  002E2A  0100               	movlb	0	; () banked
  2784  002E2C  519A               	movf	??_get_string_usb& (0+255),w,b
  2785  002E2E  0100               	movlb	0	; () banked
  2786  002E30  6F9B               	movwf	get_string_usb@rx_len& (0+255),b
  2787  002E32  6B9C               	clrf	(get_string_usb@rx_len+1)& (0+255),b
  2788                           
  2789                           ;my_usb_cdc.c: 35: CDCTxService();
  2790  002E34  EC44  F00A         	call	_CDCTxService	;wreg free
  2791                           
  2792                           ;my_usb_cdc.c: 36: return rx_len;
  2793  002E38  C09B  F096         	movff	get_string_usb@rx_len,?_get_string_usb
  2794  002E3C  C09C  F097         	movff	get_string_usb@rx_len+1,?_get_string_usb+1
  2795  002E40  0012               	return	
  2796  002E42  0012               	return		;funcret
  2797  002E44                     __end_of_get_string_usb:
  2798                           	opt stack 0
  2799                           tblptru	equ	0xFF8
  2800                           tblptrh	equ	0xFF7
  2801                           tblptrl	equ	0xFF6
  2802                           tablat	equ	0xFF5
  2803                           intcon	equ	0xFF2
  2804                           intcon2	equ	0xFF1
  2805                           postinc0	equ	0xFEE
  2806                           wreg	equ	0xFE8
  2807                           postinc2	equ	0xFDE
  2808                           postdec2	equ	0xFDD
  2809                           fsr2h	equ	0xFDA
  2810                           fsr2l	equ	0xFD9
  2811                           status	equ	0xFD8
  2812                           
  2813 ;; *************** function _is_usb_available *****************
  2814 ;; Defined at:
  2815 ;;		line 12 in file "../My_header/usb_cdc/my_usb_cdc.c"
  2816 ;; Parameters:    Size  Location     Type
  2817 ;;		None
  2818 ;; Auto vars:     Size  Location     Type
  2819 ;;		None
  2820 ;; Return value:  Size  Location     Type
  2821 ;;                  1    wreg      unsigned char 
  2822 ;; Registers used:
  2823 ;;		wreg, status,2, status,0
  2824 ;; Tracked objects:
  2825 ;;		On entry : 0/0
  2826 ;;		On exit  : 0/0
  2827 ;;		Unchanged: 0/0
  2828 ;; Data sizes:     COMRAM   BANK0   BANK1   BANK2   BANK3   BANK4   BANK5   BANK6   BANK7   BANK8   BANK9  BANK10  BANK1
      +1  BANK12  BANK13  BANK14
  2829 ;;      Params:         0       0       0       0       0       0       0       0       0       0       0       0       
      +0       0       0       0
  2830 ;;      Locals:         0       1       0       0       0       0       0       0       0       0       0       0       
      +0       0       0       0
  2831 ;;      Temps:          0       0       0       0       0       0       0       0       0       0       0       0       
      +0       0       0       0
  2832 ;;      Totals:         0       1       0       0       0       0       0       0       0       0       0       0       
      +0       0       0       0
  2833 ;;Total ram usage:        1 bytes
  2834 ;; Hardware stack levels used:    1
  2835 ;; Hardware stack levels required when called:   10
  2836 ;; This function calls:
  2837 ;;		Nothing
  2838 ;; This function is called by:
  2839 ;;		_put_string_usb
  2840 ;;		_get_string_usb
  2841 ;; This function uses a non-reentrant model
  2842 ;;
  2843                           
  2844                           	psect	text16
  2845  0032D0                     __ptext16:
  2846                           	opt stack 0
  2847  0032D0                     _is_usb_available:
  2848                           	opt stack 19
  2849                           
  2850                           ;my_usb_cdc.c: 13: return !(USBDeviceState < CONFIGURED_STATE || UCONbits.SUSPND == 1);
  2851                           
  2852                           ;incstack = 0
  2853  0032D0  0E00               	movlw	0
  2854  0032D2  0100               	movlb	0	; () banked
  2855  0032D4  6F89               	movwf	_is_usb_available$2207& (0+255),b
  2856                           
  2857                           ; BSR set to: 0
  2858  0032D6  0E1F               	movlw	31
  2859  0032D8  641A               	cpfsgt	_USBDeviceState,c	;volatile
  2860  0032DA  D005               	goto	l586
  2861                           
  2862                           ; BSR set to: 0
  2863  0032DC  B265               	btfsc	3941,1,c	;volatile
  2864  0032DE  D003               	goto	l586
  2865                           
  2866                           ; BSR set to: 0
  2867  0032E0  0E01               	movlw	1
  2868  0032E2  0100               	movlb	0	; () banked
  2869  0032E4  6F89               	movwf	_is_usb_available$2207& (0+255),b
  2870  0032E6                     l586:
  2871                           
  2872                           ; BSR set to: 0
  2873  0032E6  0100               	movlb	0	; () banked
  2874  0032E8  5189               	movf	_is_usb_available$2207& (0+255),w,b
  2875  0032EA  0012               	return	
  2876                           
  2877                           ; BSR set to: 0
  2878                           
  2879                           ; BSR set to: 0
  2880  0032EC  0012               	return		;funcret
  2881  0032EE                     __end_of_is_usb_available:
  2882                           	opt stack 0
  2883                           tblptru	equ	0xFF8
  2884                           tblptrh	equ	0xFF7
  2885                           tblptrl	equ	0xFF6
  2886                           tablat	equ	0xFF5
  2887                           intcon	equ	0xFF2
  2888                           intcon2	equ	0xFF1
  2889                           postinc0	equ	0xFEE
  2890                           wreg	equ	0xFE8
  2891                           postinc2	equ	0xFDE
  2892                           postdec2	equ	0xFDD
  2893                           fsr2h	equ	0xFDA
  2894                           fsr2l	equ	0xFD9
  2895                           status	equ	0xFD8
  2896                           
  2897 ;; *************** function _getsUSBUSART *****************
  2898 ;; Defined at:
  2899 ;;		line 542 in file "../My_header/usb_cdc/usb/usb_device_cdc.c"
  2900 ;; Parameters:    Size  Location     Type
  2901 ;;  buffer          2    7[BANK0 ] PTR unsigned char 
  2902 ;;		 -> main@str(100), 
  2903 ;;  len             1    9[BANK0 ] unsigned char 
  2904 ;; Auto vars:     Size  Location     Type
  2905 ;;		None
  2906 ;; Return value:  Size  Location     Type
  2907 ;;                  1    wreg      unsigned char 
  2908 ;; Registers used:
  2909 ;;		wreg, fsr1l, fsr1h, fsr2l, fsr2h, status,2, status,0, prodl, prodh, cstack
  2910 ;; Tracked objects:
  2911 ;;		On entry : 0/0
  2912 ;;		On exit  : 0/0
  2913 ;;		Unchanged: 0/0
  2914 ;; Data sizes:     COMRAM   BANK0   BANK1   BANK2   BANK3   BANK4   BANK5   BANK6   BANK7   BANK8   BANK9  BANK10  BANK1
      +1  BANK12  BANK13  BANK14
  2915 ;;      Params:         0       3       0       0       0       0       0       0       0       0       0       0       
      +0       0       0       0
  2916 ;;      Locals:         0       2       0       0       0       0       0       0       0       0       0       0       
      +0       0       0       0
  2917 ;;      Temps:          0       1       0       0       0       0       0       0       0       0       0       0       
      +0       0       0       0
  2918 ;;      Totals:         0       6       0       0       0       0       0       0       0       0       0       0       
      +0       0       0       0
  2919 ;;Total ram usage:        6 bytes
  2920 ;; Hardware stack levels used:    1
  2921 ;; Hardware stack levels required when called:   11
  2922 ;; This function calls:
  2923 ;;		_USBTransferOnePacket
  2924 ;; This function is called by:
  2925 ;;		_get_string_usb
  2926 ;; This function uses a non-reentrant model
  2927 ;;
  2928                           
  2929                           	psect	text17
  2930  001D68                     __ptext17:
  2931                           	opt stack 0
  2932  001D68                     _getsUSBUSART:
  2933                           	opt stack 18
  2934                           
  2935                           ;usb_device_cdc.c: 544: cdc_rx_len = 0;
  2936                           
  2937                           ; BSR set to: 0
  2938                           ;incstack = 0
  2939  001D68  0E00               	movlw	0
  2940  001D6A  0100               	movlb	0	; () banked
  2941  001D6C  6F7E               	movwf	_cdc_rx_len& (0+255),b
  2942                           
  2943                           ; BSR set to: 0
  2944                           ;usb_device_cdc.c: 546: if(!(CDCDataOutHandle==0?0:((volatile BDT_ENTRY*)CDCDataOutHandl
      +                          e)->STAT.UOWN))
  2945  001D6E  0100               	movlb	0	; () banked
  2946  001D70  5176               	movf	_CDCDataOutHandle& (0+255),w,b
  2947  001D72  0100               	movlb	0	; () banked
  2948  001D74  1177               	iorwf	(_CDCDataOutHandle+1)& (0+255),w,b
  2949  001D76  B4D8               	btfsc	status,2,c
  2950  001D78  D013               	goto	l6636
  2951                           
  2952                           ; BSR set to: 0
  2953  001D7A  C076  FFD9         	movff	_CDCDataOutHandle,fsr2l
  2954  001D7E  C077  FFDA         	movff	_CDCDataOutHandle+1,fsr2h
  2955  001D82  0100               	movlb	0	; () banked
  2956  001D84  AEDF               	btfss	indf2,7,c
  2957  001D86  D004               	goto	u6140
  2958  001D88  0100               	movlb	0	; () banked
  2959  001D8A  6B93               	clrf	??_getsUSBUSART& (0+255),b
  2960  001D8C  2B93               	incf	??_getsUSBUSART& (0+255),f,b
  2961  001D8E  D002               	goto	u6148
  2962  001D90                     u6140:
  2963  001D90  0100               	movlb	0	; () banked
  2964  001D92  6B93               	clrf	??_getsUSBUSART& (0+255),b
  2965  001D94                     u6148:
  2966  001D94  0100               	movlb	0	; () banked
  2967  001D96  5193               	movf	??_getsUSBUSART& (0+255),w,b
  2968  001D98  0100               	movlb	0	; () banked
  2969  001D9A  6F94               	movwf	_getsUSBUSART$3959& (0+255),b
  2970  001D9C  6B95               	clrf	(_getsUSBUSART$3959+1)& (0+255),b
  2971  001D9E  D006               	goto	l6638
  2972  001DA0                     l6636:
  2973                           
  2974                           ; BSR set to: 0
  2975  001DA0  0E00               	movlw	0
  2976  001DA2  0100               	movlb	0	; () banked
  2977  001DA4  6F95               	movwf	(_getsUSBUSART$3959+1)& (0+255),b
  2978  001DA6  0E00               	movlw	0
  2979  001DA8  6F94               	movwf	_getsUSBUSART$3959& (0+255),b
  2980  001DAA  D000               	goto	l6638
  2981  001DAC                     l6638:
  2982                           
  2983                           ; BSR set to: 0
  2984  001DAC  0100               	movlb	0	; () banked
  2985  001DAE  5194               	movf	_getsUSBUSART$3959& (0+255),w,b
  2986  001DB0  0100               	movlb	0	; () banked
  2987  001DB2  1195               	iorwf	(_getsUSBUSART$3959+1)& (0+255),w,b
  2988  001DB4  A4D8               	btfss	status,2,c
  2989  001DB6  D04E               	goto	l6654
  2990                           
  2991                           ; BSR set to: 0
  2992                           ;usb_device_cdc.c: 547: {
  2993                           ;usb_device_cdc.c: 552: if(len > (((volatile BDT_ENTRY*)CDCDataOutHandle)->CNT))
  2994  001DB8  0100               	movlb	0	; () banked
  2995  001DBA  EE20 F001          	lfsr	2,1
  2996  001DBE  5176               	movf	_CDCDataOutHandle& (0+255),w,b
  2997  001DC0  26D9               	addwf	fsr2l,f,c
  2998  001DC2  5177               	movf	(_CDCDataOutHandle+1)& (0+255),w,b
  2999  001DC4  22DA               	addwfc	fsr2h,f,c
  3000  001DC6  0100               	movlb	0	; () banked
  3001  001DC8  5192               	movf	getsUSBUSART@len& (0+255),w,b
  3002  001DCA  5CDE               	subwf	postinc2,w,c
  3003  001DCC  B0D8               	btfsc	status,0,c
  3004  001DCE  D00B               	goto	l6644
  3005                           
  3006                           ; BSR set to: 0
  3007                           ;usb_device_cdc.c: 553: len = (((volatile BDT_ENTRY*)CDCDataOutHandle)->CNT);
  3008  001DD0  0100               	movlb	0	; () banked
  3009  001DD2  EE20 F001          	lfsr	2,1
  3010  001DD6  5176               	movf	_CDCDataOutHandle& (0+255),w,b
  3011  001DD8  26D9               	addwf	fsr2l,f,c
  3012  001DDA  5177               	movf	(_CDCDataOutHandle+1)& (0+255),w,b
  3013  001DDC  22DA               	addwfc	fsr2h,f,c
  3014  001DDE  50DF               	movf	indf2,w,c
  3015  001DE0  0100               	movlb	0	; () banked
  3016  001DE2  6F92               	movwf	getsUSBUSART@len& (0+255),b
  3017  001DE4  D000               	goto	l6644
  3018  001DE6                     l6644:
  3019                           
  3020                           ; BSR set to: 0
  3021                           ;usb_device_cdc.c: 558: for(cdc_rx_len = 0; cdc_rx_len < len; cdc_rx_len++)
  3022  001DE6  0E00               	movlw	0
  3023  001DE8  0100               	movlb	0	; () banked
  3024  001DEA  6F7E               	movwf	_cdc_rx_len& (0+255),b
  3025  001DEC  D019               	goto	l6650
  3026  001DEE                     l6646:
  3027                           
  3028                           ; BSR set to: 0
  3029                           ;usb_device_cdc.c: 559: buffer[cdc_rx_len] = cdc_data_rx[cdc_rx_len];
  3030  001DEE  0100               	movlb	0	; () banked
  3031  001DF0  517E               	movf	_cdc_rx_len& (0+255),w,b
  3032  001DF2  0D01               	mullw	1
  3033  001DF4  0E00               	movlw	low _cdc_data_rx
  3034  001DF6  24F3               	addwf	prodl,w,c
  3035  001DF8  6ED9               	movwf	fsr2l,c
  3036  001DFA  0E03               	movlw	high _cdc_data_rx
  3037  001DFC  20F4               	addwfc	prodh,w,c
  3038  001DFE  6EDA               	movwf	fsr2h,c
  3039  001E00  0100               	movlb	0	; () banked
  3040  001E02  517E               	movf	_cdc_rx_len& (0+255),w,b
  3041  001E04  0D01               	mullw	1
  3042  001E06  50F3               	movf	prodl,w,c
  3043  001E08  0100               	movlb	0	; () banked
  3044  001E0A  2590               	addwf	getsUSBUSART@buffer& (0+255),w,b
  3045  001E0C  6EE1               	movwf	fsr1l,c
  3046  001E0E  50F4               	movf	prodh,w,c
  3047  001E10  0100               	movlb	0	; () banked
  3048  001E12  2191               	addwfc	(getsUSBUSART@buffer+1)& (0+255),w,b
  3049  001E14  6EE2               	movwf	fsr1h,c
  3050  001E16  CFDF FFE7          	movff	indf2,indf1
  3051                           
  3052                           ; BSR set to: 0
  3053  001E1A  0100               	movlb	0	; () banked
  3054  001E1C  2B7E               	incf	_cdc_rx_len& (0+255),f,b
  3055  001E1E  D000               	goto	l6650
  3056  001E20                     l6650:
  3057                           
  3058                           ; BSR set to: 0
  3059  001E20  0100               	movlb	0	; () banked
  3060  001E22  5192               	movf	getsUSBUSART@len& (0+255),w,b
  3061  001E24  0100               	movlb	0	; () banked
  3062  001E26  5D7E               	subwf	_cdc_rx_len& (0+255),w,b
  3063  001E28  A0D8               	btfss	status,0,c
  3064  001E2A  D7E1               	goto	l6646
  3065                           
  3066                           ; BSR set to: 0
  3067                           ;usb_device_cdc.c: 565: CDCDataOutHandle = USBTransferOnePacket(2,0,(uint8_t*)&cdc_data_
      +                          rx,sizeof(cdc_data_rx));
  3068                           
  3069                           ; BSR set to: 0
  3070  001E2C  0E00               	movlw	0
  3071  001E2E  0100               	movlb	0	; () banked
  3072  001E30  6F89               	movwf	USBTransferOnePacket@dir& (0+255),b
  3073  001E32  0E00               	movlw	low _cdc_data_rx
  3074  001E34  0100               	movlb	0	; () banked
  3075  001E36  6F8A               	movwf	USBTransferOnePacket@data& (0+255),b
  3076  001E38  0E03               	movlw	high _cdc_data_rx
  3077  001E3A  0100               	movlb	0	; () banked
  3078  001E3C  6F8B               	movwf	(USBTransferOnePacket@data+1)& (0+255),b
  3079  001E3E  0E40               	movlw	64
  3080  001E40  0100               	movlb	0	; () banked
  3081  001E42  6F8C               	movwf	USBTransferOnePacket@len& (0+255),b
  3082  001E44  0E02               	movlw	2
  3083  001E46  EC10  F010         	call	_USBTransferOnePacket
  3084  001E4A  C089  F076         	movff	?_USBTransferOnePacket,_CDCDataOutHandle
  3085  001E4E  C08A  F077         	movff	?_USBTransferOnePacket+1,_CDCDataOutHandle+1
  3086  001E52  D000               	goto	l6654
  3087  001E54                     l6654:
  3088                           
  3089                           ;usb_device_cdc.c: 567: }
  3090                           ;usb_device_cdc.c: 569: return cdc_rx_len;
  3091  001E54  0100               	movlb	0	; () banked
  3092  001E56  517E               	movf	_cdc_rx_len& (0+255),w,b
  3093  001E58  0012               	return	
  3094                           
  3095                           ; BSR set to: 0
  3096                           
  3097                           ; BSR set to: 0
  3098  001E5A  0012               	return		;funcret
  3099  001E5C                     __end_of_getsUSBUSART:
  3100                           	opt stack 0
  3101                           tblptru	equ	0xFF8
  3102                           tblptrh	equ	0xFF7
  3103                           tblptrl	equ	0xFF6
  3104                           tablat	equ	0xFF5
  3105                           prodh	equ	0xFF4
  3106                           prodl	equ	0xFF3
  3107                           intcon	equ	0xFF2
  3108                           intcon2	equ	0xFF1
  3109                           postinc0	equ	0xFEE
  3110                           wreg	equ	0xFE8
  3111                           indf1	equ	0xFE7
  3112                           fsr1h	equ	0xFE2
  3113                           fsr1l	equ	0xFE1
  3114                           indf2	equ	0xFDF
  3115                           postinc2	equ	0xFDE
  3116                           postdec2	equ	0xFDD
  3117                           fsr2h	equ	0xFDA
  3118                           fsr2l	equ	0xFD9
  3119                           status	equ	0xFD8
  3120                           
  3121 ;; *************** function _CDCTxService *****************
  3122 ;; Defined at:
  3123 ;;		line 893 in file "../My_header/usb_cdc/usb/usb_device_cdc.c"
  3124 ;; Parameters:    Size  Location     Type
  3125 ;;		None
  3126 ;; Auto vars:     Size  Location     Type
  3127 ;;  byte_to_send    1   11[BANK0 ] unsigned char 
  3128 ;;  i               1   10[BANK0 ] unsigned char 
  3129 ;; Return value:  Size  Location     Type
  3130 ;;		None               void
  3131 ;; Registers used:
  3132 ;;		wreg, fsr1l, fsr1h, fsr2l, fsr2h, status,2, status,0, prodl, prodh, cstack
  3133 ;; Tracked objects:
  3134 ;;		On entry : 0/0
  3135 ;;		On exit  : 0/0
  3136 ;;		Unchanged: 0/0
  3137 ;; Data sizes:     COMRAM   BANK0   BANK1   BANK2   BANK3   BANK4   BANK5   BANK6   BANK7   BANK8   BANK9  BANK10  BANK1
      +1  BANK12  BANK13  BANK14
  3138 ;;      Params:         0       0       0       0       0       0       0       0       0       0       0       0       
      +0       0       0       0
  3139 ;;      Locals:         0       4       0       0       0       0       0       0       0       0       0       0       
      +0       0       0       0
  3140 ;;      Temps:          0       1       0       0       0       0       0       0       0       0       0       0       
      +0       0       0       0
  3141 ;;      Totals:         0       5       0       0       0       0       0       0       0       0       0       0       
      +0       0       0       0
  3142 ;;Total ram usage:        5 bytes
  3143 ;; Hardware stack levels used:    1
  3144 ;; Hardware stack levels required when called:   11
  3145 ;; This function calls:
  3146 ;;		_USBTransferOnePacket
  3147 ;; This function is called by:
  3148 ;;		_put_string_usb
  3149 ;;		_get_string_usb
  3150 ;; This function uses a non-reentrant model
  3151 ;;
  3152                           
  3153                           	psect	text18
  3154  001488                     __ptext18:
  3155                           	opt stack 0
  3156  001488                     _CDCTxService:
  3157                           	opt stack 18
  3158                           
  3159                           ;usb_device_cdc.c: 895: uint8_t byte_to_send;
  3160                           ;usb_device_cdc.c: 896: uint8_t i;
  3161                           ;usb_device_cdc.c: 898: {PIE2bits.USBIE = 0;};
  3162                           
  3163                           ; BSR set to: 0
  3164                           ;incstack = 0
  3165  001488  98A0               	bcf	4000,4,c	;volatile
  3166                           
  3167                           ;usb_device_cdc.c: 900: {};
  3168                           ;usb_device_cdc.c: 902: if((CDCDataInHandle==0?0:((volatile BDT_ENTRY*)CDCDataInHandle)-
      +                          >STAT.UOWN))
  3169  00148A  0100               	movlb	0	; () banked
  3170  00148C  5174               	movf	_CDCDataInHandle& (0+255),w,b
  3171  00148E  0100               	movlb	0	; () banked
  3172  001490  1175               	iorwf	(_CDCDataInHandle+1)& (0+255),w,b
  3173  001492  B4D8               	btfsc	status,2,c
  3174  001494  D013               	goto	l6552
  3175                           
  3176                           ; BSR set to: 0
  3177  001496  C074  FFD9         	movff	_CDCDataInHandle,fsr2l
  3178  00149A  C075  FFDA         	movff	_CDCDataInHandle+1,fsr2h
  3179  00149E  0100               	movlb	0	; () banked
  3180  0014A0  AEDF               	btfss	indf2,7,c
  3181  0014A2  D004               	goto	u6000
  3182  0014A4  0100               	movlb	0	; () banked
  3183  0014A6  6B90               	clrf	??_CDCTxService& (0+255),b
  3184  0014A8  2B90               	incf	??_CDCTxService& (0+255),f,b
  3185  0014AA  D002               	goto	u6008
  3186  0014AC                     u6000:
  3187  0014AC  0100               	movlb	0	; () banked
  3188  0014AE  6B90               	clrf	??_CDCTxService& (0+255),b
  3189  0014B0                     u6008:
  3190  0014B0  0100               	movlb	0	; () banked
  3191  0014B2  5190               	movf	??_CDCTxService& (0+255),w,b
  3192  0014B4  0100               	movlb	0	; () banked
  3193  0014B6  6F91               	movwf	_CDCTxService$4007& (0+255),b
  3194  0014B8  6B92               	clrf	(_CDCTxService$4007+1)& (0+255),b
  3195  0014BA  D006               	goto	l6554
  3196  0014BC                     l6552:
  3197                           
  3198                           ; BSR set to: 0
  3199  0014BC  0E00               	movlw	0
  3200  0014BE  0100               	movlb	0	; () banked
  3201  0014C0  6F92               	movwf	(_CDCTxService$4007+1)& (0+255),b
  3202  0014C2  0E00               	movlw	0
  3203  0014C4  6F91               	movwf	_CDCTxService$4007& (0+255),b
  3204  0014C6  D000               	goto	l6554
  3205  0014C8                     l6554:
  3206                           
  3207                           ; BSR set to: 0
  3208  0014C8  0100               	movlb	0	; () banked
  3209  0014CA  5191               	movf	_CDCTxService$4007& (0+255),w,b
  3210  0014CC  0100               	movlb	0	; () banked
  3211  0014CE  1192               	iorwf	(_CDCTxService$4007+1)& (0+255),w,b
  3212  0014D0  B4D8               	btfsc	status,2,c
  3213  0014D2  D002               	goto	l6558
  3214                           
  3215                           ; BSR set to: 0
  3216                           ;usb_device_cdc.c: 903: {
  3217                           ;usb_device_cdc.c: 904: {PIE2bits.USBIE = 1;};
  3218  0014D4  88A0               	bsf	4000,4,c	;volatile
  3219                           
  3220                           ;usb_device_cdc.c: 905: return;
  3221  0014D6  0012               	return	
  3222  0014D8                     l6558:
  3223                           
  3224                           ; BSR set to: 0
  3225                           ;usb_device_cdc.c: 906: }
  3226                           ;usb_device_cdc.c: 913: if(cdc_trf_state == 3)
  3227  0014D8  0E03               	movlw	3
  3228  0014DA  0100               	movlb	0	; () banked
  3229  0014DC  197F               	xorwf	_cdc_trf_state& (0+255),w,b
  3230  0014DE  A4D8               	btfss	status,2,c
  3231  0014E0  D003               	goto	l1105
  3232                           
  3233                           ; BSR set to: 0
  3234                           ;usb_device_cdc.c: 914: cdc_trf_state = 0;
  3235  0014E2  0E00               	movlw	0
  3236  0014E4  0100               	movlb	0	; () banked
  3237  0014E6  6F7F               	movwf	_cdc_trf_state& (0+255),b
  3238  0014E8                     l1105:
  3239                           
  3240                           ; BSR set to: 0
  3241                           ;usb_device_cdc.c: 919: if(cdc_trf_state == 0)
  3242  0014E8  0100               	movlb	0	; () banked
  3243  0014EA  517F               	movf	_cdc_trf_state& (0+255),w,b
  3244  0014EC  A4D8               	btfss	status,2,c
  3245  0014EE  D002               	goto	l6564
  3246                           
  3247                           ; BSR set to: 0
  3248                           ;usb_device_cdc.c: 920: {
  3249                           ;usb_device_cdc.c: 921: {PIE2bits.USBIE = 1;};
  3250  0014F0  88A0               	bsf	4000,4,c	;volatile
  3251                           
  3252                           ;usb_device_cdc.c: 922: return;
  3253  0014F2  0012               	return	
  3254  0014F4                     l6564:
  3255                           
  3256                           ; BSR set to: 0
  3257                           ;usb_device_cdc.c: 923: }
  3258                           ;usb_device_cdc.c: 928: if(cdc_trf_state == 2)
  3259  0014F4  0E02               	movlw	2
  3260  0014F6  0100               	movlb	0	; () banked
  3261  0014F8  197F               	xorwf	_cdc_trf_state& (0+255),w,b
  3262  0014FA  A4D8               	btfss	status,2,c
  3263  0014FC  D017               	goto	l6570
  3264                           
  3265                           ; BSR set to: 0
  3266                           ;usb_device_cdc.c: 929: {
  3267                           ;usb_device_cdc.c: 930: CDCDataInHandle = USBTransferOnePacket(2,1,(0),0);
  3268  0014FE  0E01               	movlw	1
  3269  001500  0100               	movlb	0	; () banked
  3270  001502  6F89               	movwf	USBTransferOnePacket@dir& (0+255),b
  3271  001504  0E00               	movlw	0
  3272  001506  0100               	movlb	0	; () banked
  3273  001508  6F8A               	movwf	USBTransferOnePacket@data& (0+255),b
  3274  00150A  0E00               	movlw	0
  3275  00150C  0100               	movlb	0	; () banked
  3276  00150E  6F8B               	movwf	(USBTransferOnePacket@data+1)& (0+255),b
  3277  001510  0E00               	movlw	0
  3278  001512  0100               	movlb	0	; () banked
  3279  001514  6F8C               	movwf	USBTransferOnePacket@len& (0+255),b
  3280  001516  0E02               	movlw	2
  3281  001518  EC10  F010         	call	_USBTransferOnePacket
  3282  00151C  C089  F074         	movff	?_USBTransferOnePacket,_CDCDataInHandle
  3283  001520  C08A  F075         	movff	?_USBTransferOnePacket+1,_CDCDataInHandle+1
  3284                           
  3285                           ;usb_device_cdc.c: 932: cdc_trf_state = 3;
  3286  001524  0E03               	movlw	3
  3287  001526  0100               	movlb	0	; () banked
  3288  001528  6F7F               	movwf	_cdc_trf_state& (0+255),b
  3289                           
  3290                           ;usb_device_cdc.c: 933: }
  3291  00152A  D07D               	goto	l6614
  3292  00152C                     l6570:
  3293                           
  3294                           ; BSR set to: 0
  3295                           ;usb_device_cdc.c: 934: else if(cdc_trf_state == 1)
  3296  00152C  0100               	movlb	0	; () banked
  3297  00152E  057F               	decf	_cdc_trf_state& (0+255),w,b
  3298  001530  A4D8               	btfss	status,2,c
  3299  001532  D079               	goto	l6614
  3300                           
  3301                           ; BSR set to: 0
  3302                           ;usb_device_cdc.c: 935: {
  3303                           ;usb_device_cdc.c: 939: if(cdc_tx_len > sizeof(cdc_data_tx))
  3304  001534  0E40               	movlw	64
  3305  001536  0100               	movlb	0	; () banked
  3306  001538  6580               	cpfsgt	_cdc_tx_len& (0+255),b
  3307  00153A  D004               	goto	l1110
  3308                           
  3309                           ; BSR set to: 0
  3310                           ;usb_device_cdc.c: 940: byte_to_send = sizeof(cdc_data_tx);
  3311  00153C  0E40               	movlw	64
  3312  00153E  0100               	movlb	0	; () banked
  3313  001540  6F94               	movwf	CDCTxService@byte_to_send& (0+255),b
  3314  001542  D003               	goto	l6576
  3315  001544                     l1110:
  3316                           
  3317                           ; BSR set to: 0
  3318                           ;usb_device_cdc.c: 941: else
  3319                           ;usb_device_cdc.c: 942: byte_to_send = cdc_tx_len;
  3320  001544  C080  F094         	movff	_cdc_tx_len,CDCTxService@byte_to_send
  3321  001548  D000               	goto	l6576
  3322  00154A                     l6576:
  3323                           
  3324                           ; BSR set to: 0
  3325                           ;usb_device_cdc.c: 947: cdc_tx_len = cdc_tx_len - byte_to_send;
  3326  00154A  0100               	movlb	0	; () banked
  3327  00154C  5194               	movf	CDCTxService@byte_to_send& (0+255),w,b
  3328  00154E  0800               	sublw	0
  3329  001550  0100               	movlb	0	; () banked
  3330  001552  2580               	addwf	_cdc_tx_len& (0+255),w,b
  3331  001554  0100               	movlb	0	; () banked
  3332  001556  6F80               	movwf	_cdc_tx_len& (0+255),b
  3333                           
  3334                           ;usb_device_cdc.c: 949: pCDCDst.bRam = (uint8_t*)&cdc_data_tx;
  3335  001558  0E40               	movlw	low _cdc_data_tx
  3336  00155A  0100               	movlb	0	; () banked
  3337  00155C  6F6C               	movwf	_pCDCDst& (0+255),b
  3338  00155E  0E03               	movlw	high _cdc_data_tx
  3339  001560  0100               	movlb	0	; () banked
  3340  001562  6F6D               	movwf	(_pCDCDst+1)& (0+255),b
  3341                           
  3342                           ; BSR set to: 0
  3343                           ;usb_device_cdc.c: 951: i = byte_to_send;
  3344  001564  C094  F093         	movff	CDCTxService@byte_to_send,CDCTxService@i
  3345                           
  3346                           ; BSR set to: 0
  3347                           ;usb_device_cdc.c: 952: if(cdc_mem_type == 0x00)
  3348  001568  0100               	movlb	0	; () banked
  3349  00156A  517D               	movf	_cdc_mem_type& (0+255),w,b
  3350  00156C  0100               	movlb	0	; () banked
  3351  00156E  B4D8               	btfsc	status,2,c
  3352  001570  D015               	goto	l6592
  3353  001572  D02F               	goto	l6602
  3354                           
  3355                           ; BSR set to: 0
  3356                           ;usb_device_cdc.c: 953: {
  3357                           ;usb_device_cdc.c: 954: while(i)
  3358  001574  D013               	goto	l6592
  3359  001576                     l6584:
  3360                           
  3361                           ; BSR set to: 0
  3362                           ;usb_device_cdc.c: 955: {
  3363                           ;usb_device_cdc.c: 956: *pCDCDst.bRam = *pCDCSrc.bRom;
  3364  001576  C06F  FFD9         	movff	_pCDCSrc,fsr2l
  3365  00157A  C070  FFDA         	movff	_pCDCSrc+1,fsr2h
  3366  00157E  C06C  FFE1         	movff	_pCDCDst,fsr1l
  3367  001582  C06D  FFE2         	movff	_pCDCDst+1,fsr1h
  3368  001586  CFDF FFE7          	movff	indf2,indf1
  3369                           
  3370                           ; BSR set to: 0
  3371                           ;usb_device_cdc.c: 957: pCDCDst.bRam++;
  3372  00158A  0100               	movlb	0	; () banked
  3373  00158C  4B6C               	infsnz	_pCDCDst& (0+255),f,b
  3374  00158E  2B6D               	incf	(_pCDCDst+1)& (0+255),f,b
  3375                           
  3376                           ; BSR set to: 0
  3377                           ;usb_device_cdc.c: 958: pCDCSrc.bRom++;
  3378  001590  0100               	movlb	0	; () banked
  3379  001592  4B6F               	infsnz	_pCDCSrc& (0+255),f,b
  3380  001594  2B70               	incf	(_pCDCSrc+1)& (0+255),f,b
  3381                           
  3382                           ; BSR set to: 0
  3383                           ;usb_device_cdc.c: 959: i--;
  3384  001596  0100               	movlb	0	; () banked
  3385  001598  0793               	decf	CDCTxService@i& (0+255),f,b
  3386  00159A  D000               	goto	l6592
  3387  00159C                     l6592:
  3388                           
  3389                           ; BSR set to: 0
  3390  00159C  0100               	movlb	0	; () banked
  3391  00159E  5193               	movf	CDCTxService@i& (0+255),w,b
  3392  0015A0  0100               	movlb	0	; () banked
  3393  0015A2  B4D8               	btfsc	status,2,c
  3394  0015A4  D01D               	goto	l6604
  3395  0015A6  D7E7               	goto	l6584
  3396                           
  3397                           ; BSR set to: 0
  3398                           ;usb_device_cdc.c: 960: }
  3399                           ;usb_device_cdc.c: 961: }
  3400  0015A8  D01B               	goto	l6604
  3401                           
  3402                           ; BSR set to: 0
  3403                           ;usb_device_cdc.c: 962: else
  3404                           ;usb_device_cdc.c: 963: {
  3405                           ;usb_device_cdc.c: 964: while(i)
  3406  0015AA  D013               	goto	l6602
  3407  0015AC                     l6594:
  3408                           
  3409                           ; BSR set to: 0
  3410                           ;usb_device_cdc.c: 965: {
  3411                           ;usb_device_cdc.c: 966: *pCDCDst.bRam = *pCDCSrc.bRam;
  3412  0015AC  C06F  FFD9         	movff	_pCDCSrc,fsr2l
  3413  0015B0  C070  FFDA         	movff	_pCDCSrc+1,fsr2h
  3414  0015B4  C06C  FFE1         	movff	_pCDCDst,fsr1l
  3415  0015B8  C06D  FFE2         	movff	_pCDCDst+1,fsr1h
  3416  0015BC  CFDF FFE7          	movff	indf2,indf1
  3417                           
  3418                           ; BSR set to: 0
  3419                           ;usb_device_cdc.c: 967: pCDCDst.bRam++;
  3420  0015C0  0100               	movlb	0	; () banked
  3421  0015C2  4B6C               	infsnz	_pCDCDst& (0+255),f,b
  3422  0015C4  2B6D               	incf	(_pCDCDst+1)& (0+255),f,b
  3423                           
  3424                           ; BSR set to: 0
  3425                           ;usb_device_cdc.c: 968: pCDCSrc.bRam++;
  3426  0015C6  0100               	movlb	0	; () banked
  3427  0015C8  4B6F               	infsnz	_pCDCSrc& (0+255),f,b
  3428  0015CA  2B70               	incf	(_pCDCSrc+1)& (0+255),f,b
  3429                           
  3430                           ; BSR set to: 0
  3431                           ;usb_device_cdc.c: 969: i--;
  3432  0015CC  0100               	movlb	0	; () banked
  3433  0015CE  0793               	decf	CDCTxService@i& (0+255),f,b
  3434  0015D0  D000               	goto	l6602
  3435  0015D2                     l6602:
  3436                           
  3437                           ; BSR set to: 0
  3438  0015D2  0100               	movlb	0	; () banked
  3439  0015D4  5193               	movf	CDCTxService@i& (0+255),w,b
  3440  0015D6  0100               	movlb	0	; () banked
  3441  0015D8  B4D8               	btfsc	status,2,c
  3442  0015DA  D002               	goto	l6604
  3443  0015DC  D7E7               	goto	l6594
  3444                           
  3445                           ; BSR set to: 0
  3446  0015DE  D000               	goto	l6604
  3447  0015E0                     l6604:
  3448                           
  3449                           ; BSR set to: 0
  3450                           ;usb_device_cdc.c: 970: }
  3451                           ;usb_device_cdc.c: 971: }
  3452                           ;usb_device_cdc.c: 977: if(cdc_tx_len == 0)
  3453  0015E0  0100               	movlb	0	; () banked
  3454  0015E2  5180               	movf	_cdc_tx_len& (0+255),w,b
  3455  0015E4  0100               	movlb	0	; () banked
  3456  0015E6  A4D8               	btfss	status,2,c
  3457  0015E8  D00B               	goto	l6612
  3458                           
  3459                           ; BSR set to: 0
  3460                           ;usb_device_cdc.c: 978: {
  3461                           ;usb_device_cdc.c: 979: if(byte_to_send == 64)
  3462  0015EA  0E40               	movlw	64
  3463  0015EC  0100               	movlb	0	; () banked
  3464  0015EE  1994               	xorwf	CDCTxService@byte_to_send& (0+255),w,b
  3465  0015F0  A4D8               	btfss	status,2,c
  3466  0015F2  D002               	goto	l6610
  3467                           
  3468                           ; BSR set to: 0
  3469                           ;usb_device_cdc.c: 980: cdc_trf_state = 2;
  3470  0015F4  0E02               	movlw	2
  3471  0015F6  D001               	goto	L1
  3472  0015F8                     l6610:
  3473                           
  3474                           ; BSR set to: 0
  3475                           ;usb_device_cdc.c: 981: else
  3476                           ;usb_device_cdc.c: 982: cdc_trf_state = 3;
  3477  0015F8  0E03               	movlw	3
  3478  0015FA                     L1:
  3479  0015FA  0100               	movlb	0	; () banked
  3480  0015FC  6F7F               	movwf	_cdc_trf_state& (0+255),b
  3481                           
  3482                           ; BSR set to: 0
  3483  0015FE  D000               	goto	l6612
  3484  001600                     l6612:
  3485                           
  3486                           ; BSR set to: 0
  3487                           ;usb_device_cdc.c: 983: }
  3488                           ;usb_device_cdc.c: 984: CDCDataInHandle = USBTransferOnePacket(2,1,(uint8_t*)&cdc_data_t
      +                          x,byte_to_send);
  3489  001600  0E01               	movlw	1
  3490  001602  0100               	movlb	0	; () banked
  3491  001604  6F89               	movwf	USBTransferOnePacket@dir& (0+255),b
  3492  001606  0E40               	movlw	low _cdc_data_tx
  3493  001608  0100               	movlb	0	; () banked
  3494  00160A  6F8A               	movwf	USBTransferOnePacket@data& (0+255),b
  3495  00160C  0E03               	movlw	high _cdc_data_tx
  3496  00160E  0100               	movlb	0	; () banked
  3497  001610  6F8B               	movwf	(USBTransferOnePacket@data+1)& (0+255),b
  3498  001612  C094  F08C         	movff	CDCTxService@byte_to_send,USBTransferOnePacket@len
  3499  001616  0E02               	movlw	2
  3500  001618  EC10  F010         	call	_USBTransferOnePacket
  3501  00161C  C089  F074         	movff	?_USBTransferOnePacket,_CDCDataInHandle
  3502  001620  C08A  F075         	movff	?_USBTransferOnePacket+1,_CDCDataInHandle+1
  3503  001624  D000               	goto	l6614
  3504  001626                     l6614:
  3505                           
  3506                           ;usb_device_cdc.c: 986: }
  3507                           ;usb_device_cdc.c: 988: {PIE2bits.USBIE = 1;};
  3508  001626  88A0               	bsf	4000,4,c	;volatile
  3509  001628  0012               	return		;funcret
  3510  00162A                     __end_of_CDCTxService:
  3511                           	opt stack 0
  3512                           tblptru	equ	0xFF8
  3513                           tblptrh	equ	0xFF7
  3514                           tblptrl	equ	0xFF6
  3515                           tablat	equ	0xFF5
  3516                           prodh	equ	0xFF4
  3517                           prodl	equ	0xFF3
  3518                           intcon	equ	0xFF2
  3519                           intcon2	equ	0xFF1
  3520                           postinc0	equ	0xFEE
  3521                           wreg	equ	0xFE8
  3522                           indf1	equ	0xFE7
  3523                           fsr1h	equ	0xFE2
  3524                           fsr1l	equ	0xFE1
  3525                           indf2	equ	0xFDF
  3526                           postinc2	equ	0xFDE
  3527                           postdec2	equ	0xFDD
  3528                           fsr2h	equ	0xFDA
  3529                           fsr2l	equ	0xFD9
  3530                           status	equ	0xFD8
  3531                           
  3532 ;; *************** function _USBTransferOnePacket *****************
  3533 ;; Defined at:
  3534 ;;		line 995 in file "../My_header/usb_cdc/usb/usb_device.c"
  3535 ;; Parameters:    Size  Location     Type
  3536 ;;  ep              1    wreg     unsigned char 
  3537 ;;  dir             1    0[BANK0 ] unsigned char 
  3538 ;;  data            2    1[BANK0 ] PTR unsigned char 
  3539 ;;		 -> cdc_data_tx(64), cdc_data_rx(64), NULL(0), 
  3540 ;;  len             1    3[BANK0 ] unsigned char 
  3541 ;; Auto vars:     Size  Location     Type
  3542 ;;  ep              1    4[BANK0 ] unsigned char 
  3543 ;;  handle          2    5[BANK0 ] PTR volatile struct __BD
  3544 ;;		 -> NULL(0), BDT(48), 
  3545 ;; Return value:  Size  Location     Type
  3546 ;;                  2    0[BANK0 ] PTR void 
  3547 ;; Registers used:
  3548 ;;		wreg, fsr2l, fsr2h, status,2, status,0, prodl, prodh
  3549 ;; Tracked objects:
  3550 ;;		On entry : 0/0
  3551 ;;		On exit  : 0/0
  3552 ;;		Unchanged: 0/0
  3553 ;; Data sizes:     COMRAM   BANK0   BANK1   BANK2   BANK3   BANK4   BANK5   BANK6   BANK7   BANK8   BANK9  BANK10  BANK1
      +1  BANK12  BANK13  BANK14
  3554 ;;      Params:         0       4       0       0       0       0       0       0       0       0       0       0       
      +0       0       0       0
  3555 ;;      Locals:         0       3       0       0       0       0       0       0       0       0       0       0       
      +0       0       0       0
  3556 ;;      Temps:          0       0       0       0       0       0       0       0       0       0       0       0       
      +0       0       0       0
  3557 ;;      Totals:         0       7       0       0       0       0       0       0       0       0       0       0       
      +0       0       0       0
  3558 ;;Total ram usage:        7 bytes
  3559 ;; Hardware stack levels used:    1
  3560 ;; Hardware stack levels required when called:   10
  3561 ;; This function calls:
  3562 ;;		Nothing
  3563 ;; This function is called by:
  3564 ;;		_getsUSBUSART
  3565 ;;		_CDCTxService
  3566 ;;		_USBCDCEventHandler
  3567 ;; This function uses a non-reentrant model
  3568 ;;
  3569                           
  3570                           	psect	text19
  3571  002020                     __ptext19:
  3572                           	opt stack 0
  3573  002020                     _USBTransferOnePacket:
  3574                           	opt stack 18
  3575                           
  3576                           ;incstack = 0
  3577                           ;USBTransferOnePacket@ep stored from wreg
  3578  002020  0100               	movlb	0	; () banked
  3579  002022  6F8D               	movwf	USBTransferOnePacket@ep& (0+255),b
  3580                           
  3581                           ; BSR set to: 0
  3582                           ;usb_device.c: 997: volatile BDT_ENTRY* handle;
  3583                           ;usb_device.c: 1000: if(dir != 0)
  3584  002024  0100               	movlb	0	; () banked
  3585  002026  5189               	movf	USBTransferOnePacket@dir& (0+255),w,b
  3586  002028  0100               	movlb	0	; () banked
  3587  00202A  B4D8               	btfsc	status,2,c
  3588  00202C  D008               	goto	l6322
  3589                           
  3590                           ; BSR set to: 0
  3591                           ;usb_device.c: 1001: {
  3592                           ;usb_device.c: 1003: handle = pBDTEntryIn[ep];
  3593  00202E  0100               	movlb	0	; () banked
  3594  002030  518D               	movf	USBTransferOnePacket@ep& (0+255),w,b
  3595  002032  0D02               	mullw	2
  3596  002034  0E0A               	movlw	low _pBDTEntryIn
  3597  002036  24F3               	addwf	prodl,w,c
  3598  002038  6ED9               	movwf	fsr2l,c
  3599  00203A  0E00               	movlw	high _pBDTEntryIn
  3600  00203C  D007               	goto	L2
  3601  00203E                     l6322:
  3602                           
  3603                           ; BSR set to: 0
  3604                           ;usb_device.c: 1005: else
  3605                           ;usb_device.c: 1006: {
  3606                           ;usb_device.c: 1008: handle = pBDTEntryOut[ep];
  3607  00203E  0100               	movlb	0	; () banked
  3608  002040  518D               	movf	USBTransferOnePacket@ep& (0+255),w,b
  3609  002042  0D02               	mullw	2
  3610  002044  0E60               	movlw	low _pBDTEntryOut
  3611  002046  24F3               	addwf	prodl,w,c
  3612  002048  6ED9               	movwf	fsr2l,c
  3613  00204A  0E00               	movlw	high _pBDTEntryOut
  3614  00204C                     L2:
  3615  00204C  20F4               	addwfc	prodh,w,c
  3616  00204E  6EDA               	movwf	fsr2h,c
  3617  002050  CFDE F08E          	movff	postinc2,USBTransferOnePacket@handle
  3618  002054  CFDD F08F          	movff	postdec2,USBTransferOnePacket@handle+1
  3619  002058  D000               	goto	l6324
  3620  00205A                     l6324:
  3621                           
  3622                           ; BSR set to: 0
  3623                           ;usb_device.c: 1009: }
  3624                           ;usb_device.c: 1013: if(handle == 0)
  3625  00205A  0100               	movlb	0	; () banked
  3626  00205C  518E               	movf	USBTransferOnePacket@handle& (0+255),w,b
  3627  00205E  0100               	movlb	0	; () banked
  3628  002060  118F               	iorwf	(USBTransferOnePacket@handle+1)& (0+255),w,b
  3629  002062  A4D8               	btfss	status,2,c
  3630  002064  D007               	goto	l6330
  3631                           
  3632                           ; BSR set to: 0
  3633                           ;usb_device.c: 1014: {
  3634                           ;usb_device.c: 1015: return 0;
  3635  002066  0E00               	movlw	0
  3636  002068  0100               	movlb	0	; () banked
  3637  00206A  6F89               	movwf	?_USBTransferOnePacket& (0+255),b
  3638  00206C  0E00               	movlw	0
  3639  00206E  0100               	movlb	0	; () banked
  3640  002070  6F8A               	movwf	(?_USBTransferOnePacket+1)& (0+255),b
  3641                           
  3642                           ; BSR set to: 0
  3643  002072  0012               	return	
  3644  002074                     l6330:
  3645                           
  3646                           ; BSR set to: 0
  3647                           ;usb_device.c: 1016: }
  3648                           ;usb_device.c: 1029: handle->ADR = ((uint16_t)(data));
  3649  002074  0100               	movlb	0	; () banked
  3650  002076  EE20 F002          	lfsr	2,2
  3651  00207A  518E               	movf	USBTransferOnePacket@handle& (0+255),w,b
  3652  00207C  26D9               	addwf	fsr2l,f,c
  3653  00207E  518F               	movf	(USBTransferOnePacket@handle+1)& (0+255),w,b
  3654  002080  22DA               	addwfc	fsr2h,f,c
  3655  002082  C08A  FFDE         	movff	USBTransferOnePacket@data,postinc2
  3656  002086  C08B  FFDD         	movff	USBTransferOnePacket@data+1,postdec2
  3657                           
  3658                           ;usb_device.c: 1030: handle->CNT = len;
  3659  00208A  0100               	movlb	0	; () banked
  3660  00208C  EE20 F001          	lfsr	2,1
  3661  002090  518E               	movf	USBTransferOnePacket@handle& (0+255),w,b
  3662  002092  26D9               	addwf	fsr2l,f,c
  3663  002094  518F               	movf	(USBTransferOnePacket@handle+1)& (0+255),w,b
  3664  002096  22DA               	addwfc	fsr2h,f,c
  3665  002098  C08C  FFDF         	movff	USBTransferOnePacket@len,indf2
  3666                           
  3667                           ; BSR set to: 0
  3668                           ;usb_device.c: 1031: handle->STAT.Val &= 0x40;
  3669  00209C  C08E  FFD9         	movff	USBTransferOnePacket@handle,fsr2l
  3670  0020A0  C08F  FFDA         	movff	USBTransferOnePacket@handle+1,fsr2h
  3671  0020A4  0E40               	movlw	64
  3672  0020A6  16DF               	andwf	indf2,f,c
  3673                           
  3674                           ; BSR set to: 0
  3675                           ;usb_device.c: 1032: handle->STAT.Val |= (0x08 & 0x08);
  3676  0020A8  C08E  FFD9         	movff	USBTransferOnePacket@handle,fsr2l
  3677  0020AC  C08F  FFDA         	movff	USBTransferOnePacket@handle+1,fsr2h
  3678  0020B0  0E00               	movlw	0
  3679  0020B2  86DB               	bsf	plusw2,3,c
  3680                           
  3681                           ; BSR set to: 0
  3682                           ;usb_device.c: 1033: handle->STAT.Val |= 0x80;
  3683  0020B4  C08E  FFD9         	movff	USBTransferOnePacket@handle,fsr2l
  3684  0020B8  C08F  FFDA         	movff	USBTransferOnePacket@handle+1,fsr2h
  3685  0020BC  0E00               	movlw	0
  3686  0020BE  8EDB               	bsf	plusw2,7,c
  3687                           
  3688                           ; BSR set to: 0
  3689                           ;usb_device.c: 1036: if(dir != 0)
  3690  0020C0  0100               	movlb	0	; () banked
  3691  0020C2  5189               	movf	USBTransferOnePacket@dir& (0+255),w,b
  3692  0020C4  0100               	movlb	0	; () banked
  3693  0020C6  B4D8               	btfsc	status,2,c
  3694  0020C8  D008               	goto	l6342
  3695                           
  3696                           ; BSR set to: 0
  3697                           ;usb_device.c: 1037: {
  3698                           ;usb_device.c: 1039: {((uint8_t_VAL*)&pBDTEntryIn[ep])->Val ^= 0x0004;};
  3699  0020CA  0100               	movlb	0	; () banked
  3700  0020CC  518D               	movf	USBTransferOnePacket@ep& (0+255),w,b
  3701  0020CE  0D02               	mullw	2
  3702  0020D0  0E0A               	movlw	low _pBDTEntryIn
  3703  0020D2  24F3               	addwf	prodl,w,c
  3704  0020D4  6ED9               	movwf	fsr2l,c
  3705  0020D6  0E00               	movlw	high _pBDTEntryIn
  3706  0020D8  D007               	goto	L3
  3707  0020DA                     l6342:
  3708                           
  3709                           ; BSR set to: 0
  3710                           ;usb_device.c: 1041: else
  3711                           ;usb_device.c: 1042: {
  3712                           ;usb_device.c: 1044: {((uint8_t_VAL*)&pBDTEntryOut[ep])->Val ^= 0x0004;};
  3713  0020DA  0100               	movlb	0	; () banked
  3714  0020DC  518D               	movf	USBTransferOnePacket@ep& (0+255),w,b
  3715  0020DE  0D02               	mullw	2
  3716  0020E0  0E60               	movlw	low _pBDTEntryOut
  3717  0020E2  24F3               	addwf	prodl,w,c
  3718  0020E4  6ED9               	movwf	fsr2l,c
  3719  0020E6  0E00               	movlw	high _pBDTEntryOut
  3720  0020E8                     L3:
  3721  0020E8  20F4               	addwfc	prodh,w,c
  3722  0020EA  6EDA               	movwf	fsr2h,c
  3723  0020EC  0E04               	movlw	4
  3724  0020EE  1ADF               	xorwf	indf2,f,c
  3725  0020F0  D000               	goto	l6344
  3726  0020F2                     l6344:
  3727                           
  3728                           ; BSR set to: 0
  3729                           ;usb_device.c: 1045: }
  3730                           ;usb_device.c: 1046: return (void*)handle;
  3731  0020F2  C08E  F089         	movff	USBTransferOnePacket@handle,?_USBTransferOnePacket
  3732  0020F6  C08F  F08A         	movff	USBTransferOnePacket@handle+1,?_USBTransferOnePacket+1
  3733  0020FA  0012               	return	
  3734                           
  3735                           ; BSR set to: 0
  3736                           
  3737                           ; BSR set to: 0
  3738  0020FC  0012               	return		;funcret
  3739  0020FE                     __end_of_USBTransferOnePacket:
  3740                           	opt stack 0
  3741                           tblptru	equ	0xFF8
  3742                           tblptrh	equ	0xFF7
  3743                           tblptrl	equ	0xFF6
  3744                           tablat	equ	0xFF5
  3745                           prodh	equ	0xFF4
  3746                           prodl	equ	0xFF3
  3747                           intcon	equ	0xFF2
  3748                           intcon2	equ	0xFF1
  3749                           postinc0	equ	0xFEE
  3750                           wreg	equ	0xFE8
  3751                           indf1	equ	0xFE7
  3752                           fsr1h	equ	0xFE2
  3753                           fsr1l	equ	0xFE1
  3754                           indf2	equ	0xFDF
  3755                           postinc2	equ	0xFDE
  3756                           postdec2	equ	0xFDD
  3757                           plusw2	equ	0xFDB
  3758                           fsr2h	equ	0xFDA
  3759                           fsr2l	equ	0xFD9
  3760                           status	equ	0xFD8
  3761                           
  3762 ;; *************** function _USB_init *****************
  3763 ;; Defined at:
  3764 ;;		line 7 in file "../My_header/usb_cdc/my_usb_cdc.c"
  3765 ;; Parameters:    Size  Location     Type
  3766 ;;		None
  3767 ;; Auto vars:     Size  Location     Type
  3768 ;;		None
  3769 ;; Return value:  Size  Location     Type
  3770 ;;		None               void
  3771 ;; Registers used:
  3772 ;;		wreg, fsr2l, fsr2h, status,2, status,0, prodl, prodh, cstack
  3773 ;; Tracked objects:
  3774 ;;		On entry : 0/0
  3775 ;;		On exit  : 0/0
  3776 ;;		Unchanged: 0/0
  3777 ;; Data sizes:     COMRAM   BANK0   BANK1   BANK2   BANK3   BANK4   BANK5   BANK6   BANK7   BANK8   BANK9  BANK10  BANK1
      +1  BANK12  BANK13  BANK14
  3778 ;;      Params:         0       0       0       0       0       0       0       0       0       0       0       0       
      +0       0       0       0
  3779 ;;      Locals:         0       0       0       0       0       0       0       0       0       0       0       0       
      +0       0       0       0
  3780 ;;      Temps:          0       0       0       0       0       0       0       0       0       0       0       0       
      +0       0       0       0
  3781 ;;      Totals:         0       0       0       0       0       0       0       0       0       0       0       0       
      +0       0       0       0
  3782 ;;Total ram usage:        0 bytes
  3783 ;; Hardware stack levels used:    1
  3784 ;; Hardware stack levels required when called:   12
  3785 ;; This function calls:
  3786 ;;		_USBDeviceAttach
  3787 ;;		_USBDeviceInit
  3788 ;; This function is called by:
  3789 ;;		_main
  3790 ;; This function uses a non-reentrant model
  3791 ;;
  3792                           
  3793                           	psect	text20
  3794  003336                     __ptext20:
  3795                           	opt stack 0
  3796  003336                     _USB_init:
  3797                           	opt stack 18
  3798                           
  3799                           ;my_usb_cdc.c: 8: USBDeviceInit();
  3800                           
  3801                           ; BSR set to: 0
  3802                           ;incstack = 0
  3803  003336  ECC7  F00B         	call	_USBDeviceInit	;wreg free
  3804                           
  3805                           ;my_usb_cdc.c: 9: USBDeviceAttach();
  3806  00333A  ECF8  F017         	call	_USBDeviceAttach	;wreg free
  3807  00333E  0012               	return		;funcret
  3808  003340                     __end_of_USB_init:
  3809                           	opt stack 0
  3810                           tblptru	equ	0xFF8
  3811                           tblptrh	equ	0xFF7
  3812                           tblptrl	equ	0xFF6
  3813                           tablat	equ	0xFF5
  3814                           prodh	equ	0xFF4
  3815                           prodl	equ	0xFF3
  3816                           intcon	equ	0xFF2
  3817                           intcon2	equ	0xFF1
  3818                           postinc0	equ	0xFEE
  3819                           wreg	equ	0xFE8
  3820                           indf1	equ	0xFE7
  3821                           fsr1h	equ	0xFE2
  3822                           fsr1l	equ	0xFE1
  3823                           indf2	equ	0xFDF
  3824                           postinc2	equ	0xFDE
  3825                           postdec2	equ	0xFDD
  3826                           plusw2	equ	0xFDB
  3827                           fsr2h	equ	0xFDA
  3828                           fsr2l	equ	0xFD9
  3829                           status	equ	0xFD8
  3830                           
  3831 ;; *************** function _USBDeviceInit *****************
  3832 ;; Defined at:
  3833 ;;		line 298 in file "../My_header/usb_cdc/usb/usb_device.c"
  3834 ;; Parameters:    Size  Location     Type
  3835 ;;		None
  3836 ;; Auto vars:     Size  Location     Type
  3837 ;;  i               1    8[BANK0 ] unsigned char 
  3838 ;; Return value:  Size  Location     Type
  3839 ;;		None               void
  3840 ;; Registers used:
  3841 ;;		wreg, fsr2l, fsr2h, status,2, status,0, prodl, prodh, cstack
  3842 ;; Tracked objects:
  3843 ;;		On entry : 0/0
  3844 ;;		On exit  : 0/0
  3845 ;;		Unchanged: 0/0
  3846 ;; Data sizes:     COMRAM   BANK0   BANK1   BANK2   BANK3   BANK4   BANK5   BANK6   BANK7   BANK8   BANK9  BANK10  BANK1
      +1  BANK12  BANK13  BANK14
  3847 ;;      Params:         0       0       0       0       0       0       0       0       0       0       0       0       
      +0       0       0       0
  3848 ;;      Locals:         0       1       0       0       0       0       0       0       0       0       0       0       
      +0       0       0       0
  3849 ;;      Temps:          0       0       0       0       0       0       0       0       0       0       0       0       
      +0       0       0       0
  3850 ;;      Totals:         0       1       0       0       0       0       0       0       0       0       0       0       
      +0       0       0       0
  3851 ;;Total ram usage:        1 bytes
  3852 ;; Hardware stack levels used:    1
  3853 ;; Hardware stack levels required when called:   11
  3854 ;; This function calls:
  3855 ;;		_memset
  3856 ;; This function is called by:
  3857 ;;		_USB_init
  3858 ;; This function uses a non-reentrant model
  3859 ;;
  3860                           
  3861                           	psect	text21
  3862  00178E                     __ptext21:
  3863                           	opt stack 0
  3864  00178E                     _USBDeviceInit:
  3865                           	opt stack 18
  3866                           
  3867                           ;usb_device.c: 300: uint8_t i;
  3868                           ;usb_device.c: 302: {PIE2bits.USBIE = 0;};
  3869                           
  3870                           ;incstack = 0
  3871  00178E  98A0               	bcf	4000,4,c	;volatile
  3872                           
  3873                           ;usb_device.c: 305: {UEIR = 0;};
  3874  001790  0E00               	movlw	0
  3875  001792  6E63               	movwf	3939,c	;volatile
  3876                           
  3877                           ;usb_device.c: 308: {UIR = 0;};
  3878  001794  0E00               	movlw	0
  3879  001796  6E62               	movwf	3938,c	;volatile
  3880                           
  3881                           ;usb_device.c: 311: UEP0 = 0;
  3882  001798  0E00               	movlw	0
  3883  00179A  010F               	movlb	15	; () banked
  3884  00179C  6F26               	movwf	38,b	;volatile
  3885                           
  3886                           ; BSR set to: 15
  3887                           ;usb_device.c: 313: memset((void*)&UEP1,0x00,(2));;
  3888  00179E  0E27               	movlw	39
  3889  0017A0  0100               	movlb	0	; () banked
  3890  0017A2  6F89               	movwf	memset@p1& (0+255),b
  3891  0017A4  0E0F               	movlw	15
  3892  0017A6  0100               	movlb	0	; () banked
  3893  0017A8  6F8A               	movwf	(memset@p1+1)& (0+255),b
  3894  0017AA  0E00               	movlw	0
  3895  0017AC  0100               	movlb	0	; () banked
  3896  0017AE  6F8C               	movwf	(memset@c+1)& (0+255),b
  3897  0017B0  0E00               	movlw	0
  3898  0017B2  6F8B               	movwf	memset@c& (0+255),b
  3899  0017B4  0E00               	movlw	0
  3900  0017B6  0100               	movlb	0	; () banked
  3901  0017B8  6F8E               	movwf	(memset@n+1)& (0+255),b
  3902  0017BA  0E02               	movlw	2
  3903  0017BC  6F8D               	movwf	memset@n& (0+255),b
  3904  0017BE  EC31  F018         	call	_memset	;wreg free
  3905                           
  3906                           ;usb_device.c: 315: { UCFG = 0x10 | 0x00 | 0x04 | 0x02; UEIE = 0x9F; UIE = 0x39 | 0x40 |
      +                           0x02; };
  3907  0017C2  0E16               	movlw	22
  3908  0017C4  010F               	movlb	15	; () banked
  3909  0017C6  6F39               	movwf	57,b	;volatile
  3910                           
  3911                           ; BSR set to: 15
  3912  0017C8  0E9F               	movlw	159
  3913  0017CA  010F               	movlb	15	; () banked
  3914  0017CC  6F37               	movwf	55,b	;volatile
  3915                           
  3916                           ; BSR set to: 15
  3917  0017CE  0E7B               	movlw	123
  3918  0017D0  010F               	movlb	15	; () banked
  3919  0017D2  6F36               	movwf	54,b	;volatile
  3920                           
  3921                           ; BSR set to: 15
  3922                           ;usb_device.c: 318: ;
  3923                           ;usb_device.c: 321: ;
  3924                           ;usb_device.c: 324: for(i=0;i<(sizeof(BDT)/sizeof(BDT_ENTRY));i++)
  3925  0017D4  0E00               	movlw	0
  3926  0017D6  0100               	movlb	0	; () banked
  3927  0017D8  6F91               	movwf	USBDeviceInit@i& (0+255),b
  3928  0017DA  D010               	goto	l6476
  3929                           
  3930                           ; BSR set to: 0
  3931                           
  3932                           ; BSR set to: 0
  3933  0017DC  D013               	goto	l747
  3934  0017DE                     l6472:
  3935                           
  3936                           ; BSR set to: 0
  3937                           ;usb_device.c: 325: {
  3938                           ;usb_device.c: 326: BDT[i].Val = 0x00;
  3939  0017DE  0100               	movlb	0	; () banked
  3940  0017E0  5191               	movf	USBDeviceInit@i& (0+255),w,b
  3941  0017E2  0D04               	mullw	4
  3942  0017E4  0E00               	movlw	0
  3943  0017E6  24F3               	addwf	prodl,w,c
  3944  0017E8  6ED9               	movwf	fsr2l,c
  3945  0017EA  0E0D               	movlw	13
  3946  0017EC  20F4               	addwfc	prodh,w,c
  3947  0017EE  6EDA               	movwf	fsr2h,c
  3948  0017F0  6ADE               	clrf	postinc2,c
  3949  0017F2  6ADE               	clrf	postinc2,c
  3950  0017F4  6ADE               	clrf	postinc2,c
  3951  0017F6  6ADD               	clrf	postdec2,c
  3952                           
  3953                           ; BSR set to: 0
  3954  0017F8  0100               	movlb	0	; () banked
  3955  0017FA  2B91               	incf	USBDeviceInit@i& (0+255),f,b
  3956  0017FC                     l6476:
  3957                           
  3958                           ; BSR set to: 0
  3959  0017FC  0E0B               	movlw	11
  3960  0017FE  0100               	movlb	0	; () banked
  3961  001800  6591               	cpfsgt	USBDeviceInit@i& (0+255),b
  3962  001802  D7ED               	goto	l6472
  3963  001804                     l747:
  3964                           
  3965                           ; BSR set to: 0
  3966                           ;usb_device.c: 327: }
  3967                           ;usb_device.c: 330: UCONbits.PPBRST = 1;
  3968  001804  8C65               	bsf	3941,6,c	;volatile
  3969                           
  3970                           ; BSR set to: 0
  3971                           ;usb_device.c: 333: UADDR = 0x00;
  3972  001806  0E00               	movlw	0
  3973  001808  010F               	movlb	15	; () banked
  3974  00180A  6F38               	movwf	56,b	;volatile
  3975                           
  3976                           ; BSR set to: 15
  3977                           ;usb_device.c: 336: UCONbits.PKTDIS = 0;
  3978  00180C  9865               	bcf	3941,4,c	;volatile
  3979                           
  3980                           ; BSR set to: 15
  3981                           ;usb_device.c: 339: UCONbits.PPBRST = 0;
  3982  00180E  9C65               	bcf	3941,6,c	;volatile
  3983                           
  3984                           ;usb_device.c: 342: while(UIRbits.TRNIF == 1)
  3985  001810  D00A               	goto	l6492
  3986  001812                     l6484:
  3987                           
  3988                           ;usb_device.c: 343: {
  3989                           ;usb_device.c: 344: (UIR &= 0xF7);
  3990  001812  9662               	bcf	3938,3,c	;volatile
  3991                           
  3992                           ;usb_device.c: 346: inPipes[0].info.Val = 0;
  3993  001814  0E00               	movlw	0
  3994  001816  6E28               	movwf	_inPipes+3,c	;volatile
  3995                           
  3996                           ;usb_device.c: 347: outPipes[0].info.Val = 0;
  3997  001818  0E00               	movlw	0
  3998  00181A  6E04               	movwf	_outPipes+3,c	;volatile
  3999                           
  4000                           ;usb_device.c: 348: outPipes[0].wCount.Val = 0;
  4001  00181C  0E00               	movlw	0
  4002  00181E  6E06               	movwf	_outPipes+5,c	;volatile
  4003  001820  0E00               	movlw	0
  4004  001822  6E05               	movwf	_outPipes+4,c	;volatile
  4005  001824  D000               	goto	l6492
  4006  001826                     l6492:
  4007  001826  B662               	btfsc	3938,3,c	;volatile
  4008  001828  D7F4               	goto	l6484
  4009                           
  4010                           ;usb_device.c: 349: }
  4011                           ;usb_device.c: 353: USBStatusStageEnabledFlag1 = 1;
  4012  00182A  0E01               	movlw	1
  4013  00182C  6E1B               	movwf	_USBStatusStageEnabledFlag1,c	;volatile
  4014                           
  4015                           ;usb_device.c: 354: USBStatusStageEnabledFlag2 = 1;
  4016  00182E  0E01               	movlw	1
  4017  001830  6E1C               	movwf	_USBStatusStageEnabledFlag2,c	;volatile
  4018                           
  4019                           ;usb_device.c: 356: USBDeferINDataStagePackets = 0;
  4020  001832  0E00               	movlw	0
  4021  001834  6E17               	movwf	_USBDeferINDataStagePackets,c	;volatile
  4022                           
  4023                           ;usb_device.c: 357: USBDeferOUTDataStagePackets = 0;
  4024  001836  0E00               	movlw	0
  4025  001838  6E18               	movwf	_USBDeferOUTDataStagePackets,c	;volatile
  4026                           
  4027                           ;usb_device.c: 358: USBBusIsSuspended = 0;
  4028  00183A  0E00               	movlw	0
  4029  00183C  0100               	movlb	0	; () banked
  4030  00183E  6F7C               	movwf	_USBBusIsSuspended& (0+255),b	;volatile
  4031                           
  4032                           ;usb_device.c: 362: for(i = 0; i < (uint8_t)(2+1u); i++)
  4033  001840  0E00               	movlw	0
  4034  001842  0100               	movlb	0	; () banked
  4035  001844  6F91               	movwf	USBDeviceInit@i& (0+255),b
  4036  001846                     l6496:
  4037                           
  4038                           ; BSR set to: 0
  4039  001846  0E02               	movlw	2
  4040  001848  0100               	movlb	0	; () banked
  4041  00184A  6591               	cpfsgt	USBDeviceInit@i& (0+255),b
  4042  00184C  D001               	goto	l6500
  4043                           
  4044                           ; BSR set to: 0
  4045  00184E  D033               	goto	l6506
  4046  001850                     l6500:
  4047                           
  4048                           ; BSR set to: 0
  4049                           ;usb_device.c: 363: {
  4050                           ;usb_device.c: 364: pBDTEntryIn[i] = 0u;
  4051  001850  0100               	movlb	0	; () banked
  4052  001852  5191               	movf	USBDeviceInit@i& (0+255),w,b
  4053  001854  0D02               	mullw	2
  4054  001856  0E0A               	movlw	low _pBDTEntryIn
  4055  001858  24F3               	addwf	prodl,w,c
  4056  00185A  6ED9               	movwf	fsr2l,c
  4057  00185C  0E00               	movlw	high _pBDTEntryIn
  4058  00185E  20F4               	addwfc	prodh,w,c
  4059  001860  6EDA               	movwf	fsr2h,c
  4060  001862  0E00               	movlw	0
  4061  001864  6EDE               	movwf	postinc2,c
  4062  001866  0E00               	movlw	0
  4063  001868  6EDD               	movwf	postdec2,c
  4064                           
  4065                           ;usb_device.c: 365: pBDTEntryOut[i] = 0u;
  4066  00186A  0100               	movlb	0	; () banked
  4067  00186C  5191               	movf	USBDeviceInit@i& (0+255),w,b
  4068  00186E  0D02               	mullw	2
  4069  001870  0E60               	movlw	low _pBDTEntryOut
  4070  001872  24F3               	addwf	prodl,w,c
  4071  001874  6ED9               	movwf	fsr2l,c
  4072  001876  0E00               	movlw	high _pBDTEntryOut
  4073  001878  20F4               	addwfc	prodh,w,c
  4074  00187A  6EDA               	movwf	fsr2h,c
  4075  00187C  0E00               	movlw	0
  4076  00187E  6EDE               	movwf	postinc2,c
  4077  001880  0E00               	movlw	0
  4078  001882  6EDD               	movwf	postdec2,c
  4079                           
  4080                           ;usb_device.c: 366: ep_data_in[i].Val = 0u;
  4081  001884  0100               	movlb	0	; () banked
  4082  001886  5191               	movf	USBDeviceInit@i& (0+255),w,b
  4083  001888  0D01               	mullw	1
  4084  00188A  0E66               	movlw	low _ep_data_in
  4085  00188C  24F3               	addwf	prodl,w,c
  4086  00188E  6ED9               	movwf	fsr2l,c
  4087  001890  0E00               	movlw	high _ep_data_in
  4088  001892  20F4               	addwfc	prodh,w,c
  4089  001894  6EDA               	movwf	fsr2h,c
  4090  001896  0E00               	movlw	0
  4091  001898  6EDF               	movwf	indf2,c
  4092                           
  4093                           ;usb_device.c: 367: ep_data_out[i].Val = 0u;
  4094  00189A  0100               	movlb	0	; () banked
  4095  00189C  5191               	movf	USBDeviceInit@i& (0+255),w,b
  4096  00189E  0D01               	mullw	1
  4097  0018A0  0E69               	movlw	low _ep_data_out
  4098  0018A2  24F3               	addwf	prodl,w,c
  4099  0018A4  6ED9               	movwf	fsr2l,c
  4100  0018A6  0E00               	movlw	high _ep_data_out
  4101  0018A8  20F4               	addwfc	prodh,w,c
  4102  0018AA  6EDA               	movwf	fsr2h,c
  4103  0018AC  0E00               	movlw	0
  4104  0018AE  6EDF               	movwf	indf2,c
  4105                           
  4106                           ; BSR set to: 0
  4107  0018B0  0100               	movlb	0	; () banked
  4108  0018B2  2B91               	incf	USBDeviceInit@i& (0+255),f,b
  4109  0018B4  D7C8               	goto	l6496
  4110  0018B6                     l6506:
  4111                           
  4112                           ; BSR set to: 0
  4113                           ;usb_device.c: 368: }
  4114                           ;usb_device.c: 371: pBDTEntryIn[0] = (volatile BDT_ENTRY*)&BDT[2];
  4115  0018B6  0E08               	movlw	8
  4116  0018B8  6E0A               	movwf	_pBDTEntryIn,c
  4117  0018BA  0E0D               	movlw	13
  4118  0018BC  6E0B               	movwf	_pBDTEntryIn+1,c
  4119                           
  4120                           ; BSR set to: 0
  4121                           ;usb_device.c: 373: UEP0 = 0x06|0x10;
  4122  0018BE  0E16               	movlw	22
  4123  0018C0  010F               	movlb	15	; () banked
  4124  0018C2  6F26               	movwf	38,b	;volatile
  4125                           
  4126                           ; BSR set to: 15
  4127                           ;usb_device.c: 375: BDT[0].ADR = ((uint16_t)(&SetupPkt));
  4128  0018C4  0E0D               	movlw	13
  4129  0018C6  010D               	movlb	13	; () banked
  4130  0018C8  6F03               	movwf	3,b	;volatile
  4131  0018CA  0E30               	movlw	48
  4132  0018CC  6F02               	movwf	2,b	;volatile
  4133                           
  4134                           ; BSR set to: 13
  4135                           ;usb_device.c: 376: BDT[0].CNT = 8;
  4136  0018CE  0E08               	movlw	8
  4137  0018D0  010D               	movlb	13	; () banked
  4138  0018D2  6F01               	movwf	1,b	;volatile
  4139                           
  4140                           ; BSR set to: 13
  4141                           ;usb_device.c: 377: BDT[0].STAT.Val = 0x00|0x04;
  4142  0018D4  0E04               	movlw	4
  4143  0018D6  010D               	movlb	13	; () banked
  4144  0018D8  6F00               	movwf	0,b	;volatile
  4145                           
  4146                           ; BSR set to: 13
  4147                           ;usb_device.c: 378: BDT[0].STAT.Val |= 0x80;
  4148  0018DA  010D               	movlb	13	; () banked
  4149  0018DC  8F00               	bsf	0,7,b	;volatile
  4150                           
  4151                           ; BSR set to: 13
  4152                           ;usb_device.c: 381: USBActiveConfiguration = 0;
  4153  0018DE  0E00               	movlw	0
  4154  0018E0  6E2B               	movwf	_USBActiveConfiguration,c	;volatile
  4155                           
  4156                           ; BSR set to: 13
  4157                           ;usb_device.c: 384: USBDeviceState = DETACHED_STATE;
  4158  0018E2  0E00               	movlw	0
  4159  0018E4  6E1A               	movwf	_USBDeviceState,c	;volatile
  4160                           
  4161                           ; BSR set to: 13
  4162  0018E6  0012               	return		;funcret
  4163  0018E8                     __end_of_USBDeviceInit:
  4164                           	opt stack 0
  4165                           tblptru	equ	0xFF8
  4166                           tblptrh	equ	0xFF7
  4167                           tblptrl	equ	0xFF6
  4168                           tablat	equ	0xFF5
  4169                           prodh	equ	0xFF4
  4170                           prodl	equ	0xFF3
  4171                           intcon	equ	0xFF2
  4172                           intcon2	equ	0xFF1
  4173                           postinc0	equ	0xFEE
  4174                           wreg	equ	0xFE8
  4175                           indf1	equ	0xFE7
  4176                           fsr1h	equ	0xFE2
  4177                           fsr1l	equ	0xFE1
  4178                           indf2	equ	0xFDF
  4179                           postinc2	equ	0xFDE
  4180                           postdec2	equ	0xFDD
  4181                           plusw2	equ	0xFDB
  4182                           fsr2h	equ	0xFDA
  4183                           fsr2l	equ	0xFD9
  4184                           status	equ	0xFD8
  4185                           
  4186 ;; *************** function _memset *****************
  4187 ;; Defined at:
  4188 ;;		line 8 in file "C:\Program Files (x86)\Microchip\xc8\v1.34\sources\common\memset.c"
  4189 ;; Parameters:    Size  Location     Type
  4190 ;;  p1              2    0[BANK0 ] PTR void 
  4191 ;;		 -> USBAlternateInterface(2), BDT(48), UEP1(1), 
  4192 ;;  c               2    2[BANK0 ] int 
  4193 ;;  n               2    4[BANK0 ] unsigned int 
  4194 ;; Auto vars:     Size  Location     Type
  4195 ;;  p               2    6[BANK0 ] PTR unsigned char 
  4196 ;;		 -> USBAlternateInterface(2), BDT(48), UEP1(1), 
  4197 ;; Return value:  Size  Location     Type
  4198 ;;                  2    0[BANK0 ] PTR void 
  4199 ;; Registers used:
  4200 ;;		wreg, fsr2l, fsr2h, status,2, status,0
  4201 ;; Tracked objects:
  4202 ;;		On entry : 0/0
  4203 ;;		On exit  : 0/0
  4204 ;;		Unchanged: 0/0
  4205 ;; Data sizes:     COMRAM   BANK0   BANK1   BANK2   BANK3   BANK4   BANK5   BANK6   BANK7   BANK8   BANK9  BANK10  BANK1
      +1  BANK12  BANK13  BANK14
  4206 ;;      Params:         0       6       0       0       0       0       0       0       0       0       0       0       
      +0       0       0       0
  4207 ;;      Locals:         0       2       0       0       0       0       0       0       0       0       0       0       
      +0       0       0       0
  4208 ;;      Temps:          0       0       0       0       0       0       0       0       0       0       0       0       
      +0       0       0       0
  4209 ;;      Totals:         0       8       0       0       0       0       0       0       0       0       0       0       
      +0       0       0       0
  4210 ;;Total ram usage:        8 bytes
  4211 ;; Hardware stack levels used:    1
  4212 ;; Hardware stack levels required when called:   10
  4213 ;; This function calls:
  4214 ;;		Nothing
  4215 ;; This function is called by:
  4216 ;;		_USBDeviceInit
  4217 ;; This function uses a non-reentrant model
  4218 ;;
  4219                           
  4220                           	psect	text22
  4221  003062                     __ptext22:
  4222                           	opt stack 0
  4223  003062                     _memset:
  4224                           	opt stack 18
  4225                           
  4226                           ; BSR set to: 13
  4227                           ;incstack = 0
  4228  003062  C089  F08F         	movff	memset@p1,memset@p
  4229  003066  C08A  F090         	movff	memset@p1+1,memset@p+1
  4230  00306A  D00A               	goto	l6316
  4231  00306C                     l6312:
  4232  00306C  C08F  FFD9         	movff	memset@p,fsr2l
  4233  003070  C090  FFDA         	movff	memset@p+1,fsr2h
  4234  003074  C08B  FFDF         	movff	memset@c,indf2
  4235  003078  0100               	movlb	0	; () banked
  4236  00307A  4B8F               	infsnz	memset@p& (0+255),f,b
  4237  00307C  2B90               	incf	(memset@p+1)& (0+255),f,b
  4238  00307E  D000               	goto	l6316
  4239  003080                     l6316:
  4240  003080  0100               	movlb	0	; () banked
  4241  003082  078D               	decf	memset@n& (0+255),f,b
  4242  003084  A0D8               	btfss	status,0,c
  4243  003086  078E               	decf	(memset@n+1)& (0+255),f,b
  4244  003088  0100               	movlb	0	; () banked
  4245  00308A  298D               	incf	memset@n& (0+255),w,b
  4246  00308C  E1EF               	bnz	l6312
  4247  00308E  0100               	movlb	0	; () banked
  4248  003090  298E               	incf	(memset@n+1)& (0+255),w,b
  4249  003092  A4D8               	btfss	status,2,c
  4250  003094  D7EB               	goto	l6312
  4251                           
  4252                           ; BSR set to: 0
  4253                           
  4254                           ; BSR set to: 0
  4255                           ;	Return value of _memset is never used
  4256  003096  0012               	return		;funcret
  4257  003098                     __end_of_memset:
  4258                           	opt stack 0
  4259                           tblptru	equ	0xFF8
  4260                           tblptrh	equ	0xFF7
  4261                           tblptrl	equ	0xFF6
  4262                           tablat	equ	0xFF5
  4263                           prodh	equ	0xFF4
  4264                           prodl	equ	0xFF3
  4265                           intcon	equ	0xFF2
  4266                           intcon2	equ	0xFF1
  4267                           postinc0	equ	0xFEE
  4268                           wreg	equ	0xFE8
  4269                           indf1	equ	0xFE7
  4270                           fsr1h	equ	0xFE2
  4271                           fsr1l	equ	0xFE1
  4272                           indf2	equ	0xFDF
  4273                           postinc2	equ	0xFDE
  4274                           postdec2	equ	0xFDD
  4275                           plusw2	equ	0xFDB
  4276                           fsr2h	equ	0xFDA
  4277                           fsr2l	equ	0xFD9
  4278                           status	equ	0xFD8
  4279                           
  4280 ;; *************** function _USBDeviceAttach *****************
  4281 ;; Defined at:
  4282 ;;		line 1352 in file "../My_header/usb_cdc/usb/usb_device.c"
  4283 ;; Parameters:    Size  Location     Type
  4284 ;;		None
  4285 ;; Auto vars:     Size  Location     Type
  4286 ;;		None
  4287 ;; Return value:  Size  Location     Type
  4288 ;;		None               void
  4289 ;; Registers used:
  4290 ;;		wreg, status,2
  4291 ;; Tracked objects:
  4292 ;;		On entry : 0/0
  4293 ;;		On exit  : 0/0
  4294 ;;		Unchanged: 0/0
  4295 ;; Data sizes:     COMRAM   BANK0   BANK1   BANK2   BANK3   BANK4   BANK5   BANK6   BANK7   BANK8   BANK9  BANK10  BANK1
      +1  BANK12  BANK13  BANK14
  4296 ;;      Params:         0       0       0       0       0       0       0       0       0       0       0       0       
      +0       0       0       0
  4297 ;;      Locals:         0       0       0       0       0       0       0       0       0       0       0       0       
      +0       0       0       0
  4298 ;;      Temps:          0       0       0       0       0       0       0       0       0       0       0       0       
      +0       0       0       0
  4299 ;;      Totals:         0       0       0       0       0       0       0       0       0       0       0       0       
      +0       0       0       0
  4300 ;;Total ram usage:        0 bytes
  4301 ;; Hardware stack levels used:    1
  4302 ;; Hardware stack levels required when called:   10
  4303 ;; This function calls:
  4304 ;;		Nothing
  4305 ;; This function is called by:
  4306 ;;		_USB_init
  4307 ;; This function uses a non-reentrant model
  4308 ;;
  4309                           
  4310                           	psect	text23
  4311  002FF0                     __ptext23:
  4312                           	opt stack 0
  4313  002FF0                     _USBDeviceAttach:
  4314                           	opt stack 19
  4315                           
  4316                           ;usb_device.c: 1356: {
  4317                           ;usb_device.c: 1357: if(1 == 1)
  4318                           
  4319                           ; BSR set to: 0
  4320                           ;incstack = 0
  4321  002FF0  501A               	movf	_USBDeviceState,w,c	;volatile
  4322  002FF2  A4D8               	btfss	status,2,c
  4323  002FF4  0012               	return	
  4324                           
  4325                           ;usb_device.c: 1358: {
  4326                           ;usb_device.c: 1360: UCON = 0;
  4327  002FF6  0E00               	movlw	0
  4328  002FF8  6E65               	movwf	3941,c	;volatile
  4329                           
  4330                           ;usb_device.c: 1363: UIE = 0;
  4331  002FFA  0E00               	movlw	0
  4332  002FFC  010F               	movlb	15	; () banked
  4333  002FFE  6F36               	movwf	54,b	;volatile
  4334                           
  4335                           ;usb_device.c: 1367: { UCFG = 0x10 | 0x00 | 0x04 | 0x02; UEIE = 0x9F; UIE = 0x39 | 0x40 
      +                          | 0x02; };
  4336  003000  0E16               	movlw	22
  4337  003002  010F               	movlb	15	; () banked
  4338  003004  6F39               	movwf	57,b	;volatile
  4339  003006  0E9F               	movlw	159
  4340  003008  010F               	movlb	15	; () banked
  4341  00300A  6F37               	movwf	55,b	;volatile
  4342  00300C  0E7B               	movlw	123
  4343  00300E  010F               	movlb	15	; () banked
  4344  003010  6F36               	movwf	54,b	;volatile
  4345                           
  4346                           ; BSR set to: 15
  4347                           ;usb_device.c: 1369: {RCONbits.IPEN = 1;IPR2bits.USBIP = 1;PIE2bits.USBIE = 1;INTCONbits
      +                          .GIEH = 1;};
  4348  003012  8ED0               	bsf	4048,7,c	;volatile
  4349                           
  4350                           ; BSR set to: 15
  4351  003014  88A2               	bsf	4002,4,c	;volatile
  4352                           
  4353                           ; BSR set to: 15
  4354  003016  88A0               	bsf	4000,4,c	;volatile
  4355                           
  4356                           ; BSR set to: 15
  4357  003018  8EF2               	bsf	intcon,7,c	;volatile
  4358                           
  4359                           ;usb_device.c: 1372: while(!UCONbits.USBEN){UCONbits.USBEN = 1;}
  4360  00301A  D001               	goto	l808
  4361  00301C                     l809:
  4362  00301C  8665               	bsf	3941,3,c	;volatile
  4363  00301E                     l808:
  4364  00301E  A665               	btfss	3941,3,c	;volatile
  4365  003020  D7FD               	goto	l809
  4366                           
  4367                           ;usb_device.c: 1375: USBDeviceState = ATTACHED_STATE;
  4368  003022  0E01               	movlw	1
  4369  003024  6E1A               	movwf	_USBDeviceState,c	;volatile
  4370  003026  0012               	return	
  4371  003028  0012               	return		;funcret
  4372  00302A                     __end_of_USBDeviceAttach:
  4373                           	opt stack 0
  4374                           tblptru	equ	0xFF8
  4375                           tblptrh	equ	0xFF7
  4376                           tblptrl	equ	0xFF6
  4377                           tablat	equ	0xFF5
  4378                           prodh	equ	0xFF4
  4379                           prodl	equ	0xFF3
  4380                           intcon	equ	0xFF2
  4381                           intcon2	equ	0xFF1
  4382                           postinc0	equ	0xFEE
  4383                           wreg	equ	0xFE8
  4384                           indf1	equ	0xFE7
  4385                           fsr1h	equ	0xFE2
  4386                           fsr1l	equ	0xFE1
  4387                           indf2	equ	0xFDF
  4388                           postinc2	equ	0xFDE
  4389                           postdec2	equ	0xFDD
  4390                           plusw2	equ	0xFDB
  4391                           fsr2h	equ	0xFDA
  4392                           fsr2l	equ	0xFD9
  4393                           status	equ	0xFD8
  4394                           
  4395 ;; *************** function _I2C_LCD_SetCursor *****************
  4396 ;; Defined at:
  4397 ;;		line 112 in file "../My_header\My_I2C.h"
  4398 ;; Parameters:    Size  Location     Type
  4399 ;;  col             1    wreg     unsigned char 
  4400 ;;  row             1    6[BANK0 ] unsigned char 
  4401 ;; Auto vars:     Size  Location     Type
  4402 ;;  col             1    9[BANK0 ] unsigned char 
  4403 ;;  row_offsets     2    7[BANK0 ] unsigned char [2]
  4404 ;; Return value:  Size  Location     Type
  4405 ;;		None               void
  4406 ;; Registers used:
  4407 ;;		wreg, fsr2l, fsr2h, status,2, status,0, prodl, prodh, cstack
  4408 ;; Tracked objects:
  4409 ;;		On entry : 0/0
  4410 ;;		On exit  : 0/0
  4411 ;;		Unchanged: 0/0
  4412 ;; Data sizes:     COMRAM   BANK0   BANK1   BANK2   BANK3   BANK4   BANK5   BANK6   BANK7   BANK8   BANK9  BANK10  BANK1
      +1  BANK12  BANK13  BANK14
  4413 ;;      Params:         0       1       0       0       0       0       0       0       0       0       0       0       
      +0       0       0       0
  4414 ;;      Locals:         0       3       0       0       0       0       0       0       0       0       0       0       
      +0       0       0       0
  4415 ;;      Temps:          0       0       0       0       0       0       0       0       0       0       0       0       
      +0       0       0       0
  4416 ;;      Totals:         0       4       0       0       0       0       0       0       0       0       0       0       
      +0       0       0       0
  4417 ;;Total ram usage:        4 bytes
  4418 ;; Hardware stack levels used:    1
  4419 ;; Hardware stack levels required when called:   13
  4420 ;; This function calls:
  4421 ;;		_I2C_LCD_Command
  4422 ;; This function is called by:
  4423 ;;		_main
  4424 ;;		_display_time_0802
  4425 ;;		_display_time_1602
  4426 ;; This function uses a non-reentrant model
  4427 ;;
  4428                           
  4429                           	psect	text24
  4430  0031E8                     __ptext24:
  4431                           	opt stack 0
  4432  0031E8                     _I2C_LCD_SetCursor:
  4433                           	opt stack 17
  4434                           
  4435                           ;incstack = 0
  4436                           ;I2C_LCD_SetCursor@col stored from wreg
  4437  0031E8  0100               	movlb	0	; () banked
  4438  0031EA  6F92               	movwf	I2C_LCD_SetCursor@col& (0+255),b
  4439                           
  4440                           ; BSR set to: 0
  4441                           ;My_header\My_I2C.h: 113: uint8_t row_offsets[] = {0x00, 0x40};
  4442  0031EC  C09D  F090         	movff	I2C_LCD_SetCursor@F9845,I2C_LCD_SetCursor@row_offsets
  4443  0031F0  C09E  F091         	movff	I2C_LCD_SetCursor@F9845+1,I2C_LCD_SetCursor@row_offsets+1
  4444                           
  4445                           ; BSR set to: 0
  4446                           ;My_header\My_I2C.h: 115: I2C_LCD_Command(0x80 | (col + row_offsets[row]));
  4447  0031F4  0100               	movlb	0	; () banked
  4448  0031F6  518F               	movf	I2C_LCD_SetCursor@row& (0+255),w,b
  4449  0031F8  0D01               	mullw	1
  4450  0031FA  0E90               	movlw	low I2C_LCD_SetCursor@row_offsets
  4451  0031FC  24F3               	addwf	prodl,w,c
  4452  0031FE  6ED9               	movwf	fsr2l,c
  4453  003200  0E00               	movlw	high I2C_LCD_SetCursor@row_offsets
  4454  003202  20F4               	addwfc	prodh,w,c
  4455  003204  6EDA               	movwf	fsr2h,c
  4456  003206  50DF               	movf	indf2,w,c
  4457  003208  0100               	movlb	0	; () banked
  4458  00320A  2592               	addwf	I2C_LCD_SetCursor@col& (0+255),w,b
  4459  00320C  0980               	iorlw	128
  4460  00320E  EC15  F018         	call	_I2C_LCD_Command
  4461  003212  0012               	return		;funcret
  4462  003214                     __end_of_I2C_LCD_SetCursor:
  4463                           	opt stack 0
  4464                           tblptru	equ	0xFF8
  4465                           tblptrh	equ	0xFF7
  4466                           tblptrl	equ	0xFF6
  4467                           tablat	equ	0xFF5
  4468                           prodh	equ	0xFF4
  4469                           prodl	equ	0xFF3
  4470                           intcon	equ	0xFF2
  4471                           intcon2	equ	0xFF1
  4472                           postinc0	equ	0xFEE
  4473                           wreg	equ	0xFE8
  4474                           indf1	equ	0xFE7
  4475                           fsr1h	equ	0xFE2
  4476                           fsr1l	equ	0xFE1
  4477                           indf2	equ	0xFDF
  4478                           postinc2	equ	0xFDE
  4479                           postdec2	equ	0xFDD
  4480                           plusw2	equ	0xFDB
  4481                           fsr2h	equ	0xFDA
  4482                           fsr2l	equ	0xFD9
  4483                           status	equ	0xFD8
  4484                           
  4485 ;; *************** function _I2C_LCD_Command *****************
  4486 ;; Defined at:
  4487 ;;		line 94 in file "../My_header\My_I2C.h"
  4488 ;; Parameters:    Size  Location     Type
  4489 ;;  c               1    wreg     unsigned char 
  4490 ;; Auto vars:     Size  Location     Type
  4491 ;;  c               1    4[BANK0 ] unsigned char 
  4492 ;;  ans             1    5[BANK0 ] unsigned char 
  4493 ;; Return value:  Size  Location     Type
  4494 ;;		None               void
  4495 ;; Registers used:
  4496 ;;		wreg, status,2, status,0, cstack
  4497 ;; Tracked objects:
  4498 ;;		On entry : 0/0
  4499 ;;		On exit  : 0/0
  4500 ;;		Unchanged: 0/0
  4501 ;; Data sizes:     COMRAM   BANK0   BANK1   BANK2   BANK3   BANK4   BANK5   BANK6   BANK7   BANK8   BANK9  BANK10  BANK1
      +1  BANK12  BANK13  BANK14
  4502 ;;      Params:         0       0       0       0       0       0       0       0       0       0       0       0       
      +0       0       0       0
  4503 ;;      Locals:         0       2       0       0       0       0       0       0       0       0       0       0       
      +0       0       0       0
  4504 ;;      Temps:          0       0       0       0       0       0       0       0       0       0       0       0       
      +0       0       0       0
  4505 ;;      Totals:         0       2       0       0       0       0       0       0       0       0       0       0       
      +0       0       0       0
  4506 ;;Total ram usage:        2 bytes
  4507 ;; Hardware stack levels used:    1
  4508 ;; Hardware stack levels required when called:   12
  4509 ;; This function calls:
  4510 ;;		_I2C_Send
  4511 ;;		_I2C_Start
  4512 ;;		_I2C_Stop
  4513 ;; This function is called by:
  4514 ;;		_I2C_LCD_Clear
  4515 ;;		_I2C_LCD_SetCursor
  4516 ;;		_I2C_LCD_init
  4517 ;; This function uses a non-reentrant model
  4518 ;;
  4519                           
  4520                           	psect	text25
  4521  00302A                     __ptext25:
  4522                           	opt stack 0
  4523  00302A                     _I2C_LCD_Command:
  4524                           	opt stack 16
  4525                           
  4526                           ;incstack = 0
  4527                           ;I2C_LCD_Command@c stored from wreg
  4528  00302A  0100               	movlb	0	; () banked
  4529  00302C  6F8D               	movwf	I2C_LCD_Command@c& (0+255),b
  4530                           
  4531                           ; BSR set to: 0
  4532                           ;My_header\My_I2C.h: 95: uint8_t ans;
  4533                           ;My_header\My_I2C.h: 97: ans = I2C_Start(0x3E, 0);
  4534  00302E  0E00               	movlw	0
  4535  003030  0100               	movlb	0	; () banked
  4536  003032  6F8B               	movwf	I2C_Start@rw& (0+255),b
  4537  003034  0E3E               	movlw	62
  4538  003036  EC4C  F018         	call	_I2C_Start
  4539  00303A  0100               	movlb	0	; () banked
  4540  00303C  6F8E               	movwf	I2C_LCD_Command@ans& (0+255),b
  4541                           
  4542                           ; BSR set to: 0
  4543                           ;My_header\My_I2C.h: 98: if (ans == 0) {
  4544  00303E  0100               	movlb	0	; () banked
  4545  003040  518E               	movf	I2C_LCD_Command@ans& (0+255),w,b
  4546  003042  0100               	movlb	0	; () banked
  4547  003044  A4D8               	btfss	status,2,c
  4548  003046  D007               	goto	l311
  4549                           
  4550                           ; BSR set to: 0
  4551                           ;My_header\My_I2C.h: 100: I2C_Send(0b10000000);
  4552  003048  0E80               	movlw	128
  4553  00304A  EC77  F019         	call	_I2C_Send
  4554                           
  4555                           ;My_header\My_I2C.h: 101: I2C_Send(c);
  4556  00304E  0100               	movlb	0	; () banked
  4557  003050  518D               	movf	I2C_LCD_Command@c& (0+255),w,b
  4558  003052  EC77  F019         	call	_I2C_Send
  4559  003056                     l311:
  4560                           
  4561                           ;My_header\My_I2C.h: 102: }
  4562                           ;My_header\My_I2C.h: 103: I2C_Stop();
  4563  003056  ECA0  F019         	call	_I2C_Stop	;wreg free
  4564                           
  4565                           ;My_header\My_I2C.h: 104: _delay((unsigned long)((26)*(48000000/4000000.0)));
  4566  00305A  0E68               	movlw	104
  4567  00305C                     u6427:
  4568  00305C  2EE8               	decfsz	wreg,f,c
  4569  00305E  D7FE               	goto	u6427
  4570  003060  0012               	return		;funcret
  4571  003062                     __end_of_I2C_LCD_Command:
  4572                           	opt stack 0
  4573                           tblptru	equ	0xFF8
  4574                           tblptrh	equ	0xFF7
  4575                           tblptrl	equ	0xFF6
  4576                           tablat	equ	0xFF5
  4577                           prodh	equ	0xFF4
  4578                           prodl	equ	0xFF3
  4579                           intcon	equ	0xFF2
  4580                           intcon2	equ	0xFF1
  4581                           postinc0	equ	0xFEE
  4582                           wreg	equ	0xFE8
  4583                           indf1	equ	0xFE7
  4584                           fsr1h	equ	0xFE2
  4585                           fsr1l	equ	0xFE1
  4586                           indf2	equ	0xFDF
  4587                           postinc2	equ	0xFDE
  4588                           postdec2	equ	0xFDD
  4589                           plusw2	equ	0xFDB
  4590                           fsr2h	equ	0xFDA
  4591                           fsr2l	equ	0xFD9
  4592                           status	equ	0xFD8
  4593                           
  4594 ;; *************** function _I2C_LCD_Puts *****************
  4595 ;; Defined at:
  4596 ;;		line 131 in file "../My_header\My_I2C.h"
  4597 ;; Parameters:    Size  Location     Type
  4598 ;;  s               2    4[BANK0 ] PTR const unsigned char 
  4599 ;;		 -> STR_3(6), STR_2(6), weekday_3char(28), STR_1(3), 
  4600 ;;		 -> display_dec@str(10), 
  4601 ;; Auto vars:     Size  Location     Type
  4602 ;;  ans             2    7[BANK0 ] int 
  4603 ;; Return value:  Size  Location     Type
  4604 ;;		None               void
  4605 ;; Registers used:
  4606 ;;		wreg, fsr0l, fsr0h, status,2, status,0, tblptrl, tblptrh, tblptru, cstack
  4607 ;; Tracked objects:
  4608 ;;		On entry : 0/0
  4609 ;;		On exit  : 0/0
  4610 ;;		Unchanged: 0/0
  4611 ;; Data sizes:     COMRAM   BANK0   BANK1   BANK2   BANK3   BANK4   BANK5   BANK6   BANK7   BANK8   BANK9  BANK10  BANK1
      +1  BANK12  BANK13  BANK14
  4612 ;;      Params:         0       2       0       0       0       0       0       0       0       0       0       0       
      +0       0       0       0
  4613 ;;      Locals:         0       2       0       0       0       0       0       0       0       0       0       0       
      +0       0       0       0
  4614 ;;      Temps:          0       1       0       0       0       0       0       0       0       0       0       0       
      +0       0       0       0
  4615 ;;      Totals:         0       5       0       0       0       0       0       0       0       0       0       0       
      +0       0       0       0
  4616 ;;Total ram usage:        5 bytes
  4617 ;; Hardware stack levels used:    1
  4618 ;; Hardware stack levels required when called:   12
  4619 ;; This function calls:
  4620 ;;		_I2C_Send
  4621 ;;		_I2C_Start
  4622 ;;		_I2C_Stop
  4623 ;; This function is called by:
  4624 ;;		_main
  4625 ;;		_display_dec
  4626 ;;		_display_time_0802
  4627 ;;		_display_time_1602
  4628 ;; This function uses a non-reentrant model
  4629 ;;
  4630                           
  4631                           	psect	text26
  4632  002B0C                     __ptext26:
  4633                           	opt stack 0
  4634  002B0C                     _I2C_LCD_Puts:
  4635                           	opt stack 18
  4636                           
  4637                           ;My_header\My_I2C.h: 132: int ans;
  4638                           ;My_header\My_I2C.h: 134: ans = I2C_Start(0x3E, 0);
  4639                           
  4640                           ;incstack = 0
  4641  002B0C  0E00               	movlw	0
  4642  002B0E  0100               	movlb	0	; () banked
  4643  002B10  6F8B               	movwf	I2C_Start@rw& (0+255),b
  4644  002B12  0E3E               	movlw	62
  4645  002B14  EC4C  F018         	call	_I2C_Start
  4646  002B18  0100               	movlb	0	; () banked
  4647  002B1A  6F8F               	movwf	??_I2C_LCD_Puts& (0+255),b
  4648  002B1C  0100               	movlb	0	; () banked
  4649  002B1E  518F               	movf	??_I2C_LCD_Puts& (0+255),w,b
  4650  002B20  0100               	movlb	0	; () banked
  4651  002B22  6F90               	movwf	I2C_LCD_Puts@ans& (0+255),b
  4652  002B24  6B91               	clrf	(I2C_LCD_Puts@ans+1)& (0+255),b
  4653                           
  4654                           ; BSR set to: 0
  4655                           ;My_header\My_I2C.h: 135: if (ans == 0) {
  4656  002B26  0100               	movlb	0	; () banked
  4657  002B28  5190               	movf	I2C_LCD_Puts@ans& (0+255),w,b
  4658  002B2A  0100               	movlb	0	; () banked
  4659  002B2C  1191               	iorwf	(I2C_LCD_Puts@ans+1)& (0+255),w,b
  4660  002B2E  A4D8               	btfss	status,2,c
  4661  002B30  D034               	goto	l6684
  4662                           
  4663                           ; BSR set to: 0
  4664                           ;My_header\My_I2C.h: 136: I2C_Send(0b01000000);
  4665  002B32  0E40               	movlw	64
  4666  002B34  EC77  F019         	call	_I2C_Send
  4667                           
  4668                           ;My_header\My_I2C.h: 137: while (*s) {
  4669  002B38  D01A               	goto	l6682
  4670  002B3A                     l6676:
  4671                           
  4672                           ;My_header\My_I2C.h: 138: I2C_Send(*s++);
  4673  002B3A  C08D  FFF6         	movff	I2C_LCD_Puts@s,tblptrl
  4674  002B3E  C08E  FFF7         	movff	I2C_LCD_Puts@s+1,tblptrh
  4675  002B42  0E00               	movlw	low (__smallconst shr (0+16))
  4676  002B44  6EF8               	movwf	tblptru,c
  4677  002B46  0E0E               	movlw	(high __ramtop+-1)
  4678  002B48  64F7               	cpfsgt	tblptrh,c
  4679  002B4A  D003               	bra	u6207
  4680  002B4C  0008               	tblrd		*
  4681  002B4E  50F5               	movf	tablat,w,c
  4682  002B50  D005               	bra	u6200
  4683  002B52                     u6207:
  4684  002B52  CFF6 FFE9          	movff	tblptrl,fsr0l
  4685  002B56  CFF7 FFEA          	movff	tblptrh,fsr0h
  4686  002B5A  50EF               	movf	indf0,w,c
  4687  002B5C                     u6200:
  4688  002B5C  EC77  F019         	call	_I2C_Send
  4689  002B60  0100               	movlb	0	; () banked
  4690  002B62  4B8D               	infsnz	I2C_LCD_Puts@s& (0+255),f,b
  4691  002B64  2B8E               	incf	(I2C_LCD_Puts@s+1)& (0+255),f,b
  4692                           
  4693                           ; BSR set to: 0
  4694                           ;My_header\My_I2C.h: 139: _delay((unsigned long)((26)*(48000000/4000000.0)));
  4695  002B66  0E68               	movlw	104
  4696  002B68                     u6437:
  4697  002B68  2EE8               	decfsz	wreg,f,c
  4698  002B6A  D7FE               	goto	u6437
  4699  002B6C  D000               	goto	l6682
  4700  002B6E                     l6682:
  4701  002B6E  C08D  FFF6         	movff	I2C_LCD_Puts@s,tblptrl
  4702  002B72  C08E  FFF7         	movff	I2C_LCD_Puts@s+1,tblptrh
  4703  002B76  0E00               	movlw	low (__smallconst shr (0+16))
  4704  002B78  6EF8               	movwf	tblptru,c
  4705  002B7A  0E0E               	movlw	(high __ramtop+-1)
  4706  002B7C  64F7               	cpfsgt	tblptrh,c
  4707  002B7E  D003               	bra	u6217
  4708  002B80  0008               	tblrd		*
  4709  002B82  50F5               	movf	tablat,w,c
  4710  002B84  D005               	bra	u6210
  4711  002B86                     u6217:
  4712  002B86  CFF6 FFE9          	movff	tblptrl,fsr0l
  4713  002B8A  CFF7 FFEA          	movff	tblptrh,fsr0h
  4714  002B8E  50EF               	movf	indf0,w,c
  4715  002B90                     u6210:
  4716  002B90  0900               	iorlw	0
  4717  002B92  B4D8               	btfsc	status,2,c
  4718  002B94  D002               	goto	l6684
  4719  002B96  D7D1               	goto	l6676
  4720  002B98  D000               	goto	l6684
  4721  002B9A                     l6684:
  4722                           
  4723                           ;My_header\My_I2C.h: 140: }
  4724                           ;My_header\My_I2C.h: 141: }
  4725                           ;My_header\My_I2C.h: 142: I2C_Stop();
  4726  002B9A  ECA0  F019         	call	_I2C_Stop	;wreg free
  4727  002B9E  0012               	return		;funcret
  4728  002BA0                     __end_of_I2C_LCD_Puts:
  4729                           	opt stack 0
  4730                           tblptru	equ	0xFF8
  4731                           tblptrh	equ	0xFF7
  4732                           tblptrl	equ	0xFF6
  4733                           tablat	equ	0xFF5
  4734                           prodh	equ	0xFF4
  4735                           prodl	equ	0xFF3
  4736                           intcon	equ	0xFF2
  4737                           intcon2	equ	0xFF1
  4738                           indf0	equ	0xFEF
  4739                           postinc0	equ	0xFEE
  4740                           fsr0h	equ	0xFEA
  4741                           fsr0l	equ	0xFE9
  4742                           wreg	equ	0xFE8
  4743                           indf1	equ	0xFE7
  4744                           fsr1h	equ	0xFE2
  4745                           fsr1l	equ	0xFE1
  4746                           indf2	equ	0xFDF
  4747                           postinc2	equ	0xFDE
  4748                           postdec2	equ	0xFDD
  4749                           plusw2	equ	0xFDB
  4750                           fsr2h	equ	0xFDA
  4751                           fsr2l	equ	0xFD9
  4752                           status	equ	0xFD8
  4753                           
  4754 ;; *************** function _I2C_Stop *****************
  4755 ;; Defined at:
  4756 ;;		line 59 in file "../My_header\My_I2C.h"
  4757 ;; Parameters:    Size  Location     Type
  4758 ;;		None
  4759 ;; Auto vars:     Size  Location     Type
  4760 ;;		None
  4761 ;; Return value:  Size  Location     Type
  4762 ;;		None               void
  4763 ;; Registers used:
  4764 ;;		wreg, status,2, status,0, cstack
  4765 ;; Tracked objects:
  4766 ;;		On entry : 0/0
  4767 ;;		On exit  : 0/0
  4768 ;;		Unchanged: 0/0
  4769 ;; Data sizes:     COMRAM   BANK0   BANK1   BANK2   BANK3   BANK4   BANK5   BANK6   BANK7   BANK8   BANK9  BANK10  BANK1
      +1  BANK12  BANK13  BANK14
  4770 ;;      Params:         0       0       0       0       0       0       0       0       0       0       0       0       
      +0       0       0       0
  4771 ;;      Locals:         0       0       0       0       0       0       0       0       0       0       0       0       
      +0       0       0       0
  4772 ;;      Temps:          0       0       0       0       0       0       0       0       0       0       0       0       
      +0       0       0       0
  4773 ;;      Totals:         0       0       0       0       0       0       0       0       0       0       0       0       
      +0       0       0       0
  4774 ;;Total ram usage:        0 bytes
  4775 ;; Hardware stack levels used:    1
  4776 ;; Hardware stack levels required when called:   11
  4777 ;; This function calls:
  4778 ;;		_I2C_IdleCheck
  4779 ;; This function is called by:
  4780 ;;		_I2C_LCD_Command
  4781 ;;		_I2C_LCD_Puts
  4782 ;;		_I2C_LCD_Putc
  4783 ;;		_I2C_LCD_CreateChar
  4784 ;; This function uses a non-reentrant model
  4785 ;;
  4786                           
  4787                           	psect	text27
  4788  003340                     __ptext27:
  4789                           	opt stack 0
  4790  003340                     _I2C_Stop:
  4791                           	opt stack 16
  4792                           
  4793                           ;My_header\My_I2C.h: 61: I2C_IdleCheck(0x5);
  4794                           
  4795                           ;incstack = 0
  4796  003340  0E05               	movlw	5
  4797  003342  EC58  F019         	call	_I2C_IdleCheck
  4798                           
  4799                           ;My_header\My_I2C.h: 62: SSP1CON2bits.PEN = 1;
  4800  003346  84C5               	bsf	4037,2,c	;volatile
  4801  003348  0012               	return		;funcret
  4802  00334A                     __end_of_I2C_Stop:
  4803                           	opt stack 0
  4804                           tblptru	equ	0xFF8
  4805                           tblptrh	equ	0xFF7
  4806                           tblptrl	equ	0xFF6
  4807                           tablat	equ	0xFF5
  4808                           prodh	equ	0xFF4
  4809                           prodl	equ	0xFF3
  4810                           intcon	equ	0xFF2
  4811                           intcon2	equ	0xFF1
  4812                           indf0	equ	0xFEF
  4813                           postinc0	equ	0xFEE
  4814                           fsr0h	equ	0xFEA
  4815                           fsr0l	equ	0xFE9
  4816                           wreg	equ	0xFE8
  4817                           indf1	equ	0xFE7
  4818                           fsr1h	equ	0xFE2
  4819                           fsr1l	equ	0xFE1
  4820                           indf2	equ	0xFDF
  4821                           postinc2	equ	0xFDE
  4822                           postdec2	equ	0xFDD
  4823                           plusw2	equ	0xFDB
  4824                           fsr2h	equ	0xFDA
  4825                           fsr2l	equ	0xFD9
  4826                           status	equ	0xFD8
  4827                           
  4828 ;; *************** function _I2C_Start *****************
  4829 ;; Defined at:
  4830 ;;		line 35 in file "../My_header\My_I2C.h"
  4831 ;; Parameters:    Size  Location     Type
  4832 ;;  adrs            1    wreg     unsigned char 
  4833 ;;  rw              1    2[BANK0 ] unsigned char 
  4834 ;; Auto vars:     Size  Location     Type
  4835 ;;  adrs            1    3[BANK0 ] unsigned char 
  4836 ;; Return value:  Size  Location     Type
  4837 ;;                  1    wreg      unsigned char 
  4838 ;; Registers used:
  4839 ;;		wreg, status,2, status,0, cstack
  4840 ;; Tracked objects:
  4841 ;;		On entry : 0/0
  4842 ;;		On exit  : 0/0
  4843 ;;		Unchanged: 0/0
  4844 ;; Data sizes:     COMRAM   BANK0   BANK1   BANK2   BANK3   BANK4   BANK5   BANK6   BANK7   BANK8   BANK9  BANK10  BANK1
      +1  BANK12  BANK13  BANK14
  4845 ;;      Params:         0       1       0       0       0       0       0       0       0       0       0       0       
      +0       0       0       0
  4846 ;;      Locals:         0       1       0       0       0       0       0       0       0       0       0       0       
      +0       0       0       0
  4847 ;;      Temps:          0       0       0       0       0       0       0       0       0       0       0       0       
      +0       0       0       0
  4848 ;;      Totals:         0       2       0       0       0       0       0       0       0       0       0       0       
      +0       0       0       0
  4849 ;;Total ram usage:        2 bytes
  4850 ;; Hardware stack levels used:    1
  4851 ;; Hardware stack levels required when called:   11
  4852 ;; This function calls:
  4853 ;;		_I2C_IdleCheck
  4854 ;; This function is called by:
  4855 ;;		_I2C_LCD_Command
  4856 ;;		_I2C_LCD_Puts
  4857 ;;		_I2C_LCD_Putc
  4858 ;;		_I2C_LCD_CreateChar
  4859 ;; This function uses a non-reentrant model
  4860 ;;
  4861                           
  4862                           	psect	text28
  4863  003098                     __ptext28:
  4864                           	opt stack 0
  4865  003098                     _I2C_Start:
  4866                           	opt stack 16
  4867                           
  4868                           ;incstack = 0
  4869                           ;I2C_Start@adrs stored from wreg
  4870  003098  0100               	movlb	0	; () banked
  4871  00309A  6F8C               	movwf	I2C_Start@adrs& (0+255),b
  4872                           
  4873                           ; BSR set to: 0
  4874                           ;My_header\My_I2C.h: 37: I2C_IdleCheck(0x5);
  4875  00309C  0E05               	movlw	5
  4876  00309E  EC58  F019         	call	_I2C_IdleCheck
  4877                           
  4878                           ;My_header\My_I2C.h: 38: SSP1CON2bits.SEN = 1;
  4879  0030A2  80C5               	bsf	4037,0,c	;volatile
  4880                           
  4881                           ;My_header\My_I2C.h: 40: I2C_IdleCheck(0x5);
  4882  0030A4  0E05               	movlw	5
  4883  0030A6  EC58  F019         	call	_I2C_IdleCheck
  4884                           
  4885                           ;My_header\My_I2C.h: 41: SSP1IF = 0;
  4886  0030AA  969E               	bcf	3998,3,c	;volatile
  4887                           
  4888                           ;My_header\My_I2C.h: 42: SSP1BUF = (uint8_t) ((adrs << 1) + rw);
  4889  0030AC  0100               	movlb	0	; () banked
  4890  0030AE  518C               	movf	I2C_Start@adrs& (0+255),w,b
  4891  0030B0  258C               	addwf	I2C_Start@adrs& (0+255),w,b
  4892  0030B2  0100               	movlb	0	; () banked
  4893  0030B4  258B               	addwf	I2C_Start@rw& (0+255),w,b
  4894  0030B6  6EC9               	movwf	4041,c	;volatile
  4895                           
  4896                           ;My_header\My_I2C.h: 43: while (!SSP1IF);
  4897  0030B8  D000               	goto	l287
  4898  0030BA                     l287:
  4899                           
  4900                           ; BSR set to: 0
  4901  0030BA  A69E               	btfss	3998,3,c	;volatile
  4902  0030BC  D7FE               	goto	l287
  4903                           
  4904                           ; BSR set to: 0
  4905                           ;My_header\My_I2C.h: 44: return SSP1CON2bits.ACKSTAT;
  4906                           
  4907                           ; BSR set to: 0
  4908  0030BE  ACC5               	btfss	4037,6,c	;volatile
  4909  0030C0  D002               	goto	u5790
  4910  0030C2  0E01               	movlw	1
  4911  0030C4  0012               	return	
  4912  0030C6                     u5790:
  4913  0030C6  0E00               	movlw	0
  4914  0030C8  0012               	return	
  4915                           
  4916                           ; BSR set to: 0
  4917                           
  4918                           ; BSR set to: 0
  4919  0030CA  0012               	return		;funcret
  4920  0030CC                     __end_of_I2C_Start:
  4921                           	opt stack 0
  4922                           tblptru	equ	0xFF8
  4923                           tblptrh	equ	0xFF7
  4924                           tblptrl	equ	0xFF6
  4925                           tablat	equ	0xFF5
  4926                           prodh	equ	0xFF4
  4927                           prodl	equ	0xFF3
  4928                           intcon	equ	0xFF2
  4929                           intcon2	equ	0xFF1
  4930                           indf0	equ	0xFEF
  4931                           postinc0	equ	0xFEE
  4932                           fsr0h	equ	0xFEA
  4933                           fsr0l	equ	0xFE9
  4934                           wreg	equ	0xFE8
  4935                           indf1	equ	0xFE7
  4936                           fsr1h	equ	0xFE2
  4937                           fsr1l	equ	0xFE1
  4938                           indf2	equ	0xFDF
  4939                           postinc2	equ	0xFDE
  4940                           postdec2	equ	0xFDD
  4941                           plusw2	equ	0xFDB
  4942                           fsr2h	equ	0xFDA
  4943                           fsr2l	equ	0xFD9
  4944                           status	equ	0xFD8
  4945                           
  4946 ;; *************** function _I2C_Send *****************
  4947 ;; Defined at:
  4948 ;;		line 65 in file "../My_header\My_I2C.h"
  4949 ;; Parameters:    Size  Location     Type
  4950 ;;  data            1    wreg     unsigned char 
  4951 ;; Auto vars:     Size  Location     Type
  4952 ;;  data            1    2[BANK0 ] unsigned char 
  4953 ;; Return value:  Size  Location     Type
  4954 ;;                  1    wreg      unsigned char 
  4955 ;; Registers used:
  4956 ;;		wreg, status,2, status,0, cstack
  4957 ;; Tracked objects:
  4958 ;;		On entry : 0/0
  4959 ;;		On exit  : 0/0
  4960 ;;		Unchanged: 0/0
  4961 ;; Data sizes:     COMRAM   BANK0   BANK1   BANK2   BANK3   BANK4   BANK5   BANK6   BANK7   BANK8   BANK9  BANK10  BANK1
      +1  BANK12  BANK13  BANK14
  4962 ;;      Params:         0       0       0       0       0       0       0       0       0       0       0       0       
      +0       0       0       0
  4963 ;;      Locals:         0       1       0       0       0       0       0       0       0       0       0       0       
      +0       0       0       0
  4964 ;;      Temps:          0       0       0       0       0       0       0       0       0       0       0       0       
      +0       0       0       0
  4965 ;;      Totals:         0       1       0       0       0       0       0       0       0       0       0       0       
      +0       0       0       0
  4966 ;;Total ram usage:        1 bytes
  4967 ;; Hardware stack levels used:    1
  4968 ;; Hardware stack levels required when called:   11
  4969 ;; This function calls:
  4970 ;;		_I2C_IdleCheck
  4971 ;; This function is called by:
  4972 ;;		_I2C_LCD_Command
  4973 ;;		_I2C_LCD_Puts
  4974 ;;		_I2C_LCD_Putc
  4975 ;;		_I2C_LCD_CreateChar
  4976 ;; This function uses a non-reentrant model
  4977 ;;
  4978                           
  4979                           	psect	text29
  4980  0032EE                     __ptext29:
  4981                           	opt stack 0
  4982  0032EE                     _I2C_Send:
  4983                           	opt stack 16
  4984                           
  4985                           ; BSR set to: 0
  4986                           ;incstack = 0
  4987                           ;I2C_Send@data stored from wreg
  4988  0032EE  0100               	movlb	0	; () banked
  4989  0032F0  6F8B               	movwf	I2C_Send@data& (0+255),b
  4990                           
  4991                           ; BSR set to: 0
  4992                           ;My_header\My_I2C.h: 66: I2C_IdleCheck(0x5);
  4993  0032F2  0E05               	movlw	5
  4994  0032F4  EC58  F019         	call	_I2C_IdleCheck
  4995                           
  4996                           ;My_header\My_I2C.h: 67: SSP1IF = 0;
  4997  0032F8  969E               	bcf	3998,3,c	;volatile
  4998                           
  4999                           ;My_header\My_I2C.h: 68: SSP1BUF = data;
  5000  0032FA  C08B  FFC9         	movff	I2C_Send@data,4041	;volatile
  5001                           
  5002                           ;My_header\My_I2C.h: 69: while (!SSP1IF);
  5003  0032FE  D000               	goto	l302
  5004  003300                     l302:
  5005  003300  A69E               	btfss	3998,3,c	;volatile
  5006  003302  D7FE               	goto	l302
  5007                           
  5008                           ;My_header\My_I2C.h: 70: return SSP1CON2bits.ACKSTAT;
  5009                           ;	Return value of _I2C_Send is never used
  5010  003304  50C5               	movf	4037,w,c	;volatile
  5011  003306  0012               	return	
  5012  003308  0012               	return		;funcret
  5013  00330A                     __end_of_I2C_Send:
  5014                           	opt stack 0
  5015                           tblptru	equ	0xFF8
  5016                           tblptrh	equ	0xFF7
  5017                           tblptrl	equ	0xFF6
  5018                           tablat	equ	0xFF5
  5019                           prodh	equ	0xFF4
  5020                           prodl	equ	0xFF3
  5021                           intcon	equ	0xFF2
  5022                           intcon2	equ	0xFF1
  5023                           indf0	equ	0xFEF
  5024                           postinc0	equ	0xFEE
  5025                           fsr0h	equ	0xFEA
  5026                           fsr0l	equ	0xFE9
  5027                           wreg	equ	0xFE8
  5028                           indf1	equ	0xFE7
  5029                           fsr1h	equ	0xFE2
  5030                           fsr1l	equ	0xFE1
  5031                           indf2	equ	0xFDF
  5032                           postinc2	equ	0xFDE
  5033                           postdec2	equ	0xFDD
  5034                           plusw2	equ	0xFDB
  5035                           fsr2h	equ	0xFDA
  5036                           fsr2l	equ	0xFD9
  5037                           status	equ	0xFD8
  5038                           
  5039 ;; *************** function _I2C_IdleCheck *****************
  5040 ;; Defined at:
  5041 ;;		line 21 in file "../My_header\My_I2C.h"
  5042 ;; Parameters:    Size  Location     Type
  5043 ;;  mask            1    wreg     unsigned char 
  5044 ;; Auto vars:     Size  Location     Type
  5045 ;;  mask            1    1[BANK0 ] unsigned char 
  5046 ;; Return value:  Size  Location     Type
  5047 ;;		None               void
  5048 ;; Registers used:
  5049 ;;		wreg, status,2, status,0
  5050 ;; Tracked objects:
  5051 ;;		On entry : 0/0
  5052 ;;		On exit  : 0/0
  5053 ;;		Unchanged: 0/0
  5054 ;; Data sizes:     COMRAM   BANK0   BANK1   BANK2   BANK3   BANK4   BANK5   BANK6   BANK7   BANK8   BANK9  BANK10  BANK1
      +1  BANK12  BANK13  BANK14
  5055 ;;      Params:         0       0       0       0       0       0       0       0       0       0       0       0       
      +0       0       0       0
  5056 ;;      Locals:         0       1       0       0       0       0       0       0       0       0       0       0       
      +0       0       0       0
  5057 ;;      Temps:          0       1       0       0       0       0       0       0       0       0       0       0       
      +0       0       0       0
  5058 ;;      Totals:         0       2       0       0       0       0       0       0       0       0       0       0       
      +0       0       0       0
  5059 ;;Total ram usage:        2 bytes
  5060 ;; Hardware stack levels used:    1
  5061 ;; Hardware stack levels required when called:   10
  5062 ;; This function calls:
  5063 ;;		Nothing
  5064 ;; This function is called by:
  5065 ;;		_I2C_Start
  5066 ;;		_I2C_Stop
  5067 ;;		_I2C_Send
  5068 ;;		_I2C_rStart
  5069 ;;		_I2C_Receive
  5070 ;; This function uses a non-reentrant model
  5071 ;;
  5072                           
  5073                           	psect	text30
  5074  0032B0                     __ptext30:
  5075                           	opt stack 0
  5076  0032B0                     _I2C_IdleCheck:
  5077                           	opt stack 16
  5078                           
  5079                           ;incstack = 0
  5080                           ;I2C_IdleCheck@mask stored from wreg
  5081  0032B0  0100               	movlb	0	; () banked
  5082  0032B2  6F8A               	movwf	I2C_IdleCheck@mask& (0+255),b
  5083                           
  5084                           ; BSR set to: 0
  5085                           
  5086                           ; BSR set to: 0
  5087                           ;My_header\My_I2C.h: 22: while ((SSP1CON2 & 0x1F) | (SSP1STAT & mask));
  5088  0032B4  D000               	goto	l6264
  5089  0032B6                     l6264:
  5090                           
  5091                           ; BSR set to: 0
  5092  0032B6  50C7               	movf	4039,w,c	;volatile
  5093  0032B8  0100               	movlb	0	; () banked
  5094  0032BA  158A               	andwf	I2C_IdleCheck@mask& (0+255),w,b
  5095  0032BC  0100               	movlb	0	; () banked
  5096  0032BE  6F89               	movwf	??_I2C_IdleCheck& (0+255),b
  5097  0032C0  50C5               	movf	4037,w,c	;volatile
  5098  0032C2  0B1F               	andlw	31
  5099  0032C4  0100               	movlb	0	; () banked
  5100  0032C6  1189               	iorwf	??_I2C_IdleCheck& (0+255),w,b
  5101  0032C8  0900               	iorlw	0
  5102  0032CA  A4D8               	btfss	status,2,c
  5103  0032CC  D7F4               	goto	l6264
  5104                           
  5105                           ; BSR set to: 0
  5106                           
  5107                           ; BSR set to: 0
  5108  0032CE  0012               	return		;funcret
  5109  0032D0                     __end_of_I2C_IdleCheck:
  5110                           	opt stack 0
  5111                           tblptru	equ	0xFF8
  5112                           tblptrh	equ	0xFF7
  5113                           tblptrl	equ	0xFF6
  5114                           tablat	equ	0xFF5
  5115                           prodh	equ	0xFF4
  5116                           prodl	equ	0xFF3
  5117                           intcon	equ	0xFF2
  5118                           intcon2	equ	0xFF1
  5119                           indf0	equ	0xFEF
  5120                           postinc0	equ	0xFEE
  5121                           fsr0h	equ	0xFEA
  5122                           fsr0l	equ	0xFE9
  5123                           wreg	equ	0xFE8
  5124                           indf1	equ	0xFE7
  5125                           fsr1h	equ	0xFE2
  5126                           fsr1l	equ	0xFE1
  5127                           indf2	equ	0xFDF
  5128                           postinc2	equ	0xFDE
  5129                           postdec2	equ	0xFDD
  5130                           plusw2	equ	0xFDB
  5131                           fsr2h	equ	0xFDA
  5132                           fsr2l	equ	0xFD9
  5133                           status	equ	0xFD8
  5134                           
  5135 ;; *************** function _ISR *****************
  5136 ;; Defined at:
  5137 ;;		line 36 in file "PIC18F27J53-USB03.c"
  5138 ;; Parameters:    Size  Location     Type
  5139 ;;		None
  5140 ;; Auto vars:     Size  Location     Type
  5141 ;;		None
  5142 ;; Return value:  Size  Location     Type
  5143 ;;		None               void
  5144 ;; Registers used:
  5145 ;;		wreg, fsr0l, fsr0h, fsr1l, fsr1h, fsr2l, fsr2h, status,2, status,0, tblptrl, tblptrh, tblptru, prodl, prodh, cstack
  5146 ;; Tracked objects:
  5147 ;;		On entry : 0/0
  5148 ;;		On exit  : 0/0
  5149 ;;		Unchanged: 0/0
  5150 ;; Data sizes:     COMRAM   BANK0   BANK1   BANK2   BANK3   BANK4   BANK5   BANK6   BANK7   BANK8   BANK9  BANK10  BANK1
      +1  BANK12  BANK13  BANK14
  5151 ;;      Params:         0       0       0       0       0       0       0       0       0       0       0       0       
      +0       0       0       0
  5152 ;;      Locals:         0       0       0       0       0       0       0       0       0       0       0       0       
      +0       0       0       0
  5153 ;;      Temps:         14       0       0       0       0       0       0       0       0       0       0       0       
      +0       0       0       0
  5154 ;;      Totals:        14       0       0       0       0       0       0       0       0       0       0       0       
      +0       0       0       0
  5155 ;;Total ram usage:       14 bytes
  5156 ;; Hardware stack levels used:    1
  5157 ;; Hardware stack levels required when called:    9
  5158 ;; This function calls:
  5159 ;;		_UART_ISR
  5160 ;;		_USBDeviceTasks
  5161 ;; This function is called by:
  5162 ;;		Interrupt level 2
  5163 ;; This function uses a non-reentrant model
  5164 ;;
  5165                           
  5166                           	psect	intcode
  5167  001008                     __pintcode:
  5168                           	opt stack 0
  5169  001008                     _ISR:
  5170                           	opt stack 15
  5171                           
  5172                           ; BSR set to: 0
  5173                           ;incstack = 0
  5174  001008  CFFA F04B          	movff	pclath,??_ISR
  5175  00100C  CFFB F04C          	movff	pclatu,??_ISR+1
  5176  001010  CFE9 F04D          	movff	fsr0l,??_ISR+2
  5177  001014  CFEA F04E          	movff	fsr0h,??_ISR+3
  5178  001018  CFE1 F04F          	movff	fsr1l,??_ISR+4
  5179  00101C  CFE2 F050          	movff	fsr1h,??_ISR+5
  5180  001020  CFD9 F051          	movff	fsr2l,??_ISR+6
  5181  001024  CFDA F052          	movff	fsr2h,??_ISR+7
  5182  001028  CFF3 F053          	movff	prodl,??_ISR+8
  5183  00102C  CFF4 F054          	movff	prodh,??_ISR+9
  5184  001030  CFF6 F055          	movff	tblptrl,??_ISR+10
  5185  001034  CFF7 F056          	movff	tblptrh,??_ISR+11
  5186  001038  CFF8 F057          	movff	tblptru,??_ISR+12
  5187  00103C  CFF5 F058          	movff	tablat,??_ISR+13
  5188                           
  5189                           ;PIC18F27J53-USB03.c: 37: UART_ISR();
  5190  001040  EC4B  F017         	call	_UART_ISR	;wreg free
  5191                           
  5192                           ;PIC18F27J53-USB03.c: 38: USBDeviceTasks();
  5193  001044  EC15  F00B         	call	_USBDeviceTasks	;wreg free
  5194                           
  5195                           ;PIC18F27J53-USB03.c: 39: if (INTCONbits.T0IE && INTCONbits.T0IF) {
  5196  001048  BAF2               	btfsc	intcon,5,c	;volatile
  5197  00104A  A4F2               	btfss	intcon,2,c	;volatile
  5198  00104C  D001               	goto	i2l538
  5199                           
  5200                           ;PIC18F27J53-USB03.c: 40: INTCONbits.T0IF = 0;
  5201  00104E  94F2               	bcf	intcon,2,c	;volatile
  5202  001050                     i2l538:
  5203                           
  5204                           ;PIC18F27J53-USB03.c: 41: }
  5205                           ;PIC18F27J53-USB03.c: 42: if (PIE1bits.TMR1IE && PIR1bits.TMR1IF) {
  5206  001050  B09D               	btfsc	3997,0,c	;volatile
  5207  001052  A09E               	btfss	3998,0,c	;volatile
  5208  001054  D001               	goto	i2l539
  5209                           
  5210                           ;PIC18F27J53-USB03.c: 43: PIR1bits.TMR1IF = 0;
  5211  001056  909E               	bcf	3998,0,c	;volatile
  5212  001058                     i2l539:
  5213                           
  5214                           ;PIC18F27J53-USB03.c: 44: }
  5215                           ;PIC18F27J53-USB03.c: 45: if (PIE2bits.TMR3IE && PIR2bits.TMR3IF) {
  5216  001058  B2A0               	btfsc	4000,1,c	;volatile
  5217  00105A  A2A1               	btfss	4001,1,c	;volatile
  5218  00105C  D002               	goto	i2l541
  5219                           
  5220                           ;PIC18F27J53-USB03.c: 46: PIR2bits.TMR3IF = 0;
  5221  00105E  92A1               	bcf	4001,1,c	;volatile
  5222  001060  D000               	goto	i2l541
  5223  001062                     i2l541:
  5224  001062  C058  FFF5         	movff	??_ISR+13,tablat
  5225  001066  C057  FFF8         	movff	??_ISR+12,tblptru
  5226  00106A  C056  FFF7         	movff	??_ISR+11,tblptrh
  5227  00106E  C055  FFF6         	movff	??_ISR+10,tblptrl
  5228  001072  C054  FFF4         	movff	??_ISR+9,prodh
  5229  001076  C053  FFF3         	movff	??_ISR+8,prodl
  5230  00107A  C052  FFDA         	movff	??_ISR+7,fsr2h
  5231  00107E  C051  FFD9         	movff	??_ISR+6,fsr2l
  5232  001082  C050  FFE2         	movff	??_ISR+5,fsr1h
  5233  001086  C04F  FFE1         	movff	??_ISR+4,fsr1l
  5234  00108A  C04E  FFEA         	movff	??_ISR+3,fsr0h
  5235  00108E  C04D  FFE9         	movff	??_ISR+2,fsr0l
  5236  001092  C04C  FFFB         	movff	??_ISR+1,pclatu
  5237  001096  C04B  FFFA         	movff	??_ISR,pclath
  5238  00109A  0011               	retfie		f
  5239  00109C                     __end_of_ISR:
  5240                           	opt stack 0
  5241                           pclatu	equ	0xFFB
  5242                           pclath	equ	0xFFA
  5243                           tblptru	equ	0xFF8
  5244                           tblptrh	equ	0xFF7
  5245                           tblptrl	equ	0xFF6
  5246                           tablat	equ	0xFF5
  5247                           prodh	equ	0xFF4
  5248                           prodl	equ	0xFF3
  5249                           intcon	equ	0xFF2
  5250                           intcon2	equ	0xFF1
  5251                           indf0	equ	0xFEF
  5252                           postinc0	equ	0xFEE
  5253                           fsr0h	equ	0xFEA
  5254                           fsr0l	equ	0xFE9
  5255                           wreg	equ	0xFE8
  5256                           indf1	equ	0xFE7
  5257                           fsr1h	equ	0xFE2
  5258                           fsr1l	equ	0xFE1
  5259                           indf2	equ	0xFDF
  5260                           postinc2	equ	0xFDE
  5261                           postdec2	equ	0xFDD
  5262                           plusw2	equ	0xFDB
  5263                           fsr2h	equ	0xFDA
  5264                           fsr2l	equ	0xFD9
  5265                           status	equ	0xFD8
  5266                           
  5267 ;; *************** function _USBDeviceTasks *****************
  5268 ;; Defined at:
  5269 ;;		line 489 in file "../My_header/usb_cdc/usb/usb_device.c"
  5270 ;; Parameters:    Size  Location     Type
  5271 ;;		None
  5272 ;; Auto vars:     Size  Location     Type
  5273 ;;  i               1   29[COMRAM] unsigned char 
  5274 ;; Return value:  Size  Location     Type
  5275 ;;		None               void
  5276 ;; Registers used:
  5277 ;;		wreg, fsr0l, fsr0h, fsr1l, fsr1h, fsr2l, fsr2h, status,2, status,0, tblptrl, tblptrh, tblptru, prodl, prodh, cstack
  5278 ;; Tracked objects:
  5279 ;;		On entry : 0/0
  5280 ;;		On exit  : 0/0
  5281 ;;		Unchanged: 0/0
  5282 ;; Data sizes:     COMRAM   BANK0   BANK1   BANK2   BANK3   BANK4   BANK5   BANK6   BANK7   BANK8   BANK9  BANK10  BANK1
      +1  BANK12  BANK13  BANK14
  5283 ;;      Params:         0       0       0       0       0       0       0       0       0       0       0       0       
      +0       0       0       0
  5284 ;;      Locals:         1       0       0       0       0       0       0       0       0       0       0       0       
      +0       0       0       0
  5285 ;;      Temps:          0       0       0       0       0       0       0       0       0       0       0       0       
      +0       0       0       0
  5286 ;;      Totals:         1       0       0       0       0       0       0       0       0       0       0       0       
      +0       0       0       0
  5287 ;;Total ram usage:        1 bytes
  5288 ;; Hardware stack levels used:    1
  5289 ;; Hardware stack levels required when called:    8
  5290 ;; This function calls:
  5291 ;;		_USBCtrlEPAllowStatusStage
  5292 ;;		_USBCtrlEPService
  5293 ;;		_USBStallHandler
  5294 ;;		_USBSuspend
  5295 ;;		_USBWakeFromSuspend
  5296 ;;		_USER_USB_CALLBACK_EVENT_HANDLER
  5297 ;;		i2_USBDeviceInit
  5298 ;; This function is called by:
  5299 ;;		_ISR
  5300 ;;		_USB_ISR
  5301 ;; This function uses a non-reentrant model
  5302 ;;
  5303                           
  5304                           	psect	text32
  5305  00162A                     __ptext32:
  5306                           	opt stack 0
  5307  00162A                     _USBDeviceTasks:
  5308                           	opt stack 15
  5309                           
  5310                           ;usb_device.c: 491: uint8_t i;
  5311                           ;usb_device.c: 602: if(USBDeviceState == ATTACHED_STATE)
  5312                           
  5313                           ;incstack = 0
  5314  00162A  041A               	decf	_USBDeviceState,w,c	;volatile
  5315  00162C  B4D8               	btfsc	status,2,c
  5316                           
  5317                           ;usb_device.c: 603: {
  5318                           ;usb_device.c: 613: if(!UCONbits.SE0)
  5319  00162E  BA65               	btfsc	3941,5,c	;volatile
  5320  001630  D009               	goto	i2l5590
  5321                           
  5322                           ;usb_device.c: 614: {
  5323                           ;usb_device.c: 615: {UIR = 0;};
  5324  001632  0E00               	movlw	0
  5325  001634  6E62               	movwf	3938,c	;volatile
  5326                           
  5327                           ;usb_device.c: 619: UIEbits.URSTIE = 1;
  5328  001636  010F               	movlb	15	; () banked
  5329  001638  8136               	bsf	54,0,b	;volatile
  5330                           
  5331                           ; BSR set to: 15
  5332                           ;usb_device.c: 620: UIEbits.IDLEIE = 1;
  5333  00163A  010F               	movlb	15	; () banked
  5334  00163C  8936               	bsf	54,4,b	;volatile
  5335                           
  5336                           ;usb_device.c: 621: USBDeviceState = POWERED_STATE;
  5337  00163E  0E02               	movlw	2
  5338  001640  6E1A               	movwf	_USBDeviceState,c	;volatile
  5339                           
  5340                           ; BSR set to: 15
  5341  001642  D000               	goto	i2l5590
  5342  001644                     i2l5590:
  5343                           
  5344                           ;usb_device.c: 622: }
  5345                           ;usb_device.c: 623: }
  5346                           ;usb_device.c: 639: if(UIRbits.ACTVIF && UIEbits.ACTVIE)
  5347  001644  A462               	btfss	3938,2,c	;volatile
  5348  001646  D007               	goto	i2l5598
  5349  001648  010F               	movlb	15	; () banked
  5350  00164A  A536               	btfss	54,2,b	;volatile
  5351  00164C  D004               	goto	i2l5598
  5352                           
  5353                           ; BSR set to: 15
  5354                           ;usb_device.c: 640: {
  5355                           ;usb_device.c: 641: (UIR &= 0xFB);
  5356  00164E  9462               	bcf	3938,2,c	;volatile
  5357                           
  5358                           ; BSR set to: 15
  5359                           ;usb_device.c: 645: USBWakeFromSuspend();
  5360  001650  EC66  F018         	call	_USBWakeFromSuspend	;wreg free
  5361  001654  D000               	goto	i2l5598
  5362  001656                     i2l5598:
  5363                           
  5364                           ;usb_device.c: 647: }
  5365                           ;usb_device.c: 652: if(UCONbits.SUSPND==1)
  5366  001656  A265               	btfss	3941,1,c	;volatile
  5367  001658  D002               	goto	i2l759
  5368                           
  5369                           ;usb_device.c: 653: {
  5370                           ;usb_device.c: 654: {PIR2bits.USBIF = 0;};
  5371  00165A  98A1               	bcf	4001,4,c	;volatile
  5372                           
  5373                           ;usb_device.c: 655: return;
  5374  00165C  0012               	return	
  5375  00165E                     i2l759:
  5376                           
  5377                           ;usb_device.c: 656: }
  5378                           ;usb_device.c: 668: if(UIRbits.URSTIF && UIEbits.URSTIE)
  5379  00165E  A062               	btfss	3938,0,c	;volatile
  5380  001660  D00A               	goto	i2l5612
  5381  001662  010F               	movlb	15	; () banked
  5382  001664  A136               	btfss	54,0,b	;volatile
  5383  001666  D007               	goto	i2l5612
  5384                           
  5385                           ; BSR set to: 15
  5386                           ;usb_device.c: 669: {
  5387                           ;usb_device.c: 670: USBDeviceInit();
  5388  001668  EC74  F00C         	call	i2_USBDeviceInit	;wreg free
  5389                           
  5390                           ;usb_device.c: 674: {PIE2bits.USBIE = 1;};
  5391  00166C  88A0               	bsf	4000,4,c	;volatile
  5392                           
  5393                           ;usb_device.c: 676: USBDeviceState = DEFAULT_STATE;
  5394  00166E  0E04               	movlw	4
  5395  001670  6E1A               	movwf	_USBDeviceState,c	;volatile
  5396                           
  5397                           ;usb_device.c: 686: (UIR &= 0xFE);
  5398  001672  9062               	bcf	3938,0,c	;volatile
  5399  001674  D000               	goto	i2l5612
  5400  001676                     i2l5612:
  5401                           
  5402                           ;usb_device.c: 687: }
  5403                           ;usb_device.c: 692: if(UIRbits.IDLEIF && UIEbits.IDLEIE)
  5404  001676  A862               	btfss	3938,4,c	;volatile
  5405  001678  D007               	goto	i2l5620
  5406  00167A  010F               	movlb	15	; () banked
  5407  00167C  A936               	btfss	54,4,b	;volatile
  5408  00167E  D004               	goto	i2l5620
  5409                           
  5410                           ; BSR set to: 15
  5411                           ;usb_device.c: 693: {
  5412                           ;usb_device.c: 698: USBSuspend();
  5413  001680  EC0A  F019         	call	_USBSuspend	;wreg free
  5414                           
  5415                           ;usb_device.c: 701: (UIR &= 0xEF);
  5416  001684  9862               	bcf	3938,4,c	;volatile
  5417  001686  D000               	goto	i2l5620
  5418  001688                     i2l5620:
  5419                           
  5420                           ;usb_device.c: 702: }
  5421                           ;usb_device.c: 704: if(UIRbits.SOFIF)
  5422  001688  AC62               	btfss	3938,6,c	;volatile
  5423  00168A  D01E               	goto	i2l5636
  5424                           
  5425                           ;usb_device.c: 705: {
  5426                           ;usb_device.c: 706: if(UIEbits.SOFIE)
  5427  00168C  010F               	movlb	15	; () banked
  5428  00168E  AD36               	btfss	54,6,b	;volatile
  5429  001690  D00F               	goto	i2l5626
  5430                           
  5431                           ; BSR set to: 15
  5432                           ;usb_device.c: 707: {
  5433                           ;usb_device.c: 708: USER_USB_CALLBACK_EVENT_HANDLER(EVENT_SOF,0,1);
  5434  001692  0E00               	movlw	0
  5435  001694  6E3A               	movwf	USER_USB_CALLBACK_EVENT_HANDLER@event+1,c
  5436  001696  0E73               	movlw	115
  5437  001698  6E39               	movwf	USER_USB_CALLBACK_EVENT_HANDLER@event,c
  5438  00169A  0E00               	movlw	0
  5439  00169C  6E3B               	movwf	USER_USB_CALLBACK_EVENT_HANDLER@pdata,c
  5440  00169E  0E00               	movlw	0
  5441  0016A0  6E3C               	movwf	USER_USB_CALLBACK_EVENT_HANDLER@pdata+1,c
  5442  0016A2  0E00               	movlw	0
  5443  0016A4  6E3E               	movwf	USER_USB_CALLBACK_EVENT_HANDLER@size+1,c
  5444  0016A6  0E01               	movlw	1
  5445  0016A8  6E3D               	movwf	USER_USB_CALLBACK_EVENT_HANDLER@size,c
  5446  0016AA  EC98  F018         	call	_USER_USB_CALLBACK_EVENT_HANDLER	;wreg free
  5447  0016AE  D000               	goto	i2l5626
  5448  0016B0                     i2l5626:
  5449                           
  5450                           ;usb_device.c: 709: }
  5451                           ;usb_device.c: 710: (UIR &= 0xBF);
  5452  0016B0  9C62               	bcf	3938,6,c	;volatile
  5453                           
  5454                           ;usb_device.c: 735: if(USBStatusStageTimeoutCounter != 0u)
  5455  0016B2  501D               	movf	_USBStatusStageTimeoutCounter,w,c	;volatile
  5456  0016B4  B4D8               	btfsc	status,2,c
  5457  0016B6  D002               	goto	i2l5632
  5458                           
  5459                           ;usb_device.c: 736: {
  5460                           ;usb_device.c: 737: USBStatusStageTimeoutCounter--;
  5461  0016B8  061D               	decf	_USBStatusStageTimeoutCounter,f,c	;volatile
  5462  0016BA  D000               	goto	i2l5632
  5463  0016BC                     i2l5632:
  5464                           
  5465                           ;usb_device.c: 738: }
  5466                           ;usb_device.c: 744: if(USBStatusStageTimeoutCounter == 0)
  5467  0016BC  501D               	movf	_USBStatusStageTimeoutCounter,w,c	;volatile
  5468  0016BE  A4D8               	btfss	status,2,c
  5469  0016C0  D003               	goto	i2l5636
  5470                           
  5471                           ;usb_device.c: 745: {
  5472                           ;usb_device.c: 746: USBCtrlEPAllowStatusStage();
  5473  0016C2  EC56  F011         	call	_USBCtrlEPAllowStatusStage	;wreg free
  5474  0016C6  D000               	goto	i2l5636
  5475  0016C8                     i2l5636:
  5476                           
  5477                           ;usb_device.c: 747: }
  5478                           ;usb_device.c: 749: }
  5479                           ;usb_device.c: 751: if(UIRbits.STALLIF && UIEbits.STALLIE)
  5480  0016C8  AA62               	btfss	3938,5,c	;volatile
  5481  0016CA  D006               	goto	i2l5642
  5482  0016CC  010F               	movlb	15	; () banked
  5483  0016CE  AB36               	btfss	54,5,b	;volatile
  5484  0016D0  D003               	goto	i2l5642
  5485                           
  5486                           ; BSR set to: 15
  5487                           ;usb_device.c: 752: {
  5488                           ;usb_device.c: 753: USBStallHandler();
  5489  0016D2  EC96  F017         	call	_USBStallHandler	;wreg free
  5490  0016D6  D000               	goto	i2l5642
  5491  0016D8                     i2l5642:
  5492                           
  5493                           ;usb_device.c: 754: }
  5494                           ;usb_device.c: 756: if(UIRbits.UERRIF && UIEbits.UERRIE)
  5495  0016D8  A262               	btfss	3938,1,c	;volatile
  5496  0016DA  D013               	goto	i2l5650
  5497  0016DC  010F               	movlb	15	; () banked
  5498  0016DE  A336               	btfss	54,1,b	;volatile
  5499  0016E0  D010               	goto	i2l5650
  5500                           
  5501                           ; BSR set to: 15
  5502                           ;usb_device.c: 757: {
  5503                           ;usb_device.c: 758: USER_USB_CALLBACK_EVENT_HANDLER(EVENT_BUS_ERROR,0,1);
  5504  0016E2  0E7F               	movlw	127
  5505  0016E4  6E3A               	movwf	USER_USB_CALLBACK_EVENT_HANDLER@event+1,c
  5506  0016E6  6839               	setf	USER_USB_CALLBACK_EVENT_HANDLER@event,c
  5507  0016E8  0E00               	movlw	0
  5508  0016EA  6E3B               	movwf	USER_USB_CALLBACK_EVENT_HANDLER@pdata,c
  5509  0016EC  0E00               	movlw	0
  5510  0016EE  6E3C               	movwf	USER_USB_CALLBACK_EVENT_HANDLER@pdata+1,c
  5511  0016F0  0E00               	movlw	0
  5512  0016F2  6E3E               	movwf	USER_USB_CALLBACK_EVENT_HANDLER@size+1,c
  5513  0016F4  0E01               	movlw	1
  5514  0016F6  6E3D               	movwf	USER_USB_CALLBACK_EVENT_HANDLER@size,c
  5515  0016F8  EC98  F018         	call	_USER_USB_CALLBACK_EVENT_HANDLER	;wreg free
  5516                           
  5517                           ;usb_device.c: 759: {UEIR = 0;};
  5518  0016FC  0E00               	movlw	0
  5519  0016FE  6E63               	movwf	3939,c	;volatile
  5520  001700  D000               	goto	i2l5650
  5521  001702                     i2l5650:
  5522                           
  5523                           ;usb_device.c: 767: }
  5524                           ;usb_device.c: 774: if(USBDeviceState < DEFAULT_STATE)
  5525  001702  0E04               	movlw	4
  5526  001704  601A               	cpfslt	_USBDeviceState,c	;volatile
  5527  001706  D002               	goto	i2l769
  5528                           
  5529                           ;usb_device.c: 775: {
  5530                           ;usb_device.c: 776: {PIR2bits.USBIF = 0;};
  5531  001708  98A1               	bcf	4001,4,c	;volatile
  5532                           
  5533                           ;usb_device.c: 777: return;
  5534  00170A  0012               	return	
  5535  00170C                     i2l769:
  5536                           
  5537                           ;usb_device.c: 778: }
  5538                           ;usb_device.c: 783: if(UIEbits.TRNIE)
  5539  00170C  010F               	movlb	15	; () banked
  5540  00170E  A736               	btfss	54,3,b	;volatile
  5541  001710  D03C               	goto	i2l770
  5542                           
  5543                           ; BSR set to: 15
  5544                           ;usb_device.c: 784: {
  5545                           ;usb_device.c: 785: for(i = 0; i < 4u; i++)
  5546  001712  0E00               	movlw	0
  5547  001714  6E4A               	movwf	USBDeviceTasks@i,c
  5548  001716                     i2l5656:
  5549                           
  5550                           ; BSR set to: 15
  5551  001716  0E03               	movlw	3
  5552  001718  644A               	cpfsgt	USBDeviceTasks@i,c
  5553  00171A  D001               	goto	i2l771
  5554                           
  5555                           ; BSR set to: 15
  5556  00171C  D036               	goto	i2l770
  5557  00171E                     i2l771:
  5558                           
  5559                           ;usb_device.c: 786: {
  5560                           ;usb_device.c: 787: if(UIRbits.TRNIF)
  5561  00171E  A662               	btfss	3938,3,c	;volatile
  5562  001720  D034               	goto	i2l770
  5563                           
  5564                           ;usb_device.c: 788: {
  5565                           ;usb_device.c: 790: USTATcopy.Val = USTAT;
  5566  001722  CF64 F02C          	movff	3940,_USTATcopy	;volatile
  5567                           
  5568                           ;usb_device.c: 791: endpoint_number = USTATcopy.endpoint_number;
  5569  001726  302C               	rrcf	_USTATcopy,w,c	;volatile
  5570  001728  32E8               	rrcf	wreg,f,c
  5571  00172A  32E8               	rrcf	wreg,f,c
  5572  00172C  0B0F               	andlw	15
  5573  00172E  6E21               	movwf	_endpoint_number,c	;volatile
  5574                           
  5575                           ;usb_device.c: 793: (UIR &= 0xF7);
  5576  001730  9662               	bcf	3938,3,c	;volatile
  5577                           
  5578                           ;usb_device.c: 798: if(USTATcopy.direction == 0)
  5579  001732  B42C               	btfsc	_USTATcopy,2,c	;volatile
  5580  001734  D007               	goto	i2l5670
  5581                           
  5582                           ;usb_device.c: 799: {
  5583                           ;usb_device.c: 800: ep_data_out[endpoint_number].bits.ping_pong_state ^= 1;
  5584  001736  5021               	movf	_endpoint_number,w,c	;volatile
  5585  001738  0D01               	mullw	1
  5586  00173A  0E69               	movlw	low _ep_data_out
  5587  00173C  24F3               	addwf	prodl,w,c
  5588  00173E  6ED9               	movwf	fsr2l,c
  5589  001740  0E00               	movlw	high _ep_data_out
  5590  001742  D006               	goto	L4
  5591  001744                     i2l5670:
  5592                           
  5593                           ;usb_device.c: 802: else
  5594                           ;usb_device.c: 803: {
  5595                           ;usb_device.c: 804: ep_data_in[endpoint_number].bits.ping_pong_state ^= 1;
  5596  001744  5021               	movf	_endpoint_number,w,c	;volatile
  5597  001746  0D01               	mullw	1
  5598  001748  0E66               	movlw	low _ep_data_in
  5599  00174A  24F3               	addwf	prodl,w,c
  5600  00174C  6ED9               	movwf	fsr2l,c
  5601  00174E  0E00               	movlw	high _ep_data_in
  5602  001750                     L4:
  5603  001750  20F4               	addwfc	prodh,w,c
  5604  001752  6EDA               	movwf	fsr2h,c
  5605  001754  0100               	movlb	0	; () banked
  5606  001756  70DF               	btg	indf2,0,c
  5607  001758  D000               	goto	i2l5672
  5608  00175A                     i2l5672:
  5609                           
  5610                           ; BSR set to: 0
  5611                           ;usb_device.c: 805: }
  5612                           ;usb_device.c: 810: if(endpoint_number == 0)
  5613  00175A  5021               	movf	_endpoint_number,w,c	;volatile
  5614  00175C  A4D8               	btfss	status,2,c
  5615  00175E  D003               	goto	i2l5676
  5616                           
  5617                           ; BSR set to: 0
  5618                           ;usb_device.c: 811: {
  5619                           ;usb_device.c: 812: USBCtrlEPService();
  5620  001760  ECEE  F010         	call	_USBCtrlEPService	;wreg free
  5621                           
  5622                           ;usb_device.c: 813: }
  5623  001764  D010               	goto	i2l5678
  5624  001766                     i2l5676:
  5625                           
  5626                           ;usb_device.c: 814: else
  5627                           ;usb_device.c: 815: {
  5628                           ;usb_device.c: 816: USER_USB_CALLBACK_EVENT_HANDLER(EVENT_TRANSFER,(uint8_t*)&USTATcopy.
      +                          Val,0);
  5629  001766  0E00               	movlw	0
  5630  001768  6E3A               	movwf	USER_USB_CALLBACK_EVENT_HANDLER@event+1,c
  5631  00176A  0E72               	movlw	114
  5632  00176C  6E39               	movwf	USER_USB_CALLBACK_EVENT_HANDLER@event,c
  5633  00176E  0E2C               	movlw	low _USTATcopy
  5634  001770  6E3B               	movwf	USER_USB_CALLBACK_EVENT_HANDLER@pdata,c
  5635  001772  0E00               	movlw	high _USTATcopy
  5636  001774  6E3C               	movwf	USER_USB_CALLBACK_EVENT_HANDLER@pdata+1,c
  5637  001776  0E00               	movlw	0
  5638  001778  6E3E               	movwf	USER_USB_CALLBACK_EVENT_HANDLER@size+1,c
  5639  00177A  0E00               	movlw	0
  5640  00177C  6E3D               	movwf	USER_USB_CALLBACK_EVENT_HANDLER@size,c
  5641  00177E  EC98  F018         	call	_USER_USB_CALLBACK_EVENT_HANDLER	;wreg free
  5642                           
  5643                           ;usb_device.c: 817: }
  5644                           ;usb_device.c: 818: }
  5645  001782  D001               	goto	i2l5678
  5646                           
  5647                           ;usb_device.c: 819: else
  5648                           ;usb_device.c: 820: {
  5649                           ;usb_device.c: 821: break;
  5650  001784  D002               	goto	i2l770
  5651  001786                     i2l5678:
  5652  001786  2A4A               	incf	USBDeviceTasks@i,f,c
  5653  001788  D7C6               	goto	i2l5656
  5654  00178A                     i2l770:
  5655                           
  5656                           ;usb_device.c: 822: }
  5657                           ;usb_device.c: 823: }
  5658                           ;usb_device.c: 824: }
  5659                           ;usb_device.c: 826: {PIR2bits.USBIF = 0;};
  5660  00178A  98A1               	bcf	4001,4,c	;volatile
  5661  00178C  0012               	return		;funcret
  5662  00178E                     __end_of_USBDeviceTasks:
  5663                           	opt stack 0
  5664                           pclatu	equ	0xFFB
  5665                           pclath	equ	0xFFA
  5666                           tblptru	equ	0xFF8
  5667                           tblptrh	equ	0xFF7
  5668                           tblptrl	equ	0xFF6
  5669                           tablat	equ	0xFF5
  5670                           prodh	equ	0xFF4
  5671                           prodl	equ	0xFF3
  5672                           intcon	equ	0xFF2
  5673                           intcon2	equ	0xFF1
  5674                           indf0	equ	0xFEF
  5675                           postinc0	equ	0xFEE
  5676                           fsr0h	equ	0xFEA
  5677                           fsr0l	equ	0xFE9
  5678                           wreg	equ	0xFE8
  5679                           indf1	equ	0xFE7
  5680                           fsr1h	equ	0xFE2
  5681                           fsr1l	equ	0xFE1
  5682                           indf2	equ	0xFDF
  5683                           postinc2	equ	0xFDE
  5684                           postdec2	equ	0xFDD
  5685                           plusw2	equ	0xFDB
  5686                           fsr2h	equ	0xFDA
  5687                           fsr2l	equ	0xFD9
  5688                           status	equ	0xFD8
  5689                           
  5690 ;; *************** function i2_USBDeviceInit *****************
  5691 ;; Defined at:
  5692 ;;		line 298 in file "../My_header/usb_cdc/usb/usb_device.c"
  5693 ;; Parameters:    Size  Location     Type
  5694 ;;		None
  5695 ;; Auto vars:     Size  Location     Type
  5696 ;;  USBDeviceIni    1    8[COMRAM] unsigned char 
  5697 ;; Return value:  Size  Location     Type
  5698 ;;		None               void
  5699 ;; Registers used:
  5700 ;;		wreg, fsr2l, fsr2h, status,2, status,0, prodl, prodh, cstack
  5701 ;; Tracked objects:
  5702 ;;		On entry : 0/0
  5703 ;;		On exit  : 0/0
  5704 ;;		Unchanged: 0/0
  5705 ;; Data sizes:     COMRAM   BANK0   BANK1   BANK2   BANK3   BANK4   BANK5   BANK6   BANK7   BANK8   BANK9  BANK10  BANK1
      +1  BANK12  BANK13  BANK14
  5706 ;;      Params:         0       0       0       0       0       0       0       0       0       0       0       0       
      +0       0       0       0
  5707 ;;      Locals:         1       0       0       0       0       0       0       0       0       0       0       0       
      +0       0       0       0
  5708 ;;      Temps:          0       0       0       0       0       0       0       0       0       0       0       0       
      +0       0       0       0
  5709 ;;      Totals:         1       0       0       0       0       0       0       0       0       0       0       0       
      +0       0       0       0
  5710 ;;Total ram usage:        1 bytes
  5711 ;; Hardware stack levels used:    1
  5712 ;; Hardware stack levels required when called:    1
  5713 ;; This function calls:
  5714 ;;		i2_memset
  5715 ;; This function is called by:
  5716 ;;		_USBDeviceTasks
  5717 ;; This function uses a non-reentrant model
  5718 ;;
  5719                           
  5720                           	psect	text33
  5721  0018E8                     __ptext33:
  5722                           	opt stack 0
  5723  0018E8                     i2_USBDeviceInit:
  5724                           	opt stack 21
  5725                           
  5726                           ;usb_device.c: 300: uint8_t i;
  5727                           ;usb_device.c: 302: {PIE2bits.USBIE = 0;};
  5728                           
  5729                           ;incstack = 0
  5730  0018E8  98A0               	bcf	4000,4,c	;volatile
  5731                           
  5732                           ;usb_device.c: 305: {UEIR = 0;};
  5733  0018EA  0E00               	movlw	0
  5734  0018EC  6E63               	movwf	3939,c	;volatile
  5735                           
  5736                           ;usb_device.c: 308: {UIR = 0;};
  5737  0018EE  0E00               	movlw	0
  5738  0018F0  6E62               	movwf	3938,c	;volatile
  5739                           
  5740                           ;usb_device.c: 311: UEP0 = 0;
  5741  0018F2  0E00               	movlw	0
  5742  0018F4  010F               	movlb	15	; () banked
  5743  0018F6  6F26               	movwf	38,b	;volatile
  5744                           
  5745                           ; BSR set to: 15
  5746                           ;usb_device.c: 313: memset((void*)&UEP1,0x00,(2));;
  5747  0018F8  0E27               	movlw	39
  5748  0018FA  6E2D               	movwf	i2memset@p1,c
  5749  0018FC  0E0F               	movlw	15
  5750  0018FE  6E2E               	movwf	i2memset@p1+1,c
  5751  001900  0E00               	movlw	0
  5752  001902  6E30               	movwf	i2memset@c+1,c
  5753  001904  0E00               	movlw	0
  5754  001906  6E2F               	movwf	i2memset@c,c
  5755  001908  0E00               	movlw	0
  5756  00190A  6E32               	movwf	i2memset@n+1,c
  5757  00190C  0E02               	movlw	2
  5758  00190E  6E31               	movwf	i2memset@n,c
  5759  001910  ECC7  F018         	call	i2_memset	;wreg free
  5760                           
  5761                           ;usb_device.c: 315: { UCFG = 0x10 | 0x00 | 0x04 | 0x02; UEIE = 0x9F; UIE = 0x39 | 0x40 |
      +                           0x02; };
  5762  001914  0E16               	movlw	22
  5763  001916  010F               	movlb	15	; () banked
  5764  001918  6F39               	movwf	57,b	;volatile
  5765                           
  5766                           ; BSR set to: 15
  5767  00191A  0E9F               	movlw	159
  5768  00191C  010F               	movlb	15	; () banked
  5769  00191E  6F37               	movwf	55,b	;volatile
  5770                           
  5771                           ; BSR set to: 15
  5772  001920  0E7B               	movlw	123
  5773  001922  010F               	movlb	15	; () banked
  5774  001924  6F36               	movwf	54,b	;volatile
  5775                           
  5776                           ; BSR set to: 15
  5777                           ;usb_device.c: 318: ;
  5778                           ;usb_device.c: 321: ;
  5779                           ;usb_device.c: 324: for(i=0;i<(sizeof(BDT)/sizeof(BDT_ENTRY));i++)
  5780  001926  0E00               	movlw	0
  5781  001928  6E35               	movwf	i2USBDeviceInit@i,c
  5782  00192A  D00E               	goto	i2l5354
  5783                           
  5784                           ; BSR set to: 15
  5785                           
  5786                           ; BSR set to: 15
  5787  00192C  D010               	goto	i2l747
  5788  00192E                     i2l5350:
  5789                           
  5790                           ;usb_device.c: 325: {
  5791                           ;usb_device.c: 326: BDT[i].Val = 0x00;
  5792  00192E  5035               	movf	i2USBDeviceInit@i,w,c
  5793  001930  0D04               	mullw	4
  5794  001932  0E00               	movlw	0
  5795  001934  24F3               	addwf	prodl,w,c
  5796  001936  6ED9               	movwf	fsr2l,c
  5797  001938  0E0D               	movlw	13
  5798  00193A  20F4               	addwfc	prodh,w,c
  5799  00193C  6EDA               	movwf	fsr2h,c
  5800  00193E  6ADE               	clrf	postinc2,c
  5801  001940  6ADE               	clrf	postinc2,c
  5802  001942  6ADE               	clrf	postinc2,c
  5803  001944  6ADD               	clrf	postdec2,c
  5804  001946  2A35               	incf	i2USBDeviceInit@i,f,c
  5805  001948                     i2l5354:
  5806  001948  0E0B               	movlw	11
  5807  00194A  6435               	cpfsgt	i2USBDeviceInit@i,c
  5808  00194C  D7F0               	goto	i2l5350
  5809  00194E                     i2l747:
  5810                           
  5811                           ;usb_device.c: 327: }
  5812                           ;usb_device.c: 330: UCONbits.PPBRST = 1;
  5813  00194E  8C65               	bsf	3941,6,c	;volatile
  5814                           
  5815                           ;usb_device.c: 333: UADDR = 0x00;
  5816  001950  0E00               	movlw	0
  5817  001952  010F               	movlb	15	; () banked
  5818  001954  6F38               	movwf	56,b	;volatile
  5819                           
  5820                           ; BSR set to: 15
  5821                           ;usb_device.c: 336: UCONbits.PKTDIS = 0;
  5822  001956  9865               	bcf	3941,4,c	;volatile
  5823                           
  5824                           ; BSR set to: 15
  5825                           ;usb_device.c: 339: UCONbits.PPBRST = 0;
  5826  001958  9C65               	bcf	3941,6,c	;volatile
  5827                           
  5828                           ;usb_device.c: 342: while(UIRbits.TRNIF == 1)
  5829  00195A  D00A               	goto	i2l5370
  5830  00195C                     i2l5362:
  5831                           
  5832                           ;usb_device.c: 343: {
  5833                           ;usb_device.c: 344: (UIR &= 0xF7);
  5834  00195C  9662               	bcf	3938,3,c	;volatile
  5835                           
  5836                           ;usb_device.c: 346: inPipes[0].info.Val = 0;
  5837  00195E  0E00               	movlw	0
  5838  001960  6E28               	movwf	_inPipes+3,c	;volatile
  5839                           
  5840                           ;usb_device.c: 347: outPipes[0].info.Val = 0;
  5841  001962  0E00               	movlw	0
  5842  001964  6E04               	movwf	_outPipes+3,c	;volatile
  5843                           
  5844                           ;usb_device.c: 348: outPipes[0].wCount.Val = 0;
  5845  001966  0E00               	movlw	0
  5846  001968  6E06               	movwf	_outPipes+5,c	;volatile
  5847  00196A  0E00               	movlw	0
  5848  00196C  6E05               	movwf	_outPipes+4,c	;volatile
  5849  00196E  D000               	goto	i2l5370
  5850  001970                     i2l5370:
  5851  001970  B662               	btfsc	3938,3,c	;volatile
  5852  001972  D7F4               	goto	i2l5362
  5853                           
  5854                           ;usb_device.c: 349: }
  5855                           ;usb_device.c: 353: USBStatusStageEnabledFlag1 = 1;
  5856  001974  0E01               	movlw	1
  5857  001976  6E1B               	movwf	_USBStatusStageEnabledFlag1,c	;volatile
  5858                           
  5859                           ;usb_device.c: 354: USBStatusStageEnabledFlag2 = 1;
  5860  001978  0E01               	movlw	1
  5861  00197A  6E1C               	movwf	_USBStatusStageEnabledFlag2,c	;volatile
  5862                           
  5863                           ;usb_device.c: 356: USBDeferINDataStagePackets = 0;
  5864  00197C  0E00               	movlw	0
  5865  00197E  6E17               	movwf	_USBDeferINDataStagePackets,c	;volatile
  5866                           
  5867                           ;usb_device.c: 357: USBDeferOUTDataStagePackets = 0;
  5868  001980  0E00               	movlw	0
  5869  001982  6E18               	movwf	_USBDeferOUTDataStagePackets,c	;volatile
  5870                           
  5871                           ;usb_device.c: 358: USBBusIsSuspended = 0;
  5872  001984  0E00               	movlw	0
  5873  001986  0100               	movlb	0	; () banked
  5874  001988  6F7C               	movwf	_USBBusIsSuspended& (0+255),b	;volatile
  5875                           
  5876                           ;usb_device.c: 362: for(i = 0; i < (uint8_t)(2+1u); i++)
  5877  00198A  0E00               	movlw	0
  5878  00198C  6E35               	movwf	i2USBDeviceInit@i,c
  5879  00198E                     i2l5374:
  5880                           
  5881                           ; BSR set to: 0
  5882  00198E  0E02               	movlw	2
  5883  001990  6435               	cpfsgt	i2USBDeviceInit@i,c
  5884  001992  D001               	goto	i2l5378
  5885                           
  5886                           ; BSR set to: 0
  5887  001994  D02E               	goto	i2l5384
  5888  001996                     i2l5378:
  5889                           
  5890                           ;usb_device.c: 363: {
  5891                           ;usb_device.c: 364: pBDTEntryIn[i] = 0u;
  5892  001996  5035               	movf	i2USBDeviceInit@i,w,c
  5893  001998  0D02               	mullw	2
  5894  00199A  0E0A               	movlw	low _pBDTEntryIn
  5895  00199C  24F3               	addwf	prodl,w,c
  5896  00199E  6ED9               	movwf	fsr2l,c
  5897  0019A0  0E00               	movlw	high _pBDTEntryIn
  5898  0019A2  20F4               	addwfc	prodh,w,c
  5899  0019A4  6EDA               	movwf	fsr2h,c
  5900  0019A6  0E00               	movlw	0
  5901  0019A8  6EDE               	movwf	postinc2,c
  5902  0019AA  0E00               	movlw	0
  5903  0019AC  6EDD               	movwf	postdec2,c
  5904                           
  5905                           ;usb_device.c: 365: pBDTEntryOut[i] = 0u;
  5906  0019AE  5035               	movf	i2USBDeviceInit@i,w,c
  5907  0019B0  0D02               	mullw	2
  5908  0019B2  0E60               	movlw	low _pBDTEntryOut
  5909  0019B4  24F3               	addwf	prodl,w,c
  5910  0019B6  6ED9               	movwf	fsr2l,c
  5911  0019B8  0E00               	movlw	high _pBDTEntryOut
  5912  0019BA  20F4               	addwfc	prodh,w,c
  5913  0019BC  6EDA               	movwf	fsr2h,c
  5914  0019BE  0E00               	movlw	0
  5915  0019C0  6EDE               	movwf	postinc2,c
  5916  0019C2  0E00               	movlw	0
  5917  0019C4  6EDD               	movwf	postdec2,c
  5918                           
  5919                           ;usb_device.c: 366: ep_data_in[i].Val = 0u;
  5920  0019C6  5035               	movf	i2USBDeviceInit@i,w,c
  5921  0019C8  0D01               	mullw	1
  5922  0019CA  0E66               	movlw	low _ep_data_in
  5923  0019CC  24F3               	addwf	prodl,w,c
  5924  0019CE  6ED9               	movwf	fsr2l,c
  5925  0019D0  0E00               	movlw	high _ep_data_in
  5926  0019D2  20F4               	addwfc	prodh,w,c
  5927  0019D4  6EDA               	movwf	fsr2h,c
  5928  0019D6  0E00               	movlw	0
  5929  0019D8  6EDF               	movwf	indf2,c
  5930                           
  5931                           ;usb_device.c: 367: ep_data_out[i].Val = 0u;
  5932  0019DA  5035               	movf	i2USBDeviceInit@i,w,c
  5933  0019DC  0D01               	mullw	1
  5934  0019DE  0E69               	movlw	low _ep_data_out
  5935  0019E0  24F3               	addwf	prodl,w,c
  5936  0019E2  6ED9               	movwf	fsr2l,c
  5937  0019E4  0E00               	movlw	high _ep_data_out
  5938  0019E6  20F4               	addwfc	prodh,w,c
  5939  0019E8  6EDA               	movwf	fsr2h,c
  5940  0019EA  0E00               	movlw	0
  5941  0019EC  6EDF               	movwf	indf2,c
  5942  0019EE  2A35               	incf	i2USBDeviceInit@i,f,c
  5943  0019F0  D7CE               	goto	i2l5374
  5944  0019F2                     i2l5384:
  5945                           
  5946                           ;usb_device.c: 368: }
  5947                           ;usb_device.c: 371: pBDTEntryIn[0] = (volatile BDT_ENTRY*)&BDT[2];
  5948  0019F2  0E08               	movlw	8
  5949  0019F4  6E0A               	movwf	_pBDTEntryIn,c
  5950  0019F6  0E0D               	movlw	13
  5951  0019F8  6E0B               	movwf	_pBDTEntryIn+1,c
  5952                           
  5953                           ;usb_device.c: 373: UEP0 = 0x06|0x10;
  5954  0019FA  0E16               	movlw	22
  5955  0019FC  010F               	movlb	15	; () banked
  5956  0019FE  6F26               	movwf	38,b	;volatile
  5957                           
  5958                           ; BSR set to: 15
  5959                           ;usb_device.c: 375: BDT[0].ADR = ((uint16_t)(&SetupPkt));
  5960  001A00  0E0D               	movlw	13
  5961  001A02  010D               	movlb	13	; () banked
  5962  001A04  6F03               	movwf	3,b	;volatile
  5963  001A06  0E30               	movlw	48
  5964  001A08  6F02               	movwf	2,b	;volatile
  5965                           
  5966                           ; BSR set to: 13
  5967                           ;usb_device.c: 376: BDT[0].CNT = 8;
  5968  001A0A  0E08               	movlw	8
  5969  001A0C  010D               	movlb	13	; () banked
  5970  001A0E  6F01               	movwf	1,b	;volatile
  5971                           
  5972                           ; BSR set to: 13
  5973                           ;usb_device.c: 377: BDT[0].STAT.Val = 0x00|0x04;
  5974  001A10  0E04               	movlw	4
  5975  001A12  010D               	movlb	13	; () banked
  5976  001A14  6F00               	movwf	0,b	;volatile
  5977                           
  5978                           ; BSR set to: 13
  5979                           ;usb_device.c: 378: BDT[0].STAT.Val |= 0x80;
  5980  001A16  010D               	movlb	13	; () banked
  5981  001A18  8F00               	bsf	0,7,b	;volatile
  5982                           
  5983                           ; BSR set to: 13
  5984                           ;usb_device.c: 381: USBActiveConfiguration = 0;
  5985  001A1A  0E00               	movlw	0
  5986  001A1C  6E2B               	movwf	_USBActiveConfiguration,c	;volatile
  5987                           
  5988                           ; BSR set to: 13
  5989                           ;usb_device.c: 384: USBDeviceState = DETACHED_STATE;
  5990  001A1E  0E00               	movlw	0
  5991  001A20  6E1A               	movwf	_USBDeviceState,c	;volatile
  5992                           
  5993                           ; BSR set to: 13
  5994  001A22  0012               	return		;funcret
  5995  001A24                     __end_ofi2_USBDeviceInit:
  5996                           	opt stack 0
  5997                           pclatu	equ	0xFFB
  5998                           pclath	equ	0xFFA
  5999                           tblptru	equ	0xFF8
  6000                           tblptrh	equ	0xFF7
  6001                           tblptrl	equ	0xFF6
  6002                           tablat	equ	0xFF5
  6003                           prodh	equ	0xFF4
  6004                           prodl	equ	0xFF3
  6005                           intcon	equ	0xFF2
  6006                           intcon2	equ	0xFF1
  6007                           indf0	equ	0xFEF
  6008                           postinc0	equ	0xFEE
  6009                           fsr0h	equ	0xFEA
  6010                           fsr0l	equ	0xFE9
  6011                           wreg	equ	0xFE8
  6012                           indf1	equ	0xFE7
  6013                           fsr1h	equ	0xFE2
  6014                           fsr1l	equ	0xFE1
  6015                           indf2	equ	0xFDF
  6016                           postinc2	equ	0xFDE
  6017                           postdec2	equ	0xFDD
  6018                           plusw2	equ	0xFDB
  6019                           fsr2h	equ	0xFDA
  6020                           fsr2l	equ	0xFD9
  6021                           status	equ	0xFD8
  6022                           
  6023 ;; *************** function _USBWakeFromSuspend *****************
  6024 ;; Defined at:
  6025 ;;		line 2302 in file "../My_header/usb_cdc/usb/usb_device.c"
  6026 ;; Parameters:    Size  Location     Type
  6027 ;;		None
  6028 ;; Auto vars:     Size  Location     Type
  6029 ;;		None
  6030 ;; Return value:  Size  Location     Type
  6031 ;;		None               void
  6032 ;; Registers used:
  6033 ;;		wreg, fsr2l, fsr2h, status,2, status,0, prodl, prodh, cstack
  6034 ;; Tracked objects:
  6035 ;;		On entry : 0/0
  6036 ;;		On exit  : 0/0
  6037 ;;		Unchanged: 0/0
  6038 ;; Data sizes:     COMRAM   BANK0   BANK1   BANK2   BANK3   BANK4   BANK5   BANK6   BANK7   BANK8   BANK9  BANK10  BANK1
      +1  BANK12  BANK13  BANK14
  6039 ;;      Params:         0       0       0       0       0       0       0       0       0       0       0       0       
      +0       0       0       0
  6040 ;;      Locals:         0       0       0       0       0       0       0       0       0       0       0       0       
      +0       0       0       0
  6041 ;;      Temps:          0       0       0       0       0       0       0       0       0       0       0       0       
      +0       0       0       0
  6042 ;;      Totals:         0       0       0       0       0       0       0       0       0       0       0       0       
      +0       0       0       0
  6043 ;;Total ram usage:        0 bytes
  6044 ;; Hardware stack levels used:    1
  6045 ;; Hardware stack levels required when called:    4
  6046 ;; This function calls:
  6047 ;;		_USER_USB_CALLBACK_EVENT_HANDLER
  6048 ;; This function is called by:
  6049 ;;		_USBDeviceTasks
  6050 ;; This function uses a non-reentrant model
  6051 ;;
  6052                           
  6053                           	psect	text34
  6054  0030CC                     __ptext34:
  6055                           	opt stack 0
  6056  0030CC                     _USBWakeFromSuspend:
  6057                           	opt stack 18
  6058                           
  6059                           ;usb_device.c: 2304: USBBusIsSuspended = 0;
  6060                           
  6061                           ; BSR set to: 13
  6062                           ;incstack = 0
  6063  0030CC  0E00               	movlw	0
  6064  0030CE  0100               	movlb	0	; () banked
  6065  0030D0  6F7C               	movwf	_USBBusIsSuspended& (0+255),b	;volatile
  6066                           
  6067                           ; BSR set to: 0
  6068                           ;usb_device.c: 2310: USER_USB_CALLBACK_EVENT_HANDLER(EVENT_RESUME,0,0);
  6069  0030D2  0E00               	movlw	0
  6070  0030D4  6E3A               	movwf	USER_USB_CALLBACK_EVENT_HANDLER@event+1,c
  6071  0030D6  0E74               	movlw	116
  6072  0030D8  6E39               	movwf	USER_USB_CALLBACK_EVENT_HANDLER@event,c
  6073  0030DA  0E00               	movlw	0
  6074  0030DC  6E3B               	movwf	USER_USB_CALLBACK_EVENT_HANDLER@pdata,c
  6075  0030DE  0E00               	movlw	0
  6076  0030E0  6E3C               	movwf	USER_USB_CALLBACK_EVENT_HANDLER@pdata+1,c
  6077  0030E2  0E00               	movlw	0
  6078  0030E4  6E3E               	movwf	USER_USB_CALLBACK_EVENT_HANDLER@size+1,c
  6079  0030E6  0E00               	movlw	0
  6080  0030E8  6E3D               	movwf	USER_USB_CALLBACK_EVENT_HANDLER@size,c
  6081  0030EA  EC98  F018         	call	_USER_USB_CALLBACK_EVENT_HANDLER	;wreg free
  6082                           
  6083                           ;usb_device.c: 2317: UCONbits.SUSPND = 0;
  6084  0030EE  9265               	bcf	3941,1,c	;volatile
  6085                           
  6086                           ;usb_device.c: 2322: UIEbits.ACTVIE = 0;
  6087  0030F0  010F               	movlb	15	; () banked
  6088  0030F2  9536               	bcf	54,2,b	;volatile
  6089                           
  6090                           ;usb_device.c: 2340: while(UIRbits.ACTVIF)
  6091  0030F4  D002               	goto	i2l5272
  6092  0030F6                     i2l5270:
  6093                           
  6094                           ;usb_device.c: 2342: {
  6095                           ;usb_device.c: 2343: (UIR &= 0xFB);
  6096  0030F6  9462               	bcf	3938,2,c	;volatile
  6097  0030F8  D000               	goto	i2l5272
  6098  0030FA                     i2l5272:
  6099  0030FA  B462               	btfsc	3938,2,c	;volatile
  6100  0030FC  D7FC               	goto	i2l5270
  6101  0030FE  0012               	return		;funcret
  6102  003100                     __end_of_USBWakeFromSuspend:
  6103                           	opt stack 0
  6104                           pclatu	equ	0xFFB
  6105                           pclath	equ	0xFFA
  6106                           tblptru	equ	0xFF8
  6107                           tblptrh	equ	0xFF7
  6108                           tblptrl	equ	0xFF6
  6109                           tablat	equ	0xFF5
  6110                           prodh	equ	0xFF4
  6111                           prodl	equ	0xFF3
  6112                           intcon	equ	0xFF2
  6113                           intcon2	equ	0xFF1
  6114                           indf0	equ	0xFEF
  6115                           postinc0	equ	0xFEE
  6116                           fsr0h	equ	0xFEA
  6117                           fsr0l	equ	0xFE9
  6118                           wreg	equ	0xFE8
  6119                           indf1	equ	0xFE7
  6120                           fsr1h	equ	0xFE2
  6121                           fsr1l	equ	0xFE1
  6122                           indf2	equ	0xFDF
  6123                           postinc2	equ	0xFDE
  6124                           postdec2	equ	0xFDD
  6125                           plusw2	equ	0xFDB
  6126                           fsr2h	equ	0xFDA
  6127                           fsr2l	equ	0xFD9
  6128                           status	equ	0xFD8
  6129                           
  6130 ;; *************** function _USBSuspend *****************
  6131 ;; Defined at:
  6132 ;;		line 2245 in file "../My_header/usb_cdc/usb/usb_device.c"
  6133 ;; Parameters:    Size  Location     Type
  6134 ;;		None
  6135 ;; Auto vars:     Size  Location     Type
  6136 ;;		None
  6137 ;; Return value:  Size  Location     Type
  6138 ;;		None               void
  6139 ;; Registers used:
  6140 ;;		wreg, fsr2l, fsr2h, status,2, status,0, prodl, prodh, cstack
  6141 ;; Tracked objects:
  6142 ;;		On entry : 0/0
  6143 ;;		On exit  : 0/0
  6144 ;;		Unchanged: 0/0
  6145 ;; Data sizes:     COMRAM   BANK0   BANK1   BANK2   BANK3   BANK4   BANK5   BANK6   BANK7   BANK8   BANK9  BANK10  BANK1
      +1  BANK12  BANK13  BANK14
  6146 ;;      Params:         0       0       0       0       0       0       0       0       0       0       0       0       
      +0       0       0       0
  6147 ;;      Locals:         0       0       0       0       0       0       0       0       0       0       0       0       
      +0       0       0       0
  6148 ;;      Temps:          0       0       0       0       0       0       0       0       0       0       0       0       
      +0       0       0       0
  6149 ;;      Totals:         0       0       0       0       0       0       0       0       0       0       0       0       
      +0       0       0       0
  6150 ;;Total ram usage:        0 bytes
  6151 ;; Hardware stack levels used:    1
  6152 ;; Hardware stack levels required when called:    4
  6153 ;; This function calls:
  6154 ;;		_USER_USB_CALLBACK_EVENT_HANDLER
  6155 ;; This function is called by:
  6156 ;;		_USBDeviceTasks
  6157 ;; This function uses a non-reentrant model
  6158 ;;
  6159                           
  6160                           	psect	text35
  6161  003214                     __ptext35:
  6162                           	opt stack 0
  6163  003214                     _USBSuspend:
  6164                           	opt stack 18
  6165                           
  6166                           ;usb_device.c: 2270: UIEbits.ACTVIE = 1;
  6167                           
  6168                           ;incstack = 0
  6169  003214  010F               	movlb	15	; () banked
  6170  003216  8536               	bsf	54,2,b	;volatile
  6171                           
  6172                           ; BSR set to: 15
  6173                           ;usb_device.c: 2271: (UIR &= 0xEF);
  6174  003218  9862               	bcf	3938,4,c	;volatile
  6175                           
  6176                           ; BSR set to: 15
  6177                           ;usb_device.c: 2274: UCONbits.SUSPND = 1;
  6178  00321A  8265               	bsf	3941,1,c	;volatile
  6179                           
  6180                           ; BSR set to: 15
  6181                           ;usb_device.c: 2277: USBBusIsSuspended = 1;
  6182  00321C  0E01               	movlw	1
  6183  00321E  0100               	movlb	0	; () banked
  6184  003220  6F7C               	movwf	_USBBusIsSuspended& (0+255),b	;volatile
  6185                           
  6186                           ; BSR set to: 0
  6187                           ;usb_device.c: 2284: USER_USB_CALLBACK_EVENT_HANDLER(EVENT_SUSPEND,0,0);
  6188  003222  0E00               	movlw	0
  6189  003224  6E3A               	movwf	USER_USB_CALLBACK_EVENT_HANDLER@event+1,c
  6190  003226  0E75               	movlw	117
  6191  003228  6E39               	movwf	USER_USB_CALLBACK_EVENT_HANDLER@event,c
  6192  00322A  0E00               	movlw	0
  6193  00322C  6E3B               	movwf	USER_USB_CALLBACK_EVENT_HANDLER@pdata,c
  6194  00322E  0E00               	movlw	0
  6195  003230  6E3C               	movwf	USER_USB_CALLBACK_EVENT_HANDLER@pdata+1,c
  6196  003232  0E00               	movlw	0
  6197  003234  6E3E               	movwf	USER_USB_CALLBACK_EVENT_HANDLER@size+1,c
  6198  003236  0E00               	movlw	0
  6199  003238  6E3D               	movwf	USER_USB_CALLBACK_EVENT_HANDLER@size,c
  6200  00323A  EC98  F018         	call	_USER_USB_CALLBACK_EVENT_HANDLER	;wreg free
  6201  00323E  0012               	return		;funcret
  6202  003240                     __end_of_USBSuspend:
  6203                           	opt stack 0
  6204                           pclatu	equ	0xFFB
  6205                           pclath	equ	0xFFA
  6206                           tblptru	equ	0xFF8
  6207                           tblptrh	equ	0xFF7
  6208                           tblptrl	equ	0xFF6
  6209                           tablat	equ	0xFF5
  6210                           prodh	equ	0xFF4
  6211                           prodl	equ	0xFF3
  6212                           intcon	equ	0xFF2
  6213                           intcon2	equ	0xFF1
  6214                           indf0	equ	0xFEF
  6215                           postinc0	equ	0xFEE
  6216                           fsr0h	equ	0xFEA
  6217                           fsr0l	equ	0xFE9
  6218                           wreg	equ	0xFE8
  6219                           indf1	equ	0xFE7
  6220                           fsr1h	equ	0xFE2
  6221                           fsr1l	equ	0xFE1
  6222                           indf2	equ	0xFDF
  6223                           postinc2	equ	0xFDE
  6224                           postdec2	equ	0xFDD
  6225                           plusw2	equ	0xFDB
  6226                           fsr2h	equ	0xFDA
  6227                           fsr2l	equ	0xFD9
  6228                           status	equ	0xFD8
  6229                           
  6230 ;; *************** function _USBStallHandler *****************
  6231 ;; Defined at:
  6232 ;;		line 2202 in file "../My_header/usb_cdc/usb/usb_device.c"
  6233 ;; Parameters:    Size  Location     Type
  6234 ;;		None
  6235 ;; Auto vars:     Size  Location     Type
  6236 ;;		None
  6237 ;; Return value:  Size  Location     Type
  6238 ;;		None               void
  6239 ;; Registers used:
  6240 ;;		wreg, fsr2l, fsr2h, status,2, status,0
  6241 ;; Tracked objects:
  6242 ;;		On entry : 0/0
  6243 ;;		On exit  : 0/0
  6244 ;;		Unchanged: 0/0
  6245 ;; Data sizes:     COMRAM   BANK0   BANK1   BANK2   BANK3   BANK4   BANK5   BANK6   BANK7   BANK8   BANK9  BANK10  BANK1
      +1  BANK12  BANK13  BANK14
  6246 ;;      Params:         0       0       0       0       0       0       0       0       0       0       0       0       
      +0       0       0       0
  6247 ;;      Locals:         0       0       0       0       0       0       0       0       0       0       0       0       
      +0       0       0       0
  6248 ;;      Temps:          1       0       0       0       0       0       0       0       0       0       0       0       
      +0       0       0       0
  6249 ;;      Totals:         1       0       0       0       0       0       0       0       0       0       0       0       
      +0       0       0       0
  6250 ;;Total ram usage:        1 bytes
  6251 ;; Hardware stack levels used:    1
  6252 ;; This function calls:
  6253 ;;		Nothing
  6254 ;; This function is called by:
  6255 ;;		_USBDeviceTasks
  6256 ;; This function uses a non-reentrant model
  6257 ;;
  6258                           
  6259                           	psect	text36
  6260  002F2C                     __ptext36:
  6261                           	opt stack 0
  6262  002F2C                     _USBStallHandler:
  6263                           	opt stack 22
  6264                           
  6265                           ;usb_device.c: 2214: if(UEP0bits.EPSTALL == 1)
  6266                           
  6267                           ;incstack = 0
  6268  002F2C  010F               	movlb	15	; () banked
  6269  002F2E  A126               	btfss	38,0,b	;volatile
  6270  002F30  D01F               	goto	i2l909
  6271                           
  6272                           ; BSR set to: 15
  6273                           ;usb_device.c: 2215: {
  6274                           ;usb_device.c: 2217: if((pBDTEntryEP0OutCurrent->STAT.Val == 0x80) && (pBDTEntryIn[0]->S
      +                          TAT.Val == (0x80|0x04)))
  6275  002F32  C010  FFD9         	movff	_pBDTEntryEP0OutCurrent,fsr2l
  6276  002F36  C011  FFDA         	movff	_pBDTEntryEP0OutCurrent+1,fsr2h
  6277  002F3A  0E80               	movlw	128
  6278  002F3C  18DE               	xorwf	postinc2,w,c
  6279  002F3E  A4D8               	btfss	status,2,c
  6280  002F40  D015               	goto	i2l5294
  6281                           
  6282                           ; BSR set to: 15
  6283  002F42  C00A  FFD9         	movff	_pBDTEntryIn,fsr2l
  6284  002F46  C00B  FFDA         	movff	_pBDTEntryIn+1,fsr2h
  6285  002F4A  0E84               	movlw	132
  6286  002F4C  18DE               	xorwf	postinc2,w,c
  6287  002F4E  A4D8               	btfss	status,2,c
  6288  002F50  D00D               	goto	i2l5294
  6289                           
  6290                           ; BSR set to: 15
  6291                           ;usb_device.c: 2218: {
  6292                           ;usb_device.c: 2220: pBDTEntryEP0OutCurrent->STAT.Val = 0x00|(0x08 & 0x08)|0x04;
  6293  002F52  C010  FFD9         	movff	_pBDTEntryEP0OutCurrent,fsr2l
  6294  002F56  C011  FFDA         	movff	_pBDTEntryEP0OutCurrent+1,fsr2h
  6295  002F5A  0E0C               	movlw	12
  6296  002F5C  6EDF               	movwf	indf2,c
  6297                           
  6298                           ; BSR set to: 15
  6299                           ;usb_device.c: 2221: pBDTEntryEP0OutCurrent->STAT.Val |= 0x80;
  6300  002F5E  C010  FFD9         	movff	_pBDTEntryEP0OutCurrent,fsr2l
  6301  002F62  C011  FFDA         	movff	_pBDTEntryEP0OutCurrent+1,fsr2h
  6302  002F66  0E00               	movlw	0
  6303  002F68  8EDB               	bsf	plusw2,7,c
  6304  002F6A  D000               	goto	i2l5294
  6305  002F6C                     i2l5294:
  6306                           
  6307                           ; BSR set to: 15
  6308                           ;usb_device.c: 2222: }
  6309                           ;usb_device.c: 2223: UEP0bits.EPSTALL = 0;
  6310  002F6C  010F               	movlb	15	; () banked
  6311  002F6E  9126               	bcf	38,0,b	;volatile
  6312  002F70                     i2l909:
  6313                           
  6314                           ; BSR set to: 15
  6315                           ;usb_device.c: 2224: }
  6316                           ;usb_device.c: 2226: (UIR &= 0xDF);
  6317  002F70  9A62               	bcf	3938,5,c	;volatile
  6318                           
  6319                           ; BSR set to: 15
  6320  002F72  0012               	return		;funcret
  6321  002F74                     __end_of_USBStallHandler:
  6322                           	opt stack 0
  6323                           pclatu	equ	0xFFB
  6324                           pclath	equ	0xFFA
  6325                           tblptru	equ	0xFF8
  6326                           tblptrh	equ	0xFF7
  6327                           tblptrl	equ	0xFF6
  6328                           tablat	equ	0xFF5
  6329                           prodh	equ	0xFF4
  6330                           prodl	equ	0xFF3
  6331                           intcon	equ	0xFF2
  6332                           intcon2	equ	0xFF1
  6333                           indf0	equ	0xFEF
  6334                           postinc0	equ	0xFEE
  6335                           fsr0h	equ	0xFEA
  6336                           fsr0l	equ	0xFE9
  6337                           wreg	equ	0xFE8
  6338                           indf1	equ	0xFE7
  6339                           fsr1h	equ	0xFE2
  6340                           fsr1l	equ	0xFE1
  6341                           indf2	equ	0xFDF
  6342                           postinc2	equ	0xFDE
  6343                           postdec2	equ	0xFDD
  6344                           plusw2	equ	0xFDB
  6345                           fsr2h	equ	0xFDA
  6346                           fsr2l	equ	0xFD9
  6347                           status	equ	0xFD8
  6348                           
  6349 ;; *************** function _USBCtrlEPService *****************
  6350 ;; Defined at:
  6351 ;;		line 2369 in file "../My_header/usb_cdc/usb/usb_device.c"
  6352 ;; Parameters:    Size  Location     Type
  6353 ;;		None
  6354 ;; Auto vars:     Size  Location     Type
  6355 ;;  setup_cnt       1   28[COMRAM] unsigned char 
  6356 ;; Return value:  Size  Location     Type
  6357 ;;		None               void
  6358 ;; Registers used:
  6359 ;;		wreg, fsr0l, fsr0h, fsr1l, fsr1h, fsr2l, fsr2h, status,2, status,0, tblptrl, tblptrh, tblptru, prodl, prodh, cstack
  6360 ;; Tracked objects:
  6361 ;;		On entry : 0/0
  6362 ;;		On exit  : 0/0
  6363 ;;		Unchanged: 0/0
  6364 ;; Data sizes:     COMRAM   BANK0   BANK1   BANK2   BANK3   BANK4   BANK5   BANK6   BANK7   BANK8   BANK9  BANK10  BANK1
      +1  BANK12  BANK13  BANK14
  6365 ;;      Params:         0       0       0       0       0       0       0       0       0       0       0       0       
      +0       0       0       0
  6366 ;;      Locals:         1       0       0       0       0       0       0       0       0       0       0       0       
      +0       0       0       0
  6367 ;;      Temps:          2       0       0       0       0       0       0       0       0       0       0       0       
      +0       0       0       0
  6368 ;;      Totals:         3       0       0       0       0       0       0       0       0       0       0       0       
      +0       0       0       0
  6369 ;;Total ram usage:        3 bytes
  6370 ;; Hardware stack levels used:    1
  6371 ;; Hardware stack levels required when called:    7
  6372 ;; This function calls:
  6373 ;;		_USBCtrlTrfInHandler
  6374 ;;		_USBCtrlTrfOutHandler
  6375 ;;		_USBCtrlTrfSetupHandler
  6376 ;; This function is called by:
  6377 ;;		_USBDeviceTasks
  6378 ;; This function uses a non-reentrant model
  6379 ;;
  6380                           
  6381                           	psect	text37
  6382  0021DC                     __ptext37:
  6383                           	opt stack 0
  6384  0021DC                     _USBCtrlEPService:
  6385                           	opt stack 15
  6386                           
  6387                           ;usb_device.c: 2375: USBStatusStageTimeoutCounter = (uint8_t)45;
  6388                           
  6389                           ; BSR set to: 15
  6390                           ;incstack = 0
  6391  0021DC  0E2D               	movlw	45
  6392  0021DE  6E1D               	movwf	_USBStatusStageTimeoutCounter,c	;volatile
  6393                           
  6394                           ;usb_device.c: 2379: if((USTATcopy.Val & ~0x02) == 0x00)
  6395  0021E0  C02C  F047         	movff	_USTATcopy,??_USBCtrlEPService	;volatile
  6396  0021E4  0EFD               	movlw	253
  6397  0021E6  1647               	andwf	??_USBCtrlEPService,f,c
  6398  0021E8  A4D8               	btfss	status,2,c
  6399  0021EA  D057               	goto	i2l5328
  6400                           
  6401                           ;usb_device.c: 2380: {
  6402                           ;usb_device.c: 2383: pBDTEntryEP0OutCurrent = (volatile BDT_ENTRY*)&BDT[(USTATcopy.Val &
      +                           0x7E)>>1];
  6403  0021EC  C02C  F047         	movff	_USTATcopy,??_USBCtrlEPService	;volatile
  6404  0021F0  90D8               	bcf	status,0,c
  6405  0021F2  3247               	rrcf	??_USBCtrlEPService,f,c
  6406  0021F4  0E3F               	movlw	63
  6407  0021F6  1647               	andwf	??_USBCtrlEPService,f,c
  6408  0021F8  5047               	movf	??_USBCtrlEPService,w,c
  6409  0021FA  0D04               	mullw	4
  6410  0021FC  0E00               	movlw	0
  6411  0021FE  24F3               	addwf	prodl,w,c
  6412  002200  6E10               	movwf	_pBDTEntryEP0OutCurrent,c
  6413  002202  0E0D               	movlw	13
  6414  002204  20F4               	addwfc	prodh,w,c
  6415  002206  6E11               	movwf	_pBDTEntryEP0OutCurrent+1,c
  6416                           
  6417                           ;usb_device.c: 2391: pBDTEntryEP0OutNext = pBDTEntryEP0OutCurrent;
  6418  002208  C010  F012         	movff	_pBDTEntryEP0OutCurrent,_pBDTEntryEP0OutNext
  6419  00220C  C011  F013         	movff	_pBDTEntryEP0OutCurrent+1,_pBDTEntryEP0OutNext+1
  6420                           
  6421                           ;usb_device.c: 2393: ((uint8_t_VAL*)&pBDTEntryEP0OutNext)->Val ^= 0x0004;
  6422  002210  0E04               	movlw	4
  6423  002212  1A12               	xorwf	_pBDTEntryEP0OutNext,f,c
  6424                           
  6425                           ;usb_device.c: 2396: if(pBDTEntryEP0OutCurrent->STAT.PID == 0xD)
  6426  002214  C010  FFD9         	movff	_pBDTEntryEP0OutCurrent,fsr2l
  6427  002218  C011  FFDA         	movff	_pBDTEntryEP0OutCurrent+1,fsr2h
  6428  00221C  30DF               	rrcf	indf2,w,c
  6429  00221E  32E8               	rrcf	wreg,f,c
  6430  002220  0B0F               	andlw	15
  6431  002222  0A0D               	xorlw	13
  6432  002224  A4D8               	btfss	status,2,c
  6433  002226  D036               	goto	i2l5326
  6434                           
  6435                           ;usb_device.c: 2397: {
  6436                           ;usb_device.c: 2398: unsigned char setup_cnt;
  6437                           ;usb_device.c: 2404: for(setup_cnt = 0; setup_cnt < 8u; setup_cnt++)
  6438  002228  0E00               	movlw	0
  6439  00222A  6E49               	movwf	USBCtrlEPService@setup_cnt,c
  6440  00222C                     i2l5310:
  6441  00222C  0E07               	movlw	7
  6442  00222E  6449               	cpfsgt	USBCtrlEPService@setup_cnt,c
  6443  002230  D001               	goto	i2l5314
  6444  002232  D023               	goto	i2l5322
  6445  002234                     i2l5314:
  6446                           
  6447                           ;usb_device.c: 2405: {
  6448                           ;usb_device.c: 2406: *(uint8_t*)((uint8_t*)&SetupPkt + setup_cnt) = *(uint8_t*)((void *)
      +                          (pBDTEntryEP0OutCurrent->ADR));
  6449  002234  EE20 F002          	lfsr	2,2
  6450  002238  5010               	movf	_pBDTEntryEP0OutCurrent,w,c
  6451  00223A  26D9               	addwf	fsr2l,f,c
  6452  00223C  5011               	movf	_pBDTEntryEP0OutCurrent+1,w,c
  6453  00223E  22DA               	addwfc	fsr2h,f,c
  6454  002240  CFDE F047          	movff	postinc2,??_USBCtrlEPService
  6455  002244  CFDD F048          	movff	postdec2,??_USBCtrlEPService+1
  6456  002248  C047  FFD9         	movff	??_USBCtrlEPService,fsr2l
  6457  00224C  C048  FFDA         	movff	??_USBCtrlEPService+1,fsr2h
  6458  002250  5049               	movf	USBCtrlEPService@setup_cnt,w,c
  6459  002252  0D01               	mullw	1
  6460  002254  0E30               	movlw	48
  6461  002256  24F3               	addwf	prodl,w,c
  6462  002258  6EE1               	movwf	fsr1l,c
  6463  00225A  0E0D               	movlw	13
  6464  00225C  20F4               	addwfc	prodh,w,c
  6465  00225E  6EE2               	movwf	fsr1h,c
  6466  002260  CFDF FFE7          	movff	indf2,indf1
  6467                           
  6468                           ;usb_device.c: 2407: pBDTEntryEP0OutCurrent->ADR++;
  6469  002264  EE20 F002          	lfsr	2,2
  6470  002268  5010               	movf	_pBDTEntryEP0OutCurrent,w,c
  6471  00226A  26D9               	addwf	fsr2l,f,c
  6472  00226C  5011               	movf	_pBDTEntryEP0OutCurrent+1,w,c
  6473  00226E  22DA               	addwfc	fsr2h,f,c
  6474  002270  2ADE               	incf	postinc2,f,c
  6475  002272  0E00               	movlw	0
  6476  002274  22DD               	addwfc	postdec2,f,c
  6477  002276  2A49               	incf	USBCtrlEPService@setup_cnt,f,c
  6478  002278  D7D9               	goto	i2l5310
  6479  00227A                     i2l5322:
  6480                           
  6481                           ;usb_device.c: 2408: }
  6482                           ;usb_device.c: 2409: pBDTEntryEP0OutCurrent->ADR = ((uint16_t)(&SetupPkt));
  6483  00227A  EE20 F002          	lfsr	2,2
  6484  00227E  5010               	movf	_pBDTEntryEP0OutCurrent,w,c
  6485  002280  26D9               	addwf	fsr2l,f,c
  6486  002282  5011               	movf	_pBDTEntryEP0OutCurrent+1,w,c
  6487  002284  22DA               	addwfc	fsr2h,f,c
  6488  002286  0E30               	movlw	48
  6489  002288  6EDE               	movwf	postinc2,c
  6490  00228A  0E0D               	movlw	13
  6491  00228C  6EDD               	movwf	postdec2,c
  6492                           
  6493                           ;usb_device.c: 2412: USBCtrlTrfSetupHandler();
  6494  00228E  ECD0  F015         	call	_USBCtrlTrfSetupHandler	;wreg free
  6495                           
  6496                           ;usb_device.c: 2413: }
  6497  002292  0012               	return	
  6498  002294                     i2l5326:
  6499                           
  6500                           ;usb_device.c: 2414: else
  6501                           ;usb_device.c: 2415: {
  6502                           ;usb_device.c: 2417: USBCtrlTrfOutHandler();
  6503  002294  EC49  F016         	call	_USBCtrlTrfOutHandler	;wreg free
  6504                           
  6505                           ;usb_device.c: 2418: }
  6506                           ;usb_device.c: 2419: }
  6507  002298  0012               	return	
  6508  00229A                     i2l5328:
  6509                           
  6510                           ;usb_device.c: 2420: else if((USTATcopy.Val & ~0x02) == 0x04)
  6511  00229A  502C               	movf	_USTATcopy,w,c	;volatile
  6512  00229C  0BFD               	andlw	253
  6513  00229E  0A04               	xorlw	4
  6514  0022A0  A4D8               	btfss	status,2,c
  6515  0022A2  0012               	return	
  6516                           
  6517                           ;usb_device.c: 2421: {
  6518                           ;usb_device.c: 2424: USBCtrlTrfInHandler();
  6519  0022A4  ECB8  F011         	call	_USBCtrlTrfInHandler	;wreg free
  6520  0022A8  0012               	return	
  6521  0022AA  0012               	return		;funcret
  6522  0022AC                     __end_of_USBCtrlEPService:
  6523                           	opt stack 0
  6524                           pclatu	equ	0xFFB
  6525                           pclath	equ	0xFFA
  6526                           tblptru	equ	0xFF8
  6527                           tblptrh	equ	0xFF7
  6528                           tblptrl	equ	0xFF6
  6529                           tablat	equ	0xFF5
  6530                           prodh	equ	0xFF4
  6531                           prodl	equ	0xFF3
  6532                           intcon	equ	0xFF2
  6533                           intcon2	equ	0xFF1
  6534                           indf0	equ	0xFEF
  6535                           postinc0	equ	0xFEE
  6536                           fsr0h	equ	0xFEA
  6537                           fsr0l	equ	0xFE9
  6538                           wreg	equ	0xFE8
  6539                           indf1	equ	0xFE7
  6540                           fsr1h	equ	0xFE2
  6541                           fsr1l	equ	0xFE1
  6542                           indf2	equ	0xFDF
  6543                           postinc2	equ	0xFDE
  6544                           postdec2	equ	0xFDD
  6545                           plusw2	equ	0xFDB
  6546                           fsr2h	equ	0xFDA
  6547                           fsr2l	equ	0xFD9
  6548                           status	equ	0xFD8
  6549                           
  6550 ;; *************** function _USBCtrlTrfSetupHandler *****************
  6551 ;; Defined at:
  6552 ;;		line 2469 in file "../My_header/usb_cdc/usb/usb_device.c"
  6553 ;; Parameters:    Size  Location     Type
  6554 ;;		None
  6555 ;; Auto vars:     Size  Location     Type
  6556 ;;		None
  6557 ;; Return value:  Size  Location     Type
  6558 ;;		None               void
  6559 ;; Registers used:
  6560 ;;		wreg, fsr0l, fsr0h, fsr2l, fsr2h, status,2, status,0, tblptrl, tblptrh, tblptru, prodl, prodh, cstack
  6561 ;; Tracked objects:
  6562 ;;		On entry : 0/0
  6563 ;;		On exit  : 0/0
  6564 ;;		Unchanged: 0/0
  6565 ;; Data sizes:     COMRAM   BANK0   BANK1   BANK2   BANK3   BANK4   BANK5   BANK6   BANK7   BANK8   BANK9  BANK10  BANK1
      +1  BANK12  BANK13  BANK14
  6566 ;;      Params:         0       0       0       0       0       0       0       0       0       0       0       0       
      +0       0       0       0
  6567 ;;      Locals:         0       0       0       0       0       0       0       0       0       0       0       0       
      +0       0       0       0
  6568 ;;      Temps:          0       0       0       0       0       0       0       0       0       0       0       0       
      +0       0       0       0
  6569 ;;      Totals:         0       0       0       0       0       0       0       0       0       0       0       0       
      +0       0       0       0
  6570 ;;Total ram usage:        0 bytes
  6571 ;; Hardware stack levels used:    1
  6572 ;; Hardware stack levels required when called:    6
  6573 ;; This function calls:
  6574 ;;		_USBCheckStdRequest
  6575 ;;		_USBCtrlEPServiceComplete
  6576 ;;		_USER_USB_CALLBACK_EVENT_HANDLER
  6577 ;; This function is called by:
  6578 ;;		_USBCtrlEPService
  6579 ;; This function uses a non-reentrant model
  6580 ;;
  6581                           
  6582                           	psect	text38
  6583  002BA0                     __ptext38:
  6584                           	opt stack 0
  6585  002BA0                     _USBCtrlTrfSetupHandler:
  6586                           	opt stack 15
  6587                           
  6588                           ;usb_device.c: 2474: shortPacketStatus = 0;
  6589                           
  6590                           ;incstack = 0
  6591  002BA0  0E00               	movlw	0
  6592  002BA2  6E23               	movwf	_shortPacketStatus,c	;volatile
  6593                           
  6594                           ;usb_device.c: 2475: USBDeferStatusStagePacket = 0;
  6595  002BA4  0E00               	movlw	0
  6596  002BA6  6E19               	movwf	_USBDeferStatusStagePacket,c	;volatile
  6597                           
  6598                           ;usb_device.c: 2476: USBDeferINDataStagePackets = 0;
  6599  002BA8  0E00               	movlw	0
  6600  002BAA  6E17               	movwf	_USBDeferINDataStagePackets,c	;volatile
  6601                           
  6602                           ;usb_device.c: 2477: USBDeferOUTDataStagePackets = 0;
  6603  002BAC  0E00               	movlw	0
  6604  002BAE  6E18               	movwf	_USBDeferOUTDataStagePackets,c	;volatile
  6605                           
  6606                           ;usb_device.c: 2478: BothEP0OutUOWNsSet = 0;
  6607  002BB0  0E00               	movlw	0
  6608  002BB2  6E15               	movwf	_BothEP0OutUOWNsSet,c	;volatile
  6609                           
  6610                           ;usb_device.c: 2479: controlTransferState = 0;
  6611  002BB4  0E00               	movlw	0
  6612  002BB6  6E1F               	movwf	_controlTransferState,c	;volatile
  6613                           
  6614                           ;usb_device.c: 2488: pBDTEntryIn[0]->STAT.Val &= ~(0x80);
  6615  002BB8  C00A  FFD9         	movff	_pBDTEntryIn,fsr2l
  6616  002BBC  C00B  FFDA         	movff	_pBDTEntryIn+1,fsr2h
  6617  002BC0  0E7F               	movlw	127
  6618  002BC2  16DF               	andwf	indf2,f,c
  6619                           
  6620                           ;usb_device.c: 2489: ((uint8_t_VAL*)&pBDTEntryIn[0])->Val ^= 0x0004;
  6621  002BC4  0E04               	movlw	4
  6622  002BC6  1A0A               	xorwf	_pBDTEntryIn,f,c
  6623                           
  6624                           ;usb_device.c: 2490: pBDTEntryIn[0]->STAT.Val &= ~(0x80);
  6625  002BC8  C00A  FFD9         	movff	_pBDTEntryIn,fsr2l
  6626  002BCC  C00B  FFDA         	movff	_pBDTEntryIn+1,fsr2h
  6627  002BD0  0E7F               	movlw	127
  6628  002BD2  16DF               	andwf	indf2,f,c
  6629                           
  6630                           ;usb_device.c: 2491: ((uint8_t_VAL*)&pBDTEntryIn[0])->Val ^= 0x0004;
  6631  002BD4  0E04               	movlw	4
  6632  002BD6  1A0A               	xorwf	_pBDTEntryIn,f,c
  6633                           
  6634                           ;usb_device.c: 2492: pBDTEntryEP0OutNext->STAT.Val &= ~(0x80);
  6635  002BD8  C012  FFD9         	movff	_pBDTEntryEP0OutNext,fsr2l
  6636  002BDC  C013  FFDA         	movff	_pBDTEntryEP0OutNext+1,fsr2h
  6637  002BE0  0E7F               	movlw	127
  6638  002BE2  16DF               	andwf	indf2,f,c
  6639                           
  6640                           ;usb_device.c: 2494: inPipes[0].info.Val = 0;
  6641  002BE4  0E00               	movlw	0
  6642  002BE6  6E28               	movwf	_inPipes+3,c	;volatile
  6643                           
  6644                           ;usb_device.c: 2495: inPipes[0].wCount.Val = 0;
  6645  002BE8  0E00               	movlw	0
  6646  002BEA  6E2A               	movwf	_inPipes+5,c	;volatile
  6647  002BEC  0E00               	movlw	0
  6648  002BEE  6E29               	movwf	_inPipes+4,c	;volatile
  6649                           
  6650                           ;usb_device.c: 2496: outPipes[0].info.Val = 0;
  6651  002BF0  0E00               	movlw	0
  6652  002BF2  6E04               	movwf	_outPipes+3,c	;volatile
  6653                           
  6654                           ;usb_device.c: 2497: outPipes[0].wCount.Val = 0;
  6655  002BF4  0E00               	movlw	0
  6656  002BF6  6E06               	movwf	_outPipes+5,c	;volatile
  6657  002BF8  0E00               	movlw	0
  6658  002BFA  6E05               	movwf	_outPipes+4,c	;volatile
  6659                           
  6660                           ;usb_device.c: 2503: USBCheckStdRequest();
  6661  002BFC  EC2E  F00F         	call	_USBCheckStdRequest	;wreg free
  6662                           
  6663                           ;usb_device.c: 2504: USER_USB_CALLBACK_EVENT_HANDLER(EVENT_EP0_REQUEST,0,0);
  6664  002C00  0E00               	movlw	0
  6665  002C02  6E3A               	movwf	USER_USB_CALLBACK_EVENT_HANDLER@event+1,c
  6666  002C04  0E03               	movlw	3
  6667  002C06  6E39               	movwf	USER_USB_CALLBACK_EVENT_HANDLER@event,c
  6668  002C08  0E00               	movlw	0
  6669  002C0A  6E3B               	movwf	USER_USB_CALLBACK_EVENT_HANDLER@pdata,c
  6670  002C0C  0E00               	movlw	0
  6671  002C0E  6E3C               	movwf	USER_USB_CALLBACK_EVENT_HANDLER@pdata+1,c
  6672  002C10  0E00               	movlw	0
  6673  002C12  6E3E               	movwf	USER_USB_CALLBACK_EVENT_HANDLER@size+1,c
  6674  002C14  0E00               	movlw	0
  6675  002C16  6E3D               	movwf	USER_USB_CALLBACK_EVENT_HANDLER@size,c
  6676  002C18  EC98  F018         	call	_USER_USB_CALLBACK_EVENT_HANDLER	;wreg free
  6677                           
  6678                           ;usb_device.c: 2517: USBCtrlEPServiceComplete();
  6679  002C1C  EC37  F00E         	call	_USBCtrlEPServiceComplete	;wreg free
  6680  002C20  0012               	return		;funcret
  6681  002C22                     __end_of_USBCtrlTrfSetupHandler:
  6682                           	opt stack 0
  6683                           pclatu	equ	0xFFB
  6684                           pclath	equ	0xFFA
  6685                           tblptru	equ	0xFF8
  6686                           tblptrh	equ	0xFF7
  6687                           tblptrl	equ	0xFF6
  6688                           tablat	equ	0xFF5
  6689                           prodh	equ	0xFF4
  6690                           prodl	equ	0xFF3
  6691                           intcon	equ	0xFF2
  6692                           intcon2	equ	0xFF1
  6693                           indf0	equ	0xFEF
  6694                           postinc0	equ	0xFEE
  6695                           fsr0h	equ	0xFEA
  6696                           fsr0l	equ	0xFE9
  6697                           wreg	equ	0xFE8
  6698                           indf1	equ	0xFE7
  6699                           fsr1h	equ	0xFE2
  6700                           fsr1l	equ	0xFE1
  6701                           indf2	equ	0xFDF
  6702                           postinc2	equ	0xFDE
  6703                           postdec2	equ	0xFDD
  6704                           plusw2	equ	0xFDB
  6705                           fsr2h	equ	0xFDA
  6706                           fsr2l	equ	0xFD9
  6707                           status	equ	0xFD8
  6708                           
  6709 ;; *************** function _USBCtrlEPServiceComplete *****************
  6710 ;; Defined at:
  6711 ;;		line 1616 in file "../My_header/usb_cdc/usb/usb_device.c"
  6712 ;; Parameters:    Size  Location     Type
  6713 ;;		None
  6714 ;; Auto vars:     Size  Location     Type
  6715 ;;		None
  6716 ;; Return value:  Size  Location     Type
  6717 ;;		None               void
  6718 ;; Registers used:
  6719 ;;		wreg, fsr0l, fsr0h, fsr2l, fsr2h, status,2, status,0, tblptrl, tblptrh, tblptru, cstack
  6720 ;; Tracked objects:
  6721 ;;		On entry : 0/0
  6722 ;;		On exit  : 0/0
  6723 ;;		Unchanged: 0/0
  6724 ;; Data sizes:     COMRAM   BANK0   BANK1   BANK2   BANK3   BANK4   BANK5   BANK6   BANK7   BANK8   BANK9  BANK10  BANK1
      +1  BANK12  BANK13  BANK14
  6725 ;;      Params:         0       0       0       0       0       0       0       0       0       0       0       0       
      +0       0       0       0
  6726 ;;      Locals:         0       0       0       0       0       0       0       0       0       0       0       0       
      +0       0       0       0
  6727 ;;      Temps:          0       0       0       0       0       0       0       0       0       0       0       0       
      +0       0       0       0
  6728 ;;      Totals:         0       0       0       0       0       0       0       0       0       0       0       0       
      +0       0       0       0
  6729 ;;Total ram usage:        0 bytes
  6730 ;; Hardware stack levels used:    1
  6731 ;; Hardware stack levels required when called:    2
  6732 ;; This function calls:
  6733 ;;		_USBCtrlEPAllowDataStage
  6734 ;;		_USBCtrlEPAllowStatusStage
  6735 ;; This function is called by:
  6736 ;;		_USBCtrlTrfSetupHandler
  6737 ;; This function uses a non-reentrant model
  6738 ;;
  6739                           
  6740                           	psect	text39
  6741  001C6E                     __ptext39:
  6742                           	opt stack 0
  6743  001C6E                     _USBCtrlEPServiceComplete:
  6744                           	opt stack 18
  6745                           
  6746                           ;usb_device.c: 1622: UCONbits.PKTDIS = 0;
  6747                           
  6748                           ;incstack = 0
  6749  001C6E  9865               	bcf	3941,4,c	;volatile
  6750                           
  6751                           ;usb_device.c: 1628: if(inPipes[0].info.bits.busy == 0)
  6752  001C70  BE28               	btfsc	_inPipes+3,7,c	;volatile
  6753  001C72  D03A               	goto	i2l833
  6754                           
  6755                           ;usb_device.c: 1629: {
  6756                           ;usb_device.c: 1630: if(outPipes[0].info.bits.busy == 1)
  6757  001C74  AE04               	btfss	_outPipes+3,7,c	;volatile
  6758  001C76  D00D               	goto	i2l4538
  6759                           
  6760                           ;usb_device.c: 1631: {
  6761                           ;usb_device.c: 1632: controlTransferState = 2;
  6762  001C78  0E02               	movlw	2
  6763  001C7A  6E1F               	movwf	_controlTransferState,c	;volatile
  6764                           
  6765                           ;usb_device.c: 1643: if(USBDeferOUTDataStagePackets == 0)
  6766  001C7C  5018               	movf	_USBDeferOUTDataStagePackets,w,c	;volatile
  6767  001C7E  A4D8               	btfss	status,2,c
  6768  001C80  D003               	goto	i2l4534
  6769                           
  6770                           ;usb_device.c: 1644: {
  6771                           ;usb_device.c: 1645: USBCtrlEPAllowDataStage();
  6772  001C82  ECED  F014         	call	_USBCtrlEPAllowDataStage	;wreg free
  6773  001C86  D000               	goto	i2l4534
  6774  001C88                     i2l4534:
  6775                           
  6776                           ;usb_device.c: 1646: }
  6777                           ;usb_device.c: 1650: USBStatusStageEnabledFlag2 = 0;
  6778  001C88  0E00               	movlw	0
  6779  001C8A  6E1C               	movwf	_USBStatusStageEnabledFlag2,c	;volatile
  6780                           
  6781                           ;usb_device.c: 1651: USBStatusStageEnabledFlag1 = 0;
  6782  001C8C  0E00               	movlw	0
  6783  001C8E  6E1B               	movwf	_USBStatusStageEnabledFlag1,c	;volatile
  6784                           
  6785                           ;usb_device.c: 1652: }
  6786  001C90  0012               	return	
  6787  001C92                     i2l4538:
  6788                           
  6789                           ;usb_device.c: 1653: else
  6790                           ;usb_device.c: 1654: {
  6791                           ;usb_device.c: 1659: pBDTEntryEP0OutNext->CNT = 8;
  6792  001C92  EE20 F001          	lfsr	2,1
  6793  001C96  5012               	movf	_pBDTEntryEP0OutNext,w,c
  6794  001C98  26D9               	addwf	fsr2l,f,c
  6795  001C9A  5013               	movf	_pBDTEntryEP0OutNext+1,w,c
  6796  001C9C  22DA               	addwfc	fsr2h,f,c
  6797  001C9E  0E08               	movlw	8
  6798  001CA0  6EDF               	movwf	indf2,c
  6799                           
  6800                           ;usb_device.c: 1660: pBDTEntryEP0OutNext->ADR = ((uint16_t)(&SetupPkt));
  6801  001CA2  EE20 F002          	lfsr	2,2
  6802  001CA6  5012               	movf	_pBDTEntryEP0OutNext,w,c
  6803  001CA8  26D9               	addwf	fsr2l,f,c
  6804  001CAA  5013               	movf	_pBDTEntryEP0OutNext+1,w,c
  6805  001CAC  22DA               	addwfc	fsr2h,f,c
  6806  001CAE  0E30               	movlw	48
  6807  001CB0  6EDE               	movwf	postinc2,c
  6808  001CB2  0E0D               	movlw	13
  6809  001CB4  6EDD               	movwf	postdec2,c
  6810                           
  6811                           ;usb_device.c: 1661: pBDTEntryEP0OutNext->STAT.Val = 0x00|(0x08 & 0x08)|0x04;
  6812  001CB6  C012  FFD9         	movff	_pBDTEntryEP0OutNext,fsr2l
  6813  001CBA  C013  FFDA         	movff	_pBDTEntryEP0OutNext+1,fsr2h
  6814  001CBE  0E0C               	movlw	12
  6815  001CC0  6EDF               	movwf	indf2,c
  6816                           
  6817                           ;usb_device.c: 1662: pBDTEntryEP0OutNext->STAT.Val |= 0x80;
  6818  001CC2  C012  FFD9         	movff	_pBDTEntryEP0OutNext,fsr2l
  6819  001CC6  C013  FFDA         	movff	_pBDTEntryEP0OutNext+1,fsr2h
  6820  001CCA  0E00               	movlw	0
  6821  001CCC  8EDB               	bsf	plusw2,7,c
  6822                           
  6823                           ;usb_device.c: 1663: pBDTEntryIn[0]->STAT.Val = 0x04;
  6824  001CCE  C00A  FFD9         	movff	_pBDTEntryIn,fsr2l
  6825  001CD2  C00B  FFDA         	movff	_pBDTEntryIn+1,fsr2h
  6826  001CD6  0E04               	movlw	4
  6827  001CD8  6EDF               	movwf	indf2,c
  6828                           
  6829                           ;usb_device.c: 1664: pBDTEntryIn[0]->STAT.Val |= 0x80;
  6830  001CDA  C00A  FFD9         	movff	_pBDTEntryIn,fsr2l
  6831  001CDE  C00B  FFDA         	movff	_pBDTEntryIn+1,fsr2h
  6832  001CE2  0E00               	movlw	0
  6833  001CE4  8EDB               	bsf	plusw2,7,c
  6834                           
  6835                           ;usb_device.c: 1665: }
  6836                           ;usb_device.c: 1666: }
  6837  001CE6  0012               	return	
  6838  001CE8                     i2l833:
  6839                           
  6840                           ;usb_device.c: 1667: else
  6841                           ;usb_device.c: 1668: {
  6842                           ;usb_device.c: 1669: if(SetupPkt.DataDir == (0x80>>7))
  6843  001CE8  010D               	movlb	13	; () banked
  6844  001CEA  AF30               	btfss	48,7,b	;volatile
  6845  001CEC  D012               	goto	i2l4558
  6846                           
  6847                           ; BSR set to: 13
  6848                           ;usb_device.c: 1670: {
  6849                           ;usb_device.c: 1671: controlTransferState = 1;
  6850  001CEE  0E01               	movlw	1
  6851  001CF0  6E1F               	movwf	_controlTransferState,c	;volatile
  6852                           
  6853                           ;usb_device.c: 1685: if(USBDeferINDataStagePackets == 0)
  6854  001CF2  5017               	movf	_USBDeferINDataStagePackets,w,c	;volatile
  6855  001CF4  A4D8               	btfss	status,2,c
  6856  001CF6  D003               	goto	i2l4550
  6857                           
  6858                           ; BSR set to: 13
  6859                           ;usb_device.c: 1686: {
  6860                           ;usb_device.c: 1687: USBCtrlEPAllowDataStage();
  6861  001CF8  ECED  F014         	call	_USBCtrlEPAllowDataStage	;wreg free
  6862  001CFC  D000               	goto	i2l4550
  6863  001CFE                     i2l4550:
  6864                           
  6865                           ;usb_device.c: 1688: }
  6866                           ;usb_device.c: 1710: USBStatusStageEnabledFlag2 = 0;
  6867  001CFE  0E00               	movlw	0
  6868  001D00  6E1C               	movwf	_USBStatusStageEnabledFlag2,c	;volatile
  6869                           
  6870                           ;usb_device.c: 1711: USBStatusStageEnabledFlag1 = 0;
  6871  001D02  0E00               	movlw	0
  6872  001D04  6E1B               	movwf	_USBStatusStageEnabledFlag1,c	;volatile
  6873                           
  6874                           ;usb_device.c: 1712: if(USBDeferStatusStagePacket == 0)
  6875  001D06  5019               	movf	_USBDeferStatusStagePacket,w,c	;volatile
  6876  001D08  A4D8               	btfss	status,2,c
  6877  001D0A  0012               	return	
  6878                           
  6879                           ;usb_device.c: 1713: {
  6880                           ;usb_device.c: 1714: USBCtrlEPAllowStatusStage();
  6881  001D0C  EC56  F011         	call	_USBCtrlEPAllowStatusStage	;wreg free
  6882                           
  6883                           ;usb_device.c: 1715: }
  6884                           ;usb_device.c: 1716: }
  6885  001D10  0012               	return	
  6886  001D12                     i2l4558:
  6887                           
  6888                           ;usb_device.c: 1717: else
  6889                           ;usb_device.c: 1718: {
  6890                           ;usb_device.c: 1729: controlTransferState = 2;
  6891  001D12  0E02               	movlw	2
  6892  001D14  6E1F               	movwf	_controlTransferState,c	;volatile
  6893                           
  6894                           ;usb_device.c: 1732: pBDTEntryEP0OutNext->CNT = 8;
  6895  001D16  EE20 F001          	lfsr	2,1
  6896  001D1A  5012               	movf	_pBDTEntryEP0OutNext,w,c
  6897  001D1C  26D9               	addwf	fsr2l,f,c
  6898  001D1E  5013               	movf	_pBDTEntryEP0OutNext+1,w,c
  6899  001D20  22DA               	addwfc	fsr2h,f,c
  6900  001D22  0E08               	movlw	8
  6901  001D24  6EDF               	movwf	indf2,c
  6902                           
  6903                           ;usb_device.c: 1733: pBDTEntryEP0OutNext->ADR = ((uint16_t)(&SetupPkt));
  6904  001D26  EE20 F002          	lfsr	2,2
  6905  001D2A  5012               	movf	_pBDTEntryEP0OutNext,w,c
  6906  001D2C  26D9               	addwf	fsr2l,f,c
  6907  001D2E  5013               	movf	_pBDTEntryEP0OutNext+1,w,c
  6908  001D30  22DA               	addwfc	fsr2h,f,c
  6909  001D32  0E30               	movlw	48
  6910  001D34  6EDE               	movwf	postinc2,c
  6911  001D36  0E0D               	movlw	13
  6912  001D38  6EDD               	movwf	postdec2,c
  6913                           
  6914                           ;usb_device.c: 1734: pBDTEntryEP0OutNext->STAT.Val = 0x04;
  6915  001D3A  C012  FFD9         	movff	_pBDTEntryEP0OutNext,fsr2l
  6916  001D3E  C013  FFDA         	movff	_pBDTEntryEP0OutNext+1,fsr2h
  6917  001D42  0E04               	movlw	4
  6918  001D44  6EDF               	movwf	indf2,c
  6919                           
  6920                           ;usb_device.c: 1735: pBDTEntryEP0OutNext->STAT.Val |= 0x80;
  6921  001D46  C012  FFD9         	movff	_pBDTEntryEP0OutNext,fsr2l
  6922  001D4A  C013  FFDA         	movff	_pBDTEntryEP0OutNext+1,fsr2h
  6923  001D4E  0E00               	movlw	0
  6924  001D50  8EDB               	bsf	plusw2,7,c
  6925                           
  6926                           ;usb_device.c: 1738: USBStatusStageEnabledFlag2 = 0;
  6927  001D52  0E00               	movlw	0
  6928  001D54  6E1C               	movwf	_USBStatusStageEnabledFlag2,c	;volatile
  6929                           
  6930                           ;usb_device.c: 1739: USBStatusStageEnabledFlag1 = 0;
  6931  001D56  0E00               	movlw	0
  6932  001D58  6E1B               	movwf	_USBStatusStageEnabledFlag1,c	;volatile
  6933                           
  6934                           ;usb_device.c: 1740: if(USBDeferStatusStagePacket == 0)
  6935  001D5A  5019               	movf	_USBDeferStatusStagePacket,w,c	;volatile
  6936  001D5C  A4D8               	btfss	status,2,c
  6937  001D5E  0012               	return	
  6938                           
  6939                           ;usb_device.c: 1741: {
  6940                           ;usb_device.c: 1742: USBCtrlEPAllowStatusStage();
  6941  001D60  EC56  F011         	call	_USBCtrlEPAllowStatusStage	;wreg free
  6942  001D64  0012               	return	
  6943  001D66  0012               	return		;funcret
  6944  001D68                     __end_of_USBCtrlEPServiceComplete:
  6945                           	opt stack 0
  6946                           pclatu	equ	0xFFB
  6947                           pclath	equ	0xFFA
  6948                           tblptru	equ	0xFF8
  6949                           tblptrh	equ	0xFF7
  6950                           tblptrl	equ	0xFF6
  6951                           tablat	equ	0xFF5
  6952                           prodh	equ	0xFF4
  6953                           prodl	equ	0xFF3
  6954                           intcon	equ	0xFF2
  6955                           intcon2	equ	0xFF1
  6956                           indf0	equ	0xFEF
  6957                           postinc0	equ	0xFEE
  6958                           fsr0h	equ	0xFEA
  6959                           fsr0l	equ	0xFE9
  6960                           wreg	equ	0xFE8
  6961                           indf1	equ	0xFE7
  6962                           fsr1h	equ	0xFE2
  6963                           fsr1l	equ	0xFE1
  6964                           indf2	equ	0xFDF
  6965                           postinc2	equ	0xFDE
  6966                           postdec2	equ	0xFDD
  6967                           plusw2	equ	0xFDB
  6968                           fsr2h	equ	0xFDA
  6969                           fsr2l	equ	0xFD9
  6970                           status	equ	0xFD8
  6971                           
  6972 ;; *************** function _USBCtrlEPAllowDataStage *****************
  6973 ;; Defined at:
  6974 ;;		line 1488 in file "../My_header/usb_cdc/usb/usb_device.c"
  6975 ;; Parameters:    Size  Location     Type
  6976 ;;		None
  6977 ;; Auto vars:     Size  Location     Type
  6978 ;;		None
  6979 ;; Return value:  Size  Location     Type
  6980 ;;		None               void
  6981 ;; Registers used:
  6982 ;;		wreg, fsr0l, fsr0h, fsr2l, fsr2h, status,2, status,0, tblptrl, tblptrh, tblptru, cstack
  6983 ;; Tracked objects:
  6984 ;;		On entry : 0/0
  6985 ;;		On exit  : 0/0
  6986 ;;		Unchanged: 0/0
  6987 ;; Data sizes:     COMRAM   BANK0   BANK1   BANK2   BANK3   BANK4   BANK5   BANK6   BANK7   BANK8   BANK9  BANK10  BANK1
      +1  BANK12  BANK13  BANK14
  6988 ;;      Params:         0       0       0       0       0       0       0       0       0       0       0       0       
      +0       0       0       0
  6989 ;;      Locals:         0       0       0       0       0       0       0       0       0       0       0       0       
      +0       0       0       0
  6990 ;;      Temps:          0       0       0       0       0       0       0       0       0       0       0       0       
      +0       0       0       0
  6991 ;;      Totals:         0       0       0       0       0       0       0       0       0       0       0       0       
      +0       0       0       0
  6992 ;;Total ram usage:        0 bytes
  6993 ;; Hardware stack levels used:    1
  6994 ;; Hardware stack levels required when called:    1
  6995 ;; This function calls:
  6996 ;;		_USBCtrlTrfTxService
  6997 ;; This function is called by:
  6998 ;;		_USBCtrlEPServiceComplete
  6999 ;; This function uses a non-reentrant model
  7000 ;;
  7001                           
  7002                           	psect	text40
  7003  0029DA                     __ptext40:
  7004                           	opt stack 0
  7005  0029DA                     _USBCtrlEPAllowDataStage:
  7006                           	opt stack 18
  7007                           
  7008                           ;usb_device.c: 1490: USBDeferINDataStagePackets = 0;
  7009                           
  7010                           ;incstack = 0
  7011  0029DA  0E00               	movlw	0
  7012  0029DC  6E17               	movwf	_USBDeferINDataStagePackets,c	;volatile
  7013                           
  7014                           ;usb_device.c: 1491: USBDeferOUTDataStagePackets = 0;
  7015  0029DE  0E00               	movlw	0
  7016  0029E0  6E18               	movwf	_USBDeferOUTDataStagePackets,c	;volatile
  7017                           
  7018                           ;usb_device.c: 1493: if(controlTransferState == 2)
  7019  0029E2  0E02               	movlw	2
  7020  0029E4  181F               	xorwf	_controlTransferState,w,c	;volatile
  7021  0029E6  A4D8               	btfss	status,2,c
  7022  0029E8  D01F               	goto	i2l4298
  7023                           
  7024                           ;usb_device.c: 1494: {
  7025                           ;usb_device.c: 1496: pBDTEntryEP0OutNext->CNT = 8;
  7026  0029EA  EE20 F001          	lfsr	2,1
  7027  0029EE  5012               	movf	_pBDTEntryEP0OutNext,w,c
  7028  0029F0  26D9               	addwf	fsr2l,f,c
  7029  0029F2  5013               	movf	_pBDTEntryEP0OutNext+1,w,c
  7030  0029F4  22DA               	addwfc	fsr2h,f,c
  7031  0029F6  0E08               	movlw	8
  7032  0029F8  6EDF               	movwf	indf2,c
  7033                           
  7034                           ;usb_device.c: 1497: pBDTEntryEP0OutNext->ADR = ((uint16_t)(&CtrlTrfData));
  7035  0029FA  EE20 F002          	lfsr	2,2
  7036  0029FE  5012               	movf	_pBDTEntryEP0OutNext,w,c
  7037  002A00  26D9               	addwf	fsr2l,f,c
  7038  002A02  5013               	movf	_pBDTEntryEP0OutNext+1,w,c
  7039  002A04  22DA               	addwfc	fsr2h,f,c
  7040  002A06  0E38               	movlw	56
  7041  002A08  6EDE               	movwf	postinc2,c
  7042  002A0A  0E0D               	movlw	13
  7043  002A0C  6EDD               	movwf	postdec2,c
  7044                           
  7045                           ;usb_device.c: 1498: pBDTEntryEP0OutNext->STAT.Val = 0x40|(0x08 & 0x08);
  7046  002A0E  C012  FFD9         	movff	_pBDTEntryEP0OutNext,fsr2l
  7047  002A12  C013  FFDA         	movff	_pBDTEntryEP0OutNext+1,fsr2h
  7048  002A16  0E48               	movlw	72
  7049  002A18  6EDF               	movwf	indf2,c
  7050                           
  7051                           ;usb_device.c: 1499: pBDTEntryEP0OutNext->STAT.Val |= 0x80;
  7052  002A1A  C012  FFD9         	movff	_pBDTEntryEP0OutNext,fsr2l
  7053  002A1E  C013  FFDA         	movff	_pBDTEntryEP0OutNext+1,fsr2h
  7054  002A22  0E00               	movlw	0
  7055  002A24  8EDB               	bsf	plusw2,7,c
  7056                           
  7057                           ;usb_device.c: 1500: }
  7058  002A26  0012               	return	
  7059  002A28                     i2l4298:
  7060                           
  7061                           ;usb_device.c: 1501: else
  7062                           ;usb_device.c: 1502: {
  7063                           ;usb_device.c: 1505: if(SetupPkt.wLength < inPipes[0].wCount.Val)
  7064  002A28  5029               	movf	_inPipes+4,w,c	;volatile
  7065  002A2A  010D               	movlb	13	; () banked
  7066  002A2C  5D36               	subwf	54,w,b	;volatile
  7067  002A2E  502A               	movf	_inPipes+5,w,c	;volatile
  7068  002A30  010D               	movlb	13	; () banked
  7069  002A32  5937               	subwfb	55,w,b	;volatile
  7070  002A34  B0D8               	btfsc	status,0,c
  7071  002A36  D005               	goto	i2l4302
  7072                           
  7073                           ; BSR set to: 13
  7074                           ;usb_device.c: 1506: {
  7075                           ;usb_device.c: 1507: inPipes[0].wCount.Val = SetupPkt.wLength;
  7076  002A38  CD36 F029          	movff	3382,_inPipes+4	;volatile
  7077  002A3C  CD37 F02A          	movff	3383,_inPipes+5	;volatile
  7078  002A40  D000               	goto	i2l4302
  7079  002A42                     i2l4302:
  7080                           
  7081                           ; BSR set to: 13
  7082                           ;usb_device.c: 1508: }
  7083                           ;usb_device.c: 1509: USBCtrlTrfTxService();
  7084  002A42  EC9F  F00F         	call	_USBCtrlTrfTxService	;wreg free
  7085                           
  7086                           ;usb_device.c: 1514: pBDTEntryIn[0]->ADR = ((uint16_t)(&CtrlTrfData));
  7087  002A46  EE20 F002          	lfsr	2,2
  7088  002A4A  500A               	movf	_pBDTEntryIn,w,c
  7089  002A4C  26D9               	addwf	fsr2l,f,c
  7090  002A4E  500B               	movf	_pBDTEntryIn+1,w,c
  7091  002A50  22DA               	addwfc	fsr2h,f,c
  7092  002A52  0E38               	movlw	56
  7093  002A54  6EDE               	movwf	postinc2,c
  7094  002A56  0E0D               	movlw	13
  7095  002A58  6EDD               	movwf	postdec2,c
  7096                           
  7097                           ;usb_device.c: 1515: pBDTEntryIn[0]->STAT.Val = 0x40|(0x08 & 0x08);
  7098  002A5A  C00A  FFD9         	movff	_pBDTEntryIn,fsr2l
  7099  002A5E  C00B  FFDA         	movff	_pBDTEntryIn+1,fsr2h
  7100  002A62  0E48               	movlw	72
  7101  002A64  6EDF               	movwf	indf2,c
  7102                           
  7103                           ;usb_device.c: 1516: pBDTEntryIn[0]->STAT.Val |= 0x80;
  7104  002A66  C00A  FFD9         	movff	_pBDTEntryIn,fsr2l
  7105  002A6A  C00B  FFDA         	movff	_pBDTEntryIn+1,fsr2h
  7106  002A6E  0E00               	movlw	0
  7107  002A70  8EDB               	bsf	plusw2,7,c
  7108  002A72  0012               	return	
  7109  002A74  0012               	return		;funcret
  7110  002A76                     __end_of_USBCtrlEPAllowDataStage:
  7111                           	opt stack 0
  7112                           pclatu	equ	0xFFB
  7113                           pclath	equ	0xFFA
  7114                           tblptru	equ	0xFF8
  7115                           tblptrh	equ	0xFF7
  7116                           tblptrl	equ	0xFF6
  7117                           tablat	equ	0xFF5
  7118                           prodh	equ	0xFF4
  7119                           prodl	equ	0xFF3
  7120                           intcon	equ	0xFF2
  7121                           intcon2	equ	0xFF1
  7122                           indf0	equ	0xFEF
  7123                           postinc0	equ	0xFEE
  7124                           fsr0h	equ	0xFEA
  7125                           fsr0l	equ	0xFE9
  7126                           wreg	equ	0xFE8
  7127                           indf1	equ	0xFE7
  7128                           fsr1h	equ	0xFE2
  7129                           fsr1l	equ	0xFE1
  7130                           indf2	equ	0xFDF
  7131                           postinc2	equ	0xFDE
  7132                           postdec2	equ	0xFDD
  7133                           plusw2	equ	0xFDB
  7134                           fsr2h	equ	0xFDA
  7135                           fsr2l	equ	0xFD9
  7136                           status	equ	0xFD8
  7137                           
  7138 ;; *************** function _USBCheckStdRequest *****************
  7139 ;; Defined at:
  7140 ;;		line 2689 in file "../My_header/usb_cdc/usb/usb_device.c"
  7141 ;; Parameters:    Size  Location     Type
  7142 ;;		None
  7143 ;; Auto vars:     Size  Location     Type
  7144 ;;		None
  7145 ;; Return value:  Size  Location     Type
  7146 ;;		None               void
  7147 ;; Registers used:
  7148 ;;		wreg, fsr0l, fsr0h, fsr2l, fsr2h, status,2, status,0, tblptrl, tblptrh, tblptru, prodl, prodh, cstack
  7149 ;; Tracked objects:
  7150 ;;		On entry : 0/0
  7151 ;;		On exit  : 0/0
  7152 ;;		Unchanged: 0/0
  7153 ;; Data sizes:     COMRAM   BANK0   BANK1   BANK2   BANK3   BANK4   BANK5   BANK6   BANK7   BANK8   BANK9  BANK10  BANK1
      +1  BANK12  BANK13  BANK14
  7154 ;;      Params:         0       0       0       0       0       0       0       0       0       0       0       0       
      +0       0       0       0
  7155 ;;      Locals:         0       0       0       0       0       0       0       0       0       0       0       0       
      +0       0       0       0
  7156 ;;      Temps:          0       0       0       0       0       0       0       0       0       0       0       0       
      +0       0       0       0
  7157 ;;      Totals:         0       0       0       0       0       0       0       0       0       0       0       0       
      +0       0       0       0
  7158 ;;Total ram usage:        0 bytes
  7159 ;; Hardware stack levels used:    1
  7160 ;; Hardware stack levels required when called:    5
  7161 ;; This function calls:
  7162 ;;		_USBStdFeatureReqHandler
  7163 ;;		_USBStdGetDscHandler
  7164 ;;		_USBStdGetStatusHandler
  7165 ;;		_USBStdSetCfgHandler
  7166 ;;		_USER_USB_CALLBACK_EVENT_HANDLER
  7167 ;; This function is called by:
  7168 ;;		_USBCtrlTrfSetupHandler
  7169 ;; This function uses a non-reentrant model
  7170 ;;
  7171                           
  7172                           	psect	text41
  7173  001E5C                     __ptext41:
  7174                           	opt stack 0
  7175  001E5C                     _USBCheckStdRequest:
  7176                           	opt stack 15
  7177                           
  7178                           ;usb_device.c: 2691: if(SetupPkt.RequestType != (0x00>>5)) return;
  7179                           
  7180                           ;incstack = 0
  7181  001E5C  010D               	movlb	13	; () banked
  7182  001E5E  3930               	swapf	48,w,b	;volatile
  7183  001E60  32E8               	rrcf	wreg,f,c
  7184  001E62  0B03               	andlw	3
  7185  001E64  0900               	iorlw	0
  7186  001E66  A4D8               	btfss	status,2,c
  7187  001E68  0012               	return	
  7188  001E6A  D046               	goto	i2l4656
  7189                           
  7190                           ; BSR set to: 13
  7191  001E6C  0012               	return	
  7192                           
  7193                           ; BSR set to: 13
  7194                           ;usb_device.c: 2693: switch(SetupPkt.bRequest)
  7195  001E6E  D044               	goto	i2l4656
  7196  001E70                     i2l960:
  7197                           
  7198                           ; BSR set to: 13
  7199                           ;usb_device.c: 2696: inPipes[0].info.bits.busy = 1;
  7200  001E70  8E28               	bsf	_inPipes+3,7,c	;volatile
  7201                           
  7202                           ; BSR set to: 13
  7203                           ;usb_device.c: 2697: USBDeviceState = ADR_PENDING_STATE;
  7204  001E72  0E08               	movlw	8
  7205  001E74  6E1A               	movwf	_USBDeviceState,c	;volatile
  7206                           
  7207                           ;usb_device.c: 2699: break;
  7208  001E76  0012               	return	
  7209  001E78                     i2l4626:
  7210                           
  7211                           ; BSR set to: 13
  7212                           ;usb_device.c: 2701: USBStdGetDscHandler();
  7213  001E78  EC12  F00D         	call	_USBStdGetDscHandler	;wreg free
  7214                           
  7215                           ;usb_device.c: 2702: break;
  7216  001E7C  0012               	return	
  7217  001E7E                     i2l4628:
  7218                           
  7219                           ;usb_device.c: 2704: USBStdSetCfgHandler();
  7220  001E7E  EC7F  F010         	call	_USBStdSetCfgHandler	;wreg free
  7221                           
  7222                           ;usb_device.c: 2705: break;
  7223  001E82  0012               	return	
  7224  001E84                     i2l4630:
  7225                           
  7226                           ;usb_device.c: 2707: inPipes[0].pSrc.bRam = (uint8_t*)&USBActiveConfiguration;
  7227  001E84  0E2B               	movlw	low _USBActiveConfiguration
  7228  001E86  6E25               	movwf	_inPipes,c	;volatile
  7229  001E88  0E00               	movlw	high _USBActiveConfiguration
  7230  001E8A  6E26               	movwf	_inPipes+1,c	;volatile
  7231                           
  7232                           ;usb_device.c: 2708: inPipes[0].info.bits.ctrl_trf_mem = 0x01;
  7233  001E8C  8028               	bsf	_inPipes+3,0,c	;volatile
  7234                           
  7235                           ;usb_device.c: 2709: inPipes[0].wCount.v[0] = 1;
  7236  001E8E  0E01               	movlw	1
  7237  001E90  6E29               	movwf	_inPipes+4,c	;volatile
  7238                           
  7239                           ;usb_device.c: 2710: inPipes[0].info.bits.busy = 1;
  7240  001E92  8E28               	bsf	_inPipes+3,7,c	;volatile
  7241                           
  7242                           ;usb_device.c: 2711: break;
  7243  001E94  0012               	return	
  7244  001E96                     i2l4638:
  7245                           
  7246                           ;usb_device.c: 2713: USBStdGetStatusHandler();
  7247  001E96  EC93  F013         	call	_USBStdGetStatusHandler	;wreg free
  7248                           
  7249                           ;usb_device.c: 2714: break;
  7250  001E9A  0012               	return	
  7251                           
  7252                           ;usb_device.c: 2715: case 1:
  7253  001E9C  D000               	goto	i2l4640
  7254  001E9E                     i2l4640:
  7255                           
  7256                           ;usb_device.c: 2716: case 3:
  7257                           ;usb_device.c: 2717: USBStdFeatureReqHandler();
  7258  001E9E  ECFB  F008         	call	_USBStdFeatureReqHandler	;wreg free
  7259                           
  7260                           ;usb_device.c: 2718: break;
  7261  001EA2  0012               	return	
  7262  001EA4                     i2l4642:
  7263                           
  7264                           ;usb_device.c: 2720: inPipes[0].pSrc.bRam = (uint8_t*)&USBAlternateInterface[SetupPkt.bI
      +                          ntfID];
  7265  001EA4  010D               	movlb	13	; () banked
  7266  001EA6  5134               	movf	52,w,b	;volatile
  7267  001EA8  0D01               	mullw	1
  7268  001EAA  0E87               	movlw	low _USBAlternateInterface
  7269  001EAC  24F3               	addwf	prodl,w,c
  7270  001EAE  6E25               	movwf	_inPipes,c	;volatile
  7271  001EB0  0E00               	movlw	high _USBAlternateInterface
  7272  001EB2  20F4               	addwfc	prodh,w,c
  7273  001EB4  6E26               	movwf	_inPipes+1,c	;volatile
  7274                           
  7275                           ; BSR set to: 13
  7276                           ;usb_device.c: 2721: inPipes[0].info.bits.ctrl_trf_mem = 0x01;
  7277  001EB6  8028               	bsf	_inPipes+3,0,c	;volatile
  7278                           
  7279                           ; BSR set to: 13
  7280                           ;usb_device.c: 2722: inPipes[0].wCount.v[0] = 1;
  7281  001EB8  0E01               	movlw	1
  7282  001EBA  6E29               	movwf	_inPipes+4,c	;volatile
  7283                           
  7284                           ; BSR set to: 13
  7285                           ;usb_device.c: 2723: inPipes[0].info.bits.busy = 1;
  7286  001EBC  8E28               	bsf	_inPipes+3,7,c	;volatile
  7287                           
  7288                           ;usb_device.c: 2724: break;
  7289  001EBE  0012               	return	
  7290  001EC0                     i2l969:
  7291                           
  7292                           ; BSR set to: 13
  7293                           ;usb_device.c: 2726: inPipes[0].info.bits.busy = 1;
  7294  001EC0  8E28               	bsf	_inPipes+3,7,c	;volatile
  7295                           
  7296                           ; BSR set to: 13
  7297                           ;usb_device.c: 2727: USBAlternateInterface[SetupPkt.bIntfID] = SetupPkt.bAltID;
  7298  001EC2  010D               	movlb	13	; () banked
  7299  001EC4  5134               	movf	52,w,b	;volatile
  7300  001EC6  0D01               	mullw	1
  7301  001EC8  0E87               	movlw	low _USBAlternateInterface
  7302  001ECA  24F3               	addwf	prodl,w,c
  7303  001ECC  6ED9               	movwf	fsr2l,c
  7304  001ECE  0E00               	movlw	high _USBAlternateInterface
  7305  001ED0  20F4               	addwfc	prodh,w,c
  7306  001ED2  6EDA               	movwf	fsr2h,c
  7307  001ED4  CD32 FFDF          	movff	3378,indf2	;volatile
  7308                           
  7309                           ;usb_device.c: 2728: break;
  7310  001ED8  0012               	return	
  7311  001EDA                     i2l4652:
  7312                           
  7313                           ; BSR set to: 13
  7314                           ;usb_device.c: 2730: USER_USB_CALLBACK_EVENT_HANDLER(EVENT_SET_DESCRIPTOR,0,0);
  7315  001EDA  0E00               	movlw	0
  7316  001EDC  6E3A               	movwf	USER_USB_CALLBACK_EVENT_HANDLER@event+1,c
  7317  001EDE  0E02               	movlw	2
  7318  001EE0  6E39               	movwf	USER_USB_CALLBACK_EVENT_HANDLER@event,c
  7319  001EE2  0E00               	movlw	0
  7320  001EE4  6E3B               	movwf	USER_USB_CALLBACK_EVENT_HANDLER@pdata,c
  7321  001EE6  0E00               	movlw	0
  7322  001EE8  6E3C               	movwf	USER_USB_CALLBACK_EVENT_HANDLER@pdata+1,c
  7323  001EEA  0E00               	movlw	0
  7324  001EEC  6E3E               	movwf	USER_USB_CALLBACK_EVENT_HANDLER@size+1,c
  7325  001EEE  0E00               	movlw	0
  7326  001EF0  6E3D               	movwf	USER_USB_CALLBACK_EVENT_HANDLER@size,c
  7327  001EF2  EC98  F018         	call	_USER_USB_CALLBACK_EVENT_HANDLER	;wreg free
  7328                           
  7329                           ;usb_device.c: 2735: }
  7330                           
  7331                           ;usb_device.c: 2734: break;
  7332                           
  7333                           ;usb_device.c: 2733: default:
  7334                           
  7335                           ;usb_device.c: 2732: case 12:
  7336                           
  7337                           ;usb_device.c: 2731: break;
  7338  001EF6  0012               	return	
  7339  001EF8                     i2l4656:
  7340  001EF8  010D               	movlb	13	; () banked
  7341  001EFA  5131               	movf	49,w,b	;volatile
  7342                           
  7343                           ; Switch size 1, requested type "space"
  7344                           ; Number of cases is 11, Range of values is 0 to 12
  7345                           ; switch strategies available:
  7346                           ; Name         Instructions Cycles
  7347                           ; simple_byte           34    18 (average)
  7348                           ;	Chosen strategy is simple_byte
  7349  001EFC  0A00               	xorlw	0	; case 0
  7350  001EFE  B4D8               	btfsc	status,2,c
  7351  001F00  D7CA               	goto	i2l4638
  7352  001F02  0A01               	xorlw	1	; case 1
  7353  001F04  B4D8               	btfsc	status,2,c
  7354  001F06  D7CB               	goto	i2l4640
  7355  001F08  0A02               	xorlw	2	; case 3
  7356  001F0A  B4D8               	btfsc	status,2,c
  7357  001F0C  D7C8               	goto	i2l4640
  7358  001F0E  0A06               	xorlw	6	; case 5
  7359  001F10  B4D8               	btfsc	status,2,c
  7360  001F12  D7AE               	goto	i2l960
  7361  001F14  0A03               	xorlw	3	; case 6
  7362  001F16  B4D8               	btfsc	status,2,c
  7363  001F18  D7AF               	goto	i2l4626
  7364  001F1A  0A01               	xorlw	1	; case 7
  7365  001F1C  B4D8               	btfsc	status,2,c
  7366  001F1E  D7DD               	goto	i2l4652
  7367  001F20  0A0F               	xorlw	15	; case 8
  7368  001F22  B4D8               	btfsc	status,2,c
  7369  001F24  D7AF               	goto	i2l4630
  7370  001F26  0A01               	xorlw	1	; case 9
  7371  001F28  B4D8               	btfsc	status,2,c
  7372  001F2A  D7A9               	goto	i2l4628
  7373  001F2C  0A03               	xorlw	3	; case 10
  7374  001F2E  B4D8               	btfsc	status,2,c
  7375  001F30  D7B9               	goto	i2l4642
  7376  001F32  0A01               	xorlw	1	; case 11
  7377  001F34  B4D8               	btfsc	status,2,c
  7378  001F36  D7C4               	goto	i2l969
  7379  001F38  0A07               	xorlw	7	; case 12
  7380  001F3A  0012               	return	
  7381                           
  7382                           ; BSR set to: 13
  7383  001F3C  0012               	return		;funcret
  7384  001F3E                     __end_of_USBCheckStdRequest:
  7385                           	opt stack 0
  7386                           pclatu	equ	0xFFB
  7387                           pclath	equ	0xFFA
  7388                           tblptru	equ	0xFF8
  7389                           tblptrh	equ	0xFF7
  7390                           tblptrl	equ	0xFF6
  7391                           tablat	equ	0xFF5
  7392                           prodh	equ	0xFF4
  7393                           prodl	equ	0xFF3
  7394                           intcon	equ	0xFF2
  7395                           intcon2	equ	0xFF1
  7396                           indf0	equ	0xFEF
  7397                           postinc0	equ	0xFEE
  7398                           fsr0h	equ	0xFEA
  7399                           fsr0l	equ	0xFE9
  7400                           wreg	equ	0xFE8
  7401                           indf1	equ	0xFE7
  7402                           fsr1h	equ	0xFE2
  7403                           fsr1l	equ	0xFE1
  7404                           indf2	equ	0xFDF
  7405                           postinc2	equ	0xFDE
  7406                           postdec2	equ	0xFDD
  7407                           plusw2	equ	0xFDB
  7408                           fsr2h	equ	0xFDA
  7409                           fsr2l	equ	0xFD9
  7410                           status	equ	0xFD8
  7411                           
  7412 ;; *************** function _USBStdSetCfgHandler *****************
  7413 ;; Defined at:
  7414 ;;		line 1968 in file "../My_header/usb_cdc/usb/usb_device.c"
  7415 ;; Parameters:    Size  Location     Type
  7416 ;;		None
  7417 ;; Auto vars:     Size  Location     Type
  7418 ;;  i               1   20[COMRAM] unsigned char 
  7419 ;; Return value:  Size  Location     Type
  7420 ;;		None               void
  7421 ;; Registers used:
  7422 ;;		wreg, fsr2l, fsr2h, status,2, status,0, prodl, prodh, cstack
  7423 ;; Tracked objects:
  7424 ;;		On entry : 0/0
  7425 ;;		On exit  : 0/0
  7426 ;;		Unchanged: 0/0
  7427 ;; Data sizes:     COMRAM   BANK0   BANK1   BANK2   BANK3   BANK4   BANK5   BANK6   BANK7   BANK8   BANK9  BANK10  BANK1
      +1  BANK12  BANK13  BANK14
  7428 ;;      Params:         0       0       0       0       0       0       0       0       0       0       0       0       
      +0       0       0       0
  7429 ;;      Locals:         1       0       0       0       0       0       0       0       0       0       0       0       
      +0       0       0       0
  7430 ;;      Temps:          0       0       0       0       0       0       0       0       0       0       0       0       
      +0       0       0       0
  7431 ;;      Totals:         1       0       0       0       0       0       0       0       0       0       0       0       
      +0       0       0       0
  7432 ;;Total ram usage:        1 bytes
  7433 ;; Hardware stack levels used:    1
  7434 ;; Hardware stack levels required when called:    4
  7435 ;; This function calls:
  7436 ;;		_USER_USB_CALLBACK_EVENT_HANDLER
  7437 ;;		i2_memset
  7438 ;; This function is called by:
  7439 ;;		_USBCheckStdRequest
  7440 ;; This function uses a non-reentrant model
  7441 ;;
  7442                           
  7443                           	psect	text42
  7444  0020FE                     __ptext42:
  7445                           	opt stack 0
  7446  0020FE                     _USBStdSetCfgHandler:
  7447                           	opt stack 15
  7448                           
  7449                           ;usb_device.c: 1970: uint8_t i;
  7450                           ;usb_device.c: 1973: inPipes[0].info.bits.busy = 1;
  7451                           
  7452                           ;incstack = 0
  7453  0020FE  8E28               	bsf	_inPipes+3,7,c	;volatile
  7454                           
  7455                           ;usb_device.c: 1976: memset((void*)&UEP1,0x00,(2));;
  7456  002100  0E27               	movlw	39
  7457  002102  6E2D               	movwf	i2memset@p1,c
  7458  002104  0E0F               	movlw	15
  7459  002106  6E2E               	movwf	i2memset@p1+1,c
  7460  002108  0E00               	movlw	0
  7461  00210A  6E30               	movwf	i2memset@c+1,c
  7462  00210C  0E00               	movlw	0
  7463  00210E  6E2F               	movwf	i2memset@c,c
  7464  002110  0E00               	movlw	0
  7465  002112  6E32               	movwf	i2memset@n+1,c
  7466  002114  0E02               	movlw	2
  7467  002116  6E31               	movwf	i2memset@n,c
  7468  002118  ECC7  F018         	call	i2_memset	;wreg free
  7469                           
  7470                           ;usb_device.c: 1979: memset((void*)&BDT[0], 0x00, sizeof(BDT));
  7471  00211C  0E00               	movlw	0
  7472  00211E  6E2D               	movwf	i2memset@p1,c
  7473  002120  0E0D               	movlw	13
  7474  002122  6E2E               	movwf	i2memset@p1+1,c
  7475  002124  0E00               	movlw	0
  7476  002126  6E30               	movwf	i2memset@c+1,c
  7477  002128  0E00               	movlw	0
  7478  00212A  6E2F               	movwf	i2memset@c,c
  7479  00212C  0E00               	movlw	0
  7480  00212E  6E32               	movwf	i2memset@n+1,c
  7481  002130  0E30               	movlw	48
  7482  002132  6E31               	movwf	i2memset@n,c
  7483  002134  ECC7  F018         	call	i2_memset	;wreg free
  7484                           
  7485                           ;usb_device.c: 1982: UCONbits.PPBRST = 1;
  7486  002138  8C65               	bsf	3941,6,c	;volatile
  7487                           
  7488                           ;usb_device.c: 1987: for(i = 0; i < (uint8_t)(2+1u); i++)
  7489  00213A  0E00               	movlw	0
  7490  00213C  6E41               	movwf	USBStdSetCfgHandler@i,c
  7491  00213E                     i2l4318:
  7492  00213E  0E02               	movlw	2
  7493  002140  6441               	cpfsgt	USBStdSetCfgHandler@i,c
  7494  002142  D001               	goto	i2l4322
  7495  002144  D016               	goto	i2l4328
  7496  002146                     i2l4322:
  7497                           
  7498                           ;usb_device.c: 1988: {
  7499                           ;usb_device.c: 1989: ep_data_in[i].Val = 0u;
  7500  002146  5041               	movf	USBStdSetCfgHandler@i,w,c
  7501  002148  0D01               	mullw	1
  7502  00214A  0E66               	movlw	low _ep_data_in
  7503  00214C  24F3               	addwf	prodl,w,c
  7504  00214E  6ED9               	movwf	fsr2l,c
  7505  002150  0E00               	movlw	high _ep_data_in
  7506  002152  20F4               	addwfc	prodh,w,c
  7507  002154  6EDA               	movwf	fsr2h,c
  7508  002156  0E00               	movlw	0
  7509  002158  6EDF               	movwf	indf2,c
  7510                           
  7511                           ;usb_device.c: 1990: ep_data_out[i].Val = 0u;
  7512  00215A  5041               	movf	USBStdSetCfgHandler@i,w,c
  7513  00215C  0D01               	mullw	1
  7514  00215E  0E69               	movlw	low _ep_data_out
  7515  002160  24F3               	addwf	prodl,w,c
  7516  002162  6ED9               	movwf	fsr2l,c
  7517  002164  0E00               	movlw	high _ep_data_out
  7518  002166  20F4               	addwfc	prodh,w,c
  7519  002168  6EDA               	movwf	fsr2h,c
  7520  00216A  0E00               	movlw	0
  7521  00216C  6EDF               	movwf	indf2,c
  7522  00216E  2A41               	incf	USBStdSetCfgHandler@i,f,c
  7523  002170  D7E6               	goto	i2l4318
  7524  002172                     i2l4328:
  7525                           
  7526                           ;usb_device.c: 1991: }
  7527                           ;usb_device.c: 1994: memset((void*)&USBAlternateInterface,0x00,2);
  7528  002172  0E87               	movlw	low _USBAlternateInterface
  7529  002174  6E2D               	movwf	i2memset@p1,c
  7530  002176  0E00               	movlw	high _USBAlternateInterface
  7531  002178  6E2E               	movwf	i2memset@p1+1,c
  7532  00217A  0E00               	movlw	0
  7533  00217C  6E30               	movwf	i2memset@c+1,c
  7534  00217E  0E00               	movlw	0
  7535  002180  6E2F               	movwf	i2memset@c,c
  7536  002182  0E00               	movlw	0
  7537  002184  6E32               	movwf	i2memset@n+1,c
  7538  002186  0E02               	movlw	2
  7539  002188  6E31               	movwf	i2memset@n,c
  7540  00218A  ECC7  F018         	call	i2_memset	;wreg free
  7541                           
  7542                           ;usb_device.c: 1997: UCONbits.PPBRST = 0;
  7543  00218E  9C65               	bcf	3941,6,c	;volatile
  7544                           
  7545                           ;usb_device.c: 1999: pBDTEntryIn[0] = (volatile BDT_ENTRY*)&BDT[2];
  7546  002190  0E08               	movlw	8
  7547  002192  6E0A               	movwf	_pBDTEntryIn,c
  7548  002194  0E0D               	movlw	13
  7549  002196  6E0B               	movwf	_pBDTEntryIn+1,c
  7550                           
  7551                           ;usb_device.c: 2002: pBDTEntryEP0OutCurrent = (volatile BDT_ENTRY*)&BDT[0];
  7552  002198  0E00               	movlw	0
  7553  00219A  6E10               	movwf	_pBDTEntryEP0OutCurrent,c
  7554  00219C  0E0D               	movlw	13
  7555  00219E  6E11               	movwf	_pBDTEntryEP0OutCurrent+1,c
  7556                           
  7557                           ;usb_device.c: 2003: pBDTEntryEP0OutNext = pBDTEntryEP0OutCurrent;
  7558  0021A0  C010  F012         	movff	_pBDTEntryEP0OutCurrent,_pBDTEntryEP0OutNext
  7559  0021A4  C011  F013         	movff	_pBDTEntryEP0OutCurrent+1,_pBDTEntryEP0OutNext+1
  7560                           
  7561                           ;usb_device.c: 2006: USBActiveConfiguration = SetupPkt.bConfigurationValue;
  7562  0021A8  CD32 F02B          	movff	3378,_USBActiveConfiguration	;volatile
  7563                           
  7564                           ;usb_device.c: 2009: if(USBActiveConfiguration == 0)
  7565  0021AC  502B               	movf	_USBActiveConfiguration,w,c	;volatile
  7566  0021AE  A4D8               	btfss	status,2,c
  7567  0021B0  D003               	goto	i2l4344
  7568                           
  7569                           ;usb_device.c: 2010: {
  7570                           ;usb_device.c: 2012: USBDeviceState = ADDRESS_STATE;
  7571  0021B2  0E10               	movlw	16
  7572  0021B4  6E1A               	movwf	_USBDeviceState,c	;volatile
  7573                           
  7574                           ;usb_device.c: 2013: }
  7575  0021B6  0012               	return	
  7576  0021B8                     i2l4344:
  7577                           
  7578                           ;usb_device.c: 2014: else
  7579                           ;usb_device.c: 2015: {
  7580                           ;usb_device.c: 2017: USER_USB_CALLBACK_EVENT_HANDLER(EVENT_CONFIGURED,(void*)&USBActiveC
      +                          onfiguration,1);
  7581  0021B8  0E00               	movlw	0
  7582  0021BA  6E3A               	movwf	USER_USB_CALLBACK_EVENT_HANDLER@event+1,c
  7583  0021BC  0E01               	movlw	1
  7584  0021BE  6E39               	movwf	USER_USB_CALLBACK_EVENT_HANDLER@event,c
  7585  0021C0  0E2B               	movlw	low _USBActiveConfiguration
  7586  0021C2  6E3B               	movwf	USER_USB_CALLBACK_EVENT_HANDLER@pdata,c
  7587  0021C4  0E00               	movlw	high _USBActiveConfiguration
  7588  0021C6  6E3C               	movwf	USER_USB_CALLBACK_EVENT_HANDLER@pdata+1,c
  7589  0021C8  0E00               	movlw	0
  7590  0021CA  6E3E               	movwf	USER_USB_CALLBACK_EVENT_HANDLER@size+1,c
  7591  0021CC  0E01               	movlw	1
  7592  0021CE  6E3D               	movwf	USER_USB_CALLBACK_EVENT_HANDLER@size,c
  7593  0021D0  EC98  F018         	call	_USER_USB_CALLBACK_EVENT_HANDLER	;wreg free
  7594                           
  7595                           ;usb_device.c: 2022: USBDeviceState = CONFIGURED_STATE;
  7596  0021D4  0E20               	movlw	32
  7597  0021D6  6E1A               	movwf	_USBDeviceState,c	;volatile
  7598  0021D8  0012               	return	
  7599  0021DA  0012               	return		;funcret
  7600  0021DC                     __end_of_USBStdSetCfgHandler:
  7601                           	opt stack 0
  7602                           pclatu	equ	0xFFB
  7603                           pclath	equ	0xFFA
  7604                           tblptru	equ	0xFF8
  7605                           tblptrh	equ	0xFF7
  7606                           tblptrl	equ	0xFF6
  7607                           tablat	equ	0xFF5
  7608                           prodh	equ	0xFF4
  7609                           prodl	equ	0xFF3
  7610                           intcon	equ	0xFF2
  7611                           intcon2	equ	0xFF1
  7612                           indf0	equ	0xFEF
  7613                           postinc0	equ	0xFEE
  7614                           fsr0h	equ	0xFEA
  7615                           fsr0l	equ	0xFE9
  7616                           wreg	equ	0xFE8
  7617                           indf1	equ	0xFE7
  7618                           fsr1h	equ	0xFE2
  7619                           fsr1l	equ	0xFE1
  7620                           indf2	equ	0xFDF
  7621                           postinc2	equ	0xFDE
  7622                           postdec2	equ	0xFDD
  7623                           plusw2	equ	0xFDB
  7624                           fsr2h	equ	0xFDA
  7625                           fsr2l	equ	0xFD9
  7626                           status	equ	0xFD8
  7627                           
  7628 ;; *************** function i2_memset *****************
  7629 ;; Defined at:
  7630 ;;		line 8 in file "C:\Program Files (x86)\Microchip\xc8\v1.34\sources\common\memset.c"
  7631 ;; Parameters:    Size  Location     Type
  7632 ;;  p1              2    0[COMRAM] PTR void 
  7633 ;;		 -> USBAlternateInterface(2), BDT(48), UEP1(1), 
  7634 ;;  c               2    2[COMRAM] int 
  7635 ;;  n               2    4[COMRAM] unsigned int 
  7636 ;; Auto vars:     Size  Location     Type
  7637 ;;  memset          2    6[COMRAM] PTR unsigned char 
  7638 ;;		 -> USBAlternateInterface(2), BDT(48), UEP1(1), 
  7639 ;; Return value:  Size  Location     Type
  7640 ;;                  2    0[COMRAM] PTR void 
  7641 ;; Registers used:
  7642 ;;		wreg, fsr2l, fsr2h, status,2, status,0
  7643 ;; Tracked objects:
  7644 ;;		On entry : 0/0
  7645 ;;		On exit  : 0/0
  7646 ;;		Unchanged: 0/0
  7647 ;; Data sizes:     COMRAM   BANK0   BANK1   BANK2   BANK3   BANK4   BANK5   BANK6   BANK7   BANK8   BANK9  BANK10  BANK1
      +1  BANK12  BANK13  BANK14
  7648 ;;      Params:         6       0       0       0       0       0       0       0       0       0       0       0       
      +0       0       0       0
  7649 ;;      Locals:         2       0       0       0       0       0       0       0       0       0       0       0       
      +0       0       0       0
  7650 ;;      Temps:          0       0       0       0       0       0       0       0       0       0       0       0       
      +0       0       0       0
  7651 ;;      Totals:         8       0       0       0       0       0       0       0       0       0       0       0       
      +0       0       0       0
  7652 ;;Total ram usage:        8 bytes
  7653 ;; Hardware stack levels used:    1
  7654 ;; This function calls:
  7655 ;;		Nothing
  7656 ;; This function is called by:
  7657 ;;		_USBStdSetCfgHandler
  7658 ;;		i2_USBDeviceInit
  7659 ;; This function uses a non-reentrant model
  7660 ;;
  7661                           
  7662                           	psect	text43
  7663  00318E                     __ptext43:
  7664                           	opt stack 0
  7665  00318E                     i2_memset:
  7666                           	opt stack 21
  7667                           
  7668                           ;incstack = 0
  7669  00318E  C02D  F033         	movff	i2memset@p1,i2memset@p
  7670  003192  C02E  F034         	movff	i2memset@p1+1,i2memset@p+1
  7671  003196  D009               	goto	i2l4226
  7672  003198                     i2l4222:
  7673  003198  C033  FFD9         	movff	i2memset@p,fsr2l
  7674  00319C  C034  FFDA         	movff	i2memset@p+1,fsr2h
  7675  0031A0  C02F  FFDF         	movff	i2memset@c,indf2
  7676  0031A4  4A33               	infsnz	i2memset@p,f,c
  7677  0031A6  2A34               	incf	i2memset@p+1,f,c
  7678  0031A8  D000               	goto	i2l4226
  7679  0031AA                     i2l4226:
  7680  0031AA  0631               	decf	i2memset@n,f,c
  7681  0031AC  A0D8               	btfss	status,0,c
  7682  0031AE  0632               	decf	i2memset@n+1,f,c
  7683  0031B0  2831               	incf	i2memset@n,w,c
  7684  0031B2  E1F2               	bnz	i2l4222
  7685  0031B4  2832               	incf	i2memset@n+1,w,c
  7686  0031B6  A4D8               	btfss	status,2,c
  7687  0031B8  D7EF               	goto	i2l4222
  7688                           
  7689                           ;	Return value of i2_memset is never used
  7690  0031BA  0012               	return		;funcret
  7691  0031BC                     __end_ofi2_memset:
  7692                           	opt stack 0
  7693                           pclatu	equ	0xFFB
  7694                           pclath	equ	0xFFA
  7695                           tblptru	equ	0xFF8
  7696                           tblptrh	equ	0xFF7
  7697                           tblptrl	equ	0xFF6
  7698                           tablat	equ	0xFF5
  7699                           prodh	equ	0xFF4
  7700                           prodl	equ	0xFF3
  7701                           intcon	equ	0xFF2
  7702                           intcon2	equ	0xFF1
  7703                           indf0	equ	0xFEF
  7704                           postinc0	equ	0xFEE
  7705                           fsr0h	equ	0xFEA
  7706                           fsr0l	equ	0xFE9
  7707                           wreg	equ	0xFE8
  7708                           indf1	equ	0xFE7
  7709                           fsr1h	equ	0xFE2
  7710                           fsr1l	equ	0xFE1
  7711                           indf2	equ	0xFDF
  7712                           postinc2	equ	0xFDE
  7713                           postdec2	equ	0xFDD
  7714                           plusw2	equ	0xFDB
  7715                           fsr2h	equ	0xFDA
  7716                           fsr2l	equ	0xFD9
  7717                           status	equ	0xFD8
  7718                           
  7719 ;; *************** function _USBStdGetStatusHandler *****************
  7720 ;; Defined at:
  7721 ;;		line 2129 in file "../My_header/usb_cdc/usb/usb_device.c"
  7722 ;; Parameters:    Size  Location     Type
  7723 ;;		None
  7724 ;; Auto vars:     Size  Location     Type
  7725 ;;  p               2    1[COMRAM] PTR struct __BDT
  7726 ;;		 -> NULL(0), BDT(48), 
  7727 ;; Return value:  Size  Location     Type
  7728 ;;		None               void
  7729 ;; Registers used:
  7730 ;;		wreg, fsr2l, fsr2h, status,2, status,0, prodl, prodh
  7731 ;; Tracked objects:
  7732 ;;		On entry : 0/0
  7733 ;;		On exit  : 0/0
  7734 ;;		Unchanged: 0/0
  7735 ;; Data sizes:     COMRAM   BANK0   BANK1   BANK2   BANK3   BANK4   BANK5   BANK6   BANK7   BANK8   BANK9  BANK10  BANK1
      +1  BANK12  BANK13  BANK14
  7736 ;;      Params:         0       0       0       0       0       0       0       0       0       0       0       0       
      +0       0       0       0
  7737 ;;      Locals:         2       0       0       0       0       0       0       0       0       0       0       0       
      +0       0       0       0
  7738 ;;      Temps:          1       0       0       0       0       0       0       0       0       0       0       0       
      +0       0       0       0
  7739 ;;      Totals:         3       0       0       0       0       0       0       0       0       0       0       0       
      +0       0       0       0
  7740 ;;Total ram usage:        3 bytes
  7741 ;; Hardware stack levels used:    1
  7742 ;; This function calls:
  7743 ;;		Nothing
  7744 ;; This function is called by:
  7745 ;;		_USBCheckStdRequest
  7746 ;; This function uses a non-reentrant model
  7747 ;;
  7748                           
  7749                           	psect	text44
  7750  002726                     __ptext44:
  7751                           	opt stack 0
  7752  002726                     _USBStdGetStatusHandler:
  7753                           	opt stack 19
  7754                           
  7755                           ;usb_device.c: 2131: CtrlTrfData[0] = 0;
  7756                           
  7757                           ;incstack = 0
  7758  002726  0E00               	movlw	0
  7759  002728  010D               	movlb	13	; () banked
  7760  00272A  6F38               	movwf	56,b	;volatile
  7761                           
  7762                           ;usb_device.c: 2132: CtrlTrfData[1] = 0;
  7763  00272C  0E00               	movlw	0
  7764  00272E  010D               	movlb	13	; () banked
  7765  002730  6F39               	movwf	57,b	;volatile
  7766                           
  7767                           ;usb_device.c: 2134: switch(SetupPkt.Recipient)
  7768  002732  D03D               	goto	i2l4400
  7769  002734                     i2l896:
  7770                           
  7771                           ; BSR set to: 13
  7772                           ;usb_device.c: 2137: inPipes[0].info.bits.busy = 1;
  7773  002734  8E28               	bsf	_inPipes+3,7,c	;volatile
  7774                           
  7775                           ;usb_device.c: 2142: if(0 == 1)
  7776  002736  D003               	goto	i2l4384
  7777                           
  7778                           ; BSR set to: 13
  7779                           ;usb_device.c: 2143: {
  7780                           ;usb_device.c: 2144: CtrlTrfData[0]|=0x01;
  7781  002738  010D               	movlb	13	; () banked
  7782  00273A  8138               	bsf	56,0,b	;volatile
  7783  00273C  D000               	goto	i2l4384
  7784  00273E                     i2l4384:
  7785                           
  7786                           ; BSR set to: 13
  7787                           ;usb_device.c: 2145: }
  7788                           ;usb_device.c: 2147: if(RemoteWakeup == 1)
  7789  00273E  0416               	decf	_RemoteWakeup,w,c	;volatile
  7790  002740  A4D8               	btfss	status,2,c
  7791  002742  D041               	goto	i2l899
  7792                           
  7793                           ; BSR set to: 13
  7794                           ;usb_device.c: 2148: {
  7795                           ;usb_device.c: 2149: CtrlTrfData[0]|=0x02;
  7796  002744  010D               	movlb	13	; () banked
  7797  002746  8338               	bsf	56,1,b	;volatile
  7798                           
  7799                           ; BSR set to: 13
  7800                           ;usb_device.c: 2150: }
  7801                           ;usb_device.c: 2151: break;
  7802  002748  D03E               	goto	i2l899
  7803  00274A                     i2l900:
  7804                           
  7805                           ; BSR set to: 13
  7806                           ;usb_device.c: 2153: inPipes[0].info.bits.busy = 1;
  7807  00274A  8E28               	bsf	_inPipes+3,7,c	;volatile
  7808                           
  7809                           ;usb_device.c: 2154: break;
  7810  00274C  D03C               	goto	i2l899
  7811  00274E                     i2l901:
  7812                           
  7813                           ; BSR set to: 13
  7814                           ;usb_device.c: 2156: inPipes[0].info.bits.busy = 1;
  7815  00274E  8E28               	bsf	_inPipes+3,7,c	;volatile
  7816                           
  7817                           ;usb_device.c: 2160: {
  7818                           ;usb_device.c: 2161: BDT_ENTRY *p;
  7819                           ;usb_device.c: 2163: if(SetupPkt.EPDir == 0)
  7820  002750  010D               	movlb	13	; () banked
  7821  002752  BF34               	btfsc	52,7,b	;volatile
  7822  002754  D00B               	goto	i2l4390
  7823                           
  7824                           ; BSR set to: 13
  7825                           ;usb_device.c: 2164: {
  7826                           ;usb_device.c: 2165: p = (BDT_ENTRY*)pBDTEntryOut[SetupPkt.EPNum];
  7827  002756  010D               	movlb	13	; () banked
  7828  002758  5134               	movf	52,w,b	;volatile
  7829  00275A  0B0F               	andlw	15
  7830  00275C  6E2D               	movwf	??_USBStdGetStatusHandler& (0+255),c
  7831  00275E  502D               	movf	??_USBStdGetStatusHandler,w,c
  7832  002760  0D02               	mullw	2
  7833  002762  0E60               	movlw	low _pBDTEntryOut
  7834  002764  24F3               	addwf	prodl,w,c
  7835  002766  6ED9               	movwf	fsr2l,c
  7836  002768  0E00               	movlw	high _pBDTEntryOut
  7837  00276A  D00A               	goto	L5
  7838  00276C                     i2l4390:
  7839                           
  7840                           ; BSR set to: 13
  7841                           ;usb_device.c: 2167: else
  7842                           ;usb_device.c: 2168: {
  7843                           ;usb_device.c: 2169: p = (BDT_ENTRY*)pBDTEntryIn[SetupPkt.EPNum];
  7844  00276C  010D               	movlb	13	; () banked
  7845  00276E  5134               	movf	52,w,b	;volatile
  7846  002770  0B0F               	andlw	15
  7847  002772  6E2D               	movwf	??_USBStdGetStatusHandler& (0+255),c
  7848  002774  502D               	movf	??_USBStdGetStatusHandler,w,c
  7849  002776  0D02               	mullw	2
  7850  002778  0E0A               	movlw	low _pBDTEntryIn
  7851  00277A  24F3               	addwf	prodl,w,c
  7852  00277C  6ED9               	movwf	fsr2l,c
  7853  00277E  0E00               	movlw	high _pBDTEntryIn
  7854  002780                     L5:
  7855  002780  20F4               	addwfc	prodh,w,c
  7856  002782  6EDA               	movwf	fsr2h,c
  7857  002784  CFDE F02E          	movff	postinc2,USBStdGetStatusHandler@p
  7858  002788  CFDD F02F          	movff	postdec2,USBStdGetStatusHandler@p+1
  7859  00278C  D000               	goto	i2l4392
  7860  00278E                     i2l4392:
  7861                           
  7862                           ; BSR set to: 13
  7863                           ;usb_device.c: 2170: }
  7864                           ;usb_device.c: 2172: if((p->STAT.UOWN == 1) && (p->STAT.BSTALL == 1))
  7865  00278E  C02E  FFD9         	movff	USBStdGetStatusHandler@p,fsr2l
  7866  002792  C02F  FFDA         	movff	USBStdGetStatusHandler@p+1,fsr2h
  7867  002796  AEDF               	btfss	indf2,7,c
  7868  002798  D016               	goto	i2l899
  7869                           
  7870                           ; BSR set to: 13
  7871  00279A  C02E  FFD9         	movff	USBStdGetStatusHandler@p,fsr2l
  7872  00279E  C02F  FFDA         	movff	USBStdGetStatusHandler@p+1,fsr2h
  7873  0027A2  A4DF               	btfss	indf2,2,c
  7874  0027A4  D010               	goto	i2l899
  7875                           
  7876                           ; BSR set to: 13
  7877                           ;usb_device.c: 2173: CtrlTrfData[0]=0x01;
  7878  0027A6  0E01               	movlw	1
  7879  0027A8  010D               	movlb	13	; () banked
  7880  0027AA  6F38               	movwf	56,b	;volatile
  7881                           
  7882                           ; BSR set to: 13
  7883                           ;usb_device.c: 2175: }
  7884                           ;usb_device.c: 2176: }
  7885                           
  7886                           ; BSR set to: 13
  7887                           ;usb_device.c: 2174: break;
  7888  0027AC  D00C               	goto	i2l899
  7889  0027AE                     i2l4400:
  7890                           
  7891                           ; BSR set to: 13
  7892  0027AE  010D               	movlb	13	; () banked
  7893  0027B0  5130               	movf	48,w,b	;volatile
  7894  0027B2  0B1F               	andlw	31
  7895                           
  7896                           ; Switch size 1, requested type "space"
  7897                           ; Number of cases is 3, Range of values is 0 to 2
  7898                           ; switch strategies available:
  7899                           ; Name         Instructions Cycles
  7900                           ; simple_byte           10     6 (average)
  7901                           ;	Chosen strategy is simple_byte
  7902  0027B4  0A00               	xorlw	0	; case 0
  7903  0027B6  B4D8               	btfsc	status,2,c
  7904  0027B8  D7BD               	goto	i2l896
  7905  0027BA  0A01               	xorlw	1	; case 1
  7906  0027BC  B4D8               	btfsc	status,2,c
  7907  0027BE  D7C5               	goto	i2l900
  7908  0027C0  0A03               	xorlw	3	; case 2
  7909  0027C2  B4D8               	btfsc	status,2,c
  7910  0027C4  D7C4               	goto	i2l901
  7911  0027C6                     i2l899:
  7912                           
  7913                           ; BSR set to: 13
  7914                           ;usb_device.c: 2178: if(inPipes[0].info.bits.busy == 1)
  7915  0027C6  AE28               	btfss	_inPipes+3,7,c	;volatile
  7916  0027C8  0012               	return	
  7917                           
  7918                           ; BSR set to: 13
  7919                           ;usb_device.c: 2179: {
  7920                           ;usb_device.c: 2180: inPipes[0].pSrc.bRam = (uint8_t*)&CtrlTrfData;
  7921  0027CA  0E38               	movlw	56
  7922  0027CC  6E25               	movwf	_inPipes,c	;volatile
  7923  0027CE  0E0D               	movlw	13
  7924  0027D0  6E26               	movwf	_inPipes+1,c	;volatile
  7925                           
  7926                           ; BSR set to: 13
  7927                           ;usb_device.c: 2181: inPipes[0].info.bits.ctrl_trf_mem = 0x01;
  7928  0027D2  8028               	bsf	_inPipes+3,0,c	;volatile
  7929                           
  7930                           ; BSR set to: 13
  7931                           ;usb_device.c: 2182: inPipes[0].wCount.v[0] = 2;
  7932  0027D4  0E02               	movlw	2
  7933  0027D6  6E29               	movwf	_inPipes+4,c	;volatile
  7934  0027D8  0012               	return	
  7935                           
  7936                           ; BSR set to: 13
  7937                           
  7938                           ; BSR set to: 13
  7939  0027DA  0012               	return		;funcret
  7940  0027DC                     __end_of_USBStdGetStatusHandler:
  7941                           	opt stack 0
  7942                           pclatu	equ	0xFFB
  7943                           pclath	equ	0xFFA
  7944                           tblptru	equ	0xFF8
  7945                           tblptrh	equ	0xFF7
  7946                           tblptrl	equ	0xFF6
  7947                           tablat	equ	0xFF5
  7948                           prodh	equ	0xFF4
  7949                           prodl	equ	0xFF3
  7950                           intcon	equ	0xFF2
  7951                           intcon2	equ	0xFF1
  7952                           indf0	equ	0xFEF
  7953                           postinc0	equ	0xFEE
  7954                           fsr0h	equ	0xFEA
  7955                           fsr0l	equ	0xFE9
  7956                           wreg	equ	0xFE8
  7957                           indf1	equ	0xFE7
  7958                           fsr1h	equ	0xFE2
  7959                           fsr1l	equ	0xFE1
  7960                           indf2	equ	0xFDF
  7961                           postinc2	equ	0xFDE
  7962                           postdec2	equ	0xFDD
  7963                           plusw2	equ	0xFDB
  7964                           fsr2h	equ	0xFDA
  7965                           fsr2l	equ	0xFD9
  7966                           status	equ	0xFD8
  7967                           
  7968 ;; *************** function _USBStdGetDscHandler *****************
  7969 ;; Defined at:
  7970 ;;		line 2043 in file "../My_header/usb_cdc/usb/usb_device.c"
  7971 ;; Parameters:    Size  Location     Type
  7972 ;;		None
  7973 ;; Auto vars:     Size  Location     Type
  7974 ;;		None
  7975 ;; Return value:  Size  Location     Type
  7976 ;;		None               void
  7977 ;; Registers used:
  7978 ;;		wreg, fsr0l, fsr0h, status,2, status,0, tblptrl, tblptrh, tblptru, prodl, prodh
  7979 ;; Tracked objects:
  7980 ;;		On entry : 0/0
  7981 ;;		On exit  : 0/0
  7982 ;;		Unchanged: 0/0
  7983 ;; Data sizes:     COMRAM   BANK0   BANK1   BANK2   BANK3   BANK4   BANK5   BANK6   BANK7   BANK8   BANK9  BANK10  BANK1
      +1  BANK12  BANK13  BANK14
  7984 ;;      Params:         0       0       0       0       0       0       0       0       0       0       0       0       
      +0       0       0       0
  7985 ;;      Locals:         0       0       0       0       0       0       0       0       0       0       0       0       
      +0       0       0       0
  7986 ;;      Temps:          2       0       0       0       0       0       0       0       0       0       0       0       
      +0       0       0       0
  7987 ;;      Totals:         2       0       0       0       0       0       0       0       0       0       0       0       
      +0       0       0       0
  7988 ;;Total ram usage:        2 bytes
  7989 ;; Hardware stack levels used:    1
  7990 ;; This function calls:
  7991 ;;		Nothing
  7992 ;; This function is called by:
  7993 ;;		_USBCheckStdRequest
  7994 ;; This function uses a non-reentrant model
  7995 ;;
  7996                           
  7997                           	psect	text45
  7998  001A24                     __ptext45:
  7999                           	opt stack 0
  8000  001A24                     _USBStdGetDscHandler:
  8001                           	opt stack 19
  8002                           
  8003                           ;usb_device.c: 2045: if(SetupPkt.bmRequestType == 0x80)
  8004                           
  8005                           ; BSR set to: 13
  8006                           ;incstack = 0
  8007  001A24  0E80               	movlw	128
  8008  001A26  010D               	movlb	13	; () banked
  8009  001A28  1930               	xorwf	48,w,b	;volatile
  8010  001A2A  A4D8               	btfss	status,2,c
  8011  001A2C  0012               	return	
  8012                           
  8013                           ; BSR set to: 13
  8014                           ;usb_device.c: 2046: {
  8015                           ;usb_device.c: 2047: inPipes[0].info.Val = 0x00 | 0x80 | 0x40;
  8016  001A2E  0EC0               	movlw	192
  8017  001A30  6E28               	movwf	_inPipes+3,c	;volatile
  8018                           
  8019                           ;usb_device.c: 2049: switch(SetupPkt.bDescriptorType)
  8020  001A32  D085               	goto	i2l4378
  8021  001A34                     i2l4352:
  8022                           
  8023                           ; BSR set to: 13
  8024                           ;usb_device.c: 2055: inPipes[0].pSrc.bRom = (const uint8_t*)&device_dsc;
  8025  001A34  0ED0               	movlw	low _device_dsc
  8026  001A36  6E25               	movwf	_inPipes,c	;volatile
  8027  001A38  0E11               	movlw	high _device_dsc
  8028  001A3A  6E26               	movwf	_inPipes+1,c	;volatile
  8029                           
  8030                           ; BSR set to: 13
  8031                           ;usb_device.c: 2057: inPipes[0].wCount.Val = sizeof(device_dsc);
  8032  001A3C  0E00               	movlw	0
  8033  001A3E  6E2A               	movwf	_inPipes+5,c	;volatile
  8034  001A40  0E12               	movlw	18
  8035  001A42  6E29               	movwf	_inPipes+4,c	;volatile
  8036                           
  8037                           ;usb_device.c: 2058: break;
  8038  001A44  0012               	return	
  8039  001A46                     i2l4356:
  8040                           
  8041                           ; BSR set to: 13
  8042                           ;usb_device.c: 2063: if(SetupPkt.bDscIndex < 1)
  8043  001A46  010D               	movlb	13	; () banked
  8044  001A48  5132               	movf	50,w,b	;volatile
  8045  001A4A  A4D8               	btfss	status,2,c
  8046  001A4C  D043               	goto	i2l4364
  8047                           
  8048                           ; BSR set to: 13
  8049                           ;usb_device.c: 2064: {
  8050                           ;usb_device.c: 2068: inPipes[0].pSrc.bRom = *(USB_CD_Ptr+SetupPkt.bDscIndex);
  8051  001A4E  010D               	movlb	13	; () banked
  8052  001A50  5132               	movf	50,w,b	;volatile
  8053  001A52  0D02               	mullw	2
  8054  001A54  0E07               	movlw	low _USB_CD_Ptr
  8055  001A56  24F3               	addwf	prodl,w,c
  8056  001A58  6EF6               	movwf	tblptrl,c
  8057  001A5A  0E11               	movlw	high _USB_CD_Ptr
  8058  001A5C  20F4               	addwfc	prodh,w,c
  8059  001A5E  6EF7               	movwf	tblptrh,c
  8060  001A60                     	if	1	;There are 3 active tblptr bytes
  8061  001A60  6AF8               	clrf	tblptru,c
  8062  001A62  0E00               	movlw	low (__mediumconst shr (0+16))
  8063  001A64  22F8               	addwfc	tblptru,f,c
  8064  001A66                     	endif
  8065  001A66  0009               	tblrd		*+
  8066  001A68  CFF5 F025          	movff	tablat,_inPipes	;volatile
  8067  001A6C  000A               	tblrd		*-
  8068  001A6E  CFF5 F026          	movff	tablat,_inPipes+1	;volatile
  8069                           
  8070                           ; BSR set to: 13
  8071                           ;usb_device.c: 2074: inPipes[0].wCount.byte.LB = *(inPipes[0].pSrc.bRom+2);
  8072  001A72  0E02               	movlw	2
  8073  001A74  2425               	addwf	_inPipes,w,c	;volatile
  8074  001A76  6E2D               	movwf	??_USBStdGetDscHandler& (0+255),c
  8075  001A78  0E00               	movlw	0
  8076  001A7A  2026               	addwfc	_inPipes+1,w,c	;volatile
  8077  001A7C  6E2E               	movwf	(??_USBStdGetDscHandler+1)& (0+255),c
  8078  001A7E  C02D  FFF6         	movff	??_USBStdGetDscHandler,tblptrl
  8079  001A82  C02E  FFF7         	movff	??_USBStdGetDscHandler+1,tblptrh
  8080  001A86  0E00               	movlw	low (__smallconst shr (0+16))
  8081  001A88  6EF8               	movwf	tblptru,c
  8082  001A8A  0E0E               	movlw	(high __ramtop+-1)
  8083  001A8C  64F7               	cpfsgt	tblptrh,c
  8084  001A8E  D003               	bra	i2u331_47
  8085  001A90  0008               	tblrd		*
  8086  001A92  50F5               	movf	tablat,w,c
  8087  001A94  D005               	bra	i2u331_40
  8088  001A96                     i2u331_47:
  8089  001A96  CFF6 FFE9          	movff	tblptrl,fsr0l
  8090  001A9A  CFF7 FFEA          	movff	tblptrh,fsr0h
  8091  001A9E  50EF               	movf	indf0,w,c
  8092  001AA0                     i2u331_40:
  8093  001AA0  6E29               	movwf	_inPipes+4,c	;volatile
  8094                           
  8095                           ;usb_device.c: 2075: inPipes[0].wCount.byte.HB = *(inPipes[0].pSrc.bRom+3);
  8096  001AA2  0E03               	movlw	3
  8097  001AA4  2425               	addwf	_inPipes,w,c	;volatile
  8098  001AA6  6E2D               	movwf	??_USBStdGetDscHandler& (0+255),c
  8099  001AA8  0E00               	movlw	0
  8100  001AAA  2026               	addwfc	_inPipes+1,w,c	;volatile
  8101  001AAC  6E2E               	movwf	(??_USBStdGetDscHandler+1)& (0+255),c
  8102  001AAE  C02D  FFF6         	movff	??_USBStdGetDscHandler,tblptrl
  8103  001AB2  C02E  FFF7         	movff	??_USBStdGetDscHandler+1,tblptrh
  8104  001AB6  0E00               	movlw	low (__smallconst shr (0+16))
  8105  001AB8  6EF8               	movwf	tblptru,c
  8106  001ABA  0E0E               	movlw	(high __ramtop+-1)
  8107  001ABC  64F7               	cpfsgt	tblptrh,c
  8108  001ABE  D003               	bra	i2u332_47
  8109  001AC0  0008               	tblrd		*
  8110  001AC2  50F5               	movf	tablat,w,c
  8111  001AC4  D005               	bra	i2u332_40
  8112  001AC6                     i2u332_47:
  8113  001AC6  CFF6 FFE9          	movff	tblptrl,fsr0l
  8114  001ACA  CFF7 FFEA          	movff	tblptrh,fsr0h
  8115  001ACE  50EF               	movf	indf0,w,c
  8116  001AD0                     i2u332_40:
  8117  001AD0  6E2A               	movwf	_inPipes+5,c	;volatile
  8118                           
  8119                           ;usb_device.c: 2076: }
  8120  001AD2  0012               	return	
  8121  001AD4                     i2l4364:
  8122                           
  8123                           ;usb_device.c: 2077: else
  8124                           ;usb_device.c: 2078: {
  8125                           ;usb_device.c: 2079: inPipes[0].info.Val = 0;
  8126  001AD4  0E00               	movlw	0
  8127  001AD6  6E28               	movwf	_inPipes+3,c	;volatile
  8128                           
  8129                           ;usb_device.c: 2080: }
  8130                           ;usb_device.c: 2081: break;
  8131  001AD8  0012               	return	
  8132  001ADA                     i2l4366:
  8133                           
  8134                           ;usb_device.c: 2086: if(SetupPkt.bDscIndex<3)
  8135  001ADA  0E03               	movlw	3
  8136  001ADC  010D               	movlb	13	; () banked
  8137  001ADE  6132               	cpfslt	50,b	;volatile
  8138  001AE0  D028               	goto	i2l4372
  8139                           
  8140                           ; BSR set to: 13
  8141                           ;usb_device.c: 2087: {
  8142                           ;usb_device.c: 2089: inPipes[0].pSrc.bRom = *(USB_SD_Ptr+SetupPkt.bDscIndex);
  8143  001AE2  010D               	movlb	13	; () banked
  8144  001AE4  5132               	movf	50,w,b	;volatile
  8145  001AE6  0D02               	mullw	2
  8146  001AE8  0E01               	movlw	low _USB_SD_Ptr
  8147  001AEA  24F3               	addwf	prodl,w,c
  8148  001AEC  6EF6               	movwf	tblptrl,c
  8149  001AEE  0E11               	movlw	high _USB_SD_Ptr
  8150  001AF0  20F4               	addwfc	prodh,w,c
  8151  001AF2  6EF7               	movwf	tblptrh,c
  8152  001AF4                     	if	1	;There are 3 active tblptr bytes
  8153  001AF4  6AF8               	clrf	tblptru,c
  8154  001AF6  0E00               	movlw	low (__mediumconst shr (0+16))
  8155  001AF8  22F8               	addwfc	tblptru,f,c
  8156  001AFA                     	endif
  8157  001AFA  0009               	tblrd		*+
  8158  001AFC  CFF5 F025          	movff	tablat,_inPipes	;volatile
  8159  001B00  000A               	tblrd		*-
  8160  001B02  CFF5 F026          	movff	tablat,_inPipes+1	;volatile
  8161                           
  8162                           ; BSR set to: 13
  8163                           ;usb_device.c: 2091: inPipes[0].wCount.Val = *inPipes[0].pSrc.bRom;
  8164  001B06  C025  FFF6         	movff	_inPipes,tblptrl	;volatile
  8165  001B0A  C026  FFF7         	movff	_inPipes+1,tblptrh	;volatile
  8166  001B0E  0E00               	movlw	low (__smallconst shr (0+16))
  8167  001B10  6EF8               	movwf	tblptru,c
  8168  001B12  0E0E               	movlw	(high __ramtop+-1)
  8169  001B14  64F7               	cpfsgt	tblptrh,c
  8170  001B16  D003               	bra	i2u334_47
  8171  001B18  0008               	tblrd		*
  8172  001B1A  50F5               	movf	tablat,w,c
  8173  001B1C  D005               	bra	i2u334_40
  8174  001B1E                     i2u334_47:
  8175  001B1E  CFF6 FFE9          	movff	tblptrl,fsr0l
  8176  001B22  CFF7 FFEA          	movff	tblptrh,fsr0h
  8177  001B26  50EF               	movf	indf0,w,c
  8178  001B28                     i2u334_40:
  8179  001B28  6E2D               	movwf	??_USBStdGetDscHandler& (0+255),c
  8180  001B2A  502D               	movf	??_USBStdGetDscHandler,w,c
  8181  001B2C  6E29               	movwf	_inPipes+4,c	;volatile
  8182  001B2E  6A2A               	clrf	_inPipes+5,c	;volatile
  8183                           
  8184                           ;usb_device.c: 2092: }
  8185  001B30  0012               	return	
  8186  001B32                     i2l4372:
  8187                           
  8188                           ;usb_device.c: 2102: else
  8189                           ;usb_device.c: 2103: {
  8190                           ;usb_device.c: 2104: inPipes[0].info.Val = 0;
  8191  001B32  0E00               	movlw	0
  8192  001B34  6E28               	movwf	_inPipes+3,c	;volatile
  8193                           
  8194                           ;usb_device.c: 2105: }
  8195                           ;usb_device.c: 2106: break;
  8196  001B36  0012               	return	
  8197  001B38                     i2l4374:
  8198                           
  8199                           ;usb_device.c: 2108: inPipes[0].info.Val = 0;
  8200  001B38  0E00               	movlw	0
  8201  001B3A  6E28               	movwf	_inPipes+3,c	;volatile
  8202                           
  8203                           ;usb_device.c: 2110: }
  8204                           
  8205                           ;usb_device.c: 2109: break;
  8206  001B3C  0012               	return	
  8207  001B3E                     i2l4378:
  8208  001B3E  010D               	movlb	13	; () banked
  8209  001B40  5133               	movf	51,w,b	;volatile
  8210                           
  8211                           ; Switch size 1, requested type "space"
  8212                           ; Number of cases is 3, Range of values is 1 to 3
  8213                           ; switch strategies available:
  8214                           ; Name         Instructions Cycles
  8215                           ; simple_byte           10     6 (average)
  8216                           ;	Chosen strategy is simple_byte
  8217  001B42  0A01               	xorlw	1	; case 1
  8218  001B44  B4D8               	btfsc	status,2,c
  8219  001B46  D776               	goto	i2l4352
  8220  001B48  0A03               	xorlw	3	; case 2
  8221  001B4A  B4D8               	btfsc	status,2,c
  8222  001B4C  D77C               	goto	i2l4356
  8223  001B4E  0A01               	xorlw	1	; case 3
  8224  001B50  B4D8               	btfsc	status,2,c
  8225  001B52  D7C3               	goto	i2l4366
  8226  001B54  D7F1               	goto	i2l4374
  8227                           
  8228                           ; BSR set to: 13
  8229  001B56  0012               	return	
  8230                           
  8231                           ; BSR set to: 13
  8232  001B58  0012               	return		;funcret
  8233  001B5A                     __end_of_USBStdGetDscHandler:
  8234                           	opt stack 0
  8235                           pclatu	equ	0xFFB
  8236                           pclath	equ	0xFFA
  8237                           tblptru	equ	0xFF8
  8238                           tblptrh	equ	0xFF7
  8239                           tblptrl	equ	0xFF6
  8240                           tablat	equ	0xFF5
  8241                           prodh	equ	0xFF4
  8242                           prodl	equ	0xFF3
  8243                           intcon	equ	0xFF2
  8244                           intcon2	equ	0xFF1
  8245                           indf0	equ	0xFEF
  8246                           postinc0	equ	0xFEE
  8247                           fsr0h	equ	0xFEA
  8248                           fsr0l	equ	0xFE9
  8249                           wreg	equ	0xFE8
  8250                           indf1	equ	0xFE7
  8251                           fsr1h	equ	0xFE2
  8252                           fsr1l	equ	0xFE1
  8253                           indf2	equ	0xFDF
  8254                           postinc2	equ	0xFDE
  8255                           postdec2	equ	0xFDD
  8256                           plusw2	equ	0xFDB
  8257                           fsr2h	equ	0xFDA
  8258                           fsr2l	equ	0xFD9
  8259                           status	equ	0xFD8
  8260                           
  8261 ;; *************** function _USBStdFeatureReqHandler *****************
  8262 ;; Defined at:
  8263 ;;		line 2757 in file "../My_header/usb_cdc/usb/usb_device.c"
  8264 ;; Parameters:    Size  Location     Type
  8265 ;;		None
  8266 ;; Auto vars:     Size  Location     Type
  8267 ;;  p               2   24[COMRAM] PTR struct __BDT
  8268 ;;		 -> NULL(0), BDT(48), 
  8269 ;;  pUEP            2   21[COMRAM] PTR unsigned char 
  8270 ;;		 -> UEP0(1), 
  8271 ;;  current_ep_d    1   23[COMRAM] struct .
  8272 ;; Return value:  Size  Location     Type
  8273 ;;		None               void
  8274 ;; Registers used:
  8275 ;;		wreg, fsr2l, fsr2h, status,2, status,0, prodl, prodh, cstack
  8276 ;; Tracked objects:
  8277 ;;		On entry : 0/0
  8278 ;;		On exit  : 0/0
  8279 ;;		Unchanged: 0/0
  8280 ;; Data sizes:     COMRAM   BANK0   BANK1   BANK2   BANK3   BANK4   BANK5   BANK6   BANK7   BANK8   BANK9  BANK10  BANK1
      +1  BANK12  BANK13  BANK14
  8281 ;;      Params:         0       0       0       0       0       0       0       0       0       0       0       0       
      +0       0       0       0
  8282 ;;      Locals:         5       0       0       0       0       0       0       0       0       0       0       0       
      +0       0       0       0
  8283 ;;      Temps:          1       0       0       0       0       0       0       0       0       0       0       0       
      +0       0       0       0
  8284 ;;      Totals:         6       0       0       0       0       0       0       0       0       0       0       0       
      +0       0       0       0
  8285 ;;Total ram usage:        6 bytes
  8286 ;; Hardware stack levels used:    1
  8287 ;; Hardware stack levels required when called:    4
  8288 ;; This function calls:
  8289 ;;		_USER_USB_CALLBACK_EVENT_HANDLER
  8290 ;; This function is called by:
  8291 ;;		_USBCheckStdRequest
  8292 ;; This function uses a non-reentrant model
  8293 ;;
  8294                           
  8295                           	psect	text46
  8296  0011F6                     __ptext46:
  8297                           	opt stack 0
  8298  0011F6                     _USBStdFeatureReqHandler:
  8299                           	opt stack 15
  8300                           
  8301                           ;usb_device.c: 2759: BDT_ENTRY *p;
  8302                           ;usb_device.c: 2760: EP_STATUS current_ep_data;
  8303                           ;usb_device.c: 2764: unsigned char* pUEP;
  8304                           ;usb_device.c: 2802: if((SetupPkt.bFeature == 1)&&
  8305                           ;usb_device.c: 2803: (SetupPkt.Recipient == (0x00)))
  8306                           
  8307                           ;incstack = 0
  8308  0011F6  010D               	movlb	13	; () banked
  8309  0011F8  0532               	decf	50,w,b	;volatile
  8310  0011FA  A4D8               	btfss	status,2,c
  8311  0011FC  D011               	goto	i2l975
  8312                           
  8313                           ; BSR set to: 13
  8314  0011FE  010D               	movlb	13	; () banked
  8315  001200  5130               	movf	48,w,b	;volatile
  8316  001202  0B1F               	andlw	31
  8317  001204  0900               	iorlw	0
  8318  001206  A4D8               	btfss	status,2,c
  8319  001208  D00B               	goto	i2l975
  8320                           
  8321                           ; BSR set to: 13
  8322                           ;usb_device.c: 2804: {
  8323                           ;usb_device.c: 2805: inPipes[0].info.bits.busy = 1;
  8324  00120A  8E28               	bsf	_inPipes+3,7,c	;volatile
  8325                           
  8326                           ; BSR set to: 13
  8327                           ;usb_device.c: 2806: if(SetupPkt.bRequest == 3)
  8328  00120C  0E03               	movlw	3
  8329  00120E  010D               	movlb	13	; () banked
  8330  001210  1931               	xorwf	49,w,b	;volatile
  8331  001212  A4D8               	btfss	status,2,c
  8332  001214  D002               	goto	i2l4418
  8333                           
  8334                           ; BSR set to: 13
  8335                           ;usb_device.c: 2807: RemoteWakeup = 1;
  8336  001216  0E01               	movlw	1
  8337  001218  D001               	goto	L6
  8338  00121A                     i2l4418:
  8339                           
  8340                           ; BSR set to: 13
  8341                           ;usb_device.c: 2808: else
  8342                           ;usb_device.c: 2809: RemoteWakeup = 0;
  8343  00121A  0E00               	movlw	0
  8344  00121C                     L6:
  8345  00121C  6E16               	movwf	_RemoteWakeup,c	;volatile
  8346  00121E  D000               	goto	i2l975
  8347  001220                     i2l975:
  8348                           
  8349                           ; BSR set to: 13
  8350                           ;usb_device.c: 2810: }
  8351                           ;usb_device.c: 2813: if((SetupPkt.bFeature == 0)&&
  8352                           ;usb_device.c: 2814: (SetupPkt.Recipient == (0x02))&&
  8353                           ;usb_device.c: 2815: (SetupPkt.EPNum != 0) && (SetupPkt.EPNum <= 2)&&
  8354                           ;usb_device.c: 2816: (USBDeviceState == CONFIGURED_STATE))
  8355  001220  010D               	movlb	13	; () banked
  8356  001222  5132               	movf	50,w,b	;volatile
  8357  001224  A4D8               	btfss	status,2,c
  8358  001226  0012               	return	
  8359                           
  8360                           ; BSR set to: 13
  8361  001228  010D               	movlb	13	; () banked
  8362  00122A  5130               	movf	48,w,b	;volatile
  8363  00122C  0B1F               	andlw	31
  8364  00122E  0A02               	xorlw	2
  8365  001230  A4D8               	btfss	status,2,c
  8366  001232  0012               	return	
  8367                           
  8368                           ; BSR set to: 13
  8369  001234  010D               	movlb	13	; () banked
  8370  001236  5134               	movf	52,w,b	;volatile
  8371  001238  0B0F               	andlw	15
  8372  00123A  0900               	iorlw	0
  8373  00123C  B4D8               	btfsc	status,2,c
  8374  00123E  0012               	return	
  8375                           
  8376                           ; BSR set to: 13
  8377  001240  010D               	movlb	13	; () banked
  8378  001242  5134               	movf	52,w,b	;volatile
  8379  001244  0B0F               	andlw	15
  8380  001246  6E41               	movwf	??_USBStdFeatureReqHandler& (0+255),c
  8381  001248  0E03               	movlw	3
  8382  00124A  6041               	cpfslt	??_USBStdFeatureReqHandler,c
  8383  00124C  0012               	return	
  8384                           
  8385                           ; BSR set to: 13
  8386  00124E  0E20               	movlw	32
  8387  001250  181A               	xorwf	_USBDeviceState,w,c	;volatile
  8388  001252  A4D8               	btfss	status,2,c
  8389  001254  0012               	return	
  8390                           
  8391                           ; BSR set to: 13
  8392                           ;usb_device.c: 2817: {
  8393                           ;usb_device.c: 2820: inPipes[0].info.bits.busy = 1;
  8394  001256  8E28               	bsf	_inPipes+3,7,c	;volatile
  8395                           
  8396                           ;usb_device.c: 2823: if(SetupPkt.EPDir == 0)
  8397  001258  010D               	movlb	13	; () banked
  8398  00125A  BF34               	btfsc	52,7,b	;volatile
  8399  00125C  D01B               	goto	i2l4432
  8400                           
  8401                           ; BSR set to: 13
  8402                           ;usb_device.c: 2824: {
  8403                           ;usb_device.c: 2825: p = (BDT_ENTRY*)pBDTEntryOut[SetupPkt.EPNum];
  8404  00125E  010D               	movlb	13	; () banked
  8405  001260  5134               	movf	52,w,b	;volatile
  8406  001262  0B0F               	andlw	15
  8407  001264  6E41               	movwf	??_USBStdFeatureReqHandler& (0+255),c
  8408  001266  5041               	movf	??_USBStdFeatureReqHandler,w,c
  8409  001268  0D02               	mullw	2
  8410  00126A  0E60               	movlw	low _pBDTEntryOut
  8411  00126C  24F3               	addwf	prodl,w,c
  8412  00126E  6ED9               	movwf	fsr2l,c
  8413  001270  0E00               	movlw	high _pBDTEntryOut
  8414  001272  20F4               	addwfc	prodh,w,c
  8415  001274  6EDA               	movwf	fsr2h,c
  8416  001276  CFDE F045          	movff	postinc2,USBStdFeatureReqHandler@p
  8417  00127A  CFDD F046          	movff	postdec2,USBStdFeatureReqHandler@p+1
  8418                           
  8419                           ;usb_device.c: 2826: current_ep_data.Val = ep_data_out[SetupPkt.EPNum].Val;
  8420  00127E  010D               	movlb	13	; () banked
  8421  001280  5134               	movf	52,w,b	;volatile
  8422  001282  0B0F               	andlw	15
  8423  001284  6E41               	movwf	??_USBStdFeatureReqHandler& (0+255),c
  8424  001286  5041               	movf	??_USBStdFeatureReqHandler,w,c
  8425  001288  0D01               	mullw	1
  8426  00128A  0E69               	movlw	low _ep_data_out
  8427  00128C  24F3               	addwf	prodl,w,c
  8428  00128E  6ED9               	movwf	fsr2l,c
  8429  001290  0E00               	movlw	high _ep_data_out
  8430  001292  D01A               	goto	L7
  8431  001294                     i2l4432:
  8432                           
  8433                           ; BSR set to: 13
  8434                           ;usb_device.c: 2828: else
  8435                           ;usb_device.c: 2829: {
  8436                           ;usb_device.c: 2830: p = (BDT_ENTRY*)pBDTEntryIn[SetupPkt.EPNum];
  8437  001294  010D               	movlb	13	; () banked
  8438  001296  5134               	movf	52,w,b	;volatile
  8439  001298  0B0F               	andlw	15
  8440  00129A  6E41               	movwf	??_USBStdFeatureReqHandler& (0+255),c
  8441  00129C  5041               	movf	??_USBStdFeatureReqHandler,w,c
  8442  00129E  0D02               	mullw	2
  8443  0012A0  0E0A               	movlw	low _pBDTEntryIn
  8444  0012A2  24F3               	addwf	prodl,w,c
  8445  0012A4  6ED9               	movwf	fsr2l,c
  8446  0012A6  0E00               	movlw	high _pBDTEntryIn
  8447  0012A8  20F4               	addwfc	prodh,w,c
  8448  0012AA  6EDA               	movwf	fsr2h,c
  8449  0012AC  CFDE F045          	movff	postinc2,USBStdFeatureReqHandler@p
  8450  0012B0  CFDD F046          	movff	postdec2,USBStdFeatureReqHandler@p+1
  8451                           
  8452                           ;usb_device.c: 2831: current_ep_data.Val = ep_data_in[SetupPkt.EPNum].Val;
  8453  0012B4  010D               	movlb	13	; () banked
  8454  0012B6  5134               	movf	52,w,b	;volatile
  8455  0012B8  0B0F               	andlw	15
  8456  0012BA  6E41               	movwf	??_USBStdFeatureReqHandler& (0+255),c
  8457  0012BC  5041               	movf	??_USBStdFeatureReqHandler,w,c
  8458  0012BE  0D01               	mullw	1
  8459  0012C0  0E66               	movlw	low _ep_data_in
  8460  0012C2  24F3               	addwf	prodl,w,c
  8461  0012C4  6ED9               	movwf	fsr2l,c
  8462  0012C6  0E00               	movlw	high _ep_data_in
  8463  0012C8                     L7:
  8464  0012C8  20F4               	addwfc	prodh,w,c
  8465  0012CA  6EDA               	movwf	fsr2h,c
  8466  0012CC  50DF               	movf	indf2,w,c
  8467  0012CE  6E44               	movwf	USBStdFeatureReqHandler@current_ep_data,c
  8468  0012D0  D000               	goto	i2l4434
  8469  0012D2                     i2l4434:
  8470                           
  8471                           ; BSR set to: 13
  8472                           ;usb_device.c: 2832: }
  8473                           ;usb_device.c: 2838: if(current_ep_data.bits.ping_pong_state == 0)
  8474  0012D2  B044               	btfsc	USBStdFeatureReqHandler@current_ep_data,0,c
  8475  0012D4  D002               	goto	i2l4438
  8476                           
  8477                           ; BSR set to: 13
  8478                           ;usb_device.c: 2839: {
  8479                           ;usb_device.c: 2840: {((uint8_t_VAL*)&p)->Val &= ~0x0004;};
  8480  0012D6  9445               	bcf	USBStdFeatureReqHandler@p,2,c
  8481                           
  8482                           ;usb_device.c: 2841: }
  8483  0012D8  D002               	goto	i2l4440
  8484  0012DA                     i2l4438:
  8485                           
  8486                           ; BSR set to: 13
  8487                           ;usb_device.c: 2842: else
  8488                           ;usb_device.c: 2843: {
  8489                           ;usb_device.c: 2844: {((uint8_t_VAL*)&p)->Val |= 0x0004;};
  8490  0012DA  8445               	bsf	USBStdFeatureReqHandler@p,2,c
  8491  0012DC  D000               	goto	i2l4440
  8492  0012DE                     i2l4440:
  8493                           
  8494                           ; BSR set to: 13
  8495                           ;usb_device.c: 2845: }
  8496                           ;usb_device.c: 2850: if(SetupPkt.EPDir == 0)
  8497  0012DE  010D               	movlb	13	; () banked
  8498  0012E0  BF34               	btfsc	52,7,b	;volatile
  8499  0012E2  D00B               	goto	i2l4444
  8500                           
  8501                           ; BSR set to: 13
  8502                           ;usb_device.c: 2851: {
  8503                           ;usb_device.c: 2852: pBDTEntryOut[SetupPkt.EPNum] = (volatile BDT_ENTRY *)p;
  8504  0012E4  010D               	movlb	13	; () banked
  8505  0012E6  5134               	movf	52,w,b	;volatile
  8506  0012E8  0B0F               	andlw	15
  8507  0012EA  6E41               	movwf	??_USBStdFeatureReqHandler& (0+255),c
  8508  0012EC  5041               	movf	??_USBStdFeatureReqHandler,w,c
  8509  0012EE  0D02               	mullw	2
  8510  0012F0  0E60               	movlw	low _pBDTEntryOut
  8511  0012F2  24F3               	addwf	prodl,w,c
  8512  0012F4  6ED9               	movwf	fsr2l,c
  8513  0012F6  0E00               	movlw	high _pBDTEntryOut
  8514  0012F8  D00A               	goto	L8
  8515  0012FA                     i2l4444:
  8516                           
  8517                           ; BSR set to: 13
  8518                           ;usb_device.c: 2854: else
  8519                           ;usb_device.c: 2855: {
  8520                           ;usb_device.c: 2856: pBDTEntryIn[SetupPkt.EPNum] = (volatile BDT_ENTRY *)p;
  8521  0012FA  010D               	movlb	13	; () banked
  8522  0012FC  5134               	movf	52,w,b	;volatile
  8523  0012FE  0B0F               	andlw	15
  8524  001300  6E41               	movwf	??_USBStdFeatureReqHandler& (0+255),c
  8525  001302  5041               	movf	??_USBStdFeatureReqHandler,w,c
  8526  001304  0D02               	mullw	2
  8527  001306  0E0A               	movlw	low _pBDTEntryIn
  8528  001308  24F3               	addwf	prodl,w,c
  8529  00130A  6ED9               	movwf	fsr2l,c
  8530  00130C  0E00               	movlw	high _pBDTEntryIn
  8531  00130E                     L8:
  8532  00130E  20F4               	addwfc	prodh,w,c
  8533  001310  6EDA               	movwf	fsr2h,c
  8534  001312  C045  FFDE         	movff	USBStdFeatureReqHandler@p,postinc2
  8535  001316  C046  FFDD         	movff	USBStdFeatureReqHandler@p+1,postdec2
  8536  00131A  D000               	goto	i2l4446
  8537  00131C                     i2l4446:
  8538                           
  8539                           ; BSR set to: 13
  8540                           ;usb_device.c: 2857: }
  8541                           ;usb_device.c: 2860: if(SetupPkt.bRequest == 3)
  8542  00131C  0E03               	movlw	3
  8543  00131E  010D               	movlb	13	; () banked
  8544  001320  1931               	xorwf	49,w,b	;volatile
  8545  001322  A4D8               	btfss	status,2,c
  8546  001324  D030               	goto	i2l4460
  8547                           
  8548                           ; BSR set to: 13
  8549                           ;usb_device.c: 2861: {
  8550                           ;usb_device.c: 2862: if(p->STAT.UOWN == 1)
  8551  001326  C045  FFD9         	movff	USBStdFeatureReqHandler@p,fsr2l
  8552  00132A  C046  FFDA         	movff	USBStdFeatureReqHandler@p+1,fsr2h
  8553  00132E  AEDF               	btfss	indf2,7,c
  8554  001330  D01D               	goto	i2l4456
  8555                           
  8556                           ; BSR set to: 13
  8557                           ;usb_device.c: 2863: {
  8558                           ;usb_device.c: 2866: if(SetupPkt.EPDir == 0)
  8559  001332  010D               	movlb	13	; () banked
  8560  001334  BF34               	btfsc	52,7,b	;volatile
  8561  001336  D00B               	goto	i2l4454
  8562                           
  8563                           ; BSR set to: 13
  8564                           ;usb_device.c: 2867: {
  8565                           ;usb_device.c: 2868: ep_data_out[SetupPkt.EPNum].bits.transfer_terminated = 1;
  8566  001338  010D               	movlb	13	; () banked
  8567  00133A  5134               	movf	52,w,b	;volatile
  8568  00133C  0B0F               	andlw	15
  8569  00133E  6E41               	movwf	??_USBStdFeatureReqHandler& (0+255),c
  8570  001340  5041               	movf	??_USBStdFeatureReqHandler,w,c
  8571  001342  0D01               	mullw	1
  8572  001344  0E69               	movlw	low _ep_data_out
  8573  001346  24F3               	addwf	prodl,w,c
  8574  001348  6ED9               	movwf	fsr2l,c
  8575  00134A  0E00               	movlw	high _ep_data_out
  8576  00134C  D00A               	goto	L9
  8577  00134E                     i2l4454:
  8578                           
  8579                           ;usb_device.c: 2870: else
  8580                           ;usb_device.c: 2871: {
  8581                           ;usb_device.c: 2872: ep_data_in[SetupPkt.EPNum].bits.transfer_terminated = 1;
  8582  00134E  010D               	movlb	13	; () banked
  8583  001350  5134               	movf	52,w,b	;volatile
  8584  001352  0B0F               	andlw	15
  8585  001354  6E41               	movwf	??_USBStdFeatureReqHandler& (0+255),c
  8586  001356  5041               	movf	??_USBStdFeatureReqHandler,w,c
  8587  001358  0D01               	mullw	1
  8588  00135A  0E66               	movlw	low _ep_data_in
  8589  00135C  24F3               	addwf	prodl,w,c
  8590  00135E  6ED9               	movwf	fsr2l,c
  8591  001360  0E00               	movlw	high _ep_data_in
  8592  001362                     L9:
  8593  001362  20F4               	addwfc	prodh,w,c
  8594  001364  6EDA               	movwf	fsr2h,c
  8595  001366  0100               	movlb	0	; () banked
  8596  001368  82DF               	bsf	indf2,1,c
  8597                           
  8598                           ; BSR set to: 0
  8599  00136A  D000               	goto	i2l4456
  8600  00136C                     i2l4456:
  8601                           
  8602                           ;usb_device.c: 2873: }
  8603                           ;usb_device.c: 2874: }
  8604                           ;usb_device.c: 2877: p->STAT.Val |= 0x04;
  8605  00136C  C045  FFD9         	movff	USBStdFeatureReqHandler@p,fsr2l
  8606  001370  C046  FFDA         	movff	USBStdFeatureReqHandler@p+1,fsr2h
  8607  001374  0E00               	movlw	0
  8608  001376  84DB               	bsf	plusw2,2,c
  8609                           
  8610                           ;usb_device.c: 2878: p->STAT.Val |= 0x80;
  8611  001378  C045  FFD9         	movff	USBStdFeatureReqHandler@p,fsr2l
  8612  00137C  C046  FFDA         	movff	USBStdFeatureReqHandler@p+1,fsr2h
  8613  001380  0E00               	movlw	0
  8614  001382  8EDB               	bsf	plusw2,7,c
  8615                           
  8616                           ;usb_device.c: 2879: }
  8617  001384  0012               	return	
  8618  001386                     i2l4460:
  8619                           
  8620                           ;usb_device.c: 2880: else
  8621                           ;usb_device.c: 2881: {
  8622                           ;usb_device.c: 2885: {((uint8_t_VAL*)&p)->Val ^= 0x0004;};
  8623  001386  0E04               	movlw	4
  8624  001388  1A45               	xorwf	USBStdFeatureReqHandler@p,f,c
  8625                           
  8626                           ;usb_device.c: 2887: if(p->STAT.UOWN == 1)
  8627  00138A  C045  FFD9         	movff	USBStdFeatureReqHandler@p,fsr2l
  8628  00138E  C046  FFDA         	movff	USBStdFeatureReqHandler@p+1,fsr2h
  8629  001392  AEDF               	btfss	indf2,7,c
  8630  001394  D01B               	goto	i2l4470
  8631                           
  8632                           ;usb_device.c: 2888: {
  8633                           ;usb_device.c: 2891: p->STAT.Val &= (~0x80);
  8634  001396  C045  FFD9         	movff	USBStdFeatureReqHandler@p,fsr2l
  8635  00139A  C046  FFDA         	movff	USBStdFeatureReqHandler@p+1,fsr2h
  8636  00139E  0E7F               	movlw	127
  8637  0013A0  16DF               	andwf	indf2,f,c
  8638                           
  8639                           ;usb_device.c: 2892: p->STAT.Val |= 0x40;
  8640  0013A2  C045  FFD9         	movff	USBStdFeatureReqHandler@p,fsr2l
  8641  0013A6  C046  FFDA         	movff	USBStdFeatureReqHandler@p+1,fsr2h
  8642  0013AA  0E00               	movlw	0
  8643  0013AC  8CDB               	bsf	plusw2,6,c
  8644                           
  8645                           ;usb_device.c: 2893: USER_USB_CALLBACK_EVENT_HANDLER(EVENT_TRANSFER_TERMINATED,p,sizeof(
      +                          p));
  8646  0013AE  0E00               	movlw	0
  8647  0013B0  6E3A               	movwf	USER_USB_CALLBACK_EVENT_HANDLER@event+1,c
  8648  0013B2  0E05               	movlw	5
  8649  0013B4  6E39               	movwf	USER_USB_CALLBACK_EVENT_HANDLER@event,c
  8650  0013B6  C045  F03B         	movff	USBStdFeatureReqHandler@p,USER_USB_CALLBACK_EVENT_HANDLER@pdata
  8651  0013BA  C046  F03C         	movff	USBStdFeatureReqHandler@p+1,USER_USB_CALLBACK_EVENT_HANDLER@pdata+1
  8652  0013BE  0E00               	movlw	0
  8653  0013C0  6E3E               	movwf	USER_USB_CALLBACK_EVENT_HANDLER@size+1,c
  8654  0013C2  0E02               	movlw	2
  8655  0013C4  6E3D               	movwf	USER_USB_CALLBACK_EVENT_HANDLER@size,c
  8656  0013C6  EC98  F018         	call	_USER_USB_CALLBACK_EVENT_HANDLER	;wreg free
  8657                           
  8658                           ;usb_device.c: 2894: }
  8659  0013CA  D007               	goto	i2l4472
  8660  0013CC                     i2l4470:
  8661                           
  8662                           ;usb_device.c: 2895: else
  8663                           ;usb_device.c: 2896: {
  8664                           ;usb_device.c: 2898: p->STAT.Val |= 0x40;
  8665  0013CC  C045  FFD9         	movff	USBStdFeatureReqHandler@p,fsr2l
  8666  0013D0  C046  FFDA         	movff	USBStdFeatureReqHandler@p+1,fsr2h
  8667  0013D4  0E00               	movlw	0
  8668  0013D6  8CDB               	bsf	plusw2,6,c
  8669  0013D8  D000               	goto	i2l4472
  8670  0013DA                     i2l4472:
  8671                           
  8672                           ;usb_device.c: 2899: }
  8673                           ;usb_device.c: 2903: {((uint8_t_VAL*)&p)->Val ^= 0x0004;};
  8674  0013DA  0E04               	movlw	4
  8675  0013DC  1A45               	xorwf	USBStdFeatureReqHandler@p,f,c
  8676                           
  8677                           ;usb_device.c: 2909: if((current_ep_data.bits.transfer_terminated != 0) || (p->STAT.UOWN
      +                           == 1))
  8678  0013DE  B244               	btfsc	USBStdFeatureReqHandler@current_ep_data,1,c
  8679  0013E0  D006               	goto	i2l994
  8680  0013E2  C045  FFD9         	movff	USBStdFeatureReqHandler@p,fsr2l
  8681  0013E6  C046  FFDA         	movff	USBStdFeatureReqHandler@p+1,fsr2h
  8682  0013EA  AEDF               	btfss	indf2,7,c
  8683  0013EC  D032               	goto	i2l4486
  8684  0013EE                     i2l994:
  8685                           
  8686                           ;usb_device.c: 2910: {
  8687                           ;usb_device.c: 2911: if(SetupPkt.EPDir == 0)
  8688  0013EE  010D               	movlb	13	; () banked
  8689  0013F0  BF34               	btfsc	52,7,b	;volatile
  8690  0013F2  D00B               	goto	i2l4480
  8691                           
  8692                           ; BSR set to: 13
  8693                           ;usb_device.c: 2912: {
  8694                           ;usb_device.c: 2913: ep_data_out[SetupPkt.EPNum].bits.transfer_terminated = 0;
  8695  0013F4  010D               	movlb	13	; () banked
  8696  0013F6  5134               	movf	52,w,b	;volatile
  8697  0013F8  0B0F               	andlw	15
  8698  0013FA  6E41               	movwf	??_USBStdFeatureReqHandler& (0+255),c
  8699  0013FC  5041               	movf	??_USBStdFeatureReqHandler,w,c
  8700  0013FE  0D01               	mullw	1
  8701  001400  0E69               	movlw	low _ep_data_out
  8702  001402  24F3               	addwf	prodl,w,c
  8703  001404  6ED9               	movwf	fsr2l,c
  8704  001406  0E00               	movlw	high _ep_data_out
  8705  001408  D00A               	goto	L10
  8706  00140A                     i2l4480:
  8707                           
  8708                           ;usb_device.c: 2915: else
  8709                           ;usb_device.c: 2916: {
  8710                           ;usb_device.c: 2917: ep_data_in[SetupPkt.EPNum].bits.transfer_terminated = 0;
  8711  00140A  010D               	movlb	13	; () banked
  8712  00140C  5134               	movf	52,w,b	;volatile
  8713  00140E  0B0F               	andlw	15
  8714  001410  6E41               	movwf	??_USBStdFeatureReqHandler& (0+255),c
  8715  001412  5041               	movf	??_USBStdFeatureReqHandler,w,c
  8716  001414  0D01               	mullw	1
  8717  001416  0E66               	movlw	low _ep_data_in
  8718  001418  24F3               	addwf	prodl,w,c
  8719  00141A  6ED9               	movwf	fsr2l,c
  8720  00141C  0E00               	movlw	high _ep_data_in
  8721  00141E                     L10:
  8722  00141E  20F4               	addwfc	prodh,w,c
  8723  001420  6EDA               	movwf	fsr2h,c
  8724  001422  0100               	movlb	0	; () banked
  8725  001424  92DF               	bcf	indf2,1,c
  8726  001426  D000               	goto	i2l4482
  8727  001428                     i2l4482:
  8728                           
  8729                           ; BSR set to: 0
  8730                           ;usb_device.c: 2918: }
  8731                           ;usb_device.c: 2920: p->STAT.Val &= ~(0x80 | 0x40 | 0x04);
  8732  001428  C045  FFD9         	movff	USBStdFeatureReqHandler@p,fsr2l
  8733  00142C  C046  FFDA         	movff	USBStdFeatureReqHandler@p+1,fsr2h
  8734  001430  0E3B               	movlw	59
  8735  001432  16DF               	andwf	indf2,f,c
  8736                           
  8737                           ; BSR set to: 0
  8738                           ;usb_device.c: 2923: USER_USB_CALLBACK_EVENT_HANDLER(EVENT_TRANSFER_TERMINATED,p,sizeof(
      +                          p));
  8739  001434  0E00               	movlw	0
  8740  001436  6E3A               	movwf	USER_USB_CALLBACK_EVENT_HANDLER@event+1,c
  8741  001438  0E05               	movlw	5
  8742  00143A  6E39               	movwf	USER_USB_CALLBACK_EVENT_HANDLER@event,c
  8743  00143C  C045  F03B         	movff	USBStdFeatureReqHandler@p,USER_USB_CALLBACK_EVENT_HANDLER@pdata
  8744  001440  C046  F03C         	movff	USBStdFeatureReqHandler@p+1,USER_USB_CALLBACK_EVENT_HANDLER@pdata+1
  8745  001444  0E00               	movlw	0
  8746  001446  6E3E               	movwf	USER_USB_CALLBACK_EVENT_HANDLER@size+1,c
  8747  001448  0E02               	movlw	2
  8748  00144A  6E3D               	movwf	USER_USB_CALLBACK_EVENT_HANDLER@size,c
  8749  00144C  EC98  F018         	call	_USER_USB_CALLBACK_EVENT_HANDLER	;wreg free
  8750                           
  8751                           ;usb_device.c: 2924: }
  8752  001450  D007               	goto	i2l4488
  8753  001452                     i2l4486:
  8754                           
  8755                           ;usb_device.c: 2925: else
  8756                           ;usb_device.c: 2926: {
  8757                           ;usb_device.c: 2928: p->STAT.Val &= ~(0x80 | 0x40 | 0x04);
  8758  001452  C045  FFD9         	movff	USBStdFeatureReqHandler@p,fsr2l
  8759  001456  C046  FFDA         	movff	USBStdFeatureReqHandler@p+1,fsr2h
  8760  00145A  0E3B               	movlw	59
  8761  00145C  16DF               	andwf	indf2,f,c
  8762  00145E  D000               	goto	i2l4488
  8763  001460                     i2l4488:
  8764                           
  8765                           ;usb_device.c: 2929: }
  8766                           ;usb_device.c: 2976: pUEP = (unsigned char*)(&UEP0+SetupPkt.EPNum);
  8767  001460  010D               	movlb	13	; () banked
  8768  001462  5134               	movf	52,w,b	;volatile
  8769  001464  0B0F               	andlw	15
  8770  001466  6E41               	movwf	??_USBStdFeatureReqHandler& (0+255),c
  8771  001468  5041               	movf	??_USBStdFeatureReqHandler,w,c
  8772  00146A  0D01               	mullw	1
  8773  00146C  0E26               	movlw	38
  8774  00146E  24F3               	addwf	prodl,w,c
  8775  001470  6E42               	movwf	USBStdFeatureReqHandler@pUEP,c
  8776  001472  0E0F               	movlw	15
  8777  001474  20F4               	addwfc	prodh,w,c
  8778  001476  6E43               	movwf	USBStdFeatureReqHandler@pUEP+1,c
  8779                           
  8780                           ; BSR set to: 13
  8781                           ;usb_device.c: 2980: *pUEP &= ~0x0001;
  8782  001478  C042  FFD9         	movff	USBStdFeatureReqHandler@pUEP,fsr2l
  8783  00147C  C043  FFDA         	movff	USBStdFeatureReqHandler@pUEP+1,fsr2h
  8784  001480  0EFE               	movlw	254
  8785  001482  16DF               	andwf	indf2,f,c
  8786                           
  8787                           ; BSR set to: 13
  8788  001484  0012               	return	
  8789                           
  8790                           ; BSR set to: 13
  8791  001486  0012               	return		;funcret
  8792  001488                     __end_of_USBStdFeatureReqHandler:
  8793                           	opt stack 0
  8794                           pclatu	equ	0xFFB
  8795                           pclath	equ	0xFFA
  8796                           tblptru	equ	0xFF8
  8797                           tblptrh	equ	0xFF7
  8798                           tblptrl	equ	0xFF6
  8799                           tablat	equ	0xFF5
  8800                           prodh	equ	0xFF4
  8801                           prodl	equ	0xFF3
  8802                           intcon	equ	0xFF2
  8803                           intcon2	equ	0xFF1
  8804                           indf0	equ	0xFEF
  8805                           postinc0	equ	0xFEE
  8806                           fsr0h	equ	0xFEA
  8807                           fsr0l	equ	0xFE9
  8808                           wreg	equ	0xFE8
  8809                           indf1	equ	0xFE7
  8810                           fsr1h	equ	0xFE2
  8811                           fsr1l	equ	0xFE1
  8812                           indf2	equ	0xFDF
  8813                           postinc2	equ	0xFDE
  8814                           postdec2	equ	0xFDD
  8815                           plusw2	equ	0xFDB
  8816                           fsr2h	equ	0xFDA
  8817                           fsr2l	equ	0xFD9
  8818                           status	equ	0xFD8
  8819                           
  8820 ;; *************** function _USER_USB_CALLBACK_EVENT_HANDLER *****************
  8821 ;; Defined at:
  8822 ;;		line 39 in file "../My_header/usb_cdc/my_usb_cdc.c"
  8823 ;; Parameters:    Size  Location     Type
  8824 ;;  event           2   12[COMRAM] enum E9723
  8825 ;;  pdata           2   14[COMRAM] PTR void 
  8826 ;;		 -> USTATcopy(1), USBActiveConfiguration(1), NULL(0), BDT(48), 
  8827 ;;  size            2   16[COMRAM] unsigned int 
  8828 ;; Auto vars:     Size  Location     Type
  8829 ;;		None
  8830 ;; Return value:  Size  Location     Type
  8831 ;;                  1    wreg      unsigned char 
  8832 ;; Registers used:
  8833 ;;		wreg, fsr2l, fsr2h, status,2, status,0, prodl, prodh, cstack
  8834 ;; Tracked objects:
  8835 ;;		On entry : 0/0
  8836 ;;		On exit  : 0/0
  8837 ;;		Unchanged: 0/0
  8838 ;; Data sizes:     COMRAM   BANK0   BANK1   BANK2   BANK3   BANK4   BANK5   BANK6   BANK7   BANK8   BANK9  BANK10  BANK1
      +1  BANK12  BANK13  BANK14
  8839 ;;      Params:         6       0       0       0       0       0       0       0       0       0       0       0       
      +0       0       0       0
  8840 ;;      Locals:         0       0       0       0       0       0       0       0       0       0       0       0       
      +0       0       0       0
  8841 ;;      Temps:          2       0       0       0       0       0       0       0       0       0       0       0       
      +0       0       0       0
  8842 ;;      Totals:         8       0       0       0       0       0       0       0       0       0       0       0       
      +0       0       0       0
  8843 ;;Total ram usage:        8 bytes
  8844 ;; Hardware stack levels used:    1
  8845 ;; Hardware stack levels required when called:    3
  8846 ;; This function calls:
  8847 ;;		_CDCInitEP
  8848 ;;		_USBCheckCDCRequest
  8849 ;; This function is called by:
  8850 ;;		_USBDeviceTasks
  8851 ;;		_USBStdSetCfgHandler
  8852 ;;		_USBSuspend
  8853 ;;		_USBWakeFromSuspend
  8854 ;;		_USBCtrlTrfSetupHandler
  8855 ;;		_USBCheckStdRequest
  8856 ;;		_USBStdFeatureReqHandler
  8857 ;; This function uses a non-reentrant model
  8858 ;;
  8859                           
  8860                           	psect	text47
  8861  003130                     __ptext47:
  8862                           	opt stack 0
  8863  003130                     _USER_USB_CALLBACK_EVENT_HANDLER:
  8864                           	opt stack 19
  8865                           
  8866                           ;my_usb_cdc.c: 40: switch ((int) event) {
  8867                           
  8868                           ;incstack = 0
  8869  003130  D006               	goto	i2l4170
  8870  003132                     i2l4164:
  8871                           
  8872                           ;my_usb_cdc.c: 42: CDCInitEP();
  8873  003132  EC11  F016         	call	_CDCInitEP	;wreg free
  8874                           
  8875                           ;my_usb_cdc.c: 43: break;
  8876  003136  0012               	return	
  8877  003138                     i2l4166:
  8878                           
  8879                           ;my_usb_cdc.c: 45: USBCheckCDCRequest();
  8880  003138  EC79  F012         	call	_USBCheckCDCRequest	;wreg free
  8881                           
  8882                           ;my_usb_cdc.c: 47: }
  8883                           
  8884                           ;my_usb_cdc.c: 46: break;
  8885  00313C  0012               	return	
  8886  00313E                     i2l4170:
  8887  00313E  C039  F03F         	movff	USER_USB_CALLBACK_EVENT_HANDLER@event,??_USER_USB_CALLBACK_EVENT_HANDLER
  8888  003142  C03A  F040         	movff	USER_USB_CALLBACK_EVENT_HANDLER@event+1,??_USER_USB_CALLBACK_EVENT_HANDLER+1
  8889                           
  8890                           ; Switch on 2 bytes has been partitioned into a top level switch of size 1, and 1 sub-sw
      +                          itches
  8891                           ; Switch size 1, requested type "space"
  8892                           ; Number of cases is 1, Range of values is 0 to 0
  8893                           ; switch strategies available:
  8894                           ; Name         Instructions Cycles
  8895                           ; simple_byte            4     3 (average)
  8896                           ;	Chosen strategy is simple_byte
  8897  003146  5040               	movf	??_USER_USB_CALLBACK_EVENT_HANDLER+1,w,c
  8898  003148  0A00               	xorlw	0	; case 0
  8899  00314A  A4D8               	btfss	status,2,c
  8900  00314C  0012               	return	
  8901                           
  8902                           ; Switch size 1, requested type "space"
  8903                           ; Number of cases is 2, Range of values is 1 to 3
  8904                           ; switch strategies available:
  8905                           ; Name         Instructions Cycles
  8906                           ; simple_byte            7     4 (average)
  8907                           ;	Chosen strategy is simple_byte
  8908  00314E  503F               	movf	??_USER_USB_CALLBACK_EVENT_HANDLER,w,c
  8909  003150  0A01               	xorlw	1	; case 1
  8910  003152  B4D8               	btfsc	status,2,c
  8911  003154  D7EE               	goto	i2l4164
  8912  003156  0A02               	xorlw	2	; case 3
  8913  003158  A4D8               	btfss	status,2,c
  8914  00315A  0012               	return	
  8915  00315C  D7ED               	goto	i2l4166
  8916                           
  8917                           ;my_usb_cdc.c: 48: return 1;
  8918                           ;	Return value of _USER_USB_CALLBACK_EVENT_HANDLER is never used
  8919  00315E  0012               	return		;funcret
  8920  003160                     __end_of_USER_USB_CALLBACK_EVENT_HANDLER:
  8921                           	opt stack 0
  8922                           pclatu	equ	0xFFB
  8923                           pclath	equ	0xFFA
  8924                           tblptru	equ	0xFF8
  8925                           tblptrh	equ	0xFF7
  8926                           tblptrl	equ	0xFF6
  8927                           tablat	equ	0xFF5
  8928                           prodh	equ	0xFF4
  8929                           prodl	equ	0xFF3
  8930                           intcon	equ	0xFF2
  8931                           intcon2	equ	0xFF1
  8932                           indf0	equ	0xFEF
  8933                           postinc0	equ	0xFEE
  8934                           fsr0h	equ	0xFEA
  8935                           fsr0l	equ	0xFE9
  8936                           wreg	equ	0xFE8
  8937                           indf1	equ	0xFE7
  8938                           fsr1h	equ	0xFE2
  8939                           fsr1l	equ	0xFE1
  8940                           indf2	equ	0xFDF
  8941                           postinc2	equ	0xFDE
  8942                           postdec2	equ	0xFDD
  8943                           plusw2	equ	0xFDB
  8944                           fsr2h	equ	0xFDA
  8945                           fsr2l	equ	0xFD9
  8946                           status	equ	0xFD8
  8947                           
  8948 ;; *************** function _USBCheckCDCRequest *****************
  8949 ;; Defined at:
  8950 ;;		line 204 in file "../My_header/usb_cdc/usb/usb_device_cdc.c"
  8951 ;; Parameters:    Size  Location     Type
  8952 ;;		None
  8953 ;; Auto vars:     Size  Location     Type
  8954 ;;		None
  8955 ;; Return value:  Size  Location     Type
  8956 ;;		None               void
  8957 ;; Registers used:
  8958 ;;		wreg, status,2, status,0
  8959 ;; Tracked objects:
  8960 ;;		On entry : 0/0
  8961 ;;		On exit  : 0/0
  8962 ;;		Unchanged: 0/0
  8963 ;; Data sizes:     COMRAM   BANK0   BANK1   BANK2   BANK3   BANK4   BANK5   BANK6   BANK7   BANK8   BANK9  BANK10  BANK1
      +1  BANK12  BANK13  BANK14
  8964 ;;      Params:         0       0       0       0       0       0       0       0       0       0       0       0       
      +0       0       0       0
  8965 ;;      Locals:         0       0       0       0       0       0       0       0       0       0       0       0       
      +0       0       0       0
  8966 ;;      Temps:          0       0       0       0       0       0       0       0       0       0       0       0       
      +0       0       0       0
  8967 ;;      Totals:         0       0       0       0       0       0       0       0       0       0       0       0       
      +0       0       0       0
  8968 ;;Total ram usage:        0 bytes
  8969 ;; Hardware stack levels used:    1
  8970 ;; This function calls:
  8971 ;;		Nothing
  8972 ;; This function is called by:
  8973 ;;		_USER_USB_CALLBACK_EVENT_HANDLER
  8974 ;; This function uses a non-reentrant model
  8975 ;;
  8976                           
  8977                           	psect	text48
  8978  0024F2                     __ptext48:
  8979                           	opt stack 0
  8980  0024F2                     _USBCheckCDCRequest:
  8981                           	opt stack 21
  8982                           
  8983                           ;usb_device_cdc.c: 209: if(SetupPkt.Recipient != (0x01)) return;
  8984                           
  8985                           ;incstack = 0
  8986  0024F2  010D               	movlb	13	; () banked
  8987  0024F4  5130               	movf	48,w,b	;volatile
  8988  0024F6  0B1F               	andlw	31
  8989  0024F8  06E8               	decf	wreg,f,c
  8990  0024FA  A4D8               	btfss	status,2,c
  8991  0024FC  0012               	return	
  8992  0024FE  D001               	goto	i2l4122
  8993                           
  8994                           ; BSR set to: 13
  8995  002500  0012               	return	
  8996  002502                     i2l4122:
  8997                           
  8998                           ; BSR set to: 13
  8999                           ;usb_device_cdc.c: 214: if(SetupPkt.RequestType != (0x20>>5)) return;
  9000  002502  010D               	movlb	13	; () banked
  9001  002504  3930               	swapf	48,w,b	;volatile
  9002  002506  32E8               	rrcf	wreg,f,c
  9003  002508  0B03               	andlw	3
  9004  00250A  06E8               	decf	wreg,f,c
  9005  00250C  A4D8               	btfss	status,2,c
  9006  00250E  0012               	return	
  9007  002510  D001               	goto	i2l4126
  9008                           
  9009                           ; BSR set to: 13
  9010  002512  0012               	return	
  9011  002514                     i2l4126:
  9012                           
  9013                           ; BSR set to: 13
  9014                           ;usb_device_cdc.c: 220: if((SetupPkt.bIntfID != 0x0)&&
  9015                           ;usb_device_cdc.c: 221: (SetupPkt.bIntfID != 0x01)) return;
  9016  002514  010D               	movlb	13	; () banked
  9017  002516  5134               	movf	52,w,b	;volatile
  9018  002518  B4D8               	btfsc	status,2,c
  9019  00251A  D037               	goto	i2l4156
  9020                           
  9021                           ; BSR set to: 13
  9022  00251C  010D               	movlb	13	; () banked
  9023  00251E  0534               	decf	52,w,b	;volatile
  9024  002520  A4D8               	btfss	status,2,c
  9025  002522  0012               	return	
  9026  002524  D032               	goto	i2l4156
  9027                           
  9028                           ; BSR set to: 13
  9029  002526  0012               	return	
  9030                           
  9031                           ; BSR set to: 13
  9032                           ;usb_device_cdc.c: 223: switch(SetupPkt.bRequest)
  9033  002528  D030               	goto	i2l4156
  9034  00252A                     i2l4132:
  9035                           
  9036                           ; BSR set to: 13
  9037                           ;usb_device_cdc.c: 228: inPipes[0].pSrc.bRam = (uint8_t*)&dummy_encapsulated_cmd_respons
      +                          e;
  9038  00252A  0ED9               	movlw	low _dummy_encapsulated_cmd_response
  9039  00252C  6E25               	movwf	_inPipes,c	;volatile
  9040  00252E  0E01               	movlw	high _dummy_encapsulated_cmd_response
  9041  002530  6E26               	movwf	_inPipes+1,c	;volatile
  9042                           
  9043                           ; BSR set to: 13
  9044                           ;usb_device_cdc.c: 229: inPipes[0].wCount.Val = 0x08;
  9045  002532  0E00               	movlw	0
  9046  002534  6E2A               	movwf	_inPipes+5,c	;volatile
  9047  002536  0E08               	movlw	8
  9048  002538  6E29               	movwf	_inPipes+4,c	;volatile
  9049                           
  9050                           ; BSR set to: 13
  9051                           ;usb_device_cdc.c: 230: inPipes[0].info.bits.ctrl_trf_mem = 0x01;
  9052  00253A  8028               	bsf	_inPipes+3,0,c	;volatile
  9053                           
  9054                           ; BSR set to: 13
  9055                           ;usb_device_cdc.c: 231: inPipes[0].info.bits.busy = 1;
  9056  00253C  8E28               	bsf	_inPipes+3,7,c	;volatile
  9057                           
  9058                           ;usb_device_cdc.c: 232: break;
  9059  00253E  0012               	return	
  9060  002540                     i2l4140:
  9061                           
  9062                           ; BSR set to: 13
  9063                           ;usb_device_cdc.c: 235: inPipes[0].pSrc.bRam = (uint8_t*)&dummy_encapsulated_cmd_respons
      +                          e;
  9064  002540  0ED9               	movlw	low _dummy_encapsulated_cmd_response
  9065  002542  6E25               	movwf	_inPipes,c	;volatile
  9066  002544  0E01               	movlw	high _dummy_encapsulated_cmd_response
  9067  002546  6E26               	movwf	_inPipes+1,c	;volatile
  9068                           
  9069                           ; BSR set to: 13
  9070                           ;usb_device_cdc.c: 236: inPipes[0].info.bits.busy = 1;
  9071  002548  8E28               	bsf	_inPipes+3,7,c	;volatile
  9072                           
  9073                           ;usb_device_cdc.c: 237: break;
  9074  00254A  0012               	return	
  9075  00254C                     i2l1051:
  9076                           
  9077                           ; BSR set to: 13
  9078                           ;usb_device_cdc.c: 242: outPipes[0].wCount.Val = SetupPkt.wLength;
  9079  00254C  CD36 F005          	movff	3382,_outPipes+4	;volatile
  9080  002550  CD37 F006          	movff	3383,_outPipes+5	;volatile
  9081                           
  9082                           ; BSR set to: 13
  9083                           ;usb_device_cdc.c: 243: outPipes[0].pDst.bRam = (uint8_t*)&line_coding._byte[0];
  9084  002554  0EF8               	movlw	low _line_coding
  9085  002556  6E01               	movwf	_outPipes,c	;volatile
  9086  002558  0E01               	movlw	high _line_coding
  9087  00255A  6E02               	movwf	_outPipes+1,c	;volatile
  9088                           
  9089                           ;usb_device_cdc.c: 244: outPipes[0].pFunc = (0);
  9090  00255C  0E00               	movlw	0
  9091  00255E  6E07               	movwf	_outPipes+6,c	;volatile
  9092  002560  0E00               	movlw	0
  9093  002562  6E08               	movwf	_outPipes+7,c	;volatile
  9094  002564  0E00               	movlw	0
  9095  002566  6E09               	movwf	_outPipes+8,c	;volatile
  9096                           
  9097                           ; BSR set to: 13
  9098                           ;usb_device_cdc.c: 245: outPipes[0].info.bits.busy = 1;
  9099  002568  8E04               	bsf	_outPipes+3,7,c	;volatile
  9100                           
  9101                           ;usb_device_cdc.c: 246: break;
  9102  00256A  0012               	return	
  9103  00256C                     i2l4148:
  9104                           
  9105                           ; BSR set to: 13
  9106                           ;usb_device_cdc.c: 249: { inPipes[0].pSrc.bRam = (uint8_t*)&line_coding; inPipes[0].wCou
      +                          nt.Val = 0x07; inPipes[0].info.Val = 0x40 | 0x80 | 0x01; };
  9107  00256C  0EF8               	movlw	low _line_coding
  9108  00256E  6E25               	movwf	_inPipes,c	;volatile
  9109  002570  0E01               	movlw	high _line_coding
  9110  002572  6E26               	movwf	_inPipes+1,c	;volatile
  9111                           
  9112                           ; BSR set to: 13
  9113  002574  0E00               	movlw	0
  9114  002576  6E2A               	movwf	_inPipes+5,c	;volatile
  9115  002578  0E07               	movlw	7
  9116  00257A  6E29               	movwf	_inPipes+4,c	;volatile
  9117                           
  9118                           ; BSR set to: 13
  9119  00257C  0EC1               	movlw	193
  9120  00257E  6E28               	movwf	_inPipes+3,c	;volatile
  9121                           
  9122                           ;usb_device_cdc.c: 253: break;
  9123  002580  0012               	return	
  9124  002582                     i2l1053:
  9125                           
  9126                           ; BSR set to: 13
  9127                           ;usb_device_cdc.c: 256: control_signal_bitmap._byte = (uint8_t)SetupPkt.wValue;
  9128  002582  CD32 F081          	movff	3378,_control_signal_bitmap	;volatile
  9129                           
  9130                           ;usb_device_cdc.c: 288: inPipes[0].info.bits.busy = 1;
  9131  002586  8E28               	bsf	_inPipes+3,7,c	;volatile
  9132                           
  9133                           ; BSR set to: 13
  9134                           ;usb_device_cdc.c: 315: }
  9135                           
  9136                           ; BSR set to: 13
  9137                           ;usb_device_cdc.c: 314: break;
  9138                           
  9139                           ;usb_device_cdc.c: 313: default:
  9140                           
  9141                           ;usb_device_cdc.c: 289: break;
  9142  002588  0012               	return	
  9143  00258A                     i2l4156:
  9144                           
  9145                           ; BSR set to: 13
  9146  00258A  010D               	movlb	13	; () banked
  9147  00258C  5131               	movf	49,w,b	;volatile
  9148                           
  9149                           ; Switch size 1, requested type "space"
  9150                           ; Number of cases is 5, Range of values is 0 to 34
  9151                           ; switch strategies available:
  9152                           ; Name         Instructions Cycles
  9153                           ; simple_byte           16     9 (average)
  9154                           ;	Chosen strategy is simple_byte
  9155  00258E  0A00               	xorlw	0	; case 0
  9156  002590  B4D8               	btfsc	status,2,c
  9157  002592  D7CB               	goto	i2l4132
  9158  002594  0A01               	xorlw	1	; case 1
  9159  002596  B4D8               	btfsc	status,2,c
  9160  002598  D7D3               	goto	i2l4140
  9161  00259A  0A21               	xorlw	33	; case 32
  9162  00259C  B4D8               	btfsc	status,2,c
  9163  00259E  D7D6               	goto	i2l1051
  9164  0025A0  0A01               	xorlw	1	; case 33
  9165  0025A2  B4D8               	btfsc	status,2,c
  9166  0025A4  D7E3               	goto	i2l4148
  9167  0025A6  0A03               	xorlw	3	; case 34
  9168  0025A8  A4D8               	btfss	status,2,c
  9169  0025AA  0012               	return	
  9170  0025AC  D7EA               	goto	i2l1053
  9171                           
  9172                           ; BSR set to: 13
  9173                           
  9174                           ; BSR set to: 13
  9175  0025AE  0012               	return		;funcret
  9176  0025B0                     __end_of_USBCheckCDCRequest:
  9177                           	opt stack 0
  9178                           pclatu	equ	0xFFB
  9179                           pclath	equ	0xFFA
  9180                           tblptru	equ	0xFF8
  9181                           tblptrh	equ	0xFF7
  9182                           tblptrl	equ	0xFF6
  9183                           tablat	equ	0xFF5
  9184                           prodh	equ	0xFF4
  9185                           prodl	equ	0xFF3
  9186                           intcon	equ	0xFF2
  9187                           intcon2	equ	0xFF1
  9188                           indf0	equ	0xFEF
  9189                           postinc0	equ	0xFEE
  9190                           fsr0h	equ	0xFEA
  9191                           fsr0l	equ	0xFE9
  9192                           wreg	equ	0xFE8
  9193                           indf1	equ	0xFE7
  9194                           fsr1h	equ	0xFE2
  9195                           fsr1l	equ	0xFE1
  9196                           indf2	equ	0xFDF
  9197                           postinc2	equ	0xFDE
  9198                           postdec2	equ	0xFDD
  9199                           plusw2	equ	0xFDB
  9200                           fsr2h	equ	0xFDA
  9201                           fsr2l	equ	0xFD9
  9202                           status	equ	0xFD8
  9203                           
  9204 ;; *************** function _CDCInitEP *****************
  9205 ;; Defined at:
  9206 ;;		line 351 in file "../My_header/usb_cdc/usb/usb_device_cdc.c"
  9207 ;; Parameters:    Size  Location     Type
  9208 ;;		None
  9209 ;; Auto vars:     Size  Location     Type
  9210 ;;		None
  9211 ;; Return value:  Size  Location     Type
  9212 ;;		None               void
  9213 ;; Registers used:
  9214 ;;		wreg, fsr2l, fsr2h, status,2, status,0, prodl, prodh, cstack
  9215 ;; Tracked objects:
  9216 ;;		On entry : 0/0
  9217 ;;		On exit  : 0/0
  9218 ;;		Unchanged: 0/0
  9219 ;; Data sizes:     COMRAM   BANK0   BANK1   BANK2   BANK3   BANK4   BANK5   BANK6   BANK7   BANK8   BANK9  BANK10  BANK1
      +1  BANK12  BANK13  BANK14
  9220 ;;      Params:         0       0       0       0       0       0       0       0       0       0       0       0       
      +0       0       0       0
  9221 ;;      Locals:         0       0       0       0       0       0       0       0       0       0       0       0       
      +0       0       0       0
  9222 ;;      Temps:          0       0       0       0       0       0       0       0       0       0       0       0       
      +0       0       0       0
  9223 ;;      Totals:         0       0       0       0       0       0       0       0       0       0       0       0       
      +0       0       0       0
  9224 ;;Total ram usage:        0 bytes
  9225 ;; Hardware stack levels used:    1
  9226 ;; Hardware stack levels required when called:    2
  9227 ;; This function calls:
  9228 ;;		_USBEnableEndpoint
  9229 ;;		i2_USBTransferOnePacket
  9230 ;; This function is called by:
  9231 ;;		_USER_USB_CALLBACK_EVENT_HANDLER
  9232 ;; This function uses a non-reentrant model
  9233 ;;
  9234                           
  9235                           	psect	text49
  9236  002C22                     __ptext49:
  9237                           	opt stack 0
  9238  002C22                     _CDCInitEP:
  9239                           	opt stack 19
  9240                           
  9241                           ;usb_device_cdc.c: 354: line_coding.dwDTERate = 19200;
  9242                           
  9243                           ; BSR set to: 13
  9244                           ;incstack = 0
  9245  002C22  0E00               	movlw	0
  9246  002C24  0101               	movlb	1	; () banked
  9247  002C26  6FF8               	movwf	_line_coding& (0+255),b
  9248  002C28  0E4B               	movlw	75
  9249  002C2A  6FF9               	movwf	(_line_coding+1)& (0+255),b
  9250  002C2C  0E00               	movlw	0
  9251  002C2E  6FFA               	movwf	(_line_coding+2)& (0+255),b
  9252  002C30  0E00               	movlw	0
  9253  002C32  6FFB               	movwf	(_line_coding+3)& (0+255),b
  9254                           
  9255                           ;usb_device_cdc.c: 355: line_coding.bCharFormat = 0x00;
  9256  002C34  0E00               	movlw	0
  9257  002C36  0101               	movlb	1	; () banked
  9258  002C38  6FFC               	movwf	(_line_coding+4)& (0+255),b
  9259                           
  9260                           ;usb_device_cdc.c: 356: line_coding.bParityType = 0x00;
  9261  002C3A  0E00               	movlw	0
  9262  002C3C  0101               	movlb	1	; () banked
  9263  002C3E  6FFD               	movwf	(_line_coding+5)& (0+255),b
  9264                           
  9265                           ;usb_device_cdc.c: 357: line_coding.bDataBits = 0x08;
  9266  002C40  0E08               	movlw	8
  9267  002C42  0101               	movlb	1	; () banked
  9268  002C44  6FFE               	movwf	(_line_coding+6)& (0+255),b
  9269                           
  9270                           ;usb_device_cdc.c: 359: cdc_rx_len = 0;
  9271  002C46  0E00               	movlw	0
  9272  002C48  0100               	movlb	0	; () banked
  9273  002C4A  6F7E               	movwf	_cdc_rx_len& (0+255),b
  9274                           
  9275                           ; BSR set to: 0
  9276                           ;usb_device_cdc.c: 372: USBEnableEndpoint(1,0x02|0x10|0x08);
  9277  002C4C  0E1A               	movlw	26
  9278  002C4E  6E35               	movwf	USBEnableEndpoint@options,c
  9279  002C50  0E01               	movlw	1
  9280  002C52  ECBA  F017         	call	_USBEnableEndpoint
  9281                           
  9282                           ;usb_device_cdc.c: 373: USBEnableEndpoint(2,0x02|0x04|0x10|0x08);
  9283  002C56  0E1E               	movlw	30
  9284  002C58  6E35               	movwf	USBEnableEndpoint@options,c
  9285  002C5A  0E02               	movlw	2
  9286  002C5C  ECBA  F017         	call	_USBEnableEndpoint
  9287                           
  9288                           ;usb_device_cdc.c: 375: CDCDataOutHandle = USBTransferOnePacket(2,0,(uint8_t*)&cdc_data_
      +                          rx,sizeof(cdc_data_rx));
  9289  002C60  0E00               	movlw	0
  9290  002C62  6E2D               	movwf	i2USBTransferOnePacket@dir,c
  9291  002C64  0E00               	movlw	low _cdc_data_rx
  9292  002C66  6E2E               	movwf	i2USBTransferOnePacket@data,c
  9293  002C68  0E03               	movlw	high _cdc_data_rx
  9294  002C6A  6E2F               	movwf	i2USBTransferOnePacket@data+1,c
  9295  002C6C  0E40               	movlw	64
  9296  002C6E  6E30               	movwf	i2USBTransferOnePacket@len,c
  9297  002C70  0E02               	movlw	2
  9298  002C72  EC19  F012         	call	i2_USBTransferOnePacket
  9299  002C76  C02D  F076         	movff	?i2_USBTransferOnePacket,_CDCDataOutHandle
  9300  002C7A  C02E  F077         	movff	?i2_USBTransferOnePacket+1,_CDCDataOutHandle+1
  9301                           
  9302                           ;usb_device_cdc.c: 376: CDCDataInHandle = (0);
  9303  002C7E  0E00               	movlw	0
  9304  002C80  0100               	movlb	0	; () banked
  9305  002C82  6F74               	movwf	_CDCDataInHandle& (0+255),b
  9306  002C84  0E00               	movlw	0
  9307  002C86  0100               	movlb	0	; () banked
  9308  002C88  6F75               	movwf	(_CDCDataInHandle+1)& (0+255),b
  9309                           
  9310                           ; BSR set to: 0
  9311                           ;usb_device_cdc.c: 403: cdc_trf_state = 0;
  9312  002C8A  0E00               	movlw	0
  9313  002C8C  0100               	movlb	0	; () banked
  9314  002C8E  6F7F               	movwf	_cdc_trf_state& (0+255),b
  9315                           
  9316                           ; BSR set to: 0
  9317  002C90  0012               	return		;funcret
  9318  002C92                     __end_of_CDCInitEP:
  9319                           	opt stack 0
  9320                           pclatu	equ	0xFFB
  9321                           pclath	equ	0xFFA
  9322                           tblptru	equ	0xFF8
  9323                           tblptrh	equ	0xFF7
  9324                           tblptrl	equ	0xFF6
  9325                           tablat	equ	0xFF5
  9326                           prodh	equ	0xFF4
  9327                           prodl	equ	0xFF3
  9328                           intcon	equ	0xFF2
  9329                           intcon2	equ	0xFF1
  9330                           indf0	equ	0xFEF
  9331                           postinc0	equ	0xFEE
  9332                           fsr0h	equ	0xFEA
  9333                           fsr0l	equ	0xFE9
  9334                           wreg	equ	0xFE8
  9335                           indf1	equ	0xFE7
  9336                           fsr1h	equ	0xFE2
  9337                           fsr1l	equ	0xFE1
  9338                           indf2	equ	0xFDF
  9339                           postinc2	equ	0xFDE
  9340                           postdec2	equ	0xFDD
  9341                           plusw2	equ	0xFDB
  9342                           fsr2h	equ	0xFDA
  9343                           fsr2l	equ	0xFD9
  9344                           status	equ	0xFD8
  9345                           
  9346 ;; *************** function i2_USBTransferOnePacket *****************
  9347 ;; Defined at:
  9348 ;;		line 995 in file "../My_header/usb_cdc/usb/usb_device.c"
  9349 ;; Parameters:    Size  Location     Type
  9350 ;;  ep              1    wreg     unsigned char 
  9351 ;;  dir             1    0[COMRAM] unsigned char 
  9352 ;;  data            2    1[COMRAM] PTR unsigned char 
  9353 ;;		 -> cdc_data_tx(64), cdc_data_rx(64), NULL(0), 
  9354 ;;  len             1    3[COMRAM] unsigned char 
  9355 ;; Auto vars:     Size  Location     Type
  9356 ;;  ep              1    4[COMRAM] unsigned char 
  9357 ;;  USBTransferO    2    5[COMRAM] PTR volatile struct __BD
  9358 ;;		 -> NULL(0), BDT(48), 
  9359 ;; Return value:  Size  Location     Type
  9360 ;;                  2    0[COMRAM] PTR void 
  9361 ;; Registers used:
  9362 ;;		wreg, fsr2l, fsr2h, status,2, status,0, prodl, prodh
  9363 ;; Tracked objects:
  9364 ;;		On entry : 0/0
  9365 ;;		On exit  : 0/0
  9366 ;;		Unchanged: 0/0
  9367 ;; Data sizes:     COMRAM   BANK0   BANK1   BANK2   BANK3   BANK4   BANK5   BANK6   BANK7   BANK8   BANK9  BANK10  BANK1
      +1  BANK12  BANK13  BANK14
  9368 ;;      Params:         4       0       0       0       0       0       0       0       0       0       0       0       
      +0       0       0       0
  9369 ;;      Locals:         3       0       0       0       0       0       0       0       0       0       0       0       
      +0       0       0       0
  9370 ;;      Temps:          0       0       0       0       0       0       0       0       0       0       0       0       
      +0       0       0       0
  9371 ;;      Totals:         7       0       0       0       0       0       0       0       0       0       0       0       
      +0       0       0       0
  9372 ;;Total ram usage:        7 bytes
  9373 ;; Hardware stack levels used:    1
  9374 ;; This function calls:
  9375 ;;		Nothing
  9376 ;; This function is called by:
  9377 ;;		_CDCInitEP
  9378 ;; This function uses a non-reentrant model
  9379 ;;
  9380                           
  9381                           	psect	text50
  9382  002432                     __ptext50:
  9383                           	opt stack 0
  9384  002432                     i2_USBTransferOnePacket:
  9385                           	opt stack 20
  9386                           
  9387                           ; BSR set to: 0
  9388                           ;incstack = 0
  9389                           ;i2USBTransferOnePacket@ep stored from wreg
  9390  002432  6E31               	movwf	i2USBTransferOnePacket@ep,c
  9391                           
  9392                           ;usb_device.c: 997: volatile BDT_ENTRY* handle;
  9393                           ;usb_device.c: 1000: if(dir != 0)
  9394  002434  502D               	movf	i2USBTransferOnePacket@dir,w,c
  9395  002436  B4D8               	btfsc	status,2,c
  9396  002438  D007               	goto	i2l4080
  9397                           
  9398                           ;usb_device.c: 1001: {
  9399                           ;usb_device.c: 1003: handle = pBDTEntryIn[ep];
  9400  00243A  5031               	movf	i2USBTransferOnePacket@ep,w,c
  9401  00243C  0D02               	mullw	2
  9402  00243E  0E0A               	movlw	low _pBDTEntryIn
  9403  002440  24F3               	addwf	prodl,w,c
  9404  002442  6ED9               	movwf	fsr2l,c
  9405  002444  0E00               	movlw	high _pBDTEntryIn
  9406  002446  D006               	goto	L11
  9407  002448                     i2l4080:
  9408                           
  9409                           ;usb_device.c: 1005: else
  9410                           ;usb_device.c: 1006: {
  9411                           ;usb_device.c: 1008: handle = pBDTEntryOut[ep];
  9412  002448  5031               	movf	i2USBTransferOnePacket@ep,w,c
  9413  00244A  0D02               	mullw	2
  9414  00244C  0E60               	movlw	low _pBDTEntryOut
  9415  00244E  24F3               	addwf	prodl,w,c
  9416  002450  6ED9               	movwf	fsr2l,c
  9417  002452  0E00               	movlw	high _pBDTEntryOut
  9418  002454                     L11:
  9419  002454  20F4               	addwfc	prodh,w,c
  9420  002456  6EDA               	movwf	fsr2h,c
  9421  002458  CFDE F032          	movff	postinc2,i2USBTransferOnePacket@handle
  9422  00245C  CFDD F033          	movff	postdec2,i2USBTransferOnePacket@handle+1
  9423  002460  D000               	goto	i2l4082
  9424  002462                     i2l4082:
  9425                           
  9426                           ;usb_device.c: 1009: }
  9427                           ;usb_device.c: 1013: if(handle == 0)
  9428  002462  5032               	movf	i2USBTransferOnePacket@handle,w,c
  9429  002464  1033               	iorwf	i2USBTransferOnePacket@handle+1,w,c
  9430  002466  A4D8               	btfss	status,2,c
  9431  002468  D005               	goto	i2l4088
  9432                           
  9433                           ;usb_device.c: 1014: {
  9434                           ;usb_device.c: 1015: return 0;
  9435  00246A  0E00               	movlw	0
  9436  00246C  6E2D               	movwf	?i2_USBTransferOnePacket,c
  9437  00246E  0E00               	movlw	0
  9438  002470  6E2E               	movwf	?i2_USBTransferOnePacket+1,c
  9439  002472  0012               	return	
  9440  002474                     i2l4088:
  9441                           
  9442                           ;usb_device.c: 1016: }
  9443                           ;usb_device.c: 1029: handle->ADR = ((uint16_t)(data));
  9444  002474  EE20 F002          	lfsr	2,2
  9445  002478  5032               	movf	i2USBTransferOnePacket@handle,w,c
  9446  00247A  26D9               	addwf	fsr2l,f,c
  9447  00247C  5033               	movf	i2USBTransferOnePacket@handle+1,w,c
  9448  00247E  22DA               	addwfc	fsr2h,f,c
  9449  002480  C02E  FFDE         	movff	i2USBTransferOnePacket@data,postinc2
  9450  002484  C02F  FFDD         	movff	i2USBTransferOnePacket@data+1,postdec2
  9451                           
  9452                           ;usb_device.c: 1030: handle->CNT = len;
  9453  002488  EE20 F001          	lfsr	2,1
  9454  00248C  5032               	movf	i2USBTransferOnePacket@handle,w,c
  9455  00248E  26D9               	addwf	fsr2l,f,c
  9456  002490  5033               	movf	i2USBTransferOnePacket@handle+1,w,c
  9457  002492  22DA               	addwfc	fsr2h,f,c
  9458  002494  C030  FFDF         	movff	i2USBTransferOnePacket@len,indf2
  9459                           
  9460                           ;usb_device.c: 1031: handle->STAT.Val &= 0x40;
  9461  002498  C032  FFD9         	movff	i2USBTransferOnePacket@handle,fsr2l
  9462  00249C  C033  FFDA         	movff	i2USBTransferOnePacket@handle+1,fsr2h
  9463  0024A0  0E40               	movlw	64
  9464  0024A2  16DF               	andwf	indf2,f,c
  9465                           
  9466                           ;usb_device.c: 1032: handle->STAT.Val |= (0x08 & 0x08);
  9467  0024A4  C032  FFD9         	movff	i2USBTransferOnePacket@handle,fsr2l
  9468  0024A8  C033  FFDA         	movff	i2USBTransferOnePacket@handle+1,fsr2h
  9469  0024AC  0E00               	movlw	0
  9470  0024AE  86DB               	bsf	plusw2,3,c
  9471                           
  9472                           ;usb_device.c: 1033: handle->STAT.Val |= 0x80;
  9473  0024B0  C032  FFD9         	movff	i2USBTransferOnePacket@handle,fsr2l
  9474  0024B4  C033  FFDA         	movff	i2USBTransferOnePacket@handle+1,fsr2h
  9475  0024B8  0E00               	movlw	0
  9476  0024BA  8EDB               	bsf	plusw2,7,c
  9477                           
  9478                           ;usb_device.c: 1036: if(dir != 0)
  9479  0024BC  502D               	movf	i2USBTransferOnePacket@dir,w,c
  9480  0024BE  B4D8               	btfsc	status,2,c
  9481  0024C0  D007               	goto	i2l4100
  9482                           
  9483                           ;usb_device.c: 1037: {
  9484                           ;usb_device.c: 1039: {((uint8_t_VAL*)&pBDTEntryIn[ep])->Val ^= 0x0004;};
  9485  0024C2  5031               	movf	i2USBTransferOnePacket@ep,w,c
  9486  0024C4  0D02               	mullw	2
  9487  0024C6  0E0A               	movlw	low _pBDTEntryIn
  9488  0024C8  24F3               	addwf	prodl,w,c
  9489  0024CA  6ED9               	movwf	fsr2l,c
  9490  0024CC  0E00               	movlw	high _pBDTEntryIn
  9491  0024CE  D006               	goto	L12
  9492  0024D0                     i2l4100:
  9493                           
  9494                           ;usb_device.c: 1041: else
  9495                           ;usb_device.c: 1042: {
  9496                           ;usb_device.c: 1044: {((uint8_t_VAL*)&pBDTEntryOut[ep])->Val ^= 0x0004;};
  9497  0024D0  5031               	movf	i2USBTransferOnePacket@ep,w,c
  9498  0024D2  0D02               	mullw	2
  9499  0024D4  0E60               	movlw	low _pBDTEntryOut
  9500  0024D6  24F3               	addwf	prodl,w,c
  9501  0024D8  6ED9               	movwf	fsr2l,c
  9502  0024DA  0E00               	movlw	high _pBDTEntryOut
  9503  0024DC                     L12:
  9504  0024DC  20F4               	addwfc	prodh,w,c
  9505  0024DE  6EDA               	movwf	fsr2h,c
  9506  0024E0  0E04               	movlw	4
  9507  0024E2  1ADF               	xorwf	indf2,f,c
  9508  0024E4  D000               	goto	i2l4102
  9509  0024E6                     i2l4102:
  9510                           
  9511                           ;usb_device.c: 1045: }
  9512                           ;usb_device.c: 1046: return (void*)handle;
  9513  0024E6  C032  F02D         	movff	i2USBTransferOnePacket@handle,?i2_USBTransferOnePacket
  9514  0024EA  C033  F02E         	movff	i2USBTransferOnePacket@handle+1,?i2_USBTransferOnePacket+1
  9515  0024EE  0012               	return	
  9516  0024F0  0012               	return		;funcret
  9517  0024F2                     __end_ofi2_USBTransferOnePacket:
  9518                           	opt stack 0
  9519                           pclatu	equ	0xFFB
  9520                           pclath	equ	0xFFA
  9521                           tblptru	equ	0xFF8
  9522                           tblptrh	equ	0xFF7
  9523                           tblptrl	equ	0xFF6
  9524                           tablat	equ	0xFF5
  9525                           prodh	equ	0xFF4
  9526                           prodl	equ	0xFF3
  9527                           intcon	equ	0xFF2
  9528                           intcon2	equ	0xFF1
  9529                           indf0	equ	0xFEF
  9530                           postinc0	equ	0xFEE
  9531                           fsr0h	equ	0xFEA
  9532                           fsr0l	equ	0xFE9
  9533                           wreg	equ	0xFE8
  9534                           indf1	equ	0xFE7
  9535                           fsr1h	equ	0xFE2
  9536                           fsr1l	equ	0xFE1
  9537                           indf2	equ	0xFDF
  9538                           postinc2	equ	0xFDE
  9539                           postdec2	equ	0xFDD
  9540                           plusw2	equ	0xFDB
  9541                           fsr2h	equ	0xFDA
  9542                           fsr2l	equ	0xFD9
  9543                           status	equ	0xFD8
  9544                           
  9545 ;; *************** function _USBEnableEndpoint *****************
  9546 ;; Defined at:
  9547 ;;		line 878 in file "../My_header/usb_cdc/usb/usb_device.c"
  9548 ;; Parameters:    Size  Location     Type
  9549 ;;  ep              1    wreg     unsigned char 
  9550 ;;  options         1    8[COMRAM] unsigned char 
  9551 ;; Auto vars:     Size  Location     Type
  9552 ;;  ep              1   11[COMRAM] unsigned char 
  9553 ;;  p               2    9[COMRAM] PTR unsigned char 
  9554 ;;		 -> UEP0(1), 
  9555 ;; Return value:  Size  Location     Type
  9556 ;;		None               void
  9557 ;; Registers used:
  9558 ;;		wreg, fsr2l, fsr2h, status,2, status,0, prodl, prodh, cstack
  9559 ;; Tracked objects:
  9560 ;;		On entry : 0/0
  9561 ;;		On exit  : 0/0
  9562 ;;		Unchanged: 0/0
  9563 ;; Data sizes:     COMRAM   BANK0   BANK1   BANK2   BANK3   BANK4   BANK5   BANK6   BANK7   BANK8   BANK9  BANK10  BANK1
      +1  BANK12  BANK13  BANK14
  9564 ;;      Params:         1       0       0       0       0       0       0       0       0       0       0       0       
      +0       0       0       0
  9565 ;;      Locals:         3       0       0       0       0       0       0       0       0       0       0       0       
      +0       0       0       0
  9566 ;;      Temps:          0       0       0       0       0       0       0       0       0       0       0       0       
      +0       0       0       0
  9567 ;;      Totals:         4       0       0       0       0       0       0       0       0       0       0       0       
      +0       0       0       0
  9568 ;;Total ram usage:        4 bytes
  9569 ;; Hardware stack levels used:    1
  9570 ;; Hardware stack levels required when called:    1
  9571 ;; This function calls:
  9572 ;;		_USBConfigureEndpoint
  9573 ;; This function is called by:
  9574 ;;		_CDCInitEP
  9575 ;; This function uses a non-reentrant model
  9576 ;;
  9577                           
  9578                           	psect	text51
  9579  002F74                     __ptext51:
  9580                           	opt stack 0
  9581  002F74                     _USBEnableEndpoint:
  9582                           	opt stack 19
  9583                           
  9584                           ;incstack = 0
  9585                           ;USBEnableEndpoint@ep stored from wreg
  9586  002F74  6E38               	movwf	USBEnableEndpoint@ep,c
  9587                           
  9588                           ;usb_device.c: 880: unsigned char* p;
  9589                           ;usb_device.c: 884: if(options & 0x04)
  9590  002F76  A435               	btfss	USBEnableEndpoint@options,2,c
  9591  002F78  D006               	goto	i2l4068
  9592                           
  9593                           ;usb_device.c: 885: {
  9594                           ;usb_device.c: 886: USBConfigureEndpoint(ep, 0);
  9595  002F7A  0E00               	movlw	0
  9596  002F7C  6E2D               	movwf	USBConfigureEndpoint@direction,c
  9597  002F7E  5038               	movf	USBEnableEndpoint@ep,w,c
  9598  002F80  EC3B  F015         	call	_USBConfigureEndpoint
  9599  002F84  D000               	goto	i2l4068
  9600  002F86                     i2l4068:
  9601                           
  9602                           ;usb_device.c: 887: }
  9603                           ;usb_device.c: 888: if(options & 0x02)
  9604  002F86  A235               	btfss	USBEnableEndpoint@options,1,c
  9605  002F88  D006               	goto	i2l4072
  9606                           
  9607                           ;usb_device.c: 889: {
  9608                           ;usb_device.c: 890: USBConfigureEndpoint(ep, 1);
  9609  002F8A  0E01               	movlw	1
  9610  002F8C  6E2D               	movwf	USBConfigureEndpoint@direction,c
  9611  002F8E  5038               	movf	USBEnableEndpoint@ep,w,c
  9612  002F90  EC3B  F015         	call	_USBConfigureEndpoint
  9613  002F94  D000               	goto	i2l4072
  9614  002F96                     i2l4072:
  9615                           
  9616                           ;usb_device.c: 891: }
  9617                           ;usb_device.c: 899: p = (unsigned char*)(&UEP0+ep);
  9618  002F96  5038               	movf	USBEnableEndpoint@ep,w,c
  9619  002F98  0D01               	mullw	1
  9620  002F9A  0E26               	movlw	38
  9621  002F9C  24F3               	addwf	prodl,w,c
  9622  002F9E  6E36               	movwf	USBEnableEndpoint@p,c
  9623  002FA0  0E0F               	movlw	15
  9624  002FA2  20F4               	addwfc	prodh,w,c
  9625  002FA4  6E37               	movwf	USBEnableEndpoint@p+1,c
  9626                           
  9627                           ;usb_device.c: 901: *p = options;
  9628  002FA6  C036  FFD9         	movff	USBEnableEndpoint@p,fsr2l
  9629  002FAA  C037  FFDA         	movff	USBEnableEndpoint@p+1,fsr2h
  9630  002FAE  C035  FFDF         	movff	USBEnableEndpoint@options,indf2
  9631  002FB2  0012               	return		;funcret
  9632  002FB4                     __end_of_USBEnableEndpoint:
  9633                           	opt stack 0
  9634                           pclatu	equ	0xFFB
  9635                           pclath	equ	0xFFA
  9636                           tblptru	equ	0xFF8
  9637                           tblptrh	equ	0xFF7
  9638                           tblptrl	equ	0xFF6
  9639                           tablat	equ	0xFF5
  9640                           prodh	equ	0xFF4
  9641                           prodl	equ	0xFF3
  9642                           intcon	equ	0xFF2
  9643                           intcon2	equ	0xFF1
  9644                           indf0	equ	0xFEF
  9645                           postinc0	equ	0xFEE
  9646                           fsr0h	equ	0xFEA
  9647                           fsr0l	equ	0xFE9
  9648                           wreg	equ	0xFE8
  9649                           indf1	equ	0xFE7
  9650                           fsr1h	equ	0xFE2
  9651                           fsr1l	equ	0xFE1
  9652                           indf2	equ	0xFDF
  9653                           postinc2	equ	0xFDE
  9654                           postdec2	equ	0xFDD
  9655                           plusw2	equ	0xFDB
  9656                           fsr2h	equ	0xFDA
  9657                           fsr2l	equ	0xFD9
  9658                           status	equ	0xFD8
  9659                           
  9660 ;; *************** function _USBConfigureEndpoint *****************
  9661 ;; Defined at:
  9662 ;;		line 1543 in file "../My_header/usb_cdc/usb/usb_device.c"
  9663 ;; Parameters:    Size  Location     Type
  9664 ;;  EPNum           1    wreg     unsigned char 
  9665 ;;  direction       1    0[COMRAM] unsigned char 
  9666 ;; Auto vars:     Size  Location     Type
  9667 ;;  EPNum           1    5[COMRAM] unsigned char 
  9668 ;;  handle          2    6[COMRAM] PTR volatile struct __BD
  9669 ;;		 -> BDT(48), 
  9670 ;; Return value:  Size  Location     Type
  9671 ;;		None               void
  9672 ;; Registers used:
  9673 ;;		wreg, fsr2l, fsr2h, status,2, status,0, prodl, prodh
  9674 ;; Tracked objects:
  9675 ;;		On entry : 0/0
  9676 ;;		On exit  : 0/0
  9677 ;;		Unchanged: 0/0
  9678 ;; Data sizes:     COMRAM   BANK0   BANK1   BANK2   BANK3   BANK4   BANK5   BANK6   BANK7   BANK8   BANK9  BANK10  BANK1
      +1  BANK12  BANK13  BANK14
  9679 ;;      Params:         1       0       0       0       0       0       0       0       0       0       0       0       
      +0       0       0       0
  9680 ;;      Locals:         3       0       0       0       0       0       0       0       0       0       0       0       
      +0       0       0       0
  9681 ;;      Temps:          4       0       0       0       0       0       0       0       0       0       0       0       
      +0       0       0       0
  9682 ;;      Totals:         8       0       0       0       0       0       0       0       0       0       0       0       
      +0       0       0       0
  9683 ;;Total ram usage:        8 bytes
  9684 ;; Hardware stack levels used:    1
  9685 ;; This function calls:
  9686 ;;		Nothing
  9687 ;; This function is called by:
  9688 ;;		_USBEnableEndpoint
  9689 ;; This function uses a non-reentrant model
  9690 ;;
  9691                           
  9692                           	psect	text52
  9693  002A76                     __ptext52:
  9694                           	opt stack 0
  9695  002A76                     _USBConfigureEndpoint:
  9696                           	opt stack 19
  9697                           
  9698                           ;incstack = 0
  9699                           ;USBConfigureEndpoint@EPNum stored from wreg
  9700  002A76  6E32               	movwf	USBConfigureEndpoint@EPNum,c
  9701                           
  9702                           ;usb_device.c: 1545: volatile BDT_ENTRY* handle;
  9703                           ;usb_device.c: 1549: handle = (volatile BDT_ENTRY*)&BDT[0];
  9704  002A78  0E00               	movlw	0
  9705  002A7A  6E33               	movwf	USBConfigureEndpoint@handle,c
  9706  002A7C  0E0D               	movlw	13
  9707  002A7E  6E34               	movwf	USBConfigureEndpoint@handle+1,c
  9708                           
  9709                           ;usb_device.c: 1550: handle += (4*EPNum+2*direction+0u);
  9710  002A80  502D               	movf	USBConfigureEndpoint@direction,w,c
  9711  002A82  6E2E               	movwf	??_USBConfigureEndpoint& (0+255),c
  9712  002A84  6A2F               	clrf	(??_USBConfigureEndpoint+1)& (0+255),c
  9713  002A86  90D8               	bcf	status,0,c
  9714  002A88  362E               	rlcf	??_USBConfigureEndpoint,f,c
  9715  002A8A  362F               	rlcf	??_USBConfigureEndpoint+1,f,c
  9716  002A8C  5032               	movf	USBConfigureEndpoint@EPNum,w,c
  9717  002A8E  6E30               	movwf	(??_USBConfigureEndpoint+2)& (0+255),c
  9718  002A90  6A31               	clrf	(??_USBConfigureEndpoint+3)& (0+255),c
  9719  002A92  90D8               	bcf	status,0,c
  9720  002A94  3630               	rlcf	??_USBConfigureEndpoint+2,f,c
  9721  002A96  3631               	rlcf	??_USBConfigureEndpoint+3,f,c
  9722  002A98  90D8               	bcf	status,0,c
  9723  002A9A  3630               	rlcf	??_USBConfigureEndpoint+2,f,c
  9724  002A9C  3631               	rlcf	??_USBConfigureEndpoint+3,f,c
  9725  002A9E  502E               	movf	??_USBConfigureEndpoint,w,c
  9726  002AA0  2630               	addwf	??_USBConfigureEndpoint+2,f,c
  9727  002AA2  502F               	movf	??_USBConfigureEndpoint+1,w,c
  9728  002AA4  2231               	addwfc	??_USBConfigureEndpoint+3,f,c
  9729  002AA6  90D8               	bcf	status,0,c
  9730  002AA8  3630               	rlcf	??_USBConfigureEndpoint+2,f,c
  9731  002AAA  3631               	rlcf	??_USBConfigureEndpoint+3,f,c
  9732  002AAC  90D8               	bcf	status,0,c
  9733  002AAE  3630               	rlcf	??_USBConfigureEndpoint+2,f,c
  9734  002AB0  3631               	rlcf	??_USBConfigureEndpoint+3,f,c
  9735  002AB2  5030               	movf	??_USBConfigureEndpoint+2,w,c
  9736  002AB4  2633               	addwf	USBConfigureEndpoint@handle,f,c
  9737  002AB6  5031               	movf	??_USBConfigureEndpoint+3,w,c
  9738  002AB8  2234               	addwfc	USBConfigureEndpoint@handle+1,f,c
  9739                           
  9740                           ;usb_device.c: 1552: handle->STAT.UOWN = 0;
  9741  002ABA  C033  FFD9         	movff	USBConfigureEndpoint@handle,fsr2l
  9742  002ABE  C034  FFDA         	movff	USBConfigureEndpoint@handle+1,fsr2h
  9743  002AC2  9EDF               	bcf	indf2,7,c
  9744                           
  9745                           ;usb_device.c: 1557: if(direction == 0)
  9746  002AC4  502D               	movf	USBConfigureEndpoint@direction,w,c
  9747  002AC6  A4D8               	btfss	status,2,c
  9748  002AC8  D007               	goto	i2l4058
  9749                           
  9750                           ;usb_device.c: 1558: {
  9751                           ;usb_device.c: 1559: pBDTEntryOut[EPNum] = handle;
  9752  002ACA  5032               	movf	USBConfigureEndpoint@EPNum,w,c
  9753  002ACC  0D02               	mullw	2
  9754  002ACE  0E60               	movlw	low _pBDTEntryOut
  9755  002AD0  24F3               	addwf	prodl,w,c
  9756  002AD2  6ED9               	movwf	fsr2l,c
  9757  002AD4  0E00               	movlw	high _pBDTEntryOut
  9758  002AD6  D006               	goto	L13
  9759  002AD8                     i2l4058:
  9760                           
  9761                           ;usb_device.c: 1561: else
  9762                           ;usb_device.c: 1562: {
  9763                           ;usb_device.c: 1563: pBDTEntryIn[EPNum] = handle;
  9764  002AD8  5032               	movf	USBConfigureEndpoint@EPNum,w,c
  9765  002ADA  0D02               	mullw	2
  9766  002ADC  0E0A               	movlw	low _pBDTEntryIn
  9767  002ADE  24F3               	addwf	prodl,w,c
  9768  002AE0  6ED9               	movwf	fsr2l,c
  9769  002AE2  0E00               	movlw	high _pBDTEntryIn
  9770  002AE4                     L13:
  9771  002AE4  20F4               	addwfc	prodh,w,c
  9772  002AE6  6EDA               	movwf	fsr2h,c
  9773  002AE8  C033  FFDE         	movff	USBConfigureEndpoint@handle,postinc2
  9774  002AEC  C034  FFDD         	movff	USBConfigureEndpoint@handle+1,postdec2
  9775  002AF0  D000               	goto	i2l4060
  9776  002AF2                     i2l4060:
  9777                           
  9778                           ;usb_device.c: 1564: }
  9779                           ;usb_device.c: 1567: handle->STAT.DTS = 0;
  9780  002AF2  C033  FFD9         	movff	USBConfigureEndpoint@handle,fsr2l
  9781  002AF6  C034  FFDA         	movff	USBConfigureEndpoint@handle+1,fsr2h
  9782  002AFA  9CDF               	bcf	indf2,6,c
  9783                           
  9784                           ;usb_device.c: 1568: (handle+1)->STAT.DTS = 1;
  9785  002AFC  EE20 F004          	lfsr	2,4
  9786  002B00  5033               	movf	USBConfigureEndpoint@handle,w,c
  9787  002B02  26D9               	addwf	fsr2l,f,c
  9788  002B04  5034               	movf	USBConfigureEndpoint@handle+1,w,c
  9789  002B06  22DA               	addwfc	fsr2h,f,c
  9790  002B08  8CDF               	bsf	indf2,6,c
  9791  002B0A  0012               	return		;funcret
  9792  002B0C                     __end_of_USBConfigureEndpoint:
  9793                           	opt stack 0
  9794                           pclatu	equ	0xFFB
  9795                           pclath	equ	0xFFA
  9796                           tblptru	equ	0xFF8
  9797                           tblptrh	equ	0xFF7
  9798                           tblptrl	equ	0xFF6
  9799                           tablat	equ	0xFF5
  9800                           prodh	equ	0xFF4
  9801                           prodl	equ	0xFF3
  9802                           intcon	equ	0xFF2
  9803                           intcon2	equ	0xFF1
  9804                           indf0	equ	0xFEF
  9805                           postinc0	equ	0xFEE
  9806                           fsr0h	equ	0xFEA
  9807                           fsr0l	equ	0xFE9
  9808                           wreg	equ	0xFE8
  9809                           indf1	equ	0xFE7
  9810                           fsr1h	equ	0xFE2
  9811                           fsr1l	equ	0xFE1
  9812                           indf2	equ	0xFDF
  9813                           postinc2	equ	0xFDE
  9814                           postdec2	equ	0xFDD
  9815                           plusw2	equ	0xFDB
  9816                           fsr2h	equ	0xFDA
  9817                           fsr2l	equ	0xFD9
  9818                           status	equ	0xFD8
  9819                           
  9820 ;; *************** function _USBCtrlTrfOutHandler *****************
  9821 ;; Defined at:
  9822 ;;		line 2541 in file "../My_header/usb_cdc/usb/usb_device.c"
  9823 ;; Parameters:    Size  Location     Type
  9824 ;;		None
  9825 ;; Auto vars:     Size  Location     Type
  9826 ;;		None
  9827 ;; Return value:  Size  Location     Type
  9828 ;;		None               void
  9829 ;; Registers used:
  9830 ;;		wreg, fsr1l, fsr1h, fsr2l, fsr2h, status,2, status,0, prodl, prodh, cstack
  9831 ;; Tracked objects:
  9832 ;;		On entry : 0/0
  9833 ;;		On exit  : 0/0
  9834 ;;		Unchanged: 0/0
  9835 ;; Data sizes:     COMRAM   BANK0   BANK1   BANK2   BANK3   BANK4   BANK5   BANK6   BANK7   BANK8   BANK9  BANK10  BANK1
      +1  BANK12  BANK13  BANK14
  9836 ;;      Params:         0       0       0       0       0       0       0       0       0       0       0       0       
      +0       0       0       0
  9837 ;;      Locals:         0       0       0       0       0       0       0       0       0       0       0       0       
      +0       0       0       0
  9838 ;;      Temps:          0       0       0       0       0       0       0       0       0       0       0       0       
      +0       0       0       0
  9839 ;;      Totals:         0       0       0       0       0       0       0       0       0       0       0       0       
      +0       0       0       0
  9840 ;;Total ram usage:        0 bytes
  9841 ;; Hardware stack levels used:    1
  9842 ;; Hardware stack levels required when called:    2
  9843 ;; This function calls:
  9844 ;;		_USBCtrlTrfRxService
  9845 ;; This function is called by:
  9846 ;;		_USBCtrlEPService
  9847 ;; This function uses a non-reentrant model
  9848 ;;
  9849                           
  9850                           	psect	text53
  9851  002C92                     __ptext53:
  9852                           	opt stack 0
  9853  002C92                     _USBCtrlTrfOutHandler:
  9854                           	opt stack 19
  9855                           
  9856                           ;usb_device.c: 2543: if(controlTransferState == 2)
  9857                           
  9858                           ;incstack = 0
  9859  002C92  0E02               	movlw	2
  9860  002C94  181F               	xorwf	_controlTransferState,w,c	;volatile
  9861  002C96  A4D8               	btfss	status,2,c
  9862  002C98  D003               	goto	i2l4866
  9863                           
  9864                           ;usb_device.c: 2544: {
  9865                           ;usb_device.c: 2545: USBCtrlTrfRxService();
  9866  002C9A  ECAD  F00D         	call	_USBCtrlTrfRxService	;wreg free
  9867                           
  9868                           ;usb_device.c: 2546: }
  9869  002C9E  0012               	return	
  9870  002CA0                     i2l4866:
  9871                           
  9872                           ;usb_device.c: 2547: else
  9873                           ;usb_device.c: 2548: {
  9874                           ;usb_device.c: 2551: controlTransferState = 0;
  9875  002CA0  0E00               	movlw	0
  9876  002CA2  6E1F               	movwf	_controlTransferState,c	;volatile
  9877                           
  9878                           ;usb_device.c: 2558: if(BothEP0OutUOWNsSet == 0)
  9879  002CA4  5015               	movf	_BothEP0OutUOWNsSet,w,c	;volatile
  9880  002CA6  A4D8               	btfss	status,2,c
  9881  002CA8  D01F               	goto	i2l4874
  9882                           
  9883                           ;usb_device.c: 2559: {
  9884                           ;usb_device.c: 2560: pBDTEntryEP0OutNext->CNT = 8;
  9885  002CAA  EE20 F001          	lfsr	2,1
  9886  002CAE  5012               	movf	_pBDTEntryEP0OutNext,w,c
  9887  002CB0  26D9               	addwf	fsr2l,f,c
  9888  002CB2  5013               	movf	_pBDTEntryEP0OutNext+1,w,c
  9889  002CB4  22DA               	addwfc	fsr2h,f,c
  9890  002CB6  0E08               	movlw	8
  9891  002CB8  6EDF               	movwf	indf2,c
  9892                           
  9893                           ;usb_device.c: 2561: pBDTEntryEP0OutNext->ADR = ((uint16_t)(&SetupPkt));
  9894  002CBA  EE20 F002          	lfsr	2,2
  9895  002CBE  5012               	movf	_pBDTEntryEP0OutNext,w,c
  9896  002CC0  26D9               	addwf	fsr2l,f,c
  9897  002CC2  5013               	movf	_pBDTEntryEP0OutNext+1,w,c
  9898  002CC4  22DA               	addwfc	fsr2h,f,c
  9899  002CC6  0E30               	movlw	48
  9900  002CC8  6EDE               	movwf	postinc2,c
  9901  002CCA  0E0D               	movlw	13
  9902  002CCC  6EDD               	movwf	postdec2,c
  9903                           
  9904                           ;usb_device.c: 2562: pBDTEntryEP0OutNext->STAT.Val = 0x00|(0x08 & 0x08)|0x04;
  9905  002CCE  C012  FFD9         	movff	_pBDTEntryEP0OutNext,fsr2l
  9906  002CD2  C013  FFDA         	movff	_pBDTEntryEP0OutNext+1,fsr2h
  9907  002CD6  0E0C               	movlw	12
  9908  002CD8  6EDF               	movwf	indf2,c
  9909                           
  9910                           ;usb_device.c: 2563: pBDTEntryEP0OutNext->STAT.Val |= 0x80;
  9911  002CDA  C012  FFD9         	movff	_pBDTEntryEP0OutNext,fsr2l
  9912  002CDE  C013  FFDA         	movff	_pBDTEntryEP0OutNext+1,fsr2h
  9913  002CE2  0E00               	movlw	0
  9914  002CE4  8EDB               	bsf	plusw2,7,c
  9915                           
  9916                           ;usb_device.c: 2564: }
  9917  002CE6  0012               	return	
  9918  002CE8                     i2l4874:
  9919                           
  9920                           ;usb_device.c: 2565: else
  9921                           ;usb_device.c: 2566: {
  9922                           ;usb_device.c: 2567: BothEP0OutUOWNsSet = 0;
  9923  002CE8  0E00               	movlw	0
  9924  002CEA  6E15               	movwf	_BothEP0OutUOWNsSet,c	;volatile
  9925  002CEC  0012               	return	
  9926  002CEE  0012               	return		;funcret
  9927  002CF0                     __end_of_USBCtrlTrfOutHandler:
  9928                           	opt stack 0
  9929                           pclatu	equ	0xFFB
  9930                           pclath	equ	0xFFA
  9931                           tblptru	equ	0xFF8
  9932                           tblptrh	equ	0xFF7
  9933                           tblptrl	equ	0xFF6
  9934                           tablat	equ	0xFF5
  9935                           prodh	equ	0xFF4
  9936                           prodl	equ	0xFF3
  9937                           intcon	equ	0xFF2
  9938                           intcon2	equ	0xFF1
  9939                           indf0	equ	0xFEF
  9940                           postinc0	equ	0xFEE
  9941                           fsr0h	equ	0xFEA
  9942                           fsr0l	equ	0xFE9
  9943                           wreg	equ	0xFE8
  9944                           indf1	equ	0xFE7
  9945                           fsr1h	equ	0xFE2
  9946                           fsr1l	equ	0xFE1
  9947                           indf2	equ	0xFDF
  9948                           postinc2	equ	0xFDE
  9949                           postdec2	equ	0xFDD
  9950                           plusw2	equ	0xFDB
  9951                           fsr2h	equ	0xFDA
  9952                           fsr2l	equ	0xFD9
  9953                           status	equ	0xFD8
  9954                           
  9955 ;; *************** function _USBCtrlTrfRxService *****************
  9956 ;; Defined at:
  9957 ;;		line 1852 in file "../My_header/usb_cdc/usb/usb_device.c"
  9958 ;; Parameters:    Size  Location     Type
  9959 ;;		None
  9960 ;; Auto vars:     Size  Location     Type
  9961 ;;  byteToRead      1    1[COMRAM] unsigned char 
  9962 ;;  i               1    0[COMRAM] unsigned char 
  9963 ;; Return value:  Size  Location     Type
  9964 ;;		None               void
  9965 ;; Registers used:
  9966 ;;		wreg, fsr1l, fsr1h, fsr2l, fsr2h, status,2, status,0, prodl, prodh, cstack
  9967 ;; Tracked objects:
  9968 ;;		On entry : 0/0
  9969 ;;		On exit  : 0/0
  9970 ;;		Unchanged: 0/0
  9971 ;; Data sizes:     COMRAM   BANK0   BANK1   BANK2   BANK3   BANK4   BANK5   BANK6   BANK7   BANK8   BANK9  BANK10  BANK1
      +1  BANK12  BANK13  BANK14
  9972 ;;      Params:         0       0       0       0       0       0       0       0       0       0       0       0       
      +0       0       0       0
  9973 ;;      Locals:         2       0       0       0       0       0       0       0       0       0       0       0       
      +0       0       0       0
  9974 ;;      Temps:          0       0       0       0       0       0       0       0       0       0       0       0       
      +0       0       0       0
  9975 ;;      Totals:         2       0       0       0       0       0       0       0       0       0       0       0       
      +0       0       0       0
  9976 ;;Total ram usage:        2 bytes
  9977 ;; Hardware stack levels used:    1
  9978 ;; Hardware stack levels required when called:    1
  9979 ;; This function calls:
  9980 ;;		_USBCtrlEPAllowStatusStage
  9981 ;; This function is called by:
  9982 ;;		_USBCtrlTrfOutHandler
  9983 ;; This function uses a non-reentrant model
  9984 ;;
  9985                           
  9986                           	psect	text54
  9987  001B5A                     __ptext54:
  9988                           	opt stack 0
  9989  001B5A                     _USBCtrlTrfRxService:
  9990                           	opt stack 19
  9991                           
  9992                           ;usb_device.c: 1854: uint8_t byteToRead;
  9993                           ;usb_device.c: 1855: uint8_t i;
  9994                           ;usb_device.c: 1859: byteToRead = pBDTEntryEP0OutCurrent->CNT;
  9995                           
  9996                           ;incstack = 0
  9997  001B5A  EE20 F001          	lfsr	2,1
  9998  001B5E  5010               	movf	_pBDTEntryEP0OutCurrent,w,c
  9999  001B60  26D9               	addwf	fsr2l,f,c
 10000  001B62  5011               	movf	_pBDTEntryEP0OutCurrent+1,w,c
 10001  001B64  22DA               	addwfc	fsr2h,f,c
 10002  001B66  50DF               	movf	indf2,w,c
 10003  001B68  6E2E               	movwf	USBCtrlTrfRxService@byteToRead,c
 10004                           
 10005                           ;usb_device.c: 1865: if(byteToRead > outPipes[0].wCount.Val)
 10006  001B6A  502E               	movf	USBCtrlTrfRxService@byteToRead,w,c
 10007  001B6C  5C05               	subwf	_outPipes+4,w,c	;volatile
 10008  001B6E  0E00               	movlw	0
 10009  001B70  5806               	subwfb	_outPipes+5,w,c	;volatile
 10010  001B72  B0D8               	btfsc	status,0,c
 10011  001B74  D003               	goto	i2l4582
 10012                           
 10013                           ;usb_device.c: 1866: {
 10014                           ;usb_device.c: 1867: byteToRead = outPipes[0].wCount.Val;
 10015  001B76  C005  F02E         	movff	_outPipes+4,USBCtrlTrfRxService@byteToRead	;volatile
 10016  001B7A  D000               	goto	i2l4582
 10017  001B7C                     i2l4582:
 10018                           
 10019                           ;usb_device.c: 1868: }
 10020                           ;usb_device.c: 1870: outPipes[0].wCount.Val -= byteToRead;
 10021  001B7C  502E               	movf	USBCtrlTrfRxService@byteToRead,w,c
 10022  001B7E  5E05               	subwf	_outPipes+4,f,c	;volatile
 10023  001B80  0E00               	movlw	0
 10024  001B82  5A06               	subwfb	_outPipes+5,f,c	;volatile
 10025                           
 10026                           ;usb_device.c: 1874: for(i=0;i<byteToRead;i++)
 10027  001B84  0E00               	movlw	0
 10028  001B86  6E2D               	movwf	USBCtrlTrfRxService@i,c
 10029  001B88  D012               	goto	i2l4592
 10030  001B8A                     i2l4586:
 10031                           
 10032                           ;usb_device.c: 1875: {
 10033                           ;usb_device.c: 1876: *outPipes[0].pDst.bRam++ = CtrlTrfData[i];
 10034  001B8A  502D               	movf	USBCtrlTrfRxService@i,w,c
 10035  001B8C  0D01               	mullw	1
 10036  001B8E  0E38               	movlw	56
 10037  001B90  24F3               	addwf	prodl,w,c
 10038  001B92  6ED9               	movwf	fsr2l,c
 10039  001B94  0E0D               	movlw	13
 10040  001B96  20F4               	addwfc	prodh,w,c
 10041  001B98  6EDA               	movwf	fsr2h,c
 10042  001B9A  C001  FFE1         	movff	_outPipes,fsr1l	;volatile
 10043  001B9E  C002  FFE2         	movff	_outPipes+1,fsr1h	;volatile
 10044  001BA2  CFDF FFE7          	movff	indf2,indf1
 10045  001BA6  4A01               	infsnz	_outPipes,f,c	;volatile
 10046  001BA8  2A02               	incf	_outPipes+1,f,c	;volatile
 10047  001BAA  2A2D               	incf	USBCtrlTrfRxService@i,f,c
 10048  001BAC  D000               	goto	i2l4592
 10049  001BAE                     i2l4592:
 10050  001BAE  502E               	movf	USBCtrlTrfRxService@byteToRead,w,c
 10051  001BB0  5C2D               	subwf	USBCtrlTrfRxService@i,w,c
 10052  001BB2  A0D8               	btfss	status,0,c
 10053  001BB4  D7EA               	goto	i2l4586
 10054                           
 10055                           ;usb_device.c: 1877: }
 10056                           ;usb_device.c: 1881: if(outPipes[0].wCount.Val > 0)
 10057  001BB6  5005               	movf	_outPipes+4,w,c	;volatile
 10058  001BB8  1006               	iorwf	_outPipes+5,w,c	;volatile
 10059  001BBA  B4D8               	btfsc	status,2,c
 10060  001BBC  D032               	goto	i2l4608
 10061                           
 10062                           ;usb_device.c: 1882: {
 10063                           ;usb_device.c: 1883: pBDTEntryEP0OutNext->CNT = 8;
 10064  001BBE  EE20 F001          	lfsr	2,1
 10065  001BC2  5012               	movf	_pBDTEntryEP0OutNext,w,c
 10066  001BC4  26D9               	addwf	fsr2l,f,c
 10067  001BC6  5013               	movf	_pBDTEntryEP0OutNext+1,w,c
 10068  001BC8  22DA               	addwfc	fsr2h,f,c
 10069  001BCA  0E08               	movlw	8
 10070  001BCC  6EDF               	movwf	indf2,c
 10071                           
 10072                           ;usb_device.c: 1884: pBDTEntryEP0OutNext->ADR = ((uint16_t)(&CtrlTrfData));
 10073  001BCE  EE20 F002          	lfsr	2,2
 10074  001BD2  5012               	movf	_pBDTEntryEP0OutNext,w,c
 10075  001BD4  26D9               	addwf	fsr2l,f,c
 10076  001BD6  5013               	movf	_pBDTEntryEP0OutNext+1,w,c
 10077  001BD8  22DA               	addwfc	fsr2h,f,c
 10078  001BDA  0E38               	movlw	56
 10079  001BDC  6EDE               	movwf	postinc2,c
 10080  001BDE  0E0D               	movlw	13
 10081  001BE0  6EDD               	movwf	postdec2,c
 10082                           
 10083                           ;usb_device.c: 1885: if(pBDTEntryEP0OutCurrent->STAT.DTS == 0)
 10084  001BE2  C010  FFD9         	movff	_pBDTEntryEP0OutCurrent,fsr2l
 10085  001BE6  C011  FFDA         	movff	_pBDTEntryEP0OutCurrent+1,fsr2h
 10086  001BEA  BCDF               	btfsc	indf2,6,c
 10087  001BEC  D00D               	goto	i2l4604
 10088                           
 10089                           ;usb_device.c: 1886: {
 10090                           ;usb_device.c: 1887: pBDTEntryEP0OutNext->STAT.Val = 0x40|(0x08 & 0x08);
 10091  001BEE  C012  FFD9         	movff	_pBDTEntryEP0OutNext,fsr2l
 10092  001BF2  C013  FFDA         	movff	_pBDTEntryEP0OutNext+1,fsr2h
 10093  001BF6  0E48               	movlw	72
 10094  001BF8  6EDF               	movwf	indf2,c
 10095                           
 10096                           ;usb_device.c: 1888: pBDTEntryEP0OutNext->STAT.Val |= 0x80;
 10097  001BFA  C012  FFD9         	movff	_pBDTEntryEP0OutNext,fsr2l
 10098  001BFE  C013  FFDA         	movff	_pBDTEntryEP0OutNext+1,fsr2h
 10099  001C02  0E00               	movlw	0
 10100  001C04  8EDB               	bsf	plusw2,7,c
 10101                           
 10102                           ;usb_device.c: 1889: }
 10103  001C06  0012               	return	
 10104  001C08                     i2l4604:
 10105                           
 10106                           ;usb_device.c: 1890: else
 10107                           ;usb_device.c: 1891: {
 10108                           ;usb_device.c: 1892: pBDTEntryEP0OutNext->STAT.Val = 0x00|(0x08 & 0x08);
 10109  001C08  C012  FFD9         	movff	_pBDTEntryEP0OutNext,fsr2l
 10110  001C0C  C013  FFDA         	movff	_pBDTEntryEP0OutNext+1,fsr2h
 10111  001C10  0E08               	movlw	8
 10112  001C12  6EDF               	movwf	indf2,c
 10113                           
 10114                           ;usb_device.c: 1893: pBDTEntryEP0OutNext->STAT.Val |= 0x80;
 10115  001C14  C012  FFD9         	movff	_pBDTEntryEP0OutNext,fsr2l
 10116  001C18  C013  FFDA         	movff	_pBDTEntryEP0OutNext+1,fsr2h
 10117  001C1C  0E00               	movlw	0
 10118  001C1E  8EDB               	bsf	plusw2,7,c
 10119                           
 10120                           ;usb_device.c: 1894: }
 10121                           ;usb_device.c: 1895: }
 10122  001C20  0012               	return	
 10123  001C22                     i2l4608:
 10124                           
 10125                           ;usb_device.c: 1896: else
 10126                           ;usb_device.c: 1897: {
 10127                           ;usb_device.c: 1901: pBDTEntryEP0OutNext->CNT = 8;
 10128  001C22  EE20 F001          	lfsr	2,1
 10129  001C26  5012               	movf	_pBDTEntryEP0OutNext,w,c
 10130  001C28  26D9               	addwf	fsr2l,f,c
 10131  001C2A  5013               	movf	_pBDTEntryEP0OutNext+1,w,c
 10132  001C2C  22DA               	addwfc	fsr2h,f,c
 10133  001C2E  0E08               	movlw	8
 10134  001C30  6EDF               	movwf	indf2,c
 10135                           
 10136                           ;usb_device.c: 1902: pBDTEntryEP0OutNext->ADR = ((uint16_t)(&SetupPkt));
 10137  001C32  EE20 F002          	lfsr	2,2
 10138  001C36  5012               	movf	_pBDTEntryEP0OutNext,w,c
 10139  001C38  26D9               	addwf	fsr2l,f,c
 10140  001C3A  5013               	movf	_pBDTEntryEP0OutNext+1,w,c
 10141  001C3C  22DA               	addwfc	fsr2h,f,c
 10142  001C3E  0E30               	movlw	48
 10143  001C40  6EDE               	movwf	postinc2,c
 10144  001C42  0E0D               	movlw	13
 10145  001C44  6EDD               	movwf	postdec2,c
 10146                           
 10147                           ;usb_device.c: 1906: pBDTEntryEP0OutNext->STAT.Val = 0x04;
 10148  001C46  C012  FFD9         	movff	_pBDTEntryEP0OutNext,fsr2l
 10149  001C4A  C013  FFDA         	movff	_pBDTEntryEP0OutNext+1,fsr2h
 10150  001C4E  0E04               	movlw	4
 10151  001C50  6EDF               	movwf	indf2,c
 10152                           
 10153                           ;usb_device.c: 1907: pBDTEntryEP0OutNext->STAT.Val |= 0x80;
 10154  001C52  C012  FFD9         	movff	_pBDTEntryEP0OutNext,fsr2l
 10155  001C56  C013  FFDA         	movff	_pBDTEntryEP0OutNext+1,fsr2h
 10156  001C5A  0E00               	movlw	0
 10157  001C5C  8EDB               	bsf	plusw2,7,c
 10158                           
 10159                           ;usb_device.c: 1926: }
 10160                           ;usb_device.c: 1927: outPipes[0].info.bits.busy = 0;
 10161                           
 10162                           ;usb_device.c: 1915: {
 10163                           ;usb_device.c: 1921: outPipes[0].pFunc();
 10164  001C5E  9E04               	bcf	_outPipes+3,7,c	;volatile
 10165                           
 10166                           ;usb_device.c: 1941: if(USBDeferStatusStagePacket == 0)
 10167  001C60  5019               	movf	_USBDeferStatusStagePacket,w,c	;volatile
 10168  001C62  A4D8               	btfss	status,2,c
 10169  001C64  0012               	return	
 10170                           
 10171                           ;usb_device.c: 1942: {
 10172                           ;usb_device.c: 1943: USBCtrlEPAllowStatusStage();
 10173  001C66  EC56  F011         	call	_USBCtrlEPAllowStatusStage	;wreg free
 10174  001C6A  0012               	return	
 10175  001C6C  0012               	return		;funcret
 10176  001C6E                     __end_of_USBCtrlTrfRxService:
 10177                           	opt stack 0
 10178                           pclatu	equ	0xFFB
 10179                           pclath	equ	0xFFA
 10180                           tblptru	equ	0xFF8
 10181                           tblptrh	equ	0xFF7
 10182                           tblptrl	equ	0xFF6
 10183                           tablat	equ	0xFF5
 10184                           prodh	equ	0xFF4
 10185                           prodl	equ	0xFF3
 10186                           intcon	equ	0xFF2
 10187                           intcon2	equ	0xFF1
 10188                           indf0	equ	0xFEF
 10189                           postinc0	equ	0xFEE
 10190                           fsr0h	equ	0xFEA
 10191                           fsr0l	equ	0xFE9
 10192                           wreg	equ	0xFE8
 10193                           indf1	equ	0xFE7
 10194                           fsr1h	equ	0xFE2
 10195                           fsr1l	equ	0xFE1
 10196                           indf2	equ	0xFDF
 10197                           postinc2	equ	0xFDE
 10198                           postdec2	equ	0xFDD
 10199                           plusw2	equ	0xFDB
 10200                           fsr2h	equ	0xFDA
 10201                           fsr2l	equ	0xFD9
 10202                           status	equ	0xFD8
 10203                           
 10204 ;; *************** function _USBCtrlEPAllowStatusStage *****************
 10205 ;; Defined at:
 10206 ;;		line 1416 in file "../My_header/usb_cdc/usb/usb_device.c"
 10207 ;; Parameters:    Size  Location     Type
 10208 ;;		None
 10209 ;; Auto vars:     Size  Location     Type
 10210 ;;		None
 10211 ;; Return value:  Size  Location     Type
 10212 ;;		None               void
 10213 ;; Registers used:
 10214 ;;		wreg, fsr2l, fsr2h, status,2, status,0
 10215 ;; Tracked objects:
 10216 ;;		On entry : 0/0
 10217 ;;		On exit  : 0/0
 10218 ;;		Unchanged: 0/0
 10219 ;; Data sizes:     COMRAM   BANK0   BANK1   BANK2   BANK3   BANK4   BANK5   BANK6   BANK7   BANK8   BANK9  BANK10  BANK1
      +1  BANK12  BANK13  BANK14
 10220 ;;      Params:         0       0       0       0       0       0       0       0       0       0       0       0       
      +0       0       0       0
 10221 ;;      Locals:         0       0       0       0       0       0       0       0       0       0       0       0       
      +0       0       0       0
 10222 ;;      Temps:          0       0       0       0       0       0       0       0       0       0       0       0       
      +0       0       0       0
 10223 ;;      Totals:         0       0       0       0       0       0       0       0       0       0       0       0       
      +0       0       0       0
 10224 ;;Total ram usage:        0 bytes
 10225 ;; Hardware stack levels used:    1
 10226 ;; This function calls:
 10227 ;;		Nothing
 10228 ;; This function is called by:
 10229 ;;		_USBDeviceTasks
 10230 ;;		_USBCtrlEPServiceComplete
 10231 ;;		_USBCtrlTrfRxService
 10232 ;; This function uses a non-reentrant model
 10233 ;;
 10234                           
 10235                           	psect	text55
 10236  0022AC                     __ptext55:
 10237                           	opt stack 0
 10238  0022AC                     _USBCtrlEPAllowStatusStage:
 10239                           	opt stack 19
 10240                           
 10241                           ;usb_device.c: 1423: if(USBStatusStageEnabledFlag1 == 0)
 10242                           
 10243                           ;incstack = 0
 10244  0022AC  501B               	movf	_USBStatusStageEnabledFlag1,w,c	;volatile
 10245  0022AE  A4D8               	btfss	status,2,c
 10246  0022B0  0012               	return	
 10247                           
 10248                           ;usb_device.c: 1424: {
 10249                           ;usb_device.c: 1425: USBStatusStageEnabledFlag1 = 1;
 10250  0022B2  0E01               	movlw	1
 10251  0022B4  6E1B               	movwf	_USBStatusStageEnabledFlag1,c	;volatile
 10252                           
 10253                           ;usb_device.c: 1426: if(USBStatusStageEnabledFlag2 == 0)
 10254  0022B6  501C               	movf	_USBStatusStageEnabledFlag2,w,c	;volatile
 10255  0022B8  A4D8               	btfss	status,2,c
 10256  0022BA  0012               	return	
 10257                           
 10258                           ;usb_device.c: 1427: {
 10259                           ;usb_device.c: 1428: USBStatusStageEnabledFlag2 = 1;
 10260  0022BC  0E01               	movlw	1
 10261  0022BE  6E1C               	movwf	_USBStatusStageEnabledFlag2,c	;volatile
 10262                           
 10263                           ;usb_device.c: 1432: if(controlTransferState == 2)
 10264  0022C0  0E02               	movlw	2
 10265  0022C2  181F               	xorwf	_controlTransferState,w,c	;volatile
 10266  0022C4  A4D8               	btfss	status,2,c
 10267  0022C6  D015               	goto	i2l4268
 10268                           
 10269                           ;usb_device.c: 1433: {
 10270                           ;usb_device.c: 1434: pBDTEntryIn[0]->CNT = 0;
 10271  0022C8  EE20 F001          	lfsr	2,1
 10272  0022CC  500A               	movf	_pBDTEntryIn,w,c
 10273  0022CE  26D9               	addwf	fsr2l,f,c
 10274  0022D0  500B               	movf	_pBDTEntryIn+1,w,c
 10275  0022D2  22DA               	addwfc	fsr2h,f,c
 10276  0022D4  0E00               	movlw	0
 10277  0022D6  6EDF               	movwf	indf2,c
 10278                           
 10279                           ;usb_device.c: 1435: pBDTEntryIn[0]->STAT.Val = 0x40|(0x08 & 0x08);
 10280  0022D8  C00A  FFD9         	movff	_pBDTEntryIn,fsr2l
 10281  0022DC  C00B  FFDA         	movff	_pBDTEntryIn+1,fsr2h
 10282  0022E0  0E48               	movlw	72
 10283  0022E2  6EDF               	movwf	indf2,c
 10284                           
 10285                           ;usb_device.c: 1436: pBDTEntryIn[0]->STAT.Val |= 0x80;
 10286  0022E4  C00A  FFD9         	movff	_pBDTEntryIn,fsr2l
 10287  0022E8  C00B  FFDA         	movff	_pBDTEntryIn+1,fsr2h
 10288  0022EC  0E00               	movlw	0
 10289  0022EE  8EDB               	bsf	plusw2,7,c
 10290                           
 10291                           ;usb_device.c: 1437: }
 10292  0022F0  0012               	return	
 10293  0022F2                     i2l4268:
 10294                           
 10295                           ;usb_device.c: 1438: else if(controlTransferState == 1)
 10296  0022F2  041F               	decf	_controlTransferState,w,c	;volatile
 10297  0022F4  A4D8               	btfss	status,2,c
 10298  0022F6  0012               	return	
 10299                           
 10300                           ;usb_device.c: 1439: {
 10301                           ;usb_device.c: 1440: BothEP0OutUOWNsSet = 0;
 10302  0022F8  0E00               	movlw	0
 10303  0022FA  6E15               	movwf	_BothEP0OutUOWNsSet,c	;volatile
 10304                           
 10305                           ;usb_device.c: 1445: pBDTEntryEP0OutCurrent->CNT = 8;
 10306  0022FC  EE20 F001          	lfsr	2,1
 10307  002300  5010               	movf	_pBDTEntryEP0OutCurrent,w,c
 10308  002302  26D9               	addwf	fsr2l,f,c
 10309  002304  5011               	movf	_pBDTEntryEP0OutCurrent+1,w,c
 10310  002306  22DA               	addwfc	fsr2h,f,c
 10311  002308  0E08               	movlw	8
 10312  00230A  6EDF               	movwf	indf2,c
 10313                           
 10314                           ;usb_device.c: 1446: pBDTEntryEP0OutCurrent->ADR = ((uint16_t)(&SetupPkt));
 10315  00230C  EE20 F002          	lfsr	2,2
 10316  002310  5010               	movf	_pBDTEntryEP0OutCurrent,w,c
 10317  002312  26D9               	addwf	fsr2l,f,c
 10318  002314  5011               	movf	_pBDTEntryEP0OutCurrent+1,w,c
 10319  002316  22DA               	addwfc	fsr2h,f,c
 10320  002318  0E30               	movlw	48
 10321  00231A  6EDE               	movwf	postinc2,c
 10322  00231C  0E0D               	movlw	13
 10323  00231E  6EDD               	movwf	postdec2,c
 10324                           
 10325                           ;usb_device.c: 1447: pBDTEntryEP0OutCurrent->STAT.Val = 0x04;
 10326  002320  C010  FFD9         	movff	_pBDTEntryEP0OutCurrent,fsr2l
 10327  002324  C011  FFDA         	movff	_pBDTEntryEP0OutCurrent+1,fsr2h
 10328  002328  0E04               	movlw	4
 10329  00232A  6EDF               	movwf	indf2,c
 10330                           
 10331                           ;usb_device.c: 1448: pBDTEntryEP0OutCurrent->STAT.Val |= 0x80;
 10332  00232C  C010  FFD9         	movff	_pBDTEntryEP0OutCurrent,fsr2l
 10333  002330  C011  FFDA         	movff	_pBDTEntryEP0OutCurrent+1,fsr2h
 10334  002334  0E00               	movlw	0
 10335  002336  8EDB               	bsf	plusw2,7,c
 10336                           
 10337                           ;usb_device.c: 1449: BothEP0OutUOWNsSet = 1;
 10338  002338  0E01               	movlw	1
 10339  00233A  6E15               	movwf	_BothEP0OutUOWNsSet,c	;volatile
 10340                           
 10341                           ;usb_device.c: 1453: pBDTEntryEP0OutNext->CNT = 8;
 10342  00233C  EE20 F001          	lfsr	2,1
 10343  002340  5012               	movf	_pBDTEntryEP0OutNext,w,c
 10344  002342  26D9               	addwf	fsr2l,f,c
 10345  002344  5013               	movf	_pBDTEntryEP0OutNext+1,w,c
 10346  002346  22DA               	addwfc	fsr2h,f,c
 10347  002348  0E08               	movlw	8
 10348  00234A  6EDF               	movwf	indf2,c
 10349                           
 10350                           ;usb_device.c: 1454: pBDTEntryEP0OutNext->ADR = ((uint16_t)(&SetupPkt));
 10351  00234C  EE20 F002          	lfsr	2,2
 10352  002350  5012               	movf	_pBDTEntryEP0OutNext,w,c
 10353  002352  26D9               	addwf	fsr2l,f,c
 10354  002354  5013               	movf	_pBDTEntryEP0OutNext+1,w,c
 10355  002356  22DA               	addwfc	fsr2h,f,c
 10356  002358  0E30               	movlw	48
 10357  00235A  6EDE               	movwf	postinc2,c
 10358  00235C  0E0D               	movlw	13
 10359  00235E  6EDD               	movwf	postdec2,c
 10360                           
 10361                           ;usb_device.c: 1455: pBDTEntryEP0OutNext->STAT.Val = 0x80;
 10362  002360  C012  FFD9         	movff	_pBDTEntryEP0OutNext,fsr2l
 10363  002364  C013  FFDA         	movff	_pBDTEntryEP0OutNext+1,fsr2h
 10364  002368  0E80               	movlw	128
 10365  00236A  6EDF               	movwf	indf2,c
 10366  00236C  0012               	return	
 10367  00236E  0012               	return		;funcret
 10368  002370                     __end_of_USBCtrlEPAllowStatusStage:
 10369                           	opt stack 0
 10370                           pclatu	equ	0xFFB
 10371                           pclath	equ	0xFFA
 10372                           tblptru	equ	0xFF8
 10373                           tblptrh	equ	0xFF7
 10374                           tblptrl	equ	0xFF6
 10375                           tablat	equ	0xFF5
 10376                           prodh	equ	0xFF4
 10377                           prodl	equ	0xFF3
 10378                           intcon	equ	0xFF2
 10379                           intcon2	equ	0xFF1
 10380                           indf0	equ	0xFEF
 10381                           postinc0	equ	0xFEE
 10382                           fsr0h	equ	0xFEA
 10383                           fsr0l	equ	0xFE9
 10384                           wreg	equ	0xFE8
 10385                           indf1	equ	0xFE7
 10386                           fsr1h	equ	0xFE2
 10387                           fsr1l	equ	0xFE1
 10388                           indf2	equ	0xFDF
 10389                           postinc2	equ	0xFDE
 10390                           postdec2	equ	0xFDD
 10391                           plusw2	equ	0xFDB
 10392                           fsr2h	equ	0xFDA
 10393                           fsr2l	equ	0xFD9
 10394                           status	equ	0xFD8
 10395                           
 10396 ;; *************** function _USBCtrlTrfInHandler *****************
 10397 ;; Defined at:
 10398 ;;		line 2595 in file "../My_header/usb_cdc/usb/usb_device.c"
 10399 ;; Parameters:    Size  Location     Type
 10400 ;;		None
 10401 ;; Auto vars:     Size  Location     Type
 10402 ;;  lastDTS         1    1[COMRAM] unsigned char 
 10403 ;; Return value:  Size  Location     Type
 10404 ;;		None               void
 10405 ;; Registers used:
 10406 ;;		wreg, fsr0l, fsr0h, fsr2l, fsr2h, status,2, status,0, tblptrl, tblptrh, tblptru, cstack
 10407 ;; Tracked objects:
 10408 ;;		On entry : 0/0
 10409 ;;		On exit  : 0/0
 10410 ;;		Unchanged: 0/0
 10411 ;; Data sizes:     COMRAM   BANK0   BANK1   BANK2   BANK3   BANK4   BANK5   BANK6   BANK7   BANK8   BANK9  BANK10  BANK1
      +1  BANK12  BANK13  BANK14
 10412 ;;      Params:         0       0       0       0       0       0       0       0       0       0       0       0       
      +0       0       0       0
 10413 ;;      Locals:         1       0       0       0       0       0       0       0       0       0       0       0       
      +0       0       0       0
 10414 ;;      Temps:          0       0       0       0       0       0       0       0       0       0       0       0       
      +0       0       0       0
 10415 ;;      Totals:         1       0       0       0       0       0       0       0       0       0       0       0       
      +0       0       0       0
 10416 ;;Total ram usage:        1 bytes
 10417 ;; Hardware stack levels used:    1
 10418 ;; Hardware stack levels required when called:    1
 10419 ;; This function calls:
 10420 ;;		_USBCtrlTrfTxService
 10421 ;; This function is called by:
 10422 ;;		_USBCtrlEPService
 10423 ;; This function uses a non-reentrant model
 10424 ;;
 10425                           
 10426                           	psect	text56
 10427  002370                     __ptext56:
 10428                           	opt stack 0
 10429  002370                     _USBCtrlTrfInHandler:
 10430                           	opt stack 20
 10431                           
 10432                           ;usb_device.c: 2597: uint8_t lastDTS;
 10433                           ;usb_device.c: 2599: lastDTS = pBDTEntryIn[0]->STAT.DTS;
 10434                           
 10435                           ;incstack = 0
 10436  002370  C00A  FFD9         	movff	_pBDTEntryIn,fsr2l
 10437  002374  C00B  FFDA         	movff	_pBDTEntryIn+1,fsr2h
 10438  002378  0E00               	movlw	0
 10439  00237A  BCDF               	btfsc	indf2,6,c
 10440  00237C  0E01               	movlw	1
 10441  00237E  6E2E               	movwf	USBCtrlTrfInHandler@lastDTS,c
 10442                           
 10443                           ;usb_device.c: 2602: ((uint8_t_VAL*)&pBDTEntryIn[0])->Val ^= 0x0004;
 10444  002380  0E04               	movlw	4
 10445  002382  1A0A               	xorwf	_pBDTEntryIn,f,c
 10446                           
 10447                           ;usb_device.c: 2607: if(USBDeviceState == ADR_PENDING_STATE)
 10448  002384  0E08               	movlw	8
 10449  002386  181A               	xorwf	_USBDeviceState,w,c	;volatile
 10450  002388  A4D8               	btfss	status,2,c
 10451  00238A  D00E               	goto	i2l4890
 10452                           
 10453                           ;usb_device.c: 2608: {
 10454                           ;usb_device.c: 2609: UADDR = (SetupPkt.bDevADR & 0x7F);
 10455  00238C  010D               	movlb	13	; () banked
 10456  00238E  5132               	movf	50,w,b	;volatile
 10457  002390  0B7F               	andlw	127
 10458  002392  010F               	movlb	15	; () banked
 10459  002394  6F38               	movwf	56,b	;volatile
 10460                           
 10461                           ; BSR set to: 15
 10462                           ;usb_device.c: 2610: if(UADDR != 0u)
 10463  002396  010F               	movlb	15	; () banked
 10464  002398  5138               	movf	56,w,b	;volatile
 10465  00239A  B4D8               	btfsc	status,2,c
 10466  00239C  D002               	goto	i2l4888
 10467                           
 10468                           ; BSR set to: 15
 10469                           ;usb_device.c: 2611: {
 10470                           ;usb_device.c: 2612: USBDeviceState=ADDRESS_STATE;
 10471  00239E  0E10               	movlw	16
 10472  0023A0  D001               	goto	L14
 10473  0023A2                     i2l4888:
 10474                           
 10475                           ; BSR set to: 15
 10476                           ;usb_device.c: 2614: else
 10477                           ;usb_device.c: 2615: {
 10478                           ;usb_device.c: 2616: USBDeviceState=DEFAULT_STATE;
 10479  0023A2  0E04               	movlw	4
 10480  0023A4                     L14:
 10481  0023A4  6E1A               	movwf	_USBDeviceState,c	;volatile
 10482                           
 10483                           ; BSR set to: 15
 10484  0023A6  D000               	goto	i2l4890
 10485  0023A8                     i2l4890:
 10486                           
 10487                           ;usb_device.c: 2617: }
 10488                           ;usb_device.c: 2618: }
 10489                           ;usb_device.c: 2621: if(controlTransferState == 1)
 10490  0023A8  041F               	decf	_controlTransferState,w,c	;volatile
 10491  0023AA  A4D8               	btfss	status,2,c
 10492  0023AC  D03A               	goto	i2l946
 10493                           
 10494                           ;usb_device.c: 2622: {
 10495                           ;usb_device.c: 2623: pBDTEntryIn[0]->ADR = ((uint16_t)(CtrlTrfData));
 10496  0023AE  EE20 F002          	lfsr	2,2
 10497  0023B2  500A               	movf	_pBDTEntryIn,w,c
 10498  0023B4  26D9               	addwf	fsr2l,f,c
 10499  0023B6  500B               	movf	_pBDTEntryIn+1,w,c
 10500  0023B8  22DA               	addwfc	fsr2h,f,c
 10501  0023BA  0E38               	movlw	56
 10502  0023BC  6EDE               	movwf	postinc2,c
 10503  0023BE  0E0D               	movlw	13
 10504  0023C0  6EDD               	movwf	postdec2,c
 10505                           
 10506                           ;usb_device.c: 2624: USBCtrlTrfTxService();
 10507  0023C2  EC9F  F00F         	call	_USBCtrlTrfTxService	;wreg free
 10508                           
 10509                           ;usb_device.c: 2630: if(shortPacketStatus == 2)
 10510  0023C6  0E02               	movlw	2
 10511  0023C8  1823               	xorwf	_shortPacketStatus,w,c	;volatile
 10512  0023CA  A4D8               	btfss	status,2,c
 10513  0023CC  D00D               	goto	i2l4902
 10514                           
 10515                           ;usb_device.c: 2631: {
 10516                           ;usb_device.c: 2634: pBDTEntryIn[0]->STAT.Val = 0x04;
 10517  0023CE  C00A  FFD9         	movff	_pBDTEntryIn,fsr2l
 10518  0023D2  C00B  FFDA         	movff	_pBDTEntryIn+1,fsr2h
 10519  0023D6  0E04               	movlw	4
 10520  0023D8  6EDF               	movwf	indf2,c
 10521                           
 10522                           ;usb_device.c: 2635: pBDTEntryIn[0]->STAT.Val |= 0x80;
 10523  0023DA  C00A  FFD9         	movff	_pBDTEntryIn,fsr2l
 10524  0023DE  C00B  FFDA         	movff	_pBDTEntryIn+1,fsr2h
 10525  0023E2  0E00               	movlw	0
 10526  0023E4  8EDB               	bsf	plusw2,7,c
 10527                           
 10528                           ;usb_device.c: 2636: }
 10529  0023E6  0012               	return	
 10530  0023E8                     i2l4902:
 10531                           
 10532                           ;usb_device.c: 2637: else
 10533                           ;usb_device.c: 2638: {
 10534                           ;usb_device.c: 2639: if(lastDTS == 0)
 10535  0023E8  502E               	movf	USBCtrlTrfInHandler@lastDTS,w,c
 10536  0023EA  A4D8               	btfss	status,2,c
 10537  0023EC  D00D               	goto	i2l4908
 10538                           
 10539                           ;usb_device.c: 2640: {
 10540                           ;usb_device.c: 2641: pBDTEntryIn[0]->STAT.Val = 0x40|(0x08 & 0x08);
 10541  0023EE  C00A  FFD9         	movff	_pBDTEntryIn,fsr2l
 10542  0023F2  C00B  FFDA         	movff	_pBDTEntryIn+1,fsr2h
 10543  0023F6  0E48               	movlw	72
 10544  0023F8  6EDF               	movwf	indf2,c
 10545                           
 10546                           ;usb_device.c: 2642: pBDTEntryIn[0]->STAT.Val |= 0x80;
 10547  0023FA  C00A  FFD9         	movff	_pBDTEntryIn,fsr2l
 10548  0023FE  C00B  FFDA         	movff	_pBDTEntryIn+1,fsr2h
 10549  002402  0E00               	movlw	0
 10550  002404  8EDB               	bsf	plusw2,7,c
 10551                           
 10552                           ;usb_device.c: 2643: }
 10553  002406  0012               	return	
 10554  002408                     i2l4908:
 10555                           
 10556                           ;usb_device.c: 2644: else
 10557                           ;usb_device.c: 2645: {
 10558                           ;usb_device.c: 2646: pBDTEntryIn[0]->STAT.Val = 0x00|(0x08 & 0x08);
 10559  002408  C00A  FFD9         	movff	_pBDTEntryIn,fsr2l
 10560  00240C  C00B  FFDA         	movff	_pBDTEntryIn+1,fsr2h
 10561  002410  0E08               	movlw	8
 10562  002412  6EDF               	movwf	indf2,c
 10563                           
 10564                           ;usb_device.c: 2647: pBDTEntryIn[0]->STAT.Val |= 0x80;
 10565  002414  C00A  FFD9         	movff	_pBDTEntryIn,fsr2l
 10566  002418  C00B  FFDA         	movff	_pBDTEntryIn+1,fsr2h
 10567  00241C  0E00               	movlw	0
 10568  00241E  8EDB               	bsf	plusw2,7,c
 10569                           
 10570                           ;usb_device.c: 2648: }
 10571                           ;usb_device.c: 2649: }
 10572                           ;usb_device.c: 2650: }
 10573  002420  0012               	return	
 10574  002422                     i2l946:
 10575                           
 10576                           ;usb_device.c: 2651: else
 10577                           ;usb_device.c: 2652: {
 10578                           ;usb_device.c: 2656: if(outPipes[0].info.bits.busy == 1)
 10579  002422  AE04               	btfss	_outPipes+3,7,c	;volatile
 10580  002424  D002               	goto	i2l4914
 10581                           
 10582                           ;usb_device.c: 2661: }
 10583                           ;usb_device.c: 2662: outPipes[0].info.bits.busy = 0;
 10584                           
 10585                           ;usb_device.c: 2659: {
 10586                           ;usb_device.c: 2660: outPipes[0].pFunc();
 10587  002426  9E04               	bcf	_outPipes+3,7,c	;volatile
 10588  002428  D000               	goto	i2l4914
 10589  00242A                     i2l4914:
 10590                           
 10591                           ;usb_device.c: 2663: }
 10592                           ;usb_device.c: 2665: controlTransferState = 0;
 10593  00242A  0E00               	movlw	0
 10594  00242C  6E1F               	movwf	_controlTransferState,c	;volatile
 10595  00242E  0012               	return	
 10596  002430  0012               	return		;funcret
 10597  002432                     __end_of_USBCtrlTrfInHandler:
 10598                           	opt stack 0
 10599                           pclatu	equ	0xFFB
 10600                           pclath	equ	0xFFA
 10601                           tblptru	equ	0xFF8
 10602                           tblptrh	equ	0xFF7
 10603                           tblptrl	equ	0xFF6
 10604                           tablat	equ	0xFF5
 10605                           prodh	equ	0xFF4
 10606                           prodl	equ	0xFF3
 10607                           intcon	equ	0xFF2
 10608                           intcon2	equ	0xFF1
 10609                           indf0	equ	0xFEF
 10610                           postinc0	equ	0xFEE
 10611                           fsr0h	equ	0xFEA
 10612                           fsr0l	equ	0xFE9
 10613                           wreg	equ	0xFE8
 10614                           indf1	equ	0xFE7
 10615                           fsr1h	equ	0xFE2
 10616                           fsr1l	equ	0xFE1
 10617                           indf2	equ	0xFDF
 10618                           postinc2	equ	0xFDE
 10619                           postdec2	equ	0xFDD
 10620                           plusw2	equ	0xFDB
 10621                           fsr2h	equ	0xFDA
 10622                           fsr2l	equ	0xFD9
 10623                           status	equ	0xFD8
 10624                           
 10625 ;; *************** function _USBCtrlTrfTxService *****************
 10626 ;; Defined at:
 10627 ;;		line 1771 in file "../My_header/usb_cdc/usb/usb_device.c"
 10628 ;; Parameters:    Size  Location     Type
 10629 ;;		None
 10630 ;; Auto vars:     Size  Location     Type
 10631 ;;  byteToSend      1    0[COMRAM] unsigned char 
 10632 ;; Return value:  Size  Location     Type
 10633 ;;		None               void
 10634 ;; Registers used:
 10635 ;;		wreg, fsr0l, fsr0h, fsr2l, fsr2h, status,2, status,0, tblptrl, tblptrh, tblptru
 10636 ;; Tracked objects:
 10637 ;;		On entry : 0/0
 10638 ;;		On exit  : 0/0
 10639 ;;		Unchanged: 0/0
 10640 ;; Data sizes:     COMRAM   BANK0   BANK1   BANK2   BANK3   BANK4   BANK5   BANK6   BANK7   BANK8   BANK9  BANK10  BANK1
      +1  BANK12  BANK13  BANK14
 10641 ;;      Params:         0       0       0       0       0       0       0       0       0       0       0       0       
      +0       0       0       0
 10642 ;;      Locals:         1       0       0       0       0       0       0       0       0       0       0       0       
      +0       0       0       0
 10643 ;;      Temps:          0       0       0       0       0       0       0       0       0       0       0       0       
      +0       0       0       0
 10644 ;;      Totals:         1       0       0       0       0       0       0       0       0       0       0       0       
      +0       0       0       0
 10645 ;;Total ram usage:        1 bytes
 10646 ;; Hardware stack levels used:    1
 10647 ;; This function calls:
 10648 ;;		Nothing
 10649 ;; This function is called by:
 10650 ;;		_USBCtrlEPAllowDataStage
 10651 ;;		_USBCtrlTrfInHandler
 10652 ;; This function uses a non-reentrant model
 10653 ;;
 10654                           
 10655                           	psect	text57
 10656  001F3E                     __ptext57:
 10657                           	opt stack 0
 10658  001F3E                     _USBCtrlTrfTxService:
 10659                           	opt stack 18
 10660                           
 10661                           ;usb_device.c: 1773: uint8_t byteToSend;
 10662                           ;usb_device.c: 1777: byteToSend = 8;
 10663                           
 10664                           ;incstack = 0
 10665  001F3E  0E08               	movlw	8
 10666  001F40  6E2D               	movwf	USBCtrlTrfTxService@byteToSend,c
 10667                           
 10668                           ;usb_device.c: 1778: if(inPipes[0].wCount.Val < (uint8_t)8)
 10669  001F42  502A               	movf	_inPipes+5,w,c	;volatile
 10670  001F44  E111               	bnz	i2l4190
 10671  001F46  0E08               	movlw	8
 10672  001F48  5C29               	subwf	_inPipes+4,w,c	;volatile
 10673  001F4A  B0D8               	btfsc	status,0,c
 10674  001F4C  D00D               	goto	i2l4190
 10675                           
 10676                           ;usb_device.c: 1779: {
 10677                           ;usb_device.c: 1780: byteToSend = inPipes[0].wCount.Val;
 10678  001F4E  C029  F02D         	movff	_inPipes+4,USBCtrlTrfTxService@byteToSend	;volatile
 10679                           
 10680                           ;usb_device.c: 1787: if(shortPacketStatus == 0)
 10681  001F52  5023               	movf	_shortPacketStatus,w,c	;volatile
 10682  001F54  A4D8               	btfss	status,2,c
 10683  001F56  D002               	goto	i2l4186
 10684                           
 10685                           ;usb_device.c: 1788: {
 10686                           ;usb_device.c: 1789: shortPacketStatus = 1;
 10687  001F58  0E01               	movlw	1
 10688  001F5A  D004               	goto	L15
 10689  001F5C                     i2l4186:
 10690                           
 10691                           ;usb_device.c: 1791: else if(shortPacketStatus == 1)
 10692  001F5C  0423               	decf	_shortPacketStatus,w,c	;volatile
 10693  001F5E  A4D8               	btfss	status,2,c
 10694  001F60  D003               	goto	i2l4190
 10695                           
 10696                           ;usb_device.c: 1792: {
 10697                           ;usb_device.c: 1793: shortPacketStatus = 2;
 10698  001F62  0E02               	movlw	2
 10699  001F64                     L15:
 10700  001F64  6E23               	movwf	_shortPacketStatus,c	;volatile
 10701  001F66  D000               	goto	i2l4190
 10702  001F68                     i2l4190:
 10703                           
 10704                           ;usb_device.c: 1794: }
 10705                           ;usb_device.c: 1795: }
 10706                           ;usb_device.c: 1799: inPipes[0].wCount.Val -= byteToSend;
 10707  001F68  502D               	movf	USBCtrlTrfTxService@byteToSend,w,c
 10708  001F6A  5E29               	subwf	_inPipes+4,f,c	;volatile
 10709  001F6C  0E00               	movlw	0
 10710  001F6E  5A2A               	subwfb	_inPipes+5,f,c	;volatile
 10711                           
 10712                           ;usb_device.c: 1804: pBDTEntryIn[0]->CNT = byteToSend;
 10713  001F70  EE20 F001          	lfsr	2,1
 10714  001F74  500A               	movf	_pBDTEntryIn,w,c
 10715  001F76  26D9               	addwf	fsr2l,f,c
 10716  001F78  500B               	movf	_pBDTEntryIn+1,w,c
 10717  001F7A  22DA               	addwfc	fsr2h,f,c
 10718  001F7C  C02D  FFDF         	movff	USBCtrlTrfTxService@byteToSend,indf2
 10719                           
 10720                           ;usb_device.c: 1808: pDst = (volatile uint8_t*)CtrlTrfData;
 10721  001F80  0E38               	movlw	56
 10722  001F82  0100               	movlb	0	; () banked
 10723  001F84  6F78               	movwf	_pDst& (0+255),b
 10724  001F86  0E0D               	movlw	13
 10725  001F88  0100               	movlb	0	; () banked
 10726  001F8A  6F79               	movwf	(_pDst+1)& (0+255),b
 10727                           
 10728                           ; BSR set to: 0
 10729                           ;usb_device.c: 1809: if(inPipes[0].info.bits.ctrl_trf_mem == 0x00)
 10730  001F8C  A028               	btfss	_inPipes+3,0,c	;volatile
 10731  001F8E  D01F               	goto	i2l4208
 10732  001F90  D041               	goto	i2l4218
 10733                           
 10734                           ; BSR set to: 0
 10735                           ;usb_device.c: 1810: {
 10736                           ;usb_device.c: 1811: while(byteToSend)
 10737  001F92  D01D               	goto	i2l4208
 10738  001F94                     i2l4200:
 10739                           
 10740                           ; BSR set to: 0
 10741                           ;usb_device.c: 1812: {
 10742                           ;usb_device.c: 1813: *pDst++ = *inPipes[0].pSrc.bRom++;
 10743  001F94  C025  FFF6         	movff	_inPipes,tblptrl	;volatile
 10744  001F98  C026  FFF7         	movff	_inPipes+1,tblptrh	;volatile
 10745  001F9C  0E00               	movlw	low (__smallconst shr (0+16))
 10746  001F9E  6EF8               	movwf	tblptru,c
 10747  001FA0  C078  FFD9         	movff	_pDst,fsr2l
 10748  001FA4  C079  FFDA         	movff	_pDst+1,fsr2h
 10749  001FA8  0E0E               	movlw	(high __ramtop+-1)
 10750  001FAA  64F7               	cpfsgt	tblptrh,c
 10751  001FAC  D003               	bra	i2u312_47
 10752  001FAE  0008               	tblrd		*
 10753  001FB0  50F5               	movf	tablat,w,c
 10754  001FB2  D005               	bra	i2u312_40
 10755  001FB4                     i2u312_47:
 10756  001FB4  CFF6 FFE9          	movff	tblptrl,fsr0l
 10757  001FB8  CFF7 FFEA          	movff	tblptrh,fsr0h
 10758  001FBC  50EF               	movf	indf0,w,c
 10759  001FBE                     i2u312_40:
 10760  001FBE  6EDF               	movwf	indf2,c
 10761  001FC0  4A25               	infsnz	_inPipes,f,c	;volatile
 10762  001FC2  2A26               	incf	_inPipes+1,f,c	;volatile
 10763  001FC4  0100               	movlb	0	; () banked
 10764  001FC6  4B78               	infsnz	_pDst& (0+255),f,b
 10765  001FC8  2B79               	incf	(_pDst+1)& (0+255),f,b
 10766                           
 10767                           ; BSR set to: 0
 10768                           ;usb_device.c: 1814: byteToSend--;
 10769  001FCA  062D               	decf	USBCtrlTrfTxService@byteToSend,f,c
 10770  001FCC  D000               	goto	i2l4208
 10771  001FCE                     i2l4208:
 10772                           
 10773                           ; BSR set to: 0
 10774  001FCE  502D               	movf	USBCtrlTrfTxService@byteToSend,w,c
 10775  001FD0  B4D8               	btfsc	status,2,c
 10776  001FD2  0012               	return	
 10777  001FD4  D7DF               	goto	i2l4200
 10778                           
 10779                           ; BSR set to: 0
 10780                           ;usb_device.c: 1815: }
 10781                           ;usb_device.c: 1816: }
 10782  001FD6  0012               	return	
 10783                           
 10784                           ; BSR set to: 0
 10785                           ;usb_device.c: 1817: else
 10786                           ;usb_device.c: 1818: {
 10787                           ;usb_device.c: 1819: while(byteToSend)
 10788  001FD8  D01D               	goto	i2l4218
 10789  001FDA                     i2l4210:
 10790                           
 10791                           ; BSR set to: 0
 10792                           ;usb_device.c: 1820: {
 10793                           ;usb_device.c: 1821: *pDst++ = *inPipes[0].pSrc.bRam++;
 10794  001FDA  C025  FFF6         	movff	_inPipes,tblptrl	;volatile
 10795  001FDE  C026  FFF7         	movff	_inPipes+1,tblptrh	;volatile
 10796  001FE2  0E00               	movlw	low (__smallconst shr (0+16))
 10797  001FE4  6EF8               	movwf	tblptru,c
 10798  001FE6  C078  FFD9         	movff	_pDst,fsr2l
 10799  001FEA  C079  FFDA         	movff	_pDst+1,fsr2h
 10800  001FEE  0E0E               	movlw	(high __ramtop+-1)
 10801  001FF0  64F7               	cpfsgt	tblptrh,c
 10802  001FF2  D003               	bra	i2u314_47
 10803  001FF4  0008               	tblrd		*
 10804  001FF6  50F5               	movf	tablat,w,c
 10805  001FF8  D005               	bra	i2u314_40
 10806  001FFA                     i2u314_47:
 10807  001FFA  CFF6 FFE9          	movff	tblptrl,fsr0l
 10808  001FFE  CFF7 FFEA          	movff	tblptrh,fsr0h
 10809  002002  50EF               	movf	indf0,w,c
 10810  002004                     i2u314_40:
 10811  002004  6EDF               	movwf	indf2,c
 10812  002006  4A25               	infsnz	_inPipes,f,c	;volatile
 10813  002008  2A26               	incf	_inPipes+1,f,c	;volatile
 10814  00200A  0100               	movlb	0	; () banked
 10815  00200C  4B78               	infsnz	_pDst& (0+255),f,b
 10816  00200E  2B79               	incf	(_pDst+1)& (0+255),f,b
 10817                           
 10818                           ; BSR set to: 0
 10819                           ;usb_device.c: 1822: byteToSend--;
 10820  002010  062D               	decf	USBCtrlTrfTxService@byteToSend,f,c
 10821  002012  D000               	goto	i2l4218
 10822  002014                     i2l4218:
 10823                           
 10824                           ; BSR set to: 0
 10825  002014  502D               	movf	USBCtrlTrfTxService@byteToSend,w,c
 10826  002016  B4D8               	btfsc	status,2,c
 10827  002018  0012               	return	
 10828  00201A  D7DF               	goto	i2l4210
 10829                           
 10830                           ; BSR set to: 0
 10831  00201C  0012               	return	
 10832                           
 10833                           ; BSR set to: 0
 10834                           
 10835                           ; BSR set to: 0
 10836  00201E  0012               	return		;funcret
 10837  002020                     __end_of_USBCtrlTrfTxService:
 10838                           	opt stack 0
 10839                           pclatu	equ	0xFFB
 10840                           pclath	equ	0xFFA
 10841                           tblptru	equ	0xFF8
 10842                           tblptrh	equ	0xFF7
 10843                           tblptrl	equ	0xFF6
 10844                           tablat	equ	0xFF5
 10845                           prodh	equ	0xFF4
 10846                           prodl	equ	0xFF3
 10847                           intcon	equ	0xFF2
 10848                           intcon2	equ	0xFF1
 10849                           indf0	equ	0xFEF
 10850                           postinc0	equ	0xFEE
 10851                           fsr0h	equ	0xFEA
 10852                           fsr0l	equ	0xFE9
 10853                           wreg	equ	0xFE8
 10854                           indf1	equ	0xFE7
 10855                           fsr1h	equ	0xFE2
 10856                           fsr1l	equ	0xFE1
 10857                           indf2	equ	0xFDF
 10858                           postinc2	equ	0xFDE
 10859                           postdec2	equ	0xFDD
 10860                           plusw2	equ	0xFDB
 10861                           fsr2h	equ	0xFDA
 10862                           fsr2l	equ	0xFD9
 10863                           status	equ	0xFD8
 10864                           
 10865 ;; *************** function _UART_ISR *****************
 10866 ;; Defined at:
 10867 ;;		line 208 in file "../My_header\My_header.h"
 10868 ;; Parameters:    Size  Location     Type
 10869 ;;		None
 10870 ;; Auto vars:     Size  Location     Type
 10871 ;;  ascii           1   15[COMRAM] unsigned char 
 10872 ;; Return value:  Size  Location     Type
 10873 ;;		None               void
 10874 ;; Registers used:
 10875 ;;		wreg, fsr1l, fsr1h, fsr2l, fsr2h, status,2, status,0, cstack
 10876 ;; Tracked objects:
 10877 ;;		On entry : 0/0
 10878 ;;		On exit  : 0/0
 10879 ;;		Unchanged: 0/0
 10880 ;; Data sizes:     COMRAM   BANK0   BANK1   BANK2   BANK3   BANK4   BANK5   BANK6   BANK7   BANK8   BANK9  BANK10  BANK1
      +1  BANK12  BANK13  BANK14
 10881 ;;      Params:         0       0       0       0       0       0       0       0       0       0       0       0       
      +0       0       0       0
 10882 ;;      Locals:         1       0       0       0       0       0       0       0       0       0       0       0       
      +0       0       0       0
 10883 ;;      Temps:          0       0       0       0       0       0       0       0       0       0       0       0       
      +0       0       0       0
 10884 ;;      Totals:         1       0       0       0       0       0       0       0       0       0       0       0       
      +0       0       0       0
 10885 ;;Total ram usage:        1 bytes
 10886 ;; Hardware stack levels used:    1
 10887 ;; Hardware stack levels required when called:    2
 10888 ;; This function calls:
 10889 ;;		_ringbuf_num
 10890 ;;		_ringbuf_pop
 10891 ;;		_ringbuf_put
 10892 ;; This function is called by:
 10893 ;;		_ISR
 10894 ;; This function uses a non-reentrant model
 10895 ;;
 10896                           
 10897                           	psect	text58
 10898  002E96                     __ptext58:
 10899                           	opt stack 0
 10900  002E96                     _UART_ISR:
 10901                           	opt stack 21
 10902                           
 10903                           ;My_header\My_header.h: 209: if (PIE1bits.TXIE && PIR1bits.TXIF) {
 10904                           
 10905                           ; BSR set to: 0
 10906                           ;incstack = 0
 10907  002E96  B89D               	btfsc	3997,4,c	;volatile
 10908  002E98  A89E               	btfss	3998,4,c	;volatile
 10909  002E9A  D014               	goto	i2l197
 10910                           
 10911                           ;My_header\My_header.h: 210: if (ringbuf_num(&tx_buf)) {
 10912  002E9C  0EE9               	movlw	low _tx_buf
 10913  002E9E  6E2D               	movwf	ringbuf_num@rb,c
 10914  002EA0  0E01               	movlw	high _tx_buf
 10915  002EA2  6E2E               	movwf	ringbuf_num@rb+1,c
 10916  002EA4  ECD8  F012         	call	_ringbuf_num	;wreg free
 10917  002EA8  502D               	movf	?_ringbuf_num,w,c
 10918  002EAA  102E               	iorwf	?_ringbuf_num+1,w,c
 10919  002EAC  B4D8               	btfsc	status,2,c
 10920  002EAE  D008               	goto	i2l198
 10921                           
 10922                           ;My_header\My_header.h: 211: TXREG1 = ringbuf_pop(&tx_buf);
 10923  002EB0  0EE9               	movlw	low _tx_buf
 10924  002EB2  6E35               	movwf	ringbuf_pop@rb,c
 10925  002EB4  0E01               	movlw	high _tx_buf
 10926  002EB6  6E36               	movwf	ringbuf_pop@rb+1,c
 10927  002EB8  EC46  F014         	call	_ringbuf_pop	;wreg free
 10928  002EBC  6EAE               	movwf	4014,c	;volatile
 10929                           
 10930                           ;My_header\My_header.h: 212: } else {
 10931  002EBE  D002               	goto	i2l197
 10932  002EC0                     i2l198:
 10933                           
 10934                           ;My_header\My_header.h: 213: PIE1bits.TXIE = 0;
 10935  002EC0  989D               	bcf	3997,4,c	;volatile
 10936  002EC2  D000               	goto	i2l197
 10937  002EC4                     i2l197:
 10938                           
 10939                           ;My_header\My_header.h: 214: }
 10940                           ;My_header\My_header.h: 215: }
 10941                           ;My_header\My_header.h: 216: if (PIR1bits.RCIF && PIE1bits.RCIE) {
 10942  002EC4  AA9E               	btfss	3998,5,c	;volatile
 10943  002EC6  0012               	return	
 10944  002EC8  AA9D               	btfss	3997,5,c	;volatile
 10945  002ECA  0012               	return	
 10946                           
 10947                           ;My_header\My_header.h: 217: char ascii = RCREG1;
 10948  002ECC  CFAF F03C          	movff	4015,UART_ISR@ascii	;volatile
 10949                           
 10950                           ;My_header\My_header.h: 218: ringbuf_put(&rx_buf, ascii);
 10951  002ED0  0EE1               	movlw	low _rx_buf
 10952  002ED2  6E35               	movwf	ringbuf_put@rb,c
 10953  002ED4  0E01               	movlw	high _rx_buf
 10954  002ED6  6E36               	movwf	ringbuf_put@rb+1,c
 10955  002ED8  C03C  F037         	movff	UART_ISR@ascii,ringbuf_put@asciicode
 10956  002EDC  EC37  F013         	call	_ringbuf_put	;wreg free
 10957  002EE0  0012               	return	
 10958  002EE2  0012               	return		;funcret
 10959  002EE4                     __end_of_UART_ISR:
 10960                           	opt stack 0
 10961                           pclatu	equ	0xFFB
 10962                           pclath	equ	0xFFA
 10963                           tblptru	equ	0xFF8
 10964                           tblptrh	equ	0xFF7
 10965                           tblptrl	equ	0xFF6
 10966                           tablat	equ	0xFF5
 10967                           prodh	equ	0xFF4
 10968                           prodl	equ	0xFF3
 10969                           intcon	equ	0xFF2
 10970                           intcon2	equ	0xFF1
 10971                           indf0	equ	0xFEF
 10972                           postinc0	equ	0xFEE
 10973                           fsr0h	equ	0xFEA
 10974                           fsr0l	equ	0xFE9
 10975                           wreg	equ	0xFE8
 10976                           indf1	equ	0xFE7
 10977                           fsr1h	equ	0xFE2
 10978                           fsr1l	equ	0xFE1
 10979                           indf2	equ	0xFDF
 10980                           postinc2	equ	0xFDE
 10981                           postdec2	equ	0xFDD
 10982                           plusw2	equ	0xFDB
 10983                           fsr2h	equ	0xFDA
 10984                           fsr2l	equ	0xFD9
 10985                           status	equ	0xFD8
 10986                           
 10987 ;; *************** function _ringbuf_put *****************
 10988 ;; Defined at:
 10989 ;;		line 39 in file "../My_header\My_ringbuf.h"
 10990 ;; Parameters:    Size  Location     Type
 10991 ;;  rb              2    8[COMRAM] PTR struct ringbuf
 10992 ;;		 -> rx_buf(8), tx_buf(8), 
 10993 ;;  asciicode       1   10[COMRAM] unsigned char 
 10994 ;; Auto vars:     Size  Location     Type
 10995 ;;		None
 10996 ;; Return value:  Size  Location     Type
 10997 ;;		None               void
 10998 ;; Registers used:
 10999 ;;		wreg, fsr1l, fsr1h, fsr2l, fsr2h, status,2, status,0, cstack
 11000 ;; Tracked objects:
 11001 ;;		On entry : 0/0
 11002 ;;		On exit  : 0/0
 11003 ;;		Unchanged: 0/0
 11004 ;; Data sizes:     COMRAM   BANK0   BANK1   BANK2   BANK3   BANK4   BANK5   BANK6   BANK7   BANK8   BANK9  BANK10  BANK1
      +1  BANK12  BANK13  BANK14
 11005 ;;      Params:         3       0       0       0       0       0       0       0       0       0       0       0       
      +0       0       0       0
 11006 ;;      Locals:         0       0       0       0       0       0       0       0       0       0       0       0       
      +0       0       0       0
 11007 ;;      Temps:          4       0       0       0       0       0       0       0       0       0       0       0       
      +0       0       0       0
 11008 ;;      Totals:         7       0       0       0       0       0       0       0       0       0       0       0       
      +0       0       0       0
 11009 ;;Total ram usage:        7 bytes
 11010 ;; Hardware stack levels used:    1
 11011 ;; Hardware stack levels required when called:    1
 11012 ;; This function calls:
 11013 ;;		_ringbuf_num
 11014 ;; This function is called by:
 11015 ;;		_UART_ISR
 11016 ;;		_ringbuf_put_num
 11017 ;;		_ringbuf_put_str
 11018 ;;		_tx_send
 11019 ;;		_tx_sends
 11020 ;; This function uses a non-reentrant model
 11021 ;;
 11022                           
 11023                           	psect	text59
 11024  00266E                     __ptext59:
 11025                           	opt stack 0
 11026  00266E                     _ringbuf_put:
 11027                           	opt stack 21
 11028                           
 11029                           ;My_header\My_ringbuf.h: 40: if (ringbuf_num(rb) < rb->size) {
 11030                           
 11031                           ;incstack = 0
 11032  00266E  C035  F02D         	movff	ringbuf_put@rb,ringbuf_num@rb
 11033  002672  C036  F02E         	movff	ringbuf_put@rb+1,ringbuf_num@rb+1
 11034  002676  ECD8  F012         	call	_ringbuf_num	;wreg free
 11035  00267A  EE20 F002          	lfsr	2,2
 11036  00267E  5035               	movf	ringbuf_put@rb,w,c
 11037  002680  26D9               	addwf	fsr2l,f,c
 11038  002682  5036               	movf	ringbuf_put@rb+1,w,c
 11039  002684  22DA               	addwfc	fsr2h,f,c
 11040  002686  50DE               	movf	postinc2,w,c
 11041  002688  5C2D               	subwf	?_ringbuf_num,w,c
 11042  00268A  50DE               	movf	postinc2,w,c
 11043  00268C  582E               	subwfb	?_ringbuf_num+1,w,c
 11044  00268E  B0D8               	btfsc	status,0,c
 11045  002690  0012               	return	
 11046                           
 11047                           ;My_header\My_ringbuf.h: 41: rb->buf[rb->head] = asciicode;
 11048  002692  EE20 F004          	lfsr	2,4
 11049  002696  5035               	movf	ringbuf_put@rb,w,c
 11050  002698  26D9               	addwf	fsr2l,f,c
 11051  00269A  5036               	movf	ringbuf_put@rb+1,w,c
 11052  00269C  22DA               	addwfc	fsr2h,f,c
 11053  00269E  CFDE F038          	movff	postinc2,??_ringbuf_put
 11054  0026A2  CFDD F039          	movff	postdec2,??_ringbuf_put+1
 11055  0026A6  C035  FFD9         	movff	ringbuf_put@rb,fsr2l
 11056  0026AA  C036  FFDA         	movff	ringbuf_put@rb+1,fsr2h
 11057  0026AE  CFDE F03A          	movff	postinc2,??_ringbuf_put+2
 11058  0026B2  CFDD F03B          	movff	postdec2,??_ringbuf_put+3
 11059  0026B6  5038               	movf	??_ringbuf_put,w,c
 11060  0026B8  243A               	addwf	??_ringbuf_put+2,w,c
 11061  0026BA  6ED9               	movwf	fsr2l,c
 11062  0026BC  5039               	movf	??_ringbuf_put+1,w,c
 11063  0026BE  203B               	addwfc	??_ringbuf_put+3,w,c
 11064  0026C0  6EDA               	movwf	fsr2h,c
 11065  0026C2  C037  FFDF         	movff	ringbuf_put@asciicode,indf2
 11066                           
 11067                           ;My_header\My_ringbuf.h: 42: if (rb->head + 1 < rb->size) rb->head++;
 11068  0026C6  EE20 F002          	lfsr	2,2
 11069  0026CA  5035               	movf	ringbuf_put@rb,w,c
 11070  0026CC  26D9               	addwf	fsr2l,f,c
 11071  0026CE  5036               	movf	ringbuf_put@rb+1,w,c
 11072  0026D0  22DA               	addwfc	fsr2h,f,c
 11073  0026D2  EE10 F004          	lfsr	1,4
 11074  0026D6  5035               	movf	ringbuf_put@rb,w,c
 11075  0026D8  26E1               	addwf	fsr1l,f,c
 11076  0026DA  5036               	movf	ringbuf_put@rb+1,w,c
 11077  0026DC  22E2               	addwfc	fsr1h,f,c
 11078  0026DE  CFE6 F03A          	movff	postinc1,??_ringbuf_put+2
 11079  0026E2  CFE5 F03B          	movff	postdec1,??_ringbuf_put+3
 11080  0026E6  0E01               	movlw	1
 11081  0026E8  263A               	addwf	??_ringbuf_put+2,f,c
 11082  0026EA  0E00               	movlw	0
 11083  0026EC  223B               	addwfc	??_ringbuf_put+3,f,c
 11084  0026EE  50DE               	movf	postinc2,w,c
 11085  0026F0  5C3A               	subwf	??_ringbuf_put+2,w,c
 11086  0026F2  50DE               	movf	postinc2,w,c
 11087  0026F4  583B               	subwfb	??_ringbuf_put+3,w,c
 11088  0026F6  B0D8               	btfsc	status,0,c
 11089  0026F8  D00A               	goto	i2l4986
 11090  0026FA  EE20 F004          	lfsr	2,4
 11091  0026FE  5035               	movf	ringbuf_put@rb,w,c
 11092  002700  26D9               	addwf	fsr2l,f,c
 11093  002702  5036               	movf	ringbuf_put@rb+1,w,c
 11094  002704  22DA               	addwfc	fsr2h,f,c
 11095  002706  2ADE               	incf	postinc2,f,c
 11096  002708  0E00               	movlw	0
 11097  00270A  22DD               	addwfc	postdec2,f,c
 11098  00270C  0012               	return	
 11099  00270E                     i2l4986:
 11100                           
 11101                           ;My_header\My_ringbuf.h: 43: else rb->head = 0;
 11102  00270E  EE20 F004          	lfsr	2,4
 11103  002712  5035               	movf	ringbuf_put@rb,w,c
 11104  002714  26D9               	addwf	fsr2l,f,c
 11105  002716  5036               	movf	ringbuf_put@rb+1,w,c
 11106  002718  22DA               	addwfc	fsr2h,f,c
 11107  00271A  0E00               	movlw	0
 11108  00271C  6EDE               	movwf	postinc2,c
 11109  00271E  0E00               	movlw	0
 11110  002720  6EDD               	movwf	postdec2,c
 11111  002722  0012               	return	
 11112  002724  0012               	return		;funcret
 11113  002726                     __end_of_ringbuf_put:
 11114                           	opt stack 0
 11115                           pclatu	equ	0xFFB
 11116                           pclath	equ	0xFFA
 11117                           tblptru	equ	0xFF8
 11118                           tblptrh	equ	0xFF7
 11119                           tblptrl	equ	0xFF6
 11120                           tablat	equ	0xFF5
 11121                           prodh	equ	0xFF4
 11122                           prodl	equ	0xFF3
 11123                           intcon	equ	0xFF2
 11124                           intcon2	equ	0xFF1
 11125                           indf0	equ	0xFEF
 11126                           postinc0	equ	0xFEE
 11127                           fsr0h	equ	0xFEA
 11128                           fsr0l	equ	0xFE9
 11129                           wreg	equ	0xFE8
 11130                           indf1	equ	0xFE7
 11131                           postinc1	equ	0xFE6
 11132                           postdec1	equ	0xFE5
 11133                           fsr1h	equ	0xFE2
 11134                           fsr1l	equ	0xFE1
 11135                           indf2	equ	0xFDF
 11136                           postinc2	equ	0xFDE
 11137                           postdec2	equ	0xFDD
 11138                           plusw2	equ	0xFDB
 11139                           fsr2h	equ	0xFDA
 11140                           fsr2l	equ	0xFD9
 11141                           status	equ	0xFD8
 11142                           
 11143 ;; *************** function _ringbuf_pop *****************
 11144 ;; Defined at:
 11145 ;;		line 64 in file "../My_header\My_ringbuf.h"
 11146 ;; Parameters:    Size  Location     Type
 11147 ;;  rb              2    8[COMRAM] PTR struct ringbuf
 11148 ;;		 -> tx_buf(8), 
 11149 ;; Auto vars:     Size  Location     Type
 11150 ;;  ret             1   14[COMRAM] unsigned char 
 11151 ;; Return value:  Size  Location     Type
 11152 ;;                  1    wreg      unsigned char 
 11153 ;; Registers used:
 11154 ;;		wreg, fsr1l, fsr1h, fsr2l, fsr2h, status,2, status,0, cstack
 11155 ;; Tracked objects:
 11156 ;;		On entry : 0/0
 11157 ;;		On exit  : 0/0
 11158 ;;		Unchanged: 0/0
 11159 ;; Data sizes:     COMRAM   BANK0   BANK1   BANK2   BANK3   BANK4   BANK5   BANK6   BANK7   BANK8   BANK9  BANK10  BANK1
      +1  BANK12  BANK13  BANK14
 11160 ;;      Params:         2       0       0       0       0       0       0       0       0       0       0       0       
      +0       0       0       0
 11161 ;;      Locals:         1       0       0       0       0       0       0       0       0       0       0       0       
      +0       0       0       0
 11162 ;;      Temps:          4       0       0       0       0       0       0       0       0       0       0       0       
      +0       0       0       0
 11163 ;;      Totals:         7       0       0       0       0       0       0       0       0       0       0       0       
      +0       0       0       0
 11164 ;;Total ram usage:        7 bytes
 11165 ;; Hardware stack levels used:    1
 11166 ;; Hardware stack levels required when called:    1
 11167 ;; This function calls:
 11168 ;;		_ringbuf_num
 11169 ;; This function is called by:
 11170 ;;		_UART_ISR
 11171 ;; This function uses a non-reentrant model
 11172 ;;
 11173                           
 11174                           	psect	text60
 11175  00288C                     __ptext60:
 11176                           	opt stack 0
 11177  00288C                     _ringbuf_pop:
 11178                           	opt stack 21
 11179                           
 11180                           ;My_header\My_ringbuf.h: 65: if (ringbuf_num(rb)) {
 11181                           
 11182                           ;incstack = 0
 11183  00288C  C035  F02D         	movff	ringbuf_pop@rb,ringbuf_num@rb
 11184  002890  C036  F02E         	movff	ringbuf_pop@rb+1,ringbuf_num@rb+1
 11185  002894  ECD8  F012         	call	_ringbuf_num	;wreg free
 11186  002898  502D               	movf	?_ringbuf_num,w,c
 11187  00289A  102E               	iorwf	?_ringbuf_num+1,w,c
 11188  00289C  B4D8               	btfsc	status,2,c
 11189  00289E  D04B               	goto	i2l5004
 11190                           
 11191                           ;My_header\My_ringbuf.h: 66: char ret = rb->buf[rb->tail];
 11192  0028A0  EE20 F006          	lfsr	2,6
 11193  0028A4  5035               	movf	ringbuf_pop@rb,w,c
 11194  0028A6  26D9               	addwf	fsr2l,f,c
 11195  0028A8  5036               	movf	ringbuf_pop@rb+1,w,c
 11196  0028AA  22DA               	addwfc	fsr2h,f,c
 11197  0028AC  CFDE F037          	movff	postinc2,??_ringbuf_pop
 11198  0028B0  CFDD F038          	movff	postdec2,??_ringbuf_pop+1
 11199  0028B4  C035  FFD9         	movff	ringbuf_pop@rb,fsr2l
 11200  0028B8  C036  FFDA         	movff	ringbuf_pop@rb+1,fsr2h
 11201  0028BC  CFDE F039          	movff	postinc2,??_ringbuf_pop+2
 11202  0028C0  CFDD F03A          	movff	postdec2,??_ringbuf_pop+3
 11203  0028C4  5037               	movf	??_ringbuf_pop,w,c
 11204  0028C6  2439               	addwf	??_ringbuf_pop+2,w,c
 11205  0028C8  6ED9               	movwf	fsr2l,c
 11206  0028CA  5038               	movf	??_ringbuf_pop+1,w,c
 11207  0028CC  203A               	addwfc	??_ringbuf_pop+3,w,c
 11208  0028CE  6EDA               	movwf	fsr2h,c
 11209  0028D0  50DF               	movf	indf2,w,c
 11210  0028D2  6E3B               	movwf	ringbuf_pop@ret,c
 11211                           
 11212                           ;My_header\My_ringbuf.h: 67: if (rb->tail + 1 < rb->size) {
 11213  0028D4  EE20 F002          	lfsr	2,2
 11214  0028D8  5035               	movf	ringbuf_pop@rb,w,c
 11215  0028DA  26D9               	addwf	fsr2l,f,c
 11216  0028DC  5036               	movf	ringbuf_pop@rb+1,w,c
 11217  0028DE  22DA               	addwfc	fsr2h,f,c
 11218  0028E0  EE10 F006          	lfsr	1,6
 11219  0028E4  5035               	movf	ringbuf_pop@rb,w,c
 11220  0028E6  26E1               	addwf	fsr1l,f,c
 11221  0028E8  5036               	movf	ringbuf_pop@rb+1,w,c
 11222  0028EA  22E2               	addwfc	fsr1h,f,c
 11223  0028EC  CFE6 F039          	movff	postinc1,??_ringbuf_pop+2
 11224  0028F0  CFE5 F03A          	movff	postdec1,??_ringbuf_pop+3
 11225  0028F4  0E01               	movlw	1
 11226  0028F6  2639               	addwf	??_ringbuf_pop+2,f,c
 11227  0028F8  0E00               	movlw	0
 11228  0028FA  223A               	addwfc	??_ringbuf_pop+3,f,c
 11229  0028FC  50DE               	movf	postinc2,w,c
 11230  0028FE  5C39               	subwf	??_ringbuf_pop+2,w,c
 11231  002900  50DE               	movf	postinc2,w,c
 11232  002902  583A               	subwfb	??_ringbuf_pop+3,w,c
 11233  002904  B0D8               	btfsc	status,0,c
 11234  002906  D00A               	goto	i2l4996
 11235                           
 11236                           ;My_header\My_ringbuf.h: 68: rb->tail++;
 11237  002908  EE20 F006          	lfsr	2,6
 11238  00290C  5035               	movf	ringbuf_pop@rb,w,c
 11239  00290E  26D9               	addwf	fsr2l,f,c
 11240  002910  5036               	movf	ringbuf_pop@rb+1,w,c
 11241  002912  22DA               	addwfc	fsr2h,f,c
 11242  002914  2ADE               	incf	postinc2,f,c
 11243  002916  0E00               	movlw	0
 11244  002918  22DD               	addwfc	postdec2,f,c
 11245                           
 11246                           ;My_header\My_ringbuf.h: 69: } else {
 11247  00291A  D00B               	goto	i2l4998
 11248  00291C                     i2l4996:
 11249                           
 11250                           ;My_header\My_ringbuf.h: 70: rb->tail = 0;
 11251  00291C  EE20 F006          	lfsr	2,6
 11252  002920  5035               	movf	ringbuf_pop@rb,w,c
 11253  002922  26D9               	addwf	fsr2l,f,c
 11254  002924  5036               	movf	ringbuf_pop@rb+1,w,c
 11255  002926  22DA               	addwfc	fsr2h,f,c
 11256  002928  0E00               	movlw	0
 11257  00292A  6EDE               	movwf	postinc2,c
 11258  00292C  0E00               	movlw	0
 11259  00292E  6EDD               	movwf	postdec2,c
 11260  002930  D000               	goto	i2l4998
 11261  002932                     i2l4998:
 11262                           
 11263                           ;My_header\My_ringbuf.h: 71: }
 11264                           ;My_header\My_ringbuf.h: 72: return ret;
 11265  002932  503B               	movf	ringbuf_pop@ret,w,c
 11266                           
 11267                           ;My_header\My_ringbuf.h: 73: } else {
 11268  002934  0012               	return	
 11269  002936                     i2l5004:
 11270                           
 11271                           ;My_header\My_ringbuf.h: 74: return 0;
 11272  002936  0E00               	movlw	0
 11273  002938  0012               	return	
 11274  00293A  0012               	return		;funcret
 11275  00293C                     __end_of_ringbuf_pop:
 11276                           	opt stack 0
 11277                           pclatu	equ	0xFFB
 11278                           pclath	equ	0xFFA
 11279                           tblptru	equ	0xFF8
 11280                           tblptrh	equ	0xFF7
 11281                           tblptrl	equ	0xFF6
 11282                           tablat	equ	0xFF5
 11283                           prodh	equ	0xFF4
 11284                           prodl	equ	0xFF3
 11285                           intcon	equ	0xFF2
 11286                           intcon2	equ	0xFF1
 11287                           indf0	equ	0xFEF
 11288                           postinc0	equ	0xFEE
 11289                           fsr0h	equ	0xFEA
 11290                           fsr0l	equ	0xFE9
 11291                           wreg	equ	0xFE8
 11292                           indf1	equ	0xFE7
 11293                           postinc1	equ	0xFE6
 11294                           postdec1	equ	0xFE5
 11295                           fsr1h	equ	0xFE2
 11296                           fsr1l	equ	0xFE1
 11297                           indf2	equ	0xFDF
 11298                           postinc2	equ	0xFDE
 11299                           postdec2	equ	0xFDD
 11300                           plusw2	equ	0xFDB
 11301                           fsr2h	equ	0xFDA
 11302                           fsr2l	equ	0xFD9
 11303                           status	equ	0xFD8
 11304                           
 11305 ;; *************** function _ringbuf_num *****************
 11306 ;; Defined at:
 11307 ;;		line 31 in file "../My_header\My_ringbuf.h"
 11308 ;; Parameters:    Size  Location     Type
 11309 ;;  rb              2    0[COMRAM] PTR struct ringbuf
 11310 ;;		 -> rx_buf(8), tx_buf(8), 
 11311 ;; Auto vars:     Size  Location     Type
 11312 ;;		None
 11313 ;; Return value:  Size  Location     Type
 11314 ;;                  2    0[COMRAM] unsigned int 
 11315 ;; Registers used:
 11316 ;;		wreg, fsr1l, fsr1h, fsr2l, fsr2h, status,2, status,0
 11317 ;; Tracked objects:
 11318 ;;		On entry : 0/0
 11319 ;;		On exit  : 0/0
 11320 ;;		Unchanged: 0/0
 11321 ;; Data sizes:     COMRAM   BANK0   BANK1   BANK2   BANK3   BANK4   BANK5   BANK6   BANK7   BANK8   BANK9  BANK10  BANK1
      +1  BANK12  BANK13  BANK14
 11322 ;;      Params:         2       0       0       0       0       0       0       0       0       0       0       0       
      +0       0       0       0
 11323 ;;      Locals:         0       0       0       0       0       0       0       0       0       0       0       0       
      +0       0       0       0
 11324 ;;      Temps:          6       0       0       0       0       0       0       0       0       0       0       0       
      +0       0       0       0
 11325 ;;      Totals:         8       0       0       0       0       0       0       0       0       0       0       0       
      +0       0       0       0
 11326 ;;Total ram usage:        8 bytes
 11327 ;; Hardware stack levels used:    1
 11328 ;; This function calls:
 11329 ;;		Nothing
 11330 ;; This function is called by:
 11331 ;;		_ringbuf_put
 11332 ;;		_ringbuf_pop
 11333 ;;		_UART_ISR
 11334 ;;		_ringbuf_backspace
 11335 ;; This function uses a non-reentrant model
 11336 ;;
 11337                           
 11338                           	psect	text61
 11339  0025B0                     __ptext61:
 11340                           	opt stack 0
 11341  0025B0                     _ringbuf_num:
 11342                           	opt stack 21
 11343                           
 11344                           ;My_header\My_ringbuf.h: 32: if (rb->head >= rb->tail) {
 11345                           
 11346                           ;incstack = 0
 11347  0025B0  EE20 F006          	lfsr	2,6
 11348  0025B4  502D               	movf	ringbuf_num@rb,w,c
 11349  0025B6  26D9               	addwf	fsr2l,f,c
 11350  0025B8  502E               	movf	ringbuf_num@rb+1,w,c
 11351  0025BA  22DA               	addwfc	fsr2h,f,c
 11352  0025BC  EE10 F004          	lfsr	1,4
 11353  0025C0  502D               	movf	ringbuf_num@rb,w,c
 11354  0025C2  26E1               	addwf	fsr1l,f,c
 11355  0025C4  502E               	movf	ringbuf_num@rb+1,w,c
 11356  0025C6  22E2               	addwfc	fsr1h,f,c
 11357  0025C8  50DE               	movf	postinc2,w,c
 11358  0025CA  5CE6               	subwf	postinc1,w,c
 11359  0025CC  50DE               	movf	postinc2,w,c
 11360  0025CE  58E6               	subwfb	postinc1,w,c
 11361  0025D0  A0D8               	btfss	status,0,c
 11362  0025D2  D01F               	goto	i2l4666
 11363                           
 11364                           ;My_header\My_ringbuf.h: 33: return (rb->head - rb->tail);
 11365  0025D4  EE20 F004          	lfsr	2,4
 11366  0025D8  502D               	movf	ringbuf_num@rb,w,c
 11367  0025DA  26D9               	addwf	fsr2l,f,c
 11368  0025DC  502E               	movf	ringbuf_num@rb+1,w,c
 11369  0025DE  22DA               	addwfc	fsr2h,f,c
 11370  0025E0  CFDE F02F          	movff	postinc2,??_ringbuf_num
 11371  0025E4  CFDD F030          	movff	postdec2,??_ringbuf_num+1
 11372  0025E8  EE20 F006          	lfsr	2,6
 11373  0025EC  502D               	movf	ringbuf_num@rb,w,c
 11374  0025EE  26D9               	addwf	fsr2l,f,c
 11375  0025F0  502E               	movf	ringbuf_num@rb+1,w,c
 11376  0025F2  22DA               	addwfc	fsr2h,f,c
 11377  0025F4  CFDE F031          	movff	postinc2,??_ringbuf_num+2
 11378  0025F8  CFDD F032          	movff	postdec2,??_ringbuf_num+3
 11379  0025FC  1E31               	comf	??_ringbuf_num+2,f,c
 11380  0025FE  1E32               	comf	??_ringbuf_num+3,f,c
 11381  002600  4A31               	infsnz	??_ringbuf_num+2,f,c
 11382  002602  2A32               	incf	??_ringbuf_num+3,f,c
 11383  002604  502F               	movf	??_ringbuf_num,w,c
 11384  002606  2431               	addwf	??_ringbuf_num+2,w,c
 11385  002608  6E2D               	movwf	?_ringbuf_num,c
 11386  00260A  5030               	movf	??_ringbuf_num+1,w,c
 11387  00260C  2032               	addwfc	??_ringbuf_num+3,w,c
 11388  00260E  6E2E               	movwf	?_ringbuf_num+1,c
 11389                           
 11390                           ;My_header\My_ringbuf.h: 34: } else {
 11391  002610  0012               	return	
 11392  002612                     i2l4666:
 11393                           
 11394                           ;My_header\My_ringbuf.h: 35: return (rb->size + rb->head - rb->tail);
 11395  002612  EE20 F004          	lfsr	2,4
 11396  002616  502D               	movf	ringbuf_num@rb,w,c
 11397  002618  26D9               	addwf	fsr2l,f,c
 11398  00261A  502E               	movf	ringbuf_num@rb+1,w,c
 11399  00261C  22DA               	addwfc	fsr2h,f,c
 11400  00261E  CFDE F02F          	movff	postinc2,??_ringbuf_num
 11401  002622  CFDD F030          	movff	postdec2,??_ringbuf_num+1
 11402  002626  EE20 F002          	lfsr	2,2
 11403  00262A  502D               	movf	ringbuf_num@rb,w,c
 11404  00262C  26D9               	addwf	fsr2l,f,c
 11405  00262E  502E               	movf	ringbuf_num@rb+1,w,c
 11406  002630  22DA               	addwfc	fsr2h,f,c
 11407  002632  CFDE F031          	movff	postinc2,??_ringbuf_num+2
 11408  002636  CFDD F032          	movff	postdec2,??_ringbuf_num+3
 11409  00263A  EE20 F006          	lfsr	2,6
 11410  00263E  502D               	movf	ringbuf_num@rb,w,c
 11411  002640  26D9               	addwf	fsr2l,f,c
 11412  002642  502E               	movf	ringbuf_num@rb+1,w,c
 11413  002644  22DA               	addwfc	fsr2h,f,c
 11414  002646  CFDE F033          	movff	postinc2,??_ringbuf_num+4
 11415  00264A  CFDD F034          	movff	postdec2,??_ringbuf_num+5
 11416  00264E  1E33               	comf	??_ringbuf_num+4,f,c
 11417  002650  1E34               	comf	??_ringbuf_num+5,f,c
 11418  002652  4A33               	infsnz	??_ringbuf_num+4,f,c
 11419  002654  2A34               	incf	??_ringbuf_num+5,f,c
 11420  002656  5031               	movf	??_ringbuf_num+2,w,c
 11421  002658  2633               	addwf	??_ringbuf_num+4,f,c
 11422  00265A  5032               	movf	??_ringbuf_num+3,w,c
 11423  00265C  2234               	addwfc	??_ringbuf_num+5,f,c
 11424  00265E  502F               	movf	??_ringbuf_num,w,c
 11425  002660  2433               	addwf	??_ringbuf_num+4,w,c
 11426  002662  6E2D               	movwf	?_ringbuf_num,c
 11427  002664  5030               	movf	??_ringbuf_num+1,w,c
 11428  002666  2034               	addwfc	??_ringbuf_num+5,w,c
 11429  002668  6E2E               	movwf	?_ringbuf_num+1,c
 11430  00266A  0012               	return	
 11431  00266C  0012               	return		;funcret
 11432  00266E                     __end_of_ringbuf_num:
 11433                           	opt stack 0
 11434                           pclatu	equ	0xFFB
 11435                           pclath	equ	0xFFA
 11436                           tblptru	equ	0xFF8
 11437                           tblptrh	equ	0xFF7
 11438                           tblptrl	equ	0xFF6
 11439                           tablat	equ	0xFF5
 11440                           prodh	equ	0xFF4
 11441                           prodl	equ	0xFF3
 11442                           intcon	equ	0xFF2
 11443                           intcon2	equ	0xFF1
 11444                           indf0	equ	0xFEF
 11445                           postinc0	equ	0xFEE
 11446                           fsr0h	equ	0xFEA
 11447                           fsr0l	equ	0xFE9
 11448                           wreg	equ	0xFE8
 11449                           indf1	equ	0xFE7
 11450                           postinc1	equ	0xFE6
 11451                           postdec1	equ	0xFE5
 11452                           fsr1h	equ	0xFE2
 11453                           fsr1l	equ	0xFE1
 11454                           indf2	equ	0xFDF
 11455                           postinc2	equ	0xFDE
 11456                           postdec2	equ	0xFDD
 11457                           plusw2	equ	0xFDB
 11458                           fsr2h	equ	0xFDA
 11459                           fsr2l	equ	0xFD9
 11460                           status	equ	0xFD8
 11461                           pclatu	equ	0xFFB
 11462                           pclath	equ	0xFFA
 11463                           tblptru	equ	0xFF8
 11464                           tblptrh	equ	0xFF7
 11465                           tblptrl	equ	0xFF6
 11466                           tablat	equ	0xFF5
 11467                           prodh	equ	0xFF4
 11468                           prodl	equ	0xFF3
 11469                           intcon	equ	0xFF2
 11470                           intcon2	equ	0xFF1
 11471                           indf0	equ	0xFEF
 11472                           postinc0	equ	0xFEE
 11473                           fsr0h	equ	0xFEA
 11474                           fsr0l	equ	0xFE9
 11475                           wreg	equ	0xFE8
 11476                           indf1	equ	0xFE7
 11477                           postinc1	equ	0xFE6
 11478                           postdec1	equ	0xFE5
 11479                           fsr1h	equ	0xFE2
 11480                           fsr1l	equ	0xFE1
 11481                           indf2	equ	0xFDF
 11482                           postinc2	equ	0xFDE
 11483                           postdec2	equ	0xFDD
 11484                           plusw2	equ	0xFDB
 11485                           fsr2h	equ	0xFDA
 11486                           fsr2l	equ	0xFD9
 11487                           status	equ	0xFD8
 11488                           
 11489                           	psect	rparam
 11490  0000                     pclatu	equ	0xFFB
 11491                           pclath	equ	0xFFA
 11492                           tblptru	equ	0xFF8
 11493                           tblptrh	equ	0xFF7
 11494                           tblptrl	equ	0xFF6
 11495                           tablat	equ	0xFF5
 11496                           prodh	equ	0xFF4
 11497                           prodl	equ	0xFF3
 11498                           intcon	equ	0xFF2
 11499                           intcon2	equ	0xFF1
 11500                           indf0	equ	0xFEF
 11501                           postinc0	equ	0xFEE
 11502                           fsr0h	equ	0xFEA
 11503                           fsr0l	equ	0xFE9
 11504                           wreg	equ	0xFE8
 11505                           indf1	equ	0xFE7
 11506                           postinc1	equ	0xFE6
 11507                           postdec1	equ	0xFE5
 11508                           fsr1h	equ	0xFE2
 11509                           fsr1l	equ	0xFE1
 11510                           indf2	equ	0xFDF
 11511                           postinc2	equ	0xFDE
 11512                           postdec2	equ	0xFDD
 11513                           plusw2	equ	0xFDB
 11514                           fsr2h	equ	0xFDA
 11515                           fsr2l	equ	0xFD9
 11516                           status	equ	0xFD8


Data Sizes:
    Strings     15
    Constant    229
    Data        3
    BSS         268
    Persistent  0
    Stack       0

Auto Spaces:
    Space          Size  Autos    Used
    COMRAM           95     44      88
    BANK0           160     20      64
    BANK1           256    200     255
    BANK2           256    200     200
    BANK3           256    102     230
    BANK4           256      0       0
    BANK5           256      0       0
    BANK6           256      0       0
    BANK7           256      0       0
    BANK8           256      0       0
    BANK9           256      0       0
    BANK10          256      0       0
    BANK11          256      0       0
    BANK12          256      0       0
    BANK13          192      0       0
    BANK14          176      0       0

Pointer List with Targets:

    USER_USB_CALLBACK_EVENT_HANDLER@pdata	PTR void  size(2) Largest target is 48
		 -> USTATcopy(COMRAM[1]), USBActiveConfiguration(COMRAM[1]), NULL(NULL[0]), BDT(BIGRAMl[48]), 

    memset@p1	PTR void  size(2) Largest target is 48
		 -> USBAlternateInterface(BANK0[2]), BDT(BIGRAMl[48]), UEP1(SFR_1[1]), 

    memset@p	PTR unsigned char  size(2) Largest target is 48
		 -> USBAlternateInterface(BANK0[2]), BDT(BIGRAMl[48]), UEP1(SFR_1[1]), 

    putUSBUSART@data	PTR unsigned char  size(2) Largest target is 100
		 -> main@str(BANK3[100]), 

    getsUSBUSART@buffer	PTR unsigned char  size(2) Largest target is 100
		 -> main@str(BANK3[100]), 

    CDCDataInHandle	PTR void  size(2) Largest target is 48
		 -> NULL(NULL[0]), BDT(BIGRAMl[48]), 

    CDCDataOutHandle	PTR void  size(2) Largest target is 48
		 -> NULL(NULL[0]), BDT(BIGRAMl[48]), 

    pCDCDst.wRom	PTR const unsigned int  size(2) Largest target is 0

    pCDCDst.bRom	PTR const unsigned char  size(2) Largest target is 0

    pCDCDst.wRam	PTR unsigned int  size(2) Largest target is 0

    pCDCDst.bRam	PTR unsigned char  size(2) Largest target is 0

    S3570_POINTER$wRom	PTR const unsigned int  size(2) Largest target is 0

    pCDCSrc.wRom	PTR const unsigned int  size(2) Largest target is 0

    S3570_POINTER$bRom	PTR const unsigned char  size(2) Largest target is 0

    pCDCSrc.bRom	PTR const unsigned char  size(2) Largest target is 0

    S3570_POINTER$wRam	PTR unsigned int  size(2) Largest target is 0

    pCDCSrc.wRam	PTR unsigned int  size(2) Largest target is 0

    S3570_POINTER$bRam	PTR unsigned char  size(2) Largest target is 0

    pCDCSrc.bRam	PTR unsigned char  size(2) Largest target is 0

    USBStdFeatureReqHandler@pUEP	PTR unsigned char  size(2) Largest target is 1
		 -> UEP0(SFR_1[1]), 

    USBStdFeatureReqHandler@p	PTR struct __BDT size(2) Largest target is 48
		 -> NULL(NULL[0]), BDT(BIGRAMl[48]), 

    USBStdGetStatusHandler@p	PTR struct __BDT size(2) Largest target is 48
		 -> NULL(NULL[0]), BDT(BIGRAMl[48]), 

    USB_SD_Ptr	const PTR const unsigned char [3] size(2) Largest target is 52
		 -> sd002(CODE[52]), sd001(CODE[52]), sd000(CODE[4]), 

    USB_CD_Ptr	const PTR const unsigned char [1] size(2) Largest target is 67
		 -> configDescriptor1(CODE[67]), 

    pDst	PTR volatile unsigned char  size(2) Largest target is 8
		 -> CtrlTrfData(BIGRAMh[8]), NULL(NULL[0]), 

    USBConfigureEndpoint@handle	PTR volatile struct __BDT size(2) Largest target is 48
		 -> BDT(BIGRAMl[48]), 

    pBDTEntryEP0OutCurrent	PTR volatile struct __BDT size(2) Largest target is 48
		 -> NULL(NULL[0]), BDT(BIGRAMl[48]), 

    pBDTEntryEP0OutNext	PTR volatile struct __BDT size(2) Largest target is 48
		 -> NULL(NULL[0]), BDT(BIGRAMl[48]), 

    USBTransferOnePacket@data	PTR unsigned char  size(2) Largest target is 64
		 -> cdc_data_tx(BANK3[64]), cdc_data_rx(BANK3[64]), NULL(NULL[0]), 

    sp__USBTransferOnePacket	PTR void  size(2) Largest target is 48
		 -> NULL(NULL[0]), BDT(BIGRAMl[48]), 

    USBTransferOnePacket@handle	PTR volatile struct __BDT size(2) Largest target is 48
		 -> NULL(NULL[0]), BDT(BIGRAMl[48]), 

    USBEnableEndpoint@p	PTR unsigned char  size(2) Largest target is 1
		 -> UEP0(SFR_1[1]), 

    pBDTEntryOut	PTR volatile struct __BDT[3] size(2) Largest target is 48
		 -> NULL(NULL[0]), BDT(BIGRAMl[48]), 

    pBDTEntryIn	PTR volatile struct __BDT[3] size(2) Largest target is 48
		 -> NULL(NULL[0]), BDT(BIGRAMl[48]), 

    S2303$pFunc	PTR FTN()void  size(3) Largest target is 0
		 -> Absolute function(), 

    outPipes.pFunc	PTR FTN()void  size(3) Largest target is 0
		 -> Absolute function(), 

    S2293$wRam	PTR unsigned int  size(2) Largest target is 0

    outPipes.pDst.wRam	PTR unsigned int  size(2) Largest target is 0

    S2293$bRam	PTR unsigned char  size(2) Largest target is 0

    outPipes.pDst.bRam	PTR unsigned char  size(2) Largest target is 0

    S2269$wRom	PTR const unsigned int  size(2) Largest target is 0

    inPipes.pSrc.wRom	PTR const unsigned int  size(2) Largest target is 0

    S2269$wRam	PTR unsigned int  size(2) Largest target is 0

    inPipes.pSrc.wRam	PTR unsigned int  size(2) Largest target is 0

    S2269$bRom	PTR const unsigned char  size(2) Largest target is 0

    inPipes.pSrc.bRom	PTR const unsigned char  size(2) Largest target is 0

    S2269$bRam	PTR unsigned char  size(2) Largest target is 0

    inPipes.pSrc.bRam	PTR unsigned char  size(2) Largest target is 0

    sp__memset	PTR void  size(2) Largest target is 48
		 -> USBAlternateInterface(BANK0[2]), BDT(BIGRAMl[48]), UEP1(SFR_1[1]), 

    get_string_usb@s	PTR unsigned char  size(2) Largest target is 100
		 -> main@str(BANK3[100]), 

    put_string_usb@s	PTR unsigned char  size(2) Largest target is 100
		 -> main@str(BANK3[100]), 

    I2C_LCD_Puts@s	PTR const unsigned char  size(2) Largest target is 28
		 -> STR_3(CODE[6]), STR_2(CODE[6]), weekday_3char(CODE[28]), STR_1(CODE[3]), 
		 -> display_dec@str(COMRAM[10]), 

    rx_buf.buf	PTR unsigned char  size(2) Largest target is 200
		 -> main_init@rxbuf(BANK2[200]), main_init@txbuf(BANK1[200]), 

    tx_buf.buf	PTR unsigned char  size(2) Largest target is 200
		 -> main_init@rxbuf(BANK2[200]), main_init@txbuf(BANK1[200]), 

    ringbuf_delete@rb.buf	PTR unsigned char  size(2) Largest target is 200
		 -> main_init@rxbuf(BANK2[200]), main_init@txbuf(BANK1[200]), 

    ringbuf_backspace@rb.buf	PTR unsigned char  size(2) Largest target is 200
		 -> main_init@rxbuf(BANK2[200]), main_init@txbuf(BANK1[200]), 

    ringbuf_pop@rb.buf	PTR unsigned char  size(2) Largest target is 200
		 -> main_init@rxbuf(BANK2[200]), main_init@txbuf(BANK1[200]), 

    ringbuf_pop@rb	PTR struct ringbuf size(2) Largest target is 9
		 -> tx_buf(BANK1[8]), 

    ringbuf_put@rb.buf	PTR unsigned char  size(2) Largest target is 200
		 -> main_init@rxbuf(BANK2[200]), main_init@txbuf(BANK1[200]), 

    ringbuf_put@rb	PTR struct ringbuf size(2) Largest target is 9
		 -> rx_buf(BANK1[8]), tx_buf(BANK1[8]), 

    ringbuf_num@rb.buf	PTR unsigned char  size(2) Largest target is 200
		 -> main_init@rxbuf(BANK2[200]), main_init@txbuf(BANK1[200]), 

    ringbuf_num@rb	PTR struct ringbuf size(2) Largest target is 9
		 -> rx_buf(BANK1[8]), tx_buf(BANK1[8]), 

    S790ringbuf$buf	PTR unsigned char  size(2) Largest target is 200
		 -> main_init@rxbuf(BANK2[200]), main_init@txbuf(BANK1[200]), 

    ringbuf_init@rb.buf	PTR unsigned char  size(2) Largest target is 200
		 -> main_init@rxbuf(BANK2[200]), main_init@txbuf(BANK1[200]), 

    ringbuf_init@internal_buf	PTR unsigned char  size(2) Largest target is 200
		 -> main_init@rxbuf(BANK2[200]), main_init@txbuf(BANK1[200]), 

    ringbuf_init@rb	PTR struct ringbuf size(2) Largest target is 9
		 -> rx_buf(BANK1[8]), tx_buf(BANK1[8]), 


Critical Paths under _main in COMRAM

    None.

Critical Paths under _ISR in COMRAM

    _ISR->_USBDeviceTasks
    _USBDeviceTasks->_USBCtrlEPService
    i2_USBDeviceInit->i2_memset
    _USBWakeFromSuspend->_USER_USB_CALLBACK_EVENT_HANDLER
    _USBSuspend->_USER_USB_CALLBACK_EVENT_HANDLER
    _USBCtrlEPAllowDataStage->_USBCtrlTrfTxService
    _USBCheckStdRequest->_USBStdFeatureReqHandler
    _USBStdSetCfgHandler->_USER_USB_CALLBACK_EVENT_HANDLER
    _USBStdFeatureReqHandler->_USER_USB_CALLBACK_EVENT_HANDLER
    _CDCInitEP->_USBEnableEndpoint
    _USBEnableEndpoint->_USBConfigureEndpoint
    _USBCtrlTrfOutHandler->_USBCtrlTrfRxService
    _USBCtrlTrfInHandler->_USBCtrlTrfTxService
    _UART_ISR->_ringbuf_pop
    _UART_ISR->_ringbuf_put
    _ringbuf_put->_ringbuf_num
    _ringbuf_pop->_ringbuf_num

Critical Paths under _main in BANK0

    _main->_get_string_usb
    _put_string_usb->_CDCTxService
    _I2C_LCD_init->_I2C_LCD_Clear
    _I2C_LCD_Clear->_I2C_LCD_Command
    _get_string_usb->_getsUSBUSART
    _getsUSBUSART->_USBTransferOnePacket
    _CDCTxService->_USBTransferOnePacket
    _USB_init->_USBDeviceInit
    _USBDeviceInit->_memset
    _I2C_LCD_SetCursor->_I2C_LCD_Command
    _I2C_LCD_Command->_I2C_Start
    _I2C_LCD_Puts->_I2C_Start
    _I2C_Stop->_I2C_IdleCheck
    _I2C_Start->_I2C_IdleCheck
    _I2C_Send->_I2C_IdleCheck

Critical Paths under _ISR in BANK0

    None.

Critical Paths under _main in BANK1

    _main->_main_init

Critical Paths under _ISR in BANK1

    None.

Critical Paths under _main in BANK2

    _main->_main_init

Critical Paths under _ISR in BANK2

    None.

Critical Paths under _main in BANK3

    None.

Critical Paths under _ISR in BANK3

    None.

Critical Paths under _main in BANK4

    None.

Critical Paths under _ISR in BANK4

    None.

Critical Paths under _main in BANK5

    None.

Critical Paths under _ISR in BANK5

    None.

Critical Paths under _main in BANK6

    None.

Critical Paths under _ISR in BANK6

    None.

Critical Paths under _main in BANK7

    None.

Critical Paths under _ISR in BANK7

    None.

Critical Paths under _main in BANK8

    None.

Critical Paths under _ISR in BANK8

    None.

Critical Paths under _main in BANK9

    None.

Critical Paths under _ISR in BANK9

    None.

Critical Paths under _main in BANK10

    None.

Critical Paths under _ISR in BANK10

    None.

Critical Paths under _main in BANK11

    None.

Critical Paths under _ISR in BANK11

    None.

Critical Paths under _main in BANK12

    None.

Critical Paths under _ISR in BANK12

    None.

Critical Paths under _main in BANK13

    None.

Critical Paths under _ISR in BANK13

    None.

Critical Paths under _main in BANK14

    None.

Critical Paths under _ISR in BANK14

    None.

Call Graph Tables:

 ---------------------------------------------------------------------------------
 (Depth) Function   	        Calls       Base Space   Used Autos Params    Refs
 ---------------------------------------------------------------------------------
 (0) _main                                               102   102      0   14484
                                              0 BANK3    102   102      0
                       _I2C_LCD_Puts
                  _I2C_LCD_SetCursor
                           _USB_init
                     _get_string_usb
                          _main_init
                     _put_string_usb
 ---------------------------------------------------------------------------------
 (1) _put_string_usb                                       4     0      4    2741
                                             12 BANK0      4     0      4
                       _CDCTxService
                   _is_usb_available
                        _putUSBUSART
 ---------------------------------------------------------------------------------
 (2) _putUSBUSART                                          3     0      3     270
                                              0 BANK0      3     0      3
 ---------------------------------------------------------------------------------
 (1) _main_init                                          400   400      0    2753
                                              0 BANK1    200   200      0
                                              0 BANK2    200   200      0
                          _CTMU_init
                       _I2C_LCD_init
                           _I2C_init
                          _RTCC_init
                          _UART_init
                       _ringbuf_init
                        _timer0_init
                        _timer1_init
                        _timer3_init
 ---------------------------------------------------------------------------------
 (2) _timer3_init                                          2     2      0      31
                                              0 BANK0      2     2      0
 ---------------------------------------------------------------------------------
 (2) _timer1_init                                          3     2      1     197
                                              0 BANK0      3     2      1
 ---------------------------------------------------------------------------------
 (2) _timer0_init                                          2     2      0      62
                                              0 BANK0      2     2      0
 ---------------------------------------------------------------------------------
 (2) _ringbuf_init                                         6     0      6     810
                                              0 BANK0      6     0      6
 ---------------------------------------------------------------------------------
 (2) _UART_init                                            0     0      0       0
 ---------------------------------------------------------------------------------
 (2) _RTCC_init                                            0     0      0       0
 ---------------------------------------------------------------------------------
 (2) _I2C_init                                             0     0      0       0
 ---------------------------------------------------------------------------------
 (2) _I2C_LCD_init                                         0     0      0    1573
                           _Delay_ms
                      _I2C_LCD_Clear
                    _I2C_LCD_Command
 ---------------------------------------------------------------------------------
 (3) _I2C_LCD_Clear                                        1     1      0     667
                                              6 BANK0      1     1      0
                    _I2C_LCD_Command
 ---------------------------------------------------------------------------------
 (3) _Delay_ms                                             3     1      2     239
                                              0 BANK0      3     1      2
 ---------------------------------------------------------------------------------
 (2) _CTMU_init                                            0     0      0       0
 ---------------------------------------------------------------------------------
 (1) _get_string_usb                                       7     3      4    4772
                                             13 BANK0      7     3      4
                       _CDCTxService
                       _getsUSBUSART
                   _is_usb_available
 ---------------------------------------------------------------------------------
 (2) _is_usb_available                                     1     1      0      37
                                              0 BANK0      1     1      0
 ---------------------------------------------------------------------------------
 (2) _getsUSBUSART                                         6     3      3    2267
                                              7 BANK0      6     3      3
               _USBTransferOnePacket
 ---------------------------------------------------------------------------------
 (2) _CDCTxService                                         5     5      0    2164
                                              7 BANK0      5     5      0
               _USBTransferOnePacket
 ---------------------------------------------------------------------------------
 (3) _USBTransferOnePacket                                 7     3      4    1926
                                              0 BANK0      7     3      4
 ---------------------------------------------------------------------------------
 (1) _USB_init                                             0     0      0    1361
                    _USBDeviceAttach
                      _USBDeviceInit
 ---------------------------------------------------------------------------------
 (2) _USBDeviceInit                                        1     1      0    1361
                                              8 BANK0      1     1      0
                             _memset
 ---------------------------------------------------------------------------------
 (3) _memset                                               8     2      6    1070
                                              0 BANK0      8     2      6
 ---------------------------------------------------------------------------------
 (2) _USBDeviceAttach                                      0     0      0       0
 ---------------------------------------------------------------------------------
 (1) _I2C_LCD_SetCursor                                    4     3      1    1390
                                              6 BANK0      4     3      1
                    _I2C_LCD_Command
 ---------------------------------------------------------------------------------
 (3) _I2C_LCD_Command                                      2     2      0     667
                                              4 BANK0      2     2      0
                           _I2C_Send
                          _I2C_Start
                           _I2C_Stop
 ---------------------------------------------------------------------------------
 (1) _I2C_LCD_Puts                                         5     3      2    1325
                                              4 BANK0      5     3      2
                           _I2C_Send
                          _I2C_Start
                           _I2C_Stop
 ---------------------------------------------------------------------------------
 (4) _I2C_Stop                                             0     0      0      31
                      _I2C_IdleCheck
 ---------------------------------------------------------------------------------
 (4) _I2C_Start                                            2     1      1     509
                                              2 BANK0      2     1      1
                      _I2C_IdleCheck
 ---------------------------------------------------------------------------------
 (4) _I2C_Send                                             1     1      0      62
                                              2 BANK0      1     1      0
                      _I2C_IdleCheck
 ---------------------------------------------------------------------------------
 (5) _I2C_IdleCheck                                        2     2      0      31
                                              0 BANK0      2     2      0
 ---------------------------------------------------------------------------------
 Estimated maximum stack depth 5
 ---------------------------------------------------------------------------------
 (Depth) Function   	        Calls       Base Space   Used Autos Params    Refs
 ---------------------------------------------------------------------------------
 (7) _ISR                                                 14    14      0   31724
                                             30 COMRAM    14    14      0
                           _UART_ISR
                     _USBDeviceTasks
 ---------------------------------------------------------------------------------
 (8) _USBDeviceTasks                                       1     1      0   28817
                                             29 COMRAM     1     1      0
          _USBCtrlEPAllowStatusStage
                   _USBCtrlEPService
                    _USBStallHandler
                         _USBSuspend
                 _USBWakeFromSuspend
    _USER_USB_CALLBACK_EVENT_HANDLER
                    i2_USBDeviceInit
 ---------------------------------------------------------------------------------
 (9) i2_USBDeviceInit                                      1     1      0     610
                                              8 COMRAM     1     1      0
                           i2_memset
 ---------------------------------------------------------------------------------
 (9) _USBWakeFromSuspend                                   0     0      0    3835
    _USER_USB_CALLBACK_EVENT_HANDLER
 ---------------------------------------------------------------------------------
 (9) _USBSuspend                                           0     0      0    3835
    _USER_USB_CALLBACK_EVENT_HANDLER
 ---------------------------------------------------------------------------------
 (9) _USBStallHandler                                      1     1      0       0
                                              0 COMRAM     1     1      0
 ---------------------------------------------------------------------------------
 (9) _USBCtrlEPService                                     3     3      0   16656
                                             26 COMRAM     3     3      0
                _USBCtrlTrfInHandler
               _USBCtrlTrfOutHandler
             _USBCtrlTrfSetupHandler
 ---------------------------------------------------------------------------------
 (10) _USBCtrlTrfSetupHandler                              0     0      0   16359
                 _USBCheckStdRequest
           _USBCtrlEPServiceComplete
    _USER_USB_CALLBACK_EVENT_HANDLER
 ---------------------------------------------------------------------------------
 (11) _USBCtrlEPServiceComplete                            0     0      0      92
            _USBCtrlEPAllowDataStage
          _USBCtrlEPAllowStatusStage
 ---------------------------------------------------------------------------------
 (12) _USBCtrlEPAllowDataStage                             0     0      0      92
                _USBCtrlTrfTxService
 ---------------------------------------------------------------------------------
 (11) _USBCheckStdRequest                                  0     0      0   12432
            _USBStdFeatureReqHandler
                _USBStdGetDscHandler
             _USBStdGetStatusHandler
                _USBStdSetCfgHandler
    _USER_USB_CALLBACK_EVENT_HANDLER
 ---------------------------------------------------------------------------------
 (12) _USBStdSetCfgHandler                                 1     1      0    4333
                                             20 COMRAM     1     1      0
    _USER_USB_CALLBACK_EVENT_HANDLER
                           i2_memset
 ---------------------------------------------------------------------------------
 (10) i2_memset                                            8     2      6     408
                                              0 COMRAM     8     2      6
 ---------------------------------------------------------------------------------
 (12) _USBStdGetStatusHandler                              3     3      0      46
                                              0 COMRAM     3     3      0
 ---------------------------------------------------------------------------------
 (12) _USBStdGetDscHandler                                 2     2      0       0
                                              0 COMRAM     2     2      0
 ---------------------------------------------------------------------------------
 (12) _USBStdFeatureReqHandler                             6     6      0    4218
                                             20 COMRAM     6     6      0
    _USER_USB_CALLBACK_EVENT_HANDLER
 ---------------------------------------------------------------------------------
 (9) _USER_USB_CALLBACK_EVENT_HANDLER                      8     2      6    3835
                                             12 COMRAM     8     2      6
                          _CDCInitEP
                 _USBCheckCDCRequest
 ---------------------------------------------------------------------------------
 (10) _USBCheckCDCRequest                                  0     0      0       0
 ---------------------------------------------------------------------------------
 (10) _CDCInitEP                                           0     0      0    1143
                  _USBEnableEndpoint
             i2_USBTransferOnePacket
 ---------------------------------------------------------------------------------
 (11) i2_USBTransferOnePacket                              7     3      4     410
                                              0 COMRAM     7     3      4
 ---------------------------------------------------------------------------------
 (11) _USBEnableEndpoint                                   4     3      1     733
                                              8 COMRAM     4     3      1
               _USBConfigureEndpoint
 ---------------------------------------------------------------------------------
 (12) _USBConfigureEndpoint                                8     7      1     400
                                              0 COMRAM     8     7      1
 ---------------------------------------------------------------------------------
 (10) _USBCtrlTrfOutHandler                                0     0      0     114
                _USBCtrlTrfRxService
 ---------------------------------------------------------------------------------
 (11) _USBCtrlTrfRxService                                 2     2      0     114
                                              0 COMRAM     2     2      0
          _USBCtrlEPAllowStatusStage
 ---------------------------------------------------------------------------------
 (12) _USBCtrlEPAllowStatusStage                           0     0      0       0
 ---------------------------------------------------------------------------------
 (10) _USBCtrlTrfInHandler                                 1     1      0     115
                                              1 COMRAM     1     1      0
                _USBCtrlTrfTxService
 ---------------------------------------------------------------------------------
 (13) _USBCtrlTrfTxService                                 1     1      0      92
                                              0 COMRAM     1     1      0
 ---------------------------------------------------------------------------------
 (8) _UART_ISR                                             1     1      0    2907
                                             15 COMRAM     1     1      0
                        _ringbuf_num
                        _ringbuf_pop
                        _ringbuf_put
 ---------------------------------------------------------------------------------
 (9) _ringbuf_put                                          7     4      3    1598
                                              8 COMRAM     7     4      3
                        _ringbuf_num
 ---------------------------------------------------------------------------------
 (9) _ringbuf_pop                                          7     5      2     776
                                              8 COMRAM     7     5      2
                        _ringbuf_num
 ---------------------------------------------------------------------------------
 (10) _ringbuf_num                                         8     6      2     510
                                              0 COMRAM     8     6      2
 ---------------------------------------------------------------------------------
 Estimated maximum stack depth 13
 ---------------------------------------------------------------------------------

 Call Graph Graphs:

 _main (ROOT)
   _I2C_LCD_Puts
     _I2C_Send
       _I2C_IdleCheck
     _I2C_Start
       _I2C_IdleCheck
     _I2C_Stop
       _I2C_IdleCheck
   _I2C_LCD_SetCursor
     _I2C_LCD_Command
       _I2C_Send
         _I2C_IdleCheck
       _I2C_Start
         _I2C_IdleCheck
       _I2C_Stop
         _I2C_IdleCheck
   _USB_init
     _USBDeviceAttach
     _USBDeviceInit
       _memset
   _get_string_usb
     _CDCTxService
       _USBTransferOnePacket
     _getsUSBUSART
       _USBTransferOnePacket
     _is_usb_available
   _main_init
     _CTMU_init
     _I2C_LCD_init
       _Delay_ms
       _I2C_LCD_Clear
         _I2C_LCD_Command
           _I2C_Send
             _I2C_IdleCheck
           _I2C_Start
             _I2C_IdleCheck
           _I2C_Stop
             _I2C_IdleCheck
       _I2C_LCD_Command
         _I2C_Send
           _I2C_IdleCheck
         _I2C_Start
           _I2C_IdleCheck
         _I2C_Stop
           _I2C_IdleCheck
     _I2C_init
     _RTCC_init
     _UART_init
     _ringbuf_init
     _timer0_init
     _timer1_init
     _timer3_init
   _put_string_usb
     _CDCTxService
       _USBTransferOnePacket
     _is_usb_available
     _putUSBUSART

 _ISR (ROOT)
   _UART_ISR
     _ringbuf_num
     _ringbuf_pop
       _ringbuf_num
     _ringbuf_put
       _ringbuf_num
   _USBDeviceTasks
     _USBCtrlEPAllowStatusStage
     _USBCtrlEPService
       _USBCtrlTrfInHandler
         _USBCtrlTrfTxService
       _USBCtrlTrfOutHandler
         _USBCtrlTrfRxService
           _USBCtrlEPAllowStatusStage
       _USBCtrlTrfSetupHandler
         _USBCheckStdRequest
           _USBStdFeatureReqHandler
             _USER_USB_CALLBACK_EVENT_HANDLER
               _CDCInitEP
                 _USBEnableEndpoint
                   _USBConfigureEndpoint
                 i2_USBTransferOnePacket
               _USBCheckCDCRequest
           _USBStdGetDscHandler
           _USBStdGetStatusHandler
           _USBStdSetCfgHandler
             _USER_USB_CALLBACK_EVENT_HANDLER
               _CDCInitEP
                 _USBEnableEndpoint
                   _USBConfigureEndpoint
                 i2_USBTransferOnePacket
               _USBCheckCDCRequest
             i2_memset
           _USER_USB_CALLBACK_EVENT_HANDLER
             _CDCInitEP
               _USBEnableEndpoint
                 _USBConfigureEndpoint
               i2_USBTransferOnePacket
             _USBCheckCDCRequest
         _USBCtrlEPServiceComplete
           _USBCtrlEPAllowDataStage
             _USBCtrlTrfTxService
           _USBCtrlEPAllowStatusStage
         _USER_USB_CALLBACK_EVENT_HANDLER
           _CDCInitEP
             _USBEnableEndpoint
               _USBConfigureEndpoint
             i2_USBTransferOnePacket
           _USBCheckCDCRequest
     _USBStallHandler
     _USBSuspend
       _USER_USB_CALLBACK_EVENT_HANDLER
         _CDCInitEP
           _USBEnableEndpoint
             _USBConfigureEndpoint
           i2_USBTransferOnePacket
         _USBCheckCDCRequest
     _USBWakeFromSuspend
       _USER_USB_CALLBACK_EVENT_HANDLER
         _CDCInitEP
           _USBEnableEndpoint
             _USBConfigureEndpoint
           i2_USBTransferOnePacket
         _USBCheckCDCRequest
     _USER_USB_CALLBACK_EVENT_HANDLER
       _CDCInitEP
         _USBEnableEndpoint
           _USBConfigureEndpoint
         i2_USBTransferOnePacket
       _USBCheckCDCRequest
     i2_USBDeviceInit
       i2_memset

 Address spaces:
Name               Size   Autos  Total    Cost      Usage
BIGRAMl            CFF      0       0      36        0.0%
BIGRAMh            170      0       0      35        0.0%
BITBANK12          100      0       0      29        0.0%
BANK12             100      0       0      30        0.0%
BITBANK11          100      0       0      27        0.0%
BANK11             100      0       0      28        0.0%
BITBANK10          100      0       0      25        0.0%
BANK10             100      0       0      26        0.0%
BITBANK9           100      0       0      23        0.0%
BANK9              100      0       0      24        0.0%
BITBANK8           100      0       0      21        0.0%
BANK8              100      0       0      22        0.0%
BITBANK7           100      0       0      19        0.0%
BANK7              100      0       0      20        0.0%
BITBANK6           100      0       0      17        0.0%
BANK6              100      0       0      18        0.0%
BITBANK5           100      0       0      15        0.0%
BANK5              100      0       0      16        0.0%
BITBANK4           100      0       0      13        0.0%
BANK4              100      0       0      14        0.0%
BITBANK3           100      0       0      11        0.0%
BANK3              100     66      E6      12       89.8%
BITBANK2           100      0       0       9        0.0%
BANK2              100     C8      C8      10       78.1%
BITBANK1           100      0       0       6        0.0%
BANK1              100     C8      FF       7       99.6%
BITBANK13           C0      0       0      31        0.0%
BANK13              C0      0       0      32        0.0%
BITBANK14           B0      0       0      33        0.0%
BANK14              B0      0       0      34        0.0%
BITBANK0            A0      0       0       4        0.0%
BANK0               A0     14      40       5       40.0%
BITCOMRAM           5F      0       0       0        0.0%
COMRAM              5F     2C      58       1       92.6%
BITSFR_2             0      0       0      40        0.0%
SFR_2                0      0       0      40        0.0%
BITSFR_1             0      0       0      40        0.0%
SFR_1                0      0       0      40        0.0%
BITSFR               0      0       0      40        0.0%
SFR                  0      0       0      40        0.0%
STACK                0      0       0       2        0.0%
NULL                 0      0       0       0        0.0%
ABS                  0      0     345       8        0.0%
DATA                 0      0     345       3        0.0%
CODE                 0      0       0       0        0.0%


Microchip Technology PIC18 Macro Assembler V1.34 build -361300703 
Symbol Table                                                                                   Sat Jul 18 21:53:09 2015

                         get_string_usb@s 0096                                _USB_SD_Ptr 1101  
                      __size_of_I2C_Start 0034                                        _d1 01D6  
                           _USBDeviceInit 178E                        __size_of_CDCInitEP 0070  
                            __CFG_CP0$OFF 000000      USER_USB_CALLBACK_EVENT_HANDLER@event 0039  
    USER_USB_CALLBACK_EVENT_HANDLER@pdata 003B                                       l122 2E6E  
                                     l117 2FCC                                       l302 3300  
                                     l311 3056               __end_of_USBStdGetDscHandler 1B5A  
                                     l287 30BA                                       l808 301E  
                                     l809 301C                                       l586 32E6  
                                     l747 1804                                       _BDT 000D00  
                                     _ISR 1008                                       _UIE 000F36  
                                     _UIR 000F62                         get_string_usb@len 0098  
                              _USBSuspend 3214                      USBStdSetCfgHandler@i 0041  
                                     prod 000FF3                                       wreg 000FE8  
                          _USBDeviceTasks 162A                                _TXSTA1bits 000FAD  
                          _USBDeviceState 001A                     ??_USBCtrlTrfRxService 002D  
                            _I2C_LCD_Puts 2B0C                  __size_ofi2_USBDeviceInit 013C  
                          ??_getsUSBUSART 0093                  USBEnableEndpoint@options 0035  
                       ??_I2C_LCD_Command 008D                                      ?_ISR 002D  
                  __end_of_get_string_usb 2E44                              _I2C_LCD_init 2CF0  
                                    l1110 1544                                      l1105 14E8  
              USBConfigureEndpoint@handle 0033                                      l6302 3162  
                                    l6312 306C                                      l6304 3176  
                                    l6330 2074                                      l6322 203E  
                                    l6316 3080                                      l6500 1850  
                                    l6324 205A                                      l6342 20DA  
                                    l6264 32B6                                      l6344 20F2  
                                    l6506 18B6                                      l6610 15F8  
                                    l6602 15D2                                      l6612 1600  
                                    l6604 15E0                                      l6356 2FE6  
                                    l6614 1626                                      l6446 3118  
                                    l6472 17DE                                      l6552 14BC  
                                    l6368 2E72                        __CFG_WPFP$PAGE_127 000000  
                                    l6570 152C                                      l6554 14C8  
                                    l6650 1E20                                      l6484 1812  
                                    l6492 1826                                      l6476 17FC  
                                    l6564 14F4                                      l6644 1DE6  
                                    l6636 1DA0                                      l6628 3264  
                                    l6558 14D8                                      l6646 1DEE  
                                    l6654 1E54                                      l6638 1DAC  
                                    l6734 2E08                                      l6750 2EFC  
                                    l6496 1846                                      l6584 1576  
                                    l6592 159C                                      l6576 154A  
                                    l6736 2E0E                                      l6752 2F02  
                                    l6904 2854                                      l6682 2B6E  
                                    l6594 15AC                                      l6676 2B3A  
                                    l6684 2B9A                                      l6908 2884  
                                    l6896 2820                                      STR_1 11F2  
                                    STR_2 11EC                                      STR_3 11E6  
                                    u6000 14AC                                      u6200 2B5C  
                                    u6008 14B0                                      u6210 2B90  
                                    u6140 1D90                                      u6207 2B52  
                                    u6217 2B86                                      u6148 1D94  
                                    u6407 3318                                      u6417 316A  
                                    u6427 305C                                      u6437 2B68  
                   ??_USBCtrlTrfTxService 002D                                      u5790 30C6  
                                    _UCFG 000F39                                      _UEP0 000F26  
                                    _UEP1 000F27                                      _UEIE 000F37  
                                    _UEIR 000F63                                      _UCON 000F65  
                         _CDCDataInHandle 0074    USBStdFeatureReqHandler@current_ep_data 0044  
                                    _pDst 0078                                      _main 27DC  
                ??i2_USBTransferOnePacket 0031                                      fsr0h 000FEA  
                                    fsr1h 000FE2                                      indf0 000FEF  
                                    fsr0l 000FE9                                      fsr2h 000FDA  
                                    indf1 000FE7                               _BaudRateGen 01D2  
                                    fsr1l 000FE1                                      indf2 000FDF  
                                    fsr2l 000FD9                          __end_of_I2C_Send 330A  
                         _USBDeviceAttach 2FF0                    __CFG_DSWDTOSC$T1OSCREF 000000  
                        __end_of_I2C_Stop 334A                                      pclat 000FFA  
                        __end_of_I2C_init 3336                                      prodh 000FF4  
                                    prodl 000FF3                                      start 109C  
                           __CFG_IESO$OFF 000000                        __size_of_CTMU_init 0028  
              __end_of_USBCheckStdRequest 1F3E                    ??_USBCtrlTrfOutHandler 002F  
                            ___param_bank 000010                 ??_USBStdFeatureReqHandler 0041  
                           _I2C_LCD_Clear 330A                                     ??_ISR 004B  
                  __size_of_I2C_IdleCheck 0020                  ??_USBStdGetStatusHandler 002D  
                          ?_USBDeviceInit 002D                             __CFG_PLLDIV$2 000000  
                            _BAUDCON1bits 000F7E                                     ?_main 002D  
                 __size_of_put_string_usb 0048                                     _ADRES 000FC3  
       __size_of_USBCtrlEPServiceComplete 00FA                    __end_of_USBDeviceTasks 178E  
                                   _LATB2 007C52                 ?_USBCtrlEPServiceComplete 002D  
                                   i2l197 2EC4                                     i2l541 1062  
                                   i2l198 2EC0                                     i2l538 1050  
                                   i2l539 1058                                     i2l900 274A  
                                   i2l901 274E                                     i2l833 1CE8  
                                   i2l770 178A                                     i2l747 194E  
                                   i2l771 171E                                     i2l909 2F70  
                                   i2l759 165E                                     i2l960 1E70  
                                   i2l769 170C                                     i2l946 2422  
                                   _UADDR 000F38                                     i2l975 1220  
                                   i2l896 2734                                     i2l969 1EC0  
                                   i2l994 13EE                                     i2l899 27C6  
                                   _TRISA 000F92                                     _TRISB 000F93  
                                   _TRISC 000F94                                     _USTAT 000F64  
      __size_of_USBCtrlEPAllowStatusStage 00C4                            __CFG_FCMEN$OFF 000000  
                        __end_of_UART_ISR 2EE4           __end_of_USBCtrlEPAllowDataStage 2A76  
                                   _sd000 11E2                                     _sd001 114C  
                                   _sd002 1180                                i2memset@p1 002D  
                      __size_of_UART_init 0020                                     _colon 001E  
                      __size_of_RTCC_init 0030                           ?_get_string_usb 0096  
                       __end_of_I2C_Start 30CC                                     tablat 000FF5  
                                   plusw2 000FDB                         __end_of_CDCInitEP 2C92  
                        __end_of_USB_init 3340                                     status 000FD8  
                        __end_ofi2_memset 31BC                          __end_of_Delay_ms 318E  
                         putUSBUSART@data 0089              __size_of_USBStdSetCfgHandler 00DE  
                          ?_I2C_LCD_Clear 002D                           __initialization 2D48  
                            __end_of_main 288C                     _control_signal_bitmap 0081  
                     ringbuf_init@bufsize 008D                 __size_of_USBCtrlEPService 00D0  
                                  ??_main 009D                             __activetblptr 000003  
                         ?_USBDeviceTasks 002D                               ?_USBSuspend 002D  
                       __end_of_CTMU_init 3290                              _cdc_mem_type 007D  
                                  _BCL1IF 007D0B                             _I2C_IdleCheck 32B0  
                 __end_of_USBDeviceAttach 302A                          _CDCDataOutHandle 0076  
                       _getsUSBUSART$3959 0094                         _I2C_LCD_SetCursor 31E8  
                                  _EECON2 000FA7                                    _ANCON0 000F48  
                                  _ANCON1 000F49                        I2C_LCD_Command@ans 008E  
                         getsUSBUSART@len 0092                     __size_of_CDCTxService 01A2  
                                  i2l1051 254C                                    i2l1053 2582  
                                  i2l4100 24D0                                    i2l4102 24E6  
                                  i2l4200 1F94                                    i2l4210 1FDA  
                                  i2l4122 2502                                    i2l5004 2936  
                                  i2l4060 2AF2                                    i2l4140 2540  
                                  i2l4132 252A                                    i2l4126 2514  
                                  i2l4222 3198                                    i2l4302 2A42  
                          __CFG_WDTEN$OFF 000000                                    i2l4208 1FCE  
                                  i2l4072 2F96                                    i2l4080 2448  
                                  i2l4400 27AE                                    i2l4218 2014  
                                  i2l4058 2AD8                                    i2l4082 2462  
                                  i2l4170 313E                                    i2l4226 31AA  
                                  i2l4322 2146                                    i2l4068 2F86  
                                  i2l4148 256C                                    i2l4156 258A  
                                  i2l4164 3132                                    i2l4190 1F68  
                                  i2l4166 3138                                    i2l4318 213E  
                                  i2l5310 222C                                    i2l4088 2474  
                                  i2l4440 12DE                                    i2l4432 1294  
                                  i2l4352 1A34                                    i2l4344 21B8  
                                  i2l4328 2172                                    i2l4186 1F5C  
                                  i2l4434 12D2                                    i2l4418 121A  
                                  i2l5322 227A                                    i2l5314 2234  
                                  i2l4268 22F2                                    i2l4604 1C08  
                                  i2l4460 1386                                    i2l4444 12FA  
                                  i2l4372 1B32                                    i2l4364 1AD4  
                                  i2l4356 1A46                                    i2l4470 13CC  
                                  i2l4454 134E                                    i2l4446 131C  
                                  i2l4438 12DA                                    i2l4374 1B38  
                                  i2l4366 1ADA                                    i2l4390 276C  
                                  i2l4630 1E84                                    i2l4550 1CFE  
                                  i2l4534 1C88                                    i2l5326 2294  
                                  i2l5270 30F6                                    i2l5350 192E  
                                  i2l4608 1C22                                    i2l4480 140A  
                                  i2l4472 13DA                                    i2l4456 136C  
                                  i2l4392 278E                                    i2l4384 273E  
                                  i2l4640 1E9E                                    i2l5328 229A  
                                  i2l5272 30FA                                    i2l4482 1428  
                                  i2l4378 1B3E                                    i2l4642 1EA4  
                                  i2l4626 1E78                                    i2l4298 2A28  
                                  i2l4538 1C92                                    i2l5362 195C  
                                  i2l5370 1970                                    i2l5354 1948  
                                  i2l4652 1EDA                                    i2l4628 1E7E  
                                  i2l5620 1688                                    i2l5612 1676  
                                  i2l4902 23E8                                    i2l4582 1B7C  
                                  i2l4486 1452                                    i2l4638 1E96  
                                  i2l4558 1D12                                    i2l5294 2F6C  
                                  i2l5374 198E                                    i2l4592 1BAE  
                                  i2l4488 1460                                    i2l4656 1EF8  
                                  i2l5384 19F2                                    i2l5632 16BC  
                                  i2l4666 2612                                    i2l4914 242A  
                                  i2l4586 1B8A                                    i2l5378 1996  
                                  i2l5650 1702                                    i2l5642 16D8  
                                  i2l5626 16B0                                    i2l4908 2408  
                                  i2l5636 16C8                                    i2l5670 1744  
                                  i2l5590 1644                                    i2l5672 175A  
                                  i2l5656 1716                                    i2l4890 23A8  
                                  i2l4874 2CE8                                    i2l4866 2CA0  
                                  i2l5676 1766                                    i2l5678 1786  
                                  i2l5598 1656                                    i2l4888 23A2  
                                  i2l4986 270E                                    i2l4996 291C  
                                  i2l4998 2932                        ?_I2C_LCD_SetCursor 008F  
                                  _RCREG1 000FAF                             CDCTxService@i 0093  
                                  _RTCCAL 000F3E                                    _SPBRG1 000FB0  
                                  _SSP1IF 007CF3                            __CFG_WPCFG$OFF 000000  
                                  _TXREG1 000FAE                  i2USBTransferOnePacket@ep 0031  
                       ??i2_USBDeviceInit 0035           __size_ofi2_USBTransferOnePacket 00C0  
                          __CFG_WPDIS$OFF 000000                  __end_of_is_usb_available 32EE  
                    get_string_usb@rx_len 009B                         _shortPacketStatus 0023  
                     ??_I2C_LCD_SetCursor 0090                            __CFG_XINST$OFF 000000  
                         USBDeviceTasks@i 004A               USBStdFeatureReqHandler@pUEP 0042  
                USBTransferOnePacket@data 008A                USBCtrlTrfInHandler@lastDTS 002E  
                         ??_USBDeviceInit 0091                              ?_ringbuf_pop 0035  
                            ?_ringbuf_num 002D                              ?_ringbuf_put 0035  
                            ?_putUSBUSART 0089                         __end_of_UART_init 32B0  
                    __end_of_getsUSBUSART 1E5C                              ?_timer0_init 002D  
                       __end_of_RTCC_init 3130                              ?_timer1_init 0089  
                            ?_timer3_init 002D                         _USBEnableEndpoint 2F74  
         __size_of_USBStdGetStatusHandler 00B6                                    _memset 3062  
                                  clear_0 2D4E                                    clear_1 2D5A  
                                  clear_2 2D66                           put_string_usb@s 0095  
                                  clear_3 2D72                           __CFG_CLKOEC$OFF 000000  
                      ?_USBEnableEndpoint 0035                                    _rx_buf 01E1  
                                  _tx_buf 01E9             __size_of_USBTransferOnePacket 00DE  
                               ?_I2C_Send 002D                              _CDCTxService 1488  
                               ?_I2C_Stop 002D                              __mediumconst 0000  
                               ?_I2C_init 002D                 __end_of_I2C_LCD_SetCursor 3214  
                                  tblptrh 000FF7                                    tblptrl 000FF6  
                                  tblptru 000FF8                       ??_USBEnableEndpoint 0036  
                          ?_I2C_IdleCheck 002D                               _CtrlTrfData 000D38  
                    _controlTransferState 001F                      __CFG_LS48MHZ$SYS48X8 000000  
                              __accesstop 0060                   __end_of__initialization 2D96  
                           ___rparam_used 000001                           ??_I2C_LCD_Clear 008F  
                __size_of_USBStallHandler 0048                      __CFG_WPEND$PAGE_WPFP 000000  
                     __size_of_USBSuspend 002C                            __pcstackCOMRAM 002D  
               __end_of_USBEnableEndpoint 2FB4                             __end_of_sd000 11E6  
                           __end_of_sd001 1180                             __end_of_sd002 11B4  
                            __pidataBANK0 334A                                 ?_UART_ISR 002D  
        __size_of_USBCtrlEPAllowDataStage 009C             __size_of_USBConfigureEndpoint 0096  
             __end_of_USBCtrlTrfInHandler 2432                           __CFG_DSWDTPS$G2 000000  
                         _I2C_LCD_Command 302A                            _put_string_usb 2EE4  
                  i2_USBTransferOnePacket 2432                                 ?_USB_init 002D  
                       _CDCTxService$4007 0091                          I2C_LCD_Command@c 008D  
                              ??_I2C_Send 008B                                ??_I2C_Stop 008B  
                              _cdc_notice 01C8                                 ?i2_memset 002D  
                              _cdc_rx_len 007E                                ??_I2C_init 0089  
                               ?_Delay_ms 0089                                _cdc_tx_len 0080  
                ??_USBCtrlTrfSetupHandler 0047                          ?_USBDeviceAttach 002D  
                  _USBStdGetStatusHandler 2726                        __size_of_main_init 009E  
                              __pbssBANK0 0060                                __pbssBANK1 01C8  
                              __pbssBANK3 0300               __size_of_USBWakeFromSuspend 0034  
                             _pBDTEntryIn 000A          __end_of_USBCtrlEPServiceComplete 1D68  
             __size_of_USBCheckCDCRequest 00BE                     __end_of_weekday_3char 11D0  
                    USBCtrlTrfRxService@i 002D                                ??_UART_ISR 003C  
                  __end_of_put_string_usb 2F2C                                   ?_memset 0089  
                    I2C_LCD_SetCursor@col 0092                                _device_dsc 11D0  
                    I2C_LCD_SetCursor@row 008F                          _USBCtrlEPService 21DC  
                            I2C_Send@data 008B                                _ep_data_in 0066  
             __end_of_USBCtrlTrfRxService 1C6E                        _USBCheckStdRequest 1E5C  
                              ??_USB_init 0092                         _configDescriptor1 1109  
                        ??_get_string_usb 009A                        __CFG_OSC$INTOSCPLL 000000  
                         ??_I2C_IdleCheck 0089                                ??i2_memset 0033  
             __end_of_USBCtrlTrfTxService 2020                                ??_Delay_ms 008B  
                     _USBStdSetCfgHandler 20FE                __size_of_I2C_LCD_SetCursor 002C  
                  I2C_LCD_SetCursor@F9845 009D                           __CFG_WDTPS$1024 000000  
                                 _SPBRGH1 000F7F                                   _SSP1ADD 000FC8  
                                 _SSP1BUF 000FC9                                   _RTCVALH 000F3B  
                                 _RTCVALL 000F3A                       ?_USBCheckStdRequest 002D  
            __size_of_USBStdGetDscHandler 0136                                   _UIEbits 000F36  
                    timer1_init@prescaler 008B                                   _UIRbits 000F62  
                        __CFG_CFGPLLEN$ON 000000                             _cdc_trf_state 007F  
                               _I2C_Start 3098                                   _pCDCDst 006C  
                                 _pCDCSrc 006F                     __size_of_getsUSBUSART 00F4  
                                 __Hparam 0000                      ?_USBStdSetCfgHandler 002D  
                               _CDCInitEP 2C22                                   __Lparam 0000  
                 __end_of_I2C_LCD_Command 3062                __size_of_USBEnableEndpoint 0040  
                    ??_USBCheckStdRequest 0047             __size_of_USBCtrlTrfOutHandler 005E  
                           ?_ringbuf_init 0089                          ??_USBDeviceTasks 004A  
                         ?_put_string_usb 0095                         ??_USBStallHandler 002D  
                            __psmallconst 1100                      __size_of_ringbuf_pop 00B0  
                    __size_of_ringbuf_num 00BE                      __size_of_ringbuf_put 00B8  
                         __CFG_STVREN$OFF 000000                         __end_of_main_init 29DA  
                    __size_of_putUSBUSART 0028               epoch_to_caltime@month_cache 009F  
                                 __pcinit 2D48                        getsUSBUSART@buffer 0090  
                         __size_of_memset 0036                 __end_of_configDescriptor1 114C  
                                 __ramtop 0F00                      __size_of_timer0_init 003C  
                                 _halfsec 0022                      __size_of_timer1_init 0052  
                                 __ptext0 27DC                                   __ptext1 2EE4  
                                 __ptext2 3240                                   __ptext3 293C  
                                 __ptext4 31BC                                   __ptext5 2E44  
                                 __ptext6 2FB4                                   __ptext7 2D9C  
                                 __ptext8 3290                                   __ptext9 3100  
                                 _inPipes 0025                      __size_of_timer3_init 002C  
                           I2C_LCD_Puts@s 008D               _USBDeferOUTDataStagePackets 0018  
                               _T0CONbits 000FD5                          _time_change_flag 0024  
                            __size_of_ISR 0094                                 _T1CONbits 000FCD  
                            ??_USBSuspend 0041                                 _T3CONbits 000F79  
                               _T5CONbits 000F22                           i2_USBDeviceInit 18E8  
                        i2USBDeviceInit@i 0035                        __end_of_USB_CD_Ptr 1109  
         __size_of_USBCtrlTrfSetupHandler 0082                                   main@str 0380  
                    end_of_initialization 2D96                              _getsUSBUSART 1D68  
                               _CTMU_init 3268                              _CTMUCONHbits 000FB3  
                      __end_of_USB_SD_Ptr 1107                              _CTMUCONLbits 000FB2  
                     _pBDTEntryEP0OutNext 0012                                   memset@c 008B  
                                 memset@n 008D                                   memset@p 008F  
         _dummy_encapsulated_cmd_response 01D9                  ?_USBStdFeatureReqHandler 002D  
                              ?_I2C_Start 008B                     ??_USBStdSetCfgHandler 0041  
                    timer3_init@prescaler 008A                                ?_CDCInitEP 002D  
                       ?_is_usb_available 002D                        __end_of_USBSuspend 3240  
                          ??_ringbuf_init 008F                   _USBCtrlEPAllowDataStage 29DA  
                      ??_is_usb_available 0089                                   postdec1 000FE5  
                                 postdec2 000FDD                                   postinc0 000FEE  
                                 postinc1 000FE6                                   postinc2 000FDE  
                _USBCtrlEPServiceComplete 1C6E                _USBStatusStageEnabledFlag1 001B  
              _USBStatusStageEnabledFlag2 001C                        USBEnableEndpoint@p 0036  
                               _UART_init 3290                          __CFG_DSBOREN$OFF 000000  
                               _RTCC_init 3100                 epoch_to_caltime@day_cache 007A  
                        __CFG_CPUDIV$OSC1 000000                        _BothEP0OutUOWNsSet 0015  
                       __size_of_I2C_Send 001C                         __size_of_I2C_Stop 000A  
                       __size_of_I2C_init 0012                 USBConfigureEndpoint@EPNum 0032  
              ?_USBCtrlEPAllowStatusStage 002D                                ?_CTMU_init 002D  
     USER_USB_CALLBACK_EVENT_HANDLER@size 003D                                 _USTATcopy 002C  
                 timer1_init@clock_select 0089              __end_of_USBTransferOnePacket 20FE  
                        __CFG_IOL1WAY$OFF 000000                                main@rx_len 03E4  
                       putUSBUSART@length 008B                       __CFG_MSSP7B_EN$MSK7 000000  
                        ?_I2C_LCD_Command 002D                            ringbuf_init@rb 0089  
                  _USBCtrlTrfSetupHandler 2BA0                            ringbuf_pop@ret 003B  
                 ?i2_USBTransferOnePacket 002D                     __end_of_USBDeviceInit 18E8  
                       __size_of_UART_ISR 004E                   __end_ofi2_USBDeviceInit 1A24  
                              ?_UART_init 002D                                 i2memset@c 002F  
                               i2memset@n 0031                                 i2memset@p 0033  
                          __end_of_memset 3098                                ?_RTCC_init 002D  
                        __CFG_DSWDTEN$OFF 000000                         _USBBusIsSuspended 007C  
                     start_initialization 2D48                   ?_USBStdGetStatusHandler 002D  
                             __end_of_ISR 109C             USBCtrlTrfRxService@byteToRead 002E  
                       __size_of_USB_init 000A                             ?_I2C_LCD_Puts 008D  
                           ?_I2C_LCD_init 002D                               _cdc_data_rx 0300  
                             _cdc_data_tx 0340                         __size_ofi2_memset 002E  
                           UART_ISR@ascii 003C              __end_of_USBConfigureEndpoint 2B0C  
                       __size_of_Delay_ms 002E           __end_of_USBStdFeatureReqHandler 1488  
       __end_of_USBCtrlEPAllowStatusStage 2370                  __end_of_USBCtrlEPService 22AC  
                             ??_I2C_Start 008C                 ??_USBCtrlEPAllowDataStage 002E  
                             ??_CDCInitEP 0039                            USBDeviceInit@i 0091  
                   __end_of_I2C_LCD_Clear 3324                    _pBDTEntryEP0OutCurrent 0010  
                 USBTransferOnePacket@dir 0089                   USBTransferOnePacket@len 008C  
          __end_ofi2_USBTransferOnePacket 24F2                       _USBStdGetDscHandler 1A24  
                       __CFG_ADCSEL$BIT12 000000                               __pdataBANK0 009D  
                                ??_memset 008F                    _USBActiveConfiguration 002B  
          __end_of_USBStdGetStatusHandler 27DC                               __pbssCOMRAM 0001  
                           __pcstackBANK0 0089                             __pcstackBANK1 0100  
                           __pcstackBANK2 0200                             __pcstackBANK3 0380  
            __size_of_USBCtrlTrfInHandler 00C2                            ??_I2C_LCD_Puts 008F  
                          ??_I2C_LCD_init 0090                               _caltime_now 01F1  
                    __end_of_ringbuf_init 2DF0                      ?_USBStdGetDscHandler 002D  
                             ??_CTMU_init 0089                __end_of_USBWakeFromSuspend 3100  
                         _USBStallHandler 2F2C                              _pBDTEntryOut 0060  
              __end_of_USBCheckCDCRequest 25B0                  __size_of_USBDeviceAttach 003A  
                        ??_put_string_usb 0099                                 _edit_flag 0020  
                               __pintcode 1008                     _is_usb_available$2207 0089  
                         I2C_LCD_Puts@ans 0090                          ?i2_USBDeviceInit 002D  
                             ??_UART_init 0089                USBCBSendResume@delay_count 0072  
                             ??_RTCC_init 0089                      _USBTransferOnePacket 2020  
                             __smallconst 1100                                 _epoch_now 0083  
                               _main_init 293C                               I2C_Start@rw 008B  
                                _I2C_Send 32EE                                  _I2C_Stop 3340  
                    __CFG_RTCOSC$T1OSCREF 000000                                  _I2C_init 3324  
                   __end_of_I2C_IdleCheck 32D0                               _PADCFG1bits 000F3C  
            __end_of_USBCtrlTrfOutHandler 2CF0                     ??_USBStdGetDscHandler 002D  
                             _ep_data_out 0069              __size_of_USBCtrlTrfRxService 0114  
           USBConfigureEndpoint@direction 002D                                  _CTMUCONH 000FB3  
                                _CTMUCONL 000FB2                                  _CTMUICON 000FB1  
            __size_of_USBCtrlTrfTxService 00E2                  ringbuf_init@internal_buf 008B  
              ??_USBCtrlEPServiceComplete 002E                                  _IPR1bits 000F9F  
                                _IPR2bits 000FA2                                  _PIE1bits 000F9D  
                                _PIE2bits 000FA0                                  _IPR5bits 000F99  
                                _PIE5bits 000F91                                  i2u312_40 1FBE  
                                i2u312_47 1FB4                                  i2u314_40 2004  
                                i2u314_47 1FFA                                  i2u331_40 1AA0  
                                i2u331_47 1A96                                  i2u332_40 1AD0  
                                i2u332_47 1AC6                                  i2u334_40 1B28  
                                i2u334_47 1B1E                                  _PIR1bits 000F9E  
                                _PIR2bits 000FA1                                  _PIR5bits 000F98  
              epoch_to_caltime@year_cache 0082                 USBCtrlEPService@setup_cnt 0049  
                           ??_ringbuf_pop 0037                             ??_ringbuf_num 002F  
                           ??_ringbuf_put 0038                                  _RCONbits 000FD0  
                           ??_putUSBUSART 008C                                  _UEP0bits 000F26  
              _USBDeferINDataStagePackets 0017                                  _UART_ISR 2E96  
                                _SSP1CON1 000FC6                                  _SSP1CON2 000FC5  
                           ??_timer0_init 0089                             ??_timer1_init 008A  
             __size_of_USBCheckStdRequest 00E2                             ??_timer3_init 0089  
                                _SSP1STAT 000FC7                                  _UCONbits 000F65  
                    _USBConfigureEndpoint 2A76          __size_of_USBStdFeatureReqHandler 0292  
                              _ADCON0bits 000FC2                                _ADCON1bits 000FC1  
                   ?_USBTransferOnePacket 0089                          __CFG_SOSCSEL$LOW 000000  
                                _USB_init 3336                                ?_main_init 002D  
               __size_of_is_usb_available 001E                             ?_CDCTxService 002D  
                            _RemoteWakeup 0016                                  i2_memset 318E  
                                _Delay_ms 3160                             ringbuf_pop@rb 0035  
                           ringbuf_num@rb 002D                   __end_of_USBStallHandler 2F74  
                           I2C_Start@adrs 008C                             ringbuf_put@rb 0035  
                             _INTCON2bits 000FF1               ??_USBCtrlEPAllowStatusStage 002D  
             __end_of_USBStdSetCfgHandler 21DC                   __size_of_get_string_usb 0054  
                      __end_of_device_dsc 11E2                   ?_USBCtrlTrfSetupHandler 002D  
                 USBStdGetStatusHandler@p 002E                                  __Hrparam 0000  
                                __Lrparam 0000                    USBTransferOnePacket@ep 008D  
                    __end_of_I2C_LCD_Puts 2BA0                                  _SetupPkt 000D30  
                           _weekday_3char 11B4                      __end_of_I2C_LCD_init 2D48  
                   ?_USBConfigureEndpoint 002D                         ??_USBDeviceAttach 0089  
                       I2C_IdleCheck@mask 008A                       __end_of_ringbuf_pop 293C  
                     __end_of_ringbuf_num 266E                       __end_of_ringbuf_put 2726  
                     __end_of_putUSBUSART 3268                               _line_coding 01F8  
                          ??_CDCTxService 0090                       __end_of_timer0_init 2FF0  
                   __size_of_ringbuf_init 0054                       __end_of_timer1_init 2E96  
                     __end_of_timer3_init 31E8                   __size_of_USBDeviceTasks 0164  
                    timer0_init@prescaler 008A                                  __ptext10 3324  
                                __ptext11 2CF0                                  __ptext20 3336  
                                __ptext12 330A                                  __ptext21 178E  
                                __ptext13 3160                                  __ptext30 32B0  
                                __ptext22 3062                                  __ptext14 3268  
                                __ptext23 2FF0                                  __ptext15 2DF0  
                                __ptext40 29DA                                  __ptext32 162A  
                                __ptext24 31E8                                  __ptext16 32D0  
                                __ptext41 1E5C                                  __ptext33 18E8  
                                __ptext25 302A                                  __ptext17 1D68  
                                __ptext50 2432                                  __ptext42 20FE  
                                __ptext34 30CC                                  __ptext26 2B0C  
                                __ptext18 1488                                  __ptext51 2F74  
                                __ptext43 318E                                  __ptext35 3214  
                                __ptext27 3340                                  __ptext19 2020  
                                __ptext60 288C                                  __ptext52 2A76  
                                __ptext44 2726                                  __ptext36 2F2C  
                                __ptext28 3098                                  __ptext61 25B0  
                                __ptext53 2C92                                  __ptext45 1A24  
                                __ptext37 21DC                                  __ptext29 32EE  
                                __ptext54 1B5A                                  __ptext46 11F6  
                                __ptext38 2BA0                                  __ptext55 22AC  
                                __ptext47 3130                                  __ptext39 1C6E  
                                __ptext56 2370                                  __ptext48 24F2  
                                __ptext57 1F3E                                  __ptext49 2C22  
                                __ptext58 2E96                                  __ptext59 266E  
                            _SSP1CON2bits 000FC5                     RTCC_loop@prev_halfsec 0014  
          __end_of_USBCtrlTrfSetupHandler 2C22                             __size_of_main 00B0  
                       ?_USBCtrlEPService 002D                         put_string_usb@len 0097  
                      ??_USBCtrlEPService 0047                       _USBCtrlTrfInHandler 2370  
                                _outPipes 0001                      _USBCtrlTrfOutHandler 2C92  
                            _ringbuf_init 2D9C                 _USBCtrlEPAllowStatusStage 22AC  
                  ??_USBTransferOnePacket 008D                  __size_of_I2C_LCD_Command 0038  
               _USBDeferStatusStagePacket 0019                  CDCTxService@byte_to_send 0094  
                          main_init@rxbuf 0200                            main_init@txbuf 0100  
                             ??_main_init 0090                               _OSCTUNEbits 000F9B  
                              _INTCONbits 000FF2                      ringbuf_put@asciicode 0037  
                    ?_USBCtrlTrfInHandler 002D             USBCtrlTrfTxService@byteToSend 002D  
            I2C_LCD_SetCursor@row_offsets 0090                                Delay_ms@ms 0089  
                                memset@p1 0089                          ?_USBStallHandler 002D  
                USBStdFeatureReqHandler@p 0045                                  intlevel2 0000  
                  __size_of_USBDeviceInit 015A   __end_of_USER_USB_CALLBACK_EVENT_HANDLER 3160  
__size_of_USER_USB_CALLBACK_EVENT_HANDLER 0030         ??_USER_USB_CALLBACK_EVENT_HANDLER 003F  
        ?_USER_USB_CALLBACK_EVENT_HANDLER 0039           _USER_USB_CALLBACK_EVENT_HANDLER 3130  
            i2USBTransferOnePacket@handle 0032                                _RCSTA1bits 000FAC  
                              _OSCCONbits 000FD3                i2USBTransferOnePacket@data 002E  
                  ??_USBConfigureEndpoint 002E                     ?_USBCtrlTrfOutHandler 002D  
                             _ringbuf_pop 288C                               _ringbuf_num 25B0  
                             _ringbuf_put 266E                               _putUSBUSART 3240  
                     _USBCtrlTrfRxService 1B5A                               _timer0_init 2FB4  
                      _USBWakeFromSuspend 30CC                               _timer1_init 2E44  
                             _timer3_init 31BC                   _USBStdFeatureReqHandler 11F6  
                      _USBCheckCDCRequest 24F2                       _USBCtrlTrfTxService 1F3E  
                              _RTCCFGbits 000F3F                       ?_USBWakeFromSuspend 002D  
                        _is_usb_available 32D0                     ??_USBCtrlTrfInHandler 002E  
                   _USBAlternateInterface 0087                       ?_USBCheckCDCRequest 002D  
               i2USBTransferOnePacket@dir 002D                 i2USBTransferOnePacket@len 0030  
                     USBEnableEndpoint@ep 0038                           _endpoint_number 0021  
                  __size_of_I2C_LCD_Clear 001A                      ?_USBCtrlTrfRxService 002D  
                           ?_getsUSBUSART 0090                  ?_USBCtrlEPAllowDataStage 002D  
                          _get_string_usb 2DF0                      ?_USBCtrlTrfTxService 002D  
            _USBStatusStageTimeoutCounter 001D                     __size_of_I2C_LCD_Puts 0094  
                   __size_of_I2C_LCD_init 0058                      ??_USBWakeFromSuspend 0041  
              USBTransferOnePacket@handle 008E                      __end_of_CDCTxService 162A  
                    ??_USBCheckCDCRequest 002D                                _USB_CD_Ptr 1107  
