

Microchip Technology PIC18 LITE Macro Assembler V1.35 build -356382666 
                                                                                               Wed Nov 11 00:53:14 2015

Microchip Technology Omniscient Code Generator v1.35 (Free mode) build 201507080246
     1                           	processor	18F27J53
     2                           	fnconf	rparam,??,?,0
     3                           	opt	pw 120
     4                           	opt	lm
     5                           	psect	idataBANK0,global,class=CODE,delta=1
     6                           	psect	mediumconst,global,reloc=2,class=MEDIUMCONST,delta=1
     7                           	psect	cinit,global,reloc=2,class=CODE,delta=1
     8                           	psect	bssCOMRAM,global,class=COMRAM,space=1,delta=1
     9                           	psect	bssBANK0,global,class=BANK0,space=1,delta=1
    10                           	psect	dataBANK0,global,class=BANK0,space=1,delta=1
    11                           	psect	bssBANK1,global,class=BANK1,space=1,delta=1
    12                           	psect	bssBANK2,global,class=BANK2,space=1,delta=1
    13                           	psect	bssBIGRAMl,global,class=BIGRAM,space=1,delta=1
    14                           	psect	cstackBANK0,global,class=BANK0,space=1,delta=1
    15                           	psect	cstackCOMRAM,global,class=COMRAM,space=1,delta=1
    16                           	psect	text0,global,reloc=2,class=CODE,delta=1
    17                           	psect	text1,global,reloc=2,class=CODE,delta=1
    18                           	psect	text2,global,reloc=2,class=CODE,delta=1
    19                           	psect	text3,global,reloc=2,class=CODE,delta=1
    20                           	psect	text4,global,reloc=2,class=CODE,delta=1
    21                           	psect	text5,global,reloc=2,class=CODE,delta=1
    22                           	psect	text6,global,reloc=2,class=CODE,delta=1
    23                           	psect	text7,global,reloc=2,class=CODE,delta=1
    24                           	psect	text8,global,reloc=2,class=CODE,delta=1
    25                           	psect	text9,global,reloc=2,class=CODE,delta=1
    26                           	psect	text10,global,reloc=2,class=CODE,delta=1
    27                           	psect	text11,global,reloc=2,class=CODE,delta=1
    28                           	psect	text12,global,reloc=2,class=CODE,delta=1
    29                           	psect	text13,global,reloc=2,class=CODE,delta=1
    30                           	psect	text14,global,reloc=2,class=CODE,delta=1
    31                           	psect	text15,global,reloc=2,class=CODE,delta=1
    32                           	psect	text16,global,reloc=2,class=CODE,delta=1
    33                           	psect	text17,global,reloc=2,class=CODE,delta=1
    34                           	psect	text18,global,reloc=2,class=CODE,delta=1
    35                           	psect	text19,global,reloc=2,class=CODE,delta=1
    36                           	psect	text20,global,reloc=2,class=CODE,delta=1
    37                           	psect	text21,global,reloc=2,class=CODE,delta=1
    38                           	psect	text22,global,reloc=2,class=CODE,delta=1
    39                           	psect	text23,global,reloc=2,class=CODE,delta=1
    40                           	psect	text24,global,reloc=2,class=CODE,delta=1
    41                           	psect	text25,global,reloc=2,class=CODE,delta=1
    42                           	psect	text26,global,reloc=2,class=CODE,delta=1
    43                           	psect	text27,global,reloc=2,class=CODE,delta=1
    44                           	psect	text28,global,reloc=2,class=CODE,delta=1
    45                           	psect	text29,global,reloc=2,class=CODE,delta=1
    46                           	psect	text30,global,reloc=2,class=CODE,delta=1
    47                           	psect	text31,global,reloc=2,class=CODE,delta=1
    48                           	psect	text32,global,reloc=2,class=CODE,delta=1
    49                           	psect	text33,global,reloc=2,class=CODE,delta=1
    50                           	psect	text34,global,reloc=2,class=CODE,delta=1
    51                           	psect	text35,global,reloc=2,class=CODE,delta=1
    52                           	psect	text36,global,reloc=2,class=CODE,delta=1
    53                           	psect	text37,global,reloc=2,class=CODE,delta=1
    54                           	psect	text38,global,reloc=2,class=CODE,delta=1
    55                           	psect	text39,global,reloc=2,class=CODE,delta=1
    56                           	psect	text40,global,reloc=2,class=CODE,delta=1
    57                           	psect	text41,global,reloc=2,class=CODE,delta=1
    58                           	psect	text42,global,reloc=2,class=CODE,delta=1
    59                           	psect	text43,global,reloc=2,class=CODE,delta=1
    60                           	psect	text44,global,reloc=2,class=CODE,delta=1
    61                           	psect	text45,global,reloc=2,class=CODE,delta=1
    62                           	psect	text46,global,reloc=2,class=CODE,delta=1
    63                           	psect	text47,global,reloc=2,class=CODE,delta=1
    64                           	psect	text48,global,reloc=2,class=CODE,delta=1
    65                           	psect	text49,global,reloc=2,class=CODE,delta=1
    66                           	psect	intcode,global,reloc=2,class=CODE,delta=1
    67                           	psect	text51,global,reloc=2,class=CODE,delta=1
    68                           	psect	text52,global,reloc=2,class=CODE,delta=1
    69                           	psect	text53,global,reloc=2,class=CODE,delta=1
    70                           	psect	text54,global,reloc=2,class=CODE,delta=1
    71                           	psect	text55,global,reloc=2,class=CODE,delta=1
    72                           	psect	text56,global,reloc=2,class=CODE,delta=1
    73                           	psect	text57,global,reloc=2,class=CODE,delta=1
    74                           	psect	text58,global,reloc=2,class=CODE,delta=1
    75                           	psect	text59,global,reloc=2,class=CODE,delta=1
    76                           	psect	text60,global,reloc=2,class=CODE,delta=1
    77                           	psect	text61,global,reloc=2,class=CODE,delta=1
    78                           	psect	text62,global,reloc=2,class=CODE,delta=1
    79                           	psect	text63,global,reloc=2,class=CODE,delta=1
    80                           	psect	text64,global,reloc=2,class=CODE,delta=1
    81                           	psect	text65,global,reloc=2,class=CODE,delta=1
    82                           	psect	text66,global,reloc=2,class=CODE,delta=1
    83                           	psect	text67,global,reloc=2,class=CODE,delta=1
    84                           	psect	text68,global,reloc=2,class=CODE,delta=1
    85                           	psect	text69,global,reloc=2,class=CODE,delta=1
    86                           	psect	text70,global,reloc=2,class=CODE,delta=1
    87                           	psect	text71,global,reloc=2,class=CODE,delta=1
    88                           	psect	text72,global,reloc=2,class=CODE,delta=1
    89                           	psect	text73,global,reloc=2,class=CODE,delta=1
    90                           	psect	text74,global,reloc=2,class=CODE,delta=1
    91                           	psect	text75,global,reloc=2,class=CODE,delta=1
    92                           	psect	text76,global,reloc=2,class=CODE,delta=1
    93                           	psect	text77,global,reloc=2,class=CODE,delta=1
    94                           	psect	text78,global,reloc=2,class=CODE,delta=1
    95                           	psect	text79,global,reloc=2,class=CODE,delta=1
    96                           	psect	text80,global,reloc=2,class=CODE,delta=1
    97                           	psect	text81,global,reloc=2,class=CODE,delta=1
    98                           	psect	intsave_regs,global,class=BIGRAM,space=1,delta=1
    99                           	psect	rparam,global,class=COMRAM,space=1,delta=1
   100                           	psect	temp,global,ovrld,common,class=COMRAM,space=1,delta=1
   101                           	dabs	1,0xD00,48,_BDT
   102                           	dabs	1,0xD38,8,_CtrlTrfData
   103                           	dabs	1,0xD30,8,_SetupPkt
   104  0000                     
   105                           	psect	idataBANK0
   106  012F66                     __pidataBANK0:
   107                           	opt stack 0
   108                           
   109                           ;initializer for I2C_LCD_SetCursor@F8630
   110  012F66  00                 	db	0
   111  012F67  40                 	db	64
   112                           
   113                           ;initializer for epoch_to_caltime@month_cache
   114  012F68  01                 	db	1
   115                           
   116                           	psect	mediumconst
   117  00FE6C                     __pmediumconst:
   118                           	opt stack 0
   119  00FE6C  00                 	db	0
   120  00FE6D                     _dpowers:
   121                           	opt stack 0
   122  00FE6D  0001               	dw	1
   123  00FE6F  000A               	dw	10
   124  00FE71  0064               	dw	100
   125  00FE73  03E8               	dw	1000
   126  00FE75  2710               	dw	10000
   127  00FE77                     __end_of_dpowers:
   128                           	opt stack 0
   129  00FE77                     _USB_SD_Ptr:
   130                           	opt stack 0
   131  00FE77  58                 	db	low _sd000
   132  00FE78  FF                 	db	high _sd000
   133  00FE79  C2                 	db	low _sd001
   134  00FE7A  FE                 	db	high _sd001
   135  00FE7B  F6                 	db	low _sd002
   136  00FE7C  FE                 	db	high _sd002
   137  00FE7D                     __end_of_USB_SD_Ptr:
   138                           	opt stack 0
   139  00FE7D                     _USB_CD_Ptr:
   140                           	opt stack 0
   141  00FE7D  7F                 	db	low _configDescriptor1
   142  00FE7E  FE                 	db	high _configDescriptor1
   143  00FE7F                     __end_of_USB_CD_Ptr:
   144                           	opt stack 0
   145  00FE7F                     _configDescriptor1:
   146                           	opt stack 0
   147  00FE7F  09                 	db	9
   148  00FE80  02                 	db	2
   149  00FE81  43                 	db	67
   150  00FE82  00                 	db	0
   151  00FE83  02                 	db	2
   152  00FE84  01                 	db	1
   153  00FE85  00                 	db	0
   154  00FE86  C0                 	db	192
   155  00FE87  32                 	db	50
   156  00FE88  09                 	db	9
   157  00FE89  04                 	db	4
   158  00FE8A  00                 	db	0
   159  00FE8B  00                 	db	0
   160  00FE8C  01                 	db	1
   161  00FE8D  02                 	db	2
   162  00FE8E  02                 	db	2
   163  00FE8F  01                 	db	1
   164  00FE90  00                 	db	0
   165  00FE91  05                 	db	5
   166  00FE92  24                 	db	36
   167  00FE93  00                 	db	0
   168  00FE94  10                 	db	16
   169  00FE95  01                 	db	1
   170  00FE96  04                 	db	4
   171  00FE97  24                 	db	36
   172  00FE98  02                 	db	2
   173  00FE99  02                 	db	2
   174  00FE9A  05                 	db	5
   175  00FE9B  24                 	db	36
   176  00FE9C  06                 	db	6
   177  00FE9D  00                 	db	0
   178  00FE9E  01                 	db	1
   179  00FE9F  05                 	db	5
   180  00FEA0  24                 	db	36
   181  00FEA1  01                 	db	1
   182  00FEA2  00                 	db	0
   183  00FEA3  01                 	db	1
   184  00FEA4  07                 	db	7
   185  00FEA5  05                 	db	5
   186  00FEA6  81                 	db	129
   187  00FEA7  03                 	db	3
   188  00FEA8  08                 	db	8
   189  00FEA9  00                 	db	0
   190  00FEAA  02                 	db	2
   191  00FEAB  09                 	db	9
   192  00FEAC  04                 	db	4
   193  00FEAD  01                 	db	1
   194  00FEAE  00                 	db	0
   195  00FEAF  02                 	db	2
   196  00FEB0  0A                 	db	10
   197  00FEB1  00                 	db	0
   198  00FEB2  00                 	db	0
   199  00FEB3  00                 	db	0
   200  00FEB4  07                 	db	7
   201  00FEB5  05                 	db	5
   202  00FEB6  02                 	db	2
   203  00FEB7  02                 	db	2
   204  00FEB8  40                 	db	64
   205  00FEB9  00                 	db	0
   206  00FEBA  00                 	db	0
   207  00FEBB  07                 	db	7
   208  00FEBC  05                 	db	5
   209  00FEBD  82                 	db	130
   210  00FEBE  02                 	db	2
   211  00FEBF  40                 	db	64
   212  00FEC0  00                 	db	0
   213  00FEC1  00                 	db	0
   214  00FEC2                     __end_of_configDescriptor1:
   215                           	opt stack 0
   216  00FEC2                     _sd001:
   217                           	opt stack 0
   218  00FEC2  34                 	db	52
   219  00FEC3  03                 	db	3
   220  00FEC4  004D               	dw	77
   221  00FEC6  0069               	dw	105
   222  00FEC8  0063               	dw	99
   223  00FECA  0072               	dw	114
   224  00FECC  006F               	dw	111
   225  00FECE  0063               	dw	99
   226  00FED0  0068               	dw	104
   227  00FED2  0069               	dw	105
   228  00FED4  0070               	dw	112
   229  00FED6  0020               	dw	32
   230  00FED8  0054               	dw	84
   231  00FEDA  0065               	dw	101
   232  00FEDC  0063               	dw	99
   233  00FEDE  0068               	dw	104
   234  00FEE0  006E               	dw	110
   235  00FEE2  006F               	dw	111
   236  00FEE4  006C               	dw	108
   237  00FEE6  006F               	dw	111
   238  00FEE8  0067               	dw	103
   239  00FEEA  0079               	dw	121
   240  00FEEC  0020               	dw	32
   241  00FEEE  0049               	dw	73
   242  00FEF0  006E               	dw	110
   243  00FEF2  0063               	dw	99
   244  00FEF4  002E               	dw	46
   245  00FEF6                     __end_of_sd001:
   246                           	opt stack 0
   247  00FEF6                     _sd002:
   248                           	opt stack 0
   249  00FEF6  34                 	db	52
   250  00FEF7  03                 	db	3
   251  00FEF8  0043               	dw	67
   252  00FEFA  0044               	dw	68
   253  00FEFC  0043               	dw	67
   254  00FEFE  0020               	dw	32
   255  00FF00  0052               	dw	82
   256  00FF02  0053               	dw	83
   257  00FF04  002D               	dw	45
   258  00FF06  0032               	dw	50
   259  00FF08  0033               	dw	51
   260  00FF0A  0032               	dw	50
   261  00FF0C  0020               	dw	32
   262  00FF0E  0045               	dw	69
   263  00FF10  006D               	dw	109
   264  00FF12  0075               	dw	117
   265  00FF14  006C               	dw	108
   266  00FF16  0061               	dw	97
   267  00FF18  0074               	dw	116
   268  00FF1A  0069               	dw	105
   269  00FF1C  006F               	dw	111
   270  00FF1E  006E               	dw	110
   271  00FF20  0020               	dw	32
   272  00FF22  0044               	dw	68
   273  00FF24  0065               	dw	101
   274  00FF26  006D               	dw	109
   275  00FF28  006F               	dw	111
   276  00FF2A                     __end_of_sd002:
   277                           	opt stack 0
   278  00FF2A                     _weekday_3char:
   279                           	opt stack 0
   280  00FF2A  53                 	db	83
   281  00FF2B  55                 	db	85
   282  00FF2C  4E                 	db	78
   283  00FF2D  00                 	db	0
   284  00FF2E  4D                 	db	77
   285  00FF2F  4F                 	db	79
   286  00FF30  4E                 	db	78
   287  00FF31  00                 	db	0
   288  00FF32  54                 	db	84
   289  00FF33  55                 	db	85
   290  00FF34  45                 	db	69
   291  00FF35  00                 	db	0
   292  00FF36  57                 	db	87
   293  00FF37  45                 	db	69
   294  00FF38  44                 	db	68
   295  00FF39  00                 	db	0
   296  00FF3A  54                 	db	84
   297  00FF3B  48                 	db	72
   298  00FF3C  55                 	db	85
   299  00FF3D  00                 	db	0
   300  00FF3E  46                 	db	70
   301  00FF3F  52                 	db	82
   302  00FF40  49                 	db	73
   303  00FF41  00                 	db	0
   304  00FF42  53                 	db	83
   305  00FF43  41                 	db	65
   306  00FF44  54                 	db	84
   307  00FF45  00                 	db	0
   308  00FF46                     __end_of_weekday_3char:
   309                           	opt stack 0
   310  00FF46                     _device_dsc:
   311                           	opt stack 0
   312  00FF46  12                 	db	18
   313  00FF47  01                 	db	1
   314  00FF48  0200               	dw	512
   315  00FF4A  02                 	db	2
   316  00FF4B  00                 	db	0
   317  00FF4C  00                 	db	0
   318  00FF4D  08                 	db	8
   319  00FF4E  04D8               	dw	1240
   320  00FF50  000A               	dw	10
   321  00FF52  0100               	dw	256
   322  00FF54  01                 	db	1
   323  00FF55  02                 	db	2
   324  00FF56  00                 	db	0
   325  00FF57  01                 	db	1
   326  00FF58                     __end_of_device_dsc:
   327                           	opt stack 0
   328  00FF58                     _sd000:
   329                           	opt stack 0
   330  00FF58  04                 	db	4
   331  00FF59  03                 	db	3
   332  00FF5A  0409               	dw	1033
   333  00FF5C                     __end_of_sd000:
   334                           	opt stack 0
   335  0000                     _ANCON0	set	3912
   336  0000                     _ANCON1	set	3913
   337  0000                     _PADCFG1bits	set	3900
   338  0000                     _RTCCAL	set	3902
   339  0000                     _RTCCFGbits	set	3903
   340  0000                     _RTCVALH	set	3899
   341  0000                     _RTCVALL	set	3898
   342  0000                     _T5CONbits	set	3874
   343  0000                     _UADDR	set	3896
   344  0000                     _UCFG	set	3897
   345  0000                     _UEIE	set	3895
   346  0000                     _UEP0bits	set	3878
   347  0000                     _UIE	set	3894
   348  0000                     _UIEbits	set	3894
   349  0000                     _UEP0	set	3878
   350  0000                     _UEP1	set	3879
   351  0000                     _ADRES	set	4035
   352  0000                     _ADCON0bits	set	4034
   353  0000                     _ADCON1bits	set	4033
   354  0000                     _BAUDCON1bits	set	3966
   355  0000                     _CTMUCONH	set	4019
   356  0000                     _CTMUCONHbits	set	4019
   357  0000                     _CTMUCONL	set	4018
   358  0000                     _CTMUCONLbits	set	4018
   359  0000                     _CTMUICON	set	4017
   360  0000                     _EECON2	set	4007
   361  0000                     _INTCON2bits	set	4081
   362  0000                     _INTCONbits	set	4082
   363  0000                     _IPR1bits	set	3999
   364  0000                     _IPR2bits	set	4002
   365  0000                     _IPR5bits	set	3993
   366  0000                     _LATAbits	set	3977
   367  0000                     _LATBbits	set	3978
   368  0000                     _OSCCONbits	set	4051
   369  0000                     _OSCTUNEbits	set	3995
   370  0000                     _PIE1bits	set	3997
   371  0000                     _PIE2bits	set	4000
   372  0000                     _PIE5bits	set	3985
   373  0000                     _PIR1bits	set	3998
   374  0000                     _PIR2bits	set	4001
   375  0000                     _PIR5bits	set	3992
   376  0000                     _RCONbits	set	4048
   377  0000                     _RCREG1	set	4015
   378  0000                     _RCSTA1bits	set	4012
   379  0000                     _SPBRG1	set	4016
   380  0000                     _SPBRGH1	set	3967
   381  0000                     _SSP1ADD	set	4040
   382  0000                     _SSP1BUF	set	4041
   383  0000                     _SSP1CON1	set	4038
   384  0000                     _SSP1CON1bits	set	4038
   385  0000                     _SSP1CON2	set	4037
   386  0000                     _SSP1CON2bits	set	4037
   387  0000                     _SSP1STAT	set	4039
   388  0000                     _SSP1STATbits	set	4039
   389  0000                     _T0CONbits	set	4053
   390  0000                     _T1CONbits	set	4045
   391  0000                     _T3CONbits	set	3961
   392  0000                     _TMR1H	set	4047
   393  0000                     _TRISA	set	3986
   394  0000                     _TRISB	set	3987
   395  0000                     _TRISC	set	3988
   396  0000                     _TXREG1	set	4014
   397  0000                     _TXSTA1bits	set	4013
   398  0000                     _UCON	set	3941
   399  0000                     _UCONbits	set	3941
   400  0000                     _UEIR	set	3939
   401  0000                     _UIR	set	3938
   402  0000                     _UIRbits	set	3938
   403  0000                     _USTAT	set	3940
   404  0000                     _BCL1IF	set	32011
   405  0000                     _LATB2	set	31826
   406  0000                     _SSP1IF	set	31987
   407  00FF5C  09                 	db	9
   408  00FF5D  32                 	db	50	;'2'
   409  00FF5E  30                 	db	48	;'0'
   410  00FF5F  25                 	db	37
   411  00FF60  30                 	db	48	;'0'
   412  00FF61  32                 	db	50	;'2'
   413  00FF62  64                 	db	100	;'d'
   414  00FF63  2F                 	db	47
   415  00FF64  25                 	db	37
   416  00FF65  30                 	db	48	;'0'
   417  00FF66  32                 	db	50	;'2'
   418  00FF67  64                 	db	100	;'d'
   419  00FF68  2F                 	db	47
   420  00FF69  25                 	db	37
   421  00FF6A  30                 	db	48	;'0'
   422  00FF6B  32                 	db	50	;'2'
   423  00FF6C  64                 	db	100	;'d'
   424  00FF6D  28                 	db	40
   425  00FF6E  25                 	db	37
   426  00FF6F  73                 	db	115	;'s'
   427  00FF70  29                 	db	41
   428  00FF71  25                 	db	37
   429  00FF72  30                 	db	48	;'0'
   430  00FF73  32                 	db	50	;'2'
   431  00FF74  64                 	db	100	;'d'
   432  00FF75  3A                 	db	58	;':'
   433  00FF76  25                 	db	37
   434  00FF77  30                 	db	48	;'0'
   435  00FF78  32                 	db	50	;'2'
   436  00FF79  64                 	db	100	;'d'
   437  00FF7A  2D                 	db	45
   438  00FF7B  25                 	db	37
   439  00FF7C  30                 	db	48	;'0'
   440  00FF7D  32                 	db	50	;'2'
   441  00FF7E  64                 	db	100	;'d'
   442  00FF7F  0A                 	db	10
   443  00FF80  00                 	db	0
   444  00FF81  61                 	db	97	;'a'
   445  00FF82  64                 	db	100	;'d'
   446  00FF83  6A                 	db	106	;'j'
   447  00FF84  75                 	db	117	;'u'
   448  00FF85  73                 	db	115	;'s'
   449  00FF86  74                 	db	116	;'t'
   450  00FF87  5F                 	db	95	;'_'
   451  00FF88  74                 	db	116	;'t'
   452  00FF89  69                 	db	105	;'i'
   453  00FF8A  6D                 	db	109	;'m'
   454  00FF8B  65                 	db	101	;'e'
   455  00FF8C  00                 	db	0
   456  00FF8D  70                 	db	112	;'p'
   457  00FF8E  72                 	db	114	;'r'
   458  00FF8F  69                 	db	105	;'i'
   459  00FF90  6E                 	db	110	;'n'
   460  00FF91  74                 	db	116	;'t'
   461  00FF92  5F                 	db	95	;'_'
   462  00FF93  74                 	db	116	;'t'
   463  00FF94  69                 	db	105	;'i'
   464  00FF95  6D                 	db	109	;'m'
   465  00FF96  65                 	db	101	;'e'
   466  00FF97  00                 	db	0
   467  00FF98                     STR_17:
   468  00FF98  20                 	db	32
   469  00FF99  20                 	db	32
   470  00FF9A  20                 	db	32
   471  00FF9B  20                 	db	32
   472  00FF9C  20                 	db	32
   473  00FF9D  20                 	db	32
   474  00FF9E  20                 	db	32
   475  00FF9F  20                 	db	32
   476  00FFA0  00                 	db	0
   477  00FFA1                     STR_1:
   478  00FFA1  31                 	db	49	;'1'
   479  00FFA2  38                 	db	56	;'8'
   480  00FFA3  46                 	db	70	;'F'
   481  00FFA4  32                 	db	50	;'2'
   482  00FFA5  37                 	db	55	;'7'
   483  00FFA6  4A                 	db	74	;'J'
   484  00FFA7  35                 	db	53	;'5'
   485  00FFA8  33                 	db	51	;'3'
   486  00FFA9  00                 	db	0
   487  00FFAA                     STR_2:
   488  00FFAA  55                 	db	85	;'U'
   489  00FFAB  53                 	db	83	;'S'
   490  00FFAC  42                 	db	66	;'B'
   491  00FFAD  20                 	db	32
   492  00FFAE  55                 	db	85	;'U'
   493  00FFAF  41                 	db	65	;'A'
   494  00FFB0  52                 	db	82	;'R'
   495  00FFB1  54                 	db	84	;'T'
   496  00FFB2  00                 	db	0
   497  00FFB3  09                 	db	9
   498  00FFB4  65                 	db	101	;'e'
   499  00FFB5  72                 	db	114	;'r'
   500  00FFB6  72                 	db	114	;'r'
   501  00FFB7  6F                 	db	111	;'o'
   502  00FFB8  72                 	db	114	;'r'
   503  00FFB9  0A                 	db	10
   504  00FFBA  00                 	db	0
   505  00FFBB                     STR_43:
   506  00FFBB  28                 	db	40
   507  00FFBC  6E                 	db	110	;'n'
   508  00FFBD  75                 	db	117	;'u'
   509  00FFBE  6C                 	db	108	;'l'
   510  00FFBF  6C                 	db	108	;'l'
   511  00FFC0  29                 	db	41
   512  00FFC1  00                 	db	0
   513  00FFC2  73                 	db	115	;'s'
   514  00FFC3  65                 	db	101	;'e'
   515  00FFC4  63                 	db	99	;'c'
   516  00FFC5  6F                 	db	111	;'o'
   517  00FFC6  6E                 	db	110	;'n'
   518  00FFC7  64                 	db	100	;'d'
   519  00FFC8  00                 	db	0
   520  00FFC9  6D                 	db	109	;'m'
   521  00FFCA  69                 	db	105	;'i'
   522  00FFCB  6E                 	db	110	;'n'
   523  00FFCC  75                 	db	117	;'u'
   524  00FFCD  74                 	db	116	;'t'
   525  00FFCE  65                 	db	101	;'e'
   526  00FFCF  00                 	db	0
   527  00FFD0                     STR_34:
   528  00FFD0  6D                 	db	109	;'m'
   529  00FFD1  6F                 	db	111	;'o'
   530  00FFD2  6E                 	db	110	;'n'
   531  00FFD3  74                 	db	116	;'t'
   532  00FFD4  68                 	db	104	;'h'
   533  00FFD5  00                 	db	0
   534  00FFD6  79                 	db	121	;'y'
   535  00FFD7  65                 	db	101	;'e'
   536  00FFD8  61                 	db	97	;'a'
   537  00FFD9  72                 	db	114	;'r'
   538  00FFDA  00                 	db	0
   539  00FFDB  68                 	db	104	;'h'
   540  00FFDC  6F                 	db	111	;'o'
   541  00FFDD  75                 	db	117	;'u'
   542  00FFDE  72                 	db	114	;'r'
   543  00FFDF  00                 	db	0
   544  00FFE0                     STR_3:
   545  00FFE0  25                 	db	37
   546  00FFE1  30                 	db	48	;'0'
   547  00FFE2  32                 	db	50	;'2'
   548  00FFE3  64                 	db	100	;'d'
   549  00FFE4  00                 	db	0
   550  00FFE5                     STR_21:
   551  00FFE5  08                 	db	8
   552  00FFE6  20                 	db	32
   553  00FFE7  08                 	db	8
   554  00FFE8  00                 	db	0
   555  00FFE9                     STR_36:
   556  00FFE9  64                 	db	100	;'d'
   557  00FFEA  61                 	db	97	;'a'
   558  00FFEB  79                 	db	121	;'y'
   559  00FFEC  00                 	db	0
   560  00FFED                     STR_29:
   561  00FFED  61                 	db	97	;'a'
   562  00FFEE  74                 	db	116	;'t'
   563  00FFEF  00                 	db	0
   564  00FFF0  4D                 	db	77	;'M'
   565  00FFF1  00                 	db	0
   566  00FFF2  6D                 	db	109	;'m'
   567  00FFF3  00                 	db	0
   568  00FFF4  73                 	db	115	;'s'
   569  00FFF5  00                 	db	0
   570  00FFF6  28                 	db	40
   571  00FFF7  00                 	db	0
   572  00FFF8                     STR_11:
   573  00FFF8  2D                 	db	45
   574  00FFF9  00                 	db	0
   575  00FFFA                     STR_6:
   576  00FFFA  2F                 	db	47
   577  00FFFB  00                 	db	0
   578  00FFFC                     STR_9:
   579  00FFFC  3A                 	db	58	;':'
   580  00FFFD  00                 	db	0
   581  0000                     
   582                           ; #config settings
   583  00FFFE  00                 	db	0	; dummy byte at the end
   584  0000                     
   585                           	psect	cinit
   586  012824                     __pcinit:
   587                           	opt stack 0
   588  012824                     start_initialization:
   589                           	opt stack 0
   590  012824                     __initialization:
   591                           	opt stack 0
   592                           
   593                           ; Clear objects allocated to BIGRAMl (2000 bytes)
   594  012824  EE02  F0C8         	lfsr	0,__pbssBIGRAMl
   595  012828  EE17 F0D0          	lfsr	1,2000
   596  01282C                     clear_0:
   597  01282C  6AEE               	clrf	postinc0,c
   598  01282E  50E5               	movf	postdec1,w,c
   599  012830  50E1               	movf	fsr1l,w,c
   600  012832  E1FC               	bnz	clear_0
   601  012834  50E2               	movf	fsr1h,w,c
   602  012836  E1FA               	bnz	clear_0
   603                           
   604                           ; Clear objects allocated to BANK2 (200 bytes)
   605  012838  EE02  F000         	lfsr	0,__pbssBANK2
   606  01283C  0EC8               	movlw	200
   607  01283E                     clear_1:
   608  01283E  6AEE               	clrf	postinc0,c
   609  012840  06E8               	decf	wreg,f,c
   610  012842  E1FD               	bnz	clear_1
   611                           
   612                           ; Clear objects allocated to BANK1 (246 bytes)
   613  012844  EE01  F000         	lfsr	0,__pbssBANK1
   614  012848  0EF6               	movlw	246
   615  01284A                     clear_2:
   616  01284A  6AEE               	clrf	postinc0,c
   617  01284C  06E8               	decf	wreg,f,c
   618  01284E  E1FD               	bnz	clear_2
   619                           
   620                           ; Clear objects allocated to BANK0 (105 bytes)
   621  012850  EE00  F060         	lfsr	0,__pbssBANK0
   622  012854  0E69               	movlw	105
   623  012856                     clear_3:
   624  012856  6AEE               	clrf	postinc0,c
   625  012858  06E8               	decf	wreg,f,c
   626  01285A  E1FD               	bnz	clear_3
   627                           
   628                           ; Clear objects allocated to COMRAM (45 bytes)
   629  01285C  EE00  F001         	lfsr	0,__pbssCOMRAM
   630  012860  0E2D               	movlw	45
   631  012862                     clear_4:
   632  012862  6AEE               	clrf	postinc0,c
   633  012864  06E8               	decf	wreg,f,c
   634  012866  E1FD               	bnz	clear_4
   635                           
   636                           ; Initialize objects allocated to BANK0 (3 bytes)
   637                           ; load TBLPTR registers with __pidataBANK0
   638  012868  0E66               	movlw	low __pidataBANK0
   639  01286A  6EF6               	movwf	tblptrl,c
   640  01286C  0E2F               	movlw	high __pidataBANK0
   641  01286E  6EF7               	movwf	tblptrh,c
   642  012870  0E01               	movlw	low (__pidataBANK0 shr (0+16))
   643  012872  6EF8               	movwf	tblptru,c
   644  012874  0009               	tblrd		*+	;fetch initializer
   645  012876  CFF5 F0FB          	movff	tablat,__pdataBANK0
   646  01287A  0009               	tblrd		*+	;fetch initializer
   647  01287C  CFF5 F0FC          	movff	tablat,__pdataBANK0+1
   648  012880  0009               	tblrd		*+	;fetch initializer
   649  012882  CFF5 F0FD          	movff	tablat,__pdataBANK0+2
   650  012886                     end_of_initialization:
   651                           	opt stack 0
   652  012886                     __end_of__initialization:
   653                           	opt stack 0
   654  012886  905B               	bcf	int$flags,0,c	;clear compiler interrupt flag (level 1)
   655  012888  925B               	bcf	int$flags,1,c	;clear compiler interrupt flag (level 2)
   656  01288A  0100               	movlb	0
   657  01288C  EFF0  F084         	goto	_main	;jump to C main() function
   658                           tblptru	equ	0xFF8
   659                           tblptrh	equ	0xFF7
   660                           tblptrl	equ	0xFF6
   661                           tablat	equ	0xFF5
   662                           postinc0	equ	0xFEE
   663                           wreg	equ	0xFE8
   664                           postdec1	equ	0xFE5
   665                           fsr1h	equ	0xFE2
   666                           fsr1l	equ	0xFE1
   667                           
   668                           	psect	bssCOMRAM
   669  000001                     __pbssCOMRAM:
   670                           	opt stack 0
   671  000001                     _outPipes:
   672                           	opt stack 0
   673  000001                     	ds	9
   674  00000A                     _inPipes:
   675                           	opt stack 0
   676  00000A                     	ds	6
   677  000010                     _pBDTEntryIn:
   678                           	opt stack 0
   679  000010                     	ds	6
   680  000016                     _ep_data_in:
   681                           	opt stack 0
   682  000016                     	ds	3
   683  000019                     _ep_data_out:
   684                           	opt stack 0
   685  000019                     	ds	3
   686  00001C                     _pBDTEntryEP0OutCurrent:
   687                           	opt stack 0
   688  00001C                     	ds	2
   689  00001E                     _pBDTEntryEP0OutNext:
   690                           	opt stack 0
   691  00001E                     	ds	2
   692  000020                     _BothEP0OutUOWNsSet:
   693                           	opt stack 0
   694  000020                     	ds	1
   695  000021                     _RemoteWakeup:
   696                           	opt stack 0
   697  000021                     	ds	1
   698  000022                     _USBDeferINDataStagePackets:
   699                           	opt stack 0
   700  000022                     	ds	1
   701  000023                     _USBDeferOUTDataStagePackets:
   702                           	opt stack 0
   703  000023                     	ds	1
   704  000024                     _USBDeferStatusStagePacket:
   705                           	opt stack 0
   706  000024                     	ds	1
   707  000025                     _USBDeviceState:
   708                           	opt stack 0
   709  000025                     	ds	1
   710  000026                     _USBStatusStageEnabledFlag1:
   711                           	opt stack 0
   712  000026                     	ds	1
   713  000027                     _USBStatusStageEnabledFlag2:
   714                           	opt stack 0
   715  000027                     	ds	1
   716  000028                     _USBStatusStageTimeoutCounter:
   717                           	opt stack 0
   718  000028                     	ds	1
   719  000029                     _controlTransferState:
   720                           	opt stack 0
   721  000029                     	ds	1
   722  00002A                     _endpoint_number:
   723                           	opt stack 0
   724  00002A                     	ds	1
   725  00002B                     _shortPacketStatus:
   726                           	opt stack 0
   727  00002B                     	ds	1
   728  00002C                     _USBActiveConfiguration:
   729                           	opt stack 0
   730  00002C                     	ds	1
   731  00002D                     _USTATcopy:
   732                           	opt stack 0
   733  00002D                     	ds	1
   734                           tblptru	equ	0xFF8
   735                           tblptrh	equ	0xFF7
   736                           tblptrl	equ	0xFF6
   737                           tablat	equ	0xFF5
   738                           postinc0	equ	0xFEE
   739                           wreg	equ	0xFE8
   740                           postdec1	equ	0xFE5
   741                           fsr1h	equ	0xFE2
   742                           fsr1l	equ	0xFE1
   743                           
   744                           	psect	bssBANK0
   745  000060                     __pbssBANK0:
   746                           	opt stack 0
   747  000060                     _pBDTEntryOut:
   748                           	opt stack 0
   749  000060                     	ds	6
   750  000066                     _BaudRateGen:
   751                           	opt stack 0
   752  000066                     	ds	4
   753  00006A                     _ms:
   754                           	opt stack 0
   755  00006A                     	ds	4
   756  00006E                     _pCDCDst:
   757                           	opt stack 0
   758  00006E                     	ds	3
   759  000071                     _pCDCSrc:
   760                           	opt stack 0
   761  000071                     	ds	3
   762  000074                     USBCBSendResume@delay_count:
   763                           	opt stack 0
   764  000074                     	ds	2
   765  000076                     _CDCDataInHandle:
   766                           	opt stack 0
   767  000076                     	ds	2
   768  000078                     _CDCDataOutHandle:
   769                           	opt stack 0
   770  000078                     	ds	2
   771  00007A                     _pDst:
   772                           	opt stack 0
   773  00007A                     	ds	2
   774  00007C                     epoch_to_caltime@day_cache:
   775                           	opt stack 0
   776  00007C                     	ds	2
   777  00007E                     millis_timer@cnt:
   778                           	opt stack 0
   779  00007E                     	ds	2
   780  000080                     RTCC_task@prev_halfsec:
   781                           	opt stack 0
   782  000080                     	ds	1
   783  000081                     _USBBusIsSuspended:
   784                           	opt stack 0
   785  000081                     	ds	1
   786  000082                     _cdc_mem_type:
   787                           	opt stack 0
   788  000082                     	ds	1
   789  000083                     _cdc_rx_len:
   790                           	opt stack 0
   791  000083                     	ds	1
   792  000084                     _cdc_trf_state:
   793                           	opt stack 0
   794  000084                     	ds	1
   795  000085                     _cdc_tx_len:
   796                           	opt stack 0
   797  000085                     	ds	1
   798  000086                     _control_signal_bitmap:
   799                           	opt stack 0
   800  000086                     	ds	1
   801  000087                     _time_change_flag:
   802                           	opt stack 0
   803  000087                     	ds	1
   804  000088                     epoch_to_caltime@year_cache:
   805                           	opt stack 0
   806  000088                     	ds	1
   807  000089                     terminal_task@command_init:
   808                           	opt stack 0
   809  000089                     	ds	1
   810  00008A                     _now:
   811                           	opt stack 0
   812  00008A                     	ds	14
   813  000098                     _uart_rx:
   814                           	opt stack 0
   815  000098                     	ds	8
   816  0000A0                     _uart_tx:
   817                           	opt stack 0
   818  0000A0                     	ds	8
   819  0000A8                     _usb_rx:
   820                           	opt stack 0
   821  0000A8                     	ds	8
   822  0000B0                     _usb_tx:
   823                           	opt stack 0
   824  0000B0                     	ds	8
   825  0000B8                     terminal_task@command:
   826                           	opt stack 0
   827  0000B8                     	ds	8
   828  0000C0                     _line_coding:
   829                           	opt stack 0
   830  0000C0                     	ds	7
   831  0000C7                     _USBAlternateInterface:
   832                           	opt stack 0
   833  0000C7                     	ds	2
   834                           tblptru	equ	0xFF8
   835                           tblptrh	equ	0xFF7
   836                           tblptrl	equ	0xFF6
   837                           tablat	equ	0xFF5
   838                           postinc0	equ	0xFEE
   839                           wreg	equ	0xFE8
   840                           postdec1	equ	0xFE5
   841                           fsr1h	equ	0xFE2
   842                           fsr1l	equ	0xFE1
   843                           
   844                           	psect	dataBANK0
   845  0000FB                     __pdataBANK0:
   846                           	opt stack 0
   847  0000FB                     I2C_LCD_SetCursor@F8630:
   848                           	opt stack 0
   849  0000FB                     	ds	2
   850  0000FD                     epoch_to_caltime@month_cache:
   851                           	opt stack 0
   852  0000FD                     	ds	1
   853                           tblptru	equ	0xFF8
   854                           tblptrh	equ	0xFF7
   855                           tblptrl	equ	0xFF6
   856                           tablat	equ	0xFF5
   857                           postinc0	equ	0xFEE
   858                           wreg	equ	0xFE8
   859                           postdec1	equ	0xFE5
   860                           fsr1h	equ	0xFE2
   861                           fsr1l	equ	0xFE1
   862                           
   863                           	psect	bssBANK1
   864  000100                     __pbssBANK1:
   865                           	opt stack 0
   866  000100                     _cdc_notice:
   867                           	opt stack 0
   868  000100                     	ds	10
   869  00010A                     _cdc_data_rx:
   870                           	opt stack 0
   871  00010A                     	ds	64
   872  00014A                     _cdc_data_tx:
   873                           	opt stack 0
   874  00014A                     	ds	64
   875  00018A                     terminal_task@op0:
   876                           	opt stack 0
   877  00018A                     	ds	25
   878  0001A3                     terminal_task@op1:
   879                           	opt stack 0
   880  0001A3                     	ds	25
   881  0001BC                     terminal_task@op2:
   882                           	opt stack 0
   883  0001BC                     	ds	25
   884  0001D5                     terminal_task@op3:
   885                           	opt stack 0
   886  0001D5                     	ds	25
   887  0001EE                     _dummy_encapsulated_cmd_response:
   888                           	opt stack 0
   889  0001EE                     	ds	8
   890                           tblptru	equ	0xFF8
   891                           tblptrh	equ	0xFF7
   892                           tblptrl	equ	0xFF6
   893                           tablat	equ	0xFF5
   894                           postinc0	equ	0xFEE
   895                           wreg	equ	0xFE8
   896                           postdec1	equ	0xFE5
   897                           fsr1h	equ	0xFE2
   898                           fsr1l	equ	0xFE1
   899                           
   900                           	psect	bssBANK2
   901  000200                     __pbssBANK2:
   902                           	opt stack 0
   903  000200                     main_init@uartrx:
   904                           	opt stack 0
   905  000200                     	ds	100
   906  000264                     main_init@usbrx:
   907                           	opt stack 0
   908  000264                     	ds	100
   909                           tblptru	equ	0xFF8
   910                           tblptrh	equ	0xFF7
   911                           tblptrl	equ	0xFF6
   912                           tablat	equ	0xFF5
   913                           postinc0	equ	0xFEE
   914                           wreg	equ	0xFE8
   915                           postdec1	equ	0xFE5
   916                           fsr1h	equ	0xFE2
   917                           fsr1l	equ	0xFE1
   918                           
   919                           	psect	bssBIGRAMl
   920  0002C8                     __pbssBIGRAMl:
   921                           	opt stack 0
   922  0002C8                     main_init@uarttx:
   923                           	opt stack 0
   924  0002C8                     	ds	1000
   925  0006B0                     main_init@usbtx:
   926                           	opt stack 0
   927  0006B0                     	ds	1000
   928                           tblptru	equ	0xFF8
   929                           tblptrh	equ	0xFF7
   930                           tblptrl	equ	0xFF6
   931                           tablat	equ	0xFF5
   932                           postinc0	equ	0xFEE
   933                           wreg	equ	0xFE8
   934                           postdec1	equ	0xFE5
   935                           fsr1h	equ	0xFE2
   936                           fsr1l	equ	0xFE1
   937                           
   938                           	psect	cstackBANK0
   939  0000C9                     __pcstackBANK0:
   940                           	opt stack 0
   941  0000C9                     ??_timer0_init:
   942  0000C9                     ??_timer3_init:
   943  0000C9                     ??_I2C_IdleCheck:
   944  0000C9                     ??_x_to_d:
   945  0000C9                     ?_ringbuf_num:
   946                           	opt stack 0
   947  0000C9                     ?_USBTransferOnePacket:
   948                           	opt stack 0
   949  0000C9                     ?___awdiv:
   950                           	opt stack 0
   951  0000C9                     ?___awmod:
   952                           	opt stack 0
   953  0000C9                     ?___lldiv:
   954                           	opt stack 0
   955  0000C9                     timer1_init@clock_select:
   956                           	opt stack 0
   957  0000C9                     _is_usb_available$3421:
   958                           	opt stack 0
   959  0000C9                     USBTransferOnePacket@dir:
   960                           	opt stack 0
   961  0000C9                     ringbuf_init@rb:
   962                           	opt stack 0
   963  0000C9                     ringbuf_num@rb:
   964                           	opt stack 0
   965  0000C9                     putUSBUSART@data:
   966                           	opt stack 0
   967  0000C9                     ___awdiv@dividend:
   968                           	opt stack 0
   969  0000C9                     ___awmod@dividend:
   970                           	opt stack 0
   971  0000C9                     memset@p1:
   972                           	opt stack 0
   973  0000C9                     ___lldiv@dividend:
   974                           	opt stack 0
   975                           
   976                           ; 4 bytes @ 0x0
   977  0000C9                     	ds	1
   978  0000CA                     ??_timer1_init:
   979  0000CA                     I2C_IdleCheck@mask:
   980                           	opt stack 0
   981  0000CA                     timer0_init@prescaler:
   982                           	opt stack 0
   983  0000CA                     timer3_init@prescaler:
   984                           	opt stack 0
   985  0000CA                     x_to_d@hex:
   986                           	opt stack 0
   987  0000CA                     USBTransferOnePacket@data:
   988                           	opt stack 0
   989                           
   990                           ; 2 bytes @ 0x1
   991  0000CA                     	ds	1
   992  0000CB                     ??_ringbuf_num:
   993  0000CB                     I2C_Start@rw:
   994                           	opt stack 0
   995  0000CB                     I2C_Send@data:
   996                           	opt stack 0
   997  0000CB                     timer1_init@prescaler:
   998                           	opt stack 0
   999  0000CB                     putUSBUSART@length:
  1000                           	opt stack 0
  1001  0000CB                     ringbuf_init@internal_buf:
  1002                           	opt stack 0
  1003  0000CB                     RTCC_to_caltime@tm:
  1004                           	opt stack 0
  1005  0000CB                     ___awdiv@divisor:
  1006                           	opt stack 0
  1007  0000CB                     ___awmod@divisor:
  1008                           	opt stack 0
  1009  0000CB                     memset@c:
  1010                           	opt stack 0
  1011                           
  1012                           ; 2 bytes @ 0x2
  1013  0000CB                     	ds	1
  1014  0000CC                     I2C_Start@adrs:
  1015                           	opt stack 0
  1016  0000CC                     USBTransferOnePacket@len:
  1017                           	opt stack 0
  1018                           
  1019                           ; 1 bytes @ 0x3
  1020  0000CC                     	ds	1
  1021  0000CD                     RTCC_to_caltime@dumy:
  1022                           	opt stack 0
  1023  0000CD                     I2C_LCD_Command@c:
  1024                           	opt stack 0
  1025  0000CD                     USBTransferOnePacket@ep:
  1026                           	opt stack 0
  1027  0000CD                     ___awdiv@counter:
  1028                           	opt stack 0
  1029  0000CD                     ___awmod@counter:
  1030                           	opt stack 0
  1031  0000CD                     ringbuf_init@bufsize:
  1032                           	opt stack 0
  1033  0000CD                     I2C_LCD_Puts@s:
  1034                           	opt stack 0
  1035  0000CD                     memset@n:
  1036                           	opt stack 0
  1037  0000CD                     ___lldiv@divisor:
  1038                           	opt stack 0
  1039                           
  1040                           ; 4 bytes @ 0x4
  1041  0000CD                     	ds	1
  1042  0000CE                     I2C_LCD_Command@ans:
  1043                           	opt stack 0
  1044  0000CE                     ___awdiv@sign:
  1045                           	opt stack 0
  1046  0000CE                     ___awmod@sign:
  1047                           	opt stack 0
  1048  0000CE                     USBTransferOnePacket@handle:
  1049                           	opt stack 0
  1050                           
  1051                           ; 2 bytes @ 0x5
  1052  0000CE                     	ds	1
  1053  0000CF                     ??_I2C_LCD_Clear:
  1054  0000CF                     ??_I2C_LCD_Puts:
  1055  0000CF                     month_length@month:
  1056                           	opt stack 0
  1057  0000CF                     I2C_LCD_SetCursor@row:
  1058                           	opt stack 0
  1059  0000CF                     ___awdiv@quotient:
  1060                           	opt stack 0
  1061  0000CF                     memset@p:
  1062                           	opt stack 0
  1063                           
  1064                           ; 2 bytes @ 0x6
  1065  0000CF                     	ds	1
  1066  0000D0                     ??_I2C_LCD_init:
  1067  0000D0                     ??_CDCTxService:
  1068  0000D0                     ??_month_length:
  1069  0000D0                     I2C_LCD_SetCursor@row_offsets:
  1070                           	opt stack 0
  1071  0000D0                     I2C_LCD_Puts@ans:
  1072                           	opt stack 0
  1073  0000D0                     getsUSBUSART@buffer:
  1074                           	opt stack 0
  1075                           
  1076                           ; 2 bytes @ 0x7
  1077  0000D0                     	ds	1
  1078  0000D1                     d_to_x@dec:
  1079                           	opt stack 0
  1080  0000D1                     I2C_LCD_init@i:
  1081                           	opt stack 0
  1082  0000D1                     USBDeviceInit@i:
  1083                           	opt stack 0
  1084  0000D1                     ringbuf_pop@rb:
  1085                           	opt stack 0
  1086  0000D1                     _CDCTxService$5286:
  1087                           	opt stack 0
  1088  0000D1                     ___lldiv@quotient:
  1089                           	opt stack 0
  1090                           
  1091                           ; 4 bytes @ 0x8
  1092  0000D1                     	ds	1
  1093  0000D2                     I2C_LCD_SetCursor@col:
  1094                           	opt stack 0
  1095  0000D2                     I2C_LCD_init@i_3142:
  1096                           	opt stack 0
  1097  0000D2                     getsUSBUSART@len:
  1098                           	opt stack 0
  1099  0000D2                     caltime_to_RTCC@tm:
  1100                           	opt stack 0
  1101                           
  1102                           ; 2 bytes @ 0x9
  1103  0000D2                     	ds	1
  1104  0000D3                     ??_ringbuf_pop:
  1105  0000D3                     ??_getsUSBUSART:
  1106  0000D3                     CDCTxService@i:
  1107                           	opt stack 0
  1108                           
  1109                           ; 1 bytes @ 0xA
  1110  0000D3                     	ds	1
  1111  0000D4                     month_length@year:
  1112                           	opt stack 0
  1113  0000D4                     CDCTxService@byte_to_send:
  1114                           	opt stack 0
  1115  0000D4                     _getsUSBUSART$5238:
  1116                           	opt stack 0
  1117                           
  1118                           ; 2 bytes @ 0xB
  1119  0000D4                     	ds	1
  1120  0000D5                     ___lldiv@counter:
  1121                           	opt stack 0
  1122  0000D5                     put_string_usb@s:
  1123                           	opt stack 0
  1124                           
  1125                           ; 2 bytes @ 0xC
  1126  0000D5                     	ds	1
  1127  0000D6                     ?_get_string_usb:
  1128                           	opt stack 0
  1129  0000D6                     ?___lmul:
  1130                           	opt stack 0
  1131  0000D6                     get_string_usb@s:
  1132                           	opt stack 0
  1133  0000D6                     ___lmul@multiplier:
  1134                           	opt stack 0
  1135                           
  1136                           ; 4 bytes @ 0xD
  1137  0000D6                     	ds	1
  1138  0000D7                     ringbuf_pop@ret:
  1139                           	opt stack 0
  1140  0000D7                     put_string_usb@len:
  1141                           	opt stack 0
  1142                           
  1143                           ; 2 bytes @ 0xE
  1144  0000D7                     	ds	1
  1145  0000D8                     ringbuf_put@rb:
  1146                           	opt stack 0
  1147  0000D8                     get_string_usb@len:
  1148                           	opt stack 0
  1149                           
  1150                           ; 2 bytes @ 0xF
  1151  0000D8                     	ds	1
  1152  0000D9                     
  1153                           ; 0 bytes @ 0x10
  1154  0000D9                     	ds	1
  1155  0000DA                     ??_get_string_usb:
  1156  0000DA                     ringbuf_put@asciicode:
  1157                           	opt stack 0
  1158  0000DA                     ___lmul@multiplicand:
  1159                           	opt stack 0
  1160                           
  1161                           ; 4 bytes @ 0x11
  1162  0000DA                     	ds	1
  1163  0000DB                     ??_ringbuf_put:
  1164  0000DB                     get_string_usb@rx_len:
  1165                           	opt stack 0
  1166                           
  1167                           ; 2 bytes @ 0x12
  1168  0000DB                     	ds	3
  1169  0000DE                     ___lmul@product:
  1170                           	opt stack 0
  1171                           
  1172                           ; 4 bytes @ 0x15
  1173  0000DE                     	ds	1
  1174  0000DF                     USB_task@rx_len:
  1175                           	opt stack 0
  1176                           
  1177                           ; 2 bytes @ 0x16
  1178  0000DF                     	ds	2
  1179  0000E1                     USB_task@data:
  1180                           	opt stack 0
  1181                           
  1182                           ; 1 bytes @ 0x18
  1183  0000E1                     	ds	1
  1184  0000E2                     ?_get_quot_rem:
  1185                           	opt stack 0
  1186  0000E2                     get_quot_rem@quot:
  1187                           	opt stack 0
  1188  0000E2                     caltime_to_epoch@tm:
  1189                           	opt stack 0
  1190                           
  1191                           ; 2 bytes @ 0x19
  1192  0000E2                     	ds	2
  1193  0000E4                     ??_caltime_to_epoch:
  1194  0000E4                     get_quot_rem@div:
  1195                           	opt stack 0
  1196                           
  1197                           ; 1 bytes @ 0x1B
  1198  0000E4                     	ds	2
  1199  0000E6                     get_quot_rem@num:
  1200                           	opt stack 0
  1201                           
  1202                           ; 4 bytes @ 0x1D
  1203  0000E6                     	ds	2
  1204  0000E8                     caltime_to_epoch@year:
  1205                           	opt stack 0
  1206                           
  1207                           ; 1 bytes @ 0x1F
  1208  0000E8                     	ds	1
  1209  0000E9                     caltime_to_epoch@month_2389:
  1210                           	opt stack 0
  1211                           
  1212                           ; 1 bytes @ 0x20
  1213  0000E9                     	ds	1
  1214  0000EA                     epoch_to_caltime@tm:
  1215                           	opt stack 0
  1216  0000EA                     caltime_to_epoch@epoch:
  1217                           	opt stack 0
  1218                           
  1219                           ; 4 bytes @ 0x21
  1220  0000EA                     	ds	2
  1221  0000EC                     ??_epoch_to_caltime:
  1222                           
  1223                           ; 0 bytes @ 0x23
  1224  0000EC                     	ds	2
  1225  0000EE                     caltime_to_epoch@month:
  1226                           	opt stack 0
  1227  0000EE                     epoch_to_caltime@day_since_epoch:
  1228                           	opt stack 0
  1229                           
  1230                           ; 2 bytes @ 0x25
  1231  0000EE                     	ds	1
  1232  0000EF                     RTCC_from_RTCC@tm:
  1233                           	opt stack 0
  1234                           
  1235                           ; 2 bytes @ 0x26
  1236  0000EF                     	ds	1
  1237  0000F0                     epoch_to_caltime@day:
  1238                           	opt stack 0
  1239                           
  1240                           ; 2 bytes @ 0x27
  1241  0000F0                     	ds	1
  1242  0000F1                     
  1243                           ; 0 bytes @ 0x28
  1244  0000F1                     	ds	1
  1245  0000F2                     epoch_to_caltime@year:
  1246                           	opt stack 0
  1247                           
  1248                           ; 1 bytes @ 0x29
  1249  0000F2                     	ds	1
  1250  0000F3                     epoch_to_caltime@month:
  1251                           	opt stack 0
  1252                           
  1253                           ; 1 bytes @ 0x2A
  1254  0000F3                     	ds	1
  1255  0000F4                     epoch_to_caltime@num:
  1256                           	opt stack 0
  1257                           
  1258                           ; 4 bytes @ 0x2B
  1259  0000F4                     	ds	4
  1260  0000F8                     RTCC_from_epoch@tm:
  1261                           	opt stack 0
  1262                           
  1263                           ; 2 bytes @ 0x2F
  1264  0000F8                     	ds	2
  1265  0000FA                     ??_main:
  1266                           
  1267                           ; 0 bytes @ 0x31
  1268  0000FA                     	ds	1
  1269                           tblptru	equ	0xFF8
  1270                           tblptrh	equ	0xFF7
  1271                           tblptrl	equ	0xFF6
  1272                           tablat	equ	0xFF5
  1273                           postinc0	equ	0xFEE
  1274                           wreg	equ	0xFE8
  1275                           postdec1	equ	0xFE5
  1276                           fsr1h	equ	0xFE2
  1277                           fsr1l	equ	0xFE1
  1278                           
  1279                           	psect	cstackCOMRAM
  1280  00002E                     __pcstackCOMRAM:
  1281                           	opt stack 0
  1282  00002E                     ??_USBStdGetDscHandler:
  1283  00002E                     ??_USBStdGetStatusHandler:
  1284  00002E                     ?i2_ringbuf_num:
  1285                           	opt stack 0
  1286  00002E                     ?i2_USBTransferOnePacket:
  1287                           	opt stack 0
  1288  00002E                     USBConfigureEndpoint@direction:
  1289                           	opt stack 0
  1290  00002E                     USBCtrlTrfTxService@byteToSend:
  1291                           	opt stack 0
  1292  00002E                     USBCtrlTrfRxService@i:
  1293                           	opt stack 0
  1294  00002E                     i2USBTransferOnePacket@dir:
  1295                           	opt stack 0
  1296  00002E                     i2ringbuf_num@rb:
  1297                           	opt stack 0
  1298  00002E                     i2memset@p1:
  1299                           	opt stack 0
  1300                           
  1301                           ; 2 bytes @ 0x0
  1302  00002E                     	ds	1
  1303  00002F                     ??_USBConfigureEndpoint:
  1304  00002F                     USBCtrlTrfRxService@byteToRead:
  1305                           	opt stack 0
  1306  00002F                     USBCtrlTrfInHandler@lastDTS:
  1307                           	opt stack 0
  1308  00002F                     USBStdGetStatusHandler@p:
  1309                           	opt stack 0
  1310  00002F                     i2USBTransferOnePacket@data:
  1311                           	opt stack 0
  1312                           
  1313                           ; 2 bytes @ 0x1
  1314  00002F                     	ds	1
  1315  000030                     ??i2_ringbuf_num:
  1316  000030                     i2memset@c:
  1317                           	opt stack 0
  1318                           
  1319                           ; 2 bytes @ 0x2
  1320  000030                     	ds	1
  1321  000031                     i2USBTransferOnePacket@len:
  1322                           	opt stack 0
  1323                           
  1324                           ; 1 bytes @ 0x3
  1325  000031                     	ds	1
  1326  000032                     i2USBTransferOnePacket@ep:
  1327                           	opt stack 0
  1328  000032                     i2memset@n:
  1329                           	opt stack 0
  1330                           
  1331                           ; 2 bytes @ 0x4
  1332  000032                     	ds	1
  1333  000033                     USBConfigureEndpoint@EPNum:
  1334                           	opt stack 0
  1335  000033                     i2USBTransferOnePacket@handle:
  1336                           	opt stack 0
  1337                           
  1338                           ; 2 bytes @ 0x5
  1339  000033                     	ds	1
  1340  000034                     USBConfigureEndpoint@handle:
  1341                           	opt stack 0
  1342  000034                     i2memset@p:
  1343                           	opt stack 0
  1344                           
  1345                           ; 2 bytes @ 0x6
  1346  000034                     	ds	2
  1347  000036                     USBEnableEndpoint@options:
  1348                           	opt stack 0
  1349  000036                     i2USBDeviceInit@i:
  1350                           	opt stack 0
  1351  000036                     i2ringbuf_put@rb:
  1352                           	opt stack 0
  1353  000036                     i2ringbuf_pop@rb:
  1354                           	opt stack 0
  1355                           
  1356                           ; 2 bytes @ 0x8
  1357  000036                     	ds	1
  1358  000037                     USBEnableEndpoint@p:
  1359                           	opt stack 0
  1360                           
  1361                           ; 2 bytes @ 0x9
  1362  000037                     	ds	1
  1363  000038                     ??i2_ringbuf_pop:
  1364  000038                     i2ringbuf_put@asciicode:
  1365                           	opt stack 0
  1366                           
  1367                           ; 1 bytes @ 0xA
  1368  000038                     	ds	1
  1369  000039                     ??i2_ringbuf_put:
  1370  000039                     USBEnableEndpoint@ep:
  1371                           	opt stack 0
  1372                           
  1373                           ; 1 bytes @ 0xB
  1374  000039                     	ds	1
  1375  00003A                     USER_USB_CALLBACK_EVENT_HANDLER@event:
  1376                           	opt stack 0
  1377                           
  1378                           ; 2 bytes @ 0xC
  1379  00003A                     	ds	2
  1380  00003C                     i2ringbuf_pop@ret:
  1381                           	opt stack 0
  1382  00003C                     USER_USB_CALLBACK_EVENT_HANDLER@pdata:
  1383                           	opt stack 0
  1384                           
  1385                           ; 2 bytes @ 0xE
  1386  00003C                     	ds	1
  1387  00003D                     UART_ISR@ascii:
  1388                           	opt stack 0
  1389                           
  1390                           ; 1 bytes @ 0xF
  1391  00003D                     	ds	1
  1392  00003E                     USER_USB_CALLBACK_EVENT_HANDLER@size:
  1393                           	opt stack 0
  1394                           
  1395                           ; 2 bytes @ 0x10
  1396  00003E                     	ds	2
  1397  000040                     ??_USER_USB_CALLBACK_EVENT_HANDLER:
  1398                           
  1399                           ; 0 bytes @ 0x12
  1400  000040                     	ds	2
  1401  000042                     ??_USBStdFeatureReqHandler:
  1402  000042                     USBStdSetCfgHandler@i:
  1403                           	opt stack 0
  1404                           
  1405                           ; 1 bytes @ 0x14
  1406  000042                     	ds	1
  1407  000043                     USBStdFeatureReqHandler@pUEP:
  1408                           	opt stack 0
  1409                           
  1410                           ; 2 bytes @ 0x15
  1411  000043                     	ds	2
  1412  000045                     USBStdFeatureReqHandler@current_ep_data:
  1413                           	opt stack 0
  1414                           
  1415                           ; 1 bytes @ 0x17
  1416  000045                     	ds	1
  1417  000046                     USBStdFeatureReqHandler@p:
  1418                           	opt stack 0
  1419                           
  1420                           ; 2 bytes @ 0x18
  1421  000046                     	ds	2
  1422  000048                     ??_USBCtrlEPService:
  1423  000048                     
  1424                           ; 0 bytes @ 0x1A
  1425  000048                     	ds	2
  1426  00004A                     USBCtrlEPService@setup_cnt:
  1427                           	opt stack 0
  1428                           
  1429                           ; 1 bytes @ 0x1C
  1430  00004A                     	ds	1
  1431  00004B                     USBDeviceTasks@i:
  1432                           	opt stack 0
  1433                           
  1434                           ; 1 bytes @ 0x1D
  1435  00004B                     	ds	1
  1436  00004C                     ??_ISR:
  1437                           
  1438                           ; 0 bytes @ 0x1E
  1439  00004C                     	ds	15
  1440                           tblptru	equ	0xFF8
  1441                           tblptrh	equ	0xFF7
  1442                           tblptrl	equ	0xFF6
  1443                           tablat	equ	0xFF5
  1444                           postinc0	equ	0xFEE
  1445                           wreg	equ	0xFE8
  1446                           postdec1	equ	0xFE5
  1447                           fsr1h	equ	0xFE2
  1448                           fsr1l	equ	0xFE1
  1449                           
  1450 ;;
  1451 ;;Main: autosize = 0, tempsize = 1, incstack = 0, save=0
  1452 ;;
  1453 ;; *************** function _main *****************
  1454 ;; Defined at:
  1455 ;;		line 83 in file "PIC18F27J53-USB05.c"
  1456 ;; Parameters:    Size  Location     Type
  1457 ;;		None
  1458 ;; Auto vars:     Size  Location     Type
  1459 ;;		None
  1460 ;; Return value:  Size  Location     Type
  1461 ;;                  2  103[None  ] int 
  1462 ;; Registers used:
  1463 ;;		wreg, fsr1l, fsr1h, fsr2l, fsr2h, status,2, status,0, tblptrl, tblptrh, tblptru, prodl, prodh, cstack
  1464 ;; Tracked objects:
  1465 ;;		On entry : 0/0
  1466 ;;		On exit  : 0/0
  1467 ;;		Unchanged: 0/0
  1468 ;; Data sizes:     COMRAM   BANK0   BANK1   BANK2   BANK3   BANK4   BANK5   BANK6   BANK7   BANK8   BANK9  BANK10  BANK1
      +1  BANK12  BANK13  BANK14
  1469 ;;      Params:         0       0       0       0       0       0       0       0       0       0       0       0       
      +0       0       0       0
  1470 ;;      Locals:         0       0       0       0       0       0       0       0       0       0       0       0       
      +0       0       0       0
  1471 ;;      Temps:          0       1       0       0       0       0       0       0       0       0       0       0       
      +0       0       0       0
  1472 ;;      Totals:         0       1       0       0       0       0       0       0       0       0       0       0       
      +0       0       0       0
  1473 ;;Total ram usage:        1 bytes
  1474 ;; Hardware stack levels required when called:   17
  1475 ;; This function calls:
  1476 ;;		_I2C_LCD_Clear
  1477 ;;		_I2C_LCD_Puts
  1478 ;;		_I2C_LCD_SetCursor
  1479 ;;		_RTCC_from_RTCC
  1480 ;;		_RTCC_from_epoch
  1481 ;;		_RTCC_task
  1482 ;;		_UART_task
  1483 ;;		_USB_task
  1484 ;;		_main_init
  1485 ;;		_ringbuf_num
  1486 ;;		_ringbuf_pop
  1487 ;;		_ringbuf_put
  1488 ;; This function is called by:
  1489 ;;		Startup code after reset
  1490 ;; This function uses a non-reentrant model
  1491 ;;
  1492                           
  1493                           	psect	text0
  1494  0109E0                     __ptext0:
  1495                           	opt stack 0
  1496  0109E0                     _main:
  1497                           	opt stack 14
  1498                           
  1499                           ;PIC18F27J53-USB05.c: 84: main_init();
  1500                           
  1501                           ;incstack = 0
  1502  0109E0  EC5C  F089         	call	_main_init	;wreg free
  1503                           
  1504                           ;PIC18F27J53-USB05.c: 86: RTCC_from_RTCC(&now);
  1505  0109E4  0E8A               	movlw	low _now
  1506  0109E6  0100               	movlb	0	; () banked
  1507  0109E8  6FEF               	movwf	RTCC_from_RTCC@tm& (0+255),b
  1508  0109EA  0E00               	movlw	high _now
  1509  0109EC  0100               	movlb	0	; () banked
  1510  0109EE  6FF0               	movwf	(RTCC_from_RTCC@tm+1)& (0+255),b
  1511  0109F0  EC75  F097         	call	_RTCC_from_RTCC	;wreg free
  1512                           
  1513                           ;PIC18F27J53-USB05.c: 87: if (now.DD == 0) {
  1514  0109F4  0100               	movlb	0	; () banked
  1515  0109F6  5192               	movf	(_now+8)& (0+255),w,b
  1516  0109F8  A4D8               	btfss	status,2,c
  1517  0109FA  D011               	goto	l8290
  1518                           
  1519                           ; BSR set to: 0
  1520                           ;PIC18F27J53-USB05.c: 88: now.epoch = 0;
  1521  0109FC  0E00               	movlw	0
  1522  0109FE  0100               	movlb	0	; () banked
  1523  010A00  6F8A               	movwf	_now& (0+255),b
  1524  010A02  0E00               	movlw	0
  1525  010A04  6F8B               	movwf	(_now+1)& (0+255),b
  1526  010A06  0E00               	movlw	0
  1527  010A08  6F8C               	movwf	(_now+2)& (0+255),b
  1528  010A0A  0E00               	movlw	0
  1529  010A0C  6F8D               	movwf	(_now+3)& (0+255),b
  1530                           
  1531                           ; BSR set to: 0
  1532                           ;PIC18F27J53-USB05.c: 89: RTCC_from_epoch(&now);
  1533  010A0E  0E8A               	movlw	low _now
  1534  010A10  0100               	movlb	0	; () banked
  1535  010A12  6FF8               	movwf	RTCC_from_epoch@tm& (0+255),b
  1536  010A14  0E00               	movlw	high _now
  1537  010A16  0100               	movlb	0	; () banked
  1538  010A18  6FF9               	movwf	(RTCC_from_epoch@tm+1)& (0+255),b
  1539  010A1A  EC82  F097         	call	_RTCC_from_epoch	;wreg free
  1540  010A1E                     l8290:
  1541                           
  1542                           ;PIC18F27J53-USB05.c: 90: }
  1543                           ;PIC18F27J53-USB05.c: 92: I2C_LCD_Clear();
  1544  010A1E  EC68  F097         	call	_I2C_LCD_Clear	;wreg free
  1545                           
  1546                           ;PIC18F27J53-USB05.c: 93: I2C_LCD_SetCursor(0, 0);
  1547  010A22  0E00               	movlw	0
  1548  010A24  0100               	movlb	0	; () banked
  1549  010A26  6FCF               	movwf	I2C_LCD_SetCursor@row& (0+255),b
  1550  010A28  0E00               	movlw	0
  1551  010A2A  ECA4  F096         	call	_I2C_LCD_SetCursor
  1552                           
  1553                           ;PIC18F27J53-USB05.c: 94: I2C_LCD_Puts("18F27J53");
  1554  010A2E  0EA1               	movlw	low STR_1
  1555  010A30  0100               	movlb	0	; () banked
  1556  010A32  6FCD               	movwf	I2C_LCD_Puts@s& (0+255),b
  1557  010A34  0EFF               	movlw	high STR_1
  1558  010A36  0100               	movlb	0	; () banked
  1559  010A38  6FCE               	movwf	(I2C_LCD_Puts@s+1)& (0+255),b
  1560  010A3A  EC48  F094         	call	_I2C_LCD_Puts	;wreg free
  1561                           
  1562                           ;PIC18F27J53-USB05.c: 95: I2C_LCD_SetCursor(0, 1);
  1563  010A3E  0E01               	movlw	1
  1564  010A40  0100               	movlb	0	; () banked
  1565  010A42  6FCF               	movwf	I2C_LCD_SetCursor@row& (0+255),b
  1566  010A44  0E00               	movlw	0
  1567  010A46  ECA4  F096         	call	_I2C_LCD_SetCursor
  1568                           
  1569                           ;PIC18F27J53-USB05.c: 96: I2C_LCD_Puts("USB UART");
  1570  010A4A  0EAA               	movlw	low STR_2
  1571  010A4C  0100               	movlb	0	; () banked
  1572  010A4E  6FCD               	movwf	I2C_LCD_Puts@s& (0+255),b
  1573  010A50  0EFF               	movlw	high STR_2
  1574  010A52  0100               	movlb	0	; () banked
  1575  010A54  6FCE               	movwf	(I2C_LCD_Puts@s+1)& (0+255),b
  1576  010A56  EC48  F094         	call	_I2C_LCD_Puts	;wreg free
  1577  010A5A  D06A               	goto	l8322
  1578  010A5C                     l8302:
  1579                           
  1580                           ;PIC18F27J53-USB05.c: 101: INTCONbits.GIE = 0;
  1581  010A5C  9EF2               	bcf	intcon,7,c	;volatile
  1582                           
  1583                           ;PIC18F27J53-USB05.c: 103: USB_task();
  1584  010A5E  ECD1  F092         	call	_USB_task	;wreg free
  1585                           
  1586                           ;PIC18F27J53-USB05.c: 104: UART_task();
  1587  010A62  EC1D  F097         	call	_UART_task	;wreg free
  1588                           
  1589                           ;PIC18F27J53-USB05.c: 105: RTCC_task();
  1590  010A66  EC6C  F095         	call	_RTCC_task	;wreg free
  1591                           
  1592                           ;PIC18F27J53-USB05.c: 107: if (ringbuf_num(&usb_rx)) {
  1593  010A6A  0EA8               	movlw	low _usb_rx
  1594  010A6C  0100               	movlb	0	; () banked
  1595  010A6E  6FC9               	movwf	ringbuf_num@rb& (0+255),b
  1596  010A70  0E00               	movlw	high _usb_rx
  1597  010A72  0100               	movlb	0	; () banked
  1598  010A74  6FCA               	movwf	(ringbuf_num@rb+1)& (0+255),b
  1599  010A76  EC70  F088         	call	_ringbuf_num	;wreg free
  1600  010A7A  0100               	movlb	0	; () banked
  1601  010A7C  51C9               	movf	?_ringbuf_num& (0+255),w,b
  1602  010A7E  0100               	movlb	0	; () banked
  1603  010A80  11CA               	iorwf	(?_ringbuf_num+1)& (0+255),w,b
  1604  010A82  B4D8               	btfsc	status,2,c
  1605  010A84  D023               	goto	l8316
  1606                           
  1607                           ; BSR set to: 0
  1608                           ;PIC18F27J53-USB05.c: 108: ringbuf_put(&usb_tx, ringbuf_pop(&usb_rx));
  1609  010A86  0EB0               	movlw	low _usb_tx
  1610  010A88  0100               	movlb	0	; () banked
  1611  010A8A  6FD8               	movwf	ringbuf_put@rb& (0+255),b
  1612  010A8C  0E00               	movlw	high _usb_tx
  1613  010A8E  0100               	movlb	0	; () banked
  1614  010A90  6FD9               	movwf	(ringbuf_put@rb+1)& (0+255),b
  1615  010A92  0EA8               	movlw	low _usb_rx
  1616  010A94  0100               	movlb	0	; () banked
  1617  010A96  6FD1               	movwf	ringbuf_pop@rb& (0+255),b
  1618  010A98  0E00               	movlw	high _usb_rx
  1619  010A9A  0100               	movlb	0	; () banked
  1620  010A9C  6FD2               	movwf	(ringbuf_pop@rb+1)& (0+255),b
  1621  010A9E  EC92  F08D         	call	_ringbuf_pop	;wreg free
  1622  010AA2  0100               	movlb	0	; () banked
  1623  010AA4  6FDA               	movwf	ringbuf_put@asciicode& (0+255),b
  1624  010AA6  ECEE  F08B         	call	_ringbuf_put	;wreg free
  1625                           
  1626                           ;PIC18F27J53-USB05.c: 109: LATBbits.LATB7 = !LATBbits.LATB7;
  1627  010AAA  BE8A               	btfsc	3978,7,c	;volatile
  1628  010AAC  D004               	goto	u8050
  1629  010AAE  0100               	movlb	0	; () banked
  1630  010AB0  6BFA               	clrf	??_main& (0+255),b
  1631  010AB2  2BFA               	incf	??_main& (0+255),f,b
  1632  010AB4  D002               	goto	u8068
  1633  010AB6                     u8050:
  1634  010AB6  0100               	movlb	0	; () banked
  1635  010AB8  6BFA               	clrf	??_main& (0+255),b
  1636  010ABA                     u8068:
  1637  010ABA  0100               	movlb	0	; () banked
  1638  010ABC  33FA               	rrcf	??_main& (0+255),f,b
  1639  010ABE  33FA               	rrcf	??_main& (0+255),f,b
  1640  010AC0  508A               	movf	3978,w,c	;volatile
  1641  010AC2  0100               	movlb	0	; () banked
  1642  010AC4  19FA               	xorwf	??_main& (0+255),w,b
  1643  010AC6  0B7F               	andlw	-129
  1644  010AC8  19FA               	xorwf	??_main& (0+255),w,b
  1645  010ACA  6E8A               	movwf	3978,c	;volatile
  1646  010ACC                     l8316:
  1647                           
  1648                           ; BSR set to: 0
  1649                           ;PIC18F27J53-USB05.c: 110: }
  1650                           ;PIC18F27J53-USB05.c: 111: if (ringbuf_num(&uart_rx)) {
  1651  010ACC  0E98               	movlw	low _uart_rx
  1652  010ACE  0100               	movlb	0	; () banked
  1653  010AD0  6FC9               	movwf	ringbuf_num@rb& (0+255),b
  1654  010AD2  0E00               	movlw	high _uart_rx
  1655  010AD4  0100               	movlb	0	; () banked
  1656  010AD6  6FCA               	movwf	(ringbuf_num@rb+1)& (0+255),b
  1657  010AD8  EC70  F088         	call	_ringbuf_num	;wreg free
  1658  010ADC  0100               	movlb	0	; () banked
  1659  010ADE  51C9               	movf	?_ringbuf_num& (0+255),w,b
  1660  010AE0  0100               	movlb	0	; () banked
  1661  010AE2  11CA               	iorwf	(?_ringbuf_num+1)& (0+255),w,b
  1662  010AE4  B4D8               	btfsc	status,2,c
  1663  010AE6  D024               	goto	l8322
  1664                           
  1665                           ; BSR set to: 0
  1666                           ;PIC18F27J53-USB05.c: 112: ringbuf_put(&uart_tx, ringbuf_pop(&uart_rx));
  1667  010AE8  0EA0               	movlw	low _uart_tx
  1668  010AEA  0100               	movlb	0	; () banked
  1669  010AEC  6FD8               	movwf	ringbuf_put@rb& (0+255),b
  1670  010AEE  0E00               	movlw	high _uart_tx
  1671  010AF0  0100               	movlb	0	; () banked
  1672  010AF2  6FD9               	movwf	(ringbuf_put@rb+1)& (0+255),b
  1673  010AF4  0E98               	movlw	low _uart_rx
  1674  010AF6  0100               	movlb	0	; () banked
  1675  010AF8  6FD1               	movwf	ringbuf_pop@rb& (0+255),b
  1676  010AFA  0E00               	movlw	high _uart_rx
  1677  010AFC  0100               	movlb	0	; () banked
  1678  010AFE  6FD2               	movwf	(ringbuf_pop@rb+1)& (0+255),b
  1679  010B00  EC92  F08D         	call	_ringbuf_pop	;wreg free
  1680  010B04  0100               	movlb	0	; () banked
  1681  010B06  6FDA               	movwf	ringbuf_put@asciicode& (0+255),b
  1682  010B08  ECEE  F08B         	call	_ringbuf_put	;wreg free
  1683                           
  1684                           ;PIC18F27J53-USB05.c: 113: LATBbits.LATB6 = !LATBbits.LATB6;
  1685  010B0C  BC8A               	btfsc	3978,6,c	;volatile
  1686  010B0E  D004               	goto	u8080
  1687  010B10  0100               	movlb	0	; () banked
  1688  010B12  6BFA               	clrf	??_main& (0+255),b
  1689  010B14  2BFA               	incf	??_main& (0+255),f,b
  1690  010B16  D002               	goto	u8098
  1691  010B18                     u8080:
  1692  010B18  0100               	movlb	0	; () banked
  1693  010B1A  6BFA               	clrf	??_main& (0+255),b
  1694  010B1C                     u8098:
  1695  010B1C  0100               	movlb	0	; () banked
  1696  010B1E  3BFA               	swapf	??_main& (0+255),f,b
  1697  010B20  47FA               	rlncf	??_main& (0+255),f,b
  1698  010B22  47FA               	rlncf	??_main& (0+255),f,b
  1699  010B24  508A               	movf	3978,w,c	;volatile
  1700  010B26  0100               	movlb	0	; () banked
  1701  010B28  19FA               	xorwf	??_main& (0+255),w,b
  1702  010B2A  0BBF               	andlw	-65
  1703  010B2C  19FA               	xorwf	??_main& (0+255),w,b
  1704  010B2E  6E8A               	movwf	3978,c	;volatile
  1705  010B30                     l8322:
  1706                           
  1707                           ; BSR set to: 0
  1708                           ;PIC18F27J53-USB05.c: 114: }
  1709                           ;PIC18F27J53-USB05.c: 116: INTCONbits.GIE = 1;
  1710  010B30  8EF2               	bsf	intcon,7,c	;volatile
  1711                           
  1712                           ; BSR set to: 0
  1713  010B32  D794               	goto	l8302
  1714  010B34                     __end_of_main:
  1715                           	opt stack 0
  1716                           tblptru	equ	0xFF8
  1717                           tblptrh	equ	0xFF7
  1718                           tblptrl	equ	0xFF6
  1719                           tablat	equ	0xFF5
  1720                           intcon	equ	0xFF2
  1721                           postinc0	equ	0xFEE
  1722                           wreg	equ	0xFE8
  1723                           postdec1	equ	0xFE5
  1724                           fsr1h	equ	0xFE2
  1725                           fsr1l	equ	0xFE1
  1726                           status	equ	0xFD8
  1727                           
  1728 ;; *************** function _main_init *****************
  1729 ;; Defined at:
  1730 ;;		line 54 in file "PIC18F27J53-USB05.c"
  1731 ;; Parameters:    Size  Location     Type
  1732 ;;		None
  1733 ;; Auto vars:     Size  Location     Type
  1734 ;;		None
  1735 ;; Return value:  Size  Location     Type
  1736 ;;		None               void
  1737 ;; Registers used:
  1738 ;;		wreg, fsr2l, fsr2h, status,2, status,0, prodl, prodh, cstack
  1739 ;; Tracked objects:
  1740 ;;		On entry : 0/0
  1741 ;;		On exit  : 0/0
  1742 ;;		Unchanged: 0/0
  1743 ;; Data sizes:     COMRAM   BANK0   BANK1   BANK2   BANK3   BANK4   BANK5   BANK6   BANK7   BANK8   BANK9  BANK10  BANK1
      +1  BANK12  BANK13  BANK14
  1744 ;;      Params:         0       0       0       0       0       0       0       0       0       0       0       0       
      +0       0       0       0
  1745 ;;      Locals:         0       0       0       0       0       0       0       0       0       0       0       0       
      +0       0       0       0
  1746 ;;      Temps:          0       0       0       0       0       0       0       0       0       0       0       0       
      +0       0       0       0
  1747 ;;      Totals:         0       0       0       0       0       0       0       0       0       0       0       0       
      +0       0       0       0
  1748 ;;Total ram usage:        0 bytes
  1749 ;; Hardware stack levels used:    1
  1750 ;; Hardware stack levels required when called:   16
  1751 ;; This function calls:
  1752 ;;		_I2C_LCD_init
  1753 ;;		_I2C_init
  1754 ;;		_OSC_init
  1755 ;;		_RTCC_init
  1756 ;;		_UART_init
  1757 ;;		_USB_init
  1758 ;;		_ringbuf_init
  1759 ;;		_timer0_init
  1760 ;;		_timer1_init
  1761 ;;		_timer3_init
  1762 ;; This function is called by:
  1763 ;;		_main
  1764 ;; This function uses a non-reentrant model
  1765 ;;
  1766                           
  1767                           	psect	text1
  1768  0112B8                     __ptext1:
  1769                           	opt stack 0
  1770  0112B8                     _main_init:
  1771                           	opt stack 14
  1772                           
  1773                           ;PIC18F27J53-USB05.c: 55: OSC_init();
  1774                           
  1775                           ; BSR set to: 0
  1776                           ;incstack = 0
  1777  0112B8  ECA4  F097         	call	_OSC_init	;wreg free
  1778                           
  1779                           ;PIC18F27J53-USB05.c: 56: TRISA = 0b00010000;
  1780  0112BC  0E10               	movlw	16
  1781  0112BE  6E92               	movwf	3986,c	;volatile
  1782                           
  1783                           ;PIC18F27J53-USB05.c: 57: TRISB = 0b00110001;
  1784  0112C0  0E31               	movlw	49
  1785  0112C2  6E93               	movwf	3987,c	;volatile
  1786                           
  1787                           ;PIC18F27J53-USB05.c: 58: TRISC = 0b10111010;
  1788  0112C4  0EBA               	movlw	186
  1789  0112C6  6E94               	movwf	3988,c	;volatile
  1790                           
  1791                           ;PIC18F27J53-USB05.c: 59: ANCON0 = 0b11111111;
  1792  0112C8  010F               	movlb	15	; () banked
  1793  0112CA  6948               	setf	72,b	;volatile
  1794                           
  1795                           ; BSR set to: 15
  1796                           ;PIC18F27J53-USB05.c: 60: ANCON1 = 0b00011111;
  1797  0112CC  0E1F               	movlw	31
  1798  0112CE  010F               	movlb	15	; () banked
  1799  0112D0  6F49               	movwf	73,b	;volatile
  1800                           
  1801                           ; BSR set to: 15
  1802                           ;PIC18F27J53-USB05.c: 61: INTCON2bits.RBPU = 0;
  1803  0112D2  9EF1               	bcf	intcon2,7,c	;volatile
  1804                           
  1805                           ; BSR set to: 15
  1806                           ;PIC18F27J53-USB05.c: 63: timer0_init(6);
  1807  0112D4  0E06               	movlw	6
  1808  0112D6  ECA8  F095         	call	_timer0_init
  1809                           
  1810                           ;PIC18F27J53-USB05.c: 64: timer1_init(0, 2);
  1811  0112DA  0E02               	movlw	2
  1812  0112DC  0100               	movlb	0	; () banked
  1813  0112DE  6FC9               	movwf	timer1_init@clock_select& (0+255),b
  1814  0112E0  0E00               	movlw	0
  1815  0112E2  ECD5  F094         	call	_timer1_init
  1816                           
  1817                           ;PIC18F27J53-USB05.c: 65: timer3_init(2);
  1818  0112E6  0E02               	movlw	2
  1819  0112E8  EC8E  F096         	call	_timer3_init
  1820                           
  1821                           ;PIC18F27J53-USB05.c: 66: I2C_init();
  1822  0112EC  EC9B  F097         	call	_I2C_init	;wreg free
  1823                           
  1824                           ;PIC18F27J53-USB05.c: 67: I2C_LCD_init();
  1825  0112F0  EC18  F093         	call	_I2C_LCD_init	;wreg free
  1826                           
  1827                           ;PIC18F27J53-USB05.c: 68: RTCC_init();
  1828  0112F4  EC30  F096         	call	_RTCC_init	;wreg free
  1829                           
  1830                           ;PIC18F27J53-USB05.c: 70: USB_init();
  1831  0112F8  EC4C  F097         	call	_USB_init	;wreg free
  1832                           
  1833                           ;PIC18F27J53-USB05.c: 71: static uint8_t usbtx[1000];
  1834                           ;PIC18F27J53-USB05.c: 72: ringbuf_init(&usb_tx, usbtx, sizeof (usbtx));
  1835  0112FC  0EB0               	movlw	low _usb_tx
  1836  0112FE  0100               	movlb	0	; () banked
  1837  011300  6FC9               	movwf	ringbuf_init@rb& (0+255),b
  1838  011302  0E00               	movlw	high _usb_tx
  1839  011304  0100               	movlb	0	; () banked
  1840  011306  6FCA               	movwf	(ringbuf_init@rb+1)& (0+255),b
  1841  011308  0EB0               	movlw	low main_init@usbtx
  1842  01130A  0100               	movlb	0	; () banked
  1843  01130C  6FCB               	movwf	ringbuf_init@internal_buf& (0+255),b
  1844  01130E  0E06               	movlw	high main_init@usbtx
  1845  011310  0100               	movlb	0	; () banked
  1846  011312  6FCC               	movwf	(ringbuf_init@internal_buf+1)& (0+255),b
  1847  011314  0E03               	movlw	3
  1848  011316  0100               	movlb	0	; () banked
  1849  011318  6FCE               	movwf	(ringbuf_init@bufsize+1)& (0+255),b
  1850  01131A  0EE8               	movlw	232
  1851  01131C  6FCD               	movwf	ringbuf_init@bufsize& (0+255),b
  1852  01131E  ECAB  F094         	call	_ringbuf_init	;wreg free
  1853                           
  1854                           ;PIC18F27J53-USB05.c: 73: static uint8_t usbrx[100];
  1855                           ;PIC18F27J53-USB05.c: 74: ringbuf_init(&usb_rx, usbrx, sizeof (usbrx));
  1856  011322  0EA8               	movlw	low _usb_rx
  1857  011324  0100               	movlb	0	; () banked
  1858  011326  6FC9               	movwf	ringbuf_init@rb& (0+255),b
  1859  011328  0E00               	movlw	high _usb_rx
  1860  01132A  0100               	movlb	0	; () banked
  1861  01132C  6FCA               	movwf	(ringbuf_init@rb+1)& (0+255),b
  1862  01132E  0E64               	movlw	low main_init@usbrx
  1863  011330  0100               	movlb	0	; () banked
  1864  011332  6FCB               	movwf	ringbuf_init@internal_buf& (0+255),b
  1865  011334  0E02               	movlw	high main_init@usbrx
  1866  011336  0100               	movlb	0	; () banked
  1867  011338  6FCC               	movwf	(ringbuf_init@internal_buf+1)& (0+255),b
  1868  01133A  0E00               	movlw	0
  1869  01133C  0100               	movlb	0	; () banked
  1870  01133E  6FCE               	movwf	(ringbuf_init@bufsize+1)& (0+255),b
  1871  011340  0E64               	movlw	100
  1872  011342  6FCD               	movwf	ringbuf_init@bufsize& (0+255),b
  1873  011344  ECAB  F094         	call	_ringbuf_init	;wreg free
  1874                           
  1875                           ;PIC18F27J53-USB05.c: 76: UART_init();
  1876  011348  EC0D  F097         	call	_UART_init	;wreg free
  1877                           
  1878                           ;PIC18F27J53-USB05.c: 77: static uint8_t uarttx[1000];
  1879                           ;PIC18F27J53-USB05.c: 78: ringbuf_init(&uart_tx, uarttx, sizeof (uarttx));
  1880  01134C  0EA0               	movlw	low _uart_tx
  1881  01134E  0100               	movlb	0	; () banked
  1882  011350  6FC9               	movwf	ringbuf_init@rb& (0+255),b
  1883  011352  0E00               	movlw	high _uart_tx
  1884  011354  0100               	movlb	0	; () banked
  1885  011356  6FCA               	movwf	(ringbuf_init@rb+1)& (0+255),b
  1886  011358  0EC8               	movlw	low main_init@uarttx
  1887  01135A  0100               	movlb	0	; () banked
  1888  01135C  6FCB               	movwf	ringbuf_init@internal_buf& (0+255),b
  1889  01135E  0E02               	movlw	high main_init@uarttx
  1890  011360  0100               	movlb	0	; () banked
  1891  011362  6FCC               	movwf	(ringbuf_init@internal_buf+1)& (0+255),b
  1892  011364  0E03               	movlw	3
  1893  011366  0100               	movlb	0	; () banked
  1894  011368  6FCE               	movwf	(ringbuf_init@bufsize+1)& (0+255),b
  1895  01136A  0EE8               	movlw	232
  1896  01136C  6FCD               	movwf	ringbuf_init@bufsize& (0+255),b
  1897  01136E  ECAB  F094         	call	_ringbuf_init	;wreg free
  1898                           
  1899                           ;PIC18F27J53-USB05.c: 79: static uint8_t uartrx[100];
  1900                           ;PIC18F27J53-USB05.c: 80: ringbuf_init(&uart_rx, uartrx, sizeof (uartrx));
  1901  011372  0E98               	movlw	low _uart_rx
  1902  011374  0100               	movlb	0	; () banked
  1903  011376  6FC9               	movwf	ringbuf_init@rb& (0+255),b
  1904  011378  0E00               	movlw	high _uart_rx
  1905  01137A  0100               	movlb	0	; () banked
  1906  01137C  6FCA               	movwf	(ringbuf_init@rb+1)& (0+255),b
  1907  01137E  0E00               	movlw	low main_init@uartrx
  1908  011380  0100               	movlb	0	; () banked
  1909  011382  6FCB               	movwf	ringbuf_init@internal_buf& (0+255),b
  1910  011384  0E02               	movlw	high main_init@uartrx
  1911  011386  0100               	movlb	0	; () banked
  1912  011388  6FCC               	movwf	(ringbuf_init@internal_buf+1)& (0+255),b
  1913  01138A  0E00               	movlw	0
  1914  01138C  0100               	movlb	0	; () banked
  1915  01138E  6FCE               	movwf	(ringbuf_init@bufsize+1)& (0+255),b
  1916  011390  0E64               	movlw	100
  1917  011392  6FCD               	movwf	ringbuf_init@bufsize& (0+255),b
  1918  011394  ECAB  F094         	call	_ringbuf_init	;wreg free
  1919  011398  0012               	return		;funcret
  1920  01139A                     __end_of_main_init:
  1921                           	opt stack 0
  1922                           tblptru	equ	0xFF8
  1923                           tblptrh	equ	0xFF7
  1924                           tblptrl	equ	0xFF6
  1925                           tablat	equ	0xFF5
  1926                           intcon	equ	0xFF2
  1927                           intcon2	equ	0xFF1
  1928                           postinc0	equ	0xFEE
  1929                           wreg	equ	0xFE8
  1930                           postdec1	equ	0xFE5
  1931                           fsr1h	equ	0xFE2
  1932                           fsr1l	equ	0xFE1
  1933                           status	equ	0xFD8
  1934                           
  1935 ;; *************** function _timer3_init *****************
  1936 ;; Defined at:
  1937 ;;		line 72 in file "../../../My_library/My_PIC.c"
  1938 ;; Parameters:    Size  Location     Type
  1939 ;;  prescaler       1    wreg     unsigned char 
  1940 ;; Auto vars:     Size  Location     Type
  1941 ;;  prescaler       1    1[BANK0 ] unsigned char 
  1942 ;; Return value:  Size  Location     Type
  1943 ;;		None               void
  1944 ;; Registers used:
  1945 ;;		wreg, status,2, status,0
  1946 ;; Tracked objects:
  1947 ;;		On entry : 0/0
  1948 ;;		On exit  : 0/0
  1949 ;;		Unchanged: 0/0
  1950 ;; Data sizes:     COMRAM   BANK0   BANK1   BANK2   BANK3   BANK4   BANK5   BANK6   BANK7   BANK8   BANK9  BANK10  BANK1
      +1  BANK12  BANK13  BANK14
  1951 ;;      Params:         0       0       0       0       0       0       0       0       0       0       0       0       
      +0       0       0       0
  1952 ;;      Locals:         0       1       0       0       0       0       0       0       0       0       0       0       
      +0       0       0       0
  1953 ;;      Temps:          0       1       0       0       0       0       0       0       0       0       0       0       
      +0       0       0       0
  1954 ;;      Totals:         0       2       0       0       0       0       0       0       0       0       0       0       
      +0       0       0       0
  1955 ;;Total ram usage:        2 bytes
  1956 ;; Hardware stack levels used:    1
  1957 ;; Hardware stack levels required when called:   11
  1958 ;; This function calls:
  1959 ;;		Nothing
  1960 ;; This function is called by:
  1961 ;;		_main_init
  1962 ;; This function uses a non-reentrant model
  1963 ;;
  1964                           
  1965                           	psect	text2
  1966  012D1C                     __ptext2:
  1967                           	opt stack 0
  1968  012D1C                     _timer3_init:
  1969                           	opt stack 18
  1970                           
  1971                           ;incstack = 0
  1972                           ;timer3_init@prescaler stored from wreg
  1973  012D1C  0100               	movlb	0	; () banked
  1974  012D1E  6FCA               	movwf	timer3_init@prescaler& (0+255),b
  1975                           
  1976                           ;My_PIC.c: 73: T3CONbits.TMR3CS = 0;
  1977  012D20  0E3F               	movlw	-193
  1978  012D22  1679               	andwf	3961,f,c	;volatile
  1979                           
  1980                           ;My_PIC.c: 74: T3CONbits.T3OSCEN = 0;
  1981  012D24  9679               	bcf	3961,3,c	;volatile
  1982                           
  1983                           ;My_PIC.c: 75: T3CONbits.T3CKPS = prescaler;
  1984  012D26  C0CA  F0C9         	movff	timer3_init@prescaler,??_timer3_init
  1985  012D2A  0100               	movlb	0	; () banked
  1986  012D2C  3BC9               	swapf	??_timer3_init& (0+255),f,b
  1987  012D2E  5079               	movf	3961,w,c	;volatile
  1988  012D30  0100               	movlb	0	; () banked
  1989  012D32  19C9               	xorwf	??_timer3_init& (0+255),w,b
  1990  012D34  0BCF               	andlw	-49
  1991  012D36  19C9               	xorwf	??_timer3_init& (0+255),w,b
  1992  012D38  6E79               	movwf	3961,c	;volatile
  1993                           
  1994                           ; BSR set to: 0
  1995                           ;My_PIC.c: 76: T3CONbits.RD163 = 0;
  1996  012D3A  9E79               	bcf	3961,7,c	;volatile
  1997                           
  1998                           ; BSR set to: 0
  1999                           ;My_PIC.c: 77: T3CONbits.TMR3ON = 1;
  2000  012D3C  8079               	bsf	3961,0,c	;volatile
  2001                           
  2002                           ; BSR set to: 0
  2003                           ;My_PIC.c: 78: IPR2bits.TMR3IP = 0;
  2004  012D3E  92A2               	bcf	4002,1,c	;volatile
  2005                           
  2006                           ; BSR set to: 0
  2007                           ;My_PIC.c: 79: PIR2bits.TMR3IF = 0;
  2008  012D40  92A1               	bcf	4001,1,c	;volatile
  2009                           
  2010                           ; BSR set to: 0
  2011                           ;My_PIC.c: 80: PIE2bits.TMR3IE = 1;
  2012  012D42  82A0               	bsf	4000,1,c	;volatile
  2013                           
  2014                           ; BSR set to: 0
  2015                           ;My_PIC.c: 81: INTCONbits.PEIE = 1;
  2016  012D44  8CF2               	bsf	intcon,6,c	;volatile
  2017                           
  2018                           ; BSR set to: 0
  2019  012D46  0012               	return		;funcret
  2020  012D48                     __end_of_timer3_init:
  2021                           	opt stack 0
  2022                           tblptru	equ	0xFF8
  2023                           tblptrh	equ	0xFF7
  2024                           tblptrl	equ	0xFF6
  2025                           tablat	equ	0xFF5
  2026                           intcon	equ	0xFF2
  2027                           intcon2	equ	0xFF1
  2028                           postinc0	equ	0xFEE
  2029                           wreg	equ	0xFE8
  2030                           postdec1	equ	0xFE5
  2031                           fsr1h	equ	0xFE2
  2032                           fsr1l	equ	0xFE1
  2033                           status	equ	0xFD8
  2034                           
  2035 ;; *************** function _timer1_init *****************
  2036 ;; Defined at:
  2037 ;;		line 41 in file "../../../My_library/My_PIC.c"
  2038 ;; Parameters:    Size  Location     Type
  2039 ;;  prescaler       1    wreg     unsigned char 
  2040 ;;  clock_select    1    0[BANK0 ] unsigned char 
  2041 ;; Auto vars:     Size  Location     Type
  2042 ;;  prescaler       1    2[BANK0 ] unsigned char 
  2043 ;; Return value:  Size  Location     Type
  2044 ;;		None               void
  2045 ;; Registers used:
  2046 ;;		wreg, status,2, status,0
  2047 ;; Tracked objects:
  2048 ;;		On entry : 0/0
  2049 ;;		On exit  : 0/0
  2050 ;;		Unchanged: 0/0
  2051 ;; Data sizes:     COMRAM   BANK0   BANK1   BANK2   BANK3   BANK4   BANK5   BANK6   BANK7   BANK8   BANK9  BANK10  BANK1
      +1  BANK12  BANK13  BANK14
  2052 ;;      Params:         0       1       0       0       0       0       0       0       0       0       0       0       
      +0       0       0       0
  2053 ;;      Locals:         0       1       0       0       0       0       0       0       0       0       0       0       
      +0       0       0       0
  2054 ;;      Temps:          0       1       0       0       0       0       0       0       0       0       0       0       
      +0       0       0       0
  2055 ;;      Totals:         0       3       0       0       0       0       0       0       0       0       0       0       
      +0       0       0       0
  2056 ;;Total ram usage:        3 bytes
  2057 ;; Hardware stack levels used:    1
  2058 ;; Hardware stack levels required when called:   11
  2059 ;; This function calls:
  2060 ;;		Nothing
  2061 ;; This function is called by:
  2062 ;;		_main_init
  2063 ;; This function uses a non-reentrant model
  2064 ;;
  2065                           
  2066                           	psect	text3
  2067  0129AA                     __ptext3:
  2068                           	opt stack 0
  2069  0129AA                     _timer1_init:
  2070                           	opt stack 18
  2071                           
  2072                           ; BSR set to: 0
  2073                           ;incstack = 0
  2074                           ;timer1_init@prescaler stored from wreg
  2075  0129AA  0100               	movlb	0	; () banked
  2076  0129AC  6FCB               	movwf	timer1_init@prescaler& (0+255),b
  2077                           
  2078                           ;My_PIC.c: 42: T1CONbits.TMR1CS = clock_select;
  2079  0129AE  C0C9  F0CA         	movff	timer1_init@clock_select,??_timer1_init
  2080  0129B2  0100               	movlb	0	; () banked
  2081  0129B4  3BCA               	swapf	??_timer1_init& (0+255),f,b
  2082  0129B6  47CA               	rlncf	??_timer1_init& (0+255),f,b
  2083  0129B8  47CA               	rlncf	??_timer1_init& (0+255),f,b
  2084  0129BA  50CD               	movf	4045,w,c	;volatile
  2085  0129BC  0100               	movlb	0	; () banked
  2086  0129BE  19CA               	xorwf	??_timer1_init& (0+255),w,b
  2087  0129C0  0B3F               	andlw	-193
  2088  0129C2  19CA               	xorwf	??_timer1_init& (0+255),w,b
  2089  0129C4  6ECD               	movwf	4045,c	;volatile
  2090                           
  2091                           ;My_PIC.c: 43: if (clock_select == 2) T1CONbits.T1OSCEN = 1;
  2092  0129C6  0E02               	movlw	2
  2093  0129C8  0100               	movlb	0	; () banked
  2094  0129CA  19C9               	xorwf	timer1_init@clock_select& (0+255),w,b
  2095  0129CC  A4D8               	btfss	status,2,c
  2096  0129CE  D002               	goto	l268
  2097                           
  2098                           ; BSR set to: 0
  2099  0129D0  86CD               	bsf	4045,3,c	;volatile
  2100  0129D2  D001               	goto	l7816
  2101  0129D4                     l268:
  2102                           
  2103                           ; BSR set to: 0
  2104                           ;My_PIC.c: 44: else T1CONbits.T1OSCEN = 0;
  2105  0129D4  96CD               	bcf	4045,3,c	;volatile
  2106  0129D6                     l7816:
  2107                           
  2108                           ; BSR set to: 0
  2109                           ;My_PIC.c: 45: T1CONbits.T1CKPS = prescaler;
  2110  0129D6  C0CB  F0CA         	movff	timer1_init@prescaler,??_timer1_init
  2111  0129DA  0100               	movlb	0	; () banked
  2112  0129DC  3BCA               	swapf	??_timer1_init& (0+255),f,b
  2113  0129DE  50CD               	movf	4045,w,c	;volatile
  2114  0129E0  0100               	movlb	0	; () banked
  2115  0129E2  19CA               	xorwf	??_timer1_init& (0+255),w,b
  2116  0129E4  0BCF               	andlw	-49
  2117  0129E6  19CA               	xorwf	??_timer1_init& (0+255),w,b
  2118  0129E8  6ECD               	movwf	4045,c	;volatile
  2119                           
  2120                           ; BSR set to: 0
  2121                           ;My_PIC.c: 46: T1CONbits.nT1SYNC = 1;
  2122  0129EA  84CD               	bsf	4045,2,c	;volatile
  2123                           
  2124                           ; BSR set to: 0
  2125                           ;My_PIC.c: 47: T1CONbits.RD16 = 0;
  2126  0129EC  92CD               	bcf	4045,1,c	;volatile
  2127                           
  2128                           ; BSR set to: 0
  2129                           ;My_PIC.c: 48: T1CONbits.TMR1ON = 1;
  2130  0129EE  80CD               	bsf	4045,0,c	;volatile
  2131                           
  2132                           ; BSR set to: 0
  2133                           ;My_PIC.c: 49: IPR1bits.TMR1IP = 0;
  2134  0129F0  909F               	bcf	3999,0,c	;volatile
  2135                           
  2136                           ; BSR set to: 0
  2137                           ;My_PIC.c: 50: PIR1bits.TMR1IF = 0;
  2138  0129F2  909E               	bcf	3998,0,c	;volatile
  2139                           
  2140                           ; BSR set to: 0
  2141                           ;My_PIC.c: 51: PIE1bits.TMR1IE = 1;
  2142  0129F4  809D               	bsf	3997,0,c	;volatile
  2143                           
  2144                           ; BSR set to: 0
  2145                           ;My_PIC.c: 52: INTCONbits.PEIE = 1;
  2146  0129F6  8CF2               	bsf	intcon,6,c	;volatile
  2147                           
  2148                           ; BSR set to: 0
  2149  0129F8  0012               	return		;funcret
  2150  0129FA                     __end_of_timer1_init:
  2151                           	opt stack 0
  2152                           tblptru	equ	0xFF8
  2153                           tblptrh	equ	0xFF7
  2154                           tblptrl	equ	0xFF6
  2155                           tablat	equ	0xFF5
  2156                           intcon	equ	0xFF2
  2157                           intcon2	equ	0xFF1
  2158                           postinc0	equ	0xFEE
  2159                           wreg	equ	0xFE8
  2160                           postdec1	equ	0xFE5
  2161                           fsr1h	equ	0xFE2
  2162                           fsr1l	equ	0xFE1
  2163                           status	equ	0xFD8
  2164                           
  2165 ;; *************** function _timer0_init *****************
  2166 ;; Defined at:
  2167 ;;		line 6 in file "../../../My_library/My_PIC.c"
  2168 ;; Parameters:    Size  Location     Type
  2169 ;;  prescaler       1    wreg     unsigned char 
  2170 ;; Auto vars:     Size  Location     Type
  2171 ;;  prescaler       1    1[BANK0 ] unsigned char 
  2172 ;; Return value:  Size  Location     Type
  2173 ;;		None               void
  2174 ;; Registers used:
  2175 ;;		wreg, status,2, status,0
  2176 ;; Tracked objects:
  2177 ;;		On entry : 0/0
  2178 ;;		On exit  : 0/0
  2179 ;;		Unchanged: 0/0
  2180 ;; Data sizes:     COMRAM   BANK0   BANK1   BANK2   BANK3   BANK4   BANK5   BANK6   BANK7   BANK8   BANK9  BANK10  BANK1
      +1  BANK12  BANK13  BANK14
  2181 ;;      Params:         0       0       0       0       0       0       0       0       0       0       0       0       
      +0       0       0       0
  2182 ;;      Locals:         0       1       0       0       0       0       0       0       0       0       0       0       
      +0       0       0       0
  2183 ;;      Temps:          0       1       0       0       0       0       0       0       0       0       0       0       
      +0       0       0       0
  2184 ;;      Totals:         0       2       0       0       0       0       0       0       0       0       0       0       
      +0       0       0       0
  2185 ;;Total ram usage:        2 bytes
  2186 ;; Hardware stack levels used:    1
  2187 ;; Hardware stack levels required when called:   11
  2188 ;; This function calls:
  2189 ;;		Nothing
  2190 ;; This function is called by:
  2191 ;;		_main_init
  2192 ;; This function uses a non-reentrant model
  2193 ;;
  2194                           
  2195                           	psect	text4
  2196  012B50                     __ptext4:
  2197                           	opt stack 0
  2198  012B50                     _timer0_init:
  2199                           	opt stack 18
  2200                           
  2201                           ; BSR set to: 0
  2202                           ;incstack = 0
  2203                           ;timer0_init@prescaler stored from wreg
  2204  012B50  0100               	movlb	0	; () banked
  2205  012B52  6FCA               	movwf	timer0_init@prescaler& (0+255),b
  2206                           
  2207                           ;My_PIC.c: 7: T0CONbits.TMR0ON = 1;
  2208  012B54  8ED5               	bsf	4053,7,c	;volatile
  2209                           
  2210                           ;My_PIC.c: 8: T0CONbits.T08BIT = 1;
  2211  012B56  8CD5               	bsf	4053,6,c	;volatile
  2212                           
  2213                           ;My_PIC.c: 9: T0CONbits.T0CS = 0;
  2214  012B58  9AD5               	bcf	4053,5,c	;volatile
  2215                           
  2216                           ;My_PIC.c: 10: if (prescaler == 0) {
  2217  012B5A  0100               	movlb	0	; () banked
  2218  012B5C  51CA               	movf	timer0_init@prescaler& (0+255),w,b
  2219  012B5E  0100               	movlb	0	; () banked
  2220  012B60  A4D8               	btfss	status,2,c
  2221  012B62  D002               	goto	l263
  2222                           
  2223                           ; BSR set to: 0
  2224                           ;My_PIC.c: 11: T0CONbits.PSA = 1;
  2225  012B64  86D5               	bsf	4053,3,c	;volatile
  2226                           
  2227                           ;My_PIC.c: 12: } else {
  2228  012B66  D00C               	goto	l7804
  2229  012B68                     l263:
  2230                           
  2231                           ; BSR set to: 0
  2232                           ;My_PIC.c: 13: T0CONbits.PSA = 0;
  2233  012B68  96D5               	bcf	4053,3,c	;volatile
  2234                           
  2235                           ; BSR set to: 0
  2236                           ;My_PIC.c: 14: T0CONbits.T0PS = prescaler - 1;
  2237  012B6A  C0CA  F0C9         	movff	timer0_init@prescaler,??_timer0_init
  2238  012B6E  0EFF               	movlw	255
  2239  012B70  0100               	movlb	0	; () banked
  2240  012B72  27C9               	addwf	??_timer0_init& (0+255),f,b
  2241  012B74  50D5               	movf	4053,w,c	;volatile
  2242  012B76  0100               	movlb	0	; () banked
  2243  012B78  19C9               	xorwf	??_timer0_init& (0+255),w,b
  2244  012B7A  0BF8               	andlw	-8
  2245  012B7C  19C9               	xorwf	??_timer0_init& (0+255),w,b
  2246  012B7E  6ED5               	movwf	4053,c	;volatile
  2247  012B80                     l7804:
  2248                           
  2249                           ; BSR set to: 0
  2250                           ;My_PIC.c: 15: }
  2251                           ;My_PIC.c: 16: INTCONbits.T0IE = 1;
  2252  012B80  8AF2               	bsf	intcon,5,c	;volatile
  2253                           
  2254                           ; BSR set to: 0
  2255                           ;My_PIC.c: 17: INTCONbits.TMR0IF = 0;
  2256  012B82  94F2               	bcf	intcon,2,c	;volatile
  2257                           
  2258                           ; BSR set to: 0
  2259                           ;My_PIC.c: 18: INTCON2bits.TMR0IP = 0;
  2260  012B84  94F1               	bcf	intcon2,2,c	;volatile
  2261                           
  2262                           ; BSR set to: 0
  2263                           ;My_PIC.c: 19: INTCONbits.PEIE = 1;
  2264  012B86  8CF2               	bsf	intcon,6,c	;volatile
  2265                           
  2266                           ; BSR set to: 0
  2267  012B88  0012               	return		;funcret
  2268  012B8A                     __end_of_timer0_init:
  2269                           	opt stack 0
  2270                           tblptru	equ	0xFF8
  2271                           tblptrh	equ	0xFF7
  2272                           tblptrl	equ	0xFF6
  2273                           tablat	equ	0xFF5
  2274                           intcon	equ	0xFF2
  2275                           intcon2	equ	0xFF1
  2276                           postinc0	equ	0xFEE
  2277                           wreg	equ	0xFE8
  2278                           postdec1	equ	0xFE5
  2279                           fsr1h	equ	0xFE2
  2280                           fsr1l	equ	0xFE1
  2281                           status	equ	0xFD8
  2282                           
  2283 ;; *************** function _ringbuf_init *****************
  2284 ;; Defined at:
  2285 ;;		line 5 in file "../../../My_library/My_ringbuf.c"
  2286 ;; Parameters:    Size  Location     Type
  2287 ;;  rb              2    0[BANK0 ] PTR struct ringbuf
  2288 ;;		 -> terminal_task@command(8), uart_rx(8), uart_tx(8), usb_rx(8), 
  2289 ;;		 -> usb_tx(8), 
  2290 ;;  internal_buf    2    2[BANK0 ] PTR unsigned char 
  2291 ;;		 -> terminal_task@buf(100), main_init@uartrx(100), main_init@uarttx(1000), main_init@usbrx(100), 
  2292 ;;		 -> main_init@usbtx(1000), 
  2293 ;;  bufsize         2    4[BANK0 ] unsigned int 
  2294 ;; Auto vars:     Size  Location     Type
  2295 ;;		None
  2296 ;; Return value:  Size  Location     Type
  2297 ;;		None               void
  2298 ;; Registers used:
  2299 ;;		wreg, fsr2l, fsr2h, status,2, status,0
  2300 ;; Tracked objects:
  2301 ;;		On entry : 0/0
  2302 ;;		On exit  : 0/0
  2303 ;;		Unchanged: 0/0
  2304 ;; Data sizes:     COMRAM   BANK0   BANK1   BANK2   BANK3   BANK4   BANK5   BANK6   BANK7   BANK8   BANK9  BANK10  BANK1
      +1  BANK12  BANK13  BANK14
  2305 ;;      Params:         0       6       0       0       0       0       0       0       0       0       0       0       
      +0       0       0       0
  2306 ;;      Locals:         0       0       0       0       0       0       0       0       0       0       0       0       
      +0       0       0       0
  2307 ;;      Temps:          0       0       0       0       0       0       0       0       0       0       0       0       
      +0       0       0       0
  2308 ;;      Totals:         0       6       0       0       0       0       0       0       0       0       0       0       
      +0       0       0       0
  2309 ;;Total ram usage:        6 bytes
  2310 ;; Hardware stack levels used:    1
  2311 ;; Hardware stack levels required when called:   11
  2312 ;; This function calls:
  2313 ;;		Nothing
  2314 ;; This function is called by:
  2315 ;;		_main_init
  2316 ;;		_terminal_task
  2317 ;; This function uses a non-reentrant model
  2318 ;;
  2319                           
  2320                           	psect	text5
  2321  012956                     __ptext5:
  2322                           	opt stack 0
  2323  012956                     _ringbuf_init:
  2324                           	opt stack 18
  2325                           
  2326                           ;My_ringbuf.c: 6: rb->buf = internal_buf;
  2327                           
  2328                           ; BSR set to: 0
  2329                           ;incstack = 0
  2330  012956  C0C9  FFD9         	movff	ringbuf_init@rb,fsr2l
  2331  01295A  C0CA  FFDA         	movff	ringbuf_init@rb+1,fsr2h
  2332  01295E  C0CB  FFDE         	movff	ringbuf_init@internal_buf,postinc2
  2333  012962  C0CC  FFDD         	movff	ringbuf_init@internal_buf+1,postdec2
  2334                           
  2335                           ;My_ringbuf.c: 7: rb->size = bufsize;
  2336  012966  0100               	movlb	0	; () banked
  2337  012968  EE20 F002          	lfsr	2,2
  2338  01296C  51C9               	movf	ringbuf_init@rb& (0+255),w,b
  2339  01296E  26D9               	addwf	fsr2l,f,c
  2340  012970  51CA               	movf	(ringbuf_init@rb+1)& (0+255),w,b
  2341  012972  22DA               	addwfc	fsr2h,f,c
  2342  012974  C0CD  FFDE         	movff	ringbuf_init@bufsize,postinc2
  2343  012978  C0CE  FFDD         	movff	ringbuf_init@bufsize+1,postdec2
  2344                           
  2345                           ; BSR set to: 0
  2346                           ;My_ringbuf.c: 8: rb->head = 0;
  2347  01297C  0100               	movlb	0	; () banked
  2348  01297E  EE20 F004          	lfsr	2,4
  2349  012982  51C9               	movf	ringbuf_init@rb& (0+255),w,b
  2350  012984  26D9               	addwf	fsr2l,f,c
  2351  012986  51CA               	movf	(ringbuf_init@rb+1)& (0+255),w,b
  2352  012988  22DA               	addwfc	fsr2h,f,c
  2353  01298A  0E00               	movlw	0
  2354  01298C  6EDE               	movwf	postinc2,c
  2355  01298E  0E00               	movlw	0
  2356  012990  6EDD               	movwf	postdec2,c
  2357                           
  2358                           ; BSR set to: 0
  2359                           ;My_ringbuf.c: 9: rb->tail = 0;
  2360  012992  0100               	movlb	0	; () banked
  2361  012994  EE20 F006          	lfsr	2,6
  2362  012998  51C9               	movf	ringbuf_init@rb& (0+255),w,b
  2363  01299A  26D9               	addwf	fsr2l,f,c
  2364  01299C  51CA               	movf	(ringbuf_init@rb+1)& (0+255),w,b
  2365  01299E  22DA               	addwfc	fsr2h,f,c
  2366  0129A0  0E00               	movlw	0
  2367  0129A2  6EDE               	movwf	postinc2,c
  2368  0129A4  0E00               	movlw	0
  2369  0129A6  6EDD               	movwf	postdec2,c
  2370                           
  2371                           ; BSR set to: 0
  2372  0129A8  0012               	return		;funcret
  2373  0129AA                     __end_of_ringbuf_init:
  2374                           	opt stack 0
  2375                           tblptru	equ	0xFF8
  2376                           tblptrh	equ	0xFF7
  2377                           tblptrl	equ	0xFF6
  2378                           tablat	equ	0xFF5
  2379                           intcon	equ	0xFF2
  2380                           intcon2	equ	0xFF1
  2381                           postinc0	equ	0xFEE
  2382                           wreg	equ	0xFE8
  2383                           postdec1	equ	0xFE5
  2384                           fsr1h	equ	0xFE2
  2385                           fsr1l	equ	0xFE1
  2386                           postinc2	equ	0xFDE
  2387                           postdec2	equ	0xFDD
  2388                           fsr2h	equ	0xFDA
  2389                           fsr2l	equ	0xFD9
  2390                           status	equ	0xFD8
  2391                           
  2392 ;; *************** function _USB_init *****************
  2393 ;; Defined at:
  2394 ;;		line 11 in file "../../../My_library/My_usb_cdc.c"
  2395 ;; Parameters:    Size  Location     Type
  2396 ;;		None
  2397 ;; Auto vars:     Size  Location     Type
  2398 ;;		None
  2399 ;; Return value:  Size  Location     Type
  2400 ;;		None               void
  2401 ;; Registers used:
  2402 ;;		wreg, fsr2l, fsr2h, status,2, status,0, prodl, prodh, cstack
  2403 ;; Tracked objects:
  2404 ;;		On entry : 0/0
  2405 ;;		On exit  : 0/0
  2406 ;;		Unchanged: 0/0
  2407 ;; Data sizes:     COMRAM   BANK0   BANK1   BANK2   BANK3   BANK4   BANK5   BANK6   BANK7   BANK8   BANK9  BANK10  BANK1
      +1  BANK12  BANK13  BANK14
  2408 ;;      Params:         0       0       0       0       0       0       0       0       0       0       0       0       
      +0       0       0       0
  2409 ;;      Locals:         0       0       0       0       0       0       0       0       0       0       0       0       
      +0       0       0       0
  2410 ;;      Temps:          0       0       0       0       0       0       0       0       0       0       0       0       
      +0       0       0       0
  2411 ;;      Totals:         0       0       0       0       0       0       0       0       0       0       0       0       
      +0       0       0       0
  2412 ;;Total ram usage:        0 bytes
  2413 ;; Hardware stack levels used:    1
  2414 ;; Hardware stack levels required when called:   13
  2415 ;; This function calls:
  2416 ;;		_USBDeviceAttach
  2417 ;;		_USBDeviceInit
  2418 ;; This function is called by:
  2419 ;;		_main_init
  2420 ;; This function uses a non-reentrant model
  2421 ;;
  2422                           
  2423                           	psect	text6
  2424  012E98                     __ptext6:
  2425                           	opt stack 0
  2426  012E98                     _USB_init:
  2427                           	opt stack 16
  2428                           
  2429                           ;My_usb_cdc.c: 12: USBDeviceInit();
  2430                           
  2431                           ; BSR set to: 0
  2432                           ;incstack = 0
  2433  012E98  EC44  F084         	call	_USBDeviceInit	;wreg free
  2434                           
  2435                           ;My_usb_cdc.c: 13: USBDeviceAttach();
  2436  012E9C  ECC5  F095         	call	_USBDeviceAttach	;wreg free
  2437                           
  2438                           ;My_usb_cdc.c: 14: {line_coding.dwDTERate=115200;};
  2439  012EA0  0E00               	movlw	0
  2440  012EA2  0100               	movlb	0	; () banked
  2441  012EA4  6FC0               	movwf	_line_coding& (0+255),b
  2442  012EA6  0EC2               	movlw	194
  2443  012EA8  6FC1               	movwf	(_line_coding+1)& (0+255),b
  2444  012EAA  0E01               	movlw	1
  2445  012EAC  6FC2               	movwf	(_line_coding+2)& (0+255),b
  2446  012EAE  0E00               	movlw	0
  2447  012EB0  6FC3               	movwf	(_line_coding+3)& (0+255),b
  2448                           
  2449                           ; BSR set to: 0
  2450  012EB2  0012               	return		;funcret
  2451  012EB4                     __end_of_USB_init:
  2452                           	opt stack 0
  2453                           tblptru	equ	0xFF8
  2454                           tblptrh	equ	0xFF7
  2455                           tblptrl	equ	0xFF6
  2456                           tablat	equ	0xFF5
  2457                           intcon	equ	0xFF2
  2458                           intcon2	equ	0xFF1
  2459                           postinc0	equ	0xFEE
  2460                           wreg	equ	0xFE8
  2461                           postdec1	equ	0xFE5
  2462                           fsr1h	equ	0xFE2
  2463                           fsr1l	equ	0xFE1
  2464                           postinc2	equ	0xFDE
  2465                           postdec2	equ	0xFDD
  2466                           fsr2h	equ	0xFDA
  2467                           fsr2l	equ	0xFD9
  2468                           status	equ	0xFD8
  2469                           
  2470 ;; *************** function _USBDeviceInit *****************
  2471 ;; Defined at:
  2472 ;;		line 298 in file "../../../My_library/usb/usb_device.c"
  2473 ;; Parameters:    Size  Location     Type
  2474 ;;		None
  2475 ;; Auto vars:     Size  Location     Type
  2476 ;;  i               1    8[BANK0 ] unsigned char 
  2477 ;; Return value:  Size  Location     Type
  2478 ;;		None               void
  2479 ;; Registers used:
  2480 ;;		wreg, fsr2l, fsr2h, status,2, status,0, prodl, prodh, cstack
  2481 ;; Tracked objects:
  2482 ;;		On entry : 0/0
  2483 ;;		On exit  : 0/0
  2484 ;;		Unchanged: 0/0
  2485 ;; Data sizes:     COMRAM   BANK0   BANK1   BANK2   BANK3   BANK4   BANK5   BANK6   BANK7   BANK8   BANK9  BANK10  BANK1
      +1  BANK12  BANK13  BANK14
  2486 ;;      Params:         0       0       0       0       0       0       0       0       0       0       0       0       
      +0       0       0       0
  2487 ;;      Locals:         0       1       0       0       0       0       0       0       0       0       0       0       
      +0       0       0       0
  2488 ;;      Temps:          0       0       0       0       0       0       0       0       0       0       0       0       
      +0       0       0       0
  2489 ;;      Totals:         0       1       0       0       0       0       0       0       0       0       0       0       
      +0       0       0       0
  2490 ;;Total ram usage:        1 bytes
  2491 ;; Hardware stack levels used:    1
  2492 ;; Hardware stack levels required when called:   12
  2493 ;; This function calls:
  2494 ;;		_memset
  2495 ;; This function is called by:
  2496 ;;		_USB_init
  2497 ;; This function uses a non-reentrant model
  2498 ;;
  2499                           
  2500                           	psect	text7
  2501  010888                     __ptext7:
  2502                           	opt stack 0
  2503  010888                     _USBDeviceInit:
  2504                           	opt stack 16
  2505                           
  2506                           ;usb_device.c: 300: uint8_t i;
  2507                           ;usb_device.c: 302: {PIE2bits.USBIE = 0;};
  2508                           
  2509                           ; BSR set to: 0
  2510                           ;incstack = 0
  2511  010888  98A0               	bcf	4000,4,c	;volatile
  2512                           
  2513                           ;usb_device.c: 305: {UEIR = 0;};
  2514  01088A  0E00               	movlw	0
  2515  01088C  6E63               	movwf	3939,c	;volatile
  2516                           
  2517                           ;usb_device.c: 308: {UIR = 0;};
  2518  01088E  0E00               	movlw	0
  2519  010890  6E62               	movwf	3938,c	;volatile
  2520                           
  2521                           ;usb_device.c: 311: UEP0 = 0;
  2522  010892  0E00               	movlw	0
  2523  010894  010F               	movlb	15	; () banked
  2524  010896  6F26               	movwf	38,b	;volatile
  2525                           
  2526                           ; BSR set to: 15
  2527                           ;usb_device.c: 313: memset((void*)&UEP1,0x00,(2));;
  2528  010898  0E27               	movlw	39
  2529  01089A  0100               	movlb	0	; () banked
  2530  01089C  6FC9               	movwf	memset@p1& (0+255),b
  2531  01089E  0E0F               	movlw	15
  2532  0108A0  0100               	movlb	0	; () banked
  2533  0108A2  6FCA               	movwf	(memset@p1+1)& (0+255),b
  2534  0108A4  0E00               	movlw	0
  2535  0108A6  0100               	movlb	0	; () banked
  2536  0108A8  6FCC               	movwf	(memset@c+1)& (0+255),b
  2537  0108AA  0E00               	movlw	0
  2538  0108AC  6FCB               	movwf	memset@c& (0+255),b
  2539  0108AE  0E00               	movlw	0
  2540  0108B0  0100               	movlb	0	; () banked
  2541  0108B2  6FCE               	movwf	(memset@n+1)& (0+255),b
  2542  0108B4  0E02               	movlw	2
  2543  0108B6  6FCD               	movwf	memset@n& (0+255),b
  2544  0108B8  ECFD  F095         	call	_memset	;wreg free
  2545                           
  2546                           ;usb_device.c: 315: { UCFG = 0x10 | 0x00 | 0x04 | 0x02; UEIE = 0x9F; UIE = 0x39 | 0x40 |
      +                           0x02; };
  2547  0108BC  0E16               	movlw	22
  2548  0108BE  010F               	movlb	15	; () banked
  2549  0108C0  6F39               	movwf	57,b	;volatile
  2550                           
  2551                           ; BSR set to: 15
  2552  0108C2  0E9F               	movlw	159
  2553  0108C4  010F               	movlb	15	; () banked
  2554  0108C6  6F37               	movwf	55,b	;volatile
  2555                           
  2556                           ; BSR set to: 15
  2557  0108C8  0E7B               	movlw	123
  2558  0108CA  010F               	movlb	15	; () banked
  2559  0108CC  6F36               	movwf	54,b	;volatile
  2560                           
  2561                           ; BSR set to: 15
  2562                           ;usb_device.c: 318: ;
  2563                           ;usb_device.c: 321: ;
  2564                           ;usb_device.c: 324: for(i=0;i<(sizeof(BDT)/sizeof(BDT_ENTRY));i++)
  2565  0108CE  0E00               	movlw	0
  2566  0108D0  0100               	movlb	0	; () banked
  2567  0108D2  6FD1               	movwf	USBDeviceInit@i& (0+255),b
  2568  0108D4                     l7602:
  2569                           
  2570                           ; BSR set to: 0
  2571  0108D4  0E0B               	movlw	11
  2572  0108D6  0100               	movlb	0	; () banked
  2573  0108D8  65D1               	cpfsgt	USBDeviceInit@i& (0+255),b
  2574  0108DA  D001               	goto	l7606
  2575  0108DC  D010               	goto	l964
  2576  0108DE                     l7606:
  2577                           
  2578                           ; BSR set to: 0
  2579                           ;usb_device.c: 325: {
  2580                           ;usb_device.c: 326: BDT[i].Val = 0x00;
  2581  0108DE  0100               	movlb	0	; () banked
  2582  0108E0  51D1               	movf	USBDeviceInit@i& (0+255),w,b
  2583  0108E2  0D04               	mullw	4
  2584  0108E4  0E00               	movlw	0
  2585  0108E6  24F3               	addwf	prodl,w,c
  2586  0108E8  6ED9               	movwf	fsr2l,c
  2587  0108EA  0E0D               	movlw	13
  2588  0108EC  20F4               	addwfc	prodh,w,c
  2589  0108EE  6EDA               	movwf	fsr2h,c
  2590  0108F0  6ADE               	clrf	postinc2,c
  2591  0108F2  6ADE               	clrf	postinc2,c
  2592  0108F4  6ADE               	clrf	postinc2,c
  2593  0108F6  6ADD               	clrf	postdec2,c
  2594                           
  2595                           ; BSR set to: 0
  2596  0108F8  0100               	movlb	0	; () banked
  2597  0108FA  2BD1               	incf	USBDeviceInit@i& (0+255),f,b
  2598  0108FC  D7EB               	goto	l7602
  2599  0108FE                     l964:
  2600                           
  2601                           ; BSR set to: 0
  2602                           ;usb_device.c: 327: }
  2603                           ;usb_device.c: 330: UCONbits.PPBRST = 1;
  2604  0108FE  8C65               	bsf	3941,6,c	;volatile
  2605                           
  2606                           ; BSR set to: 0
  2607                           ;usb_device.c: 333: UADDR = 0x00;
  2608  010900  0E00               	movlw	0
  2609  010902  010F               	movlb	15	; () banked
  2610  010904  6F38               	movwf	56,b	;volatile
  2611                           
  2612                           ; BSR set to: 15
  2613                           ;usb_device.c: 336: UCONbits.PKTDIS = 0;
  2614  010906  9865               	bcf	3941,4,c	;volatile
  2615                           
  2616                           ; BSR set to: 15
  2617                           ;usb_device.c: 339: UCONbits.PPBRST = 0;
  2618  010908  9C65               	bcf	3941,6,c	;volatile
  2619                           
  2620                           ;usb_device.c: 342: while(UIRbits.TRNIF == 1)
  2621  01090A  D009               	goto	l7626
  2622  01090C                     l7618:
  2623                           
  2624                           ;usb_device.c: 343: {
  2625                           ;usb_device.c: 344: (UIR &= 0xF7);
  2626  01090C  9662               	bcf	3938,3,c	;volatile
  2627                           
  2628                           ;usb_device.c: 346: inPipes[0].info.Val = 0;
  2629  01090E  0E00               	movlw	0
  2630  010910  6E0D               	movwf	_inPipes+3,c	;volatile
  2631                           
  2632                           ;usb_device.c: 347: outPipes[0].info.Val = 0;
  2633  010912  0E00               	movlw	0
  2634  010914  6E04               	movwf	_outPipes+3,c	;volatile
  2635                           
  2636                           ;usb_device.c: 348: outPipes[0].wCount.Val = 0;
  2637  010916  0E00               	movlw	0
  2638  010918  6E06               	movwf	_outPipes+5,c	;volatile
  2639  01091A  0E00               	movlw	0
  2640  01091C  6E05               	movwf	_outPipes+4,c	;volatile
  2641  01091E                     l7626:
  2642  01091E  B662               	btfsc	3938,3,c	;volatile
  2643  010920  D7F5               	goto	l7618
  2644                           
  2645                           ;usb_device.c: 349: }
  2646                           ;usb_device.c: 353: USBStatusStageEnabledFlag1 = 1;
  2647  010922  0E01               	movlw	1
  2648  010924  6E26               	movwf	_USBStatusStageEnabledFlag1,c	;volatile
  2649                           
  2650                           ;usb_device.c: 354: USBStatusStageEnabledFlag2 = 1;
  2651  010926  0E01               	movlw	1
  2652  010928  6E27               	movwf	_USBStatusStageEnabledFlag2,c	;volatile
  2653                           
  2654                           ;usb_device.c: 356: USBDeferINDataStagePackets = 0;
  2655  01092A  0E00               	movlw	0
  2656  01092C  6E22               	movwf	_USBDeferINDataStagePackets,c	;volatile
  2657                           
  2658                           ;usb_device.c: 357: USBDeferOUTDataStagePackets = 0;
  2659  01092E  0E00               	movlw	0
  2660  010930  6E23               	movwf	_USBDeferOUTDataStagePackets,c	;volatile
  2661                           
  2662                           ;usb_device.c: 358: USBBusIsSuspended = 0;
  2663  010932  0E00               	movlw	0
  2664  010934  0100               	movlb	0	; () banked
  2665  010936  6F81               	movwf	_USBBusIsSuspended& (0+255),b	;volatile
  2666                           
  2667                           ;usb_device.c: 362: for(i = 0; i < (uint8_t)(2+1u); i++)
  2668  010938  0E00               	movlw	0
  2669  01093A  0100               	movlb	0	; () banked
  2670  01093C  6FD1               	movwf	USBDeviceInit@i& (0+255),b
  2671  01093E                     l7630:
  2672                           
  2673                           ; BSR set to: 0
  2674  01093E  0E02               	movlw	2
  2675  010940  0100               	movlb	0	; () banked
  2676  010942  65D1               	cpfsgt	USBDeviceInit@i& (0+255),b
  2677  010944  D001               	goto	l7634
  2678  010946  D033               	goto	l7640
  2679  010948                     l7634:
  2680                           
  2681                           ; BSR set to: 0
  2682                           ;usb_device.c: 363: {
  2683                           ;usb_device.c: 364: pBDTEntryIn[i] = 0u;
  2684  010948  0100               	movlb	0	; () banked
  2685  01094A  51D1               	movf	USBDeviceInit@i& (0+255),w,b
  2686  01094C  0D02               	mullw	2
  2687  01094E  0E10               	movlw	low _pBDTEntryIn
  2688  010950  24F3               	addwf	prodl,w,c
  2689  010952  6ED9               	movwf	fsr2l,c
  2690  010954  0E00               	movlw	high _pBDTEntryIn
  2691  010956  20F4               	addwfc	prodh,w,c
  2692  010958  6EDA               	movwf	fsr2h,c
  2693  01095A  0E00               	movlw	0
  2694  01095C  6EDE               	movwf	postinc2,c
  2695  01095E  0E00               	movlw	0
  2696  010960  6EDD               	movwf	postdec2,c
  2697                           
  2698                           ;usb_device.c: 365: pBDTEntryOut[i] = 0u;
  2699  010962  0100               	movlb	0	; () banked
  2700  010964  51D1               	movf	USBDeviceInit@i& (0+255),w,b
  2701  010966  0D02               	mullw	2
  2702  010968  0E60               	movlw	low _pBDTEntryOut
  2703  01096A  24F3               	addwf	prodl,w,c
  2704  01096C  6ED9               	movwf	fsr2l,c
  2705  01096E  0E00               	movlw	high _pBDTEntryOut
  2706  010970  20F4               	addwfc	prodh,w,c
  2707  010972  6EDA               	movwf	fsr2h,c
  2708  010974  0E00               	movlw	0
  2709  010976  6EDE               	movwf	postinc2,c
  2710  010978  0E00               	movlw	0
  2711  01097A  6EDD               	movwf	postdec2,c
  2712                           
  2713                           ;usb_device.c: 366: ep_data_in[i].Val = 0u;
  2714  01097C  0100               	movlb	0	; () banked
  2715  01097E  51D1               	movf	USBDeviceInit@i& (0+255),w,b
  2716  010980  0D01               	mullw	1
  2717  010982  0E16               	movlw	low _ep_data_in
  2718  010984  24F3               	addwf	prodl,w,c
  2719  010986  6ED9               	movwf	fsr2l,c
  2720  010988  0E00               	movlw	high _ep_data_in
  2721  01098A  20F4               	addwfc	prodh,w,c
  2722  01098C  6EDA               	movwf	fsr2h,c
  2723  01098E  0E00               	movlw	0
  2724  010990  6EDF               	movwf	indf2,c
  2725                           
  2726                           ;usb_device.c: 367: ep_data_out[i].Val = 0u;
  2727  010992  0100               	movlb	0	; () banked
  2728  010994  51D1               	movf	USBDeviceInit@i& (0+255),w,b
  2729  010996  0D01               	mullw	1
  2730  010998  0E19               	movlw	low _ep_data_out
  2731  01099A  24F3               	addwf	prodl,w,c
  2732  01099C  6ED9               	movwf	fsr2l,c
  2733  01099E  0E00               	movlw	high _ep_data_out
  2734  0109A0  20F4               	addwfc	prodh,w,c
  2735  0109A2  6EDA               	movwf	fsr2h,c
  2736  0109A4  0E00               	movlw	0
  2737  0109A6  6EDF               	movwf	indf2,c
  2738                           
  2739                           ; BSR set to: 0
  2740  0109A8  0100               	movlb	0	; () banked
  2741  0109AA  2BD1               	incf	USBDeviceInit@i& (0+255),f,b
  2742  0109AC  D7C8               	goto	l7630
  2743  0109AE                     l7640:
  2744                           
  2745                           ; BSR set to: 0
  2746                           ;usb_device.c: 368: }
  2747                           ;usb_device.c: 371: pBDTEntryIn[0] = (volatile BDT_ENTRY*)&BDT[2];
  2748  0109AE  0E08               	movlw	8
  2749  0109B0  6E10               	movwf	_pBDTEntryIn,c
  2750  0109B2  0E0D               	movlw	13
  2751  0109B4  6E11               	movwf	_pBDTEntryIn+1,c
  2752                           
  2753                           ; BSR set to: 0
  2754                           ;usb_device.c: 373: UEP0 = 0x06|0x10;
  2755  0109B6  0E16               	movlw	22
  2756  0109B8  010F               	movlb	15	; () banked
  2757  0109BA  6F26               	movwf	38,b	;volatile
  2758                           
  2759                           ; BSR set to: 15
  2760                           ;usb_device.c: 375: BDT[0].ADR = ((uint16_t)(&SetupPkt));
  2761  0109BC  0E0D               	movlw	13
  2762  0109BE  010D               	movlb	13	; () banked
  2763  0109C0  6F03               	movwf	3,b	;volatile
  2764  0109C2  0E30               	movlw	48
  2765  0109C4  6F02               	movwf	2,b	;volatile
  2766                           
  2767                           ; BSR set to: 13
  2768                           ;usb_device.c: 376: BDT[0].CNT = 8;
  2769  0109C6  0E08               	movlw	8
  2770  0109C8  010D               	movlb	13	; () banked
  2771  0109CA  6F01               	movwf	1,b	;volatile
  2772                           
  2773                           ; BSR set to: 13
  2774                           ;usb_device.c: 377: BDT[0].STAT.Val = 0x00|0x04;
  2775  0109CC  0E04               	movlw	4
  2776  0109CE  010D               	movlb	13	; () banked
  2777  0109D0  6F00               	movwf	0,b	;volatile
  2778                           
  2779                           ; BSR set to: 13
  2780                           ;usb_device.c: 378: BDT[0].STAT.Val |= 0x80;
  2781  0109D2  010D               	movlb	13	; () banked
  2782  0109D4  8F00               	bsf	0,7,b	;volatile
  2783                           
  2784                           ; BSR set to: 13
  2785                           ;usb_device.c: 381: USBActiveConfiguration = 0;
  2786  0109D6  0E00               	movlw	0
  2787  0109D8  6E2C               	movwf	_USBActiveConfiguration,c	;volatile
  2788                           
  2789                           ; BSR set to: 13
  2790                           ;usb_device.c: 384: USBDeviceState = DETACHED_STATE;
  2791  0109DA  0E00               	movlw	0
  2792  0109DC  6E25               	movwf	_USBDeviceState,c	;volatile
  2793                           
  2794                           ; BSR set to: 13
  2795  0109DE  0012               	return		;funcret
  2796  0109E0                     __end_of_USBDeviceInit:
  2797                           	opt stack 0
  2798                           tblptru	equ	0xFF8
  2799                           tblptrh	equ	0xFF7
  2800                           tblptrl	equ	0xFF6
  2801                           tablat	equ	0xFF5
  2802                           prodh	equ	0xFF4
  2803                           prodl	equ	0xFF3
  2804                           intcon	equ	0xFF2
  2805                           intcon2	equ	0xFF1
  2806                           postinc0	equ	0xFEE
  2807                           wreg	equ	0xFE8
  2808                           postdec1	equ	0xFE5
  2809                           fsr1h	equ	0xFE2
  2810                           fsr1l	equ	0xFE1
  2811                           indf2	equ	0xFDF
  2812                           postinc2	equ	0xFDE
  2813                           postdec2	equ	0xFDD
  2814                           fsr2h	equ	0xFDA
  2815                           fsr2l	equ	0xFD9
  2816                           status	equ	0xFD8
  2817                           
  2818 ;; *************** function _memset *****************
  2819 ;; Defined at:
  2820 ;;		line 8 in file "C:\Program Files (x86)\Microchip\xc8\v1.35\sources\common\memset.c"
  2821 ;; Parameters:    Size  Location     Type
  2822 ;;  p1              2    0[BANK0 ] PTR void 
  2823 ;;		 -> USBAlternateInterface(2), BDT(48), UEP1(1), 
  2824 ;;  c               2    2[BANK0 ] int 
  2825 ;;  n               2    4[BANK0 ] unsigned int 
  2826 ;; Auto vars:     Size  Location     Type
  2827 ;;  p               2    6[BANK0 ] PTR unsigned char 
  2828 ;;		 -> USBAlternateInterface(2), BDT(48), UEP1(1), 
  2829 ;; Return value:  Size  Location     Type
  2830 ;;                  2    0[BANK0 ] PTR void 
  2831 ;; Registers used:
  2832 ;;		wreg, fsr2l, fsr2h, status,2, status,0
  2833 ;; Tracked objects:
  2834 ;;		On entry : 0/0
  2835 ;;		On exit  : 0/0
  2836 ;;		Unchanged: 0/0
  2837 ;; Data sizes:     COMRAM   BANK0   BANK1   BANK2   BANK3   BANK4   BANK5   BANK6   BANK7   BANK8   BANK9  BANK10  BANK1
      +1  BANK12  BANK13  BANK14
  2838 ;;      Params:         0       6       0       0       0       0       0       0       0       0       0       0       
      +0       0       0       0
  2839 ;;      Locals:         0       2       0       0       0       0       0       0       0       0       0       0       
      +0       0       0       0
  2840 ;;      Temps:          0       0       0       0       0       0       0       0       0       0       0       0       
      +0       0       0       0
  2841 ;;      Totals:         0       8       0       0       0       0       0       0       0       0       0       0       
      +0       0       0       0
  2842 ;;Total ram usage:        8 bytes
  2843 ;; Hardware stack levels used:    1
  2844 ;; Hardware stack levels required when called:   11
  2845 ;; This function calls:
  2846 ;;		Nothing
  2847 ;; This function is called by:
  2848 ;;		_USBDeviceInit
  2849 ;; This function uses a non-reentrant model
  2850 ;;
  2851                           
  2852                           	psect	text8
  2853  012BFA                     __ptext8:
  2854                           	opt stack 0
  2855  012BFA                     _memset:
  2856                           	opt stack 16
  2857                           
  2858                           ; BSR set to: 13
  2859                           ;incstack = 0
  2860  012BFA  C0C9  F0CF         	movff	memset@p1,memset@p
  2861  012BFE  C0CA  F0D0         	movff	memset@p1+1,memset@p+1
  2862  012C02  D009               	goto	l7408
  2863  012C04                     l7404:
  2864  012C04  C0CF  FFD9         	movff	memset@p,fsr2l
  2865  012C08  C0D0  FFDA         	movff	memset@p+1,fsr2h
  2866  012C0C  C0CB  FFDF         	movff	memset@c,indf2
  2867  012C10  0100               	movlb	0	; () banked
  2868  012C12  4BCF               	infsnz	memset@p& (0+255),f,b
  2869  012C14  2BD0               	incf	(memset@p+1)& (0+255),f,b
  2870  012C16                     l7408:
  2871  012C16  0100               	movlb	0	; () banked
  2872  012C18  07CD               	decf	memset@n& (0+255),f,b
  2873  012C1A  A0D8               	btfss	status,0,c
  2874  012C1C  07CE               	decf	(memset@n+1)& (0+255),f,b
  2875  012C1E  0100               	movlb	0	; () banked
  2876  012C20  29CD               	incf	memset@n& (0+255),w,b
  2877  012C22  E1F0               	bnz	l7404
  2878  012C24  0100               	movlb	0	; () banked
  2879  012C26  29CE               	incf	(memset@n+1)& (0+255),w,b
  2880  012C28  B4D8               	btfsc	status,2,c
  2881  012C2A  0012               	return	
  2882  012C2C  D7EB               	goto	l7404
  2883  012C2E                     __end_of_memset:
  2884                           	opt stack 0
  2885                           tblptru	equ	0xFF8
  2886                           tblptrh	equ	0xFF7
  2887                           tblptrl	equ	0xFF6
  2888                           tablat	equ	0xFF5
  2889                           prodh	equ	0xFF4
  2890                           prodl	equ	0xFF3
  2891                           intcon	equ	0xFF2
  2892                           intcon2	equ	0xFF1
  2893                           postinc0	equ	0xFEE
  2894                           wreg	equ	0xFE8
  2895                           postdec1	equ	0xFE5
  2896                           fsr1h	equ	0xFE2
  2897                           fsr1l	equ	0xFE1
  2898                           indf2	equ	0xFDF
  2899                           postinc2	equ	0xFDE
  2900                           postdec2	equ	0xFDD
  2901                           fsr2h	equ	0xFDA
  2902                           fsr2l	equ	0xFD9
  2903                           status	equ	0xFD8
  2904                           
  2905 ;; *************** function _USBDeviceAttach *****************
  2906 ;; Defined at:
  2907 ;;		line 1352 in file "../../../My_library/usb/usb_device.c"
  2908 ;; Parameters:    Size  Location     Type
  2909 ;;		None
  2910 ;; Auto vars:     Size  Location     Type
  2911 ;;		None
  2912 ;; Return value:  Size  Location     Type
  2913 ;;		None               void
  2914 ;; Registers used:
  2915 ;;		wreg, status,2
  2916 ;; Tracked objects:
  2917 ;;		On entry : 0/0
  2918 ;;		On exit  : 0/0
  2919 ;;		Unchanged: 0/0
  2920 ;; Data sizes:     COMRAM   BANK0   BANK1   BANK2   BANK3   BANK4   BANK5   BANK6   BANK7   BANK8   BANK9  BANK10  BANK1
      +1  BANK12  BANK13  BANK14
  2921 ;;      Params:         0       0       0       0       0       0       0       0       0       0       0       0       
      +0       0       0       0
  2922 ;;      Locals:         0       0       0       0       0       0       0       0       0       0       0       0       
      +0       0       0       0
  2923 ;;      Temps:          0       0       0       0       0       0       0       0       0       0       0       0       
      +0       0       0       0
  2924 ;;      Totals:         0       0       0       0       0       0       0       0       0       0       0       0       
      +0       0       0       0
  2925 ;;Total ram usage:        0 bytes
  2926 ;; Hardware stack levels used:    1
  2927 ;; Hardware stack levels required when called:   11
  2928 ;; This function calls:
  2929 ;;		Nothing
  2930 ;; This function is called by:
  2931 ;;		_USB_init
  2932 ;; This function uses a non-reentrant model
  2933 ;;
  2934                           
  2935                           	psect	text9
  2936  012B8A                     __ptext9:
  2937                           	opt stack 0
  2938  012B8A                     _USBDeviceAttach:
  2939                           	opt stack 17
  2940                           
  2941                           ;usb_device.c: 1356: {
  2942                           ;usb_device.c: 1357: if(1 == 1)
  2943                           
  2944                           ; BSR set to: 0
  2945                           ;incstack = 0
  2946  012B8A  5025               	movf	_USBDeviceState,w,c	;volatile
  2947  012B8C  A4D8               	btfss	status,2,c
  2948  012B8E  0012               	return	
  2949                           
  2950                           ;usb_device.c: 1358: {
  2951                           ;usb_device.c: 1360: UCON = 0;
  2952  012B90  0E00               	movlw	0
  2953  012B92  6E65               	movwf	3941,c	;volatile
  2954                           
  2955                           ;usb_device.c: 1363: UIE = 0;
  2956  012B94  0E00               	movlw	0
  2957  012B96  010F               	movlb	15	; () banked
  2958  012B98  6F36               	movwf	54,b	;volatile
  2959                           
  2960                           ;usb_device.c: 1367: { UCFG = 0x10 | 0x00 | 0x04 | 0x02; UEIE = 0x9F; UIE = 0x39 | 0x40 
      +                          | 0x02; };
  2961  012B9A  0E16               	movlw	22
  2962  012B9C  010F               	movlb	15	; () banked
  2963  012B9E  6F39               	movwf	57,b	;volatile
  2964  012BA0  0E9F               	movlw	159
  2965  012BA2  010F               	movlb	15	; () banked
  2966  012BA4  6F37               	movwf	55,b	;volatile
  2967  012BA6  0E7B               	movlw	123
  2968  012BA8  010F               	movlb	15	; () banked
  2969  012BAA  6F36               	movwf	54,b	;volatile
  2970                           
  2971                           ; BSR set to: 15
  2972                           ;usb_device.c: 1369: {RCONbits.IPEN = 1;IPR2bits.USBIP = 1;PIE2bits.USBIE = 1;INTCONbits
      +                          .GIEH = 1;};
  2973  012BAC  8ED0               	bsf	4048,7,c	;volatile
  2974                           
  2975                           ; BSR set to: 15
  2976  012BAE  88A2               	bsf	4002,4,c	;volatile
  2977                           
  2978                           ; BSR set to: 15
  2979  012BB0  88A0               	bsf	4000,4,c	;volatile
  2980                           
  2981                           ; BSR set to: 15
  2982  012BB2  8EF2               	bsf	intcon,7,c	;volatile
  2983                           
  2984                           ;usb_device.c: 1372: while(!UCONbits.USBEN){UCONbits.USBEN = 1;}
  2985  012BB4  D001               	goto	l1025
  2986  012BB6                     l1026:
  2987  012BB6  8665               	bsf	3941,3,c	;volatile
  2988  012BB8                     l1025:
  2989  012BB8  A665               	btfss	3941,3,c	;volatile
  2990  012BBA  D7FD               	goto	l1026
  2991                           
  2992                           ;usb_device.c: 1375: USBDeviceState = ATTACHED_STATE;
  2993  012BBC  0E01               	movlw	1
  2994  012BBE  6E25               	movwf	_USBDeviceState,c	;volatile
  2995  012BC0  0012               	return	
  2996  012BC2                     __end_of_USBDeviceAttach:
  2997                           	opt stack 0
  2998                           tblptru	equ	0xFF8
  2999                           tblptrh	equ	0xFF7
  3000                           tblptrl	equ	0xFF6
  3001                           tablat	equ	0xFF5
  3002                           prodh	equ	0xFF4
  3003                           prodl	equ	0xFF3
  3004                           intcon	equ	0xFF2
  3005                           intcon2	equ	0xFF1
  3006                           postinc0	equ	0xFEE
  3007                           wreg	equ	0xFE8
  3008                           postdec1	equ	0xFE5
  3009                           fsr1h	equ	0xFE2
  3010                           fsr1l	equ	0xFE1
  3011                           indf2	equ	0xFDF
  3012                           postinc2	equ	0xFDE
  3013                           postdec2	equ	0xFDD
  3014                           fsr2h	equ	0xFDA
  3015                           fsr2l	equ	0xFD9
  3016                           status	equ	0xFD8
  3017                           
  3018 ;; *************** function _UART_init *****************
  3019 ;; Defined at:
  3020 ;;		line 174 in file "../../../My_library/My_PIC.c"
  3021 ;; Parameters:    Size  Location     Type
  3022 ;;		None
  3023 ;; Auto vars:     Size  Location     Type
  3024 ;;		None
  3025 ;; Return value:  Size  Location     Type
  3026 ;;		None               void
  3027 ;; Registers used:
  3028 ;;		wreg, status,2
  3029 ;; Tracked objects:
  3030 ;;		On entry : 0/0
  3031 ;;		On exit  : 0/0
  3032 ;;		Unchanged: 0/0
  3033 ;; Data sizes:     COMRAM   BANK0   BANK1   BANK2   BANK3   BANK4   BANK5   BANK6   BANK7   BANK8   BANK9  BANK10  BANK1
      +1  BANK12  BANK13  BANK14
  3034 ;;      Params:         0       0       0       0       0       0       0       0       0       0       0       0       
      +0       0       0       0
  3035 ;;      Locals:         0       0       0       0       0       0       0       0       0       0       0       0       
      +0       0       0       0
  3036 ;;      Temps:          0       0       0       0       0       0       0       0       0       0       0       0       
      +0       0       0       0
  3037 ;;      Totals:         0       0       0       0       0       0       0       0       0       0       0       0       
      +0       0       0       0
  3038 ;;Total ram usage:        0 bytes
  3039 ;; Hardware stack levels used:    1
  3040 ;; Hardware stack levels required when called:   11
  3041 ;; This function calls:
  3042 ;;		Nothing
  3043 ;; This function is called by:
  3044 ;;		_main_init
  3045 ;; This function uses a non-reentrant model
  3046 ;;
  3047                           
  3048                           	psect	text10
  3049  012E1A                     __ptext10:
  3050                           	opt stack 0
  3051  012E1A                     _UART_init:
  3052                           	opt stack 18
  3053                           
  3054                           ;My_PIC.c: 175: TXSTA1bits.TX9 = 0;
  3055                           
  3056                           ;incstack = 0
  3057  012E1A  9CAD               	bcf	4013,6,c	;volatile
  3058                           
  3059                           ;My_PIC.c: 176: TXSTA1bits.TXEN = 1;
  3060  012E1C  8AAD               	bsf	4013,5,c	;volatile
  3061                           
  3062                           ;My_PIC.c: 177: TXSTA1bits.SYNC = 0;
  3063  012E1E  98AD               	bcf	4013,4,c	;volatile
  3064                           
  3065                           ;My_PIC.c: 178: TXSTA1bits.BRGH = 0;
  3066  012E20  94AD               	bcf	4013,2,c	;volatile
  3067                           
  3068                           ;My_PIC.c: 179: RCSTA1bits.SPEN = 1;
  3069  012E22  8EAC               	bsf	4012,7,c	;volatile
  3070                           
  3071                           ;My_PIC.c: 180: RCSTA1bits.RX9 = 0;
  3072  012E24  9CAC               	bcf	4012,6,c	;volatile
  3073                           
  3074                           ;My_PIC.c: 181: RCSTA1bits.CREN = 1;
  3075  012E26  88AC               	bsf	4012,4,c	;volatile
  3076                           
  3077                           ;My_PIC.c: 182: BAUDCON1bits.BRG16 = 1;
  3078  012E28  867E               	bsf	3966,3,c	;volatile
  3079                           
  3080                           ;My_PIC.c: 183: SPBRG1 = 48000000 / 16 / 115200 - 1;
  3081  012E2A  0E19               	movlw	25
  3082  012E2C  6EB0               	movwf	4016,c	;volatile
  3083                           
  3084                           ;My_PIC.c: 184: SPBRGH1 = (48000000 / 16 / 115200 - 1) >> 8;
  3085  012E2E  0E00               	movlw	0
  3086  012E30  6E7F               	movwf	3967,c	;volatile
  3087                           
  3088                           ;My_PIC.c: 185: IPR1bits.RC1IP = 0;
  3089  012E32  9A9F               	bcf	3999,5,c	;volatile
  3090                           
  3091                           ;My_PIC.c: 186: PIE1bits.RCIE = 1;
  3092  012E34  8A9D               	bsf	3997,5,c	;volatile
  3093                           
  3094                           ;My_PIC.c: 187: INTCONbits.PEIE = 1;
  3095  012E36  8CF2               	bsf	intcon,6,c	;volatile
  3096  012E38  0012               	return		;funcret
  3097  012E3A                     __end_of_UART_init:
  3098                           	opt stack 0
  3099                           tblptru	equ	0xFF8
  3100                           tblptrh	equ	0xFF7
  3101                           tblptrl	equ	0xFF6
  3102                           tablat	equ	0xFF5
  3103                           prodh	equ	0xFF4
  3104                           prodl	equ	0xFF3
  3105                           intcon	equ	0xFF2
  3106                           intcon2	equ	0xFF1
  3107                           postinc0	equ	0xFEE
  3108                           wreg	equ	0xFE8
  3109                           postdec1	equ	0xFE5
  3110                           fsr1h	equ	0xFE2
  3111                           fsr1l	equ	0xFE1
  3112                           indf2	equ	0xFDF
  3113                           postinc2	equ	0xFDE
  3114                           postdec2	equ	0xFDD
  3115                           fsr2h	equ	0xFDA
  3116                           fsr2l	equ	0xFD9
  3117                           status	equ	0xFD8
  3118                           
  3119 ;; *************** function _RTCC_init *****************
  3120 ;; Defined at:
  3121 ;;		line 22 in file "../../../My_library/My_RTCC.c"
  3122 ;; Parameters:    Size  Location     Type
  3123 ;;		None
  3124 ;; Auto vars:     Size  Location     Type
  3125 ;;		None
  3126 ;; Return value:  Size  Location     Type
  3127 ;;		None               void
  3128 ;; Registers used:
  3129 ;;		wreg, status,2
  3130 ;; Tracked objects:
  3131 ;;		On entry : 0/0
  3132 ;;		On exit  : 0/0
  3133 ;;		Unchanged: 0/0
  3134 ;; Data sizes:     COMRAM   BANK0   BANK1   BANK2   BANK3   BANK4   BANK5   BANK6   BANK7   BANK8   BANK9  BANK10  BANK1
      +1  BANK12  BANK13  BANK14
  3135 ;;      Params:         0       0       0       0       0       0       0       0       0       0       0       0       
      +0       0       0       0
  3136 ;;      Locals:         0       0       0       0       0       0       0       0       0       0       0       0       
      +0       0       0       0
  3137 ;;      Temps:          0       0       0       0       0       0       0       0       0       0       0       0       
      +0       0       0       0
  3138 ;;      Totals:         0       0       0       0       0       0       0       0       0       0       0       0       
      +0       0       0       0
  3139 ;;Total ram usage:        0 bytes
  3140 ;; Hardware stack levels used:    1
  3141 ;; Hardware stack levels required when called:   11
  3142 ;; This function calls:
  3143 ;;		Nothing
  3144 ;; This function is called by:
  3145 ;;		_main_init
  3146 ;; This function uses a non-reentrant model
  3147 ;;
  3148                           
  3149                           	psect	text11
  3150  012C60                     __ptext11:
  3151                           	opt stack 0
  3152  012C60                     _RTCC_init:
  3153                           	opt stack 18
  3154                           
  3155                           ;My_RTCC.c: 23: RTCCFGbits.RTCWREN = 1;
  3156                           
  3157                           ;incstack = 0
  3158  012C60  010F               	movlb	15	; () banked
  3159  012C62  8B3F               	bsf	63,5,b	;volatile
  3160                           
  3161                           ;My_RTCC.c: 24: if (RTCCFGbits.RTCWREN != 1) {
  3162  012C64  010F               	movlb	15	; () banked
  3163  012C66  BB3F               	btfsc	63,5,b	;volatile
  3164  012C68  D006               	goto	l7886
  3165                           
  3166                           ; BSR set to: 15
  3167                           ;My_RTCC.c: 25: EECON2 = 0x55;
  3168  012C6A  0E55               	movlw	85
  3169  012C6C  6EA7               	movwf	4007,c	;volatile
  3170                           
  3171                           ;My_RTCC.c: 26: EECON2 = 0xAA;
  3172  012C6E  0EAA               	movlw	170
  3173  012C70  6EA7               	movwf	4007,c	;volatile
  3174                           
  3175                           ; BSR set to: 15
  3176                           ;My_RTCC.c: 27: RTCCFGbits.RTCWREN = 1;
  3177  012C72  010F               	movlb	15	; () banked
  3178  012C74  8B3F               	bsf	63,5,b	;volatile
  3179  012C76                     l7886:
  3180                           
  3181                           ; BSR set to: 15
  3182                           ;My_RTCC.c: 28: }
  3183                           ;My_RTCC.c: 29: RTCCFGbits.RTCEN = 1;
  3184  012C76  010F               	movlb	15	; () banked
  3185  012C78  8F3F               	bsf	63,7,b	;volatile
  3186                           
  3187                           ; BSR set to: 15
  3188                           ;My_RTCC.c: 30: RTCCFGbits.RTCOE = 0;
  3189  012C7A  010F               	movlb	15	; () banked
  3190  012C7C  953F               	bcf	63,2,b	;volatile
  3191                           
  3192                           ; BSR set to: 15
  3193                           ;My_RTCC.c: 31: PADCFG1bits.RTSECSEL0 = 1;
  3194  012C7E  010F               	movlb	15	; () banked
  3195  012C80  833C               	bsf	60,1,b	;volatile
  3196                           
  3197                           ; BSR set to: 15
  3198                           ;My_RTCC.c: 32: PADCFG1bits.RTSECSEL1 = 1;
  3199  012C82  010F               	movlb	15	; () banked
  3200  012C84  853C               	bsf	60,2,b	;volatile
  3201                           
  3202                           ;My_RTCC.c: 33: RTCCAL = 0x00;
  3203  012C86  0E00               	movlw	0
  3204  012C88  010F               	movlb	15	; () banked
  3205  012C8A  6F3E               	movwf	62,b	;volatile
  3206                           
  3207                           ; BSR set to: 15
  3208                           ;My_RTCC.c: 34: T1CONbits.T1OSCEN = 1;
  3209  012C8C  86CD               	bsf	4045,3,c	;volatile
  3210                           
  3211                           ; BSR set to: 15
  3212  012C8E  0012               	return		;funcret
  3213  012C90                     __end_of_RTCC_init:
  3214                           	opt stack 0
  3215                           tblptru	equ	0xFF8
  3216                           tblptrh	equ	0xFF7
  3217                           tblptrl	equ	0xFF6
  3218                           tablat	equ	0xFF5
  3219                           prodh	equ	0xFF4
  3220                           prodl	equ	0xFF3
  3221                           intcon	equ	0xFF2
  3222                           intcon2	equ	0xFF1
  3223                           postinc0	equ	0xFEE
  3224                           wreg	equ	0xFE8
  3225                           postdec1	equ	0xFE5
  3226                           fsr1h	equ	0xFE2
  3227                           fsr1l	equ	0xFE1
  3228                           indf2	equ	0xFDF
  3229                           postinc2	equ	0xFDE
  3230                           postdec2	equ	0xFDD
  3231                           fsr2h	equ	0xFDA
  3232                           fsr2l	equ	0xFD9
  3233                           status	equ	0xFD8
  3234                           
  3235 ;; *************** function _OSC_init *****************
  3236 ;; Defined at:
  3237 ;;		line 106 in file "../../../My_library/My_PIC.c"
  3238 ;; Parameters:    Size  Location     Type
  3239 ;;		None
  3240 ;; Auto vars:     Size  Location     Type
  3241 ;;		None
  3242 ;; Return value:  Size  Location     Type
  3243 ;;		None               void
  3244 ;; Registers used:
  3245 ;;		wreg, status,2
  3246 ;; Tracked objects:
  3247 ;;		On entry : 0/0
  3248 ;;		On exit  : 0/0
  3249 ;;		Unchanged: 0/0
  3250 ;; Data sizes:     COMRAM   BANK0   BANK1   BANK2   BANK3   BANK4   BANK5   BANK6   BANK7   BANK8   BANK9  BANK10  BANK1
      +1  BANK12  BANK13  BANK14
  3251 ;;      Params:         0       0       0       0       0       0       0       0       0       0       0       0       
      +0       0       0       0
  3252 ;;      Locals:         0       0       0       0       0       0       0       0       0       0       0       0       
      +0       0       0       0
  3253 ;;      Temps:          0       0       0       0       0       0       0       0       0       0       0       0       
      +0       0       0       0
  3254 ;;      Totals:         0       0       0       0       0       0       0       0       0       0       0       0       
      +0       0       0       0
  3255 ;;Total ram usage:        0 bytes
  3256 ;; Hardware stack levels used:    1
  3257 ;; Hardware stack levels required when called:   11
  3258 ;; This function calls:
  3259 ;;		Nothing
  3260 ;; This function is called by:
  3261 ;;		_main_init
  3262 ;; This function uses a non-reentrant model
  3263 ;;
  3264                           
  3265                           	psect	text12
  3266  012F48                     __ptext12:
  3267                           	opt stack 0
  3268  012F48                     _OSC_init:
  3269                           	opt stack 18
  3270                           
  3271                           ;My_PIC.c: 107: OSCCONbits.IRCF = 7;
  3272                           
  3273                           ; BSR set to: 15
  3274                           ;incstack = 0
  3275  012F48  88D3               	bsf	4051,4,c	;volatile
  3276  012F4A  8AD3               	bsf	4051,5,c	;volatile
  3277  012F4C  8CD3               	bsf	4051,6,c	;volatile
  3278                           
  3279                           ;My_PIC.c: 108: OSCTUNEbits.PLLEN = 1;
  3280  012F4E  8C9B               	bsf	3995,6,c	;volatile
  3281                           
  3282                           ;My_PIC.c: 109: OSCCONbits.SCS = 0;
  3283  012F50  0EFC               	movlw	-4
  3284  012F52  16D3               	andwf	4051,f,c	;volatile
  3285  012F54  0012               	return		;funcret
  3286  012F56                     __end_of_OSC_init:
  3287                           	opt stack 0
  3288                           tblptru	equ	0xFF8
  3289                           tblptrh	equ	0xFF7
  3290                           tblptrl	equ	0xFF6
  3291                           tablat	equ	0xFF5
  3292                           prodh	equ	0xFF4
  3293                           prodl	equ	0xFF3
  3294                           intcon	equ	0xFF2
  3295                           intcon2	equ	0xFF1
  3296                           postinc0	equ	0xFEE
  3297                           wreg	equ	0xFE8
  3298                           postdec1	equ	0xFE5
  3299                           fsr1h	equ	0xFE2
  3300                           fsr1l	equ	0xFE1
  3301                           indf2	equ	0xFDF
  3302                           postinc2	equ	0xFDE
  3303                           postdec2	equ	0xFDD
  3304                           fsr2h	equ	0xFDA
  3305                           fsr2l	equ	0xFD9
  3306                           status	equ	0xFD8
  3307                           
  3308 ;; *************** function _I2C_init *****************
  3309 ;; Defined at:
  3310 ;;		line 11 in file "../../../My_library/My_I2C.c"
  3311 ;; Parameters:    Size  Location     Type
  3312 ;;		None
  3313 ;; Auto vars:     Size  Location     Type
  3314 ;;		None
  3315 ;; Return value:  Size  Location     Type
  3316 ;;		None               void
  3317 ;; Registers used:
  3318 ;;		wreg, status,2
  3319 ;; Tracked objects:
  3320 ;;		On entry : 0/0
  3321 ;;		On exit  : 0/0
  3322 ;;		Unchanged: 0/0
  3323 ;; Data sizes:     COMRAM   BANK0   BANK1   BANK2   BANK3   BANK4   BANK5   BANK6   BANK7   BANK8   BANK9  BANK10  BANK1
      +1  BANK12  BANK13  BANK14
  3324 ;;      Params:         0       0       0       0       0       0       0       0       0       0       0       0       
      +0       0       0       0
  3325 ;;      Locals:         0       0       0       0       0       0       0       0       0       0       0       0       
      +0       0       0       0
  3326 ;;      Temps:          0       0       0       0       0       0       0       0       0       0       0       0       
      +0       0       0       0
  3327 ;;      Totals:         0       0       0       0       0       0       0       0       0       0       0       0       
      +0       0       0       0
  3328 ;;Total ram usage:        0 bytes
  3329 ;; Hardware stack levels used:    1
  3330 ;; Hardware stack levels required when called:   11
  3331 ;; This function calls:
  3332 ;;		Nothing
  3333 ;; This function is called by:
  3334 ;;		_main_init
  3335 ;; This function uses a non-reentrant model
  3336 ;;
  3337                           
  3338                           	psect	text13
  3339  012F36                     __ptext13:
  3340                           	opt stack 0
  3341  012F36                     _I2C_init:
  3342                           	opt stack 18
  3343                           
  3344                           ;My_I2C.c: 12: SSP1STAT = 0b10000000;
  3345                           
  3346                           ;incstack = 0
  3347  012F36  0E80               	movlw	128
  3348  012F38  6EC7               	movwf	4039,c	;volatile
  3349                           
  3350                           ;My_I2C.c: 13: SSP1CON1 = 0b00101000;
  3351  012F3A  0E28               	movlw	40
  3352  012F3C  6EC6               	movwf	4038,c	;volatile
  3353                           
  3354                           ;My_I2C.c: 14: SSP1ADD = 0x13;
  3355  012F3E  0E13               	movlw	19
  3356  012F40  6EC8               	movwf	4040,c	;volatile
  3357                           
  3358                           ;My_I2C.c: 17: SSP1IF = 0;
  3359  012F42  969E               	bcf	3998,3,c	;volatile
  3360                           
  3361                           ;My_I2C.c: 18: BCL1IF = 0;
  3362  012F44  96A1               	bcf	4001,3,c	;volatile
  3363  012F46  0012               	return		;funcret
  3364  012F48                     __end_of_I2C_init:
  3365                           	opt stack 0
  3366                           tblptru	equ	0xFF8
  3367                           tblptrh	equ	0xFF7
  3368                           tblptrl	equ	0xFF6
  3369                           tablat	equ	0xFF5
  3370                           prodh	equ	0xFF4
  3371                           prodl	equ	0xFF3
  3372                           intcon	equ	0xFF2
  3373                           intcon2	equ	0xFF1
  3374                           postinc0	equ	0xFEE
  3375                           wreg	equ	0xFE8
  3376                           postdec1	equ	0xFE5
  3377                           fsr1h	equ	0xFE2
  3378                           fsr1l	equ	0xFE1
  3379                           indf2	equ	0xFDF
  3380                           postinc2	equ	0xFDE
  3381                           postdec2	equ	0xFDD
  3382                           fsr2h	equ	0xFDA
  3383                           fsr2l	equ	0xFD9
  3384                           status	equ	0xFD8
  3385                           
  3386 ;; *************** function _I2C_LCD_init *****************
  3387 ;; Defined at:
  3388 ;;		line 78 in file "../../../My_library/My_ST7032.c"
  3389 ;; Parameters:    Size  Location     Type
  3390 ;;		None
  3391 ;; Auto vars:     Size  Location     Type
  3392 ;;  i               1    9[BANK0 ] unsigned char 
  3393 ;;  i               1    8[BANK0 ] unsigned char 
  3394 ;; Return value:  Size  Location     Type
  3395 ;;		None               void
  3396 ;; Registers used:
  3397 ;;		wreg, status,2, status,0, cstack
  3398 ;; Tracked objects:
  3399 ;;		On entry : 0/0
  3400 ;;		On exit  : 0/0
  3401 ;;		Unchanged: 0/0
  3402 ;; Data sizes:     COMRAM   BANK0   BANK1   BANK2   BANK3   BANK4   BANK5   BANK6   BANK7   BANK8   BANK9  BANK10  BANK1
      +1  BANK12  BANK13  BANK14
  3403 ;;      Params:         0       0       0       0       0       0       0       0       0       0       0       0       
      +0       0       0       0
  3404 ;;      Locals:         0       2       0       0       0       0       0       0       0       0       0       0       
      +0       0       0       0
  3405 ;;      Temps:          0       1       0       0       0       0       0       0       0       0       0       0       
      +0       0       0       0
  3406 ;;      Totals:         0       3       0       0       0       0       0       0       0       0       0       0       
      +0       0       0       0
  3407 ;;Total ram usage:        3 bytes
  3408 ;; Hardware stack levels used:    1
  3409 ;; Hardware stack levels required when called:   15
  3410 ;; This function calls:
  3411 ;;		_I2C_LCD_Clear
  3412 ;;		_I2C_LCD_Command
  3413 ;; This function is called by:
  3414 ;;		_main_init
  3415 ;; This function uses a non-reentrant model
  3416 ;;
  3417                           
  3418                           	psect	text14
  3419  012630                     __ptext14:
  3420                           	opt stack 0
  3421  012630                     _I2C_LCD_init:
  3422                           	opt stack 14
  3423                           
  3424                           ;My_ST7032.c: 79: for (uint8_t i = 0; i < 40; i++) _delay((unsigned long)((1)*(48000000/
      +                          4000.0)));
  3425                           
  3426                           ;incstack = 0
  3427  012630  0E00               	movlw	0
  3428  012632  0100               	movlb	0	; () banked
  3429  012634  6FD1               	movwf	I2C_LCD_init@i& (0+255),b
  3430  012636                     l7858:
  3431                           
  3432                           ; BSR set to: 0
  3433  012636  0E27               	movlw	39
  3434  012638  0100               	movlb	0	; () banked
  3435  01263A  65D1               	cpfsgt	I2C_LCD_init@i& (0+255),b
  3436  01263C  D001               	goto	l7862
  3437  01263E  D00C               	goto	l7866
  3438  012640                     l7862:
  3439                           
  3440                           ; BSR set to: 0
  3441  012640  0E10               	movlw	16
  3442  012642  0100               	movlb	0	; () banked
  3443  012644  6FD0               	movwf	??_I2C_LCD_init& (0+255),b
  3444  012646  0E94               	movlw	148
  3445  012648                     u8557:
  3446  012648  2EE8               	decfsz	wreg,f,c
  3447  01264A  D7FE               	goto	u8557
  3448  01264C  2FD0               	decfsz	??_I2C_LCD_init& (0+255),f,b
  3449  01264E  D7FC               	goto	u8557
  3450  012650  D000               	nop2	
  3451  012652  0100               	movlb	0	; () banked
  3452  012654  2BD1               	incf	I2C_LCD_init@i& (0+255),f,b
  3453  012656  D7EF               	goto	l7858
  3454  012658                     l7866:
  3455                           
  3456                           ; BSR set to: 0
  3457                           ;My_ST7032.c: 80: I2C_LCD_Command(0x38);
  3458  012658  0E38               	movlw	56
  3459  01265A  ECE1  F095         	call	_I2C_LCD_Command
  3460                           
  3461                           ;My_ST7032.c: 81: I2C_LCD_Command(0x39);
  3462  01265E  0E39               	movlw	57
  3463  012660  ECE1  F095         	call	_I2C_LCD_Command
  3464                           
  3465                           ;My_ST7032.c: 82: I2C_LCD_Command(0x14);
  3466  012664  0E14               	movlw	20
  3467  012666  ECE1  F095         	call	_I2C_LCD_Command
  3468                           
  3469                           ;My_ST7032.c: 83: I2C_LCD_Command(0x70);
  3470  01266A  0E70               	movlw	112
  3471  01266C  ECE1  F095         	call	_I2C_LCD_Command
  3472                           
  3473                           ;My_ST7032.c: 84: I2C_LCD_Command(0x56);
  3474  012670  0E56               	movlw	86
  3475  012672  ECE1  F095         	call	_I2C_LCD_Command
  3476                           
  3477                           ;My_ST7032.c: 85: I2C_LCD_Command(0x6C);
  3478  012676  0E6C               	movlw	108
  3479  012678  ECE1  F095         	call	_I2C_LCD_Command
  3480                           
  3481                           ;My_ST7032.c: 86: for (uint8_t i = 0; i < 40; i++) _delay((unsigned long)((1)*(48000000/
      +                          4000.0)));
  3482  01267C  0E00               	movlw	0
  3483  01267E  0100               	movlb	0	; () banked
  3484  012680  6FD2               	movwf	I2C_LCD_init@i_3142& (0+255),b
  3485  012682                     l7870:
  3486                           
  3487                           ; BSR set to: 0
  3488  012682  0E27               	movlw	39
  3489  012684  0100               	movlb	0	; () banked
  3490  012686  65D2               	cpfsgt	I2C_LCD_init@i_3142& (0+255),b
  3491  012688  D001               	goto	l7874
  3492  01268A  D00C               	goto	l7878
  3493  01268C                     l7874:
  3494                           
  3495                           ; BSR set to: 0
  3496  01268C  0E10               	movlw	16
  3497  01268E  0100               	movlb	0	; () banked
  3498  012690  6FD0               	movwf	??_I2C_LCD_init& (0+255),b
  3499  012692  0E94               	movlw	148
  3500  012694                     u8567:
  3501  012694  2EE8               	decfsz	wreg,f,c
  3502  012696  D7FE               	goto	u8567
  3503  012698  2FD0               	decfsz	??_I2C_LCD_init& (0+255),f,b
  3504  01269A  D7FC               	goto	u8567
  3505  01269C  D000               	nop2	
  3506  01269E  0100               	movlb	0	; () banked
  3507  0126A0  2BD2               	incf	I2C_LCD_init@i_3142& (0+255),f,b
  3508  0126A2  D7EF               	goto	l7870
  3509  0126A4                     l7878:
  3510                           
  3511                           ; BSR set to: 0
  3512                           ;My_ST7032.c: 87: I2C_LCD_Command(0x38);
  3513  0126A4  0E38               	movlw	56
  3514  0126A6  ECE1  F095         	call	_I2C_LCD_Command
  3515                           
  3516                           ;My_ST7032.c: 88: I2C_LCD_Command(0x0C);
  3517  0126AA  0E0C               	movlw	12
  3518  0126AC  ECE1  F095         	call	_I2C_LCD_Command
  3519                           
  3520                           ;My_ST7032.c: 89: I2C_LCD_Command(0x06);
  3521  0126B0  0E06               	movlw	6
  3522  0126B2  ECE1  F095         	call	_I2C_LCD_Command
  3523                           
  3524                           ;My_ST7032.c: 90: I2C_LCD_Clear();
  3525  0126B6  EC68  F097         	call	_I2C_LCD_Clear	;wreg free
  3526  0126BA  0012               	return		;funcret
  3527  0126BC                     __end_of_I2C_LCD_init:
  3528                           	opt stack 0
  3529                           tblptru	equ	0xFF8
  3530                           tblptrh	equ	0xFF7
  3531                           tblptrl	equ	0xFF6
  3532                           tablat	equ	0xFF5
  3533                           prodh	equ	0xFF4
  3534                           prodl	equ	0xFF3
  3535                           intcon	equ	0xFF2
  3536                           intcon2	equ	0xFF1
  3537                           postinc0	equ	0xFEE
  3538                           wreg	equ	0xFE8
  3539                           postdec1	equ	0xFE5
  3540                           fsr1h	equ	0xFE2
  3541                           fsr1l	equ	0xFE1
  3542                           indf2	equ	0xFDF
  3543                           postinc2	equ	0xFDE
  3544                           postdec2	equ	0xFDD
  3545                           fsr2h	equ	0xFDA
  3546                           fsr2l	equ	0xFD9
  3547                           status	equ	0xFD8
  3548                           
  3549 ;; *************** function _I2C_LCD_Clear *****************
  3550 ;; Defined at:
  3551 ;;		line 21 in file "../../../My_library/My_ST7032.c"
  3552 ;; Parameters:    Size  Location     Type
  3553 ;;		None
  3554 ;; Auto vars:     Size  Location     Type
  3555 ;;		None
  3556 ;; Return value:  Size  Location     Type
  3557 ;;		None               void
  3558 ;; Registers used:
  3559 ;;		wreg, status,2, status,0, cstack
  3560 ;; Tracked objects:
  3561 ;;		On entry : 0/0
  3562 ;;		On exit  : 0/0
  3563 ;;		Unchanged: 0/0
  3564 ;; Data sizes:     COMRAM   BANK0   BANK1   BANK2   BANK3   BANK4   BANK5   BANK6   BANK7   BANK8   BANK9  BANK10  BANK1
      +1  BANK12  BANK13  BANK14
  3565 ;;      Params:         0       0       0       0       0       0       0       0       0       0       0       0       
      +0       0       0       0
  3566 ;;      Locals:         0       0       0       0       0       0       0       0       0       0       0       0       
      +0       0       0       0
  3567 ;;      Temps:          0       1       0       0       0       0       0       0       0       0       0       0       
      +0       0       0       0
  3568 ;;      Totals:         0       1       0       0       0       0       0       0       0       0       0       0       
      +0       0       0       0
  3569 ;;Total ram usage:        1 bytes
  3570 ;; Hardware stack levels used:    1
  3571 ;; Hardware stack levels required when called:   14
  3572 ;; This function calls:
  3573 ;;		_I2C_LCD_Command
  3574 ;; This function is called by:
  3575 ;;		_main
  3576 ;;		_I2C_LCD_init
  3577 ;; This function uses a non-reentrant model
  3578 ;;
  3579                           
  3580                           	psect	text15
  3581  012ED0                     __ptext15:
  3582                           	opt stack 0
  3583  012ED0                     _I2C_LCD_Clear:
  3584                           	opt stack 14
  3585                           
  3586                           ;My_ST7032.c: 22: I2C_LCD_Command(0x01);
  3587                           
  3588                           ;incstack = 0
  3589  012ED0  0E01               	movlw	1
  3590  012ED2  ECE1  F095         	call	_I2C_LCD_Command
  3591                           
  3592                           ;My_ST7032.c: 23: _delay((unsigned long)((1100)*(48000000/4000000.0)));
  3593  012ED6  0E12               	movlw	18
  3594  012ED8  0100               	movlb	0	; () banked
  3595  012EDA  6FCF               	movwf	??_I2C_LCD_Clear& (0+255),b
  3596  012EDC  0E23               	movlw	35
  3597  012EDE                     u8577:
  3598  012EDE  2EE8               	decfsz	wreg,f,c
  3599  012EE0  D7FE               	goto	u8577
  3600  012EE2  2FCF               	decfsz	??_I2C_LCD_Clear& (0+255),f,b
  3601  012EE4  D7FC               	goto	u8577
  3602  012EE6  F000               	nop	
  3603  012EE8  0012               	return		;funcret
  3604  012EEA                     __end_of_I2C_LCD_Clear:
  3605                           	opt stack 0
  3606                           tblptru	equ	0xFF8
  3607                           tblptrh	equ	0xFF7
  3608                           tblptrl	equ	0xFF6
  3609                           tablat	equ	0xFF5
  3610                           prodh	equ	0xFF4
  3611                           prodl	equ	0xFF3
  3612                           intcon	equ	0xFF2
  3613                           intcon2	equ	0xFF1
  3614                           postinc0	equ	0xFEE
  3615                           wreg	equ	0xFE8
  3616                           postdec1	equ	0xFE5
  3617                           fsr1h	equ	0xFE2
  3618                           fsr1l	equ	0xFE1
  3619                           indf2	equ	0xFDF
  3620                           postinc2	equ	0xFDE
  3621                           postdec2	equ	0xFDD
  3622                           fsr2h	equ	0xFDA
  3623                           fsr2l	equ	0xFD9
  3624                           status	equ	0xFD8
  3625                           
  3626 ;; *************** function _USB_task *****************
  3627 ;; Defined at:
  3628 ;;		line 66 in file "../../../My_library/My_usb_cdc.c"
  3629 ;; Parameters:    Size  Location     Type
  3630 ;;		None
  3631 ;; Auto vars:     Size  Location     Type
  3632 ;;  rx_len          2   22[BANK0 ] int 
  3633 ;;  data            1   24[BANK0 ] unsigned char 
  3634 ;; Return value:  Size  Location     Type
  3635 ;;		None               void
  3636 ;; Registers used:
  3637 ;;		wreg, fsr1l, fsr1h, fsr2l, fsr2h, status,2, status,0, prodl, prodh, cstack
  3638 ;; Tracked objects:
  3639 ;;		On entry : 0/0
  3640 ;;		On exit  : 0/0
  3641 ;;		Unchanged: 0/0
  3642 ;; Data sizes:     COMRAM   BANK0   BANK1   BANK2   BANK3   BANK4   BANK5   BANK6   BANK7   BANK8   BANK9  BANK10  BANK1
      +1  BANK12  BANK13  BANK14
  3643 ;;      Params:         0       0       0       0       0       0       0       0       0       0       0       0       
      +0       0       0       0
  3644 ;;      Locals:         0       3       0       0       0       0       0       0       0       0       0       0       
      +0       0       0       0
  3645 ;;      Temps:          0       0       0       0       0       0       0       0       0       0       0       0       
      +0       0       0       0
  3646 ;;      Totals:         0       3       0       0       0       0       0       0       0       0       0       0       
      +0       0       0       0
  3647 ;;Total ram usage:        3 bytes
  3648 ;; Hardware stack levels used:    1
  3649 ;; Hardware stack levels required when called:   14
  3650 ;; This function calls:
  3651 ;;		_get_string_usb
  3652 ;;		_put_string_usb
  3653 ;;		_ringbuf_num
  3654 ;;		_ringbuf_pop
  3655 ;;		_ringbuf_put
  3656 ;; This function is called by:
  3657 ;;		_main
  3658 ;; This function uses a non-reentrant model
  3659 ;;
  3660                           
  3661                           	psect	text16
  3662  0125A2                     __ptext16:
  3663                           	opt stack 0
  3664  0125A2                     _USB_task:
  3665                           	opt stack 16
  3666                           
  3667                           ;My_usb_cdc.c: 67: char data;
  3668                           ;My_usb_cdc.c: 68: int rx_len;
  3669                           ;My_usb_cdc.c: 69: rx_len = get_string_usb(&data, 1);
  3670                           
  3671                           ;incstack = 0
  3672  0125A2  0EE1               	movlw	low USB_task@data
  3673  0125A4  0100               	movlb	0	; () banked
  3674  0125A6  6FD6               	movwf	get_string_usb@s& (0+255),b
  3675  0125A8  0E00               	movlw	high USB_task@data
  3676  0125AA  0100               	movlb	0	; () banked
  3677  0125AC  6FD7               	movwf	(get_string_usb@s+1)& (0+255),b
  3678  0125AE  0E00               	movlw	0
  3679  0125B0  0100               	movlb	0	; () banked
  3680  0125B2  6FD9               	movwf	(get_string_usb@len+1)& (0+255),b
  3681  0125B4  0E01               	movlw	1
  3682  0125B6  6FD8               	movwf	get_string_usb@len& (0+255),b
  3683  0125B8  ECFD  F094         	call	_get_string_usb	;wreg free
  3684  0125BC  C0D6  F0DF         	movff	?_get_string_usb,USB_task@rx_len
  3685  0125C0  C0D7  F0E0         	movff	?_get_string_usb+1,USB_task@rx_len+1
  3686                           
  3687                           ;My_usb_cdc.c: 70: if (rx_len) {
  3688  0125C4  0100               	movlb	0	; () banked
  3689  0125C6  51DF               	movf	USB_task@rx_len& (0+255),w,b
  3690  0125C8  0100               	movlb	0	; () banked
  3691  0125CA  11E0               	iorwf	(USB_task@rx_len+1)& (0+255),w,b
  3692  0125CC  B4D8               	btfsc	status,2,c
  3693  0125CE  D00A               	goto	l816
  3694                           
  3695                           ; BSR set to: 0
  3696                           ;My_usb_cdc.c: 71: ringbuf_put(&usb_rx, data);
  3697  0125D0  0EA8               	movlw	low _usb_rx
  3698  0125D2  0100               	movlb	0	; () banked
  3699  0125D4  6FD8               	movwf	ringbuf_put@rb& (0+255),b
  3700  0125D6  0E00               	movlw	high _usb_rx
  3701  0125D8  0100               	movlb	0	; () banked
  3702  0125DA  6FD9               	movwf	(ringbuf_put@rb+1)& (0+255),b
  3703  0125DC  C0E1  F0DA         	movff	USB_task@data,ringbuf_put@asciicode
  3704  0125E0  ECEE  F08B         	call	_ringbuf_put	;wreg free
  3705  0125E4                     l816:
  3706                           
  3707                           ;My_usb_cdc.c: 72: }
  3708                           ;My_usb_cdc.c: 73: if (ringbuf_num(&usb_tx)) {
  3709  0125E4  0EB0               	movlw	low _usb_tx
  3710  0125E6  0100               	movlb	0	; () banked
  3711  0125E8  6FC9               	movwf	ringbuf_num@rb& (0+255),b
  3712  0125EA  0E00               	movlw	high _usb_tx
  3713  0125EC  0100               	movlb	0	; () banked
  3714  0125EE  6FCA               	movwf	(ringbuf_num@rb+1)& (0+255),b
  3715  0125F0  EC70  F088         	call	_ringbuf_num	;wreg free
  3716  0125F4  0100               	movlb	0	; () banked
  3717  0125F6  51C9               	movf	?_ringbuf_num& (0+255),w,b
  3718  0125F8  0100               	movlb	0	; () banked
  3719  0125FA  11CA               	iorwf	(?_ringbuf_num+1)& (0+255),w,b
  3720  0125FC  B4D8               	btfsc	status,2,c
  3721  0125FE  0012               	return	
  3722                           
  3723                           ; BSR set to: 0
  3724                           ;My_usb_cdc.c: 74: data = ringbuf_pop(&usb_tx);
  3725  012600  0EB0               	movlw	low _usb_tx
  3726  012602  0100               	movlb	0	; () banked
  3727  012604  6FD1               	movwf	ringbuf_pop@rb& (0+255),b
  3728  012606  0E00               	movlw	high _usb_tx
  3729  012608  0100               	movlb	0	; () banked
  3730  01260A  6FD2               	movwf	(ringbuf_pop@rb+1)& (0+255),b
  3731  01260C  EC92  F08D         	call	_ringbuf_pop	;wreg free
  3732  012610  0100               	movlb	0	; () banked
  3733  012612  6FE1               	movwf	USB_task@data& (0+255),b
  3734                           
  3735                           ; BSR set to: 0
  3736                           ;My_usb_cdc.c: 75: put_string_usb(&data, 1);
  3737  012614  0EE1               	movlw	low USB_task@data
  3738  012616  0100               	movlb	0	; () banked
  3739  012618  6FD5               	movwf	put_string_usb@s& (0+255),b
  3740  01261A  0E00               	movlw	high USB_task@data
  3741  01261C  0100               	movlb	0	; () banked
  3742  01261E  6FD6               	movwf	(put_string_usb@s+1)& (0+255),b
  3743  012620  0E00               	movlw	0
  3744  012622  0100               	movlb	0	; () banked
  3745  012624  6FD8               	movwf	(put_string_usb@len+1)& (0+255),b
  3746  012626  0E01               	movlw	1
  3747  012628  6FD7               	movwf	put_string_usb@len& (0+255),b
  3748  01262A  EC60  F096         	call	_put_string_usb	;wreg free
  3749  01262E  0012               	return	
  3750  012630                     __end_of_USB_task:
  3751                           	opt stack 0
  3752                           tblptru	equ	0xFF8
  3753                           tblptrh	equ	0xFF7
  3754                           tblptrl	equ	0xFF6
  3755                           tablat	equ	0xFF5
  3756                           prodh	equ	0xFF4
  3757                           prodl	equ	0xFF3
  3758                           intcon	equ	0xFF2
  3759                           intcon2	equ	0xFF1
  3760                           postinc0	equ	0xFEE
  3761                           wreg	equ	0xFE8
  3762                           postdec1	equ	0xFE5
  3763                           fsr1h	equ	0xFE2
  3764                           fsr1l	equ	0xFE1
  3765                           indf2	equ	0xFDF
  3766                           postinc2	equ	0xFDE
  3767                           postdec2	equ	0xFDD
  3768                           fsr2h	equ	0xFDA
  3769                           fsr2l	equ	0xFD9
  3770                           status	equ	0xFD8
  3771                           
  3772 ;; *************** function _ringbuf_put *****************
  3773 ;; Defined at:
  3774 ;;		line 20 in file "../../../My_library/My_ringbuf.c"
  3775 ;; Parameters:    Size  Location     Type
  3776 ;;  rb              2   15[BANK0 ] PTR struct ringbuf
  3777 ;;		 -> terminal_task@command(8), uart_rx(8), uart_tx(8), usb_rx(8), 
  3778 ;;		 -> usb_tx(8), 
  3779 ;;  asciicode       1   17[BANK0 ] unsigned char 
  3780 ;; Auto vars:     Size  Location     Type
  3781 ;;		None
  3782 ;; Return value:  Size  Location     Type
  3783 ;;		None               void
  3784 ;; Registers used:
  3785 ;;		wreg, fsr1l, fsr1h, fsr2l, fsr2h, status,2, status,0, cstack
  3786 ;; Tracked objects:
  3787 ;;		On entry : 0/0
  3788 ;;		On exit  : 0/0
  3789 ;;		Unchanged: 0/0
  3790 ;; Data sizes:     COMRAM   BANK0   BANK1   BANK2   BANK3   BANK4   BANK5   BANK6   BANK7   BANK8   BANK9  BANK10  BANK1
      +1  BANK12  BANK13  BANK14
  3791 ;;      Params:         0       3       0       0       0       0       0       0       0       0       0       0       
      +0       0       0       0
  3792 ;;      Locals:         0       0       0       0       0       0       0       0       0       0       0       0       
      +0       0       0       0
  3793 ;;      Temps:          0       4       0       0       0       0       0       0       0       0       0       0       
      +0       0       0       0
  3794 ;;      Totals:         0       7       0       0       0       0       0       0       0       0       0       0       
      +0       0       0       0
  3795 ;;Total ram usage:        7 bytes
  3796 ;; Hardware stack levels used:    1
  3797 ;; Hardware stack levels required when called:   12
  3798 ;; This function calls:
  3799 ;;		_ringbuf_num
  3800 ;; This function is called by:
  3801 ;;		_main
  3802 ;;		_USB_task
  3803 ;;		_ringbuf_put_num
  3804 ;;		_ringbuf_put_str
  3805 ;;		_terminal_task
  3806 ;; This function uses a non-reentrant model
  3807 ;;
  3808                           
  3809                           	psect	text17
  3810  0117DC                     __ptext17:
  3811                           	opt stack 0
  3812  0117DC                     _ringbuf_put:
  3813                           	opt stack 18
  3814                           
  3815                           ;My_ringbuf.c: 21: if (ringbuf_num(rb) < rb->size) {
  3816                           
  3817                           ;incstack = 0
  3818  0117DC  C0D8  F0C9         	movff	ringbuf_put@rb,ringbuf_num@rb
  3819  0117E0  C0D9  F0CA         	movff	ringbuf_put@rb+1,ringbuf_num@rb+1
  3820  0117E4  EC70  F088         	call	_ringbuf_num	;wreg free
  3821  0117E8  0100               	movlb	0	; () banked
  3822  0117EA  EE20 F002          	lfsr	2,2
  3823  0117EE  51D8               	movf	ringbuf_put@rb& (0+255),w,b
  3824  0117F0  26D9               	addwf	fsr2l,f,c
  3825  0117F2  51D9               	movf	(ringbuf_put@rb+1)& (0+255),w,b
  3826  0117F4  22DA               	addwfc	fsr2h,f,c
  3827  0117F6  50DE               	movf	postinc2,w,c
  3828  0117F8  0100               	movlb	0	; () banked
  3829  0117FA  5DC9               	subwf	?_ringbuf_num& (0+255),w,b
  3830  0117FC  50DE               	movf	postinc2,w,c
  3831  0117FE  0100               	movlb	0	; () banked
  3832  011800  59CA               	subwfb	(?_ringbuf_num+1)& (0+255),w,b
  3833  011802  B0D8               	btfsc	status,0,c
  3834  011804  0012               	return	
  3835                           
  3836                           ; BSR set to: 0
  3837                           ;My_ringbuf.c: 22: rb->buf[rb->head] = asciicode;
  3838  011806  0100               	movlb	0	; () banked
  3839  011808  EE20 F004          	lfsr	2,4
  3840  01180C  51D8               	movf	ringbuf_put@rb& (0+255),w,b
  3841  01180E  26D9               	addwf	fsr2l,f,c
  3842  011810  51D9               	movf	(ringbuf_put@rb+1)& (0+255),w,b
  3843  011812  22DA               	addwfc	fsr2h,f,c
  3844  011814  CFDE F0DB          	movff	postinc2,??_ringbuf_put
  3845  011818  CFDD F0DC          	movff	postdec2,??_ringbuf_put+1
  3846  01181C  C0D8  FFD9         	movff	ringbuf_put@rb,fsr2l
  3847  011820  C0D9  FFDA         	movff	ringbuf_put@rb+1,fsr2h
  3848  011824  CFDE F0DD          	movff	postinc2,??_ringbuf_put+2
  3849  011828  CFDD F0DE          	movff	postdec2,??_ringbuf_put+3
  3850  01182C  0100               	movlb	0	; () banked
  3851  01182E  51DB               	movf	??_ringbuf_put& (0+255),w,b
  3852  011830  0100               	movlb	0	; () banked
  3853  011832  25DD               	addwf	(??_ringbuf_put+2)& (0+255),w,b
  3854  011834  6ED9               	movwf	fsr2l,c
  3855  011836  0100               	movlb	0	; () banked
  3856  011838  51DC               	movf	(??_ringbuf_put+1)& (0+255),w,b
  3857  01183A  0100               	movlb	0	; () banked
  3858  01183C  21DE               	addwfc	(??_ringbuf_put+3)& (0+255),w,b
  3859  01183E  6EDA               	movwf	fsr2h,c
  3860  011840  C0DA  FFDF         	movff	ringbuf_put@asciicode,indf2
  3861                           
  3862                           ; BSR set to: 0
  3863                           ;My_ringbuf.c: 23: if (rb->head + 1 < rb->size) rb->head++;
  3864  011844  0100               	movlb	0	; () banked
  3865  011846  EE20 F002          	lfsr	2,2
  3866  01184A  51D8               	movf	ringbuf_put@rb& (0+255),w,b
  3867  01184C  26D9               	addwf	fsr2l,f,c
  3868  01184E  51D9               	movf	(ringbuf_put@rb+1)& (0+255),w,b
  3869  011850  22DA               	addwfc	fsr2h,f,c
  3870  011852  0100               	movlb	0	; () banked
  3871  011854  EE10 F004          	lfsr	1,4
  3872  011858  51D8               	movf	ringbuf_put@rb& (0+255),w,b
  3873  01185A  26E1               	addwf	fsr1l,f,c
  3874  01185C  51D9               	movf	(ringbuf_put@rb+1)& (0+255),w,b
  3875  01185E  22E2               	addwfc	fsr1h,f,c
  3876  011860  CFE6 F0DD          	movff	postinc1,??_ringbuf_put+2
  3877  011864  CFE5 F0DE          	movff	postdec1,??_ringbuf_put+3
  3878  011868  0E01               	movlw	1
  3879  01186A  0100               	movlb	0	; () banked
  3880  01186C  27DD               	addwf	(??_ringbuf_put+2)& (0+255),f,b
  3881  01186E  0E00               	movlw	0
  3882  011870  23DE               	addwfc	(??_ringbuf_put+3)& (0+255),f,b
  3883  011872  50DE               	movf	postinc2,w,c
  3884  011874  0100               	movlb	0	; () banked
  3885  011876  5DDD               	subwf	(??_ringbuf_put+2)& (0+255),w,b
  3886  011878  50DE               	movf	postinc2,w,c
  3887  01187A  0100               	movlb	0	; () banked
  3888  01187C  59DE               	subwfb	(??_ringbuf_put+3)& (0+255),w,b
  3889  01187E  B0D8               	btfsc	status,0,c
  3890  011880  D00B               	goto	l7952
  3891                           
  3892                           ; BSR set to: 0
  3893  011882  0100               	movlb	0	; () banked
  3894  011884  EE20 F004          	lfsr	2,4
  3895  011888  51D8               	movf	ringbuf_put@rb& (0+255),w,b
  3896  01188A  26D9               	addwf	fsr2l,f,c
  3897  01188C  51D9               	movf	(ringbuf_put@rb+1)& (0+255),w,b
  3898  01188E  22DA               	addwfc	fsr2h,f,c
  3899  011890  2ADE               	incf	postinc2,f,c
  3900  011892  0E00               	movlw	0
  3901  011894  22DD               	addwfc	postdec2,f,c
  3902  011896  0012               	return	
  3903  011898                     l7952:
  3904                           
  3905                           ; BSR set to: 0
  3906                           ;My_ringbuf.c: 24: else rb->head = 0;
  3907  011898  0100               	movlb	0	; () banked
  3908  01189A  EE20 F004          	lfsr	2,4
  3909  01189E  51D8               	movf	ringbuf_put@rb& (0+255),w,b
  3910  0118A0  26D9               	addwf	fsr2l,f,c
  3911  0118A2  51D9               	movf	(ringbuf_put@rb+1)& (0+255),w,b
  3912  0118A4  22DA               	addwfc	fsr2h,f,c
  3913  0118A6  0E00               	movlw	0
  3914  0118A8  6EDE               	movwf	postinc2,c
  3915  0118AA  0E00               	movlw	0
  3916  0118AC  6EDD               	movwf	postdec2,c
  3917                           
  3918                           ; BSR set to: 0
  3919  0118AE  0012               	return	
  3920  0118B0                     __end_of_ringbuf_put:
  3921                           	opt stack 0
  3922                           tblptru	equ	0xFF8
  3923                           tblptrh	equ	0xFF7
  3924                           tblptrl	equ	0xFF6
  3925                           tablat	equ	0xFF5
  3926                           prodh	equ	0xFF4
  3927                           prodl	equ	0xFF3
  3928                           intcon	equ	0xFF2
  3929                           intcon2	equ	0xFF1
  3930                           postinc0	equ	0xFEE
  3931                           wreg	equ	0xFE8
  3932                           postinc1	equ	0xFE6
  3933                           postdec1	equ	0xFE5
  3934                           fsr1h	equ	0xFE2
  3935                           fsr1l	equ	0xFE1
  3936                           indf2	equ	0xFDF
  3937                           postinc2	equ	0xFDE
  3938                           postdec2	equ	0xFDD
  3939                           fsr2h	equ	0xFDA
  3940                           fsr2l	equ	0xFD9
  3941                           status	equ	0xFD8
  3942                           
  3943 ;; *************** function _ringbuf_pop *****************
  3944 ;; Defined at:
  3945 ;;		line 45 in file "../../../My_library/My_ringbuf.c"
  3946 ;; Parameters:    Size  Location     Type
  3947 ;;  rb              2    8[BANK0 ] PTR struct ringbuf
  3948 ;;		 -> terminal_task@command(8), uart_rx(8), uart_tx(8), usb_rx(8), 
  3949 ;;		 -> usb_tx(8), 
  3950 ;; Auto vars:     Size  Location     Type
  3951 ;;  ret             1   14[BANK0 ] unsigned char 
  3952 ;; Return value:  Size  Location     Type
  3953 ;;                  1    wreg      unsigned char 
  3954 ;; Registers used:
  3955 ;;		wreg, fsr1l, fsr1h, fsr2l, fsr2h, status,2, status,0, cstack
  3956 ;; Tracked objects:
  3957 ;;		On entry : 0/0
  3958 ;;		On exit  : 0/0
  3959 ;;		Unchanged: 0/0
  3960 ;; Data sizes:     COMRAM   BANK0   BANK1   BANK2   BANK3   BANK4   BANK5   BANK6   BANK7   BANK8   BANK9  BANK10  BANK1
      +1  BANK12  BANK13  BANK14
  3961 ;;      Params:         0       2       0       0       0       0       0       0       0       0       0       0       
      +0       0       0       0
  3962 ;;      Locals:         0       1       0       0       0       0       0       0       0       0       0       0       
      +0       0       0       0
  3963 ;;      Temps:          0       4       0       0       0       0       0       0       0       0       0       0       
      +0       0       0       0
  3964 ;;      Totals:         0       7       0       0       0       0       0       0       0       0       0       0       
      +0       0       0       0
  3965 ;;Total ram usage:        7 bytes
  3966 ;; Hardware stack levels used:    1
  3967 ;; Hardware stack levels required when called:   12
  3968 ;; This function calls:
  3969 ;;		_ringbuf_num
  3970 ;; This function is called by:
  3971 ;;		_main
  3972 ;;		_USB_task
  3973 ;;		_terminal_task
  3974 ;; This function uses a non-reentrant model
  3975 ;;
  3976                           
  3977                           	psect	text18
  3978  011B24                     __ptext18:
  3979                           	opt stack 0
  3980  011B24                     _ringbuf_pop:
  3981                           	opt stack 18
  3982                           
  3983                           ;My_ringbuf.c: 46: if (ringbuf_num(rb)) {
  3984                           
  3985                           ; BSR set to: 0
  3986                           ;incstack = 0
  3987  011B24  C0D1  F0C9         	movff	ringbuf_pop@rb,ringbuf_num@rb
  3988  011B28  C0D2  F0CA         	movff	ringbuf_pop@rb+1,ringbuf_num@rb+1
  3989  011B2C  EC70  F088         	call	_ringbuf_num	;wreg free
  3990  011B30  0100               	movlb	0	; () banked
  3991  011B32  51C9               	movf	?_ringbuf_num& (0+255),w,b
  3992  011B34  0100               	movlb	0	; () banked
  3993  011B36  11CA               	iorwf	(?_ringbuf_num+1)& (0+255),w,b
  3994  011B38  B4D8               	btfsc	status,2,c
  3995  011B3A  D058               	goto	l7940
  3996                           
  3997                           ; BSR set to: 0
  3998                           ;My_ringbuf.c: 47: char ret = rb->buf[rb->tail];
  3999  011B3C  0100               	movlb	0	; () banked
  4000  011B3E  EE20 F006          	lfsr	2,6
  4001  011B42  51D1               	movf	ringbuf_pop@rb& (0+255),w,b
  4002  011B44  26D9               	addwf	fsr2l,f,c
  4003  011B46  51D2               	movf	(ringbuf_pop@rb+1)& (0+255),w,b
  4004  011B48  22DA               	addwfc	fsr2h,f,c
  4005  011B4A  CFDE F0D3          	movff	postinc2,??_ringbuf_pop
  4006  011B4E  CFDD F0D4          	movff	postdec2,??_ringbuf_pop+1
  4007  011B52  C0D1  FFD9         	movff	ringbuf_pop@rb,fsr2l
  4008  011B56  C0D2  FFDA         	movff	ringbuf_pop@rb+1,fsr2h
  4009  011B5A  CFDE F0D5          	movff	postinc2,??_ringbuf_pop+2
  4010  011B5E  CFDD F0D6          	movff	postdec2,??_ringbuf_pop+3
  4011  011B62  0100               	movlb	0	; () banked
  4012  011B64  51D3               	movf	??_ringbuf_pop& (0+255),w,b
  4013  011B66  0100               	movlb	0	; () banked
  4014  011B68  25D5               	addwf	(??_ringbuf_pop+2)& (0+255),w,b
  4015  011B6A  6ED9               	movwf	fsr2l,c
  4016  011B6C  0100               	movlb	0	; () banked
  4017  011B6E  51D4               	movf	(??_ringbuf_pop+1)& (0+255),w,b
  4018  011B70  0100               	movlb	0	; () banked
  4019  011B72  21D6               	addwfc	(??_ringbuf_pop+3)& (0+255),w,b
  4020  011B74  6EDA               	movwf	fsr2h,c
  4021  011B76  50DF               	movf	indf2,w,c
  4022  011B78  0100               	movlb	0	; () banked
  4023  011B7A  6FD7               	movwf	ringbuf_pop@ret& (0+255),b
  4024                           
  4025                           ; BSR set to: 0
  4026                           ;My_ringbuf.c: 48: if (rb->tail + 1 < rb->size) {
  4027  011B7C  0100               	movlb	0	; () banked
  4028  011B7E  EE20 F002          	lfsr	2,2
  4029  011B82  51D1               	movf	ringbuf_pop@rb& (0+255),w,b
  4030  011B84  26D9               	addwf	fsr2l,f,c
  4031  011B86  51D2               	movf	(ringbuf_pop@rb+1)& (0+255),w,b
  4032  011B88  22DA               	addwfc	fsr2h,f,c
  4033  011B8A  0100               	movlb	0	; () banked
  4034  011B8C  EE10 F006          	lfsr	1,6
  4035  011B90  51D1               	movf	ringbuf_pop@rb& (0+255),w,b
  4036  011B92  26E1               	addwf	fsr1l,f,c
  4037  011B94  51D2               	movf	(ringbuf_pop@rb+1)& (0+255),w,b
  4038  011B96  22E2               	addwfc	fsr1h,f,c
  4039  011B98  CFE6 F0D5          	movff	postinc1,??_ringbuf_pop+2
  4040  011B9C  CFE5 F0D6          	movff	postdec1,??_ringbuf_pop+3
  4041  011BA0  0E01               	movlw	1
  4042  011BA2  0100               	movlb	0	; () banked
  4043  011BA4  27D5               	addwf	(??_ringbuf_pop+2)& (0+255),f,b
  4044  011BA6  0E00               	movlw	0
  4045  011BA8  23D6               	addwfc	(??_ringbuf_pop+3)& (0+255),f,b
  4046  011BAA  50DE               	movf	postinc2,w,c
  4047  011BAC  0100               	movlb	0	; () banked
  4048  011BAE  5DD5               	subwf	(??_ringbuf_pop+2)& (0+255),w,b
  4049  011BB0  50DE               	movf	postinc2,w,c
  4050  011BB2  0100               	movlb	0	; () banked
  4051  011BB4  59D6               	subwfb	(??_ringbuf_pop+3)& (0+255),w,b
  4052  011BB6  B0D8               	btfsc	status,0,c
  4053  011BB8  D00B               	goto	l7932
  4054                           
  4055                           ; BSR set to: 0
  4056                           ;My_ringbuf.c: 49: rb->tail++;
  4057  011BBA  0100               	movlb	0	; () banked
  4058  011BBC  EE20 F006          	lfsr	2,6
  4059  011BC0  51D1               	movf	ringbuf_pop@rb& (0+255),w,b
  4060  011BC2  26D9               	addwf	fsr2l,f,c
  4061  011BC4  51D2               	movf	(ringbuf_pop@rb+1)& (0+255),w,b
  4062  011BC6  22DA               	addwfc	fsr2h,f,c
  4063  011BC8  2ADE               	incf	postinc2,f,c
  4064  011BCA  0E00               	movlw	0
  4065  011BCC  22DD               	addwfc	postdec2,f,c
  4066                           
  4067                           ;My_ringbuf.c: 50: } else {
  4068  011BCE  D00B               	goto	l7934
  4069  011BD0                     l7932:
  4070                           
  4071                           ; BSR set to: 0
  4072                           ;My_ringbuf.c: 51: rb->tail = 0;
  4073  011BD0  0100               	movlb	0	; () banked
  4074  011BD2  EE20 F006          	lfsr	2,6
  4075  011BD6  51D1               	movf	ringbuf_pop@rb& (0+255),w,b
  4076  011BD8  26D9               	addwf	fsr2l,f,c
  4077  011BDA  51D2               	movf	(ringbuf_pop@rb+1)& (0+255),w,b
  4078  011BDC  22DA               	addwfc	fsr2h,f,c
  4079  011BDE  0E00               	movlw	0
  4080  011BE0  6EDE               	movwf	postinc2,c
  4081  011BE2  0E00               	movlw	0
  4082  011BE4  6EDD               	movwf	postdec2,c
  4083  011BE6                     l7934:
  4084                           
  4085                           ; BSR set to: 0
  4086                           ;My_ringbuf.c: 52: }
  4087                           ;My_ringbuf.c: 53: return ret;
  4088  011BE6  0100               	movlb	0	; () banked
  4089  011BE8  51D7               	movf	ringbuf_pop@ret& (0+255),w,b
  4090                           
  4091                           ; BSR set to: 0
  4092                           ;My_ringbuf.c: 54: } else {
  4093                           
  4094                           ; BSR set to: 0
  4095  011BEA  0012               	return	
  4096  011BEC                     l7940:
  4097                           
  4098                           ; BSR set to: 0
  4099                           ;My_ringbuf.c: 55: return 0;
  4100  011BEC  0E00               	movlw	0
  4101                           
  4102                           ; BSR set to: 0
  4103  011BEE  0012               	return	
  4104  011BF0                     __end_of_ringbuf_pop:
  4105                           	opt stack 0
  4106                           tblptru	equ	0xFF8
  4107                           tblptrh	equ	0xFF7
  4108                           tblptrl	equ	0xFF6
  4109                           tablat	equ	0xFF5
  4110                           prodh	equ	0xFF4
  4111                           prodl	equ	0xFF3
  4112                           intcon	equ	0xFF2
  4113                           intcon2	equ	0xFF1
  4114                           postinc0	equ	0xFEE
  4115                           wreg	equ	0xFE8
  4116                           postinc1	equ	0xFE6
  4117                           postdec1	equ	0xFE5
  4118                           fsr1h	equ	0xFE2
  4119                           fsr1l	equ	0xFE1
  4120                           indf2	equ	0xFDF
  4121                           postinc2	equ	0xFDE
  4122                           postdec2	equ	0xFDD
  4123                           fsr2h	equ	0xFDA
  4124                           fsr2l	equ	0xFD9
  4125                           status	equ	0xFD8
  4126                           
  4127 ;; *************** function _put_string_usb *****************
  4128 ;; Defined at:
  4129 ;;		line 21 in file "../../../My_library/My_usb_cdc.c"
  4130 ;; Parameters:    Size  Location     Type
  4131 ;;  s               2   12[BANK0 ] PTR unsigned char 
  4132 ;;		 -> USB_task@data(1), 
  4133 ;;  len             2   14[BANK0 ] int 
  4134 ;; Auto vars:     Size  Location     Type
  4135 ;;		None
  4136 ;; Return value:  Size  Location     Type
  4137 ;;                  2   12[BANK0 ] int 
  4138 ;; Registers used:
  4139 ;;		wreg, fsr1l, fsr1h, fsr2l, fsr2h, status,2, status,0, prodl, prodh, cstack
  4140 ;; Tracked objects:
  4141 ;;		On entry : 0/0
  4142 ;;		On exit  : 0/0
  4143 ;;		Unchanged: 0/0
  4144 ;; Data sizes:     COMRAM   BANK0   BANK1   BANK2   BANK3   BANK4   BANK5   BANK6   BANK7   BANK8   BANK9  BANK10  BANK1
      +1  BANK12  BANK13  BANK14
  4145 ;;      Params:         0       4       0       0       0       0       0       0       0       0       0       0       
      +0       0       0       0
  4146 ;;      Locals:         0       0       0       0       0       0       0       0       0       0       0       0       
      +0       0       0       0
  4147 ;;      Temps:          0       0       0       0       0       0       0       0       0       0       0       0       
      +0       0       0       0
  4148 ;;      Totals:         0       4       0       0       0       0       0       0       0       0       0       0       
      +0       0       0       0
  4149 ;;Total ram usage:        4 bytes
  4150 ;; Hardware stack levels used:    1
  4151 ;; Hardware stack levels required when called:   13
  4152 ;; This function calls:
  4153 ;;		_CDCTxService
  4154 ;;		_is_usb_available
  4155 ;;		_putUSBUSART
  4156 ;; This function is called by:
  4157 ;;		_USB_task
  4158 ;; This function uses a non-reentrant model
  4159 ;;
  4160                           
  4161                           	psect	text19
  4162  012CC0                     __ptext19:
  4163                           	opt stack 0
  4164  012CC0                     _put_string_usb:
  4165                           	opt stack 16
  4166                           
  4167                           ;My_usb_cdc.c: 22: if (!is_usb_available()) {
  4168                           
  4169                           ; BSR set to: 0
  4170                           ;incstack = 0
  4171  012CC0  EC5A  F097         	call	_is_usb_available	;wreg free
  4172  012CC4  0900               	iorlw	0
  4173  012CC6  B4D8               	btfsc	status,2,c
  4174  012CC8  0012               	return	
  4175  012CCA  D002               	goto	l8050
  4176  012CCC                     l8048:
  4177  012CCC  EC7E  F083         	call	_CDCTxService	;wreg free
  4178  012CD0                     l8050:
  4179  012CD0  0100               	movlb	0	; () banked
  4180  012CD2  5184               	movf	_cdc_trf_state& (0+255),w,b
  4181  012CD4  A4D8               	btfss	status,2,c
  4182  012CD6  D7FA               	goto	l8048
  4183                           
  4184                           ; BSR set to: 0
  4185                           ;My_usb_cdc.c: 27: putUSBUSART(s, len);
  4186                           
  4187                           ; BSR set to: 0
  4188  012CD8  C0D5  F0C9         	movff	put_string_usb@s,putUSBUSART@data
  4189  012CDC  C0D6  F0CA         	movff	put_string_usb@s+1,putUSBUSART@data+1
  4190  012CE0  C0D7  F0CB         	movff	put_string_usb@len,putUSBUSART@length
  4191  012CE4  ECFA  F096         	call	_putUSBUSART	;wreg free
  4192                           
  4193                           ;My_usb_cdc.c: 28: CDCTxService();
  4194  012CE8  EC7E  F083         	call	_CDCTxService	;wreg free
  4195  012CEC  0012               	return	
  4196  012CEE                     __end_of_put_string_usb:
  4197                           	opt stack 0
  4198                           tblptru	equ	0xFF8
  4199                           tblptrh	equ	0xFF7
  4200                           tblptrl	equ	0xFF6
  4201                           tablat	equ	0xFF5
  4202                           prodh	equ	0xFF4
  4203                           prodl	equ	0xFF3
  4204                           intcon	equ	0xFF2
  4205                           intcon2	equ	0xFF1
  4206                           postinc0	equ	0xFEE
  4207                           wreg	equ	0xFE8
  4208                           postinc1	equ	0xFE6
  4209                           postdec1	equ	0xFE5
  4210                           fsr1h	equ	0xFE2
  4211                           fsr1l	equ	0xFE1
  4212                           indf2	equ	0xFDF
  4213                           postinc2	equ	0xFDE
  4214                           postdec2	equ	0xFDD
  4215                           fsr2h	equ	0xFDA
  4216                           fsr2l	equ	0xFD9
  4217                           status	equ	0xFD8
  4218                           
  4219 ;; *************** function _putUSBUSART *****************
  4220 ;; Defined at:
  4221 ;;		line 613 in file "../../../My_library/usb/usb_device_cdc.c"
  4222 ;; Parameters:    Size  Location     Type
  4223 ;;  data            2    0[BANK0 ] PTR unsigned char 
  4224 ;;		 -> USB_task@data(1), 
  4225 ;;  length          1    2[BANK0 ] unsigned char 
  4226 ;; Auto vars:     Size  Location     Type
  4227 ;;		None
  4228 ;; Return value:  Size  Location     Type
  4229 ;;		None               void
  4230 ;; Registers used:
  4231 ;;		wreg, status,2, status,0
  4232 ;; Tracked objects:
  4233 ;;		On entry : 0/0
  4234 ;;		On exit  : 0/0
  4235 ;;		Unchanged: 0/0
  4236 ;; Data sizes:     COMRAM   BANK0   BANK1   BANK2   BANK3   BANK4   BANK5   BANK6   BANK7   BANK8   BANK9  BANK10  BANK1
      +1  BANK12  BANK13  BANK14
  4237 ;;      Params:         0       3       0       0       0       0       0       0       0       0       0       0       
      +0       0       0       0
  4238 ;;      Locals:         0       0       0       0       0       0       0       0       0       0       0       0       
      +0       0       0       0
  4239 ;;      Temps:          0       0       0       0       0       0       0       0       0       0       0       0       
      +0       0       0       0
  4240 ;;      Totals:         0       3       0       0       0       0       0       0       0       0       0       0       
      +0       0       0       0
  4241 ;;Total ram usage:        3 bytes
  4242 ;; Hardware stack levels used:    1
  4243 ;; Hardware stack levels required when called:   11
  4244 ;; This function calls:
  4245 ;;		Nothing
  4246 ;; This function is called by:
  4247 ;;		_put_string_usb
  4248 ;; This function uses a non-reentrant model
  4249 ;;
  4250                           
  4251                           	psect	text20
  4252  012DF4                     __ptext20:
  4253                           	opt stack 0
  4254  012DF4                     _putUSBUSART:
  4255                           	opt stack 17
  4256                           
  4257                           ;usb_device_cdc.c: 638: {PIE2bits.USBIE = 0;};
  4258                           
  4259                           ;incstack = 0
  4260  012DF4  98A0               	bcf	4000,4,c	;volatile
  4261                           
  4262                           ;usb_device_cdc.c: 639: if(cdc_trf_state == 0)
  4263  012DF6  0100               	movlb	0	; () banked
  4264  012DF8  5184               	movf	_cdc_trf_state& (0+255),w,b
  4265  012DFA  A4D8               	btfss	status,2,c
  4266  012DFC  D00C               	goto	l7762
  4267                           
  4268                           ; BSR set to: 0
  4269                           ;usb_device_cdc.c: 640: {
  4270                           ;usb_device_cdc.c: 641: { pCDCSrc.bRam = (uint8_t*)data; cdc_tx_len = length; cdc_mem_ty
      +                          pe = 0x01; cdc_trf_state = 1; };
  4271  012DFE  C0C9  F071         	movff	putUSBUSART@data,_pCDCSrc
  4272  012E02  C0CA  F072         	movff	putUSBUSART@data+1,_pCDCSrc+1
  4273                           
  4274                           ; BSR set to: 0
  4275  012E06  C0CB  F085         	movff	putUSBUSART@length,_cdc_tx_len
  4276                           
  4277                           ; BSR set to: 0
  4278  012E0A  0E01               	movlw	1
  4279  012E0C  0100               	movlb	0	; () banked
  4280  012E0E  6F82               	movwf	_cdc_mem_type& (0+255),b
  4281                           
  4282                           ; BSR set to: 0
  4283  012E10  0E01               	movlw	1
  4284  012E12  0100               	movlb	0	; () banked
  4285  012E14  6F84               	movwf	_cdc_trf_state& (0+255),b
  4286  012E16                     l7762:
  4287                           
  4288                           ; BSR set to: 0
  4289                           ;usb_device_cdc.c: 642: }
  4290                           ;usb_device_cdc.c: 643: {PIE2bits.USBIE = 1;};
  4291  012E16  88A0               	bsf	4000,4,c	;volatile
  4292                           
  4293                           ; BSR set to: 0
  4294  012E18  0012               	return		;funcret
  4295  012E1A                     __end_of_putUSBUSART:
  4296                           	opt stack 0
  4297                           tblptru	equ	0xFF8
  4298                           tblptrh	equ	0xFF7
  4299                           tblptrl	equ	0xFF6
  4300                           tablat	equ	0xFF5
  4301                           prodh	equ	0xFF4
  4302                           prodl	equ	0xFF3
  4303                           intcon	equ	0xFF2
  4304                           intcon2	equ	0xFF1
  4305                           postinc0	equ	0xFEE
  4306                           wreg	equ	0xFE8
  4307                           postinc1	equ	0xFE6
  4308                           postdec1	equ	0xFE5
  4309                           fsr1h	equ	0xFE2
  4310                           fsr1l	equ	0xFE1
  4311                           indf2	equ	0xFDF
  4312                           postinc2	equ	0xFDE
  4313                           postdec2	equ	0xFDD
  4314                           fsr2h	equ	0xFDA
  4315                           fsr2l	equ	0xFD9
  4316                           status	equ	0xFD8
  4317                           
  4318 ;; *************** function _get_string_usb *****************
  4319 ;; Defined at:
  4320 ;;		line 32 in file "../../../My_library/My_usb_cdc.c"
  4321 ;; Parameters:    Size  Location     Type
  4322 ;;  s               2   13[BANK0 ] PTR unsigned char 
  4323 ;;		 -> USB_task@data(1), 
  4324 ;;  len             2   15[BANK0 ] int 
  4325 ;; Auto vars:     Size  Location     Type
  4326 ;;  rx_len          2   18[BANK0 ] int 
  4327 ;; Return value:  Size  Location     Type
  4328 ;;                  2   13[BANK0 ] int 
  4329 ;; Registers used:
  4330 ;;		wreg, fsr1l, fsr1h, fsr2l, fsr2h, status,2, status,0, prodl, prodh, cstack
  4331 ;; Tracked objects:
  4332 ;;		On entry : 0/0
  4333 ;;		On exit  : 0/0
  4334 ;;		Unchanged: 0/0
  4335 ;; Data sizes:     COMRAM   BANK0   BANK1   BANK2   BANK3   BANK4   BANK5   BANK6   BANK7   BANK8   BANK9  BANK10  BANK1
      +1  BANK12  BANK13  BANK14
  4336 ;;      Params:         0       4       0       0       0       0       0       0       0       0       0       0       
      +0       0       0       0
  4337 ;;      Locals:         0       2       0       0       0       0       0       0       0       0       0       0       
      +0       0       0       0
  4338 ;;      Temps:          0       1       0       0       0       0       0       0       0       0       0       0       
      +0       0       0       0
  4339 ;;      Totals:         0       7       0       0       0       0       0       0       0       0       0       0       
      +0       0       0       0
  4340 ;;Total ram usage:        7 bytes
  4341 ;; Hardware stack levels used:    1
  4342 ;; Hardware stack levels required when called:   13
  4343 ;; This function calls:
  4344 ;;		_CDCTxService
  4345 ;;		_getsUSBUSART
  4346 ;;		_is_usb_available
  4347 ;; This function is called by:
  4348 ;;		_USB_task
  4349 ;; This function uses a non-reentrant model
  4350 ;;
  4351                           
  4352                           	psect	text21
  4353  0129FA                     __ptext21:
  4354                           	opt stack 0
  4355  0129FA                     _get_string_usb:
  4356                           	opt stack 16
  4357                           
  4358                           ;My_usb_cdc.c: 33: int rx_len;
  4359                           ;My_usb_cdc.c: 34: if (!is_usb_available()) {
  4360                           
  4361                           ; BSR set to: 0
  4362                           ;incstack = 0
  4363  0129FA  EC5A  F097         	call	_is_usb_available	;wreg free
  4364  0129FE  0900               	iorlw	0
  4365  012A00  A4D8               	btfss	status,2,c
  4366  012A02  D008               	goto	l8066
  4367                           
  4368                           ;My_usb_cdc.c: 36: return 0;
  4369  012A04  0E00               	movlw	0
  4370  012A06  0100               	movlb	0	; () banked
  4371  012A08  6FD7               	movwf	(?_get_string_usb+1)& (0+255),b
  4372  012A0A  0E00               	movlw	0
  4373  012A0C  6FD6               	movwf	?_get_string_usb& (0+255),b
  4374                           
  4375                           ; BSR set to: 0
  4376  012A0E  0012               	return	
  4377  012A10                     l8064:
  4378                           
  4379                           ; BSR set to: 0
  4380  012A10  EC7E  F083         	call	_CDCTxService	;wreg free
  4381  012A14                     l8066:
  4382  012A14  0100               	movlb	0	; () banked
  4383  012A16  5184               	movf	_cdc_trf_state& (0+255),w,b
  4384  012A18  A4D8               	btfss	status,2,c
  4385  012A1A  D7FA               	goto	l8064
  4386                           
  4387                           ; BSR set to: 0
  4388                           ;My_usb_cdc.c: 39: rx_len = getsUSBUSART(s, len);
  4389                           
  4390                           ; BSR set to: 0
  4391  012A1C  C0D6  F0D0         	movff	get_string_usb@s,getsUSBUSART@buffer
  4392  012A20  C0D7  F0D1         	movff	get_string_usb@s+1,getsUSBUSART@buffer+1
  4393  012A24  C0D8  F0D2         	movff	get_string_usb@len,getsUSBUSART@len
  4394  012A28  ECE7  F088         	call	_getsUSBUSART	;wreg free
  4395  012A2C  0100               	movlb	0	; () banked
  4396  012A2E  6FDA               	movwf	??_get_string_usb& (0+255),b
  4397  012A30  0100               	movlb	0	; () banked
  4398  012A32  51DA               	movf	??_get_string_usb& (0+255),w,b
  4399  012A34  0100               	movlb	0	; () banked
  4400  012A36  6FDB               	movwf	get_string_usb@rx_len& (0+255),b
  4401  012A38  6BDC               	clrf	(get_string_usb@rx_len+1)& (0+255),b
  4402                           
  4403                           ;My_usb_cdc.c: 40: CDCTxService();
  4404  012A3A  EC7E  F083         	call	_CDCTxService	;wreg free
  4405                           
  4406                           ;My_usb_cdc.c: 41: return rx_len;
  4407  012A3E  C0DB  F0D6         	movff	get_string_usb@rx_len,?_get_string_usb
  4408  012A42  C0DC  F0D7         	movff	get_string_usb@rx_len+1,?_get_string_usb+1
  4409  012A46  0012               	return	
  4410  012A48                     __end_of_get_string_usb:
  4411                           	opt stack 0
  4412                           tblptru	equ	0xFF8
  4413                           tblptrh	equ	0xFF7
  4414                           tblptrl	equ	0xFF6
  4415                           tablat	equ	0xFF5
  4416                           prodh	equ	0xFF4
  4417                           prodl	equ	0xFF3
  4418                           intcon	equ	0xFF2
  4419                           intcon2	equ	0xFF1
  4420                           postinc0	equ	0xFEE
  4421                           wreg	equ	0xFE8
  4422                           postinc1	equ	0xFE6
  4423                           postdec1	equ	0xFE5
  4424                           fsr1h	equ	0xFE2
  4425                           fsr1l	equ	0xFE1
  4426                           indf2	equ	0xFDF
  4427                           postinc2	equ	0xFDE
  4428                           postdec2	equ	0xFDD
  4429                           fsr2h	equ	0xFDA
  4430                           fsr2l	equ	0xFD9
  4431                           status	equ	0xFD8
  4432                           
  4433 ;; *************** function _is_usb_available *****************
  4434 ;; Defined at:
  4435 ;;		line 17 in file "../../../My_library/My_usb_cdc.c"
  4436 ;; Parameters:    Size  Location     Type
  4437 ;;		None
  4438 ;; Auto vars:     Size  Location     Type
  4439 ;;		None
  4440 ;; Return value:  Size  Location     Type
  4441 ;;                  1    wreg      unsigned char 
  4442 ;; Registers used:
  4443 ;;		wreg, status,2, status,0
  4444 ;; Tracked objects:
  4445 ;;		On entry : 0/0
  4446 ;;		On exit  : 0/0
  4447 ;;		Unchanged: 0/0
  4448 ;; Data sizes:     COMRAM   BANK0   BANK1   BANK2   BANK3   BANK4   BANK5   BANK6   BANK7   BANK8   BANK9  BANK10  BANK1
      +1  BANK12  BANK13  BANK14
  4449 ;;      Params:         0       0       0       0       0       0       0       0       0       0       0       0       
      +0       0       0       0
  4450 ;;      Locals:         0       1       0       0       0       0       0       0       0       0       0       0       
      +0       0       0       0
  4451 ;;      Temps:          0       0       0       0       0       0       0       0       0       0       0       0       
      +0       0       0       0
  4452 ;;      Totals:         0       1       0       0       0       0       0       0       0       0       0       0       
      +0       0       0       0
  4453 ;;Total ram usage:        1 bytes
  4454 ;; Hardware stack levels used:    1
  4455 ;; Hardware stack levels required when called:   11
  4456 ;; This function calls:
  4457 ;;		Nothing
  4458 ;; This function is called by:
  4459 ;;		_put_string_usb
  4460 ;;		_get_string_usb
  4461 ;; This function uses a non-reentrant model
  4462 ;;
  4463                           
  4464                           	psect	text22
  4465  012EB4                     __ptext22:
  4466                           	opt stack 0
  4467  012EB4                     _is_usb_available:
  4468                           	opt stack 17
  4469                           
  4470                           ;My_usb_cdc.c: 18: return !(USBDeviceState < CONFIGURED_STATE || UCONbits.SUSPND == 1);
  4471                           
  4472                           ;incstack = 0
  4473  012EB4  0E00               	movlw	0
  4474  012EB6  0100               	movlb	0	; () banked
  4475  012EB8  6FC9               	movwf	_is_usb_available$3421& (0+255),b
  4476                           
  4477                           ; BSR set to: 0
  4478  012EBA  0E1F               	movlw	31
  4479  012EBC  6425               	cpfsgt	_USBDeviceState,c	;volatile
  4480  012EBE  D005               	goto	l784
  4481                           
  4482                           ; BSR set to: 0
  4483  012EC0  B265               	btfsc	3941,1,c	;volatile
  4484  012EC2  D003               	goto	l784
  4485                           
  4486                           ; BSR set to: 0
  4487  012EC4  0E01               	movlw	1
  4488  012EC6  0100               	movlb	0	; () banked
  4489  012EC8  6FC9               	movwf	_is_usb_available$3421& (0+255),b
  4490  012ECA                     l784:
  4491                           
  4492                           ; BSR set to: 0
  4493  012ECA  0100               	movlb	0	; () banked
  4494  012ECC  51C9               	movf	_is_usb_available$3421& (0+255),w,b
  4495  012ECE  0012               	return	
  4496  012ED0                     __end_of_is_usb_available:
  4497                           	opt stack 0
  4498                           tblptru	equ	0xFF8
  4499                           tblptrh	equ	0xFF7
  4500                           tblptrl	equ	0xFF6
  4501                           tablat	equ	0xFF5
  4502                           prodh	equ	0xFF4
  4503                           prodl	equ	0xFF3
  4504                           intcon	equ	0xFF2
  4505                           intcon2	equ	0xFF1
  4506                           postinc0	equ	0xFEE
  4507                           wreg	equ	0xFE8
  4508                           postinc1	equ	0xFE6
  4509                           postdec1	equ	0xFE5
  4510                           fsr1h	equ	0xFE2
  4511                           fsr1l	equ	0xFE1
  4512                           indf2	equ	0xFDF
  4513                           postinc2	equ	0xFDE
  4514                           postdec2	equ	0xFDD
  4515                           fsr2h	equ	0xFDA
  4516                           fsr2l	equ	0xFD9
  4517                           status	equ	0xFD8
  4518                           
  4519 ;; *************** function _getsUSBUSART *****************
  4520 ;; Defined at:
  4521 ;;		line 542 in file "../../../My_library/usb/usb_device_cdc.c"
  4522 ;; Parameters:    Size  Location     Type
  4523 ;;  buffer          2    7[BANK0 ] PTR unsigned char 
  4524 ;;		 -> USB_task@data(1), 
  4525 ;;  len             1    9[BANK0 ] unsigned char 
  4526 ;; Auto vars:     Size  Location     Type
  4527 ;;		None
  4528 ;; Return value:  Size  Location     Type
  4529 ;;                  1    wreg      unsigned char 
  4530 ;; Registers used:
  4531 ;;		wreg, fsr1l, fsr1h, fsr2l, fsr2h, status,2, status,0, prodl, prodh, cstack
  4532 ;; Tracked objects:
  4533 ;;		On entry : 0/0
  4534 ;;		On exit  : 0/0
  4535 ;;		Unchanged: 0/0
  4536 ;; Data sizes:     COMRAM   BANK0   BANK1   BANK2   BANK3   BANK4   BANK5   BANK6   BANK7   BANK8   BANK9  BANK10  BANK1
      +1  BANK12  BANK13  BANK14
  4537 ;;      Params:         0       3       0       0       0       0       0       0       0       0       0       0       
      +0       0       0       0
  4538 ;;      Locals:         0       2       0       0       0       0       0       0       0       0       0       0       
      +0       0       0       0
  4539 ;;      Temps:          0       1       0       0       0       0       0       0       0       0       0       0       
      +0       0       0       0
  4540 ;;      Totals:         0       6       0       0       0       0       0       0       0       0       0       0       
      +0       0       0       0
  4541 ;;Total ram usage:        6 bytes
  4542 ;; Hardware stack levels used:    1
  4543 ;; Hardware stack levels required when called:   12
  4544 ;; This function calls:
  4545 ;;		_USBTransferOnePacket
  4546 ;; This function is called by:
  4547 ;;		_get_string_usb
  4548 ;; This function uses a non-reentrant model
  4549 ;;
  4550                           
  4551                           	psect	text23
  4552  0111CE                     __ptext23:
  4553                           	opt stack 0
  4554  0111CE                     _getsUSBUSART:
  4555                           	opt stack 16
  4556                           
  4557                           ;usb_device_cdc.c: 544: cdc_rx_len = 0;
  4558                           
  4559                           ; BSR set to: 0
  4560                           ;incstack = 0
  4561  0111CE  0E00               	movlw	0
  4562  0111D0  0100               	movlb	0	; () banked
  4563  0111D2  6F83               	movwf	_cdc_rx_len& (0+255),b
  4564                           
  4565                           ; BSR set to: 0
  4566                           ;usb_device_cdc.c: 546: if(!(CDCDataOutHandle==0?0:((volatile BDT_ENTRY*)CDCDataOutHandl
      +                          e)->STAT.UOWN))
  4567  0111D4  0100               	movlb	0	; () banked
  4568  0111D6  5178               	movf	_CDCDataOutHandle& (0+255),w,b
  4569  0111D8  0100               	movlb	0	; () banked
  4570  0111DA  1179               	iorwf	(_CDCDataOutHandle+1)& (0+255),w,b
  4571  0111DC  B4D8               	btfsc	status,2,c
  4572  0111DE  D013               	goto	l7770
  4573                           
  4574                           ; BSR set to: 0
  4575  0111E0  C078  FFD9         	movff	_CDCDataOutHandle,fsr2l
  4576  0111E4  C079  FFDA         	movff	_CDCDataOutHandle+1,fsr2h
  4577  0111E8  0100               	movlb	0	; () banked
  4578  0111EA  AEDF               	btfss	indf2,7,c
  4579  0111EC  D004               	goto	u7570
  4580  0111EE  0100               	movlb	0	; () banked
  4581  0111F0  6BD3               	clrf	??_getsUSBUSART& (0+255),b
  4582  0111F2  2BD3               	incf	??_getsUSBUSART& (0+255),f,b
  4583  0111F4  D002               	goto	u7578
  4584  0111F6                     u7570:
  4585  0111F6  0100               	movlb	0	; () banked
  4586  0111F8  6BD3               	clrf	??_getsUSBUSART& (0+255),b
  4587  0111FA                     u7578:
  4588  0111FA  0100               	movlb	0	; () banked
  4589  0111FC  51D3               	movf	??_getsUSBUSART& (0+255),w,b
  4590  0111FE  0100               	movlb	0	; () banked
  4591  011200  6FD4               	movwf	_getsUSBUSART$5238& (0+255),b
  4592  011202  6BD5               	clrf	(_getsUSBUSART$5238+1)& (0+255),b
  4593  011204  D005               	goto	l7772
  4594  011206                     l7770:
  4595                           
  4596                           ; BSR set to: 0
  4597  011206  0E00               	movlw	0
  4598  011208  0100               	movlb	0	; () banked
  4599  01120A  6FD5               	movwf	(_getsUSBUSART$5238+1)& (0+255),b
  4600  01120C  0E00               	movlw	0
  4601  01120E  6FD4               	movwf	_getsUSBUSART$5238& (0+255),b
  4602  011210                     l7772:
  4603                           
  4604                           ; BSR set to: 0
  4605  011210  0100               	movlb	0	; () banked
  4606  011212  51D4               	movf	_getsUSBUSART$5238& (0+255),w,b
  4607  011214  0100               	movlb	0	; () banked
  4608  011216  11D5               	iorwf	(_getsUSBUSART$5238+1)& (0+255),w,b
  4609  011218  A4D8               	btfss	status,2,c
  4610  01121A  D04B               	goto	l7788
  4611                           
  4612                           ; BSR set to: 0
  4613                           ;usb_device_cdc.c: 547: {
  4614                           ;usb_device_cdc.c: 552: if(len > (((volatile BDT_ENTRY*)CDCDataOutHandle)->CNT))
  4615  01121C  0100               	movlb	0	; () banked
  4616  01121E  EE20 F001          	lfsr	2,1
  4617  011222  5178               	movf	_CDCDataOutHandle& (0+255),w,b
  4618  011224  26D9               	addwf	fsr2l,f,c
  4619  011226  5179               	movf	(_CDCDataOutHandle+1)& (0+255),w,b
  4620  011228  22DA               	addwfc	fsr2h,f,c
  4621  01122A  0100               	movlb	0	; () banked
  4622  01122C  51D2               	movf	getsUSBUSART@len& (0+255),w,b
  4623  01122E  5CDE               	subwf	postinc2,w,c
  4624  011230  B0D8               	btfsc	status,0,c
  4625  011232  D00A               	goto	l7778
  4626                           
  4627                           ; BSR set to: 0
  4628                           ;usb_device_cdc.c: 553: len = (((volatile BDT_ENTRY*)CDCDataOutHandle)->CNT);
  4629  011234  0100               	movlb	0	; () banked
  4630  011236  EE20 F001          	lfsr	2,1
  4631  01123A  5178               	movf	_CDCDataOutHandle& (0+255),w,b
  4632  01123C  26D9               	addwf	fsr2l,f,c
  4633  01123E  5179               	movf	(_CDCDataOutHandle+1)& (0+255),w,b
  4634  011240  22DA               	addwfc	fsr2h,f,c
  4635  011242  50DF               	movf	indf2,w,c
  4636  011244  0100               	movlb	0	; () banked
  4637  011246  6FD2               	movwf	getsUSBUSART@len& (0+255),b
  4638  011248                     l7778:
  4639                           
  4640                           ; BSR set to: 0
  4641                           ;usb_device_cdc.c: 558: for(cdc_rx_len = 0; cdc_rx_len < len; cdc_rx_len++)
  4642  011248  0E00               	movlw	0
  4643  01124A  0100               	movlb	0	; () banked
  4644  01124C  6F83               	movwf	_cdc_rx_len& (0+255),b
  4645  01124E  D018               	goto	l7784
  4646  011250                     l7780:
  4647                           
  4648                           ; BSR set to: 0
  4649                           ;usb_device_cdc.c: 559: buffer[cdc_rx_len] = cdc_data_rx[cdc_rx_len];
  4650  011250  0100               	movlb	0	; () banked
  4651  011252  5183               	movf	_cdc_rx_len& (0+255),w,b
  4652  011254  0D01               	mullw	1
  4653  011256  0E0A               	movlw	low _cdc_data_rx
  4654  011258  24F3               	addwf	prodl,w,c
  4655  01125A  6ED9               	movwf	fsr2l,c
  4656  01125C  0E01               	movlw	high _cdc_data_rx
  4657  01125E  20F4               	addwfc	prodh,w,c
  4658  011260  6EDA               	movwf	fsr2h,c
  4659  011262  0100               	movlb	0	; () banked
  4660  011264  5183               	movf	_cdc_rx_len& (0+255),w,b
  4661  011266  0D01               	mullw	1
  4662  011268  50F3               	movf	prodl,w,c
  4663  01126A  0100               	movlb	0	; () banked
  4664  01126C  25D0               	addwf	getsUSBUSART@buffer& (0+255),w,b
  4665  01126E  6EE1               	movwf	fsr1l,c
  4666  011270  50F4               	movf	prodh,w,c
  4667  011272  0100               	movlb	0	; () banked
  4668  011274  21D1               	addwfc	(getsUSBUSART@buffer+1)& (0+255),w,b
  4669  011276  6EE2               	movwf	fsr1h,c
  4670  011278  CFDF FFE7          	movff	indf2,indf1
  4671                           
  4672                           ; BSR set to: 0
  4673  01127C  0100               	movlb	0	; () banked
  4674  01127E  2B83               	incf	_cdc_rx_len& (0+255),f,b
  4675  011280                     l7784:
  4676                           
  4677                           ; BSR set to: 0
  4678  011280  0100               	movlb	0	; () banked
  4679  011282  51D2               	movf	getsUSBUSART@len& (0+255),w,b
  4680  011284  0100               	movlb	0	; () banked
  4681  011286  5D83               	subwf	_cdc_rx_len& (0+255),w,b
  4682  011288  A0D8               	btfss	status,0,c
  4683  01128A  D7E2               	goto	l7780
  4684                           
  4685                           ; BSR set to: 0
  4686                           ;usb_device_cdc.c: 565: CDCDataOutHandle = USBTransferOnePacket(2,0,(uint8_t*)&cdc_data_
      +                          rx,sizeof(cdc_data_rx));
  4687                           
  4688                           ; BSR set to: 0
  4689  01128C  0E00               	movlw	0
  4690  01128E  0100               	movlb	0	; () banked
  4691  011290  6FC9               	movwf	USBTransferOnePacket@dir& (0+255),b
  4692  011292  0E0A               	movlw	low _cdc_data_rx
  4693  011294  0100               	movlb	0	; () banked
  4694  011296  6FCA               	movwf	USBTransferOnePacket@data& (0+255),b
  4695  011298  0E01               	movlw	high _cdc_data_rx
  4696  01129A  0100               	movlb	0	; () banked
  4697  01129C  6FCB               	movwf	(USBTransferOnePacket@data+1)& (0+255),b
  4698  01129E  0E40               	movlw	64
  4699  0112A0  0100               	movlb	0	; () banked
  4700  0112A2  6FCC               	movwf	USBTransferOnePacket@len& (0+255),b
  4701  0112A4  0E02               	movlw	2
  4702  0112A6  EC17  F08B         	call	_USBTransferOnePacket
  4703  0112AA  C0C9  F078         	movff	?_USBTransferOnePacket,_CDCDataOutHandle
  4704  0112AE  C0CA  F079         	movff	?_USBTransferOnePacket+1,_CDCDataOutHandle+1
  4705  0112B2                     l7788:
  4706                           
  4707                           ;usb_device_cdc.c: 567: }
  4708                           ;usb_device_cdc.c: 569: return cdc_rx_len;
  4709  0112B2  0100               	movlb	0	; () banked
  4710  0112B4  5183               	movf	_cdc_rx_len& (0+255),w,b
  4711  0112B6  0012               	return	
  4712  0112B8                     __end_of_getsUSBUSART:
  4713                           	opt stack 0
  4714                           tblptru	equ	0xFF8
  4715                           tblptrh	equ	0xFF7
  4716                           tblptrl	equ	0xFF6
  4717                           tablat	equ	0xFF5
  4718                           prodh	equ	0xFF4
  4719                           prodl	equ	0xFF3
  4720                           intcon	equ	0xFF2
  4721                           intcon2	equ	0xFF1
  4722                           postinc0	equ	0xFEE
  4723                           wreg	equ	0xFE8
  4724                           indf1	equ	0xFE7
  4725                           postinc1	equ	0xFE6
  4726                           postdec1	equ	0xFE5
  4727                           fsr1h	equ	0xFE2
  4728                           fsr1l	equ	0xFE1
  4729                           indf2	equ	0xFDF
  4730                           postinc2	equ	0xFDE
  4731                           postdec2	equ	0xFDD
  4732                           fsr2h	equ	0xFDA
  4733                           fsr2l	equ	0xFD9
  4734                           status	equ	0xFD8
  4735                           
  4736 ;; *************** function _CDCTxService *****************
  4737 ;; Defined at:
  4738 ;;		line 893 in file "../../../My_library/usb/usb_device_cdc.c"
  4739 ;; Parameters:    Size  Location     Type
  4740 ;;		None
  4741 ;; Auto vars:     Size  Location     Type
  4742 ;;  byte_to_send    1   11[BANK0 ] unsigned char 
  4743 ;;  i               1   10[BANK0 ] unsigned char 
  4744 ;; Return value:  Size  Location     Type
  4745 ;;		None               void
  4746 ;; Registers used:
  4747 ;;		wreg, fsr1l, fsr1h, fsr2l, fsr2h, status,2, status,0, prodl, prodh, cstack
  4748 ;; Tracked objects:
  4749 ;;		On entry : 0/0
  4750 ;;		On exit  : 0/0
  4751 ;;		Unchanged: 0/0
  4752 ;; Data sizes:     COMRAM   BANK0   BANK1   BANK2   BANK3   BANK4   BANK5   BANK6   BANK7   BANK8   BANK9  BANK10  BANK1
      +1  BANK12  BANK13  BANK14
  4753 ;;      Params:         0       0       0       0       0       0       0       0       0       0       0       0       
      +0       0       0       0
  4754 ;;      Locals:         0       4       0       0       0       0       0       0       0       0       0       0       
      +0       0       0       0
  4755 ;;      Temps:          0       1       0       0       0       0       0       0       0       0       0       0       
      +0       0       0       0
  4756 ;;      Totals:         0       5       0       0       0       0       0       0       0       0       0       0       
      +0       0       0       0
  4757 ;;Total ram usage:        5 bytes
  4758 ;; Hardware stack levels used:    1
  4759 ;; Hardware stack levels required when called:   12
  4760 ;; This function calls:
  4761 ;;		_USBTransferOnePacket
  4762 ;; This function is called by:
  4763 ;;		_put_string_usb
  4764 ;;		_get_string_usb
  4765 ;; This function uses a non-reentrant model
  4766 ;;
  4767                           
  4768                           	psect	text24
  4769  0106FC                     __ptext24:
  4770                           	opt stack 0
  4771  0106FC                     _CDCTxService:
  4772                           	opt stack 16
  4773                           
  4774                           ;usb_device_cdc.c: 895: uint8_t byte_to_send;
  4775                           ;usb_device_cdc.c: 896: uint8_t i;
  4776                           ;usb_device_cdc.c: 898: {PIE2bits.USBIE = 0;};
  4777                           
  4778                           ; BSR set to: 0
  4779                           ;incstack = 0
  4780  0106FC  98A0               	bcf	4000,4,c	;volatile
  4781                           
  4782                           ;usb_device_cdc.c: 900: {};
  4783                           ;usb_device_cdc.c: 902: if((CDCDataInHandle==0?0:((volatile BDT_ENTRY*)CDCDataInHandle)-
      +                          >STAT.UOWN))
  4784  0106FE  0100               	movlb	0	; () banked
  4785  010700  5176               	movf	_CDCDataInHandle& (0+255),w,b
  4786  010702  0100               	movlb	0	; () banked
  4787  010704  1177               	iorwf	(_CDCDataInHandle+1)& (0+255),w,b
  4788  010706  B4D8               	btfsc	status,2,c
  4789  010708  D013               	goto	l7686
  4790                           
  4791                           ; BSR set to: 0
  4792  01070A  C076  FFD9         	movff	_CDCDataInHandle,fsr2l
  4793  01070E  C077  FFDA         	movff	_CDCDataInHandle+1,fsr2h
  4794  010712  0100               	movlb	0	; () banked
  4795  010714  AEDF               	btfss	indf2,7,c
  4796  010716  D004               	goto	u7430
  4797  010718  0100               	movlb	0	; () banked
  4798  01071A  6BD0               	clrf	??_CDCTxService& (0+255),b
  4799  01071C  2BD0               	incf	??_CDCTxService& (0+255),f,b
  4800  01071E  D002               	goto	u7438
  4801  010720                     u7430:
  4802  010720  0100               	movlb	0	; () banked
  4803  010722  6BD0               	clrf	??_CDCTxService& (0+255),b
  4804  010724                     u7438:
  4805  010724  0100               	movlb	0	; () banked
  4806  010726  51D0               	movf	??_CDCTxService& (0+255),w,b
  4807  010728  0100               	movlb	0	; () banked
  4808  01072A  6FD1               	movwf	_CDCTxService$5286& (0+255),b
  4809  01072C  6BD2               	clrf	(_CDCTxService$5286+1)& (0+255),b
  4810  01072E  D005               	goto	l7688
  4811  010730                     l7686:
  4812                           
  4813                           ; BSR set to: 0
  4814  010730  0E00               	movlw	0
  4815  010732  0100               	movlb	0	; () banked
  4816  010734  6FD2               	movwf	(_CDCTxService$5286+1)& (0+255),b
  4817  010736  0E00               	movlw	0
  4818  010738  6FD1               	movwf	_CDCTxService$5286& (0+255),b
  4819  01073A                     l7688:
  4820                           
  4821                           ; BSR set to: 0
  4822  01073A  0100               	movlb	0	; () banked
  4823  01073C  51D1               	movf	_CDCTxService$5286& (0+255),w,b
  4824  01073E  0100               	movlb	0	; () banked
  4825  010740  11D2               	iorwf	(_CDCTxService$5286+1)& (0+255),w,b
  4826  010742  B4D8               	btfsc	status,2,c
  4827  010744  D002               	goto	l7692
  4828                           
  4829                           ; BSR set to: 0
  4830                           ;usb_device_cdc.c: 903: {
  4831                           ;usb_device_cdc.c: 904: {PIE2bits.USBIE = 1;};
  4832  010746  88A0               	bsf	4000,4,c	;volatile
  4833                           
  4834                           ;usb_device_cdc.c: 905: return;
  4835  010748  0012               	return	
  4836  01074A                     l7692:
  4837                           
  4838                           ; BSR set to: 0
  4839                           ;usb_device_cdc.c: 906: }
  4840                           ;usb_device_cdc.c: 913: if(cdc_trf_state == 3)
  4841  01074A  0E03               	movlw	3
  4842  01074C  0100               	movlb	0	; () banked
  4843  01074E  1984               	xorwf	_cdc_trf_state& (0+255),w,b
  4844  010750  A4D8               	btfss	status,2,c
  4845  010752  D003               	goto	l1322
  4846                           
  4847                           ; BSR set to: 0
  4848                           ;usb_device_cdc.c: 914: cdc_trf_state = 0;
  4849  010754  0E00               	movlw	0
  4850  010756  0100               	movlb	0	; () banked
  4851  010758  6F84               	movwf	_cdc_trf_state& (0+255),b
  4852  01075A                     l1322:
  4853                           
  4854                           ; BSR set to: 0
  4855                           ;usb_device_cdc.c: 919: if(cdc_trf_state == 0)
  4856  01075A  0100               	movlb	0	; () banked
  4857  01075C  5184               	movf	_cdc_trf_state& (0+255),w,b
  4858  01075E  A4D8               	btfss	status,2,c
  4859  010760  D002               	goto	l7698
  4860                           
  4861                           ; BSR set to: 0
  4862                           ;usb_device_cdc.c: 920: {
  4863                           ;usb_device_cdc.c: 921: {PIE2bits.USBIE = 1;};
  4864  010762  88A0               	bsf	4000,4,c	;volatile
  4865                           
  4866                           ;usb_device_cdc.c: 922: return;
  4867  010764  0012               	return	
  4868  010766                     l7698:
  4869                           
  4870                           ; BSR set to: 0
  4871                           ;usb_device_cdc.c: 923: }
  4872                           ;usb_device_cdc.c: 928: if(cdc_trf_state == 2)
  4873  010766  0E02               	movlw	2
  4874  010768  0100               	movlb	0	; () banked
  4875  01076A  1984               	xorwf	_cdc_trf_state& (0+255),w,b
  4876  01076C  A4D8               	btfss	status,2,c
  4877  01076E  D017               	goto	l7704
  4878                           
  4879                           ; BSR set to: 0
  4880                           ;usb_device_cdc.c: 929: {
  4881                           ;usb_device_cdc.c: 930: CDCDataInHandle = USBTransferOnePacket(2,1,(0),0);
  4882  010770  0E01               	movlw	1
  4883  010772  0100               	movlb	0	; () banked
  4884  010774  6FC9               	movwf	USBTransferOnePacket@dir& (0+255),b
  4885  010776  0E00               	movlw	0
  4886  010778  0100               	movlb	0	; () banked
  4887  01077A  6FCA               	movwf	USBTransferOnePacket@data& (0+255),b
  4888  01077C  0E00               	movlw	0
  4889  01077E  0100               	movlb	0	; () banked
  4890  010780  6FCB               	movwf	(USBTransferOnePacket@data+1)& (0+255),b
  4891  010782  0E00               	movlw	0
  4892  010784  0100               	movlb	0	; () banked
  4893  010786  6FCC               	movwf	USBTransferOnePacket@len& (0+255),b
  4894  010788  0E02               	movlw	2
  4895  01078A  EC17  F08B         	call	_USBTransferOnePacket
  4896  01078E  C0C9  F076         	movff	?_USBTransferOnePacket,_CDCDataInHandle
  4897  010792  C0CA  F077         	movff	?_USBTransferOnePacket+1,_CDCDataInHandle+1
  4898                           
  4899                           ;usb_device_cdc.c: 932: cdc_trf_state = 3;
  4900  010796  0E03               	movlw	3
  4901  010798  0100               	movlb	0	; () banked
  4902  01079A  6F84               	movwf	_cdc_trf_state& (0+255),b
  4903                           
  4904                           ;usb_device_cdc.c: 933: }
  4905  01079C  D073               	goto	l7748
  4906  01079E                     l7704:
  4907                           
  4908                           ; BSR set to: 0
  4909                           ;usb_device_cdc.c: 934: else if(cdc_trf_state == 1)
  4910  01079E  0100               	movlb	0	; () banked
  4911  0107A0  0584               	decf	_cdc_trf_state& (0+255),w,b
  4912  0107A2  A4D8               	btfss	status,2,c
  4913  0107A4  D06F               	goto	l7748
  4914                           
  4915                           ; BSR set to: 0
  4916                           ;usb_device_cdc.c: 935: {
  4917                           ;usb_device_cdc.c: 939: if(cdc_tx_len > sizeof(cdc_data_tx))
  4918  0107A6  0E40               	movlw	64
  4919  0107A8  0100               	movlb	0	; () banked
  4920  0107AA  6585               	cpfsgt	_cdc_tx_len& (0+255),b
  4921  0107AC  D004               	goto	l1327
  4922                           
  4923                           ; BSR set to: 0
  4924                           ;usb_device_cdc.c: 940: byte_to_send = sizeof(cdc_data_tx);
  4925  0107AE  0E40               	movlw	64
  4926  0107B0  0100               	movlb	0	; () banked
  4927  0107B2  6FD4               	movwf	CDCTxService@byte_to_send& (0+255),b
  4928  0107B4  D002               	goto	l7710
  4929  0107B6                     l1327:
  4930                           
  4931                           ; BSR set to: 0
  4932                           ;usb_device_cdc.c: 941: else
  4933                           ;usb_device_cdc.c: 942: byte_to_send = cdc_tx_len;
  4934  0107B6  C085  F0D4         	movff	_cdc_tx_len,CDCTxService@byte_to_send
  4935  0107BA                     l7710:
  4936                           
  4937                           ; BSR set to: 0
  4938                           ;usb_device_cdc.c: 947: cdc_tx_len = cdc_tx_len - byte_to_send;
  4939  0107BA  0100               	movlb	0	; () banked
  4940  0107BC  51D4               	movf	CDCTxService@byte_to_send& (0+255),w,b
  4941  0107BE  0800               	sublw	0
  4942  0107C0  0100               	movlb	0	; () banked
  4943  0107C2  2585               	addwf	_cdc_tx_len& (0+255),w,b
  4944  0107C4  0100               	movlb	0	; () banked
  4945  0107C6  6F85               	movwf	_cdc_tx_len& (0+255),b
  4946                           
  4947                           ;usb_device_cdc.c: 949: pCDCDst.bRam = (uint8_t*)&cdc_data_tx;
  4948  0107C8  0E4A               	movlw	low _cdc_data_tx
  4949  0107CA  0100               	movlb	0	; () banked
  4950  0107CC  6F6E               	movwf	_pCDCDst& (0+255),b
  4951  0107CE  0E01               	movlw	high _cdc_data_tx
  4952  0107D0  0100               	movlb	0	; () banked
  4953  0107D2  6F6F               	movwf	(_pCDCDst+1)& (0+255),b
  4954                           
  4955                           ; BSR set to: 0
  4956                           ;usb_device_cdc.c: 951: i = byte_to_send;
  4957  0107D4  C0D4  F0D3         	movff	CDCTxService@byte_to_send,CDCTxService@i
  4958                           
  4959                           ; BSR set to: 0
  4960                           ;usb_device_cdc.c: 952: if(cdc_mem_type == 0x00)
  4961  0107D8  0100               	movlb	0	; () banked
  4962  0107DA  5182               	movf	_cdc_mem_type& (0+255),w,b
  4963  0107DC  0100               	movlb	0	; () banked
  4964  0107DE  B4D8               	btfsc	status,2,c
  4965  0107E0  D013               	goto	l7726
  4966  0107E2  D02A               	goto	l7736
  4967  0107E4                     l7718:
  4968                           
  4969                           ; BSR set to: 0
  4970                           ;usb_device_cdc.c: 955: {
  4971                           ;usb_device_cdc.c: 956: *pCDCDst.bRam = *pCDCSrc.bRom;
  4972  0107E4  C071  FFD9         	movff	_pCDCSrc,fsr2l
  4973  0107E8  C072  FFDA         	movff	_pCDCSrc+1,fsr2h
  4974  0107EC  C06E  FFE1         	movff	_pCDCDst,fsr1l
  4975  0107F0  C06F  FFE2         	movff	_pCDCDst+1,fsr1h
  4976  0107F4  CFDF FFE7          	movff	indf2,indf1
  4977                           
  4978                           ; BSR set to: 0
  4979                           ;usb_device_cdc.c: 957: pCDCDst.bRam++;
  4980  0107F8  0100               	movlb	0	; () banked
  4981  0107FA  4B6E               	infsnz	_pCDCDst& (0+255),f,b
  4982  0107FC  2B6F               	incf	(_pCDCDst+1)& (0+255),f,b
  4983                           
  4984                           ; BSR set to: 0
  4985                           ;usb_device_cdc.c: 958: pCDCSrc.bRom++;
  4986  0107FE  0100               	movlb	0	; () banked
  4987  010800  4B71               	infsnz	_pCDCSrc& (0+255),f,b
  4988  010802  2B72               	incf	(_pCDCSrc+1)& (0+255),f,b
  4989                           
  4990                           ; BSR set to: 0
  4991                           ;usb_device_cdc.c: 959: i--;
  4992  010804  0100               	movlb	0	; () banked
  4993  010806  07D3               	decf	CDCTxService@i& (0+255),f,b
  4994  010808                     l7726:
  4995                           
  4996                           ; BSR set to: 0
  4997  010808  0100               	movlb	0	; () banked
  4998  01080A  51D3               	movf	CDCTxService@i& (0+255),w,b
  4999  01080C  0100               	movlb	0	; () banked
  5000  01080E  B4D8               	btfsc	status,2,c
  5001  010810  D018               	goto	l7738
  5002  010812  D7E8               	goto	l7718
  5003  010814                     l7728:
  5004                           
  5005                           ; BSR set to: 0
  5006                           ;usb_device_cdc.c: 965: {
  5007                           ;usb_device_cdc.c: 966: *pCDCDst.bRam = *pCDCSrc.bRam;
  5008  010814  C071  FFD9         	movff	_pCDCSrc,fsr2l
  5009  010818  C072  FFDA         	movff	_pCDCSrc+1,fsr2h
  5010  01081C  C06E  FFE1         	movff	_pCDCDst,fsr1l
  5011  010820  C06F  FFE2         	movff	_pCDCDst+1,fsr1h
  5012  010824  CFDF FFE7          	movff	indf2,indf1
  5013                           
  5014                           ; BSR set to: 0
  5015                           ;usb_device_cdc.c: 967: pCDCDst.bRam++;
  5016  010828  0100               	movlb	0	; () banked
  5017  01082A  4B6E               	infsnz	_pCDCDst& (0+255),f,b
  5018  01082C  2B6F               	incf	(_pCDCDst+1)& (0+255),f,b
  5019                           
  5020                           ; BSR set to: 0
  5021                           ;usb_device_cdc.c: 968: pCDCSrc.bRam++;
  5022  01082E  0100               	movlb	0	; () banked
  5023  010830  4B71               	infsnz	_pCDCSrc& (0+255),f,b
  5024  010832  2B72               	incf	(_pCDCSrc+1)& (0+255),f,b
  5025                           
  5026                           ; BSR set to: 0
  5027                           ;usb_device_cdc.c: 969: i--;
  5028  010834  0100               	movlb	0	; () banked
  5029  010836  07D3               	decf	CDCTxService@i& (0+255),f,b
  5030  010838                     l7736:
  5031                           
  5032                           ; BSR set to: 0
  5033  010838  0100               	movlb	0	; () banked
  5034  01083A  51D3               	movf	CDCTxService@i& (0+255),w,b
  5035  01083C  0100               	movlb	0	; () banked
  5036  01083E  A4D8               	btfss	status,2,c
  5037  010840  D7E9               	goto	l7728
  5038  010842                     l7738:
  5039                           
  5040                           ; BSR set to: 0
  5041                           ;usb_device_cdc.c: 970: }
  5042                           ;usb_device_cdc.c: 971: }
  5043                           ;usb_device_cdc.c: 977: if(cdc_tx_len == 0)
  5044  010842  0100               	movlb	0	; () banked
  5045  010844  5185               	movf	_cdc_tx_len& (0+255),w,b
  5046  010846  0100               	movlb	0	; () banked
  5047  010848  A4D8               	btfss	status,2,c
  5048  01084A  D00A               	goto	l7746
  5049                           
  5050                           ; BSR set to: 0
  5051                           ;usb_device_cdc.c: 978: {
  5052                           ;usb_device_cdc.c: 979: if(byte_to_send == 64)
  5053  01084C  0E40               	movlw	64
  5054  01084E  0100               	movlb	0	; () banked
  5055  010850  19D4               	xorwf	CDCTxService@byte_to_send& (0+255),w,b
  5056  010852  A4D8               	btfss	status,2,c
  5057  010854  D002               	goto	l7744
  5058                           
  5059                           ; BSR set to: 0
  5060                           ;usb_device_cdc.c: 980: cdc_trf_state = 2;
  5061  010856  0E02               	movlw	2
  5062  010858  D001               	goto	L1
  5063  01085A                     l7744:
  5064                           
  5065                           ; BSR set to: 0
  5066                           ;usb_device_cdc.c: 981: else
  5067                           ;usb_device_cdc.c: 982: cdc_trf_state = 3;
  5068  01085A  0E03               	movlw	3
  5069  01085C                     L1:
  5070  01085C  0100               	movlb	0	; () banked
  5071  01085E  6F84               	movwf	_cdc_trf_state& (0+255),b
  5072  010860                     l7746:
  5073                           
  5074                           ; BSR set to: 0
  5075                           ;usb_device_cdc.c: 983: }
  5076                           ;usb_device_cdc.c: 984: CDCDataInHandle = USBTransferOnePacket(2,1,(uint8_t*)&cdc_data_t
      +                          x,byte_to_send);
  5077  010860  0E01               	movlw	1
  5078  010862  0100               	movlb	0	; () banked
  5079  010864  6FC9               	movwf	USBTransferOnePacket@dir& (0+255),b
  5080  010866  0E4A               	movlw	low _cdc_data_tx
  5081  010868  0100               	movlb	0	; () banked
  5082  01086A  6FCA               	movwf	USBTransferOnePacket@data& (0+255),b
  5083  01086C  0E01               	movlw	high _cdc_data_tx
  5084  01086E  0100               	movlb	0	; () banked
  5085  010870  6FCB               	movwf	(USBTransferOnePacket@data+1)& (0+255),b
  5086  010872  C0D4  F0CC         	movff	CDCTxService@byte_to_send,USBTransferOnePacket@len
  5087  010876  0E02               	movlw	2
  5088  010878  EC17  F08B         	call	_USBTransferOnePacket
  5089  01087C  C0C9  F076         	movff	?_USBTransferOnePacket,_CDCDataInHandle
  5090  010880  C0CA  F077         	movff	?_USBTransferOnePacket+1,_CDCDataInHandle+1
  5091  010884                     l7748:
  5092                           
  5093                           ;usb_device_cdc.c: 986: }
  5094                           ;usb_device_cdc.c: 988: {PIE2bits.USBIE = 1;};
  5095  010884  88A0               	bsf	4000,4,c	;volatile
  5096  010886  0012               	return		;funcret
  5097  010888                     __end_of_CDCTxService:
  5098                           	opt stack 0
  5099                           tblptru	equ	0xFF8
  5100                           tblptrh	equ	0xFF7
  5101                           tblptrl	equ	0xFF6
  5102                           tablat	equ	0xFF5
  5103                           prodh	equ	0xFF4
  5104                           prodl	equ	0xFF3
  5105                           intcon	equ	0xFF2
  5106                           intcon2	equ	0xFF1
  5107                           postinc0	equ	0xFEE
  5108                           wreg	equ	0xFE8
  5109                           indf1	equ	0xFE7
  5110                           postinc1	equ	0xFE6
  5111                           postdec1	equ	0xFE5
  5112                           fsr1h	equ	0xFE2
  5113                           fsr1l	equ	0xFE1
  5114                           indf2	equ	0xFDF
  5115                           postinc2	equ	0xFDE
  5116                           postdec2	equ	0xFDD
  5117                           fsr2h	equ	0xFDA
  5118                           fsr2l	equ	0xFD9
  5119                           status	equ	0xFD8
  5120                           
  5121 ;; *************** function _USBTransferOnePacket *****************
  5122 ;; Defined at:
  5123 ;;		line 995 in file "../../../My_library/usb/usb_device.c"
  5124 ;; Parameters:    Size  Location     Type
  5125 ;;  ep              1    wreg     unsigned char 
  5126 ;;  dir             1    0[BANK0 ] unsigned char 
  5127 ;;  data            2    1[BANK0 ] PTR unsigned char 
  5128 ;;		 -> cdc_data_tx(64), cdc_data_rx(64), NULL(0), 
  5129 ;;  len             1    3[BANK0 ] unsigned char 
  5130 ;; Auto vars:     Size  Location     Type
  5131 ;;  ep              1    4[BANK0 ] unsigned char 
  5132 ;;  handle          2    5[BANK0 ] PTR volatile struct __BD
  5133 ;;		 -> NULL(0), BDT(48), 
  5134 ;; Return value:  Size  Location     Type
  5135 ;;                  2    0[BANK0 ] PTR void 
  5136 ;; Registers used:
  5137 ;;		wreg, fsr2l, fsr2h, status,2, status,0, prodl, prodh
  5138 ;; Tracked objects:
  5139 ;;		On entry : 0/0
  5140 ;;		On exit  : 0/0
  5141 ;;		Unchanged: 0/0
  5142 ;; Data sizes:     COMRAM   BANK0   BANK1   BANK2   BANK3   BANK4   BANK5   BANK6   BANK7   BANK8   BANK9  BANK10  BANK1
      +1  BANK12  BANK13  BANK14
  5143 ;;      Params:         0       4       0       0       0       0       0       0       0       0       0       0       
      +0       0       0       0
  5144 ;;      Locals:         0       3       0       0       0       0       0       0       0       0       0       0       
      +0       0       0       0
  5145 ;;      Temps:          0       0       0       0       0       0       0       0       0       0       0       0       
      +0       0       0       0
  5146 ;;      Totals:         0       7       0       0       0       0       0       0       0       0       0       0       
      +0       0       0       0
  5147 ;;Total ram usage:        7 bytes
  5148 ;; Hardware stack levels used:    1
  5149 ;; Hardware stack levels required when called:   11
  5150 ;; This function calls:
  5151 ;;		Nothing
  5152 ;; This function is called by:
  5153 ;;		_getsUSBUSART
  5154 ;;		_CDCTxService
  5155 ;;		_USBCDCEventHandler
  5156 ;; This function uses a non-reentrant model
  5157 ;;
  5158                           
  5159                           	psect	text25
  5160  01162E                     __ptext25:
  5161                           	opt stack 0
  5162  01162E                     _USBTransferOnePacket:
  5163                           	opt stack 16
  5164                           
  5165                           ;incstack = 0
  5166                           ;USBTransferOnePacket@ep stored from wreg
  5167  01162E  0100               	movlb	0	; () banked
  5168  011630  6FCD               	movwf	USBTransferOnePacket@ep& (0+255),b
  5169                           
  5170                           ;usb_device.c: 997: volatile BDT_ENTRY* handle;
  5171                           ;usb_device.c: 1000: if(dir != 0)
  5172  011632  0100               	movlb	0	; () banked
  5173  011634  51C9               	movf	USBTransferOnePacket@dir& (0+255),w,b
  5174  011636  0100               	movlb	0	; () banked
  5175  011638  B4D8               	btfsc	status,2,c
  5176  01163A  D008               	goto	l7414
  5177                           
  5178                           ; BSR set to: 0
  5179                           ;usb_device.c: 1001: {
  5180                           ;usb_device.c: 1003: handle = pBDTEntryIn[ep];
  5181  01163C  0100               	movlb	0	; () banked
  5182  01163E  51CD               	movf	USBTransferOnePacket@ep& (0+255),w,b
  5183  011640  0D02               	mullw	2
  5184  011642  0E10               	movlw	low _pBDTEntryIn
  5185  011644  24F3               	addwf	prodl,w,c
  5186  011646  6ED9               	movwf	fsr2l,c
  5187  011648  0E00               	movlw	high _pBDTEntryIn
  5188  01164A  D007               	goto	L2
  5189  01164C                     l7414:
  5190                           
  5191                           ; BSR set to: 0
  5192                           ;usb_device.c: 1005: else
  5193                           ;usb_device.c: 1006: {
  5194                           ;usb_device.c: 1008: handle = pBDTEntryOut[ep];
  5195  01164C  0100               	movlb	0	; () banked
  5196  01164E  51CD               	movf	USBTransferOnePacket@ep& (0+255),w,b
  5197  011650  0D02               	mullw	2
  5198  011652  0E60               	movlw	low _pBDTEntryOut
  5199  011654  24F3               	addwf	prodl,w,c
  5200  011656  6ED9               	movwf	fsr2l,c
  5201  011658  0E00               	movlw	high _pBDTEntryOut
  5202  01165A                     L2:
  5203  01165A  20F4               	addwfc	prodh,w,c
  5204  01165C  6EDA               	movwf	fsr2h,c
  5205  01165E  CFDE F0CE          	movff	postinc2,USBTransferOnePacket@handle
  5206  011662  CFDD F0CF          	movff	postdec2,USBTransferOnePacket@handle+1
  5207                           
  5208                           ; BSR set to: 0
  5209                           ;usb_device.c: 1009: }
  5210                           ;usb_device.c: 1013: if(handle == 0)
  5211                           
  5212                           ; BSR set to: 0
  5213  011666  0100               	movlb	0	; () banked
  5214  011668  51CE               	movf	USBTransferOnePacket@handle& (0+255),w,b
  5215  01166A  0100               	movlb	0	; () banked
  5216  01166C  11CF               	iorwf	(USBTransferOnePacket@handle+1)& (0+255),w,b
  5217  01166E  A4D8               	btfss	status,2,c
  5218  011670  D007               	goto	l7422
  5219                           
  5220                           ; BSR set to: 0
  5221                           ;usb_device.c: 1014: {
  5222                           ;usb_device.c: 1015: return 0;
  5223  011672  0E00               	movlw	0
  5224  011674  0100               	movlb	0	; () banked
  5225  011676  6FC9               	movwf	?_USBTransferOnePacket& (0+255),b
  5226  011678  0E00               	movlw	0
  5227  01167A  0100               	movlb	0	; () banked
  5228  01167C  6FCA               	movwf	(?_USBTransferOnePacket+1)& (0+255),b
  5229                           
  5230                           ; BSR set to: 0
  5231  01167E  0012               	return	
  5232  011680                     l7422:
  5233                           
  5234                           ; BSR set to: 0
  5235                           ;usb_device.c: 1016: }
  5236                           ;usb_device.c: 1029: handle->ADR = ((uint16_t)(data));
  5237  011680  0100               	movlb	0	; () banked
  5238  011682  EE20 F002          	lfsr	2,2
  5239  011686  51CE               	movf	USBTransferOnePacket@handle& (0+255),w,b
  5240  011688  26D9               	addwf	fsr2l,f,c
  5241  01168A  51CF               	movf	(USBTransferOnePacket@handle+1)& (0+255),w,b
  5242  01168C  22DA               	addwfc	fsr2h,f,c
  5243  01168E  C0CA  FFDE         	movff	USBTransferOnePacket@data,postinc2
  5244  011692  C0CB  FFDD         	movff	USBTransferOnePacket@data+1,postdec2
  5245                           
  5246                           ;usb_device.c: 1030: handle->CNT = len;
  5247  011696  0100               	movlb	0	; () banked
  5248  011698  EE20 F001          	lfsr	2,1
  5249  01169C  51CE               	movf	USBTransferOnePacket@handle& (0+255),w,b
  5250  01169E  26D9               	addwf	fsr2l,f,c
  5251  0116A0  51CF               	movf	(USBTransferOnePacket@handle+1)& (0+255),w,b
  5252  0116A2  22DA               	addwfc	fsr2h,f,c
  5253  0116A4  C0CC  FFDF         	movff	USBTransferOnePacket@len,indf2
  5254                           
  5255                           ; BSR set to: 0
  5256                           ;usb_device.c: 1031: handle->STAT.Val &= 0x40;
  5257  0116A8  C0CE  FFD9         	movff	USBTransferOnePacket@handle,fsr2l
  5258  0116AC  C0CF  FFDA         	movff	USBTransferOnePacket@handle+1,fsr2h
  5259  0116B0  0E40               	movlw	64
  5260  0116B2  16DF               	andwf	indf2,f,c
  5261                           
  5262                           ; BSR set to: 0
  5263                           ;usb_device.c: 1032: handle->STAT.Val |= (0x08 & 0x08);
  5264  0116B4  C0CE  FFD9         	movff	USBTransferOnePacket@handle,fsr2l
  5265  0116B8  C0CF  FFDA         	movff	USBTransferOnePacket@handle+1,fsr2h
  5266  0116BC  0E00               	movlw	0
  5267  0116BE  86DB               	bsf	plusw2,3,c
  5268                           
  5269                           ; BSR set to: 0
  5270                           ;usb_device.c: 1033: handle->STAT.Val |= 0x80;
  5271  0116C0  C0CE  FFD9         	movff	USBTransferOnePacket@handle,fsr2l
  5272  0116C4  C0CF  FFDA         	movff	USBTransferOnePacket@handle+1,fsr2h
  5273  0116C8  0E00               	movlw	0
  5274  0116CA  8EDB               	bsf	plusw2,7,c
  5275                           
  5276                           ; BSR set to: 0
  5277                           ;usb_device.c: 1036: if(dir != 0)
  5278  0116CC  0100               	movlb	0	; () banked
  5279  0116CE  51C9               	movf	USBTransferOnePacket@dir& (0+255),w,b
  5280  0116D0  0100               	movlb	0	; () banked
  5281  0116D2  B4D8               	btfsc	status,2,c
  5282  0116D4  D008               	goto	l7434
  5283                           
  5284                           ; BSR set to: 0
  5285                           ;usb_device.c: 1037: {
  5286                           ;usb_device.c: 1039: {((uint8_t_VAL*)&pBDTEntryIn[ep])->Val ^= 0x0004;};
  5287  0116D6  0100               	movlb	0	; () banked
  5288  0116D8  51CD               	movf	USBTransferOnePacket@ep& (0+255),w,b
  5289  0116DA  0D02               	mullw	2
  5290  0116DC  0E10               	movlw	low _pBDTEntryIn
  5291  0116DE  24F3               	addwf	prodl,w,c
  5292  0116E0  6ED9               	movwf	fsr2l,c
  5293  0116E2  0E00               	movlw	high _pBDTEntryIn
  5294  0116E4  D007               	goto	L3
  5295  0116E6                     l7434:
  5296                           
  5297                           ; BSR set to: 0
  5298                           ;usb_device.c: 1041: else
  5299                           ;usb_device.c: 1042: {
  5300                           ;usb_device.c: 1044: {((uint8_t_VAL*)&pBDTEntryOut[ep])->Val ^= 0x0004;};
  5301  0116E6  0100               	movlb	0	; () banked
  5302  0116E8  51CD               	movf	USBTransferOnePacket@ep& (0+255),w,b
  5303  0116EA  0D02               	mullw	2
  5304  0116EC  0E60               	movlw	low _pBDTEntryOut
  5305  0116EE  24F3               	addwf	prodl,w,c
  5306  0116F0  6ED9               	movwf	fsr2l,c
  5307  0116F2  0E00               	movlw	high _pBDTEntryOut
  5308  0116F4                     L3:
  5309  0116F4  20F4               	addwfc	prodh,w,c
  5310  0116F6  6EDA               	movwf	fsr2h,c
  5311  0116F8  0E04               	movlw	4
  5312  0116FA  1ADF               	xorwf	indf2,f,c
  5313                           
  5314                           ; BSR set to: 0
  5315                           ;usb_device.c: 1045: }
  5316                           ;usb_device.c: 1046: return (void*)handle;
  5317                           
  5318                           ; BSR set to: 0
  5319  0116FC  C0CE  F0C9         	movff	USBTransferOnePacket@handle,?_USBTransferOnePacket
  5320  011700  C0CF  F0CA         	movff	USBTransferOnePacket@handle+1,?_USBTransferOnePacket+1
  5321  011704  0012               	return	
  5322  011706                     __end_of_USBTransferOnePacket:
  5323                           	opt stack 0
  5324                           tblptru	equ	0xFF8
  5325                           tblptrh	equ	0xFF7
  5326                           tblptrl	equ	0xFF6
  5327                           tablat	equ	0xFF5
  5328                           prodh	equ	0xFF4
  5329                           prodl	equ	0xFF3
  5330                           intcon	equ	0xFF2
  5331                           intcon2	equ	0xFF1
  5332                           postinc0	equ	0xFEE
  5333                           wreg	equ	0xFE8
  5334                           indf1	equ	0xFE7
  5335                           postinc1	equ	0xFE6
  5336                           postdec1	equ	0xFE5
  5337                           fsr1h	equ	0xFE2
  5338                           fsr1l	equ	0xFE1
  5339                           indf2	equ	0xFDF
  5340                           postinc2	equ	0xFDE
  5341                           postdec2	equ	0xFDD
  5342                           plusw2	equ	0xFDB
  5343                           fsr2h	equ	0xFDA
  5344                           fsr2l	equ	0xFD9
  5345                           status	equ	0xFD8
  5346                           
  5347 ;; *************** function _UART_task *****************
  5348 ;; Defined at:
  5349 ;;		line 204 in file "../../../My_library/My_PIC.c"
  5350 ;; Parameters:    Size  Location     Type
  5351 ;;		None
  5352 ;; Auto vars:     Size  Location     Type
  5353 ;;		None
  5354 ;; Return value:  Size  Location     Type
  5355 ;;		None               void
  5356 ;; Registers used:
  5357 ;;		wreg, fsr1l, fsr1h, fsr2l, fsr2h, status,2, status,0, cstack
  5358 ;; Tracked objects:
  5359 ;;		On entry : 0/0
  5360 ;;		On exit  : 0/0
  5361 ;;		Unchanged: 0/0
  5362 ;; Data sizes:     COMRAM   BANK0   BANK1   BANK2   BANK3   BANK4   BANK5   BANK6   BANK7   BANK8   BANK9  BANK10  BANK1
      +1  BANK12  BANK13  BANK14
  5363 ;;      Params:         0       0       0       0       0       0       0       0       0       0       0       0       
      +0       0       0       0
  5364 ;;      Locals:         0       0       0       0       0       0       0       0       0       0       0       0       
      +0       0       0       0
  5365 ;;      Temps:          0       0       0       0       0       0       0       0       0       0       0       0       
      +0       0       0       0
  5366 ;;      Totals:         0       0       0       0       0       0       0       0       0       0       0       0       
      +0       0       0       0
  5367 ;;Total ram usage:        0 bytes
  5368 ;; Hardware stack levels used:    1
  5369 ;; Hardware stack levels required when called:   12
  5370 ;; This function calls:
  5371 ;;		_ringbuf_num
  5372 ;; This function is called by:
  5373 ;;		_main
  5374 ;; This function uses a non-reentrant model
  5375 ;;
  5376                           
  5377                           	psect	text26
  5378  012E3A                     __ptext26:
  5379                           	opt stack 0
  5380  012E3A                     _UART_task:
  5381                           	opt stack 18
  5382                           
  5383                           ;My_PIC.c: 205: if (ringbuf_num(&uart_tx)) {
  5384                           
  5385                           ; BSR set to: 0
  5386                           ;incstack = 0
  5387  012E3A  0EA0               	movlw	low _uart_tx
  5388  012E3C  0100               	movlb	0	; () banked
  5389  012E3E  6FC9               	movwf	ringbuf_num@rb& (0+255),b
  5390  012E40  0E00               	movlw	high _uart_tx
  5391  012E42  0100               	movlb	0	; () banked
  5392  012E44  6FCA               	movwf	(ringbuf_num@rb+1)& (0+255),b
  5393  012E46  EC70  F088         	call	_ringbuf_num	;wreg free
  5394  012E4A  0100               	movlb	0	; () banked
  5395  012E4C  51C9               	movf	?_ringbuf_num& (0+255),w,b
  5396  012E4E  0100               	movlb	0	; () banked
  5397  012E50  11CA               	iorwf	(?_ringbuf_num+1)& (0+255),w,b
  5398  012E52  B4D8               	btfsc	status,2,c
  5399  012E54  0012               	return	
  5400                           
  5401                           ; BSR set to: 0
  5402                           ;My_PIC.c: 206: PIE1bits.TXIE = 1;
  5403  012E56  889D               	bsf	3997,4,c	;volatile
  5404  012E58  0012               	return	
  5405  012E5A                     __end_of_UART_task:
  5406                           	opt stack 0
  5407                           tblptru	equ	0xFF8
  5408                           tblptrh	equ	0xFF7
  5409                           tblptrl	equ	0xFF6
  5410                           tablat	equ	0xFF5
  5411                           prodh	equ	0xFF4
  5412                           prodl	equ	0xFF3
  5413                           intcon	equ	0xFF2
  5414                           intcon2	equ	0xFF1
  5415                           postinc0	equ	0xFEE
  5416                           wreg	equ	0xFE8
  5417                           indf1	equ	0xFE7
  5418                           postinc1	equ	0xFE6
  5419                           postdec1	equ	0xFE5
  5420                           fsr1h	equ	0xFE2
  5421                           fsr1l	equ	0xFE1
  5422                           indf2	equ	0xFDF
  5423                           postinc2	equ	0xFDE
  5424                           postdec2	equ	0xFDD
  5425                           plusw2	equ	0xFDB
  5426                           fsr2h	equ	0xFDA
  5427                           fsr2l	equ	0xFD9
  5428                           status	equ	0xFD8
  5429                           
  5430 ;; *************** function _ringbuf_num *****************
  5431 ;; Defined at:
  5432 ;;		line 12 in file "../../../My_library/My_ringbuf.c"
  5433 ;; Parameters:    Size  Location     Type
  5434 ;;  rb              2    0[BANK0 ] PTR struct ringbuf
  5435 ;;		 -> terminal_task@command(8), uart_rx(8), uart_tx(8), usb_rx(8), 
  5436 ;;		 -> usb_tx(8), 
  5437 ;; Auto vars:     Size  Location     Type
  5438 ;;		None
  5439 ;; Return value:  Size  Location     Type
  5440 ;;                  2    0[BANK0 ] unsigned int 
  5441 ;; Registers used:
  5442 ;;		wreg, fsr1l, fsr1h, fsr2l, fsr2h, status,2, status,0
  5443 ;; Tracked objects:
  5444 ;;		On entry : 0/0
  5445 ;;		On exit  : 0/0
  5446 ;;		Unchanged: 0/0
  5447 ;; Data sizes:     COMRAM   BANK0   BANK1   BANK2   BANK3   BANK4   BANK5   BANK6   BANK7   BANK8   BANK9  BANK10  BANK1
      +1  BANK12  BANK13  BANK14
  5448 ;;      Params:         0       2       0       0       0       0       0       0       0       0       0       0       
      +0       0       0       0
  5449 ;;      Locals:         0       0       0       0       0       0       0       0       0       0       0       0       
      +0       0       0       0
  5450 ;;      Temps:          0       6       0       0       0       0       0       0       0       0       0       0       
      +0       0       0       0
  5451 ;;      Totals:         0       8       0       0       0       0       0       0       0       0       0       0       
      +0       0       0       0
  5452 ;;Total ram usage:        8 bytes
  5453 ;; Hardware stack levels used:    1
  5454 ;; Hardware stack levels required when called:   11
  5455 ;; This function calls:
  5456 ;;		Nothing
  5457 ;; This function is called by:
  5458 ;;		_main
  5459 ;;		_UART_task
  5460 ;;		_ringbuf_put
  5461 ;;		_ringbuf_pop
  5462 ;;		_USB_task
  5463 ;;		_ringbuf_backspace
  5464 ;;		_terminal_task
  5465 ;; This function uses a non-reentrant model
  5466 ;;
  5467                           
  5468                           	psect	text27
  5469  0110E0                     __ptext27:
  5470                           	opt stack 0
  5471  0110E0                     _ringbuf_num:
  5472                           	opt stack 18
  5473                           
  5474                           ;My_ringbuf.c: 13: if (rb->head >= rb->tail) {
  5475                           
  5476                           ; BSR set to: 0
  5477                           ;incstack = 0
  5478  0110E0  0100               	movlb	0	; () banked
  5479  0110E2  EE20 F006          	lfsr	2,6
  5480  0110E6  51C9               	movf	ringbuf_num@rb& (0+255),w,b
  5481  0110E8  26D9               	addwf	fsr2l,f,c
  5482  0110EA  51CA               	movf	(ringbuf_num@rb+1)& (0+255),w,b
  5483  0110EC  22DA               	addwfc	fsr2h,f,c
  5484  0110EE  0100               	movlb	0	; () banked
  5485  0110F0  EE10 F004          	lfsr	1,4
  5486  0110F4  51C9               	movf	ringbuf_num@rb& (0+255),w,b
  5487  0110F6  26E1               	addwf	fsr1l,f,c
  5488  0110F8  51CA               	movf	(ringbuf_num@rb+1)& (0+255),w,b
  5489  0110FA  22E2               	addwfc	fsr1h,f,c
  5490  0110FC  50DE               	movf	postinc2,w,c
  5491  0110FE  5CE6               	subwf	postinc1,w,c
  5492  011100  50DE               	movf	postinc2,w,c
  5493  011102  58E6               	subwfb	postinc1,w,c
  5494  011104  A0D8               	btfss	status,0,c
  5495  011106  D028               	goto	l7528
  5496                           
  5497                           ; BSR set to: 0
  5498                           ;My_ringbuf.c: 14: return (rb->head - rb->tail);
  5499  011108  0100               	movlb	0	; () banked
  5500  01110A  EE20 F004          	lfsr	2,4
  5501  01110E  51C9               	movf	ringbuf_num@rb& (0+255),w,b
  5502  011110  26D9               	addwf	fsr2l,f,c
  5503  011112  51CA               	movf	(ringbuf_num@rb+1)& (0+255),w,b
  5504  011114  22DA               	addwfc	fsr2h,f,c
  5505  011116  CFDE F0CB          	movff	postinc2,??_ringbuf_num
  5506  01111A  CFDD F0CC          	movff	postdec2,??_ringbuf_num+1
  5507  01111E  0100               	movlb	0	; () banked
  5508  011120  EE20 F006          	lfsr	2,6
  5509  011124  51C9               	movf	ringbuf_num@rb& (0+255),w,b
  5510  011126  26D9               	addwf	fsr2l,f,c
  5511  011128  51CA               	movf	(ringbuf_num@rb+1)& (0+255),w,b
  5512  01112A  22DA               	addwfc	fsr2h,f,c
  5513  01112C  CFDE F0CD          	movff	postinc2,??_ringbuf_num+2
  5514  011130  CFDD F0CE          	movff	postdec2,??_ringbuf_num+3
  5515  011134  0100               	movlb	0	; () banked
  5516  011136  1FCD               	comf	(??_ringbuf_num+2)& (0+255),f,b
  5517  011138  1FCE               	comf	(??_ringbuf_num+3)& (0+255),f,b
  5518  01113A  4BCD               	infsnz	(??_ringbuf_num+2)& (0+255),f,b
  5519  01113C  2BCE               	incf	(??_ringbuf_num+3)& (0+255),f,b
  5520  01113E  0100               	movlb	0	; () banked
  5521  011140  51CB               	movf	??_ringbuf_num& (0+255),w,b
  5522  011142  0100               	movlb	0	; () banked
  5523  011144  25CD               	addwf	(??_ringbuf_num+2)& (0+255),w,b
  5524  011146  0100               	movlb	0	; () banked
  5525  011148  6FC9               	movwf	?_ringbuf_num& (0+255),b
  5526  01114A  0100               	movlb	0	; () banked
  5527  01114C  51CC               	movf	(??_ringbuf_num+1)& (0+255),w,b
  5528  01114E  0100               	movlb	0	; () banked
  5529  011150  21CE               	addwfc	(??_ringbuf_num+3)& (0+255),w,b
  5530  011152  0100               	movlb	0	; () banked
  5531  011154  6FCA               	movwf	(?_ringbuf_num+1)& (0+255),b
  5532                           
  5533                           ; BSR set to: 0
  5534                           ;My_ringbuf.c: 15: } else {
  5535                           
  5536                           ; BSR set to: 0
  5537  011156  0012               	return	
  5538  011158                     l7528:
  5539                           
  5540                           ; BSR set to: 0
  5541                           ;My_ringbuf.c: 16: return (rb->size + rb->head - rb->tail);
  5542  011158  0100               	movlb	0	; () banked
  5543  01115A  EE20 F004          	lfsr	2,4
  5544  01115E  51C9               	movf	ringbuf_num@rb& (0+255),w,b
  5545  011160  26D9               	addwf	fsr2l,f,c
  5546  011162  51CA               	movf	(ringbuf_num@rb+1)& (0+255),w,b
  5547  011164  22DA               	addwfc	fsr2h,f,c
  5548  011166  CFDE F0CB          	movff	postinc2,??_ringbuf_num
  5549  01116A  CFDD F0CC          	movff	postdec2,??_ringbuf_num+1
  5550  01116E  0100               	movlb	0	; () banked
  5551  011170  EE20 F002          	lfsr	2,2
  5552  011174  51C9               	movf	ringbuf_num@rb& (0+255),w,b
  5553  011176  26D9               	addwf	fsr2l,f,c
  5554  011178  51CA               	movf	(ringbuf_num@rb+1)& (0+255),w,b
  5555  01117A  22DA               	addwfc	fsr2h,f,c
  5556  01117C  CFDE F0CD          	movff	postinc2,??_ringbuf_num+2
  5557  011180  CFDD F0CE          	movff	postdec2,??_ringbuf_num+3
  5558  011184  0100               	movlb	0	; () banked
  5559  011186  EE20 F006          	lfsr	2,6
  5560  01118A  51C9               	movf	ringbuf_num@rb& (0+255),w,b
  5561  01118C  26D9               	addwf	fsr2l,f,c
  5562  01118E  51CA               	movf	(ringbuf_num@rb+1)& (0+255),w,b
  5563  011190  22DA               	addwfc	fsr2h,f,c
  5564  011192  CFDE F0CF          	movff	postinc2,??_ringbuf_num+4
  5565  011196  CFDD F0D0          	movff	postdec2,??_ringbuf_num+5
  5566  01119A  0100               	movlb	0	; () banked
  5567  01119C  1FCF               	comf	(??_ringbuf_num+4)& (0+255),f,b
  5568  01119E  1FD0               	comf	(??_ringbuf_num+5)& (0+255),f,b
  5569  0111A0  4BCF               	infsnz	(??_ringbuf_num+4)& (0+255),f,b
  5570  0111A2  2BD0               	incf	(??_ringbuf_num+5)& (0+255),f,b
  5571  0111A4  0100               	movlb	0	; () banked
  5572  0111A6  51CD               	movf	(??_ringbuf_num+2)& (0+255),w,b
  5573  0111A8  0100               	movlb	0	; () banked
  5574  0111AA  27CF               	addwf	(??_ringbuf_num+4)& (0+255),f,b
  5575  0111AC  0100               	movlb	0	; () banked
  5576  0111AE  51CE               	movf	(??_ringbuf_num+3)& (0+255),w,b
  5577  0111B0  0100               	movlb	0	; () banked
  5578  0111B2  23D0               	addwfc	(??_ringbuf_num+5)& (0+255),f,b
  5579  0111B4  0100               	movlb	0	; () banked
  5580  0111B6  51CB               	movf	??_ringbuf_num& (0+255),w,b
  5581  0111B8  0100               	movlb	0	; () banked
  5582  0111BA  25CF               	addwf	(??_ringbuf_num+4)& (0+255),w,b
  5583  0111BC  0100               	movlb	0	; () banked
  5584  0111BE  6FC9               	movwf	?_ringbuf_num& (0+255),b
  5585  0111C0  0100               	movlb	0	; () banked
  5586  0111C2  51CC               	movf	(??_ringbuf_num+1)& (0+255),w,b
  5587  0111C4  0100               	movlb	0	; () banked
  5588  0111C6  21D0               	addwfc	(??_ringbuf_num+5)& (0+255),w,b
  5589  0111C8  0100               	movlb	0	; () banked
  5590  0111CA  6FCA               	movwf	(?_ringbuf_num+1)& (0+255),b
  5591                           
  5592                           ; BSR set to: 0
  5593  0111CC  0012               	return	
  5594  0111CE                     __end_of_ringbuf_num:
  5595                           	opt stack 0
  5596                           tblptru	equ	0xFF8
  5597                           tblptrh	equ	0xFF7
  5598                           tblptrl	equ	0xFF6
  5599                           tablat	equ	0xFF5
  5600                           prodh	equ	0xFF4
  5601                           prodl	equ	0xFF3
  5602                           intcon	equ	0xFF2
  5603                           intcon2	equ	0xFF1
  5604                           postinc0	equ	0xFEE
  5605                           wreg	equ	0xFE8
  5606                           indf1	equ	0xFE7
  5607                           postinc1	equ	0xFE6
  5608                           postdec1	equ	0xFE5
  5609                           fsr1h	equ	0xFE2
  5610                           fsr1l	equ	0xFE1
  5611                           indf2	equ	0xFDF
  5612                           postinc2	equ	0xFDE
  5613                           postdec2	equ	0xFDD
  5614                           plusw2	equ	0xFDB
  5615                           fsr2h	equ	0xFDA
  5616                           fsr2l	equ	0xFD9
  5617                           status	equ	0xFD8
  5618                           
  5619 ;; *************** function _RTCC_task *****************
  5620 ;; Defined at:
  5621 ;;		line 346 in file "../../../My_library/My_RTCC.c"
  5622 ;; Parameters:    Size  Location     Type
  5623 ;;		None
  5624 ;; Auto vars:     Size  Location     Type
  5625 ;;		None
  5626 ;; Return value:  Size  Location     Type
  5627 ;;		None               void
  5628 ;; Registers used:
  5629 ;;		wreg, fsr2l, fsr2h, status,2, status,0, prodl, prodh, cstack
  5630 ;; Tracked objects:
  5631 ;;		On entry : 0/0
  5632 ;;		On exit  : 0/0
  5633 ;;		Unchanged: 0/0
  5634 ;; Data sizes:     COMRAM   BANK0   BANK1   BANK2   BANK3   BANK4   BANK5   BANK6   BANK7   BANK8   BANK9  BANK10  BANK1
      +1  BANK12  BANK13  BANK14
  5635 ;;      Params:         0       0       0       0       0       0       0       0       0       0       0       0       
      +0       0       0       0
  5636 ;;      Locals:         0       0       0       0       0       0       0       0       0       0       0       0       
      +0       0       0       0
  5637 ;;      Temps:          0       0       0       0       0       0       0       0       0       0       0       0       
      +0       0       0       0
  5638 ;;      Totals:         0       0       0       0       0       0       0       0       0       0       0       0       
      +0       0       0       0
  5639 ;;Total ram usage:        0 bytes
  5640 ;; Hardware stack levels used:    1
  5641 ;; Hardware stack levels required when called:   15
  5642 ;; This function calls:
  5643 ;;		_RTCC_from_RTCC
  5644 ;; This function is called by:
  5645 ;;		_main
  5646 ;; This function uses a non-reentrant model
  5647 ;;
  5648                           
  5649                           	psect	text28
  5650  012AD8                     __ptext28:
  5651                           	opt stack 0
  5652  012AD8                     _RTCC_task:
  5653                           	opt stack 15
  5654  012AD8                     l551:
  5655  012AD8  010F               	movlb	15	; () banked
  5656  012ADA  B93F               	btfsc	63,4,b	;volatile
  5657  012ADC  D7FD               	goto	l551
  5658                           
  5659                           ; BSR set to: 15
  5660                           ;My_RTCC.c: 349: now.halfsec = RTCCFGbits.HALFSEC;
  5661                           
  5662                           ; BSR set to: 15
  5663  012ADE  0E00               	movlw	0
  5664  012AE0  B73F               	btfsc	63,3,b	;volatile
  5665  012AE2  0E01               	movlw	1
  5666  012AE4  0100               	movlb	0	; () banked
  5667  012AE6  6F96               	movwf	(_now+12)& (0+255),b
  5668                           
  5669                           ; BSR set to: 0
  5670                           ;My_RTCC.c: 350: if (prev_halfsec != now.halfsec) {
  5671  012AE8  0100               	movlb	0	; () banked
  5672  012AEA  5180               	movf	RTCC_task@prev_halfsec& (0+255),w,b
  5673  012AEC  0100               	movlb	0	; () banked
  5674  012AEE  1996               	xorwf	(_now+12)& (0+255),w,b
  5675  012AF0  B4D8               	btfsc	status,2,c
  5676  012AF2  0012               	return	
  5677                           
  5678                           ; BSR set to: 0
  5679                           ;My_RTCC.c: 351: prev_halfsec = now.halfsec;
  5680  012AF4  C096  F080         	movff	_now+12,RTCC_task@prev_halfsec
  5681                           
  5682                           ;My_RTCC.c: 352: now.colon = now.halfsec;
  5683  012AF8  C096  F095         	movff	_now+12,_now+11
  5684                           
  5685                           ; BSR set to: 0
  5686                           ;My_RTCC.c: 353: time_change_flag = 1;
  5687  012AFC  0E01               	movlw	1
  5688  012AFE  0100               	movlb	0	; () banked
  5689  012B00  6F87               	movwf	_time_change_flag& (0+255),b
  5690                           
  5691                           ; BSR set to: 0
  5692                           ;My_RTCC.c: 354: RTCC_from_RTCC(&now);
  5693  012B02  0E8A               	movlw	low _now
  5694  012B04  0100               	movlb	0	; () banked
  5695  012B06  6FEF               	movwf	RTCC_from_RTCC@tm& (0+255),b
  5696  012B08  0E00               	movlw	high _now
  5697  012B0A  0100               	movlb	0	; () banked
  5698  012B0C  6FF0               	movwf	(RTCC_from_RTCC@tm+1)& (0+255),b
  5699  012B0E  EC75  F097         	call	_RTCC_from_RTCC	;wreg free
  5700  012B12  0012               	return	
  5701  012B14                     __end_of_RTCC_task:
  5702                           	opt stack 0
  5703                           tblptru	equ	0xFF8
  5704                           tblptrh	equ	0xFF7
  5705                           tblptrl	equ	0xFF6
  5706                           tablat	equ	0xFF5
  5707                           prodh	equ	0xFF4
  5708                           prodl	equ	0xFF3
  5709                           intcon	equ	0xFF2
  5710                           intcon2	equ	0xFF1
  5711                           postinc0	equ	0xFEE
  5712                           wreg	equ	0xFE8
  5713                           indf1	equ	0xFE7
  5714                           postinc1	equ	0xFE6
  5715                           postdec1	equ	0xFE5
  5716                           fsr1h	equ	0xFE2
  5717                           fsr1l	equ	0xFE1
  5718                           indf2	equ	0xFDF
  5719                           postinc2	equ	0xFDE
  5720                           postdec2	equ	0xFDD
  5721                           plusw2	equ	0xFDB
  5722                           fsr2h	equ	0xFDA
  5723                           fsr2l	equ	0xFD9
  5724                           status	equ	0xFD8
  5725                           
  5726 ;; *************** function _RTCC_from_RTCC *****************
  5727 ;; Defined at:
  5728 ;;		line 193 in file "../../../My_library/My_RTCC.c"
  5729 ;; Parameters:    Size  Location     Type
  5730 ;;  tm              2   38[BANK0 ] PTR struct .
  5731 ;;		 -> now(14), 
  5732 ;; Auto vars:     Size  Location     Type
  5733 ;;		None
  5734 ;; Return value:  Size  Location     Type
  5735 ;;		None               void
  5736 ;; Registers used:
  5737 ;;		wreg, fsr2l, fsr2h, status,2, status,0, prodl, prodh, cstack
  5738 ;; Tracked objects:
  5739 ;;		On entry : 0/0
  5740 ;;		On exit  : 0/0
  5741 ;;		Unchanged: 0/0
  5742 ;; Data sizes:     COMRAM   BANK0   BANK1   BANK2   BANK3   BANK4   BANK5   BANK6   BANK7   BANK8   BANK9  BANK10  BANK1
      +1  BANK12  BANK13  BANK14
  5743 ;;      Params:         0       2       0       0       0       0       0       0       0       0       0       0       
      +0       0       0       0
  5744 ;;      Locals:         0       0       0       0       0       0       0       0       0       0       0       0       
      +0       0       0       0
  5745 ;;      Temps:          0       0       0       0       0       0       0       0       0       0       0       0       
      +0       0       0       0
  5746 ;;      Totals:         0       2       0       0       0       0       0       0       0       0       0       0       
      +0       0       0       0
  5747 ;;Total ram usage:        2 bytes
  5748 ;; Hardware stack levels used:    1
  5749 ;; Hardware stack levels required when called:   14
  5750 ;; This function calls:
  5751 ;;		_RTCC_to_caltime
  5752 ;;		_caltime_to_epoch
  5753 ;; This function is called by:
  5754 ;;		_main
  5755 ;;		_RTCC_task
  5756 ;;		_display_time_0802
  5757 ;;		_display_time_1602
  5758 ;;		_RTCC_adjust_time_inc
  5759 ;;		_RTCC_adjust_time_dec
  5760 ;;		_print_time
  5761 ;; This function uses a non-reentrant model
  5762 ;;
  5763                           
  5764                           	psect	text29
  5765  012EEA                     __ptext29:
  5766                           	opt stack 0
  5767  012EEA                     _RTCC_from_RTCC:
  5768                           	opt stack 15
  5769                           
  5770                           ;My_RTCC.c: 194: RTCC_to_caltime(tm);
  5771                           
  5772                           ;incstack = 0
  5773  012EEA  C0EF  F0CB         	movff	RTCC_from_RTCC@tm,RTCC_to_caltime@tm
  5774  012EEE  C0F0  F0CC         	movff	RTCC_from_RTCC@tm+1,RTCC_to_caltime@tm+1
  5775  012EF2  ECB8  F08E         	call	_RTCC_to_caltime	;wreg free
  5776                           
  5777                           ;My_RTCC.c: 195: caltime_to_epoch(tm);
  5778  012EF6  C0EF  F0E2         	movff	RTCC_from_RTCC@tm,caltime_to_epoch@tm
  5779  012EFA  C0F0  F0E3         	movff	RTCC_from_RTCC@tm+1,caltime_to_epoch@tm+1
  5780  012EFE  EC00  F080         	call	_caltime_to_epoch	;wreg free
  5781  012F02  0012               	return		;funcret
  5782  012F04                     __end_of_RTCC_from_RTCC:
  5783                           	opt stack 0
  5784                           tblptru	equ	0xFF8
  5785                           tblptrh	equ	0xFF7
  5786                           tblptrl	equ	0xFF6
  5787                           tablat	equ	0xFF5
  5788                           prodh	equ	0xFF4
  5789                           prodl	equ	0xFF3
  5790                           intcon	equ	0xFF2
  5791                           intcon2	equ	0xFF1
  5792                           postinc0	equ	0xFEE
  5793                           wreg	equ	0xFE8
  5794                           indf1	equ	0xFE7
  5795                           postinc1	equ	0xFE6
  5796                           postdec1	equ	0xFE5
  5797                           fsr1h	equ	0xFE2
  5798                           fsr1l	equ	0xFE1
  5799                           indf2	equ	0xFDF
  5800                           postinc2	equ	0xFDE
  5801                           postdec2	equ	0xFDD
  5802                           plusw2	equ	0xFDB
  5803                           fsr2h	equ	0xFDA
  5804                           fsr2l	equ	0xFD9
  5805                           status	equ	0xFD8
  5806                           
  5807 ;; *************** function _caltime_to_epoch *****************
  5808 ;; Defined at:
  5809 ;;		line 173 in file "../../../My_library/My_RTCC.c"
  5810 ;; Parameters:    Size  Location     Type
  5811 ;;  tm              2   25[BANK0 ] PTR struct .
  5812 ;;		 -> now(14), 
  5813 ;; Auto vars:     Size  Location     Type
  5814 ;;  month           1   37[BANK0 ] unsigned char 
  5815 ;;  month           1   32[BANK0 ] unsigned char 
  5816 ;;  year            1   31[BANK0 ] unsigned char 
  5817 ;;  epoch           4   33[BANK0 ] unsigned long 
  5818 ;; Return value:  Size  Location     Type
  5819 ;;		None               void
  5820 ;; Registers used:
  5821 ;;		wreg, fsr2l, fsr2h, status,2, status,0, cstack
  5822 ;; Tracked objects:
  5823 ;;		On entry : 0/0
  5824 ;;		On exit  : 0/0
  5825 ;;		Unchanged: 0/0
  5826 ;; Data sizes:     COMRAM   BANK0   BANK1   BANK2   BANK3   BANK4   BANK5   BANK6   BANK7   BANK8   BANK9  BANK10  BANK1
      +1  BANK12  BANK13  BANK14
  5827 ;;      Params:         0       2       0       0       0       0       0       0       0       0       0       0       
      +0       0       0       0
  5828 ;;      Locals:         0       7       0       0       0       0       0       0       0       0       0       0       
      +0       0       0       0
  5829 ;;      Temps:          0       4       0       0       0       0       0       0       0       0       0       0       
      +0       0       0       0
  5830 ;;      Totals:         0      13       0       0       0       0       0       0       0       0       0       0       
      +0       0       0       0
  5831 ;;Total ram usage:       13 bytes
  5832 ;; Hardware stack levels used:    1
  5833 ;; Hardware stack levels required when called:   13
  5834 ;; This function calls:
  5835 ;;		___lmul
  5836 ;;		_month_length
  5837 ;; This function is called by:
  5838 ;;		_RTCC_from_RTCC
  5839 ;;		_RTCC_from_caltime
  5840 ;; This function uses a non-reentrant model
  5841 ;;
  5842                           
  5843                           	psect	text30
  5844  010000                     __ptext30:
  5845                           	opt stack 0
  5846  010000                     _caltime_to_epoch:
  5847                           	opt stack 15
  5848                           
  5849                           ;My_RTCC.c: 174: epoch_t epoch = 0;
  5850                           
  5851                           ;incstack = 0
  5852  010000  0E00               	movlw	0
  5853  010002  0100               	movlb	0	; () banked
  5854  010004  6FEA               	movwf	caltime_to_epoch@epoch& (0+255),b
  5855  010006  0E00               	movlw	0
  5856  010008  6FEB               	movwf	(caltime_to_epoch@epoch+1)& (0+255),b
  5857  01000A  0E00               	movlw	0
  5858  01000C  6FEC               	movwf	(caltime_to_epoch@epoch+2)& (0+255),b
  5859  01000E  0E00               	movlw	0
  5860  010010  6FED               	movwf	(caltime_to_epoch@epoch+3)& (0+255),b
  5861                           
  5862                           ;My_RTCC.c: 175: for (uint8_t year = 0; year < tm->YY; year++) {
  5863  010012  0E00               	movlw	0
  5864  010014  0100               	movlb	0	; () banked
  5865  010016  6FE8               	movwf	caltime_to_epoch@year& (0+255),b
  5866  010018  D037               	goto	l7572
  5867  01001A                     l7558:
  5868                           
  5869                           ; BSR set to: 0
  5870                           ;My_RTCC.c: 176: for (uint8_t month = 1; month <= 12; month++) {
  5871  01001A  0E01               	movlw	1
  5872  01001C  0100               	movlb	0	; () banked
  5873  01001E  6FEE               	movwf	caltime_to_epoch@month& (0+255),b
  5874  010020                     l7560:
  5875                           
  5876                           ; BSR set to: 0
  5877  010020  0E0C               	movlw	12
  5878  010022  0100               	movlb	0	; () banked
  5879  010024  65EE               	cpfsgt	caltime_to_epoch@month& (0+255),b
  5880  010026  D001               	goto	l7564
  5881  010028  D02D               	goto	l7570
  5882  01002A                     l7564:
  5883                           
  5884                           ; BSR set to: 0
  5885                           ;My_RTCC.c: 177: epoch += ((epoch_t)60*60*24) * month_length(year, month);
  5886  01002A  C0EE  F0CF         	movff	caltime_to_epoch@month,month_length@month
  5887  01002E  0100               	movlb	0	; () banked
  5888  010030  51E8               	movf	caltime_to_epoch@year& (0+255),w,b
  5889  010032  ECCD  F089         	call	_month_length
  5890  010036  0100               	movlb	0	; () banked
  5891  010038  6FE4               	movwf	??_caltime_to_epoch& (0+255),b
  5892  01003A  0100               	movlb	0	; () banked
  5893  01003C  51E4               	movf	??_caltime_to_epoch& (0+255),w,b
  5894  01003E  0100               	movlb	0	; () banked
  5895  010040  6FD6               	movwf	___lmul@multiplier& (0+255),b
  5896  010042  6BD7               	clrf	(___lmul@multiplier+1)& (0+255),b
  5897  010044  6BD8               	clrf	(___lmul@multiplier+2)& (0+255),b
  5898  010046  6BD9               	clrf	(___lmul@multiplier+3)& (0+255),b
  5899  010048  0E80               	movlw	128
  5900  01004A  0100               	movlb	0	; () banked
  5901  01004C  6FDA               	movwf	___lmul@multiplicand& (0+255),b
  5902  01004E  0E51               	movlw	81
  5903  010050  6FDB               	movwf	(___lmul@multiplicand+1)& (0+255),b
  5904  010052  0E01               	movlw	1
  5905  010054  6FDC               	movwf	(___lmul@multiplicand+2)& (0+255),b
  5906  010056  0E00               	movlw	0
  5907  010058  6FDD               	movwf	(___lmul@multiplicand+3)& (0+255),b
  5908  01005A  EC9F  F093         	call	___lmul	;wreg free
  5909  01005E  0100               	movlb	0	; () banked
  5910  010060  51D6               	movf	?___lmul& (0+255),w,b
  5911  010062  0100               	movlb	0	; () banked
  5912  010064  27EA               	addwf	caltime_to_epoch@epoch& (0+255),f,b
  5913  010066  0100               	movlb	0	; () banked
  5914  010068  51D7               	movf	(?___lmul+1)& (0+255),w,b
  5915  01006A  0100               	movlb	0	; () banked
  5916  01006C  23EB               	addwfc	(caltime_to_epoch@epoch+1)& (0+255),f,b
  5917  01006E  0100               	movlb	0	; () banked
  5918  010070  51D8               	movf	(?___lmul+2)& (0+255),w,b
  5919  010072  0100               	movlb	0	; () banked
  5920  010074  23EC               	addwfc	(caltime_to_epoch@epoch+2)& (0+255),f,b
  5921  010076  0100               	movlb	0	; () banked
  5922  010078  51D9               	movf	(?___lmul+3)& (0+255),w,b
  5923  01007A  0100               	movlb	0	; () banked
  5924  01007C  23ED               	addwfc	(caltime_to_epoch@epoch+3)& (0+255),f,b
  5925                           
  5926                           ; BSR set to: 0
  5927  01007E  0100               	movlb	0	; () banked
  5928  010080  2BEE               	incf	caltime_to_epoch@month& (0+255),f,b
  5929  010082  D7CE               	goto	l7560
  5930  010084                     l7570:
  5931                           
  5932                           ; BSR set to: 0
  5933  010084  0100               	movlb	0	; () banked
  5934  010086  2BE8               	incf	caltime_to_epoch@year& (0+255),f,b
  5935  010088                     l7572:
  5936                           
  5937                           ; BSR set to: 0
  5938  010088  0100               	movlb	0	; () banked
  5939  01008A  EE20 F00A          	lfsr	2,10
  5940  01008E  51E2               	movf	caltime_to_epoch@tm& (0+255),w,b
  5941  010090  26D9               	addwf	fsr2l,f,c
  5942  010092  51E3               	movf	(caltime_to_epoch@tm+1)& (0+255),w,b
  5943  010094  22DA               	addwfc	fsr2h,f,c
  5944  010096  50DE               	movf	postinc2,w,c
  5945  010098  0100               	movlb	0	; () banked
  5946  01009A  5DE8               	subwf	caltime_to_epoch@year& (0+255),w,b
  5947  01009C  A0D8               	btfss	status,0,c
  5948  01009E  D7BD               	goto	l7558
  5949                           
  5950                           ; BSR set to: 0
  5951                           ;My_RTCC.c: 178: }
  5952                           ;My_RTCC.c: 179: }
  5953                           ;My_RTCC.c: 180: for (uint8_t month = 1; month < tm->MM; month++) {
  5954                           
  5955                           ; BSR set to: 0
  5956  0100A0  0E01               	movlw	1
  5957  0100A2  0100               	movlb	0	; () banked
  5958  0100A4  6FE9               	movwf	caltime_to_epoch@month_2389& (0+255),b
  5959  0100A6  D032               	goto	l7580
  5960  0100A8                     l7576:
  5961                           
  5962                           ; BSR set to: 0
  5963                           ;My_RTCC.c: 181: epoch += ((epoch_t)60*60*24) * month_length(tm->YY, month);
  5964  0100A8  C0E9  F0CF         	movff	caltime_to_epoch@month_2389,month_length@month
  5965  0100AC  0100               	movlb	0	; () banked
  5966  0100AE  EE20 F00A          	lfsr	2,10
  5967  0100B2  51E2               	movf	caltime_to_epoch@tm& (0+255),w,b
  5968  0100B4  26D9               	addwf	fsr2l,f,c
  5969  0100B6  51E3               	movf	(caltime_to_epoch@tm+1)& (0+255),w,b
  5970  0100B8  22DA               	addwfc	fsr2h,f,c
  5971  0100BA  50DF               	movf	indf2,w,c
  5972  0100BC  ECCD  F089         	call	_month_length
  5973  0100C0  0100               	movlb	0	; () banked
  5974  0100C2  6FE4               	movwf	??_caltime_to_epoch& (0+255),b
  5975  0100C4  0100               	movlb	0	; () banked
  5976  0100C6  51E4               	movf	??_caltime_to_epoch& (0+255),w,b
  5977  0100C8  0100               	movlb	0	; () banked
  5978  0100CA  6FD6               	movwf	___lmul@multiplier& (0+255),b
  5979  0100CC  6BD7               	clrf	(___lmul@multiplier+1)& (0+255),b
  5980  0100CE  6BD8               	clrf	(___lmul@multiplier+2)& (0+255),b
  5981  0100D0  6BD9               	clrf	(___lmul@multiplier+3)& (0+255),b
  5982  0100D2  0E80               	movlw	128
  5983  0100D4  0100               	movlb	0	; () banked
  5984  0100D6  6FDA               	movwf	___lmul@multiplicand& (0+255),b
  5985  0100D8  0E51               	movlw	81
  5986  0100DA  6FDB               	movwf	(___lmul@multiplicand+1)& (0+255),b
  5987  0100DC  0E01               	movlw	1
  5988  0100DE  6FDC               	movwf	(___lmul@multiplicand+2)& (0+255),b
  5989  0100E0  0E00               	movlw	0
  5990  0100E2  6FDD               	movwf	(___lmul@multiplicand+3)& (0+255),b
  5991  0100E4  EC9F  F093         	call	___lmul	;wreg free
  5992  0100E8  0100               	movlb	0	; () banked
  5993  0100EA  51D6               	movf	?___lmul& (0+255),w,b
  5994  0100EC  0100               	movlb	0	; () banked
  5995  0100EE  27EA               	addwf	caltime_to_epoch@epoch& (0+255),f,b
  5996  0100F0  0100               	movlb	0	; () banked
  5997  0100F2  51D7               	movf	(?___lmul+1)& (0+255),w,b
  5998  0100F4  0100               	movlb	0	; () banked
  5999  0100F6  23EB               	addwfc	(caltime_to_epoch@epoch+1)& (0+255),f,b
  6000  0100F8  0100               	movlb	0	; () banked
  6001  0100FA  51D8               	movf	(?___lmul+2)& (0+255),w,b
  6002  0100FC  0100               	movlb	0	; () banked
  6003  0100FE  23EC               	addwfc	(caltime_to_epoch@epoch+2)& (0+255),f,b
  6004  010100  0100               	movlb	0	; () banked
  6005  010102  51D9               	movf	(?___lmul+3)& (0+255),w,b
  6006  010104  0100               	movlb	0	; () banked
  6007  010106  23ED               	addwfc	(caltime_to_epoch@epoch+3)& (0+255),f,b
  6008                           
  6009                           ; BSR set to: 0
  6010  010108  0100               	movlb	0	; () banked
  6011  01010A  2BE9               	incf	caltime_to_epoch@month_2389& (0+255),f,b
  6012  01010C                     l7580:
  6013                           
  6014                           ; BSR set to: 0
  6015  01010C  0100               	movlb	0	; () banked
  6016  01010E  EE20 F009          	lfsr	2,9
  6017  010112  51E2               	movf	caltime_to_epoch@tm& (0+255),w,b
  6018  010114  26D9               	addwf	fsr2l,f,c
  6019  010116  51E3               	movf	(caltime_to_epoch@tm+1)& (0+255),w,b
  6020  010118  22DA               	addwfc	fsr2h,f,c
  6021  01011A  50DE               	movf	postinc2,w,c
  6022  01011C  0100               	movlb	0	; () banked
  6023  01011E  5DE9               	subwf	caltime_to_epoch@month_2389& (0+255),w,b
  6024  010120  A0D8               	btfss	status,0,c
  6025  010122  D7C2               	goto	l7576
  6026                           
  6027                           ; BSR set to: 0
  6028                           ;My_RTCC.c: 182: }
  6029                           ;My_RTCC.c: 183: epoch += ((epoch_t)60*60*24) * (tm->DD - 1);
  6030                           
  6031                           ; BSR set to: 0
  6032  010124  0EFF               	movlw	255
  6033  010126  0100               	movlb	0	; () banked
  6034  010128  6FE4               	movwf	??_caltime_to_epoch& (0+255),b
  6035  01012A  0EFF               	movlw	255
  6036  01012C  0100               	movlb	0	; () banked
  6037  01012E  6FE5               	movwf	(??_caltime_to_epoch+1)& (0+255),b
  6038  010130  0100               	movlb	0	; () banked
  6039  010132  EE20 F008          	lfsr	2,8
  6040  010136  51E2               	movf	caltime_to_epoch@tm& (0+255),w,b
  6041  010138  26D9               	addwf	fsr2l,f,c
  6042  01013A  51E3               	movf	(caltime_to_epoch@tm+1)& (0+255),w,b
  6043  01013C  22DA               	addwfc	fsr2h,f,c
  6044  01013E  50DF               	movf	indf2,w,c
  6045  010140  0100               	movlb	0	; () banked
  6046  010142  6FE6               	movwf	(??_caltime_to_epoch+2)& (0+255),b
  6047  010144  6BE7               	clrf	(??_caltime_to_epoch+3)& (0+255),b
  6048  010146  0100               	movlb	0	; () banked
  6049  010148  51E4               	movf	??_caltime_to_epoch& (0+255),w,b
  6050  01014A  0100               	movlb	0	; () banked
  6051  01014C  27E6               	addwf	(??_caltime_to_epoch+2)& (0+255),f,b
  6052  01014E  0100               	movlb	0	; () banked
  6053  010150  51E5               	movf	(??_caltime_to_epoch+1)& (0+255),w,b
  6054  010152  0100               	movlb	0	; () banked
  6055  010154  23E7               	addwfc	(??_caltime_to_epoch+3)& (0+255),f,b
  6056  010156  C0E6  F0D6         	movff	??_caltime_to_epoch+2,___lmul@multiplier
  6057  01015A  C0E7  F0D7         	movff	??_caltime_to_epoch+3,___lmul@multiplier+1
  6058  01015E  0100               	movlb	0	; () banked
  6059  010160  0E00               	movlw	0
  6060  010162  BFD7               	btfsc	(___lmul@multiplier+1)& (0+255),7,b
  6061  010164  0EFF               	movlw	-1
  6062  010166  6FD8               	movwf	(___lmul@multiplier+2)& (0+255),b
  6063  010168  6FD9               	movwf	(___lmul@multiplier+3)& (0+255),b
  6064  01016A  0E80               	movlw	128
  6065  01016C  0100               	movlb	0	; () banked
  6066  01016E  6FDA               	movwf	___lmul@multiplicand& (0+255),b
  6067  010170  0E51               	movlw	81
  6068  010172  6FDB               	movwf	(___lmul@multiplicand+1)& (0+255),b
  6069  010174  0E01               	movlw	1
  6070  010176  6FDC               	movwf	(___lmul@multiplicand+2)& (0+255),b
  6071  010178  0E00               	movlw	0
  6072  01017A  6FDD               	movwf	(___lmul@multiplicand+3)& (0+255),b
  6073  01017C  EC9F  F093         	call	___lmul	;wreg free
  6074  010180  0100               	movlb	0	; () banked
  6075  010182  51D6               	movf	?___lmul& (0+255),w,b
  6076  010184  0100               	movlb	0	; () banked
  6077  010186  27EA               	addwf	caltime_to_epoch@epoch& (0+255),f,b
  6078  010188  0100               	movlb	0	; () banked
  6079  01018A  51D7               	movf	(?___lmul+1)& (0+255),w,b
  6080  01018C  0100               	movlb	0	; () banked
  6081  01018E  23EB               	addwfc	(caltime_to_epoch@epoch+1)& (0+255),f,b
  6082  010190  0100               	movlb	0	; () banked
  6083  010192  51D8               	movf	(?___lmul+2)& (0+255),w,b
  6084  010194  0100               	movlb	0	; () banked
  6085  010196  23EC               	addwfc	(caltime_to_epoch@epoch+2)& (0+255),f,b
  6086  010198  0100               	movlb	0	; () banked
  6087  01019A  51D9               	movf	(?___lmul+3)& (0+255),w,b
  6088  01019C  0100               	movlb	0	; () banked
  6089  01019E  23ED               	addwfc	(caltime_to_epoch@epoch+3)& (0+255),f,b
  6090                           
  6091                           ;My_RTCC.c: 184: epoch += ((epoch_t)60*60) * tm->hh;
  6092  0101A0  0100               	movlb	0	; () banked
  6093  0101A2  EE20 F006          	lfsr	2,6
  6094  0101A6  51E2               	movf	caltime_to_epoch@tm& (0+255),w,b
  6095  0101A8  26D9               	addwf	fsr2l,f,c
  6096  0101AA  51E3               	movf	(caltime_to_epoch@tm+1)& (0+255),w,b
  6097  0101AC  22DA               	addwfc	fsr2h,f,c
  6098  0101AE  50DF               	movf	indf2,w,c
  6099  0101B0  0100               	movlb	0	; () banked
  6100  0101B2  6FE4               	movwf	??_caltime_to_epoch& (0+255),b
  6101  0101B4  0100               	movlb	0	; () banked
  6102  0101B6  51E4               	movf	??_caltime_to_epoch& (0+255),w,b
  6103  0101B8  0100               	movlb	0	; () banked
  6104  0101BA  6FD6               	movwf	___lmul@multiplier& (0+255),b
  6105  0101BC  6BD7               	clrf	(___lmul@multiplier+1)& (0+255),b
  6106  0101BE  6BD8               	clrf	(___lmul@multiplier+2)& (0+255),b
  6107  0101C0  6BD9               	clrf	(___lmul@multiplier+3)& (0+255),b
  6108  0101C2  0E10               	movlw	16
  6109  0101C4  0100               	movlb	0	; () banked
  6110  0101C6  6FDA               	movwf	___lmul@multiplicand& (0+255),b
  6111  0101C8  0E0E               	movlw	14
  6112  0101CA  6FDB               	movwf	(___lmul@multiplicand+1)& (0+255),b
  6113  0101CC  0E00               	movlw	0
  6114  0101CE  6FDC               	movwf	(___lmul@multiplicand+2)& (0+255),b
  6115  0101D0  0E00               	movlw	0
  6116  0101D2  6FDD               	movwf	(___lmul@multiplicand+3)& (0+255),b
  6117  0101D4  EC9F  F093         	call	___lmul	;wreg free
  6118  0101D8  0100               	movlb	0	; () banked
  6119  0101DA  51D6               	movf	?___lmul& (0+255),w,b
  6120  0101DC  0100               	movlb	0	; () banked
  6121  0101DE  27EA               	addwf	caltime_to_epoch@epoch& (0+255),f,b
  6122  0101E0  0100               	movlb	0	; () banked
  6123  0101E2  51D7               	movf	(?___lmul+1)& (0+255),w,b
  6124  0101E4  0100               	movlb	0	; () banked
  6125  0101E6  23EB               	addwfc	(caltime_to_epoch@epoch+1)& (0+255),f,b
  6126  0101E8  0100               	movlb	0	; () banked
  6127  0101EA  51D8               	movf	(?___lmul+2)& (0+255),w,b
  6128  0101EC  0100               	movlb	0	; () banked
  6129  0101EE  23EC               	addwfc	(caltime_to_epoch@epoch+2)& (0+255),f,b
  6130  0101F0  0100               	movlb	0	; () banked
  6131  0101F2  51D9               	movf	(?___lmul+3)& (0+255),w,b
  6132  0101F4  0100               	movlb	0	; () banked
  6133  0101F6  23ED               	addwfc	(caltime_to_epoch@epoch+3)& (0+255),f,b
  6134                           
  6135                           ;My_RTCC.c: 185: epoch += ((epoch_t)60) * tm->mm;
  6136  0101F8  0100               	movlb	0	; () banked
  6137  0101FA  EE20 F005          	lfsr	2,5
  6138  0101FE  51E2               	movf	caltime_to_epoch@tm& (0+255),w,b
  6139  010200  26D9               	addwf	fsr2l,f,c
  6140  010202  51E3               	movf	(caltime_to_epoch@tm+1)& (0+255),w,b
  6141  010204  22DA               	addwfc	fsr2h,f,c
  6142  010206  50DF               	movf	indf2,w,c
  6143  010208  0100               	movlb	0	; () banked
  6144  01020A  6FE4               	movwf	??_caltime_to_epoch& (0+255),b
  6145  01020C  0100               	movlb	0	; () banked
  6146  01020E  51E4               	movf	??_caltime_to_epoch& (0+255),w,b
  6147  010210  0100               	movlb	0	; () banked
  6148  010212  6FD6               	movwf	___lmul@multiplier& (0+255),b
  6149  010214  6BD7               	clrf	(___lmul@multiplier+1)& (0+255),b
  6150  010216  6BD8               	clrf	(___lmul@multiplier+2)& (0+255),b
  6151  010218  6BD9               	clrf	(___lmul@multiplier+3)& (0+255),b
  6152  01021A  0E3C               	movlw	60
  6153  01021C  0100               	movlb	0	; () banked
  6154  01021E  6FDA               	movwf	___lmul@multiplicand& (0+255),b
  6155  010220  0E00               	movlw	0
  6156  010222  6FDB               	movwf	(___lmul@multiplicand+1)& (0+255),b
  6157  010224  0E00               	movlw	0
  6158  010226  6FDC               	movwf	(___lmul@multiplicand+2)& (0+255),b
  6159  010228  0E00               	movlw	0
  6160  01022A  6FDD               	movwf	(___lmul@multiplicand+3)& (0+255),b
  6161  01022C  EC9F  F093         	call	___lmul	;wreg free
  6162  010230  0100               	movlb	0	; () banked
  6163  010232  51D6               	movf	?___lmul& (0+255),w,b
  6164  010234  0100               	movlb	0	; () banked
  6165  010236  27EA               	addwf	caltime_to_epoch@epoch& (0+255),f,b
  6166  010238  0100               	movlb	0	; () banked
  6167  01023A  51D7               	movf	(?___lmul+1)& (0+255),w,b
  6168  01023C  0100               	movlb	0	; () banked
  6169  01023E  23EB               	addwfc	(caltime_to_epoch@epoch+1)& (0+255),f,b
  6170  010240  0100               	movlb	0	; () banked
  6171  010242  51D8               	movf	(?___lmul+2)& (0+255),w,b
  6172  010244  0100               	movlb	0	; () banked
  6173  010246  23EC               	addwfc	(caltime_to_epoch@epoch+2)& (0+255),f,b
  6174  010248  0100               	movlb	0	; () banked
  6175  01024A  51D9               	movf	(?___lmul+3)& (0+255),w,b
  6176  01024C  0100               	movlb	0	; () banked
  6177  01024E  23ED               	addwfc	(caltime_to_epoch@epoch+3)& (0+255),f,b
  6178                           
  6179                           ; BSR set to: 0
  6180                           ;My_RTCC.c: 186: epoch += tm->ss;
  6181  010250  0100               	movlb	0	; () banked
  6182  010252  EE20 F004          	lfsr	2,4
  6183  010256  51E2               	movf	caltime_to_epoch@tm& (0+255),w,b
  6184  010258  26D9               	addwf	fsr2l,f,c
  6185  01025A  51E3               	movf	(caltime_to_epoch@tm+1)& (0+255),w,b
  6186  01025C  22DA               	addwfc	fsr2h,f,c
  6187  01025E  50DF               	movf	indf2,w,c
  6188  010260  0100               	movlb	0	; () banked
  6189  010262  6FE4               	movwf	??_caltime_to_epoch& (0+255),b
  6190  010264  0100               	movlb	0	; () banked
  6191  010266  51E4               	movf	??_caltime_to_epoch& (0+255),w,b
  6192  010268  0100               	movlb	0	; () banked
  6193  01026A  27EA               	addwf	caltime_to_epoch@epoch& (0+255),f,b
  6194  01026C  0E00               	movlw	0
  6195  01026E  23EB               	addwfc	(caltime_to_epoch@epoch+1)& (0+255),f,b
  6196  010270  23EC               	addwfc	(caltime_to_epoch@epoch+2)& (0+255),f,b
  6197  010272  23ED               	addwfc	(caltime_to_epoch@epoch+3)& (0+255),f,b
  6198                           
  6199                           ; BSR set to: 0
  6200                           ;My_RTCC.c: 188: tm->epoch = epoch;
  6201  010274  C0E2  FFD9         	movff	caltime_to_epoch@tm,fsr2l
  6202  010278  C0E3  FFDA         	movff	caltime_to_epoch@tm+1,fsr2h
  6203  01027C  C0EA  FFDE         	movff	caltime_to_epoch@epoch,postinc2
  6204  010280  C0EB  FFDE         	movff	caltime_to_epoch@epoch+1,postinc2
  6205  010284  C0EC  FFDE         	movff	caltime_to_epoch@epoch+2,postinc2
  6206  010288  C0ED  FFDE         	movff	caltime_to_epoch@epoch+3,postinc2
  6207                           
  6208                           ; BSR set to: 0
  6209  01028C  0012               	return		;funcret
  6210  01028E                     __end_of_caltime_to_epoch:
  6211                           	opt stack 0
  6212                           tblptru	equ	0xFF8
  6213                           tblptrh	equ	0xFF7
  6214                           tblptrl	equ	0xFF6
  6215                           tablat	equ	0xFF5
  6216                           prodh	equ	0xFF4
  6217                           prodl	equ	0xFF3
  6218                           intcon	equ	0xFF2
  6219                           intcon2	equ	0xFF1
  6220                           postinc0	equ	0xFEE
  6221                           wreg	equ	0xFE8
  6222                           indf1	equ	0xFE7
  6223                           postinc1	equ	0xFE6
  6224                           postdec1	equ	0xFE5
  6225                           fsr1h	equ	0xFE2
  6226                           fsr1l	equ	0xFE1
  6227                           indf2	equ	0xFDF
  6228                           postinc2	equ	0xFDE
  6229                           postdec2	equ	0xFDD
  6230                           plusw2	equ	0xFDB
  6231                           fsr2h	equ	0xFDA
  6232                           fsr2l	equ	0xFD9
  6233                           status	equ	0xFD8
  6234                           
  6235 ;; *************** function _RTCC_to_caltime *****************
  6236 ;; Defined at:
  6237 ;;		line 83 in file "../../../My_library/My_RTCC.c"
  6238 ;; Parameters:    Size  Location     Type
  6239 ;;  tm              2    2[BANK0 ] PTR struct .
  6240 ;;		 -> now(14), 
  6241 ;; Auto vars:     Size  Location     Type
  6242 ;;  dumy            1    4[BANK0 ] unsigned char 
  6243 ;; Return value:  Size  Location     Type
  6244 ;;		None               void
  6245 ;; Registers used:
  6246 ;;		wreg, fsr2l, fsr2h, status,2, status,0, prodl, prodh, cstack
  6247 ;; Tracked objects:
  6248 ;;		On entry : 0/0
  6249 ;;		On exit  : 0/0
  6250 ;;		Unchanged: 0/0
  6251 ;; Data sizes:     COMRAM   BANK0   BANK1   BANK2   BANK3   BANK4   BANK5   BANK6   BANK7   BANK8   BANK9  BANK10  BANK1
      +1  BANK12  BANK13  BANK14
  6252 ;;      Params:         0       2       0       0       0       0       0       0       0       0       0       0       
      +0       0       0       0
  6253 ;;      Locals:         0       1       0       0       0       0       0       0       0       0       0       0       
      +0       0       0       0
  6254 ;;      Temps:          0       0       0       0       0       0       0       0       0       0       0       0       
      +0       0       0       0
  6255 ;;      Totals:         0       3       0       0       0       0       0       0       0       0       0       0       
      +0       0       0       0
  6256 ;;Total ram usage:        3 bytes
  6257 ;; Hardware stack levels used:    1
  6258 ;; Hardware stack levels required when called:   12
  6259 ;; This function calls:
  6260 ;;		_x_to_d
  6261 ;; This function is called by:
  6262 ;;		_RTCC_from_RTCC
  6263 ;; This function uses a non-reentrant model
  6264 ;;
  6265                           
  6266                           	psect	text31
  6267  011D70                     __ptext31:
  6268                           	opt stack 0
  6269  011D70                     _RTCC_to_caltime:
  6270                           	opt stack 16
  6271  011D70                     l429:
  6272  011D70  010F               	movlb	15	; () banked
  6273  011D72  B93F               	btfsc	63,4,b	;volatile
  6274  011D74  D7FD               	goto	l429
  6275                           
  6276                           ; BSR set to: 15
  6277                           ;My_RTCC.c: 86: RTCCFGbits.RTCPTR0 = 1;
  6278  011D76  010F               	movlb	15	; () banked
  6279  011D78  813F               	bsf	63,0,b	;volatile
  6280                           
  6281                           ;My_RTCC.c: 87: RTCCFGbits.RTCPTR1 = 1;
  6282  011D7A  010F               	movlb	15	; () banked
  6283  011D7C  833F               	bsf	63,1,b	;volatile
  6284                           
  6285                           ; BSR set to: 15
  6286                           ;My_RTCC.c: 89: tm->YY = x_to_d(RTCVALL);
  6287  011D7E  0100               	movlb	0	; () banked
  6288  011D80  EE20 F00A          	lfsr	2,10
  6289  011D84  51CB               	movf	RTCC_to_caltime@tm& (0+255),w,b
  6290  011D86  26D9               	addwf	fsr2l,f,c
  6291  011D88  51CC               	movf	(RTCC_to_caltime@tm+1)& (0+255),w,b
  6292  011D8A  22DA               	addwfc	fsr2h,f,c
  6293  011D8C  010F               	movlb	15	; () banked
  6294  011D8E  513A               	movf	58,w,b	;volatile
  6295  011D90  EC2D  F097         	call	_x_to_d
  6296  011D94  6EDF               	movwf	indf2,c
  6297                           
  6298                           ;My_RTCC.c: 90: uint8_t dumy = RTCVALH;
  6299  011D96  CF3B F0CD          	movff	3899,RTCC_to_caltime@dumy	;volatile
  6300                           
  6301                           ;My_RTCC.c: 91: tm->DD = x_to_d(RTCVALL);
  6302  011D9A  0100               	movlb	0	; () banked
  6303  011D9C  EE20 F008          	lfsr	2,8
  6304  011DA0  51CB               	movf	RTCC_to_caltime@tm& (0+255),w,b
  6305  011DA2  26D9               	addwf	fsr2l,f,c
  6306  011DA4  51CC               	movf	(RTCC_to_caltime@tm+1)& (0+255),w,b
  6307  011DA6  22DA               	addwfc	fsr2h,f,c
  6308  011DA8  010F               	movlb	15	; () banked
  6309  011DAA  513A               	movf	58,w,b	;volatile
  6310  011DAC  EC2D  F097         	call	_x_to_d
  6311  011DB0  6EDF               	movwf	indf2,c
  6312                           
  6313                           ;My_RTCC.c: 92: tm->MM = x_to_d(RTCVALH);
  6314  011DB2  0100               	movlb	0	; () banked
  6315  011DB4  EE20 F009          	lfsr	2,9
  6316  011DB8  51CB               	movf	RTCC_to_caltime@tm& (0+255),w,b
  6317  011DBA  26D9               	addwf	fsr2l,f,c
  6318  011DBC  51CC               	movf	(RTCC_to_caltime@tm+1)& (0+255),w,b
  6319  011DBE  22DA               	addwfc	fsr2h,f,c
  6320  011DC0  010F               	movlb	15	; () banked
  6321  011DC2  513B               	movf	59,w,b	;volatile
  6322  011DC4  EC2D  F097         	call	_x_to_d
  6323  011DC8  6EDF               	movwf	indf2,c
  6324                           
  6325                           ;My_RTCC.c: 93: tm->hh = x_to_d(RTCVALL);
  6326  011DCA  0100               	movlb	0	; () banked
  6327  011DCC  EE20 F006          	lfsr	2,6
  6328  011DD0  51CB               	movf	RTCC_to_caltime@tm& (0+255),w,b
  6329  011DD2  26D9               	addwf	fsr2l,f,c
  6330  011DD4  51CC               	movf	(RTCC_to_caltime@tm+1)& (0+255),w,b
  6331  011DD6  22DA               	addwfc	fsr2h,f,c
  6332  011DD8  010F               	movlb	15	; () banked
  6333  011DDA  513A               	movf	58,w,b	;volatile
  6334  011DDC  EC2D  F097         	call	_x_to_d
  6335  011DE0  6EDF               	movwf	indf2,c
  6336                           
  6337                           ;My_RTCC.c: 94: tm->EE = x_to_d(RTCVALH);
  6338  011DE2  0100               	movlb	0	; () banked
  6339  011DE4  EE20 F007          	lfsr	2,7
  6340  011DE8  51CB               	movf	RTCC_to_caltime@tm& (0+255),w,b
  6341  011DEA  26D9               	addwf	fsr2l,f,c
  6342  011DEC  51CC               	movf	(RTCC_to_caltime@tm+1)& (0+255),w,b
  6343  011DEE  22DA               	addwfc	fsr2h,f,c
  6344  011DF0  010F               	movlb	15	; () banked
  6345  011DF2  513B               	movf	59,w,b	;volatile
  6346  011DF4  EC2D  F097         	call	_x_to_d
  6347  011DF8  6EDF               	movwf	indf2,c
  6348                           
  6349                           ;My_RTCC.c: 95: tm->ss = x_to_d(RTCVALL);
  6350  011DFA  0100               	movlb	0	; () banked
  6351  011DFC  EE20 F004          	lfsr	2,4
  6352  011E00  51CB               	movf	RTCC_to_caltime@tm& (0+255),w,b
  6353  011E02  26D9               	addwf	fsr2l,f,c
  6354  011E04  51CC               	movf	(RTCC_to_caltime@tm+1)& (0+255),w,b
  6355  011E06  22DA               	addwfc	fsr2h,f,c
  6356  011E08  010F               	movlb	15	; () banked
  6357  011E0A  513A               	movf	58,w,b	;volatile
  6358  011E0C  EC2D  F097         	call	_x_to_d
  6359  011E10  6EDF               	movwf	indf2,c
  6360                           
  6361                           ;My_RTCC.c: 96: tm->mm = x_to_d(RTCVALH);
  6362  011E12  0100               	movlb	0	; () banked
  6363  011E14  EE20 F005          	lfsr	2,5
  6364  011E18  51CB               	movf	RTCC_to_caltime@tm& (0+255),w,b
  6365  011E1A  26D9               	addwf	fsr2l,f,c
  6366  011E1C  51CC               	movf	(RTCC_to_caltime@tm+1)& (0+255),w,b
  6367  011E1E  22DA               	addwfc	fsr2h,f,c
  6368  011E20  010F               	movlb	15	; () banked
  6369  011E22  513B               	movf	59,w,b	;volatile
  6370  011E24  EC2D  F097         	call	_x_to_d
  6371  011E28  6EDF               	movwf	indf2,c
  6372  011E2A  0012               	return		;funcret
  6373  011E2C                     __end_of_RTCC_to_caltime:
  6374                           	opt stack 0
  6375                           tblptru	equ	0xFF8
  6376                           tblptrh	equ	0xFF7
  6377                           tblptrl	equ	0xFF6
  6378                           tablat	equ	0xFF5
  6379                           prodh	equ	0xFF4
  6380                           prodl	equ	0xFF3
  6381                           intcon	equ	0xFF2
  6382                           intcon2	equ	0xFF1
  6383                           postinc0	equ	0xFEE
  6384                           wreg	equ	0xFE8
  6385                           indf1	equ	0xFE7
  6386                           postinc1	equ	0xFE6
  6387                           postdec1	equ	0xFE5
  6388                           fsr1h	equ	0xFE2
  6389                           fsr1l	equ	0xFE1
  6390                           indf2	equ	0xFDF
  6391                           postinc2	equ	0xFDE
  6392                           postdec2	equ	0xFDD
  6393                           plusw2	equ	0xFDB
  6394                           fsr2h	equ	0xFDA
  6395                           fsr2l	equ	0xFD9
  6396                           status	equ	0xFD8
  6397                           
  6398 ;; *************** function _x_to_d *****************
  6399 ;; Defined at:
  6400 ;;		line 45 in file "../../../My_library/My_RTCC.c"
  6401 ;; Parameters:    Size  Location     Type
  6402 ;;  hex             1    wreg     unsigned char 
  6403 ;; Auto vars:     Size  Location     Type
  6404 ;;  hex             1    1[BANK0 ] unsigned char 
  6405 ;; Return value:  Size  Location     Type
  6406 ;;                  1    wreg      unsigned char 
  6407 ;; Registers used:
  6408 ;;		wreg, status,2, status,0, prodl, prodh
  6409 ;; Tracked objects:
  6410 ;;		On entry : 0/0
  6411 ;;		On exit  : 0/0
  6412 ;;		Unchanged: 0/0
  6413 ;; Data sizes:     COMRAM   BANK0   BANK1   BANK2   BANK3   BANK4   BANK5   BANK6   BANK7   BANK8   BANK9  BANK10  BANK1
      +1  BANK12  BANK13  BANK14
  6414 ;;      Params:         0       0       0       0       0       0       0       0       0       0       0       0       
      +0       0       0       0
  6415 ;;      Locals:         0       1       0       0       0       0       0       0       0       0       0       0       
      +0       0       0       0
  6416 ;;      Temps:          0       1       0       0       0       0       0       0       0       0       0       0       
      +0       0       0       0
  6417 ;;      Totals:         0       2       0       0       0       0       0       0       0       0       0       0       
      +0       0       0       0
  6418 ;;Total ram usage:        2 bytes
  6419 ;; Hardware stack levels used:    1
  6420 ;; Hardware stack levels required when called:   11
  6421 ;; This function calls:
  6422 ;;		Nothing
  6423 ;; This function is called by:
  6424 ;;		_RTCC_to_caltime
  6425 ;; This function uses a non-reentrant model
  6426 ;;
  6427                           
  6428                           	psect	text32
  6429  012E5A                     __ptext32:
  6430                           	opt stack 0
  6431  012E5A                     _x_to_d:
  6432                           	opt stack 16
  6433                           
  6434                           ;incstack = 0
  6435                           ;x_to_d@hex stored from wreg
  6436  012E5A  0100               	movlb	0	; () banked
  6437  012E5C  6FCA               	movwf	x_to_d@hex& (0+255),b
  6438                           
  6439                           ;My_RTCC.c: 46: return 10 * (0x0F & (hex >> 4)) + (0x0F & hex);
  6440  012E5E  C0CA  F0C9         	movff	x_to_d@hex,??_x_to_d
  6441  012E62  0E0F               	movlw	15
  6442  012E64  0100               	movlb	0	; () banked
  6443  012E66  17C9               	andwf	??_x_to_d& (0+255),f,b
  6444  012E68  0100               	movlb	0	; () banked
  6445  012E6A  39CA               	swapf	x_to_d@hex& (0+255),w,b
  6446  012E6C  0B0F               	andlw	15
  6447  012E6E  0B0F               	andlw	15
  6448  012E70  0D0A               	mullw	10
  6449  012E72  50F3               	movf	prodl,w,c
  6450  012E74  0100               	movlb	0	; () banked
  6451  012E76  25C9               	addwf	??_x_to_d& (0+255),w,b
  6452  012E78  0012               	return	
  6453  012E7A                     __end_of_x_to_d:
  6454                           	opt stack 0
  6455                           tblptru	equ	0xFF8
  6456                           tblptrh	equ	0xFF7
  6457                           tblptrl	equ	0xFF6
  6458                           tablat	equ	0xFF5
  6459                           prodh	equ	0xFF4
  6460                           prodl	equ	0xFF3
  6461                           intcon	equ	0xFF2
  6462                           intcon2	equ	0xFF1
  6463                           postinc0	equ	0xFEE
  6464                           wreg	equ	0xFE8
  6465                           indf1	equ	0xFE7
  6466                           postinc1	equ	0xFE6
  6467                           postdec1	equ	0xFE5
  6468                           fsr1h	equ	0xFE2
  6469                           fsr1l	equ	0xFE1
  6470                           indf2	equ	0xFDF
  6471                           postinc2	equ	0xFDE
  6472                           postdec2	equ	0xFDD
  6473                           plusw2	equ	0xFDB
  6474                           fsr2h	equ	0xFDA
  6475                           fsr2l	equ	0xFD9
  6476                           status	equ	0xFD8
  6477                           
  6478 ;; *************** function _RTCC_from_epoch *****************
  6479 ;; Defined at:
  6480 ;;		line 204 in file "../../../My_library/My_RTCC.c"
  6481 ;; Parameters:    Size  Location     Type
  6482 ;;  tm              2   47[BANK0 ] PTR struct .
  6483 ;;		 -> now(14), 
  6484 ;; Auto vars:     Size  Location     Type
  6485 ;;		None
  6486 ;; Return value:  Size  Location     Type
  6487 ;;		None               void
  6488 ;; Registers used:
  6489 ;;		wreg, fsr2l, fsr2h, status,2, status,0, prodl, prodh, cstack
  6490 ;; Tracked objects:
  6491 ;;		On entry : 0/0
  6492 ;;		On exit  : 0/0
  6493 ;;		Unchanged: 0/0
  6494 ;; Data sizes:     COMRAM   BANK0   BANK1   BANK2   BANK3   BANK4   BANK5   BANK6   BANK7   BANK8   BANK9  BANK10  BANK1
      +1  BANK12  BANK13  BANK14
  6495 ;;      Params:         0       2       0       0       0       0       0       0       0       0       0       0       
      +0       0       0       0
  6496 ;;      Locals:         0       0       0       0       0       0       0       0       0       0       0       0       
      +0       0       0       0
  6497 ;;      Temps:          0       0       0       0       0       0       0       0       0       0       0       0       
      +0       0       0       0
  6498 ;;      Totals:         0       2       0       0       0       0       0       0       0       0       0       0       
      +0       0       0       0
  6499 ;;Total ram usage:        2 bytes
  6500 ;; Hardware stack levels used:    1
  6501 ;; Hardware stack levels required when called:   14
  6502 ;; This function calls:
  6503 ;;		_caltime_to_RTCC
  6504 ;;		_epoch_to_caltime
  6505 ;; This function is called by:
  6506 ;;		_main
  6507 ;;		_RTCC_adjust_time_inc
  6508 ;;		_RTCC_adjust_time_dec
  6509 ;; This function uses a non-reentrant model
  6510 ;;
  6511                           
  6512                           	psect	text33
  6513  012F04                     __ptext33:
  6514                           	opt stack 0
  6515  012F04                     _RTCC_from_epoch:
  6516                           	opt stack 16
  6517                           
  6518                           ;My_RTCC.c: 205: epoch_to_caltime(tm);
  6519                           
  6520                           ; BSR set to: 0
  6521                           ;incstack = 0
  6522  012F04  C0F8  F0EA         	movff	RTCC_from_epoch@tm,epoch_to_caltime@tm
  6523  012F08  C0F9  F0EB         	movff	RTCC_from_epoch@tm+1,epoch_to_caltime@tm+1
  6524  012F0C  EC85  F082         	call	_epoch_to_caltime	;wreg free
  6525                           
  6526                           ;My_RTCC.c: 206: caltime_to_RTCC(tm);
  6527  012F10  C0F8  F0D2         	movff	RTCC_from_epoch@tm,caltime_to_RTCC@tm
  6528  012F14  C0F9  F0D3         	movff	RTCC_from_epoch@tm+1,caltime_to_RTCC@tm+1
  6529  012F18  EC83  F08B         	call	_caltime_to_RTCC	;wreg free
  6530  012F1C  0012               	return		;funcret
  6531  012F1E                     __end_of_RTCC_from_epoch:
  6532                           	opt stack 0
  6533                           tblptru	equ	0xFF8
  6534                           tblptrh	equ	0xFF7
  6535                           tblptrl	equ	0xFF6
  6536                           tablat	equ	0xFF5
  6537                           prodh	equ	0xFF4
  6538                           prodl	equ	0xFF3
  6539                           intcon	equ	0xFF2
  6540                           intcon2	equ	0xFF1
  6541                           postinc0	equ	0xFEE
  6542                           wreg	equ	0xFE8
  6543                           indf1	equ	0xFE7
  6544                           postinc1	equ	0xFE6
  6545                           postdec1	equ	0xFE5
  6546                           fsr1h	equ	0xFE2
  6547                           fsr1l	equ	0xFE1
  6548                           indf2	equ	0xFDF
  6549                           postinc2	equ	0xFDE
  6550                           postdec2	equ	0xFDD
  6551                           plusw2	equ	0xFDB
  6552                           fsr2h	equ	0xFDA
  6553                           fsr2l	equ	0xFD9
  6554                           status	equ	0xFD8
  6555                           
  6556 ;; *************** function _epoch_to_caltime *****************
  6557 ;; Defined at:
  6558 ;;		line 119 in file "../../../My_library/My_RTCC.c"
  6559 ;; Parameters:    Size  Location     Type
  6560 ;;  tm              2   33[BANK0 ] PTR struct .
  6561 ;;		 -> now(14), 
  6562 ;; Auto vars:     Size  Location     Type
  6563 ;;  num             4   43[BANK0 ] unsigned long 
  6564 ;;  day             2   39[BANK0 ] unsigned int 
  6565 ;;  day_since_ep    2   37[BANK0 ] unsigned int 
  6566 ;;  month           1   42[BANK0 ] unsigned char 
  6567 ;;  year            1   41[BANK0 ] unsigned char 
  6568 ;; Return value:  Size  Location     Type
  6569 ;;		None               void
  6570 ;; Registers used:
  6571 ;;		wreg, fsr2l, fsr2h, status,2, status,0, cstack
  6572 ;; Tracked objects:
  6573 ;;		On entry : 0/0
  6574 ;;		On exit  : 0/0
  6575 ;;		Unchanged: 0/0
  6576 ;; Data sizes:     COMRAM   BANK0   BANK1   BANK2   BANK3   BANK4   BANK5   BANK6   BANK7   BANK8   BANK9  BANK10  BANK1
      +1  BANK12  BANK13  BANK14
  6577 ;;      Params:         0       2       0       0       0       0       0       0       0       0       0       0       
      +0       0       0       0
  6578 ;;      Locals:         0      10       0       0       0       0       0       0       0       0       0       0       
      +0       0       0       0
  6579 ;;      Temps:          0       2       0       0       0       0       0       0       0       0       0       0       
      +0       0       0       0
  6580 ;;      Totals:         0      14       0       0       0       0       0       0       0       0       0       0       
      +0       0       0       0
  6581 ;;Total ram usage:       14 bytes
  6582 ;; Hardware stack levels used:    1
  6583 ;; Hardware stack levels required when called:   13
  6584 ;; This function calls:
  6585 ;;		_get_quot_rem
  6586 ;;		_month_length
  6587 ;; This function is called by:
  6588 ;;		_RTCC_from_epoch
  6589 ;;		_RTCC_from_caltime
  6590 ;; This function uses a non-reentrant model
  6591 ;;
  6592                           
  6593                           	psect	text34
  6594  01050A                     __ptext34:
  6595                           	opt stack 0
  6596  01050A                     _epoch_to_caltime:
  6597                           	opt stack 16
  6598                           
  6599                           ;My_RTCC.c: 122: static uint16_t day_cache = 0;
  6600                           ;My_RTCC.c: 123: static uint8_t month_cache = 1;
  6601                           ;My_RTCC.c: 124: static uint8_t year_cache = 0;
  6602                           ;My_RTCC.c: 125: uint16_t day_since_epoch;
  6603                           ;My_RTCC.c: 126: uint16_t day;
  6604                           ;My_RTCC.c: 127: uint8_t year = 0;
  6605                           
  6606                           ;incstack = 0
  6607  01050A  0E00               	movlw	0
  6608  01050C  0100               	movlb	0	; () banked
  6609  01050E  6FF2               	movwf	epoch_to_caltime@year& (0+255),b
  6610                           
  6611                           ;My_RTCC.c: 128: uint8_t month = 1;
  6612  010510  0E01               	movlw	1
  6613  010512  0100               	movlb	0	; () banked
  6614  010514  6FF3               	movwf	epoch_to_caltime@month& (0+255),b
  6615                           
  6616                           ; BSR set to: 0
  6617                           ;My_RTCC.c: 129: epoch_t num;
  6618                           ;My_RTCC.c: 131: num = tm->epoch;
  6619  010516  C0EA  FFD9         	movff	epoch_to_caltime@tm,fsr2l
  6620  01051A  C0EB  FFDA         	movff	epoch_to_caltime@tm+1,fsr2h
  6621  01051E  CFDE F0F4          	movff	postinc2,epoch_to_caltime@num
  6622  010522  CFDE F0F5          	movff	postinc2,epoch_to_caltime@num+1
  6623  010526  CFDE F0F6          	movff	postinc2,epoch_to_caltime@num+2
  6624  01052A  CFDE F0F7          	movff	postinc2,epoch_to_caltime@num+3
  6625                           
  6626                           ; BSR set to: 0
  6627                           ;My_RTCC.c: 132: tm->ss = get_quot_rem(&num, 60);
  6628  01052E  0EF4               	movlw	low epoch_to_caltime@num
  6629  010530  0100               	movlb	0	; () banked
  6630  010532  6FE2               	movwf	get_quot_rem@quot& (0+255),b
  6631  010534  0E00               	movlw	high epoch_to_caltime@num
  6632  010536  0100               	movlb	0	; () banked
  6633  010538  6FE3               	movwf	(get_quot_rem@quot+1)& (0+255),b
  6634  01053A  0E3C               	movlw	60
  6635  01053C  0100               	movlb	0	; () banked
  6636  01053E  6FE4               	movwf	get_quot_rem@div& (0+255),b
  6637  010540  EC58  F08C         	call	_get_quot_rem	;wreg free
  6638  010544  0100               	movlb	0	; () banked
  6639  010546  EE20 F004          	lfsr	2,4
  6640  01054A  51EA               	movf	epoch_to_caltime@tm& (0+255),w,b
  6641  01054C  26D9               	addwf	fsr2l,f,c
  6642  01054E  51EB               	movf	(epoch_to_caltime@tm+1)& (0+255),w,b
  6643  010550  22DA               	addwfc	fsr2h,f,c
  6644  010552  0100               	movlb	0	; () banked
  6645  010554  C0E2  FFDF         	movff	?_get_quot_rem,indf2
  6646                           
  6647                           ; BSR set to: 0
  6648                           ;My_RTCC.c: 133: tm->mm = get_quot_rem(&num, 60);
  6649  010558  0EF4               	movlw	low epoch_to_caltime@num
  6650  01055A  0100               	movlb	0	; () banked
  6651  01055C  6FE2               	movwf	get_quot_rem@quot& (0+255),b
  6652  01055E  0E00               	movlw	high epoch_to_caltime@num
  6653  010560  0100               	movlb	0	; () banked
  6654  010562  6FE3               	movwf	(get_quot_rem@quot+1)& (0+255),b
  6655  010564  0E3C               	movlw	60
  6656  010566  0100               	movlb	0	; () banked
  6657  010568  6FE4               	movwf	get_quot_rem@div& (0+255),b
  6658  01056A  EC58  F08C         	call	_get_quot_rem	;wreg free
  6659  01056E  0100               	movlb	0	; () banked
  6660  010570  EE20 F005          	lfsr	2,5
  6661  010574  51EA               	movf	epoch_to_caltime@tm& (0+255),w,b
  6662  010576  26D9               	addwf	fsr2l,f,c
  6663  010578  51EB               	movf	(epoch_to_caltime@tm+1)& (0+255),w,b
  6664  01057A  22DA               	addwfc	fsr2h,f,c
  6665  01057C  0100               	movlb	0	; () banked
  6666  01057E  C0E2  FFDF         	movff	?_get_quot_rem,indf2
  6667                           
  6668                           ; BSR set to: 0
  6669                           ;My_RTCC.c: 134: tm->hh = get_quot_rem(&num, 24);
  6670  010582  0EF4               	movlw	low epoch_to_caltime@num
  6671  010584  0100               	movlb	0	; () banked
  6672  010586  6FE2               	movwf	get_quot_rem@quot& (0+255),b
  6673  010588  0E00               	movlw	high epoch_to_caltime@num
  6674  01058A  0100               	movlb	0	; () banked
  6675  01058C  6FE3               	movwf	(get_quot_rem@quot+1)& (0+255),b
  6676  01058E  0E18               	movlw	24
  6677  010590  0100               	movlb	0	; () banked
  6678  010592  6FE4               	movwf	get_quot_rem@div& (0+255),b
  6679  010594  EC58  F08C         	call	_get_quot_rem	;wreg free
  6680  010598  0100               	movlb	0	; () banked
  6681  01059A  EE20 F006          	lfsr	2,6
  6682  01059E  51EA               	movf	epoch_to_caltime@tm& (0+255),w,b
  6683  0105A0  26D9               	addwf	fsr2l,f,c
  6684  0105A2  51EB               	movf	(epoch_to_caltime@tm+1)& (0+255),w,b
  6685  0105A4  22DA               	addwfc	fsr2h,f,c
  6686  0105A6  0100               	movlb	0	; () banked
  6687  0105A8  C0E2  FFDF         	movff	?_get_quot_rem,indf2
  6688                           
  6689                           ; BSR set to: 0
  6690                           ;My_RTCC.c: 135: day = num;
  6691  0105AC  C0F4  F0F0         	movff	epoch_to_caltime@num,epoch_to_caltime@day
  6692  0105B0  C0F5  F0F1         	movff	epoch_to_caltime@num+1,epoch_to_caltime@day+1
  6693                           
  6694                           ; BSR set to: 0
  6695                           ;My_RTCC.c: 136: day_since_epoch = day;
  6696  0105B4  C0F0  F0EE         	movff	epoch_to_caltime@day,epoch_to_caltime@day_since_epoch
  6697  0105B8  C0F1  F0EF         	movff	epoch_to_caltime@day+1,epoch_to_caltime@day_since_epoch+1
  6698                           
  6699                           ; BSR set to: 0
  6700                           ;My_RTCC.c: 138: num += 6;
  6701  0105BC  0E06               	movlw	6
  6702  0105BE  0100               	movlb	0	; () banked
  6703  0105C0  27F4               	addwf	epoch_to_caltime@num& (0+255),f,b
  6704  0105C2  0E00               	movlw	0
  6705  0105C4  23F5               	addwfc	(epoch_to_caltime@num+1)& (0+255),f,b
  6706  0105C6  23F6               	addwfc	(epoch_to_caltime@num+2)& (0+255),f,b
  6707  0105C8  23F7               	addwfc	(epoch_to_caltime@num+3)& (0+255),f,b
  6708                           
  6709                           ; BSR set to: 0
  6710                           ;My_RTCC.c: 139: tm->EE = get_quot_rem(&num, 7);
  6711  0105CA  0EF4               	movlw	low epoch_to_caltime@num
  6712  0105CC  0100               	movlb	0	; () banked
  6713  0105CE  6FE2               	movwf	get_quot_rem@quot& (0+255),b
  6714  0105D0  0E00               	movlw	high epoch_to_caltime@num
  6715  0105D2  0100               	movlb	0	; () banked
  6716  0105D4  6FE3               	movwf	(get_quot_rem@quot+1)& (0+255),b
  6717  0105D6  0E07               	movlw	7
  6718  0105D8  0100               	movlb	0	; () banked
  6719  0105DA  6FE4               	movwf	get_quot_rem@div& (0+255),b
  6720  0105DC  EC58  F08C         	call	_get_quot_rem	;wreg free
  6721  0105E0  0100               	movlb	0	; () banked
  6722  0105E2  EE20 F007          	lfsr	2,7
  6723  0105E6  51EA               	movf	epoch_to_caltime@tm& (0+255),w,b
  6724  0105E8  26D9               	addwf	fsr2l,f,c
  6725  0105EA  51EB               	movf	(epoch_to_caltime@tm+1)& (0+255),w,b
  6726  0105EC  22DA               	addwfc	fsr2h,f,c
  6727  0105EE  0100               	movlb	0	; () banked
  6728  0105F0  C0E2  FFDF         	movff	?_get_quot_rem,indf2
  6729                           
  6730                           ;My_RTCC.c: 148: while (day >= month_length(year, month)) {
  6731  0105F4  D03F               	goto	l8022
  6732  0105F6                     l448:
  6733                           
  6734                           ; BSR set to: 0
  6735                           ;My_RTCC.c: 149: LATB2 = 1;
  6736  0105F6  848A               	bsf	3978,2,c	;volatile
  6737                           
  6738                           ; BSR set to: 0
  6739                           ;My_RTCC.c: 150: day = day - month_length(year, month);
  6740  0105F8  C0F3  F0CF         	movff	epoch_to_caltime@month,month_length@month
  6741  0105FC  0100               	movlb	0	; () banked
  6742  0105FE  51F2               	movf	epoch_to_caltime@year& (0+255),w,b
  6743  010600  ECCD  F089         	call	_month_length
  6744  010604  0100               	movlb	0	; () banked
  6745  010606  6FEC               	movwf	??_epoch_to_caltime& (0+255),b
  6746  010608  6BED               	clrf	(??_epoch_to_caltime+1)& (0+255),b
  6747  01060A  0100               	movlb	0	; () banked
  6748  01060C  1FEC               	comf	??_epoch_to_caltime& (0+255),f,b
  6749  01060E  1FED               	comf	(??_epoch_to_caltime+1)& (0+255),f,b
  6750  010610  4BEC               	infsnz	??_epoch_to_caltime& (0+255),f,b
  6751  010612  2BED               	incf	(??_epoch_to_caltime+1)& (0+255),f,b
  6752  010614  0100               	movlb	0	; () banked
  6753  010616  51F0               	movf	epoch_to_caltime@day& (0+255),w,b
  6754  010618  0100               	movlb	0	; () banked
  6755  01061A  25EC               	addwf	??_epoch_to_caltime& (0+255),w,b
  6756  01061C  0100               	movlb	0	; () banked
  6757  01061E  6FF0               	movwf	epoch_to_caltime@day& (0+255),b
  6758  010620  0100               	movlb	0	; () banked
  6759  010622  51F1               	movf	(epoch_to_caltime@day+1)& (0+255),w,b
  6760  010624  0100               	movlb	0	; () banked
  6761  010626  21ED               	addwfc	(??_epoch_to_caltime+1)& (0+255),w,b
  6762  010628  0100               	movlb	0	; () banked
  6763  01062A  6FF1               	movwf	(epoch_to_caltime@day+1)& (0+255),b
  6764                           
  6765                           ; BSR set to: 0
  6766                           ;My_RTCC.c: 151: if (month == 12) {
  6767  01062C  0E0C               	movlw	12
  6768  01062E  0100               	movlb	0	; () banked
  6769  010630  19F3               	xorwf	epoch_to_caltime@month& (0+255),w,b
  6770  010632  A4D8               	btfss	status,2,c
  6771  010634  D019               	goto	l8016
  6772                           
  6773                           ; BSR set to: 0
  6774                           ;My_RTCC.c: 152: month = 1;
  6775  010636  0E01               	movlw	1
  6776  010638  0100               	movlb	0	; () banked
  6777  01063A  6FF3               	movwf	epoch_to_caltime@month& (0+255),b
  6778                           
  6779                           ; BSR set to: 0
  6780                           ;My_RTCC.c: 153: year++;
  6781  01063C  0100               	movlb	0	; () banked
  6782  01063E  2BF2               	incf	epoch_to_caltime@year& (0+255),f,b
  6783                           
  6784                           ; BSR set to: 0
  6785                           ;My_RTCC.c: 155: if (year >= 100) {
  6786  010640  0E63               	movlw	99
  6787  010642  0100               	movlb	0	; () banked
  6788  010644  65F2               	cpfsgt	epoch_to_caltime@year& (0+255),b
  6789  010646  D012               	goto	l8018
  6790                           
  6791                           ; BSR set to: 0
  6792                           ;My_RTCC.c: 156: tm->epoch -= 3155760000;
  6793  010648  C0EA  FFD9         	movff	epoch_to_caltime@tm,fsr2l
  6794  01064C  C0EB  FFDA         	movff	epoch_to_caltime@tm+1,fsr2h
  6795  010650  0E80               	movlw	128
  6796  010652  5EDE               	subwf	postinc2,f,c
  6797  010654  0E13               	movlw	19
  6798  010656  5ADE               	subwfb	postinc2,f,c
  6799  010658  0E19               	movlw	25
  6800  01065A  5ADE               	subwfb	postinc2,f,c
  6801  01065C  0EBC               	movlw	188
  6802  01065E  5ADE               	subwfb	postinc2,f,c
  6803                           
  6804                           ; BSR set to: 0
  6805                           ;My_RTCC.c: 157: year = 0;
  6806  010660  0E00               	movlw	0
  6807  010662  0100               	movlb	0	; () banked
  6808  010664  6FF2               	movwf	epoch_to_caltime@year& (0+255),b
  6809                           
  6810                           ; BSR set to: 0
  6811                           ;My_RTCC.c: 158: }
  6812                           ;My_RTCC.c: 159: } else {
  6813  010666  D002               	goto	l8018
  6814  010668                     l8016:
  6815                           
  6816                           ; BSR set to: 0
  6817                           ;My_RTCC.c: 160: month++;
  6818  010668  0100               	movlb	0	; () banked
  6819  01066A  2BF3               	incf	epoch_to_caltime@month& (0+255),f,b
  6820  01066C                     l8018:
  6821                           
  6822                           ; BSR set to: 0
  6823                           ;My_RTCC.c: 161: }
  6824                           ;My_RTCC.c: 162: month_cache = month;
  6825  01066C  C0F3  F0FD         	movff	epoch_to_caltime@month,epoch_to_caltime@month_cache
  6826                           
  6827                           ; BSR set to: 0
  6828                           ;My_RTCC.c: 163: year_cache = year;
  6829  010670  C0F2  F088         	movff	epoch_to_caltime@year,epoch_to_caltime@year_cache
  6830  010674                     l8022:
  6831                           
  6832                           ; BSR set to: 0
  6833  010674  C0F3  F0CF         	movff	epoch_to_caltime@month,month_length@month
  6834  010678  0100               	movlb	0	; () banked
  6835  01067A  51F2               	movf	epoch_to_caltime@year& (0+255),w,b
  6836  01067C  ECCD  F089         	call	_month_length
  6837  010680  0100               	movlb	0	; () banked
  6838  010682  6FEC               	movwf	??_epoch_to_caltime& (0+255),b
  6839  010684  0100               	movlb	0	; () banked
  6840  010686  51EC               	movf	??_epoch_to_caltime& (0+255),w,b
  6841  010688  0100               	movlb	0	; () banked
  6842  01068A  5DF0               	subwf	epoch_to_caltime@day& (0+255),w,b
  6843  01068C  0E00               	movlw	0
  6844  01068E  59F1               	subwfb	(epoch_to_caltime@day+1)& (0+255),w,b
  6845  010690  B0D8               	btfsc	status,0,c
  6846  010692  D7B1               	goto	l448
  6847                           
  6848                           ; BSR set to: 0
  6849                           ;My_RTCC.c: 164: }
  6850                           ;My_RTCC.c: 165: day_cache = day_since_epoch - day;
  6851                           
  6852                           ; BSR set to: 0
  6853  010694  C0F0  F0EC         	movff	epoch_to_caltime@day,??_epoch_to_caltime
  6854  010698  C0F1  F0ED         	movff	epoch_to_caltime@day+1,??_epoch_to_caltime+1
  6855  01069C  0100               	movlb	0	; () banked
  6856  01069E  1FEC               	comf	??_epoch_to_caltime& (0+255),f,b
  6857  0106A0  1FED               	comf	(??_epoch_to_caltime+1)& (0+255),f,b
  6858  0106A2  4BEC               	infsnz	??_epoch_to_caltime& (0+255),f,b
  6859  0106A4  2BED               	incf	(??_epoch_to_caltime+1)& (0+255),f,b
  6860  0106A6  0100               	movlb	0	; () banked
  6861  0106A8  51EE               	movf	epoch_to_caltime@day_since_epoch& (0+255),w,b
  6862  0106AA  0100               	movlb	0	; () banked
  6863  0106AC  25EC               	addwf	??_epoch_to_caltime& (0+255),w,b
  6864  0106AE  0100               	movlb	0	; () banked
  6865  0106B0  6F7C               	movwf	epoch_to_caltime@day_cache& (0+255),b
  6866  0106B2  0100               	movlb	0	; () banked
  6867  0106B4  51EF               	movf	(epoch_to_caltime@day_since_epoch+1)& (0+255),w,b
  6868  0106B6  0100               	movlb	0	; () banked
  6869  0106B8  21ED               	addwfc	(??_epoch_to_caltime+1)& (0+255),w,b
  6870  0106BA  0100               	movlb	0	; () banked
  6871  0106BC  6F7D               	movwf	(epoch_to_caltime@day_cache+1)& (0+255),b
  6872                           
  6873                           ; BSR set to: 0
  6874                           ;My_RTCC.c: 166: day++;
  6875  0106BE  0100               	movlb	0	; () banked
  6876  0106C0  4BF0               	infsnz	epoch_to_caltime@day& (0+255),f,b
  6877  0106C2  2BF1               	incf	(epoch_to_caltime@day+1)& (0+255),f,b
  6878                           
  6879                           ; BSR set to: 0
  6880                           ;My_RTCC.c: 168: tm->YY = year;
  6881  0106C4  0100               	movlb	0	; () banked
  6882  0106C6  EE20 F00A          	lfsr	2,10
  6883  0106CA  51EA               	movf	epoch_to_caltime@tm& (0+255),w,b
  6884  0106CC  26D9               	addwf	fsr2l,f,c
  6885  0106CE  51EB               	movf	(epoch_to_caltime@tm+1)& (0+255),w,b
  6886  0106D0  22DA               	addwfc	fsr2h,f,c
  6887  0106D2  C0F2  FFDF         	movff	epoch_to_caltime@year,indf2
  6888                           
  6889                           ; BSR set to: 0
  6890                           ;My_RTCC.c: 169: tm->MM = month;
  6891  0106D6  0100               	movlb	0	; () banked
  6892  0106D8  EE20 F009          	lfsr	2,9
  6893  0106DC  51EA               	movf	epoch_to_caltime@tm& (0+255),w,b
  6894  0106DE  26D9               	addwf	fsr2l,f,c
  6895  0106E0  51EB               	movf	(epoch_to_caltime@tm+1)& (0+255),w,b
  6896  0106E2  22DA               	addwfc	fsr2h,f,c
  6897  0106E4  C0F3  FFDF         	movff	epoch_to_caltime@month,indf2
  6898                           
  6899                           ; BSR set to: 0
  6900                           ;My_RTCC.c: 170: tm->DD = day;
  6901  0106E8  0100               	movlb	0	; () banked
  6902  0106EA  EE20 F008          	lfsr	2,8
  6903  0106EE  51EA               	movf	epoch_to_caltime@tm& (0+255),w,b
  6904  0106F0  26D9               	addwf	fsr2l,f,c
  6905  0106F2  51EB               	movf	(epoch_to_caltime@tm+1)& (0+255),w,b
  6906  0106F4  22DA               	addwfc	fsr2h,f,c
  6907  0106F6  C0F0  FFDF         	movff	epoch_to_caltime@day,indf2
  6908                           
  6909                           ; BSR set to: 0
  6910  0106FA  0012               	return		;funcret
  6911  0106FC                     __end_of_epoch_to_caltime:
  6912                           	opt stack 0
  6913                           tblptru	equ	0xFF8
  6914                           tblptrh	equ	0xFF7
  6915                           tblptrl	equ	0xFF6
  6916                           tablat	equ	0xFF5
  6917                           prodh	equ	0xFF4
  6918                           prodl	equ	0xFF3
  6919                           intcon	equ	0xFF2
  6920                           intcon2	equ	0xFF1
  6921                           postinc0	equ	0xFEE
  6922                           wreg	equ	0xFE8
  6923                           indf1	equ	0xFE7
  6924                           postinc1	equ	0xFE6
  6925                           postdec1	equ	0xFE5
  6926                           fsr1h	equ	0xFE2
  6927                           fsr1l	equ	0xFE1
  6928                           indf2	equ	0xFDF
  6929                           postinc2	equ	0xFDE
  6930                           postdec2	equ	0xFDD
  6931                           plusw2	equ	0xFDB
  6932                           fsr2h	equ	0xFDA
  6933                           fsr2l	equ	0xFD9
  6934                           status	equ	0xFD8
  6935                           
  6936 ;; *************** function _month_length *****************
  6937 ;; Defined at:
  6938 ;;		line 49 in file "../../../My_library/My_RTCC.c"
  6939 ;; Parameters:    Size  Location     Type
  6940 ;;  year            1    wreg     unsigned char 
  6941 ;;  month           1    6[BANK0 ] unsigned char 
  6942 ;; Auto vars:     Size  Location     Type
  6943 ;;  year            1   11[BANK0 ] unsigned char 
  6944 ;; Return value:  Size  Location     Type
  6945 ;;                  1    wreg      unsigned char 
  6946 ;; Registers used:
  6947 ;;		wreg, status,2, status,0, cstack
  6948 ;; Tracked objects:
  6949 ;;		On entry : 0/0
  6950 ;;		On exit  : 0/0
  6951 ;;		Unchanged: 0/0
  6952 ;; Data sizes:     COMRAM   BANK0   BANK1   BANK2   BANK3   BANK4   BANK5   BANK6   BANK7   BANK8   BANK9  BANK10  BANK1
      +1  BANK12  BANK13  BANK14
  6953 ;;      Params:         0       1       0       0       0       0       0       0       0       0       0       0       
      +0       0       0       0
  6954 ;;      Locals:         0       1       0       0       0       0       0       0       0       0       0       0       
      +0       0       0       0
  6955 ;;      Temps:          0       4       0       0       0       0       0       0       0       0       0       0       
      +0       0       0       0
  6956 ;;      Totals:         0       6       0       0       0       0       0       0       0       0       0       0       
      +0       0       0       0
  6957 ;;Total ram usage:        6 bytes
  6958 ;; Hardware stack levels used:    1
  6959 ;; Hardware stack levels required when called:   12
  6960 ;; This function calls:
  6961 ;;		___awmod
  6962 ;; This function is called by:
  6963 ;;		_epoch_to_caltime
  6964 ;;		_caltime_to_epoch
  6965 ;;		_RTCC_adjust_time_inc
  6966 ;;		_RTCC_adjust_time_dec
  6967 ;;		_terminal_time
  6968 ;; This function uses a non-reentrant model
  6969 ;;
  6970                           
  6971                           	psect	text35
  6972  01139A                     __ptext35:
  6973                           	opt stack 0
  6974  01139A                     _month_length:
  6975                           	opt stack 15
  6976                           
  6977                           ; BSR set to: 0
  6978                           ;incstack = 0
  6979                           ;month_length@year stored from wreg
  6980  01139A  0100               	movlb	0	; () banked
  6981  01139C  6FD4               	movwf	month_length@year& (0+255),b
  6982                           
  6983                           ;My_RTCC.c: 50: if (month == 2) return 28 + !(year & 3)-!(year % 100)+!(year % 400);
  6984  01139E  0E02               	movlw	2
  6985  0113A0  0100               	movlb	0	; () banked
  6986  0113A2  19CF               	xorwf	month_length@month& (0+255),w,b
  6987  0113A4  A4D8               	btfss	status,2,c
  6988  0113A6  D03E               	goto	l7390
  6989                           
  6990                           ; BSR set to: 0
  6991  0113A8  C0D4  F0C9         	movff	month_length@year,___awmod@dividend
  6992  0113AC  0100               	movlb	0	; () banked
  6993  0113AE  6BCA               	clrf	(___awmod@dividend+1)& (0+255),b
  6994  0113B0  0E00               	movlw	0
  6995  0113B2  0100               	movlb	0	; () banked
  6996  0113B4  6FCC               	movwf	(___awmod@divisor+1)& (0+255),b
  6997  0113B6  0E64               	movlw	100
  6998  0113B8  6FCB               	movwf	___awmod@divisor& (0+255),b
  6999  0113BA  ECEA  F091         	call	___awmod	;wreg free
  7000  0113BE  0100               	movlb	0	; () banked
  7001  0113C0  51C9               	movf	?___awmod& (0+255),w,b
  7002  0113C2  0100               	movlb	0	; () banked
  7003  0113C4  11CA               	iorwf	(?___awmod+1)& (0+255),w,b
  7004  0113C6  A4D8               	btfss	status,2,c
  7005  0113C8  D002               	goto	u7000
  7006  0113CA  0E01               	movlw	1
  7007  0113CC  D001               	goto	u7010
  7008  0113CE                     u7000:
  7009  0113CE  0E00               	movlw	0
  7010  0113D0                     u7010:
  7011  0113D0  0800               	sublw	0
  7012  0113D2  0100               	movlb	0	; () banked
  7013  0113D4  6FD0               	movwf	??_month_length& (0+255),b
  7014  0113D6  C0D4  F0C9         	movff	month_length@year,___awmod@dividend
  7015  0113DA  0100               	movlb	0	; () banked
  7016  0113DC  6BCA               	clrf	(___awmod@dividend+1)& (0+255),b
  7017  0113DE  0E01               	movlw	1
  7018  0113E0  0100               	movlb	0	; () banked
  7019  0113E2  6FCC               	movwf	(___awmod@divisor+1)& (0+255),b
  7020  0113E4  0E90               	movlw	144
  7021  0113E6  6FCB               	movwf	___awmod@divisor& (0+255),b
  7022  0113E8  ECEA  F091         	call	___awmod	;wreg free
  7023  0113EC  0100               	movlb	0	; () banked
  7024  0113EE  51C9               	movf	?___awmod& (0+255),w,b
  7025  0113F0  0100               	movlb	0	; () banked
  7026  0113F2  11CA               	iorwf	(?___awmod+1)& (0+255),w,b
  7027  0113F4  A4D8               	btfss	status,2,c
  7028  0113F6  D004               	goto	u7020
  7029  0113F8  0100               	movlb	0	; () banked
  7030  0113FA  6BD1               	clrf	(??_month_length+1)& (0+255),b
  7031  0113FC  2BD1               	incf	(??_month_length+1)& (0+255),f,b
  7032  0113FE  D002               	goto	u7038
  7033  011400                     u7020:
  7034  011400  0100               	movlb	0	; () banked
  7035  011402  6BD1               	clrf	(??_month_length+1)& (0+255),b
  7036  011404                     u7038:
  7037  011404  C0D4  F0D2         	movff	month_length@year,??_month_length+2
  7038  011408  0E03               	movlw	3
  7039  01140A  0100               	movlb	0	; () banked
  7040  01140C  17D2               	andwf	(??_month_length+2)& (0+255),f,b
  7041  01140E  A4D8               	btfss	status,2,c
  7042  011410  D002               	goto	u7040
  7043  011412  0E01               	movlw	1
  7044  011414  D001               	goto	u7050
  7045  011416                     u7040:
  7046  011416  0E00               	movlw	0
  7047  011418                     u7050:
  7048  011418  0100               	movlb	0	; () banked
  7049  01141A  25D1               	addwf	(??_month_length+1)& (0+255),w,b
  7050  01141C  0100               	movlb	0	; () banked
  7051  01141E  25D0               	addwf	??_month_length& (0+255),w,b
  7052  011420  0F1C               	addlw	28
  7053                           
  7054                           ; BSR set to: 0
  7055                           
  7056                           ; BSR set to: 0
  7057  011422  0012               	return	
  7058  011424                     l7390:
  7059                           
  7060                           ; BSR set to: 0
  7061                           ;My_RTCC.c: 51: else return 31 - (((-(month & 1)^month)&13) == 4);
  7062  011424  0100               	movlb	0	; () banked
  7063  011426  51CF               	movf	month_length@month& (0+255),w,b
  7064  011428  0B01               	andlw	1
  7065  01142A  0100               	movlb	0	; () banked
  7066  01142C  6FD0               	movwf	??_month_length& (0+255),b
  7067  01142E  6BD1               	clrf	(??_month_length+1)& (0+255),b
  7068  011430  0100               	movlb	0	; () banked
  7069  011432  1FD0               	comf	??_month_length& (0+255),f,b
  7070  011434  1FD1               	comf	(??_month_length+1)& (0+255),f,b
  7071  011436  4BD0               	infsnz	??_month_length& (0+255),f,b
  7072  011438  2BD1               	incf	(??_month_length+1)& (0+255),f,b
  7073  01143A  0100               	movlb	0	; () banked
  7074  01143C  51CF               	movf	month_length@month& (0+255),w,b
  7075  01143E  0100               	movlb	0	; () banked
  7076  011440  6FD2               	movwf	(??_month_length+2)& (0+255),b
  7077  011442  6BD3               	clrf	(??_month_length+3)& (0+255),b
  7078  011444  0100               	movlb	0	; () banked
  7079  011446  51D0               	movf	??_month_length& (0+255),w,b
  7080  011448  0100               	movlb	0	; () banked
  7081  01144A  1BD2               	xorwf	(??_month_length+2)& (0+255),f,b
  7082  01144C  0100               	movlb	0	; () banked
  7083  01144E  51D1               	movf	(??_month_length+1)& (0+255),w,b
  7084  011450  0100               	movlb	0	; () banked
  7085  011452  1BD3               	xorwf	(??_month_length+3)& (0+255),f,b
  7086  011454  0E0D               	movlw	13
  7087  011456  0100               	movlb	0	; () banked
  7088  011458  17D2               	andwf	(??_month_length+2)& (0+255),f,b
  7089  01145A  0E00               	movlw	0
  7090  01145C  17D3               	andwf	(??_month_length+3)& (0+255),f,b
  7091  01145E  0E04               	movlw	4
  7092  011460  0100               	movlb	0	; () banked
  7093  011462  19D2               	xorwf	(??_month_length+2)& (0+255),w,b
  7094  011464  0100               	movlb	0	; () banked
  7095  011466  11D3               	iorwf	(??_month_length+3)& (0+255),w,b
  7096  011468  A4D8               	btfss	status,2,c
  7097  01146A  D002               	goto	u7060
  7098  01146C  0E01               	movlw	1
  7099  01146E  D001               	goto	u7070
  7100  011470                     u7060:
  7101  011470  0E00               	movlw	0
  7102  011472                     u7070:
  7103  011472  0800               	sublw	0
  7104  011474  0F1F               	addlw	31
  7105                           
  7106                           ; BSR set to: 0
  7107  011476  0012               	return	
  7108  011478                     __end_of_month_length:
  7109                           	opt stack 0
  7110                           tblptru	equ	0xFF8
  7111                           tblptrh	equ	0xFF7
  7112                           tblptrl	equ	0xFF6
  7113                           tablat	equ	0xFF5
  7114                           prodh	equ	0xFF4
  7115                           prodl	equ	0xFF3
  7116                           intcon	equ	0xFF2
  7117                           intcon2	equ	0xFF1
  7118                           postinc0	equ	0xFEE
  7119                           wreg	equ	0xFE8
  7120                           indf1	equ	0xFE7
  7121                           postinc1	equ	0xFE6
  7122                           postdec1	equ	0xFE5
  7123                           fsr1h	equ	0xFE2
  7124                           fsr1l	equ	0xFE1
  7125                           indf2	equ	0xFDF
  7126                           postinc2	equ	0xFDE
  7127                           postdec2	equ	0xFDD
  7128                           plusw2	equ	0xFDB
  7129                           fsr2h	equ	0xFDA
  7130                           fsr2l	equ	0xFD9
  7131                           status	equ	0xFD8
  7132                           
  7133 ;; *************** function ___awmod *****************
  7134 ;; Defined at:
  7135 ;;		line 8 in file "C:\Program Files (x86)\Microchip\xc8\v1.35\sources\common\awmod.c"
  7136 ;; Parameters:    Size  Location     Type
  7137 ;;  dividend        2    0[BANK0 ] int 
  7138 ;;  divisor         2    2[BANK0 ] int 
  7139 ;; Auto vars:     Size  Location     Type
  7140 ;;  sign            1    5[BANK0 ] unsigned char 
  7141 ;;  counter         1    4[BANK0 ] unsigned char 
  7142 ;; Return value:  Size  Location     Type
  7143 ;;                  2    0[BANK0 ] int 
  7144 ;; Registers used:
  7145 ;;		wreg, status,2, status,0
  7146 ;; Tracked objects:
  7147 ;;		On entry : 0/0
  7148 ;;		On exit  : 0/0
  7149 ;;		Unchanged: 0/0
  7150 ;; Data sizes:     COMRAM   BANK0   BANK1   BANK2   BANK3   BANK4   BANK5   BANK6   BANK7   BANK8   BANK9  BANK10  BANK1
      +1  BANK12  BANK13  BANK14
  7151 ;;      Params:         0       4       0       0       0       0       0       0       0       0       0       0       
      +0       0       0       0
  7152 ;;      Locals:         0       2       0       0       0       0       0       0       0       0       0       0       
      +0       0       0       0
  7153 ;;      Temps:          0       0       0       0       0       0       0       0       0       0       0       0       
      +0       0       0       0
  7154 ;;      Totals:         0       6       0       0       0       0       0       0       0       0       0       0       
      +0       0       0       0
  7155 ;;Total ram usage:        6 bytes
  7156 ;; Hardware stack levels used:    1
  7157 ;; Hardware stack levels required when called:   11
  7158 ;; This function calls:
  7159 ;;		Nothing
  7160 ;; This function is called by:
  7161 ;;		_month_length
  7162 ;; This function uses a non-reentrant model
  7163 ;;
  7164                           
  7165                           	psect	text36
  7166  0123D4                     __ptext36:
  7167                           	opt stack 0
  7168  0123D4                     ___awmod:
  7169                           	opt stack 15
  7170                           
  7171                           ; BSR set to: 0
  7172                           ;incstack = 0
  7173  0123D4  0E00               	movlw	0
  7174  0123D6  0100               	movlb	0	; () banked
  7175  0123D8  6FCE               	movwf	___awmod@sign& (0+255),b
  7176                           
  7177                           ; BSR set to: 0
  7178  0123DA  0100               	movlb	0	; () banked
  7179  0123DC  AFCA               	btfss	(___awmod@dividend+1)& (0+255),7,b
  7180  0123DE  D008               	goto	l7350
  7181                           
  7182                           ; BSR set to: 0
  7183  0123E0  0100               	movlb	0	; () banked
  7184  0123E2  6DC9               	negf	___awmod@dividend& (0+255),b
  7185  0123E4  1FCA               	comf	(___awmod@dividend+1)& (0+255),f,b
  7186  0123E6  B0D8               	btfsc	status,0,c
  7187  0123E8  2BCA               	incf	(___awmod@dividend+1)& (0+255),f,b
  7188                           
  7189                           ; BSR set to: 0
  7190  0123EA  0E01               	movlw	1
  7191  0123EC  0100               	movlb	0	; () banked
  7192  0123EE  6FCE               	movwf	___awmod@sign& (0+255),b
  7193  0123F0                     l7350:
  7194                           
  7195                           ; BSR set to: 0
  7196  0123F0  0100               	movlb	0	; () banked
  7197  0123F2  AFCC               	btfss	(___awmod@divisor+1)& (0+255),7,b
  7198  0123F4  D005               	goto	l7354
  7199                           
  7200                           ; BSR set to: 0
  7201  0123F6  0100               	movlb	0	; () banked
  7202  0123F8  6DCB               	negf	___awmod@divisor& (0+255),b
  7203  0123FA  1FCC               	comf	(___awmod@divisor+1)& (0+255),f,b
  7204  0123FC  B0D8               	btfsc	status,0,c
  7205  0123FE  2BCC               	incf	(___awmod@divisor+1)& (0+255),f,b
  7206  012400                     l7354:
  7207                           
  7208                           ; BSR set to: 0
  7209  012400  0100               	movlb	0	; () banked
  7210  012402  51CB               	movf	___awmod@divisor& (0+255),w,b
  7211  012404  0100               	movlb	0	; () banked
  7212  012406  11CC               	iorwf	(___awmod@divisor+1)& (0+255),w,b
  7213  012408  B4D8               	btfsc	status,2,c
  7214  01240A  D026               	goto	l7370
  7215                           
  7216                           ; BSR set to: 0
  7217  01240C  0E01               	movlw	1
  7218  01240E  0100               	movlb	0	; () banked
  7219  012410  6FCD               	movwf	___awmod@counter& (0+255),b
  7220  012412  D006               	goto	l7360
  7221  012414                     l7358:
  7222                           
  7223                           ; BSR set to: 0
  7224  012414  0100               	movlb	0	; () banked
  7225  012416  90D8               	bcf	status,0,c
  7226  012418  37CB               	rlcf	___awmod@divisor& (0+255),f,b
  7227  01241A  37CC               	rlcf	(___awmod@divisor+1)& (0+255),f,b
  7228  01241C  0100               	movlb	0	; () banked
  7229  01241E  2BCD               	incf	___awmod@counter& (0+255),f,b
  7230  012420                     l7360:
  7231                           
  7232                           ; BSR set to: 0
  7233  012420  0100               	movlb	0	; () banked
  7234  012422  AFCC               	btfss	(___awmod@divisor+1)& (0+255),7,b
  7235  012424  D7F7               	goto	l7358
  7236  012426                     l7362:
  7237                           
  7238                           ; BSR set to: 0
  7239  012426  0100               	movlb	0	; () banked
  7240  012428  51CB               	movf	___awmod@divisor& (0+255),w,b
  7241  01242A  0100               	movlb	0	; () banked
  7242  01242C  5DC9               	subwf	___awmod@dividend& (0+255),w,b
  7243  01242E  0100               	movlb	0	; () banked
  7244  012430  51CC               	movf	(___awmod@divisor+1)& (0+255),w,b
  7245  012432  0100               	movlb	0	; () banked
  7246  012434  59CA               	subwfb	(___awmod@dividend+1)& (0+255),w,b
  7247  012436  A0D8               	btfss	status,0,c
  7248  012438  D008               	goto	l7366
  7249                           
  7250                           ; BSR set to: 0
  7251  01243A  0100               	movlb	0	; () banked
  7252  01243C  51CB               	movf	___awmod@divisor& (0+255),w,b
  7253  01243E  0100               	movlb	0	; () banked
  7254  012440  5FC9               	subwf	___awmod@dividend& (0+255),f,b
  7255  012442  0100               	movlb	0	; () banked
  7256  012444  51CC               	movf	(___awmod@divisor+1)& (0+255),w,b
  7257  012446  0100               	movlb	0	; () banked
  7258  012448  5BCA               	subwfb	(___awmod@dividend+1)& (0+255),f,b
  7259  01244A                     l7366:
  7260                           
  7261                           ; BSR set to: 0
  7262  01244A  0100               	movlb	0	; () banked
  7263  01244C  90D8               	bcf	status,0,c
  7264  01244E  33CC               	rrcf	(___awmod@divisor+1)& (0+255),f,b
  7265  012450  33CB               	rrcf	___awmod@divisor& (0+255),f,b
  7266                           
  7267                           ; BSR set to: 0
  7268  012452  0100               	movlb	0	; () banked
  7269  012454  2FCD               	decfsz	___awmod@counter& (0+255),f,b
  7270  012456  D7E7               	goto	l7362
  7271  012458                     l7370:
  7272                           
  7273                           ; BSR set to: 0
  7274  012458  0100               	movlb	0	; () banked
  7275  01245A  51CE               	movf	___awmod@sign& (0+255),w,b
  7276  01245C  0100               	movlb	0	; () banked
  7277  01245E  B4D8               	btfsc	status,2,c
  7278  012460  D005               	goto	l7374
  7279                           
  7280                           ; BSR set to: 0
  7281  012462  0100               	movlb	0	; () banked
  7282  012464  6DC9               	negf	___awmod@dividend& (0+255),b
  7283  012466  1FCA               	comf	(___awmod@dividend+1)& (0+255),f,b
  7284  012468  B0D8               	btfsc	status,0,c
  7285  01246A  2BCA               	incf	(___awmod@dividend+1)& (0+255),f,b
  7286  01246C                     l7374:
  7287                           
  7288                           ; BSR set to: 0
  7289  01246C  C0C9  F0C9         	movff	___awmod@dividend,?___awmod
  7290  012470  C0CA  F0CA         	movff	___awmod@dividend+1,?___awmod+1
  7291  012474  0012               	return	
  7292  012476                     __end_of___awmod:
  7293                           	opt stack 0
  7294                           tblptru	equ	0xFF8
  7295                           tblptrh	equ	0xFF7
  7296                           tblptrl	equ	0xFF6
  7297                           tablat	equ	0xFF5
  7298                           prodh	equ	0xFF4
  7299                           prodl	equ	0xFF3
  7300                           intcon	equ	0xFF2
  7301                           intcon2	equ	0xFF1
  7302                           postinc0	equ	0xFEE
  7303                           wreg	equ	0xFE8
  7304                           indf1	equ	0xFE7
  7305                           postinc1	equ	0xFE6
  7306                           postdec1	equ	0xFE5
  7307                           fsr1h	equ	0xFE2
  7308                           fsr1l	equ	0xFE1
  7309                           indf2	equ	0xFDF
  7310                           postinc2	equ	0xFDE
  7311                           postdec2	equ	0xFDD
  7312                           plusw2	equ	0xFDB
  7313                           fsr2h	equ	0xFDA
  7314                           fsr2l	equ	0xFD9
  7315                           status	equ	0xFD8
  7316                           
  7317 ;; *************** function _get_quot_rem *****************
  7318 ;; Defined at:
  7319 ;;		line 74 in file "../../../My_library/My_RTCC.c"
  7320 ;; Parameters:    Size  Location     Type
  7321 ;;  quot            2   25[BANK0 ] PTR unsigned long 
  7322 ;;		 -> epoch_to_caltime@num(4), 
  7323 ;;  div             1   27[BANK0 ] unsigned char 
  7324 ;; Auto vars:     Size  Location     Type
  7325 ;;  num             4   29[BANK0 ] unsigned long 
  7326 ;; Return value:  Size  Location     Type
  7327 ;;                  4   25[BANK0 ] unsigned long 
  7328 ;; Registers used:
  7329 ;;		wreg, fsr2l, fsr2h, status,2, status,0, cstack
  7330 ;; Tracked objects:
  7331 ;;		On entry : 0/0
  7332 ;;		On exit  : 0/0
  7333 ;;		Unchanged: 0/0
  7334 ;; Data sizes:     COMRAM   BANK0   BANK1   BANK2   BANK3   BANK4   BANK5   BANK6   BANK7   BANK8   BANK9  BANK10  BANK1
      +1  BANK12  BANK13  BANK14
  7335 ;;      Params:         0       4       0       0       0       0       0       0       0       0       0       0       
      +0       0       0       0
  7336 ;;      Locals:         0       4       0       0       0       0       0       0       0       0       0       0       
      +0       0       0       0
  7337 ;;      Temps:          0       0       0       0       0       0       0       0       0       0       0       0       
      +0       0       0       0
  7338 ;;      Totals:         0       8       0       0       0       0       0       0       0       0       0       0       
      +0       0       0       0
  7339 ;;Total ram usage:        8 bytes
  7340 ;; Hardware stack levels used:    1
  7341 ;; Hardware stack levels required when called:   12
  7342 ;; This function calls:
  7343 ;;		___lldiv
  7344 ;;		___lmul
  7345 ;; This function is called by:
  7346 ;;		_epoch_to_caltime
  7347 ;; This function uses a non-reentrant model
  7348 ;;
  7349                           
  7350                           	psect	text37
  7351  0118B0                     __ptext37:
  7352                           	opt stack 0
  7353  0118B0                     _get_quot_rem:
  7354                           	opt stack 16
  7355                           
  7356                           ;My_RTCC.c: 77: epoch_t num = *quot;
  7357                           
  7358                           ; BSR set to: 0
  7359                           ;incstack = 0
  7360  0118B0  C0E2  FFD9         	movff	get_quot_rem@quot,fsr2l
  7361  0118B4  C0E3  FFDA         	movff	get_quot_rem@quot+1,fsr2h
  7362  0118B8  CFDE F0E6          	movff	postinc2,get_quot_rem@num
  7363  0118BC  CFDE F0E7          	movff	postinc2,get_quot_rem@num+1
  7364  0118C0  CFDE F0E8          	movff	postinc2,get_quot_rem@num+2
  7365  0118C4  CFDE F0E9          	movff	postinc2,get_quot_rem@num+3
  7366                           
  7367                           ;My_RTCC.c: 78: return num - (*quot = num / div) * div;
  7368  0118C8  0100               	movlb	0	; () banked
  7369  0118CA  51E4               	movf	get_quot_rem@div& (0+255),w,b
  7370  0118CC  0100               	movlb	0	; () banked
  7371  0118CE  6FCD               	movwf	___lldiv@divisor& (0+255),b
  7372  0118D0  6BCE               	clrf	(___lldiv@divisor+1)& (0+255),b
  7373  0118D2  6BCF               	clrf	(___lldiv@divisor+2)& (0+255),b
  7374  0118D4  6BD0               	clrf	(___lldiv@divisor+3)& (0+255),b
  7375  0118D6  C0E6  F0C9         	movff	get_quot_rem@num,___lldiv@dividend
  7376  0118DA  C0E7  F0CA         	movff	get_quot_rem@num+1,___lldiv@dividend+1
  7377  0118DE  C0E8  F0CB         	movff	get_quot_rem@num+2,___lldiv@dividend+2
  7378  0118E2  C0E9  F0CC         	movff	get_quot_rem@num+3,___lldiv@dividend+3
  7379  0118E6  EC16  F08F         	call	___lldiv	;wreg free
  7380  0118EA  C0E2  FFD9         	movff	get_quot_rem@quot,fsr2l
  7381  0118EE  C0E3  FFDA         	movff	get_quot_rem@quot+1,fsr2h
  7382  0118F2  0100               	movlb	0	; () banked
  7383  0118F4  C0C9  FFDE         	movff	?___lldiv,postinc2
  7384  0118F8  0100               	movlb	0	; () banked
  7385  0118FA  C0CA  FFDE         	movff	?___lldiv+1,postinc2
  7386  0118FE  0100               	movlb	0	; () banked
  7387  011900  C0CB  FFDE         	movff	?___lldiv+2,postinc2
  7388  011904  0100               	movlb	0	; () banked
  7389  011906  C0CC  FFDD         	movff	?___lldiv+3,postdec2
  7390  01190A  52DD               	movf	postdec2,f,c
  7391  01190C  52DD               	movf	postdec2,f,c
  7392  01190E  CFDE F0D6          	movff	postinc2,___lmul@multiplier
  7393  011912  CFDE F0D7          	movff	postinc2,___lmul@multiplier+1
  7394  011916  CFDE F0D8          	movff	postinc2,___lmul@multiplier+2
  7395  01191A  CFDE F0D9          	movff	postinc2,___lmul@multiplier+3
  7396  01191E  0100               	movlb	0	; () banked
  7397  011920  51E4               	movf	get_quot_rem@div& (0+255),w,b
  7398  011922  0100               	movlb	0	; () banked
  7399  011924  6FDA               	movwf	___lmul@multiplicand& (0+255),b
  7400  011926  6BDB               	clrf	(___lmul@multiplicand+1)& (0+255),b
  7401  011928  6BDC               	clrf	(___lmul@multiplicand+2)& (0+255),b
  7402  01192A  6BDD               	clrf	(___lmul@multiplicand+3)& (0+255),b
  7403  01192C  EC9F  F093         	call	___lmul	;wreg free
  7404  011930  0100               	movlb	0	; () banked
  7405  011932  1FD6               	comf	?___lmul& (0+255),f,b
  7406  011934  0100               	movlb	0	; () banked
  7407  011936  1FD7               	comf	(?___lmul+1)& (0+255),f,b
  7408  011938  0100               	movlb	0	; () banked
  7409  01193A  1FD8               	comf	(?___lmul+2)& (0+255),f,b
  7410  01193C  0100               	movlb	0	; () banked
  7411  01193E  1FD9               	comf	(?___lmul+3)& (0+255),f,b
  7412  011940  0100               	movlb	0	; () banked
  7413  011942  2BD6               	incf	?___lmul& (0+255),f,b
  7414  011944  0E00               	movlw	0
  7415  011946  0100               	movlb	0	; () banked
  7416  011948  23D7               	addwfc	(?___lmul+1)& (0+255),f,b
  7417  01194A  0100               	movlb	0	; () banked
  7418  01194C  23D8               	addwfc	(?___lmul+2)& (0+255),f,b
  7419  01194E  0100               	movlb	0	; () banked
  7420  011950  23D9               	addwfc	(?___lmul+3)& (0+255),f,b
  7421  011952  0100               	movlb	0	; () banked
  7422  011954  51E6               	movf	get_quot_rem@num& (0+255),w,b
  7423  011956  0100               	movlb	0	; () banked
  7424  011958  25D6               	addwf	?___lmul& (0+255),w,b
  7425  01195A  0100               	movlb	0	; () banked
  7426  01195C  6FE2               	movwf	?_get_quot_rem& (0+255),b
  7427  01195E  0100               	movlb	0	; () banked
  7428  011960  51E7               	movf	(get_quot_rem@num+1)& (0+255),w,b
  7429  011962  0100               	movlb	0	; () banked
  7430  011964  21D7               	addwfc	(?___lmul+1)& (0+255),w,b
  7431  011966  0100               	movlb	0	; () banked
  7432  011968  6FE3               	movwf	(?_get_quot_rem+1)& (0+255),b
  7433  01196A  0100               	movlb	0	; () banked
  7434  01196C  51E8               	movf	(get_quot_rem@num+2)& (0+255),w,b
  7435  01196E  0100               	movlb	0	; () banked
  7436  011970  21D8               	addwfc	(?___lmul+2)& (0+255),w,b
  7437  011972  0100               	movlb	0	; () banked
  7438  011974  6FE4               	movwf	(?_get_quot_rem+2)& (0+255),b
  7439  011976  0100               	movlb	0	; () banked
  7440  011978  51E9               	movf	(get_quot_rem@num+3)& (0+255),w,b
  7441  01197A  0100               	movlb	0	; () banked
  7442  01197C  21D9               	addwfc	(?___lmul+3)& (0+255),w,b
  7443  01197E  0100               	movlb	0	; () banked
  7444  011980  6FE5               	movwf	(?_get_quot_rem+3)& (0+255),b
  7445  011982  0012               	return	
  7446  011984                     __end_of_get_quot_rem:
  7447                           	opt stack 0
  7448                           tblptru	equ	0xFF8
  7449                           tblptrh	equ	0xFF7
  7450                           tblptrl	equ	0xFF6
  7451                           tablat	equ	0xFF5
  7452                           prodh	equ	0xFF4
  7453                           prodl	equ	0xFF3
  7454                           intcon	equ	0xFF2
  7455                           intcon2	equ	0xFF1
  7456                           postinc0	equ	0xFEE
  7457                           wreg	equ	0xFE8
  7458                           indf1	equ	0xFE7
  7459                           postinc1	equ	0xFE6
  7460                           postdec1	equ	0xFE5
  7461                           fsr1h	equ	0xFE2
  7462                           fsr1l	equ	0xFE1
  7463                           indf2	equ	0xFDF
  7464                           postinc2	equ	0xFDE
  7465                           postdec2	equ	0xFDD
  7466                           plusw2	equ	0xFDB
  7467                           fsr2h	equ	0xFDA
  7468                           fsr2l	equ	0xFD9
  7469                           status	equ	0xFD8
  7470                           
  7471 ;; *************** function ___lmul *****************
  7472 ;; Defined at:
  7473 ;;		line 15 in file "C:\Program Files (x86)\Microchip\xc8\v1.35\sources\common\Umul32.c"
  7474 ;; Parameters:    Size  Location     Type
  7475 ;;  multiplier      4   13[BANK0 ] unsigned long 
  7476 ;;  multiplicand    4   17[BANK0 ] unsigned long 
  7477 ;; Auto vars:     Size  Location     Type
  7478 ;;  product         4   21[BANK0 ] unsigned long 
  7479 ;; Return value:  Size  Location     Type
  7480 ;;                  4   13[BANK0 ] unsigned long 
  7481 ;; Registers used:
  7482 ;;		wreg, status,2, status,0
  7483 ;; Tracked objects:
  7484 ;;		On entry : 0/0
  7485 ;;		On exit  : 0/0
  7486 ;;		Unchanged: 0/0
  7487 ;; Data sizes:     COMRAM   BANK0   BANK1   BANK2   BANK3   BANK4   BANK5   BANK6   BANK7   BANK8   BANK9  BANK10  BANK1
      +1  BANK12  BANK13  BANK14
  7488 ;;      Params:         0       8       0       0       0       0       0       0       0       0       0       0       
      +0       0       0       0
  7489 ;;      Locals:         0       4       0       0       0       0       0       0       0       0       0       0       
      +0       0       0       0
  7490 ;;      Temps:          0       0       0       0       0       0       0       0       0       0       0       0       
      +0       0       0       0
  7491 ;;      Totals:         0      12       0       0       0       0       0       0       0       0       0       0       
      +0       0       0       0
  7492 ;;Total ram usage:       12 bytes
  7493 ;; Hardware stack levels used:    1
  7494 ;; Hardware stack levels required when called:   11
  7495 ;; This function calls:
  7496 ;;		Nothing
  7497 ;; This function is called by:
  7498 ;;		_get_quot_rem
  7499 ;;		_caltime_to_epoch
  7500 ;;		_RTCC_adjust_time_inc
  7501 ;;		_RTCC_adjust_time_dec
  7502 ;; This function uses a non-reentrant model
  7503 ;;
  7504                           
  7505                           	psect	text38
  7506  01273E                     __ptext38:
  7507                           	opt stack 0
  7508  01273E                     ___lmul:
  7509                           	opt stack 16
  7510                           
  7511                           ; BSR set to: 0
  7512                           ;incstack = 0
  7513  01273E  0E00               	movlw	0
  7514  012740  0100               	movlb	0	; () banked
  7515  012742  6FDE               	movwf	___lmul@product& (0+255),b
  7516  012744  0E00               	movlw	0
  7517  012746  6FDF               	movwf	(___lmul@product+1)& (0+255),b
  7518  012748  0E00               	movlw	0
  7519  01274A  6FE0               	movwf	(___lmul@product+2)& (0+255),b
  7520  01274C  0E00               	movlw	0
  7521  01274E  6FE1               	movwf	(___lmul@product+3)& (0+255),b
  7522  012750                     l7442:
  7523                           
  7524                           ; BSR set to: 0
  7525  012750  0100               	movlb	0	; () banked
  7526  012752  A1D6               	btfss	___lmul@multiplier& (0+255),0,b
  7527  012754  D010               	goto	l7446
  7528                           
  7529                           ; BSR set to: 0
  7530  012756  0100               	movlb	0	; () banked
  7531  012758  51DA               	movf	___lmul@multiplicand& (0+255),w,b
  7532  01275A  0100               	movlb	0	; () banked
  7533  01275C  27DE               	addwf	___lmul@product& (0+255),f,b
  7534  01275E  0100               	movlb	0	; () banked
  7535  012760  51DB               	movf	(___lmul@multiplicand+1)& (0+255),w,b
  7536  012762  0100               	movlb	0	; () banked
  7537  012764  23DF               	addwfc	(___lmul@product+1)& (0+255),f,b
  7538  012766  0100               	movlb	0	; () banked
  7539  012768  51DC               	movf	(___lmul@multiplicand+2)& (0+255),w,b
  7540  01276A  0100               	movlb	0	; () banked
  7541  01276C  23E0               	addwfc	(___lmul@product+2)& (0+255),f,b
  7542  01276E  0100               	movlb	0	; () banked
  7543  012770  51DD               	movf	(___lmul@multiplicand+3)& (0+255),w,b
  7544  012772  0100               	movlb	0	; () banked
  7545  012774  23E1               	addwfc	(___lmul@product+3)& (0+255),f,b
  7546  012776                     l7446:
  7547                           
  7548                           ; BSR set to: 0
  7549  012776  0100               	movlb	0	; () banked
  7550  012778  90D8               	bcf	status,0,c
  7551  01277A  37DA               	rlcf	___lmul@multiplicand& (0+255),f,b
  7552  01277C  37DB               	rlcf	(___lmul@multiplicand+1)& (0+255),f,b
  7553  01277E  37DC               	rlcf	(___lmul@multiplicand+2)& (0+255),f,b
  7554  012780  37DD               	rlcf	(___lmul@multiplicand+3)& (0+255),f,b
  7555                           
  7556                           ; BSR set to: 0
  7557  012782  0100               	movlb	0	; () banked
  7558  012784  90D8               	bcf	status,0,c
  7559  012786  33D9               	rrcf	(___lmul@multiplier+3)& (0+255),f,b
  7560  012788  33D8               	rrcf	(___lmul@multiplier+2)& (0+255),f,b
  7561  01278A  33D7               	rrcf	(___lmul@multiplier+1)& (0+255),f,b
  7562  01278C  33D6               	rrcf	___lmul@multiplier& (0+255),f,b
  7563  01278E  0100               	movlb	0	; () banked
  7564  012790  51D6               	movf	___lmul@multiplier& (0+255),w,b
  7565  012792  0100               	movlb	0	; () banked
  7566  012794  11D7               	iorwf	(___lmul@multiplier+1)& (0+255),w,b
  7567  012796  0100               	movlb	0	; () banked
  7568  012798  11D8               	iorwf	(___lmul@multiplier+2)& (0+255),w,b
  7569  01279A  0100               	movlb	0	; () banked
  7570  01279C  11D9               	iorwf	(___lmul@multiplier+3)& (0+255),w,b
  7571  01279E  A4D8               	btfss	status,2,c
  7572  0127A0  D7D7               	goto	l7442
  7573                           
  7574                           ; BSR set to: 0
  7575  0127A2  C0DE  F0D6         	movff	___lmul@product,?___lmul
  7576  0127A6  C0DF  F0D7         	movff	___lmul@product+1,?___lmul+1
  7577  0127AA  C0E0  F0D8         	movff	___lmul@product+2,?___lmul+2
  7578  0127AE  C0E1  F0D9         	movff	___lmul@product+3,?___lmul+3
  7579                           
  7580                           ; BSR set to: 0
  7581  0127B2  0012               	return		;funcret
  7582  0127B4                     __end_of___lmul:
  7583                           	opt stack 0
  7584                           tblptru	equ	0xFF8
  7585                           tblptrh	equ	0xFF7
  7586                           tblptrl	equ	0xFF6
  7587                           tablat	equ	0xFF5
  7588                           prodh	equ	0xFF4
  7589                           prodl	equ	0xFF3
  7590                           intcon	equ	0xFF2
  7591                           intcon2	equ	0xFF1
  7592                           postinc0	equ	0xFEE
  7593                           wreg	equ	0xFE8
  7594                           indf1	equ	0xFE7
  7595                           postinc1	equ	0xFE6
  7596                           postdec1	equ	0xFE5
  7597                           fsr1h	equ	0xFE2
  7598                           fsr1l	equ	0xFE1
  7599                           indf2	equ	0xFDF
  7600                           postinc2	equ	0xFDE
  7601                           postdec2	equ	0xFDD
  7602                           plusw2	equ	0xFDB
  7603                           fsr2h	equ	0xFDA
  7604                           fsr2l	equ	0xFD9
  7605                           status	equ	0xFD8
  7606                           
  7607 ;; *************** function ___lldiv *****************
  7608 ;; Defined at:
  7609 ;;		line 8 in file "C:\Program Files (x86)\Microchip\xc8\v1.35\sources\common\lldiv.c"
  7610 ;; Parameters:    Size  Location     Type
  7611 ;;  dividend        4    0[BANK0 ] unsigned long 
  7612 ;;  divisor         4    4[BANK0 ] unsigned long 
  7613 ;; Auto vars:     Size  Location     Type
  7614 ;;  quotient        4    8[BANK0 ] unsigned long 
  7615 ;;  counter         1   12[BANK0 ] unsigned char 
  7616 ;; Return value:  Size  Location     Type
  7617 ;;                  4    0[BANK0 ] unsigned long 
  7618 ;; Registers used:
  7619 ;;		wreg, status,2, status,0
  7620 ;; Tracked objects:
  7621 ;;		On entry : 0/0
  7622 ;;		On exit  : 0/0
  7623 ;;		Unchanged: 0/0
  7624 ;; Data sizes:     COMRAM   BANK0   BANK1   BANK2   BANK3   BANK4   BANK5   BANK6   BANK7   BANK8   BANK9  BANK10  BANK1
      +1  BANK12  BANK13  BANK14
  7625 ;;      Params:         0       8       0       0       0       0       0       0       0       0       0       0       
      +0       0       0       0
  7626 ;;      Locals:         0       5       0       0       0       0       0       0       0       0       0       0       
      +0       0       0       0
  7627 ;;      Temps:          0       0       0       0       0       0       0       0       0       0       0       0       
      +0       0       0       0
  7628 ;;      Totals:         0      13       0       0       0       0       0       0       0       0       0       0       
      +0       0       0       0
  7629 ;;Total ram usage:       13 bytes
  7630 ;; Hardware stack levels used:    1
  7631 ;; Hardware stack levels required when called:   11
  7632 ;; This function calls:
  7633 ;;		Nothing
  7634 ;; This function is called by:
  7635 ;;		_get_quot_rem
  7636 ;;		_CTMU_read
  7637 ;; This function uses a non-reentrant model
  7638 ;;
  7639                           
  7640                           	psect	text39
  7641  011E2C                     __ptext39:
  7642                           	opt stack 0
  7643  011E2C                     ___lldiv:
  7644                           	opt stack 16
  7645                           
  7646                           ; BSR set to: 0
  7647                           ;incstack = 0
  7648  011E2C  0E00               	movlw	0
  7649  011E2E  0100               	movlb	0	; () banked
  7650  011E30  6FD1               	movwf	___lldiv@quotient& (0+255),b
  7651  011E32  0E00               	movlw	0
  7652  011E34  6FD2               	movwf	(___lldiv@quotient+1)& (0+255),b
  7653  011E36  0E00               	movlw	0
  7654  011E38  6FD3               	movwf	(___lldiv@quotient+2)& (0+255),b
  7655  011E3A  0E00               	movlw	0
  7656  011E3C  6FD4               	movwf	(___lldiv@quotient+3)& (0+255),b
  7657                           
  7658                           ; BSR set to: 0
  7659  011E3E  0100               	movlb	0	; () banked
  7660  011E40  51CD               	movf	___lldiv@divisor& (0+255),w,b
  7661  011E42  0100               	movlb	0	; () banked
  7662  011E44  11CE               	iorwf	(___lldiv@divisor+1)& (0+255),w,b
  7663  011E46  0100               	movlb	0	; () banked
  7664  011E48  11CF               	iorwf	(___lldiv@divisor+2)& (0+255),w,b
  7665  011E4A  0100               	movlb	0	; () banked
  7666  011E4C  11D0               	iorwf	(___lldiv@divisor+3)& (0+255),w,b
  7667  011E4E  B4D8               	btfsc	status,2,c
  7668  011E50  D042               	goto	l1773
  7669                           
  7670                           ; BSR set to: 0
  7671  011E52  0E01               	movlw	1
  7672  011E54  0100               	movlb	0	; () banked
  7673  011E56  6FD5               	movwf	___lldiv@counter& (0+255),b
  7674  011E58  D008               	goto	l7502
  7675  011E5A                     l7500:
  7676                           
  7677                           ; BSR set to: 0
  7678  011E5A  0100               	movlb	0	; () banked
  7679  011E5C  90D8               	bcf	status,0,c
  7680  011E5E  37CD               	rlcf	___lldiv@divisor& (0+255),f,b
  7681  011E60  37CE               	rlcf	(___lldiv@divisor+1)& (0+255),f,b
  7682  011E62  37CF               	rlcf	(___lldiv@divisor+2)& (0+255),f,b
  7683  011E64  37D0               	rlcf	(___lldiv@divisor+3)& (0+255),f,b
  7684  011E66  0100               	movlb	0	; () banked
  7685  011E68  2BD5               	incf	___lldiv@counter& (0+255),f,b
  7686  011E6A                     l7502:
  7687                           
  7688                           ; BSR set to: 0
  7689  011E6A  0100               	movlb	0	; () banked
  7690  011E6C  AFD0               	btfss	(___lldiv@divisor+3)& (0+255),7,b
  7691  011E6E  D7F5               	goto	l7500
  7692  011E70                     l7504:
  7693                           
  7694                           ; BSR set to: 0
  7695  011E70  0100               	movlb	0	; () banked
  7696  011E72  90D8               	bcf	status,0,c
  7697  011E74  37D1               	rlcf	___lldiv@quotient& (0+255),f,b
  7698  011E76  37D2               	rlcf	(___lldiv@quotient+1)& (0+255),f,b
  7699  011E78  37D3               	rlcf	(___lldiv@quotient+2)& (0+255),f,b
  7700  011E7A  37D4               	rlcf	(___lldiv@quotient+3)& (0+255),f,b
  7701                           
  7702                           ; BSR set to: 0
  7703  011E7C  0100               	movlb	0	; () banked
  7704  011E7E  51CD               	movf	___lldiv@divisor& (0+255),w,b
  7705  011E80  0100               	movlb	0	; () banked
  7706  011E82  5DC9               	subwf	___lldiv@dividend& (0+255),w,b
  7707  011E84  0100               	movlb	0	; () banked
  7708  011E86  51CE               	movf	(___lldiv@divisor+1)& (0+255),w,b
  7709  011E88  0100               	movlb	0	; () banked
  7710  011E8A  59CA               	subwfb	(___lldiv@dividend+1)& (0+255),w,b
  7711  011E8C  0100               	movlb	0	; () banked
  7712  011E8E  51CF               	movf	(___lldiv@divisor+2)& (0+255),w,b
  7713  011E90  0100               	movlb	0	; () banked
  7714  011E92  59CB               	subwfb	(___lldiv@dividend+2)& (0+255),w,b
  7715  011E94  0100               	movlb	0	; () banked
  7716  011E96  51D0               	movf	(___lldiv@divisor+3)& (0+255),w,b
  7717  011E98  0100               	movlb	0	; () banked
  7718  011E9A  59CC               	subwfb	(___lldiv@dividend+3)& (0+255),w,b
  7719  011E9C  A0D8               	btfss	status,0,c
  7720  011E9E  D012               	goto	l7512
  7721                           
  7722                           ; BSR set to: 0
  7723  011EA0  0100               	movlb	0	; () banked
  7724  011EA2  51CD               	movf	___lldiv@divisor& (0+255),w,b
  7725  011EA4  0100               	movlb	0	; () banked
  7726  011EA6  5FC9               	subwf	___lldiv@dividend& (0+255),f,b
  7727  011EA8  0100               	movlb	0	; () banked
  7728  011EAA  51CE               	movf	(___lldiv@divisor+1)& (0+255),w,b
  7729  011EAC  0100               	movlb	0	; () banked
  7730  011EAE  5BCA               	subwfb	(___lldiv@dividend+1)& (0+255),f,b
  7731  011EB0  0100               	movlb	0	; () banked
  7732  011EB2  51CF               	movf	(___lldiv@divisor+2)& (0+255),w,b
  7733  011EB4  0100               	movlb	0	; () banked
  7734  011EB6  5BCB               	subwfb	(___lldiv@dividend+2)& (0+255),f,b
  7735  011EB8  0100               	movlb	0	; () banked
  7736  011EBA  51D0               	movf	(___lldiv@divisor+3)& (0+255),w,b
  7737  011EBC  0100               	movlb	0	; () banked
  7738  011EBE  5BCC               	subwfb	(___lldiv@dividend+3)& (0+255),f,b
  7739                           
  7740                           ; BSR set to: 0
  7741  011EC0  0100               	movlb	0	; () banked
  7742  011EC2  81D1               	bsf	___lldiv@quotient& (0+255),0,b
  7743  011EC4                     l7512:
  7744                           
  7745                           ; BSR set to: 0
  7746  011EC4  0100               	movlb	0	; () banked
  7747  011EC6  90D8               	bcf	status,0,c
  7748  011EC8  33D0               	rrcf	(___lldiv@divisor+3)& (0+255),f,b
  7749  011ECA  33CF               	rrcf	(___lldiv@divisor+2)& (0+255),f,b
  7750  011ECC  33CE               	rrcf	(___lldiv@divisor+1)& (0+255),f,b
  7751  011ECE  33CD               	rrcf	___lldiv@divisor& (0+255),f,b
  7752                           
  7753                           ; BSR set to: 0
  7754  011ED0  0100               	movlb	0	; () banked
  7755  011ED2  2FD5               	decfsz	___lldiv@counter& (0+255),f,b
  7756  011ED4  D7CD               	goto	l7504
  7757  011ED6                     l1773:
  7758                           
  7759                           ; BSR set to: 0
  7760  011ED6  C0D1  F0C9         	movff	___lldiv@quotient,?___lldiv
  7761  011EDA  C0D2  F0CA         	movff	___lldiv@quotient+1,?___lldiv+1
  7762  011EDE  C0D3  F0CB         	movff	___lldiv@quotient+2,?___lldiv+2
  7763  011EE2  C0D4  F0CC         	movff	___lldiv@quotient+3,?___lldiv+3
  7764                           
  7765                           ; BSR set to: 0
  7766  011EE6  0012               	return		;funcret
  7767  011EE8                     __end_of___lldiv:
  7768                           	opt stack 0
  7769                           tblptru	equ	0xFF8
  7770                           tblptrh	equ	0xFF7
  7771                           tblptrl	equ	0xFF6
  7772                           tablat	equ	0xFF5
  7773                           prodh	equ	0xFF4
  7774                           prodl	equ	0xFF3
  7775                           intcon	equ	0xFF2
  7776                           intcon2	equ	0xFF1
  7777                           postinc0	equ	0xFEE
  7778                           wreg	equ	0xFE8
  7779                           indf1	equ	0xFE7
  7780                           postinc1	equ	0xFE6
  7781                           postdec1	equ	0xFE5
  7782                           fsr1h	equ	0xFE2
  7783                           fsr1l	equ	0xFE1
  7784                           indf2	equ	0xFDF
  7785                           postinc2	equ	0xFDE
  7786                           postdec2	equ	0xFDD
  7787                           plusw2	equ	0xFDB
  7788                           fsr2h	equ	0xFDA
  7789                           fsr2l	equ	0xFD9
  7790                           status	equ	0xFD8
  7791                           
  7792 ;; *************** function _caltime_to_RTCC *****************
  7793 ;; Defined at:
  7794 ;;		line 99 in file "../../../My_library/My_RTCC.c"
  7795 ;; Parameters:    Size  Location     Type
  7796 ;;  tm              2    9[BANK0 ] PTR struct .
  7797 ;;		 -> now(14), 
  7798 ;; Auto vars:     Size  Location     Type
  7799 ;;		None
  7800 ;; Return value:  Size  Location     Type
  7801 ;;		None               void
  7802 ;; Registers used:
  7803 ;;		wreg, fsr2l, fsr2h, status,2, status,0, prodl, prodh, cstack
  7804 ;; Tracked objects:
  7805 ;;		On entry : 0/0
  7806 ;;		On exit  : 0/0
  7807 ;;		Unchanged: 0/0
  7808 ;; Data sizes:     COMRAM   BANK0   BANK1   BANK2   BANK3   BANK4   BANK5   BANK6   BANK7   BANK8   BANK9  BANK10  BANK1
      +1  BANK12  BANK13  BANK14
  7809 ;;      Params:         0       2       0       0       0       0       0       0       0       0       0       0       
      +0       0       0       0
  7810 ;;      Locals:         0       0       0       0       0       0       0       0       0       0       0       0       
      +0       0       0       0
  7811 ;;      Temps:          0       0       0       0       0       0       0       0       0       0       0       0       
      +0       0       0       0
  7812 ;;      Totals:         0       2       0       0       0       0       0       0       0       0       0       0       
      +0       0       0       0
  7813 ;;Total ram usage:        2 bytes
  7814 ;; Hardware stack levels used:    1
  7815 ;; Hardware stack levels required when called:   13
  7816 ;; This function calls:
  7817 ;;		_d_to_x
  7818 ;; This function is called by:
  7819 ;;		_RTCC_from_epoch
  7820 ;;		_RTCC_from_caltime
  7821 ;; This function uses a non-reentrant model
  7822 ;;
  7823                           
  7824                           	psect	text40
  7825  011706                     __ptext40:
  7826                           	opt stack 0
  7827  011706                     _caltime_to_RTCC:
  7828                           	opt stack 16
  7829  011706                     l435:
  7830  011706  010F               	movlb	15	; () banked
  7831  011708  B93F               	btfsc	63,4,b	;volatile
  7832  01170A  D7FD               	goto	l435
  7833                           
  7834                           ; BSR set to: 15
  7835                           ;My_RTCC.c: 101: RTCCFGbits.RTCPTR0 = 1;
  7836  01170C  010F               	movlb	15	; () banked
  7837  01170E  813F               	bsf	63,0,b	;volatile
  7838                           
  7839                           ;My_RTCC.c: 102: RTCCFGbits.RTCPTR1 = 1;
  7840  011710  010F               	movlb	15	; () banked
  7841  011712  833F               	bsf	63,1,b	;volatile
  7842                           
  7843                           ; BSR set to: 15
  7844                           ;My_RTCC.c: 103: RTCVALL = d_to_x(tm->YY);
  7845  011714  0100               	movlb	0	; () banked
  7846  011716  EE20 F00A          	lfsr	2,10
  7847  01171A  51D2               	movf	caltime_to_RTCC@tm& (0+255),w,b
  7848  01171C  26D9               	addwf	fsr2l,f,c
  7849  01171E  51D3               	movf	(caltime_to_RTCC@tm+1)& (0+255),w,b
  7850  011720  22DA               	addwfc	fsr2h,f,c
  7851  011722  50DF               	movf	indf2,w,c
  7852  011724  ECE6  F096         	call	_d_to_x
  7853  011728  010F               	movlb	15	; () banked
  7854  01172A  6F3A               	movwf	58,b	;volatile
  7855                           
  7856                           ; BSR set to: 15
  7857                           ;My_RTCC.c: 104: RTCVALH = 0x00;
  7858  01172C  0E00               	movlw	0
  7859  01172E  010F               	movlb	15	; () banked
  7860  011730  6F3B               	movwf	59,b	;volatile
  7861                           
  7862                           ; BSR set to: 15
  7863                           ;My_RTCC.c: 105: RTCCFGbits.RTCPTR0 = 0;
  7864  011732  010F               	movlb	15	; () banked
  7865  011734  913F               	bcf	63,0,b	;volatile
  7866                           
  7867                           ; BSR set to: 15
  7868                           ;My_RTCC.c: 106: RTCCFGbits.RTCPTR1 = 1;
  7869  011736  010F               	movlb	15	; () banked
  7870  011738  833F               	bsf	63,1,b	;volatile
  7871                           
  7872                           ; BSR set to: 15
  7873                           ;My_RTCC.c: 107: RTCVALL = d_to_x(tm->DD);
  7874  01173A  0100               	movlb	0	; () banked
  7875  01173C  EE20 F008          	lfsr	2,8
  7876  011740  51D2               	movf	caltime_to_RTCC@tm& (0+255),w,b
  7877  011742  26D9               	addwf	fsr2l,f,c
  7878  011744  51D3               	movf	(caltime_to_RTCC@tm+1)& (0+255),w,b
  7879  011746  22DA               	addwfc	fsr2h,f,c
  7880  011748  50DF               	movf	indf2,w,c
  7881  01174A  ECE6  F096         	call	_d_to_x
  7882  01174E  010F               	movlb	15	; () banked
  7883  011750  6F3A               	movwf	58,b	;volatile
  7884                           
  7885                           ; BSR set to: 15
  7886                           ;My_RTCC.c: 108: RTCVALH = d_to_x(tm->MM);
  7887  011752  0100               	movlb	0	; () banked
  7888  011754  EE20 F009          	lfsr	2,9
  7889  011758  51D2               	movf	caltime_to_RTCC@tm& (0+255),w,b
  7890  01175A  26D9               	addwf	fsr2l,f,c
  7891  01175C  51D3               	movf	(caltime_to_RTCC@tm+1)& (0+255),w,b
  7892  01175E  22DA               	addwfc	fsr2h,f,c
  7893  011760  50DF               	movf	indf2,w,c
  7894  011762  ECE6  F096         	call	_d_to_x
  7895  011766  010F               	movlb	15	; () banked
  7896  011768  6F3B               	movwf	59,b	;volatile
  7897                           
  7898                           ; BSR set to: 15
  7899                           ;My_RTCC.c: 109: RTCCFGbits.RTCPTR0 = 1;
  7900  01176A  010F               	movlb	15	; () banked
  7901  01176C  813F               	bsf	63,0,b	;volatile
  7902                           
  7903                           ; BSR set to: 15
  7904                           ;My_RTCC.c: 110: RTCCFGbits.RTCPTR1 = 0;
  7905  01176E  010F               	movlb	15	; () banked
  7906  011770  933F               	bcf	63,1,b	;volatile
  7907                           
  7908                           ; BSR set to: 15
  7909                           ;My_RTCC.c: 111: RTCVALL = d_to_x(tm->hh);
  7910  011772  0100               	movlb	0	; () banked
  7911  011774  EE20 F006          	lfsr	2,6
  7912  011778  51D2               	movf	caltime_to_RTCC@tm& (0+255),w,b
  7913  01177A  26D9               	addwf	fsr2l,f,c
  7914  01177C  51D3               	movf	(caltime_to_RTCC@tm+1)& (0+255),w,b
  7915  01177E  22DA               	addwfc	fsr2h,f,c
  7916  011780  50DF               	movf	indf2,w,c
  7917  011782  ECE6  F096         	call	_d_to_x
  7918  011786  010F               	movlb	15	; () banked
  7919  011788  6F3A               	movwf	58,b	;volatile
  7920                           
  7921                           ; BSR set to: 15
  7922                           ;My_RTCC.c: 112: RTCVALH = d_to_x(tm->EE);
  7923  01178A  0100               	movlb	0	; () banked
  7924  01178C  EE20 F007          	lfsr	2,7
  7925  011790  51D2               	movf	caltime_to_RTCC@tm& (0+255),w,b
  7926  011792  26D9               	addwf	fsr2l,f,c
  7927  011794  51D3               	movf	(caltime_to_RTCC@tm+1)& (0+255),w,b
  7928  011796  22DA               	addwfc	fsr2h,f,c
  7929  011798  50DF               	movf	indf2,w,c
  7930  01179A  ECE6  F096         	call	_d_to_x
  7931  01179E  010F               	movlb	15	; () banked
  7932  0117A0  6F3B               	movwf	59,b	;volatile
  7933                           
  7934                           ; BSR set to: 15
  7935                           ;My_RTCC.c: 113: RTCCFGbits.RTCPTR0 = 0;
  7936  0117A2  010F               	movlb	15	; () banked
  7937  0117A4  913F               	bcf	63,0,b	;volatile
  7938                           
  7939                           ; BSR set to: 15
  7940                           ;My_RTCC.c: 114: RTCCFGbits.RTCPTR1 = 0;
  7941  0117A6  010F               	movlb	15	; () banked
  7942  0117A8  933F               	bcf	63,1,b	;volatile
  7943                           
  7944                           ; BSR set to: 15
  7945                           ;My_RTCC.c: 115: RTCVALL = d_to_x(tm->ss);
  7946  0117AA  0100               	movlb	0	; () banked
  7947  0117AC  EE20 F004          	lfsr	2,4
  7948  0117B0  51D2               	movf	caltime_to_RTCC@tm& (0+255),w,b
  7949  0117B2  26D9               	addwf	fsr2l,f,c
  7950  0117B4  51D3               	movf	(caltime_to_RTCC@tm+1)& (0+255),w,b
  7951  0117B6  22DA               	addwfc	fsr2h,f,c
  7952  0117B8  50DF               	movf	indf2,w,c
  7953  0117BA  ECE6  F096         	call	_d_to_x
  7954  0117BE  010F               	movlb	15	; () banked
  7955  0117C0  6F3A               	movwf	58,b	;volatile
  7956                           
  7957                           ; BSR set to: 15
  7958                           ;My_RTCC.c: 116: RTCVALH = d_to_x(tm->mm);
  7959  0117C2  0100               	movlb	0	; () banked
  7960  0117C4  EE20 F005          	lfsr	2,5
  7961  0117C8  51D2               	movf	caltime_to_RTCC@tm& (0+255),w,b
  7962  0117CA  26D9               	addwf	fsr2l,f,c
  7963  0117CC  51D3               	movf	(caltime_to_RTCC@tm+1)& (0+255),w,b
  7964  0117CE  22DA               	addwfc	fsr2h,f,c
  7965  0117D0  50DF               	movf	indf2,w,c
  7966  0117D2  ECE6  F096         	call	_d_to_x
  7967  0117D6  010F               	movlb	15	; () banked
  7968  0117D8  6F3B               	movwf	59,b	;volatile
  7969                           
  7970                           ; BSR set to: 15
  7971  0117DA  0012               	return		;funcret
  7972  0117DC                     __end_of_caltime_to_RTCC:
  7973                           	opt stack 0
  7974                           tblptru	equ	0xFF8
  7975                           tblptrh	equ	0xFF7
  7976                           tblptrl	equ	0xFF6
  7977                           tablat	equ	0xFF5
  7978                           prodh	equ	0xFF4
  7979                           prodl	equ	0xFF3
  7980                           intcon	equ	0xFF2
  7981                           intcon2	equ	0xFF1
  7982                           postinc0	equ	0xFEE
  7983                           wreg	equ	0xFE8
  7984                           indf1	equ	0xFE7
  7985                           postinc1	equ	0xFE6
  7986                           postdec1	equ	0xFE5
  7987                           fsr1h	equ	0xFE2
  7988                           fsr1l	equ	0xFE1
  7989                           indf2	equ	0xFDF
  7990                           postinc2	equ	0xFDE
  7991                           postdec2	equ	0xFDD
  7992                           plusw2	equ	0xFDB
  7993                           fsr2h	equ	0xFDA
  7994                           fsr2l	equ	0xFD9
  7995                           status	equ	0xFD8
  7996                           
  7997 ;; *************** function _d_to_x *****************
  7998 ;; Defined at:
  7999 ;;		line 39 in file "../../../My_library/My_RTCC.c"
  8000 ;; Parameters:    Size  Location     Type
  8001 ;;  dec             1    wreg     unsigned char 
  8002 ;; Auto vars:     Size  Location     Type
  8003 ;;  dec             1    8[BANK0 ] unsigned char 
  8004 ;; Return value:  Size  Location     Type
  8005 ;;                  1    wreg      unsigned char 
  8006 ;; Registers used:
  8007 ;;		wreg, status,2, status,0, prodl, prodh, cstack
  8008 ;; Tracked objects:
  8009 ;;		On entry : 0/0
  8010 ;;		On exit  : 0/0
  8011 ;;		Unchanged: 0/0
  8012 ;; Data sizes:     COMRAM   BANK0   BANK1   BANK2   BANK3   BANK4   BANK5   BANK6   BANK7   BANK8   BANK9  BANK10  BANK1
      +1  BANK12  BANK13  BANK14
  8013 ;;      Params:         0       0       0       0       0       0       0       0       0       0       0       0       
      +0       0       0       0
  8014 ;;      Locals:         0       1       0       0       0       0       0       0       0       0       0       0       
      +0       0       0       0
  8015 ;;      Temps:          0       0       0       0       0       0       0       0       0       0       0       0       
      +0       0       0       0
  8016 ;;      Totals:         0       1       0       0       0       0       0       0       0       0       0       0       
      +0       0       0       0
  8017 ;;Total ram usage:        1 bytes
  8018 ;; Hardware stack levels used:    1
  8019 ;; Hardware stack levels required when called:   12
  8020 ;; This function calls:
  8021 ;;		___awdiv
  8022 ;; This function is called by:
  8023 ;;		_caltime_to_RTCC
  8024 ;; This function uses a non-reentrant model
  8025 ;;
  8026                           
  8027                           	psect	text41
  8028  012DCC                     __ptext41:
  8029                           	opt stack 0
  8030  012DCC                     _d_to_x:
  8031                           	opt stack 16
  8032                           
  8033                           ; BSR set to: 15
  8034                           ;incstack = 0
  8035                           ;d_to_x@dec stored from wreg
  8036  012DCC  0100               	movlb	0	; () banked
  8037  012DCE  6FD1               	movwf	d_to_x@dec& (0+255),b
  8038                           
  8039                           ;My_RTCC.c: 42: return dec / 10 * 6 + dec;
  8040  012DD0  C0D1  F0C9         	movff	d_to_x@dec,___awdiv@dividend
  8041  012DD4  0100               	movlb	0	; () banked
  8042  012DD6  6BCA               	clrf	(___awdiv@dividend+1)& (0+255),b
  8043  012DD8  0E00               	movlw	0
  8044  012DDA  0100               	movlb	0	; () banked
  8045  012DDC  6FCC               	movwf	(___awdiv@divisor+1)& (0+255),b
  8046  012DDE  0E0A               	movlw	10
  8047  012DE0  6FCB               	movwf	___awdiv@divisor& (0+255),b
  8048  012DE2  EC59  F08E         	call	___awdiv	;wreg free
  8049  012DE6  0100               	movlb	0	; () banked
  8050  012DE8  51C9               	movf	?___awdiv& (0+255),w,b
  8051  012DEA  0D06               	mullw	6
  8052  012DEC  50F3               	movf	prodl,w,c
  8053  012DEE  0100               	movlb	0	; () banked
  8054  012DF0  25D1               	addwf	d_to_x@dec& (0+255),w,b
  8055  012DF2  0012               	return	
  8056  012DF4                     __end_of_d_to_x:
  8057                           	opt stack 0
  8058                           tblptru	equ	0xFF8
  8059                           tblptrh	equ	0xFF7
  8060                           tblptrl	equ	0xFF6
  8061                           tablat	equ	0xFF5
  8062                           prodh	equ	0xFF4
  8063                           prodl	equ	0xFF3
  8064                           intcon	equ	0xFF2
  8065                           intcon2	equ	0xFF1
  8066                           postinc0	equ	0xFEE
  8067                           wreg	equ	0xFE8
  8068                           indf1	equ	0xFE7
  8069                           postinc1	equ	0xFE6
  8070                           postdec1	equ	0xFE5
  8071                           fsr1h	equ	0xFE2
  8072                           fsr1l	equ	0xFE1
  8073                           indf2	equ	0xFDF
  8074                           postinc2	equ	0xFDE
  8075                           postdec2	equ	0xFDD
  8076                           plusw2	equ	0xFDB
  8077                           fsr2h	equ	0xFDA
  8078                           fsr2l	equ	0xFD9
  8079                           status	equ	0xFD8
  8080                           
  8081 ;; *************** function ___awdiv *****************
  8082 ;; Defined at:
  8083 ;;		line 8 in file "C:\Program Files (x86)\Microchip\xc8\v1.35\sources\common\awdiv.c"
  8084 ;; Parameters:    Size  Location     Type
  8085 ;;  dividend        2    0[BANK0 ] int 
  8086 ;;  divisor         2    2[BANK0 ] int 
  8087 ;; Auto vars:     Size  Location     Type
  8088 ;;  quotient        2    6[BANK0 ] int 
  8089 ;;  sign            1    5[BANK0 ] unsigned char 
  8090 ;;  counter         1    4[BANK0 ] unsigned char 
  8091 ;; Return value:  Size  Location     Type
  8092 ;;                  2    0[BANK0 ] int 
  8093 ;; Registers used:
  8094 ;;		wreg, status,2, status,0
  8095 ;; Tracked objects:
  8096 ;;		On entry : 0/0
  8097 ;;		On exit  : 0/0
  8098 ;;		Unchanged: 0/0
  8099 ;; Data sizes:     COMRAM   BANK0   BANK1   BANK2   BANK3   BANK4   BANK5   BANK6   BANK7   BANK8   BANK9  BANK10  BANK1
      +1  BANK12  BANK13  BANK14
  8100 ;;      Params:         0       4       0       0       0       0       0       0       0       0       0       0       
      +0       0       0       0
  8101 ;;      Locals:         0       4       0       0       0       0       0       0       0       0       0       0       
      +0       0       0       0
  8102 ;;      Temps:          0       0       0       0       0       0       0       0       0       0       0       0       
      +0       0       0       0
  8103 ;;      Totals:         0       8       0       0       0       0       0       0       0       0       0       0       
      +0       0       0       0
  8104 ;;Total ram usage:        8 bytes
  8105 ;; Hardware stack levels used:    1
  8106 ;; Hardware stack levels required when called:   11
  8107 ;; This function calls:
  8108 ;;		Nothing
  8109 ;; This function is called by:
  8110 ;;		_d_to_x
  8111 ;; This function uses a non-reentrant model
  8112 ;;
  8113                           
  8114                           	psect	text42
  8115  011CB2                     __ptext42:
  8116                           	opt stack 0
  8117  011CB2                     ___awdiv:
  8118                           	opt stack 16
  8119                           
  8120                           ; BSR set to: 0
  8121                           ;incstack = 0
  8122  011CB2  0E00               	movlw	0
  8123  011CB4  0100               	movlb	0	; () banked
  8124  011CB6  6FCE               	movwf	___awdiv@sign& (0+255),b
  8125                           
  8126                           ; BSR set to: 0
  8127  011CB8  0100               	movlb	0	; () banked
  8128  011CBA  AFCC               	btfss	(___awdiv@divisor+1)& (0+255),7,b
  8129  011CBC  D008               	goto	l7458
  8130                           
  8131                           ; BSR set to: 0
  8132  011CBE  0100               	movlb	0	; () banked
  8133  011CC0  6DCB               	negf	___awdiv@divisor& (0+255),b
  8134  011CC2  1FCC               	comf	(___awdiv@divisor+1)& (0+255),f,b
  8135  011CC4  B0D8               	btfsc	status,0,c
  8136  011CC6  2BCC               	incf	(___awdiv@divisor+1)& (0+255),f,b
  8137                           
  8138                           ; BSR set to: 0
  8139  011CC8  0E01               	movlw	1
  8140  011CCA  0100               	movlb	0	; () banked
  8141  011CCC  6FCE               	movwf	___awdiv@sign& (0+255),b
  8142  011CCE                     l7458:
  8143                           
  8144                           ; BSR set to: 0
  8145  011CCE  0100               	movlb	0	; () banked
  8146  011CD0  AFCA               	btfss	(___awdiv@dividend+1)& (0+255),7,b
  8147  011CD2  D008               	goto	l7464
  8148                           
  8149                           ; BSR set to: 0
  8150  011CD4  0100               	movlb	0	; () banked
  8151  011CD6  6DC9               	negf	___awdiv@dividend& (0+255),b
  8152  011CD8  1FCA               	comf	(___awdiv@dividend+1)& (0+255),f,b
  8153  011CDA  B0D8               	btfsc	status,0,c
  8154  011CDC  2BCA               	incf	(___awdiv@dividend+1)& (0+255),f,b
  8155                           
  8156                           ; BSR set to: 0
  8157  011CDE  0E01               	movlw	1
  8158  011CE0  0100               	movlb	0	; () banked
  8159  011CE2  1BCE               	xorwf	___awdiv@sign& (0+255),f,b
  8160  011CE4                     l7464:
  8161                           
  8162                           ; BSR set to: 0
  8163  011CE4  0E00               	movlw	0
  8164  011CE6  0100               	movlb	0	; () banked
  8165  011CE8  6FD0               	movwf	(___awdiv@quotient+1)& (0+255),b
  8166  011CEA  0E00               	movlw	0
  8167  011CEC  6FCF               	movwf	___awdiv@quotient& (0+255),b
  8168                           
  8169                           ; BSR set to: 0
  8170  011CEE  0100               	movlb	0	; () banked
  8171  011CF0  51CB               	movf	___awdiv@divisor& (0+255),w,b
  8172  011CF2  0100               	movlb	0	; () banked
  8173  011CF4  11CC               	iorwf	(___awdiv@divisor+1)& (0+255),w,b
  8174  011CF6  B4D8               	btfsc	status,2,c
  8175  011CF8  D02C               	goto	l7486
  8176                           
  8177                           ; BSR set to: 0
  8178  011CFA  0E01               	movlw	1
  8179  011CFC  0100               	movlb	0	; () banked
  8180  011CFE  6FCD               	movwf	___awdiv@counter& (0+255),b
  8181  011D00  D006               	goto	l7472
  8182  011D02                     l7470:
  8183                           
  8184                           ; BSR set to: 0
  8185  011D02  0100               	movlb	0	; () banked
  8186  011D04  90D8               	bcf	status,0,c
  8187  011D06  37CB               	rlcf	___awdiv@divisor& (0+255),f,b
  8188  011D08  37CC               	rlcf	(___awdiv@divisor+1)& (0+255),f,b
  8189  011D0A  0100               	movlb	0	; () banked
  8190  011D0C  2BCD               	incf	___awdiv@counter& (0+255),f,b
  8191  011D0E                     l7472:
  8192                           
  8193                           ; BSR set to: 0
  8194  011D0E  0100               	movlb	0	; () banked
  8195  011D10  AFCC               	btfss	(___awdiv@divisor+1)& (0+255),7,b
  8196  011D12  D7F7               	goto	l7470
  8197  011D14                     l7474:
  8198                           
  8199                           ; BSR set to: 0
  8200  011D14  0100               	movlb	0	; () banked
  8201  011D16  90D8               	bcf	status,0,c
  8202  011D18  37CF               	rlcf	___awdiv@quotient& (0+255),f,b
  8203  011D1A  37D0               	rlcf	(___awdiv@quotient+1)& (0+255),f,b
  8204                           
  8205                           ; BSR set to: 0
  8206  011D1C  0100               	movlb	0	; () banked
  8207  011D1E  51CB               	movf	___awdiv@divisor& (0+255),w,b
  8208  011D20  0100               	movlb	0	; () banked
  8209  011D22  5DC9               	subwf	___awdiv@dividend& (0+255),w,b
  8210  011D24  0100               	movlb	0	; () banked
  8211  011D26  51CC               	movf	(___awdiv@divisor+1)& (0+255),w,b
  8212  011D28  0100               	movlb	0	; () banked
  8213  011D2A  59CA               	subwfb	(___awdiv@dividend+1)& (0+255),w,b
  8214  011D2C  A0D8               	btfss	status,0,c
  8215  011D2E  D00A               	goto	l7482
  8216                           
  8217                           ; BSR set to: 0
  8218  011D30  0100               	movlb	0	; () banked
  8219  011D32  51CB               	movf	___awdiv@divisor& (0+255),w,b
  8220  011D34  0100               	movlb	0	; () banked
  8221  011D36  5FC9               	subwf	___awdiv@dividend& (0+255),f,b
  8222  011D38  0100               	movlb	0	; () banked
  8223  011D3A  51CC               	movf	(___awdiv@divisor+1)& (0+255),w,b
  8224  011D3C  0100               	movlb	0	; () banked
  8225  011D3E  5BCA               	subwfb	(___awdiv@dividend+1)& (0+255),f,b
  8226                           
  8227                           ; BSR set to: 0
  8228  011D40  0100               	movlb	0	; () banked
  8229  011D42  81CF               	bsf	___awdiv@quotient& (0+255),0,b
  8230  011D44                     l7482:
  8231                           
  8232                           ; BSR set to: 0
  8233  011D44  0100               	movlb	0	; () banked
  8234  011D46  90D8               	bcf	status,0,c
  8235  011D48  33CC               	rrcf	(___awdiv@divisor+1)& (0+255),f,b
  8236  011D4A  33CB               	rrcf	___awdiv@divisor& (0+255),f,b
  8237                           
  8238                           ; BSR set to: 0
  8239  011D4C  0100               	movlb	0	; () banked
  8240  011D4E  2FCD               	decfsz	___awdiv@counter& (0+255),f,b
  8241  011D50  D7E1               	goto	l7474
  8242  011D52                     l7486:
  8243                           
  8244                           ; BSR set to: 0
  8245  011D52  0100               	movlb	0	; () banked
  8246  011D54  51CE               	movf	___awdiv@sign& (0+255),w,b
  8247  011D56  0100               	movlb	0	; () banked
  8248  011D58  B4D8               	btfsc	status,2,c
  8249  011D5A  D005               	goto	l7490
  8250                           
  8251                           ; BSR set to: 0
  8252  011D5C  0100               	movlb	0	; () banked
  8253  011D5E  6DCF               	negf	___awdiv@quotient& (0+255),b
  8254  011D60  1FD0               	comf	(___awdiv@quotient+1)& (0+255),f,b
  8255  011D62  B0D8               	btfsc	status,0,c
  8256  011D64  2BD0               	incf	(___awdiv@quotient+1)& (0+255),f,b
  8257  011D66                     l7490:
  8258                           
  8259                           ; BSR set to: 0
  8260  011D66  C0CF  F0C9         	movff	___awdiv@quotient,?___awdiv
  8261  011D6A  C0D0  F0CA         	movff	___awdiv@quotient+1,?___awdiv+1
  8262  011D6E  0012               	return	
  8263  011D70                     __end_of___awdiv:
  8264                           	opt stack 0
  8265                           tblptru	equ	0xFF8
  8266                           tblptrh	equ	0xFF7
  8267                           tblptrl	equ	0xFF6
  8268                           tablat	equ	0xFF5
  8269                           prodh	equ	0xFF4
  8270                           prodl	equ	0xFF3
  8271                           intcon	equ	0xFF2
  8272                           intcon2	equ	0xFF1
  8273                           postinc0	equ	0xFEE
  8274                           wreg	equ	0xFE8
  8275                           indf1	equ	0xFE7
  8276                           postinc1	equ	0xFE6
  8277                           postdec1	equ	0xFE5
  8278                           fsr1h	equ	0xFE2
  8279                           fsr1l	equ	0xFE1
  8280                           indf2	equ	0xFDF
  8281                           postinc2	equ	0xFDE
  8282                           postdec2	equ	0xFDD
  8283                           plusw2	equ	0xFDB
  8284                           fsr2h	equ	0xFDA
  8285                           fsr2l	equ	0xFD9
  8286                           status	equ	0xFD8
  8287                           
  8288 ;; *************** function _I2C_LCD_SetCursor *****************
  8289 ;; Defined at:
  8290 ;;		line 26 in file "../../../My_library/My_ST7032.c"
  8291 ;; Parameters:    Size  Location     Type
  8292 ;;  col             1    wreg     unsigned char 
  8293 ;;  row             1    6[BANK0 ] unsigned char 
  8294 ;; Auto vars:     Size  Location     Type
  8295 ;;  col             1    9[BANK0 ] unsigned char 
  8296 ;;  row_offsets     2    7[BANK0 ] unsigned char [2]
  8297 ;; Return value:  Size  Location     Type
  8298 ;;		None               void
  8299 ;; Registers used:
  8300 ;;		wreg, fsr2l, fsr2h, status,2, status,0, prodl, prodh, cstack
  8301 ;; Tracked objects:
  8302 ;;		On entry : 0/0
  8303 ;;		On exit  : 0/0
  8304 ;;		Unchanged: 0/0
  8305 ;; Data sizes:     COMRAM   BANK0   BANK1   BANK2   BANK3   BANK4   BANK5   BANK6   BANK7   BANK8   BANK9  BANK10  BANK1
      +1  BANK12  BANK13  BANK14
  8306 ;;      Params:         0       1       0       0       0       0       0       0       0       0       0       0       
      +0       0       0       0
  8307 ;;      Locals:         0       3       0       0       0       0       0       0       0       0       0       0       
      +0       0       0       0
  8308 ;;      Temps:          0       0       0       0       0       0       0       0       0       0       0       0       
      +0       0       0       0
  8309 ;;      Totals:         0       4       0       0       0       0       0       0       0       0       0       0       
      +0       0       0       0
  8310 ;;Total ram usage:        4 bytes
  8311 ;; Hardware stack levels used:    1
  8312 ;; Hardware stack levels required when called:   14
  8313 ;; This function calls:
  8314 ;;		_I2C_LCD_Command
  8315 ;; This function is called by:
  8316 ;;		_main
  8317 ;; This function uses a non-reentrant model
  8318 ;;
  8319                           
  8320                           	psect	text43
  8321  012D48                     __ptext43:
  8322                           	opt stack 0
  8323  012D48                     _I2C_LCD_SetCursor:
  8324                           	opt stack 16
  8325                           
  8326                           ; BSR set to: 0
  8327                           ;incstack = 0
  8328                           ;I2C_LCD_SetCursor@col stored from wreg
  8329  012D48  0100               	movlb	0	; () banked
  8330  012D4A  6FD2               	movwf	I2C_LCD_SetCursor@col& (0+255),b
  8331                           
  8332                           ;My_ST7032.c: 27: uint8_t row_offsets[] = {0x00, 0x40};
  8333  012D4C  C0FB  F0D0         	movff	I2C_LCD_SetCursor@F8630,I2C_LCD_SetCursor@row_offsets
  8334  012D50  C0FC  F0D1         	movff	I2C_LCD_SetCursor@F8630+1,I2C_LCD_SetCursor@row_offsets+1
  8335                           
  8336                           ;My_ST7032.c: 29: I2C_LCD_Command(0x80 | (col + row_offsets[row]));
  8337  012D54  0100               	movlb	0	; () banked
  8338  012D56  51CF               	movf	I2C_LCD_SetCursor@row& (0+255),w,b
  8339  012D58  0D01               	mullw	1
  8340  012D5A  0ED0               	movlw	low I2C_LCD_SetCursor@row_offsets
  8341  012D5C  24F3               	addwf	prodl,w,c
  8342  012D5E  6ED9               	movwf	fsr2l,c
  8343  012D60  0E00               	movlw	high I2C_LCD_SetCursor@row_offsets
  8344  012D62  20F4               	addwfc	prodh,w,c
  8345  012D64  6EDA               	movwf	fsr2h,c
  8346  012D66  50DF               	movf	indf2,w,c
  8347  012D68  0100               	movlb	0	; () banked
  8348  012D6A  25D2               	addwf	I2C_LCD_SetCursor@col& (0+255),w,b
  8349  012D6C  0980               	iorlw	128
  8350  012D6E  ECE1  F095         	call	_I2C_LCD_Command
  8351  012D72  0012               	return		;funcret
  8352  012D74                     __end_of_I2C_LCD_SetCursor:
  8353                           	opt stack 0
  8354                           tblptru	equ	0xFF8
  8355                           tblptrh	equ	0xFF7
  8356                           tblptrl	equ	0xFF6
  8357                           tablat	equ	0xFF5
  8358                           prodh	equ	0xFF4
  8359                           prodl	equ	0xFF3
  8360                           intcon	equ	0xFF2
  8361                           intcon2	equ	0xFF1
  8362                           postinc0	equ	0xFEE
  8363                           wreg	equ	0xFE8
  8364                           indf1	equ	0xFE7
  8365                           postinc1	equ	0xFE6
  8366                           postdec1	equ	0xFE5
  8367                           fsr1h	equ	0xFE2
  8368                           fsr1l	equ	0xFE1
  8369                           indf2	equ	0xFDF
  8370                           postinc2	equ	0xFDE
  8371                           postdec2	equ	0xFDD
  8372                           plusw2	equ	0xFDB
  8373                           fsr2h	equ	0xFDA
  8374                           fsr2l	equ	0xFD9
  8375                           status	equ	0xFD8
  8376                           
  8377 ;; *************** function _I2C_LCD_Command *****************
  8378 ;; Defined at:
  8379 ;;		line 8 in file "../../../My_library/My_ST7032.c"
  8380 ;; Parameters:    Size  Location     Type
  8381 ;;  c               1    wreg     unsigned char 
  8382 ;; Auto vars:     Size  Location     Type
  8383 ;;  c               1    4[BANK0 ] unsigned char 
  8384 ;;  ans             1    5[BANK0 ] unsigned char 
  8385 ;; Return value:  Size  Location     Type
  8386 ;;		None               void
  8387 ;; Registers used:
  8388 ;;		wreg, status,2, status,0, cstack
  8389 ;; Tracked objects:
  8390 ;;		On entry : 0/0
  8391 ;;		On exit  : 0/0
  8392 ;;		Unchanged: 0/0
  8393 ;; Data sizes:     COMRAM   BANK0   BANK1   BANK2   BANK3   BANK4   BANK5   BANK6   BANK7   BANK8   BANK9  BANK10  BANK1
      +1  BANK12  BANK13  BANK14
  8394 ;;      Params:         0       0       0       0       0       0       0       0       0       0       0       0       
      +0       0       0       0
  8395 ;;      Locals:         0       2       0       0       0       0       0       0       0       0       0       0       
      +0       0       0       0
  8396 ;;      Temps:          0       0       0       0       0       0       0       0       0       0       0       0       
      +0       0       0       0
  8397 ;;      Totals:         0       2       0       0       0       0       0       0       0       0       0       0       
      +0       0       0       0
  8398 ;;Total ram usage:        2 bytes
  8399 ;; Hardware stack levels used:    1
  8400 ;; Hardware stack levels required when called:   13
  8401 ;; This function calls:
  8402 ;;		_I2C_Send
  8403 ;;		_I2C_Start
  8404 ;;		_I2C_Stop
  8405 ;; This function is called by:
  8406 ;;		_I2C_LCD_Clear
  8407 ;;		_I2C_LCD_SetCursor
  8408 ;;		_I2C_LCD_init
  8409 ;; This function uses a non-reentrant model
  8410 ;;
  8411                           
  8412                           	psect	text44
  8413  012BC2                     __ptext44:
  8414                           	opt stack 0
  8415  012BC2                     _I2C_LCD_Command:
  8416                           	opt stack 15
  8417                           
  8418                           ;incstack = 0
  8419                           ;I2C_LCD_Command@c stored from wreg
  8420  012BC2  0100               	movlb	0	; () banked
  8421  012BC4  6FCD               	movwf	I2C_LCD_Command@c& (0+255),b
  8422                           
  8423                           ;My_ST7032.c: 9: uint8_t ans;
  8424                           ;My_ST7032.c: 11: ans = I2C_Start(0x3E, 0);
  8425  012BC6  0E00               	movlw	0
  8426  012BC8  0100               	movlb	0	; () banked
  8427  012BCA  6FCB               	movwf	I2C_Start@rw& (0+255),b
  8428  012BCC  0E3E               	movlw	62
  8429  012BCE  EC48  F096         	call	_I2C_Start
  8430  012BD2  0100               	movlb	0	; () banked
  8431  012BD4  6FCE               	movwf	I2C_LCD_Command@ans& (0+255),b
  8432                           
  8433                           ; BSR set to: 0
  8434                           ;My_ST7032.c: 12: if (ans == 0) {
  8435  012BD6  0100               	movlb	0	; () banked
  8436  012BD8  51CE               	movf	I2C_LCD_Command@ans& (0+255),w,b
  8437  012BDA  0100               	movlb	0	; () banked
  8438  012BDC  A4D8               	btfss	status,2,c
  8439  012BDE  D007               	goto	l591
  8440                           
  8441                           ; BSR set to: 0
  8442                           ;My_ST7032.c: 14: I2C_Send(0b10000000);
  8443  012BE0  0E80               	movlw	128
  8444  012BE2  EC8F  F097         	call	_I2C_Send
  8445                           
  8446                           ;My_ST7032.c: 15: I2C_Send(c);
  8447  012BE6  0100               	movlb	0	; () banked
  8448  012BE8  51CD               	movf	I2C_LCD_Command@c& (0+255),w,b
  8449  012BEA  EC8F  F097         	call	_I2C_Send
  8450  012BEE                     l591:
  8451                           
  8452                           ;My_ST7032.c: 16: }
  8453                           ;My_ST7032.c: 17: I2C_Stop();
  8454  012BEE  ECAB  F097         	call	_I2C_Stop	;wreg free
  8455                           
  8456                           ;My_ST7032.c: 18: _delay((unsigned long)((26)*(48000000/4000000.0)));
  8457  012BF2  0E68               	movlw	104
  8458  012BF4                     u8587:
  8459  012BF4  2EE8               	decfsz	wreg,f,c
  8460  012BF6  D7FE               	goto	u8587
  8461  012BF8  0012               	return		;funcret
  8462  012BFA                     __end_of_I2C_LCD_Command:
  8463                           	opt stack 0
  8464                           tblptru	equ	0xFF8
  8465                           tblptrh	equ	0xFF7
  8466                           tblptrl	equ	0xFF6
  8467                           tablat	equ	0xFF5
  8468                           prodh	equ	0xFF4
  8469                           prodl	equ	0xFF3
  8470                           intcon	equ	0xFF2
  8471                           intcon2	equ	0xFF1
  8472                           postinc0	equ	0xFEE
  8473                           wreg	equ	0xFE8
  8474                           indf1	equ	0xFE7
  8475                           postinc1	equ	0xFE6
  8476                           postdec1	equ	0xFE5
  8477                           fsr1h	equ	0xFE2
  8478                           fsr1l	equ	0xFE1
  8479                           indf2	equ	0xFDF
  8480                           postinc2	equ	0xFDE
  8481                           postdec2	equ	0xFDD
  8482                           plusw2	equ	0xFDB
  8483                           fsr2h	equ	0xFDA
  8484                           fsr2l	equ	0xFD9
  8485                           status	equ	0xFD8
  8486                           
  8487 ;; *************** function _I2C_LCD_Puts *****************
  8488 ;; Defined at:
  8489 ;;		line 45 in file "../../../My_library/My_ST7032.c"
  8490 ;; Parameters:    Size  Location     Type
  8491 ;;  s               2    4[BANK0 ] PTR const unsigned char 
  8492 ;;		 -> STR_2(9), STR_1(9), 
  8493 ;; Auto vars:     Size  Location     Type
  8494 ;;  ans             2    7[BANK0 ] int 
  8495 ;; Return value:  Size  Location     Type
  8496 ;;		None               void
  8497 ;; Registers used:
  8498 ;;		wreg, status,2, status,0, tblptrl, tblptrh, tblptru, cstack
  8499 ;; Tracked objects:
  8500 ;;		On entry : 0/0
  8501 ;;		On exit  : 0/0
  8502 ;;		Unchanged: 0/0
  8503 ;; Data sizes:     COMRAM   BANK0   BANK1   BANK2   BANK3   BANK4   BANK5   BANK6   BANK7   BANK8   BANK9  BANK10  BANK1
      +1  BANK12  BANK13  BANK14
  8504 ;;      Params:         0       2       0       0       0       0       0       0       0       0       0       0       
      +0       0       0       0
  8505 ;;      Locals:         0       2       0       0       0       0       0       0       0       0       0       0       
      +0       0       0       0
  8506 ;;      Temps:          0       1       0       0       0       0       0       0       0       0       0       0       
      +0       0       0       0
  8507 ;;      Totals:         0       5       0       0       0       0       0       0       0       0       0       0       
      +0       0       0       0
  8508 ;;Total ram usage:        5 bytes
  8509 ;; Hardware stack levels used:    1
  8510 ;; Hardware stack levels required when called:   13
  8511 ;; This function calls:
  8512 ;;		_I2C_Send
  8513 ;;		_I2C_Start
  8514 ;;		_I2C_Stop
  8515 ;; This function is called by:
  8516 ;;		_main
  8517 ;; This function uses a non-reentrant model
  8518 ;;
  8519                           
  8520                           	psect	text45
  8521  012890                     __ptext45:
  8522                           	opt stack 0
  8523  012890                     _I2C_LCD_Puts:
  8524                           	opt stack 17
  8525                           
  8526                           ;My_ST7032.c: 46: int ans;
  8527                           ;My_ST7032.c: 48: ans = I2C_Start(0x3E, 0);
  8528                           
  8529                           ;incstack = 0
  8530  012890  0E00               	movlw	0
  8531  012892  0100               	movlb	0	; () banked
  8532  012894  6FCB               	movwf	I2C_Start@rw& (0+255),b
  8533  012896  0E3E               	movlw	62
  8534  012898  EC48  F096         	call	_I2C_Start
  8535  01289C  0100               	movlb	0	; () banked
  8536  01289E  6FCF               	movwf	??_I2C_LCD_Puts& (0+255),b
  8537  0128A0  0100               	movlb	0	; () banked
  8538  0128A2  51CF               	movf	??_I2C_LCD_Puts& (0+255),w,b
  8539  0128A4  0100               	movlb	0	; () banked
  8540  0128A6  6FD0               	movwf	I2C_LCD_Puts@ans& (0+255),b
  8541  0128A8  6BD1               	clrf	(I2C_LCD_Puts@ans+1)& (0+255),b
  8542                           
  8543                           ; BSR set to: 0
  8544                           ;My_ST7032.c: 49: if (ans == 0) {
  8545  0128AA  0100               	movlb	0	; () banked
  8546  0128AC  51D0               	movf	I2C_LCD_Puts@ans& (0+255),w,b
  8547  0128AE  0100               	movlb	0	; () banked
  8548  0128B0  11D1               	iorwf	(I2C_LCD_Puts@ans+1)& (0+255),w,b
  8549  0128B2  A4D8               	btfss	status,2,c
  8550  0128B4  D01F               	goto	l8132
  8551                           
  8552                           ; BSR set to: 0
  8553                           ;My_ST7032.c: 50: I2C_Send(0b01000000);
  8554  0128B6  0E40               	movlw	64
  8555  0128B8  EC8F  F097         	call	_I2C_Send
  8556                           
  8557                           ;My_ST7032.c: 51: while (*s) {
  8558  0128BC  D010               	goto	l8130
  8559  0128BE                     l8124:
  8560                           
  8561                           ;My_ST7032.c: 52: I2C_Send(*s++);
  8562  0128BE  C0CD  FFF6         	movff	I2C_LCD_Puts@s,tblptrl
  8563  0128C2  C0CE  FFF7         	movff	I2C_LCD_Puts@s+1,tblptrh
  8564  0128C6                     	if	0	;tblptru may be non-zero
  8565  0128C6                     	endif
  8566  0128C6                     	if	1	;Program memory is > 0xFFFF, there are 3 active tblptr bytes
  8567  0128C6  0E00               	movlw	low (__mediumconst shr (0+16))
  8568  0128C8  6EF8               	movwf	tblptru,c
  8569  0128CA                     	endif
  8570  0128CA  0008               	tblrd		*
  8571  0128CC  50F5               	movf	tablat,w,c
  8572  0128CE  EC8F  F097         	call	_I2C_Send
  8573  0128D2  0100               	movlb	0	; () banked
  8574  0128D4  4BCD               	infsnz	I2C_LCD_Puts@s& (0+255),f,b
  8575  0128D6  2BCE               	incf	(I2C_LCD_Puts@s+1)& (0+255),f,b
  8576                           
  8577                           ; BSR set to: 0
  8578                           ;My_ST7032.c: 53: _delay((unsigned long)((26)*(48000000/4000000.0)));
  8579  0128D8  0E68               	movlw	104
  8580  0128DA                     u8597:
  8581  0128DA  2EE8               	decfsz	wreg,f,c
  8582  0128DC  D7FE               	goto	u8597
  8583  0128DE                     l8130:
  8584  0128DE  C0CD  FFF6         	movff	I2C_LCD_Puts@s,tblptrl
  8585  0128E2  C0CE  FFF7         	movff	I2C_LCD_Puts@s+1,tblptrh
  8586  0128E6                     	if	0	;tblptru may be non-zero
  8587  0128E6                     	endif
  8588  0128E6                     	if	1	;Program memory is > 0xFFFF, there are 3 active tblptr bytes
  8589  0128E6  0E00               	movlw	low (__mediumconst shr (0+16))
  8590  0128E8  6EF8               	movwf	tblptru,c
  8591  0128EA                     	endif
  8592  0128EA  0008               	tblrd		*
  8593  0128EC  50F5               	movf	tablat,w,c
  8594  0128EE  0900               	iorlw	0
  8595  0128F0  A4D8               	btfss	status,2,c
  8596  0128F2  D7E5               	goto	l8124
  8597  0128F4                     l8132:
  8598                           
  8599                           ;My_ST7032.c: 54: }
  8600                           ;My_ST7032.c: 55: }
  8601                           ;My_ST7032.c: 56: I2C_Stop();
  8602  0128F4  ECAB  F097         	call	_I2C_Stop	;wreg free
  8603  0128F8  0012               	return		;funcret
  8604  0128FA                     __end_of_I2C_LCD_Puts:
  8605                           	opt stack 0
  8606                           tblptru	equ	0xFF8
  8607                           tblptrh	equ	0xFF7
  8608                           tblptrl	equ	0xFF6
  8609                           tablat	equ	0xFF5
  8610                           prodh	equ	0xFF4
  8611                           prodl	equ	0xFF3
  8612                           intcon	equ	0xFF2
  8613                           intcon2	equ	0xFF1
  8614                           postinc0	equ	0xFEE
  8615                           wreg	equ	0xFE8
  8616                           indf1	equ	0xFE7
  8617                           postinc1	equ	0xFE6
  8618                           postdec1	equ	0xFE5
  8619                           fsr1h	equ	0xFE2
  8620                           fsr1l	equ	0xFE1
  8621                           indf2	equ	0xFDF
  8622                           postinc2	equ	0xFDE
  8623                           postdec2	equ	0xFDD
  8624                           plusw2	equ	0xFDB
  8625                           fsr2h	equ	0xFDA
  8626                           fsr2l	equ	0xFD9
  8627                           status	equ	0xFD8
  8628                           
  8629 ;; *************** function _I2C_Stop *****************
  8630 ;; Defined at:
  8631 ;;		line 45 in file "../../../My_library/My_I2C.c"
  8632 ;; Parameters:    Size  Location     Type
  8633 ;;		None
  8634 ;; Auto vars:     Size  Location     Type
  8635 ;;		None
  8636 ;; Return value:  Size  Location     Type
  8637 ;;		None               void
  8638 ;; Registers used:
  8639 ;;		wreg, status,2, status,0, cstack
  8640 ;; Tracked objects:
  8641 ;;		On entry : 0/0
  8642 ;;		On exit  : 0/0
  8643 ;;		Unchanged: 0/0
  8644 ;; Data sizes:     COMRAM   BANK0   BANK1   BANK2   BANK3   BANK4   BANK5   BANK6   BANK7   BANK8   BANK9  BANK10  BANK1
      +1  BANK12  BANK13  BANK14
  8645 ;;      Params:         0       0       0       0       0       0       0       0       0       0       0       0       
      +0       0       0       0
  8646 ;;      Locals:         0       0       0       0       0       0       0       0       0       0       0       0       
      +0       0       0       0
  8647 ;;      Temps:          0       0       0       0       0       0       0       0       0       0       0       0       
      +0       0       0       0
  8648 ;;      Totals:         0       0       0       0       0       0       0       0       0       0       0       0       
      +0       0       0       0
  8649 ;;Total ram usage:        0 bytes
  8650 ;; Hardware stack levels used:    1
  8651 ;; Hardware stack levels required when called:   12
  8652 ;; This function calls:
  8653 ;;		_I2C_IdleCheck
  8654 ;; This function is called by:
  8655 ;;		_I2C_LCD_Command
  8656 ;;		_I2C_LCD_Puts
  8657 ;;		_I2C_LCD_Putc
  8658 ;;		_I2C_LCD_CreateChar
  8659 ;; This function uses a non-reentrant model
  8660 ;;
  8661                           
  8662                           	psect	text46
  8663  012F56                     __ptext46:
  8664                           	opt stack 0
  8665  012F56                     _I2C_Stop:
  8666                           	opt stack 15
  8667                           
  8668                           ;My_I2C.c: 47: I2C_IdleCheck(0x5);
  8669                           
  8670                           ;incstack = 0
  8671  012F56  0E05               	movlw	5
  8672  012F58  EC3D  F097         	call	_I2C_IdleCheck
  8673                           
  8674                           ;My_I2C.c: 48: SSP1CON2bits.PEN = 1;
  8675  012F5C  84C5               	bsf	4037,2,c	;volatile
  8676  012F5E  0012               	return		;funcret
  8677  012F60                     __end_of_I2C_Stop:
  8678                           	opt stack 0
  8679                           tblptru	equ	0xFF8
  8680                           tblptrh	equ	0xFF7
  8681                           tblptrl	equ	0xFF6
  8682                           tablat	equ	0xFF5
  8683                           prodh	equ	0xFF4
  8684                           prodl	equ	0xFF3
  8685                           intcon	equ	0xFF2
  8686                           intcon2	equ	0xFF1
  8687                           postinc0	equ	0xFEE
  8688                           wreg	equ	0xFE8
  8689                           indf1	equ	0xFE7
  8690                           postinc1	equ	0xFE6
  8691                           postdec1	equ	0xFE5
  8692                           fsr1h	equ	0xFE2
  8693                           fsr1l	equ	0xFE1
  8694                           indf2	equ	0xFDF
  8695                           postinc2	equ	0xFDE
  8696                           postdec2	equ	0xFDD
  8697                           plusw2	equ	0xFDB
  8698                           fsr2h	equ	0xFDA
  8699                           fsr2l	equ	0xFD9
  8700                           status	equ	0xFD8
  8701                           
  8702 ;; *************** function _I2C_Start *****************
  8703 ;; Defined at:
  8704 ;;		line 21 in file "../../../My_library/My_I2C.c"
  8705 ;; Parameters:    Size  Location     Type
  8706 ;;  adrs            1    wreg     unsigned char 
  8707 ;;  rw              1    2[BANK0 ] unsigned char 
  8708 ;; Auto vars:     Size  Location     Type
  8709 ;;  adrs            1    3[BANK0 ] unsigned char 
  8710 ;; Return value:  Size  Location     Type
  8711 ;;                  1    wreg      unsigned char 
  8712 ;; Registers used:
  8713 ;;		wreg, status,2, status,0, cstack
  8714 ;; Tracked objects:
  8715 ;;		On entry : 0/0
  8716 ;;		On exit  : 0/0
  8717 ;;		Unchanged: 0/0
  8718 ;; Data sizes:     COMRAM   BANK0   BANK1   BANK2   BANK3   BANK4   BANK5   BANK6   BANK7   BANK8   BANK9  BANK10  BANK1
      +1  BANK12  BANK13  BANK14
  8719 ;;      Params:         0       1       0       0       0       0       0       0       0       0       0       0       
      +0       0       0       0
  8720 ;;      Locals:         0       1       0       0       0       0       0       0       0       0       0       0       
      +0       0       0       0
  8721 ;;      Temps:          0       0       0       0       0       0       0       0       0       0       0       0       
      +0       0       0       0
  8722 ;;      Totals:         0       2       0       0       0       0       0       0       0       0       0       0       
      +0       0       0       0
  8723 ;;Total ram usage:        2 bytes
  8724 ;; Hardware stack levels used:    1
  8725 ;; Hardware stack levels required when called:   12
  8726 ;; This function calls:
  8727 ;;		_I2C_IdleCheck
  8728 ;; This function is called by:
  8729 ;;		_I2C_LCD_Command
  8730 ;;		_I2C_LCD_Puts
  8731 ;;		_I2C_LCD_Putc
  8732 ;;		_I2C_LCD_CreateChar
  8733 ;; This function uses a non-reentrant model
  8734 ;;
  8735                           
  8736                           	psect	text47
  8737  012C90                     __ptext47:
  8738                           	opt stack 0
  8739  012C90                     _I2C_Start:
  8740                           	opt stack 15
  8741                           
  8742                           ;incstack = 0
  8743                           ;I2C_Start@adrs stored from wreg
  8744  012C90  0100               	movlb	0	; () banked
  8745  012C92  6FCC               	movwf	I2C_Start@adrs& (0+255),b
  8746                           
  8747                           ;My_I2C.c: 23: I2C_IdleCheck(0x5);
  8748  012C94  0E05               	movlw	5
  8749  012C96  EC3D  F097         	call	_I2C_IdleCheck
  8750                           
  8751                           ;My_I2C.c: 24: SSP1CON2bits.SEN = 1;
  8752  012C9A  80C5               	bsf	4037,0,c	;volatile
  8753                           
  8754                           ;My_I2C.c: 26: I2C_IdleCheck(0x5);
  8755  012C9C  0E05               	movlw	5
  8756  012C9E  EC3D  F097         	call	_I2C_IdleCheck
  8757                           
  8758                           ;My_I2C.c: 27: SSP1IF = 0;
  8759  012CA2  969E               	bcf	3998,3,c	;volatile
  8760                           
  8761                           ;My_I2C.c: 28: SSP1BUF = (uint8_t) ((adrs << 1) + rw);
  8762  012CA4  0100               	movlb	0	; () banked
  8763  012CA6  51CC               	movf	I2C_Start@adrs& (0+255),w,b
  8764  012CA8  25CC               	addwf	I2C_Start@adrs& (0+255),w,b
  8765  012CAA  0100               	movlb	0	; () banked
  8766  012CAC  25CB               	addwf	I2C_Start@rw& (0+255),w,b
  8767  012CAE  6EC9               	movwf	4041,c	;volatile
  8768  012CB0                     l167:
  8769  012CB0  A69E               	btfss	3998,3,c	;volatile
  8770  012CB2  D7FE               	goto	l167
  8771                           
  8772                           ;My_I2C.c: 30: return SSP1CON2bits.ACKSTAT;
  8773  012CB4  ACC5               	btfss	4037,6,c	;volatile
  8774  012CB6  D002               	goto	u6910
  8775  012CB8  0E01               	movlw	1
  8776  012CBA  0012               	return	
  8777  012CBC                     u6910:
  8778  012CBC  0E00               	movlw	0
  8779  012CBE  0012               	return	
  8780  012CC0                     __end_of_I2C_Start:
  8781                           	opt stack 0
  8782                           tblptru	equ	0xFF8
  8783                           tblptrh	equ	0xFF7
  8784                           tblptrl	equ	0xFF6
  8785                           tablat	equ	0xFF5
  8786                           prodh	equ	0xFF4
  8787                           prodl	equ	0xFF3
  8788                           intcon	equ	0xFF2
  8789                           intcon2	equ	0xFF1
  8790                           postinc0	equ	0xFEE
  8791                           wreg	equ	0xFE8
  8792                           indf1	equ	0xFE7
  8793                           postinc1	equ	0xFE6
  8794                           postdec1	equ	0xFE5
  8795                           fsr1h	equ	0xFE2
  8796                           fsr1l	equ	0xFE1
  8797                           indf2	equ	0xFDF
  8798                           postinc2	equ	0xFDE
  8799                           postdec2	equ	0xFDD
  8800                           plusw2	equ	0xFDB
  8801                           fsr2h	equ	0xFDA
  8802                           fsr2l	equ	0xFD9
  8803                           status	equ	0xFD8
  8804                           
  8805 ;; *************** function _I2C_Send *****************
  8806 ;; Defined at:
  8807 ;;		line 51 in file "../../../My_library/My_I2C.c"
  8808 ;; Parameters:    Size  Location     Type
  8809 ;;  data            1    wreg     unsigned char 
  8810 ;; Auto vars:     Size  Location     Type
  8811 ;;  data            1    2[BANK0 ] unsigned char 
  8812 ;; Return value:  Size  Location     Type
  8813 ;;                  1    wreg      unsigned char 
  8814 ;; Registers used:
  8815 ;;		wreg, status,2, status,0, cstack
  8816 ;; Tracked objects:
  8817 ;;		On entry : 0/0
  8818 ;;		On exit  : 0/0
  8819 ;;		Unchanged: 0/0
  8820 ;; Data sizes:     COMRAM   BANK0   BANK1   BANK2   BANK3   BANK4   BANK5   BANK6   BANK7   BANK8   BANK9  BANK10  BANK1
      +1  BANK12  BANK13  BANK14
  8821 ;;      Params:         0       0       0       0       0       0       0       0       0       0       0       0       
      +0       0       0       0
  8822 ;;      Locals:         0       1       0       0       0       0       0       0       0       0       0       0       
      +0       0       0       0
  8823 ;;      Temps:          0       0       0       0       0       0       0       0       0       0       0       0       
      +0       0       0       0
  8824 ;;      Totals:         0       1       0       0       0       0       0       0       0       0       0       0       
      +0       0       0       0
  8825 ;;Total ram usage:        1 bytes
  8826 ;; Hardware stack levels used:    1
  8827 ;; Hardware stack levels required when called:   12
  8828 ;; This function calls:
  8829 ;;		_I2C_IdleCheck
  8830 ;; This function is called by:
  8831 ;;		_I2C_LCD_Command
  8832 ;;		_I2C_LCD_Puts
  8833 ;;		_I2C_LCD_Putc
  8834 ;;		_I2C_LCD_CreateChar
  8835 ;; This function uses a non-reentrant model
  8836 ;;
  8837                           
  8838                           	psect	text48
  8839  012F1E                     __ptext48:
  8840                           	opt stack 0
  8841  012F1E                     _I2C_Send:
  8842                           	opt stack 15
  8843                           
  8844                           ;incstack = 0
  8845                           ;I2C_Send@data stored from wreg
  8846  012F1E  0100               	movlb	0	; () banked
  8847  012F20  6FCB               	movwf	I2C_Send@data& (0+255),b
  8848                           
  8849                           ;My_I2C.c: 52: I2C_IdleCheck(0x5);
  8850  012F22  0E05               	movlw	5
  8851  012F24  EC3D  F097         	call	_I2C_IdleCheck
  8852                           
  8853                           ;My_I2C.c: 53: SSP1IF = 0;
  8854  012F28  969E               	bcf	3998,3,c	;volatile
  8855                           
  8856                           ;My_I2C.c: 54: SSP1BUF = data;
  8857  012F2A  C0CB  FFC9         	movff	I2C_Send@data,4041	;volatile
  8858  012F2E                     l182:
  8859  012F2E  A69E               	btfss	3998,3,c	;volatile
  8860  012F30  D7FE               	goto	l182
  8861                           
  8862                           ;My_I2C.c: 56: return SSP1CON2bits.ACKSTAT;
  8863                           ;	Return value of _I2C_Send is never used
  8864  012F32  50C5               	movf	4037,w,c	;volatile
  8865  012F34  0012               	return	
  8866  012F36                     __end_of_I2C_Send:
  8867                           	opt stack 0
  8868                           tblptru	equ	0xFF8
  8869                           tblptrh	equ	0xFF7
  8870                           tblptrl	equ	0xFF6
  8871                           tablat	equ	0xFF5
  8872                           prodh	equ	0xFF4
  8873                           prodl	equ	0xFF3
  8874                           intcon	equ	0xFF2
  8875                           intcon2	equ	0xFF1
  8876                           postinc0	equ	0xFEE
  8877                           wreg	equ	0xFE8
  8878                           indf1	equ	0xFE7
  8879                           postinc1	equ	0xFE6
  8880                           postdec1	equ	0xFE5
  8881                           fsr1h	equ	0xFE2
  8882                           fsr1l	equ	0xFE1
  8883                           indf2	equ	0xFDF
  8884                           postinc2	equ	0xFDE
  8885                           postdec2	equ	0xFDD
  8886                           plusw2	equ	0xFDB
  8887                           fsr2h	equ	0xFDA
  8888                           fsr2l	equ	0xFD9
  8889                           status	equ	0xFD8
  8890                           
  8891 ;; *************** function _I2C_IdleCheck *****************
  8892 ;; Defined at:
  8893 ;;		line 7 in file "../../../My_library/My_I2C.c"
  8894 ;; Parameters:    Size  Location     Type
  8895 ;;  mask            1    wreg     unsigned char 
  8896 ;; Auto vars:     Size  Location     Type
  8897 ;;  mask            1    1[BANK0 ] unsigned char 
  8898 ;; Return value:  Size  Location     Type
  8899 ;;		None               void
  8900 ;; Registers used:
  8901 ;;		wreg, status,2, status,0
  8902 ;; Tracked objects:
  8903 ;;		On entry : 0/0
  8904 ;;		On exit  : 0/0
  8905 ;;		Unchanged: 0/0
  8906 ;; Data sizes:     COMRAM   BANK0   BANK1   BANK2   BANK3   BANK4   BANK5   BANK6   BANK7   BANK8   BANK9  BANK10  BANK1
      +1  BANK12  BANK13  BANK14
  8907 ;;      Params:         0       0       0       0       0       0       0       0       0       0       0       0       
      +0       0       0       0
  8908 ;;      Locals:         0       1       0       0       0       0       0       0       0       0       0       0       
      +0       0       0       0
  8909 ;;      Temps:          0       1       0       0       0       0       0       0       0       0       0       0       
      +0       0       0       0
  8910 ;;      Totals:         0       2       0       0       0       0       0       0       0       0       0       0       
      +0       0       0       0
  8911 ;;Total ram usage:        2 bytes
  8912 ;; Hardware stack levels used:    1
  8913 ;; Hardware stack levels required when called:   11
  8914 ;; This function calls:
  8915 ;;		Nothing
  8916 ;; This function is called by:
  8917 ;;		_I2C_Start
  8918 ;;		_I2C_Stop
  8919 ;;		_I2C_Send
  8920 ;;		_I2C_rStart
  8921 ;;		_I2C_Receive
  8922 ;; This function uses a non-reentrant model
  8923 ;;
  8924                           
  8925                           	psect	text49
  8926  012E7A                     __ptext49:
  8927                           	opt stack 0
  8928  012E7A                     _I2C_IdleCheck:
  8929                           	opt stack 15
  8930                           
  8931                           ;incstack = 0
  8932                           ;I2C_IdleCheck@mask stored from wreg
  8933  012E7A  0100               	movlb	0	; () banked
  8934  012E7C  6FCA               	movwf	I2C_IdleCheck@mask& (0+255),b
  8935  012E7E                     l7314:
  8936  012E7E  50C7               	movf	4039,w,c	;volatile
  8937  012E80  0100               	movlb	0	; () banked
  8938  012E82  15CA               	andwf	I2C_IdleCheck@mask& (0+255),w,b
  8939  012E84  0100               	movlb	0	; () banked
  8940  012E86  6FC9               	movwf	??_I2C_IdleCheck& (0+255),b
  8941  012E88  50C5               	movf	4037,w,c	;volatile
  8942  012E8A  0B1F               	andlw	31
  8943  012E8C  0100               	movlb	0	; () banked
  8944  012E8E  11C9               	iorwf	??_I2C_IdleCheck& (0+255),w,b
  8945  012E90  0900               	iorlw	0
  8946  012E92  B4D8               	btfsc	status,2,c
  8947  012E94  0012               	return	
  8948  012E96  D7F3               	goto	l7314
  8949  012E98                     __end_of_I2C_IdleCheck:
  8950                           	opt stack 0
  8951                           tblptru	equ	0xFF8
  8952                           tblptrh	equ	0xFF7
  8953                           tblptrl	equ	0xFF6
  8954                           tablat	equ	0xFF5
  8955                           prodh	equ	0xFF4
  8956                           prodl	equ	0xFF3
  8957                           intcon	equ	0xFF2
  8958                           intcon2	equ	0xFF1
  8959                           postinc0	equ	0xFEE
  8960                           wreg	equ	0xFE8
  8961                           indf1	equ	0xFE7
  8962                           postinc1	equ	0xFE6
  8963                           postdec1	equ	0xFE5
  8964                           fsr1h	equ	0xFE2
  8965                           fsr1l	equ	0xFE1
  8966                           indf2	equ	0xFDF
  8967                           postinc2	equ	0xFDE
  8968                           postdec2	equ	0xFDD
  8969                           plusw2	equ	0xFDB
  8970                           fsr2h	equ	0xFDA
  8971                           fsr2l	equ	0xFD9
  8972                           status	equ	0xFD8
  8973                           
  8974 ;; *************** function _ISR *****************
  8975 ;; Defined at:
  8976 ;;		line 38 in file "PIC18F27J53-USB05.c"
  8977 ;; Parameters:    Size  Location     Type
  8978 ;;		None
  8979 ;; Auto vars:     Size  Location     Type
  8980 ;;		None
  8981 ;; Return value:  Size  Location     Type
  8982 ;;		None               void
  8983 ;; Registers used:
  8984 ;;		wreg, fsr0l, fsr0h, fsr1l, fsr1h, fsr2l, fsr2h, status,2, status,0, tblptrl, tblptrh, tblptru, prodl, prodh, cstack
  8985 ;; Tracked objects:
  8986 ;;		On entry : 0/0
  8987 ;;		On exit  : 0/0
  8988 ;;		Unchanged: 0/0
  8989 ;; Data sizes:     COMRAM   BANK0   BANK1   BANK2   BANK3   BANK4   BANK5   BANK6   BANK7   BANK8   BANK9  BANK10  BANK1
      +1  BANK12  BANK13  BANK14
  8990 ;;      Params:         0       0       0       0       0       0       0       0       0       0       0       0       
      +0       0       0       0
  8991 ;;      Locals:         0       0       0       0       0       0       0       0       0       0       0       0       
      +0       0       0       0
  8992 ;;      Temps:         15       0       0       0       0       0       0       0       0       0       0       0       
      +0       0       0       0
  8993 ;;      Totals:        15       0       0       0       0       0       0       0       0       0       0       0       
      +0       0       0       0
  8994 ;;Total ram usage:       15 bytes
  8995 ;; Hardware stack levels used:    1
  8996 ;; Hardware stack levels required when called:   10
  8997 ;; This function calls:
  8998 ;;		_UART_ISR
  8999 ;;		_USB_ISR
  9000 ;; This function is called by:
  9001 ;;		Interrupt level 2
  9002 ;; This function uses a non-reentrant model
  9003 ;;
  9004                           
  9005                           	psect	intcode
  9006  001008                     __pintcode:
  9007                           	opt stack 0
  9008  001008                     _ISR:
  9009                           	opt stack 14
  9010                           
  9011                           ; BSR set to: 0
  9012                           ;incstack = 0
  9013  001008  825B               	bsf	btemp,1,c	;set compiler interrupt flag (level 2)
  9014  00100A  CFFA F04D          	movff	pclath,??_ISR+1
  9015  00100E  CFFB F04E          	movff	pclatu,??_ISR+2
  9016  001012  CFE9 F04F          	movff	fsr0l,??_ISR+3
  9017  001016  CFEA F050          	movff	fsr0h,??_ISR+4
  9018  00101A  CFE1 F051          	movff	fsr1l,??_ISR+5
  9019  00101E  CFE2 F052          	movff	fsr1h,??_ISR+6
  9020  001022  CFD9 F053          	movff	fsr2l,??_ISR+7
  9021  001026  CFDA F054          	movff	fsr2h,??_ISR+8
  9022  00102A  CFF3 F055          	movff	prodl,??_ISR+9
  9023  00102E  CFF4 F056          	movff	prodh,??_ISR+10
  9024  001032  CFF6 F057          	movff	tblptrl,??_ISR+11
  9025  001036  CFF7 F058          	movff	tblptrh,??_ISR+12
  9026  00103A  CFF8 F059          	movff	tblptru,??_ISR+13
  9027  00103E  CFF5 F05A          	movff	tablat,??_ISR+14
  9028                           
  9029                           ;PIC18F27J53-USB05.c: 39: USB_ISR();
  9030  001042  ECB0  F097         	call	_USB_ISR	;wreg free
  9031                           
  9032                           ;PIC18F27J53-USB05.c: 40: UART_ISR();
  9033  001046  EC24  F095         	call	_UART_ISR	;wreg free
  9034                           
  9035                           ;PIC18F27J53-USB05.c: 41: if (INTCONbits.T0IF && INTCONbits.T0IE) {
  9036  00104A  B4F2               	btfsc	intcon,2,c	;volatile
  9037  00104C  AAF2               	btfss	intcon,5,c	;volatile
  9038  00104E  D001               	goto	i2l87
  9039                           
  9040                           ;PIC18F27J53-USB05.c: 42: INTCONbits.T0IF = 0;
  9041  001050  94F2               	bcf	intcon,2,c	;volatile
  9042  001052                     i2l87:
  9043                           
  9044                           ;PIC18F27J53-USB05.c: 43: }
  9045                           ;PIC18F27J53-USB05.c: 44: if (PIR1bits.TMR1IF && PIE1bits.TMR1IE) {
  9046  001052  B09E               	btfsc	3998,0,c	;volatile
  9047  001054  A09D               	btfss	3997,0,c	;volatile
  9048  001056  D00F               	goto	i2l6588
  9049                           
  9050                           ;PIC18F27J53-USB05.c: 45: PIR1bits.TMR1IF = 0;
  9051  001058  909E               	bcf	3998,0,c	;volatile
  9052                           
  9053                           ;PIC18F27J53-USB05.c: 46: TMR1H = 0xC0;
  9054  00105A  0EC0               	movlw	192
  9055  00105C  6ECF               	movwf	4047,c	;volatile
  9056                           
  9057                           ;PIC18F27J53-USB05.c: 47: LATAbits.LATA1 = !LATAbits.LATA1;
  9058  00105E  B289               	btfsc	3977,1,c	;volatile
  9059  001060  D003               	goto	i2u581_40
  9060  001062  6A4C               	clrf	??_ISR& (0+255),c
  9061  001064  2A4C               	incf	??_ISR& (0+255),f,c
  9062  001066  D001               	goto	i2u582_48
  9063  001068                     i2u581_40:
  9064  001068  6A4C               	clrf	??_ISR& (0+255),c
  9065  00106A                     i2u582_48:
  9066  00106A  464C               	rlncf	??_ISR,f,c
  9067  00106C  5089               	movf	3977,w,c	;volatile
  9068  00106E  184C               	xorwf	??_ISR,w,c
  9069  001070  0BFD               	andlw	-3
  9070  001072  184C               	xorwf	??_ISR,w,c
  9071  001074  6E89               	movwf	3977,c	;volatile
  9072  001076                     i2l6588:
  9073                           
  9074                           ;PIC18F27J53-USB05.c: 48: }
  9075                           ;PIC18F27J53-USB05.c: 49: if (PIR2bits.TMR3IF && PIE2bits.TMR3IE) {
  9076  001076  B2A1               	btfsc	4001,1,c	;volatile
  9077  001078  A2A0               	btfss	4000,1,c	;volatile
  9078  00107A  D001               	goto	i2l90
  9079                           
  9080                           ;PIC18F27J53-USB05.c: 50: PIR2bits.TMR3IF = 0;
  9081  00107C  92A1               	bcf	4001,1,c	;volatile
  9082  00107E                     i2l90:
  9083  00107E  C05A  FFF5         	movff	??_ISR+14,tablat
  9084  001082  C059  FFF8         	movff	??_ISR+13,tblptru
  9085  001086  C058  FFF7         	movff	??_ISR+12,tblptrh
  9086  00108A  C057  FFF6         	movff	??_ISR+11,tblptrl
  9087  00108E  C056  FFF4         	movff	??_ISR+10,prodh
  9088  001092  C055  FFF3         	movff	??_ISR+9,prodl
  9089  001096  C054  FFDA         	movff	??_ISR+8,fsr2h
  9090  00109A  C053  FFD9         	movff	??_ISR+7,fsr2l
  9091  00109E  C052  FFE2         	movff	??_ISR+6,fsr1h
  9092  0010A2  C051  FFE1         	movff	??_ISR+5,fsr1l
  9093  0010A6  C050  FFEA         	movff	??_ISR+4,fsr0h
  9094  0010AA  C04F  FFE9         	movff	??_ISR+3,fsr0l
  9095  0010AE  C04E  FFFB         	movff	??_ISR+2,pclatu
  9096  0010B2  C04D  FFFA         	movff	??_ISR+1,pclath
  9097  0010B6  925B               	bcf	btemp,1,c	;clear compiler interrupt flag (level 2)
  9098  0010B8  0011               	retfie		f
  9099  0010BA                     __end_of_ISR:
  9100                           	opt stack 0
  9101                           pclatu	equ	0xFFB
  9102                           pclath	equ	0xFFA
  9103                           tblptru	equ	0xFF8
  9104                           tblptrh	equ	0xFF7
  9105                           tblptrl	equ	0xFF6
  9106                           tablat	equ	0xFF5
  9107                           prodh	equ	0xFF4
  9108                           prodl	equ	0xFF3
  9109                           intcon	equ	0xFF2
  9110                           intcon2	equ	0xFF1
  9111                           postinc0	equ	0xFEE
  9112                           fsr0h	equ	0xFEA
  9113                           fsr0l	equ	0xFE9
  9114                           wreg	equ	0xFE8
  9115                           indf1	equ	0xFE7
  9116                           postinc1	equ	0xFE6
  9117                           postdec1	equ	0xFE5
  9118                           fsr1h	equ	0xFE2
  9119                           fsr1l	equ	0xFE1
  9120                           indf2	equ	0xFDF
  9121                           postinc2	equ	0xFDE
  9122                           postdec2	equ	0xFDD
  9123                           plusw2	equ	0xFDB
  9124                           fsr2h	equ	0xFDA
  9125                           fsr2l	equ	0xFD9
  9126                           status	equ	0xFD8
  9127                           
  9128 ;; *************** function _USB_ISR *****************
  9129 ;; Defined at:
  9130 ;;		line 7 in file "../../../My_library/My_usb_cdc.c"
  9131 ;; Parameters:    Size  Location     Type
  9132 ;;		None
  9133 ;; Auto vars:     Size  Location     Type
  9134 ;;		None
  9135 ;; Return value:  Size  Location     Type
  9136 ;;		None               void
  9137 ;; Registers used:
  9138 ;;		wreg, fsr0l, fsr0h, fsr1l, fsr1h, fsr2l, fsr2h, status,2, status,0, tblptrl, tblptrh, tblptru, prodl, prodh, cstack
  9139 ;; Tracked objects:
  9140 ;;		On entry : 0/0
  9141 ;;		On exit  : 0/0
  9142 ;;		Unchanged: 0/0
  9143 ;; Data sizes:     COMRAM   BANK0   BANK1   BANK2   BANK3   BANK4   BANK5   BANK6   BANK7   BANK8   BANK9  BANK10  BANK1
      +1  BANK12  BANK13  BANK14
  9144 ;;      Params:         0       0       0       0       0       0       0       0       0       0       0       0       
      +0       0       0       0
  9145 ;;      Locals:         0       0       0       0       0       0       0       0       0       0       0       0       
      +0       0       0       0
  9146 ;;      Temps:          0       0       0       0       0       0       0       0       0       0       0       0       
      +0       0       0       0
  9147 ;;      Totals:         0       0       0       0       0       0       0       0       0       0       0       0       
      +0       0       0       0
  9148 ;;Total ram usage:        0 bytes
  9149 ;; Hardware stack levels used:    1
  9150 ;; Hardware stack levels required when called:    9
  9151 ;; This function calls:
  9152 ;;		_USBDeviceTasks
  9153 ;; This function is called by:
  9154 ;;		_ISR
  9155 ;; This function uses a non-reentrant model
  9156 ;;
  9157                           
  9158                           	psect	text51
  9159  012F60                     __ptext51:
  9160                           	opt stack 0
  9161  012F60                     _USB_ISR:
  9162                           	opt stack 14
  9163                           
  9164                           ;My_usb_cdc.c: 8: USBDeviceTasks();
  9165                           
  9166                           ;incstack = 0
  9167  012F60  EC9A  F085         	call	_USBDeviceTasks	;wreg free
  9168  012F64  0012               	return		;funcret
  9169  012F66                     __end_of_USB_ISR:
  9170                           	opt stack 0
  9171                           pclatu	equ	0xFFB
  9172                           pclath	equ	0xFFA
  9173                           tblptru	equ	0xFF8
  9174                           tblptrh	equ	0xFF7
  9175                           tblptrl	equ	0xFF6
  9176                           tablat	equ	0xFF5
  9177                           prodh	equ	0xFF4
  9178                           prodl	equ	0xFF3
  9179                           intcon	equ	0xFF2
  9180                           intcon2	equ	0xFF1
  9181                           postinc0	equ	0xFEE
  9182                           fsr0h	equ	0xFEA
  9183                           fsr0l	equ	0xFE9
  9184                           wreg	equ	0xFE8
  9185                           indf1	equ	0xFE7
  9186                           postinc1	equ	0xFE6
  9187                           postdec1	equ	0xFE5
  9188                           fsr1h	equ	0xFE2
  9189                           fsr1l	equ	0xFE1
  9190                           indf2	equ	0xFDF
  9191                           postinc2	equ	0xFDE
  9192                           postdec2	equ	0xFDD
  9193                           plusw2	equ	0xFDB
  9194                           fsr2h	equ	0xFDA
  9195                           fsr2l	equ	0xFD9
  9196                           status	equ	0xFD8
  9197                           
  9198 ;; *************** function _USBDeviceTasks *****************
  9199 ;; Defined at:
  9200 ;;		line 489 in file "../../../My_library/usb/usb_device.c"
  9201 ;; Parameters:    Size  Location     Type
  9202 ;;		None
  9203 ;; Auto vars:     Size  Location     Type
  9204 ;;  i               1   29[COMRAM] unsigned char 
  9205 ;; Return value:  Size  Location     Type
  9206 ;;		None               void
  9207 ;; Registers used:
  9208 ;;		wreg, fsr0l, fsr0h, fsr1l, fsr1h, fsr2l, fsr2h, status,2, status,0, tblptrl, tblptrh, tblptru, prodl, prodh, cstack
  9209 ;; Tracked objects:
  9210 ;;		On entry : 0/0
  9211 ;;		On exit  : 0/0
  9212 ;;		Unchanged: 0/0
  9213 ;; Data sizes:     COMRAM   BANK0   BANK1   BANK2   BANK3   BANK4   BANK5   BANK6   BANK7   BANK8   BANK9  BANK10  BANK1
      +1  BANK12  BANK13  BANK14
  9214 ;;      Params:         0       0       0       0       0       0       0       0       0       0       0       0       
      +0       0       0       0
  9215 ;;      Locals:         1       0       0       0       0       0       0       0       0       0       0       0       
      +0       0       0       0
  9216 ;;      Temps:          0       0       0       0       0       0       0       0       0       0       0       0       
      +0       0       0       0
  9217 ;;      Totals:         1       0       0       0       0       0       0       0       0       0       0       0       
      +0       0       0       0
  9218 ;;Total ram usage:        1 bytes
  9219 ;; Hardware stack levels used:    1
  9220 ;; Hardware stack levels required when called:    8
  9221 ;; This function calls:
  9222 ;;		_USBCtrlEPAllowStatusStage
  9223 ;;		_USBCtrlEPService
  9224 ;;		_USBStallHandler
  9225 ;;		_USBSuspend
  9226 ;;		_USBWakeFromSuspend
  9227 ;;		_USER_USB_CALLBACK_EVENT_HANDLER
  9228 ;;		i2_USBDeviceInit
  9229 ;; This function is called by:
  9230 ;;		_USB_ISR
  9231 ;; This function uses a non-reentrant model
  9232 ;;
  9233                           
  9234                           	psect	text52
  9235  010B34                     __ptext52:
  9236                           	opt stack 0
  9237  010B34                     _USBDeviceTasks:
  9238                           	opt stack 14
  9239                           
  9240                           ;usb_device.c: 491: uint8_t i;
  9241                           ;usb_device.c: 602: if(USBDeviceState == ATTACHED_STATE)
  9242                           
  9243                           ;incstack = 0
  9244  010B34  0425               	decf	_USBDeviceState,w,c	;volatile
  9245  010B36  B4D8               	btfsc	status,2,c
  9246                           
  9247                           ;usb_device.c: 603: {
  9248                           ;usb_device.c: 613: if(!UCONbits.SE0)
  9249  010B38  BA65               	btfsc	3941,5,c	;volatile
  9250  010B3A  D008               	goto	i2l6176
  9251                           
  9252                           ;usb_device.c: 614: {
  9253                           ;usb_device.c: 615: {UIR = 0;};
  9254  010B3C  0E00               	movlw	0
  9255  010B3E  6E62               	movwf	3938,c	;volatile
  9256                           
  9257                           ;usb_device.c: 619: UIEbits.URSTIE = 1;
  9258  010B40  010F               	movlb	15	; () banked
  9259  010B42  8136               	bsf	54,0,b	;volatile
  9260                           
  9261                           ; BSR set to: 15
  9262                           ;usb_device.c: 620: UIEbits.IDLEIE = 1;
  9263  010B44  010F               	movlb	15	; () banked
  9264  010B46  8936               	bsf	54,4,b	;volatile
  9265                           
  9266                           ;usb_device.c: 621: USBDeviceState = POWERED_STATE;
  9267  010B48  0E02               	movlw	2
  9268  010B4A  6E25               	movwf	_USBDeviceState,c	;volatile
  9269  010B4C                     i2l6176:
  9270                           
  9271                           ;usb_device.c: 622: }
  9272                           ;usb_device.c: 623: }
  9273                           ;usb_device.c: 639: if(UIRbits.ACTVIF && UIEbits.ACTVIE)
  9274  010B4C  A462               	btfss	3938,2,c	;volatile
  9275  010B4E  D006               	goto	i2l6184
  9276  010B50  010F               	movlb	15	; () banked
  9277  010B52  A536               	btfss	54,2,b	;volatile
  9278  010B54  D003               	goto	i2l6184
  9279                           
  9280                           ; BSR set to: 15
  9281                           ;usb_device.c: 640: {
  9282                           ;usb_device.c: 641: (UIR &= 0xFB);
  9283  010B56  9462               	bcf	3938,2,c	;volatile
  9284                           
  9285                           ; BSR set to: 15
  9286                           ;usb_device.c: 645: USBWakeFromSuspend();
  9287  010B58  EC17  F096         	call	_USBWakeFromSuspend	;wreg free
  9288  010B5C                     i2l6184:
  9289                           
  9290                           ;usb_device.c: 647: }
  9291                           ;usb_device.c: 652: if(UCONbits.SUSPND==1)
  9292  010B5C  A265               	btfss	3941,1,c	;volatile
  9293  010B5E  D002               	goto	i2l976
  9294                           
  9295                           ;usb_device.c: 653: {
  9296                           ;usb_device.c: 654: {PIR2bits.USBIF = 0;};
  9297  010B60  98A1               	bcf	4001,4,c	;volatile
  9298                           
  9299                           ;usb_device.c: 655: return;
  9300  010B62  0012               	return	
  9301  010B64                     i2l976:
  9302                           
  9303                           ;usb_device.c: 656: }
  9304                           ;usb_device.c: 668: if(UIRbits.URSTIF && UIEbits.URSTIE)
  9305  010B64  A062               	btfss	3938,0,c	;volatile
  9306  010B66  D009               	goto	i2l6198
  9307  010B68  010F               	movlb	15	; () banked
  9308  010B6A  A136               	btfss	54,0,b	;volatile
  9309  010B6C  D006               	goto	i2l6198
  9310                           
  9311                           ; BSR set to: 15
  9312                           ;usb_device.c: 669: {
  9313                           ;usb_device.c: 670: USBDeviceInit();
  9314  010B6E  EC3C  F086         	call	i2_USBDeviceInit	;wreg free
  9315                           
  9316                           ;usb_device.c: 674: {PIE2bits.USBIE = 1;};
  9317  010B72  88A0               	bsf	4000,4,c	;volatile
  9318                           
  9319                           ;usb_device.c: 676: USBDeviceState = DEFAULT_STATE;
  9320  010B74  0E04               	movlw	4
  9321  010B76  6E25               	movwf	_USBDeviceState,c	;volatile
  9322                           
  9323                           ;usb_device.c: 686: (UIR &= 0xFE);
  9324  010B78  9062               	bcf	3938,0,c	;volatile
  9325  010B7A                     i2l6198:
  9326                           
  9327                           ;usb_device.c: 687: }
  9328                           ;usb_device.c: 692: if(UIRbits.IDLEIF && UIEbits.IDLEIE)
  9329  010B7A  A862               	btfss	3938,4,c	;volatile
  9330  010B7C  D006               	goto	i2l6206
  9331  010B7E  010F               	movlb	15	; () banked
  9332  010B80  A936               	btfss	54,4,b	;volatile
  9333  010B82  D003               	goto	i2l6206
  9334                           
  9335                           ; BSR set to: 15
  9336                           ;usb_device.c: 693: {
  9337                           ;usb_device.c: 698: USBSuspend();
  9338  010B84  ECBA  F096         	call	_USBSuspend	;wreg free
  9339                           
  9340                           ;usb_device.c: 701: (UIR &= 0xEF);
  9341  010B88  9862               	bcf	3938,4,c	;volatile
  9342  010B8A                     i2l6206:
  9343                           
  9344                           ;usb_device.c: 702: }
  9345                           ;usb_device.c: 704: if(UIRbits.SOFIF)
  9346  010B8A  AC62               	btfss	3938,6,c	;volatile
  9347  010B8C  D019               	goto	i2l6222
  9348                           
  9349                           ;usb_device.c: 705: {
  9350                           ;usb_device.c: 706: if(UIEbits.SOFIE)
  9351  010B8E  010F               	movlb	15	; () banked
  9352  010B90  AD36               	btfss	54,6,b	;volatile
  9353  010B92  D00E               	goto	i2l6212
  9354                           
  9355                           ; BSR set to: 15
  9356                           ;usb_device.c: 707: {
  9357                           ;usb_device.c: 708: USER_USB_CALLBACK_EVENT_HANDLER(EVENT_SOF,0,1);
  9358  010B94  0E00               	movlw	0
  9359  010B96  6E3B               	movwf	USER_USB_CALLBACK_EVENT_HANDLER@event+1,c
  9360  010B98  0E73               	movlw	115
  9361  010B9A  6E3A               	movwf	USER_USB_CALLBACK_EVENT_HANDLER@event,c
  9362  010B9C  0E00               	movlw	0
  9363  010B9E  6E3C               	movwf	USER_USB_CALLBACK_EVENT_HANDLER@pdata,c
  9364  010BA0  0E00               	movlw	0
  9365  010BA2  6E3D               	movwf	USER_USB_CALLBACK_EVENT_HANDLER@pdata+1,c
  9366  010BA4  0E00               	movlw	0
  9367  010BA6  6E3F               	movwf	USER_USB_CALLBACK_EVENT_HANDLER@size+1,c
  9368  010BA8  0E01               	movlw	1
  9369  010BAA  6E3E               	movwf	USER_USB_CALLBACK_EVENT_HANDLER@size,c
  9370  010BAC  EC77  F096         	call	_USER_USB_CALLBACK_EVENT_HANDLER	;wreg free
  9371  010BB0                     i2l6212:
  9372                           
  9373                           ;usb_device.c: 709: }
  9374                           ;usb_device.c: 710: (UIR &= 0xBF);
  9375  010BB0  9C62               	bcf	3938,6,c	;volatile
  9376                           
  9377                           ;usb_device.c: 735: if(USBStatusStageTimeoutCounter != 0u)
  9378  010BB2  5028               	movf	_USBStatusStageTimeoutCounter,w,c	;volatile
  9379  010BB4  A4D8               	btfss	status,2,c
  9380                           
  9381                           ;usb_device.c: 736: {
  9382                           ;usb_device.c: 737: USBStatusStageTimeoutCounter--;
  9383  010BB6  0628               	decf	_USBStatusStageTimeoutCounter,f,c	;volatile
  9384                           
  9385                           ;usb_device.c: 738: }
  9386                           ;usb_device.c: 744: if(USBStatusStageTimeoutCounter == 0)
  9387  010BB8  5028               	movf	_USBStatusStageTimeoutCounter,w,c	;volatile
  9388  010BBA  B4D8               	btfsc	status,2,c
  9389                           
  9390                           ;usb_device.c: 745: {
  9391                           ;usb_device.c: 746: USBCtrlEPAllowStatusStage();
  9392  010BBC  ECF8  F08D         	call	_USBCtrlEPAllowStatusStage	;wreg free
  9393  010BC0                     i2l6222:
  9394                           
  9395                           ;usb_device.c: 747: }
  9396                           ;usb_device.c: 749: }
  9397                           ;usb_device.c: 751: if(UIRbits.STALLIF && UIEbits.STALLIE)
  9398  010BC0  AA62               	btfss	3938,5,c	;volatile
  9399  010BC2  D004               	goto	i2l6228
  9400  010BC4  010F               	movlb	15	; () banked
  9401  010BC6  BB36               	btfsc	54,5,b	;volatile
  9402                           
  9403                           ; BSR set to: 15
  9404                           ;usb_device.c: 752: {
  9405                           ;usb_device.c: 753: USBStallHandler();
  9406  010BC8  EC49  F095         	call	_USBStallHandler	;wreg free
  9407  010BCC                     i2l6228:
  9408                           
  9409                           ;usb_device.c: 754: }
  9410                           ;usb_device.c: 756: if(UIRbits.UERRIF && UIEbits.UERRIE)
  9411  010BCC  A262               	btfss	3938,1,c	;volatile
  9412  010BCE  D012               	goto	i2l6236
  9413  010BD0  010F               	movlb	15	; () banked
  9414  010BD2  A336               	btfss	54,1,b	;volatile
  9415  010BD4  D00F               	goto	i2l6236
  9416                           
  9417                           ; BSR set to: 15
  9418                           ;usb_device.c: 757: {
  9419                           ;usb_device.c: 758: USER_USB_CALLBACK_EVENT_HANDLER(EVENT_BUS_ERROR,0,1);
  9420  010BD6  0E7F               	movlw	127
  9421  010BD8  6E3B               	movwf	USER_USB_CALLBACK_EVENT_HANDLER@event+1,c
  9422  010BDA  683A               	setf	USER_USB_CALLBACK_EVENT_HANDLER@event,c
  9423  010BDC  0E00               	movlw	0
  9424  010BDE  6E3C               	movwf	USER_USB_CALLBACK_EVENT_HANDLER@pdata,c
  9425  010BE0  0E00               	movlw	0
  9426  010BE2  6E3D               	movwf	USER_USB_CALLBACK_EVENT_HANDLER@pdata+1,c
  9427  010BE4  0E00               	movlw	0
  9428  010BE6  6E3F               	movwf	USER_USB_CALLBACK_EVENT_HANDLER@size+1,c
  9429  010BE8  0E01               	movlw	1
  9430  010BEA  6E3E               	movwf	USER_USB_CALLBACK_EVENT_HANDLER@size,c
  9431  010BEC  EC77  F096         	call	_USER_USB_CALLBACK_EVENT_HANDLER	;wreg free
  9432                           
  9433                           ;usb_device.c: 759: {UEIR = 0;};
  9434  010BF0  0E00               	movlw	0
  9435  010BF2  6E63               	movwf	3939,c	;volatile
  9436  010BF4                     i2l6236:
  9437                           
  9438                           ;usb_device.c: 767: }
  9439                           ;usb_device.c: 774: if(USBDeviceState < DEFAULT_STATE)
  9440  010BF4  0E04               	movlw	4
  9441  010BF6  6025               	cpfslt	_USBDeviceState,c	;volatile
  9442  010BF8  D002               	goto	i2l986
  9443                           
  9444                           ;usb_device.c: 775: {
  9445                           ;usb_device.c: 776: {PIR2bits.USBIF = 0;};
  9446  010BFA  98A1               	bcf	4001,4,c	;volatile
  9447                           
  9448                           ;usb_device.c: 777: return;
  9449  010BFC  0012               	return	
  9450  010BFE                     i2l986:
  9451                           
  9452                           ;usb_device.c: 778: }
  9453                           ;usb_device.c: 783: if(UIEbits.TRNIE)
  9454  010BFE  010F               	movlb	15	; () banked
  9455  010C00  A736               	btfss	54,3,b	;volatile
  9456  010C02  D038               	goto	i2l987
  9457                           
  9458                           ; BSR set to: 15
  9459                           ;usb_device.c: 784: {
  9460                           ;usb_device.c: 785: for(i = 0; i < 4u; i++)
  9461  010C04  0E00               	movlw	0
  9462  010C06  6E4B               	movwf	USBDeviceTasks@i,c
  9463  010C08                     i2l6242:
  9464                           
  9465                           ; BSR set to: 15
  9466  010C08  0E03               	movlw	3
  9467  010C0A  644B               	cpfsgt	USBDeviceTasks@i,c
  9468  010C0C  D001               	goto	i2l988
  9469  010C0E  D032               	goto	i2l987
  9470  010C10                     i2l988:
  9471                           
  9472                           ;usb_device.c: 786: {
  9473                           ;usb_device.c: 787: if(UIRbits.TRNIF)
  9474  010C10  A662               	btfss	3938,3,c	;volatile
  9475  010C12  D030               	goto	i2l987
  9476                           
  9477                           ;usb_device.c: 788: {
  9478                           ;usb_device.c: 790: USTATcopy.Val = USTAT;
  9479  010C14  CF64 F02D          	movff	3940,_USTATcopy	;volatile
  9480                           
  9481                           ;usb_device.c: 791: endpoint_number = USTATcopy.endpoint_number;
  9482  010C18  302D               	rrcf	_USTATcopy,w,c	;volatile
  9483  010C1A  32E8               	rrcf	wreg,f,c
  9484  010C1C  32E8               	rrcf	wreg,f,c
  9485  010C1E  0B0F               	andlw	15
  9486  010C20  6E2A               	movwf	_endpoint_number,c	;volatile
  9487                           
  9488                           ;usb_device.c: 793: (UIR &= 0xF7);
  9489  010C22  9662               	bcf	3938,3,c	;volatile
  9490                           
  9491                           ;usb_device.c: 798: if(USTATcopy.direction == 0)
  9492  010C24  B42D               	btfsc	_USTATcopy,2,c	;volatile
  9493  010C26  D007               	goto	i2l6256
  9494                           
  9495                           ;usb_device.c: 799: {
  9496                           ;usb_device.c: 800: ep_data_out[endpoint_number].bits.ping_pong_state ^= 1;
  9497  010C28  502A               	movf	_endpoint_number,w,c	;volatile
  9498  010C2A  0D01               	mullw	1
  9499  010C2C  0E19               	movlw	low _ep_data_out
  9500  010C2E  24F3               	addwf	prodl,w,c
  9501  010C30  6ED9               	movwf	fsr2l,c
  9502  010C32  0E00               	movlw	high _ep_data_out
  9503  010C34  D006               	goto	L4
  9504  010C36                     i2l6256:
  9505                           
  9506                           ;usb_device.c: 802: else
  9507                           ;usb_device.c: 803: {
  9508                           ;usb_device.c: 804: ep_data_in[endpoint_number].bits.ping_pong_state ^= 1;
  9509  010C36  502A               	movf	_endpoint_number,w,c	;volatile
  9510  010C38  0D01               	mullw	1
  9511  010C3A  0E16               	movlw	low _ep_data_in
  9512  010C3C  24F3               	addwf	prodl,w,c
  9513  010C3E  6ED9               	movwf	fsr2l,c
  9514  010C40  0E00               	movlw	high _ep_data_in
  9515  010C42                     L4:
  9516  010C42  20F4               	addwfc	prodh,w,c
  9517  010C44  6EDA               	movwf	fsr2h,c
  9518  010C46  70DF               	btg	indf2,0,c
  9519                           
  9520                           ;usb_device.c: 805: }
  9521                           ;usb_device.c: 810: if(endpoint_number == 0)
  9522  010C48  502A               	movf	_endpoint_number,w,c	;volatile
  9523  010C4A  A4D8               	btfss	status,2,c
  9524  010C4C  D003               	goto	i2l6262
  9525                           
  9526                           ;usb_device.c: 811: {
  9527                           ;usb_device.c: 812: USBCtrlEPService();
  9528  010C4E  EC2B  F08D         	call	_USBCtrlEPService	;wreg free
  9529                           
  9530                           ;usb_device.c: 813: }
  9531  010C52  D00E               	goto	i2l6264
  9532  010C54                     i2l6262:
  9533                           
  9534                           ;usb_device.c: 814: else
  9535                           ;usb_device.c: 815: {
  9536                           ;usb_device.c: 816: USER_USB_CALLBACK_EVENT_HANDLER(EVENT_TRANSFER,(uint8_t*)&USTATcopy.
      +                          Val,0);
  9537  010C54  0E00               	movlw	0
  9538  010C56  6E3B               	movwf	USER_USB_CALLBACK_EVENT_HANDLER@event+1,c
  9539  010C58  0E72               	movlw	114
  9540  010C5A  6E3A               	movwf	USER_USB_CALLBACK_EVENT_HANDLER@event,c
  9541  010C5C  0E2D               	movlw	low _USTATcopy
  9542  010C5E  6E3C               	movwf	USER_USB_CALLBACK_EVENT_HANDLER@pdata,c
  9543  010C60  0E00               	movlw	high _USTATcopy
  9544  010C62  6E3D               	movwf	USER_USB_CALLBACK_EVENT_HANDLER@pdata+1,c
  9545  010C64  0E00               	movlw	0
  9546  010C66  6E3F               	movwf	USER_USB_CALLBACK_EVENT_HANDLER@size+1,c
  9547  010C68  0E00               	movlw	0
  9548  010C6A  6E3E               	movwf	USER_USB_CALLBACK_EVENT_HANDLER@size,c
  9549  010C6C  EC77  F096         	call	_USER_USB_CALLBACK_EVENT_HANDLER	;wreg free
  9550  010C70                     i2l6264:
  9551  010C70  2A4B               	incf	USBDeviceTasks@i,f,c
  9552  010C72  D7CA               	goto	i2l6242
  9553  010C74                     i2l987:
  9554                           
  9555                           ;usb_device.c: 822: }
  9556                           ;usb_device.c: 823: }
  9557                           ;usb_device.c: 824: }
  9558                           ;usb_device.c: 826: {PIR2bits.USBIF = 0;};
  9559  010C74  98A1               	bcf	4001,4,c	;volatile
  9560  010C76  0012               	return		;funcret
  9561  010C78                     __end_of_USBDeviceTasks:
  9562                           	opt stack 0
  9563                           pclatu	equ	0xFFB
  9564                           pclath	equ	0xFFA
  9565                           tblptru	equ	0xFF8
  9566                           tblptrh	equ	0xFF7
  9567                           tblptrl	equ	0xFF6
  9568                           tablat	equ	0xFF5
  9569                           prodh	equ	0xFF4
  9570                           prodl	equ	0xFF3
  9571                           intcon	equ	0xFF2
  9572                           intcon2	equ	0xFF1
  9573                           postinc0	equ	0xFEE
  9574                           fsr0h	equ	0xFEA
  9575                           fsr0l	equ	0xFE9
  9576                           wreg	equ	0xFE8
  9577                           indf1	equ	0xFE7
  9578                           postinc1	equ	0xFE6
  9579                           postdec1	equ	0xFE5
  9580                           fsr1h	equ	0xFE2
  9581                           fsr1l	equ	0xFE1
  9582                           indf2	equ	0xFDF
  9583                           postinc2	equ	0xFDE
  9584                           postdec2	equ	0xFDD
  9585                           plusw2	equ	0xFDB
  9586                           fsr2h	equ	0xFDA
  9587                           fsr2l	equ	0xFD9
  9588                           status	equ	0xFD8
  9589                           
  9590 ;; *************** function i2_USBDeviceInit *****************
  9591 ;; Defined at:
  9592 ;;		line 298 in file "../../../My_library/usb/usb_device.c"
  9593 ;; Parameters:    Size  Location     Type
  9594 ;;		None
  9595 ;; Auto vars:     Size  Location     Type
  9596 ;;  USBDeviceIni    1    8[COMRAM] unsigned char 
  9597 ;; Return value:  Size  Location     Type
  9598 ;;		None               void
  9599 ;; Registers used:
  9600 ;;		wreg, fsr2l, fsr2h, status,2, status,0, prodl, prodh, cstack
  9601 ;; Tracked objects:
  9602 ;;		On entry : 0/0
  9603 ;;		On exit  : 0/0
  9604 ;;		Unchanged: 0/0
  9605 ;; Data sizes:     COMRAM   BANK0   BANK1   BANK2   BANK3   BANK4   BANK5   BANK6   BANK7   BANK8   BANK9  BANK10  BANK1
      +1  BANK12  BANK13  BANK14
  9606 ;;      Params:         0       0       0       0       0       0       0       0       0       0       0       0       
      +0       0       0       0
  9607 ;;      Locals:         1       0       0       0       0       0       0       0       0       0       0       0       
      +0       0       0       0
  9608 ;;      Temps:          0       0       0       0       0       0       0       0       0       0       0       0       
      +0       0       0       0
  9609 ;;      Totals:         1       0       0       0       0       0       0       0       0       0       0       0       
      +0       0       0       0
  9610 ;;Total ram usage:        1 bytes
  9611 ;; Hardware stack levels used:    1
  9612 ;; Hardware stack levels required when called:    1
  9613 ;; This function calls:
  9614 ;;		i2_memset
  9615 ;; This function is called by:
  9616 ;;		_USBDeviceTasks
  9617 ;; This function uses a non-reentrant model
  9618 ;;
  9619                           
  9620                           	psect	text53
  9621  010C78                     __ptext53:
  9622                           	opt stack 0
  9623  010C78                     i2_USBDeviceInit:
  9624                           	opt stack 20
  9625                           
  9626                           ;usb_device.c: 300: uint8_t i;
  9627                           ;usb_device.c: 302: {PIE2bits.USBIE = 0;};
  9628                           
  9629                           ;incstack = 0
  9630  010C78  98A0               	bcf	4000,4,c	;volatile
  9631                           
  9632                           ;usb_device.c: 305: {UEIR = 0;};
  9633  010C7A  0E00               	movlw	0
  9634  010C7C  6E63               	movwf	3939,c	;volatile
  9635                           
  9636                           ;usb_device.c: 308: {UIR = 0;};
  9637  010C7E  0E00               	movlw	0
  9638  010C80  6E62               	movwf	3938,c	;volatile
  9639                           
  9640                           ;usb_device.c: 311: UEP0 = 0;
  9641  010C82  0E00               	movlw	0
  9642  010C84  010F               	movlb	15	; () banked
  9643  010C86  6F26               	movwf	38,b	;volatile
  9644                           
  9645                           ; BSR set to: 15
  9646                           ;usb_device.c: 313: memset((void*)&UEP1,0x00,(2));;
  9647  010C88  0E27               	movlw	39
  9648  010C8A  6E2E               	movwf	i2memset@p1,c
  9649  010C8C  0E0F               	movlw	15
  9650  010C8E  6E2F               	movwf	i2memset@p1+1,c
  9651  010C90  0E00               	movlw	0
  9652  010C92  6E31               	movwf	i2memset@c+1,c
  9653  010C94  0E00               	movlw	0
  9654  010C96  6E30               	movwf	i2memset@c,c
  9655  010C98  0E00               	movlw	0
  9656  010C9A  6E33               	movwf	i2memset@n+1,c
  9657  010C9C  0E02               	movlw	2
  9658  010C9E  6E32               	movwf	i2memset@n,c
  9659  010CA0  ECD0  F096         	call	i2_memset	;wreg free
  9660                           
  9661                           ;usb_device.c: 315: { UCFG = 0x10 | 0x00 | 0x04 | 0x02; UEIE = 0x9F; UIE = 0x39 | 0x40 |
      +                           0x02; };
  9662  010CA4  0E16               	movlw	22
  9663  010CA6  010F               	movlb	15	; () banked
  9664  010CA8  6F39               	movwf	57,b	;volatile
  9665                           
  9666                           ; BSR set to: 15
  9667  010CAA  0E9F               	movlw	159
  9668  010CAC  010F               	movlb	15	; () banked
  9669  010CAE  6F37               	movwf	55,b	;volatile
  9670                           
  9671                           ; BSR set to: 15
  9672  010CB0  0E7B               	movlw	123
  9673  010CB2  010F               	movlb	15	; () banked
  9674  010CB4  6F36               	movwf	54,b	;volatile
  9675                           
  9676                           ; BSR set to: 15
  9677                           ;usb_device.c: 318: ;
  9678                           ;usb_device.c: 321: ;
  9679                           ;usb_device.c: 324: for(i=0;i<(sizeof(BDT)/sizeof(BDT_ENTRY));i++)
  9680  010CB6  0E00               	movlw	0
  9681  010CB8  6E36               	movwf	i2USBDeviceInit@i,c
  9682  010CBA                     i2l5860:
  9683                           
  9684                           ; BSR set to: 15
  9685  010CBA  0E0B               	movlw	11
  9686  010CBC  6436               	cpfsgt	i2USBDeviceInit@i,c
  9687  010CBE  D001               	goto	i2l5864
  9688  010CC0  D00E               	goto	i2l964
  9689  010CC2                     i2l5864:
  9690                           
  9691                           ;usb_device.c: 325: {
  9692                           ;usb_device.c: 326: BDT[i].Val = 0x00;
  9693  010CC2  5036               	movf	i2USBDeviceInit@i,w,c
  9694  010CC4  0D04               	mullw	4
  9695  010CC6  0E00               	movlw	0
  9696  010CC8  24F3               	addwf	prodl,w,c
  9697  010CCA  6ED9               	movwf	fsr2l,c
  9698  010CCC  0E0D               	movlw	13
  9699  010CCE  20F4               	addwfc	prodh,w,c
  9700  010CD0  6EDA               	movwf	fsr2h,c
  9701  010CD2  6ADE               	clrf	postinc2,c
  9702  010CD4  6ADE               	clrf	postinc2,c
  9703  010CD6  6ADE               	clrf	postinc2,c
  9704  010CD8  6ADD               	clrf	postdec2,c
  9705  010CDA  2A36               	incf	i2USBDeviceInit@i,f,c
  9706  010CDC  D7EE               	goto	i2l5860
  9707  010CDE                     i2l964:
  9708                           
  9709                           ;usb_device.c: 327: }
  9710                           ;usb_device.c: 330: UCONbits.PPBRST = 1;
  9711  010CDE  8C65               	bsf	3941,6,c	;volatile
  9712                           
  9713                           ;usb_device.c: 333: UADDR = 0x00;
  9714  010CE0  0E00               	movlw	0
  9715  010CE2  010F               	movlb	15	; () banked
  9716  010CE4  6F38               	movwf	56,b	;volatile
  9717                           
  9718                           ; BSR set to: 15
  9719                           ;usb_device.c: 336: UCONbits.PKTDIS = 0;
  9720  010CE6  9865               	bcf	3941,4,c	;volatile
  9721                           
  9722                           ; BSR set to: 15
  9723                           ;usb_device.c: 339: UCONbits.PPBRST = 0;
  9724  010CE8  9C65               	bcf	3941,6,c	;volatile
  9725                           
  9726                           ;usb_device.c: 342: while(UIRbits.TRNIF == 1)
  9727  010CEA  D009               	goto	i2l5884
  9728  010CEC                     i2l5876:
  9729                           
  9730                           ;usb_device.c: 343: {
  9731                           ;usb_device.c: 344: (UIR &= 0xF7);
  9732  010CEC  9662               	bcf	3938,3,c	;volatile
  9733                           
  9734                           ;usb_device.c: 346: inPipes[0].info.Val = 0;
  9735  010CEE  0E00               	movlw	0
  9736  010CF0  6E0D               	movwf	_inPipes+3,c	;volatile
  9737                           
  9738                           ;usb_device.c: 347: outPipes[0].info.Val = 0;
  9739  010CF2  0E00               	movlw	0
  9740  010CF4  6E04               	movwf	_outPipes+3,c	;volatile
  9741                           
  9742                           ;usb_device.c: 348: outPipes[0].wCount.Val = 0;
  9743  010CF6  0E00               	movlw	0
  9744  010CF8  6E06               	movwf	_outPipes+5,c	;volatile
  9745  010CFA  0E00               	movlw	0
  9746  010CFC  6E05               	movwf	_outPipes+4,c	;volatile
  9747  010CFE                     i2l5884:
  9748  010CFE  B662               	btfsc	3938,3,c	;volatile
  9749  010D00  D7F5               	goto	i2l5876
  9750                           
  9751                           ;usb_device.c: 349: }
  9752                           ;usb_device.c: 353: USBStatusStageEnabledFlag1 = 1;
  9753  010D02  0E01               	movlw	1
  9754  010D04  6E26               	movwf	_USBStatusStageEnabledFlag1,c	;volatile
  9755                           
  9756                           ;usb_device.c: 354: USBStatusStageEnabledFlag2 = 1;
  9757  010D06  0E01               	movlw	1
  9758  010D08  6E27               	movwf	_USBStatusStageEnabledFlag2,c	;volatile
  9759                           
  9760                           ;usb_device.c: 356: USBDeferINDataStagePackets = 0;
  9761  010D0A  0E00               	movlw	0
  9762  010D0C  6E22               	movwf	_USBDeferINDataStagePackets,c	;volatile
  9763                           
  9764                           ;usb_device.c: 357: USBDeferOUTDataStagePackets = 0;
  9765  010D0E  0E00               	movlw	0
  9766  010D10  6E23               	movwf	_USBDeferOUTDataStagePackets,c	;volatile
  9767                           
  9768                           ;usb_device.c: 358: USBBusIsSuspended = 0;
  9769  010D12  0E00               	movlw	0
  9770  010D14  0100               	movlb	0	; () banked
  9771  010D16  6F81               	movwf	_USBBusIsSuspended& (0+255),b	;volatile
  9772                           
  9773                           ;usb_device.c: 362: for(i = 0; i < (uint8_t)(2+1u); i++)
  9774  010D18  0E00               	movlw	0
  9775  010D1A  6E36               	movwf	i2USBDeviceInit@i,c
  9776  010D1C                     i2l5888:
  9777                           
  9778                           ; BSR set to: 0
  9779  010D1C  0E02               	movlw	2
  9780  010D1E  6436               	cpfsgt	i2USBDeviceInit@i,c
  9781  010D20  D001               	goto	i2l5892
  9782  010D22  D02E               	goto	i2l5898
  9783  010D24                     i2l5892:
  9784                           
  9785                           ;usb_device.c: 363: {
  9786                           ;usb_device.c: 364: pBDTEntryIn[i] = 0u;
  9787  010D24  5036               	movf	i2USBDeviceInit@i,w,c
  9788  010D26  0D02               	mullw	2
  9789  010D28  0E10               	movlw	low _pBDTEntryIn
  9790  010D2A  24F3               	addwf	prodl,w,c
  9791  010D2C  6ED9               	movwf	fsr2l,c
  9792  010D2E  0E00               	movlw	high _pBDTEntryIn
  9793  010D30  20F4               	addwfc	prodh,w,c
  9794  010D32  6EDA               	movwf	fsr2h,c
  9795  010D34  0E00               	movlw	0
  9796  010D36  6EDE               	movwf	postinc2,c
  9797  010D38  0E00               	movlw	0
  9798  010D3A  6EDD               	movwf	postdec2,c
  9799                           
  9800                           ;usb_device.c: 365: pBDTEntryOut[i] = 0u;
  9801  010D3C  5036               	movf	i2USBDeviceInit@i,w,c
  9802  010D3E  0D02               	mullw	2
  9803  010D40  0E60               	movlw	low _pBDTEntryOut
  9804  010D42  24F3               	addwf	prodl,w,c
  9805  010D44  6ED9               	movwf	fsr2l,c
  9806  010D46  0E00               	movlw	high _pBDTEntryOut
  9807  010D48  20F4               	addwfc	prodh,w,c
  9808  010D4A  6EDA               	movwf	fsr2h,c
  9809  010D4C  0E00               	movlw	0
  9810  010D4E  6EDE               	movwf	postinc2,c
  9811  010D50  0E00               	movlw	0
  9812  010D52  6EDD               	movwf	postdec2,c
  9813                           
  9814                           ;usb_device.c: 366: ep_data_in[i].Val = 0u;
  9815  010D54  5036               	movf	i2USBDeviceInit@i,w,c
  9816  010D56  0D01               	mullw	1
  9817  010D58  0E16               	movlw	low _ep_data_in
  9818  010D5A  24F3               	addwf	prodl,w,c
  9819  010D5C  6ED9               	movwf	fsr2l,c
  9820  010D5E  0E00               	movlw	high _ep_data_in
  9821  010D60  20F4               	addwfc	prodh,w,c
  9822  010D62  6EDA               	movwf	fsr2h,c
  9823  010D64  0E00               	movlw	0
  9824  010D66  6EDF               	movwf	indf2,c
  9825                           
  9826                           ;usb_device.c: 367: ep_data_out[i].Val = 0u;
  9827  010D68  5036               	movf	i2USBDeviceInit@i,w,c
  9828  010D6A  0D01               	mullw	1
  9829  010D6C  0E19               	movlw	low _ep_data_out
  9830  010D6E  24F3               	addwf	prodl,w,c
  9831  010D70  6ED9               	movwf	fsr2l,c
  9832  010D72  0E00               	movlw	high _ep_data_out
  9833  010D74  20F4               	addwfc	prodh,w,c
  9834  010D76  6EDA               	movwf	fsr2h,c
  9835  010D78  0E00               	movlw	0
  9836  010D7A  6EDF               	movwf	indf2,c
  9837  010D7C  2A36               	incf	i2USBDeviceInit@i,f,c
  9838  010D7E  D7CE               	goto	i2l5888
  9839  010D80                     i2l5898:
  9840                           
  9841                           ;usb_device.c: 368: }
  9842                           ;usb_device.c: 371: pBDTEntryIn[0] = (volatile BDT_ENTRY*)&BDT[2];
  9843  010D80  0E08               	movlw	8
  9844  010D82  6E10               	movwf	_pBDTEntryIn,c
  9845  010D84  0E0D               	movlw	13
  9846  010D86  6E11               	movwf	_pBDTEntryIn+1,c
  9847                           
  9848                           ;usb_device.c: 373: UEP0 = 0x06|0x10;
  9849  010D88  0E16               	movlw	22
  9850  010D8A  010F               	movlb	15	; () banked
  9851  010D8C  6F26               	movwf	38,b	;volatile
  9852                           
  9853                           ; BSR set to: 15
  9854                           ;usb_device.c: 375: BDT[0].ADR = ((uint16_t)(&SetupPkt));
  9855  010D8E  0E0D               	movlw	13
  9856  010D90  010D               	movlb	13	; () banked
  9857  010D92  6F03               	movwf	3,b	;volatile
  9858  010D94  0E30               	movlw	48
  9859  010D96  6F02               	movwf	2,b	;volatile
  9860                           
  9861                           ; BSR set to: 13
  9862                           ;usb_device.c: 376: BDT[0].CNT = 8;
  9863  010D98  0E08               	movlw	8
  9864  010D9A  010D               	movlb	13	; () banked
  9865  010D9C  6F01               	movwf	1,b	;volatile
  9866                           
  9867                           ; BSR set to: 13
  9868                           ;usb_device.c: 377: BDT[0].STAT.Val = 0x00|0x04;
  9869  010D9E  0E04               	movlw	4
  9870  010DA0  010D               	movlb	13	; () banked
  9871  010DA2  6F00               	movwf	0,b	;volatile
  9872                           
  9873                           ; BSR set to: 13
  9874                           ;usb_device.c: 378: BDT[0].STAT.Val |= 0x80;
  9875  010DA4  010D               	movlb	13	; () banked
  9876  010DA6  8F00               	bsf	0,7,b	;volatile
  9877                           
  9878                           ; BSR set to: 13
  9879                           ;usb_device.c: 381: USBActiveConfiguration = 0;
  9880  010DA8  0E00               	movlw	0
  9881  010DAA  6E2C               	movwf	_USBActiveConfiguration,c	;volatile
  9882                           
  9883                           ; BSR set to: 13
  9884                           ;usb_device.c: 384: USBDeviceState = DETACHED_STATE;
  9885  010DAC  0E00               	movlw	0
  9886  010DAE  6E25               	movwf	_USBDeviceState,c	;volatile
  9887                           
  9888                           ; BSR set to: 13
  9889  010DB0  0012               	return		;funcret
  9890  010DB2                     __end_ofi2_USBDeviceInit:
  9891                           	opt stack 0
  9892                           pclatu	equ	0xFFB
  9893                           pclath	equ	0xFFA
  9894                           tblptru	equ	0xFF8
  9895                           tblptrh	equ	0xFF7
  9896                           tblptrl	equ	0xFF6
  9897                           tablat	equ	0xFF5
  9898                           prodh	equ	0xFF4
  9899                           prodl	equ	0xFF3
  9900                           intcon	equ	0xFF2
  9901                           intcon2	equ	0xFF1
  9902                           postinc0	equ	0xFEE
  9903                           fsr0h	equ	0xFEA
  9904                           fsr0l	equ	0xFE9
  9905                           wreg	equ	0xFE8
  9906                           indf1	equ	0xFE7
  9907                           postinc1	equ	0xFE6
  9908                           postdec1	equ	0xFE5
  9909                           fsr1h	equ	0xFE2
  9910                           fsr1l	equ	0xFE1
  9911                           indf2	equ	0xFDF
  9912                           postinc2	equ	0xFDE
  9913                           postdec2	equ	0xFDD
  9914                           plusw2	equ	0xFDB
  9915                           fsr2h	equ	0xFDA
  9916                           fsr2l	equ	0xFD9
  9917                           status	equ	0xFD8
  9918                           
  9919 ;; *************** function _USBWakeFromSuspend *****************
  9920 ;; Defined at:
  9921 ;;		line 2302 in file "../../../My_library/usb/usb_device.c"
  9922 ;; Parameters:    Size  Location     Type
  9923 ;;		None
  9924 ;; Auto vars:     Size  Location     Type
  9925 ;;		None
  9926 ;; Return value:  Size  Location     Type
  9927 ;;		None               void
  9928 ;; Registers used:
  9929 ;;		wreg, fsr2l, fsr2h, status,2, status,0, prodl, prodh, cstack
  9930 ;; Tracked objects:
  9931 ;;		On entry : 0/0
  9932 ;;		On exit  : 0/0
  9933 ;;		Unchanged: 0/0
  9934 ;; Data sizes:     COMRAM   BANK0   BANK1   BANK2   BANK3   BANK4   BANK5   BANK6   BANK7   BANK8   BANK9  BANK10  BANK1
      +1  BANK12  BANK13  BANK14
  9935 ;;      Params:         0       0       0       0       0       0       0       0       0       0       0       0       
      +0       0       0       0
  9936 ;;      Locals:         0       0       0       0       0       0       0       0       0       0       0       0       
      +0       0       0       0
  9937 ;;      Temps:          0       0       0       0       0       0       0       0       0       0       0       0       
      +0       0       0       0
  9938 ;;      Totals:         0       0       0       0       0       0       0       0       0       0       0       0       
      +0       0       0       0
  9939 ;;Total ram usage:        0 bytes
  9940 ;; Hardware stack levels used:    1
  9941 ;; Hardware stack levels required when called:    4
  9942 ;; This function calls:
  9943 ;;		_USER_USB_CALLBACK_EVENT_HANDLER
  9944 ;; This function is called by:
  9945 ;;		_USBDeviceTasks
  9946 ;; This function uses a non-reentrant model
  9947 ;;
  9948                           
  9949                           	psect	text54
  9950  012C2E                     __ptext54:
  9951                           	opt stack 0
  9952  012C2E                     _USBWakeFromSuspend:
  9953                           	opt stack 17
  9954                           
  9955                           ;usb_device.c: 2304: USBBusIsSuspended = 0;
  9956                           
  9957                           ; BSR set to: 13
  9958                           ;incstack = 0
  9959  012C2E  0E00               	movlw	0
  9960  012C30  0100               	movlb	0	; () banked
  9961  012C32  6F81               	movwf	_USBBusIsSuspended& (0+255),b	;volatile
  9962                           
  9963                           ; BSR set to: 0
  9964                           ;usb_device.c: 2310: USER_USB_CALLBACK_EVENT_HANDLER(EVENT_RESUME,0,0);
  9965  012C34  0E00               	movlw	0
  9966  012C36  6E3B               	movwf	USER_USB_CALLBACK_EVENT_HANDLER@event+1,c
  9967  012C38  0E74               	movlw	116
  9968  012C3A  6E3A               	movwf	USER_USB_CALLBACK_EVENT_HANDLER@event,c
  9969  012C3C  0E00               	movlw	0
  9970  012C3E  6E3C               	movwf	USER_USB_CALLBACK_EVENT_HANDLER@pdata,c
  9971  012C40  0E00               	movlw	0
  9972  012C42  6E3D               	movwf	USER_USB_CALLBACK_EVENT_HANDLER@pdata+1,c
  9973  012C44  0E00               	movlw	0
  9974  012C46  6E3F               	movwf	USER_USB_CALLBACK_EVENT_HANDLER@size+1,c
  9975  012C48  0E00               	movlw	0
  9976  012C4A  6E3E               	movwf	USER_USB_CALLBACK_EVENT_HANDLER@size,c
  9977  012C4C  EC77  F096         	call	_USER_USB_CALLBACK_EVENT_HANDLER	;wreg free
  9978                           
  9979                           ;usb_device.c: 2317: UCONbits.SUSPND = 0;
  9980  012C50  9265               	bcf	3941,1,c	;volatile
  9981                           
  9982                           ;usb_device.c: 2322: UIEbits.ACTVIE = 0;
  9983  012C52  010F               	movlb	15	; () banked
  9984  012C54  9536               	bcf	54,2,b	;volatile
  9985                           
  9986                           ;usb_device.c: 2340: while(UIRbits.ACTVIF)
  9987  012C56  D001               	goto	i2l5786
  9988  012C58                     i2l5784:
  9989                           
  9990                           ;usb_device.c: 2342: {
  9991                           ;usb_device.c: 2343: (UIR &= 0xFB);
  9992  012C58  9462               	bcf	3938,2,c	;volatile
  9993  012C5A                     i2l5786:
  9994  012C5A  A462               	btfss	3938,2,c	;volatile
  9995  012C5C  0012               	return	
  9996  012C5E  D7FC               	goto	i2l5784
  9997  012C60                     __end_of_USBWakeFromSuspend:
  9998                           	opt stack 0
  9999                           pclatu	equ	0xFFB
 10000                           pclath	equ	0xFFA
 10001                           tblptru	equ	0xFF8
 10002                           tblptrh	equ	0xFF7
 10003                           tblptrl	equ	0xFF6
 10004                           tablat	equ	0xFF5
 10005                           prodh	equ	0xFF4
 10006                           prodl	equ	0xFF3
 10007                           intcon	equ	0xFF2
 10008                           intcon2	equ	0xFF1
 10009                           postinc0	equ	0xFEE
 10010                           fsr0h	equ	0xFEA
 10011                           fsr0l	equ	0xFE9
 10012                           wreg	equ	0xFE8
 10013                           indf1	equ	0xFE7
 10014                           postinc1	equ	0xFE6
 10015                           postdec1	equ	0xFE5
 10016                           fsr1h	equ	0xFE2
 10017                           fsr1l	equ	0xFE1
 10018                           indf2	equ	0xFDF
 10019                           postinc2	equ	0xFDE
 10020                           postdec2	equ	0xFDD
 10021                           plusw2	equ	0xFDB
 10022                           fsr2h	equ	0xFDA
 10023                           fsr2l	equ	0xFD9
 10024                           status	equ	0xFD8
 10025                           
 10026 ;; *************** function _USBSuspend *****************
 10027 ;; Defined at:
 10028 ;;		line 2245 in file "../../../My_library/usb/usb_device.c"
 10029 ;; Parameters:    Size  Location     Type
 10030 ;;		None
 10031 ;; Auto vars:     Size  Location     Type
 10032 ;;		None
 10033 ;; Return value:  Size  Location     Type
 10034 ;;		None               void
 10035 ;; Registers used:
 10036 ;;		wreg, fsr2l, fsr2h, status,2, status,0, prodl, prodh, cstack
 10037 ;; Tracked objects:
 10038 ;;		On entry : 0/0
 10039 ;;		On exit  : 0/0
 10040 ;;		Unchanged: 0/0
 10041 ;; Data sizes:     COMRAM   BANK0   BANK1   BANK2   BANK3   BANK4   BANK5   BANK6   BANK7   BANK8   BANK9  BANK10  BANK1
      +1  BANK12  BANK13  BANK14
 10042 ;;      Params:         0       0       0       0       0       0       0       0       0       0       0       0       
      +0       0       0       0
 10043 ;;      Locals:         0       0       0       0       0       0       0       0       0       0       0       0       
      +0       0       0       0
 10044 ;;      Temps:          0       0       0       0       0       0       0       0       0       0       0       0       
      +0       0       0       0
 10045 ;;      Totals:         0       0       0       0       0       0       0       0       0       0       0       0       
      +0       0       0       0
 10046 ;;Total ram usage:        0 bytes
 10047 ;; Hardware stack levels used:    1
 10048 ;; Hardware stack levels required when called:    4
 10049 ;; This function calls:
 10050 ;;		_USER_USB_CALLBACK_EVENT_HANDLER
 10051 ;; This function is called by:
 10052 ;;		_USBDeviceTasks
 10053 ;; This function uses a non-reentrant model
 10054 ;;
 10055                           
 10056                           	psect	text55
 10057  012D74                     __ptext55:
 10058                           	opt stack 0
 10059  012D74                     _USBSuspend:
 10060                           	opt stack 17
 10061                           
 10062                           ;usb_device.c: 2270: UIEbits.ACTVIE = 1;
 10063                           
 10064                           ;incstack = 0
 10065  012D74  010F               	movlb	15	; () banked
 10066  012D76  8536               	bsf	54,2,b	;volatile
 10067                           
 10068                           ; BSR set to: 15
 10069                           ;usb_device.c: 2271: (UIR &= 0xEF);
 10070  012D78  9862               	bcf	3938,4,c	;volatile
 10071                           
 10072                           ; BSR set to: 15
 10073                           ;usb_device.c: 2274: UCONbits.SUSPND = 1;
 10074  012D7A  8265               	bsf	3941,1,c	;volatile
 10075                           
 10076                           ; BSR set to: 15
 10077                           ;usb_device.c: 2277: USBBusIsSuspended = 1;
 10078  012D7C  0E01               	movlw	1
 10079  012D7E  0100               	movlb	0	; () banked
 10080  012D80  6F81               	movwf	_USBBusIsSuspended& (0+255),b	;volatile
 10081                           
 10082                           ; BSR set to: 0
 10083                           ;usb_device.c: 2284: USER_USB_CALLBACK_EVENT_HANDLER(EVENT_SUSPEND,0,0);
 10084  012D82  0E00               	movlw	0
 10085  012D84  6E3B               	movwf	USER_USB_CALLBACK_EVENT_HANDLER@event+1,c
 10086  012D86  0E75               	movlw	117
 10087  012D88  6E3A               	movwf	USER_USB_CALLBACK_EVENT_HANDLER@event,c
 10088  012D8A  0E00               	movlw	0
 10089  012D8C  6E3C               	movwf	USER_USB_CALLBACK_EVENT_HANDLER@pdata,c
 10090  012D8E  0E00               	movlw	0
 10091  012D90  6E3D               	movwf	USER_USB_CALLBACK_EVENT_HANDLER@pdata+1,c
 10092  012D92  0E00               	movlw	0
 10093  012D94  6E3F               	movwf	USER_USB_CALLBACK_EVENT_HANDLER@size+1,c
 10094  012D96  0E00               	movlw	0
 10095  012D98  6E3E               	movwf	USER_USB_CALLBACK_EVENT_HANDLER@size,c
 10096  012D9A  EC77  F096         	call	_USER_USB_CALLBACK_EVENT_HANDLER	;wreg free
 10097  012D9E  0012               	return		;funcret
 10098  012DA0                     __end_of_USBSuspend:
 10099                           	opt stack 0
 10100                           pclatu	equ	0xFFB
 10101                           pclath	equ	0xFFA
 10102                           tblptru	equ	0xFF8
 10103                           tblptrh	equ	0xFF7
 10104                           tblptrl	equ	0xFF6
 10105                           tablat	equ	0xFF5
 10106                           prodh	equ	0xFF4
 10107                           prodl	equ	0xFF3
 10108                           intcon	equ	0xFF2
 10109                           intcon2	equ	0xFF1
 10110                           postinc0	equ	0xFEE
 10111                           fsr0h	equ	0xFEA
 10112                           fsr0l	equ	0xFE9
 10113                           wreg	equ	0xFE8
 10114                           indf1	equ	0xFE7
 10115                           postinc1	equ	0xFE6
 10116                           postdec1	equ	0xFE5
 10117                           fsr1h	equ	0xFE2
 10118                           fsr1l	equ	0xFE1
 10119                           indf2	equ	0xFDF
 10120                           postinc2	equ	0xFDE
 10121                           postdec2	equ	0xFDD
 10122                           plusw2	equ	0xFDB
 10123                           fsr2h	equ	0xFDA
 10124                           fsr2l	equ	0xFD9
 10125                           status	equ	0xFD8
 10126                           
 10127 ;; *************** function _USBStallHandler *****************
 10128 ;; Defined at:
 10129 ;;		line 2202 in file "../../../My_library/usb/usb_device.c"
 10130 ;; Parameters:    Size  Location     Type
 10131 ;;		None
 10132 ;; Auto vars:     Size  Location     Type
 10133 ;;		None
 10134 ;; Return value:  Size  Location     Type
 10135 ;;		None               void
 10136 ;; Registers used:
 10137 ;;		wreg, fsr2l, fsr2h, status,2, status,0
 10138 ;; Tracked objects:
 10139 ;;		On entry : 0/0
 10140 ;;		On exit  : 0/0
 10141 ;;		Unchanged: 0/0
 10142 ;; Data sizes:     COMRAM   BANK0   BANK1   BANK2   BANK3   BANK4   BANK5   BANK6   BANK7   BANK8   BANK9  BANK10  BANK1
      +1  BANK12  BANK13  BANK14
 10143 ;;      Params:         0       0       0       0       0       0       0       0       0       0       0       0       
      +0       0       0       0
 10144 ;;      Locals:         0       0       0       0       0       0       0       0       0       0       0       0       
      +0       0       0       0
 10145 ;;      Temps:          1       0       0       0       0       0       0       0       0       0       0       0       
      +0       0       0       0
 10146 ;;      Totals:         1       0       0       0       0       0       0       0       0       0       0       0       
      +0       0       0       0
 10147 ;;Total ram usage:        1 bytes
 10148 ;; Hardware stack levels used:    1
 10149 ;; This function calls:
 10150 ;;		Nothing
 10151 ;; This function is called by:
 10152 ;;		_USBDeviceTasks
 10153 ;; This function uses a non-reentrant model
 10154 ;;
 10155                           
 10156                           	psect	text56
 10157  012A92                     __ptext56:
 10158                           	opt stack 0
 10159  012A92                     _USBStallHandler:
 10160                           	opt stack 21
 10161                           
 10162                           ;usb_device.c: 2214: if(UEP0bits.EPSTALL == 1)
 10163                           
 10164                           ;incstack = 0
 10165  012A92  010F               	movlb	15	; () banked
 10166  012A94  A126               	btfss	38,0,b	;volatile
 10167  012A96  D01E               	goto	i2l1126
 10168                           
 10169                           ; BSR set to: 15
 10170                           ;usb_device.c: 2215: {
 10171                           ;usb_device.c: 2217: if((pBDTEntryEP0OutCurrent->STAT.Val == 0x80) && (pBDTEntryIn[0]->S
      +                          TAT.Val == (0x80|0x04)))
 10172  012A98  C01C  FFD9         	movff	_pBDTEntryEP0OutCurrent,fsr2l
 10173  012A9C  C01D  FFDA         	movff	_pBDTEntryEP0OutCurrent+1,fsr2h
 10174  012AA0  0E80               	movlw	128
 10175  012AA2  18DE               	xorwf	postinc2,w,c
 10176  012AA4  A4D8               	btfss	status,2,c
 10177  012AA6  D014               	goto	i2l3228
 10178                           
 10179                           ; BSR set to: 15
 10180  012AA8  C010  FFD9         	movff	_pBDTEntryIn,fsr2l
 10181  012AAC  C011  FFDA         	movff	_pBDTEntryIn+1,fsr2h
 10182  012AB0  0E84               	movlw	132
 10183  012AB2  18DE               	xorwf	postinc2,w,c
 10184  012AB4  A4D8               	btfss	status,2,c
 10185  012AB6  D00C               	goto	i2l3228
 10186                           
 10187                           ; BSR set to: 15
 10188                           ;usb_device.c: 2218: {
 10189                           ;usb_device.c: 2220: pBDTEntryEP0OutCurrent->STAT.Val = 0x00|(0x08 & 0x08)|0x04;
 10190  012AB8  C01C  FFD9         	movff	_pBDTEntryEP0OutCurrent,fsr2l
 10191  012ABC  C01D  FFDA         	movff	_pBDTEntryEP0OutCurrent+1,fsr2h
 10192  012AC0  0E0C               	movlw	12
 10193  012AC2  6EDF               	movwf	indf2,c
 10194                           
 10195                           ; BSR set to: 15
 10196                           ;usb_device.c: 2221: pBDTEntryEP0OutCurrent->STAT.Val |= 0x80;
 10197  012AC4  C01C  FFD9         	movff	_pBDTEntryEP0OutCurrent,fsr2l
 10198  012AC8  C01D  FFDA         	movff	_pBDTEntryEP0OutCurrent+1,fsr2h
 10199  012ACC  0E00               	movlw	0
 10200  012ACE  8EDB               	bsf	plusw2,7,c
 10201  012AD0                     i2l3228:
 10202                           
 10203                           ; BSR set to: 15
 10204                           ;usb_device.c: 2222: }
 10205                           ;usb_device.c: 2223: UEP0bits.EPSTALL = 0;
 10206  012AD0  010F               	movlb	15	; () banked
 10207  012AD2  9126               	bcf	38,0,b	;volatile
 10208  012AD4                     i2l1126:
 10209                           
 10210                           ; BSR set to: 15
 10211                           ;usb_device.c: 2224: }
 10212                           ;usb_device.c: 2226: (UIR &= 0xDF);
 10213  012AD4  9A62               	bcf	3938,5,c	;volatile
 10214                           
 10215                           ; BSR set to: 15
 10216  012AD6  0012               	return		;funcret
 10217  012AD8                     __end_of_USBStallHandler:
 10218                           	opt stack 0
 10219                           pclatu	equ	0xFFB
 10220                           pclath	equ	0xFFA
 10221                           tblptru	equ	0xFF8
 10222                           tblptrh	equ	0xFF7
 10223                           tblptrl	equ	0xFF6
 10224                           tablat	equ	0xFF5
 10225                           prodh	equ	0xFF4
 10226                           prodl	equ	0xFF3
 10227                           intcon	equ	0xFF2
 10228                           intcon2	equ	0xFF1
 10229                           postinc0	equ	0xFEE
 10230                           fsr0h	equ	0xFEA
 10231                           fsr0l	equ	0xFE9
 10232                           wreg	equ	0xFE8
 10233                           indf1	equ	0xFE7
 10234                           postinc1	equ	0xFE6
 10235                           postdec1	equ	0xFE5
 10236                           fsr1h	equ	0xFE2
 10237                           fsr1l	equ	0xFE1
 10238                           indf2	equ	0xFDF
 10239                           postinc2	equ	0xFDE
 10240                           postdec2	equ	0xFDD
 10241                           plusw2	equ	0xFDB
 10242                           fsr2h	equ	0xFDA
 10243                           fsr2l	equ	0xFD9
 10244                           status	equ	0xFD8
 10245                           
 10246 ;; *************** function _USBCtrlEPService *****************
 10247 ;; Defined at:
 10248 ;;		line 2369 in file "../../../My_library/usb/usb_device.c"
 10249 ;; Parameters:    Size  Location     Type
 10250 ;;		None
 10251 ;; Auto vars:     Size  Location     Type
 10252 ;;  setup_cnt       1   28[COMRAM] unsigned char 
 10253 ;; Return value:  Size  Location     Type
 10254 ;;		None               void
 10255 ;; Registers used:
 10256 ;;		wreg, fsr0l, fsr0h, fsr1l, fsr1h, fsr2l, fsr2h, status,2, status,0, tblptrl, tblptrh, tblptru, prodl, prodh, cstack
 10257 ;; Tracked objects:
 10258 ;;		On entry : 0/0
 10259 ;;		On exit  : 0/0
 10260 ;;		Unchanged: 0/0
 10261 ;; Data sizes:     COMRAM   BANK0   BANK1   BANK2   BANK3   BANK4   BANK5   BANK6   BANK7   BANK8   BANK9  BANK10  BANK1
      +1  BANK12  BANK13  BANK14
 10262 ;;      Params:         0       0       0       0       0       0       0       0       0       0       0       0       
      +0       0       0       0
 10263 ;;      Locals:         1       0       0       0       0       0       0       0       0       0       0       0       
      +0       0       0       0
 10264 ;;      Temps:          2       0       0       0       0       0       0       0       0       0       0       0       
      +0       0       0       0
 10265 ;;      Totals:         3       0       0       0       0       0       0       0       0       0       0       0       
      +0       0       0       0
 10266 ;;Total ram usage:        3 bytes
 10267 ;; Hardware stack levels used:    1
 10268 ;; Hardware stack levels required when called:    7
 10269 ;; This function calls:
 10270 ;;		_USBCtrlTrfInHandler
 10271 ;;		_USBCtrlTrfOutHandler
 10272 ;;		_USBCtrlTrfSetupHandler
 10273 ;; This function is called by:
 10274 ;;		_USBDeviceTasks
 10275 ;; This function uses a non-reentrant model
 10276 ;;
 10277                           
 10278                           	psect	text57
 10279  011A56                     __ptext57:
 10280                           	opt stack 0
 10281  011A56                     _USBCtrlEPService:
 10282                           	opt stack 14
 10283                           
 10284                           ;usb_device.c: 2375: USBStatusStageTimeoutCounter = (uint8_t)45;
 10285                           
 10286                           ; BSR set to: 15
 10287                           ;incstack = 0
 10288  011A56  0E2D               	movlw	45
 10289  011A58  6E28               	movwf	_USBStatusStageTimeoutCounter,c	;volatile
 10290                           
 10291                           ;usb_device.c: 2379: if((USTATcopy.Val & ~0x02) == 0x00)
 10292  011A5A  C02D  F048         	movff	_USTATcopy,??_USBCtrlEPService	;volatile
 10293  011A5E  0EFD               	movlw	253
 10294  011A60  1648               	andwf	??_USBCtrlEPService,f,c
 10295  011A62  A4D8               	btfss	status,2,c
 10296  011A64  D057               	goto	i2l5830
 10297                           
 10298                           ;usb_device.c: 2380: {
 10299                           ;usb_device.c: 2383: pBDTEntryEP0OutCurrent = (volatile BDT_ENTRY*)&BDT[(USTATcopy.Val &
      +                           0x7E)>>1];
 10300  011A66  C02D  F048         	movff	_USTATcopy,??_USBCtrlEPService	;volatile
 10301  011A6A  90D8               	bcf	status,0,c
 10302  011A6C  3248               	rrcf	??_USBCtrlEPService,f,c
 10303  011A6E  0E3F               	movlw	63
 10304  011A70  1648               	andwf	??_USBCtrlEPService,f,c
 10305  011A72  5048               	movf	??_USBCtrlEPService,w,c
 10306  011A74  0D04               	mullw	4
 10307  011A76  0E00               	movlw	0
 10308  011A78  24F3               	addwf	prodl,w,c
 10309  011A7A  6E1C               	movwf	_pBDTEntryEP0OutCurrent,c
 10310  011A7C  0E0D               	movlw	13
 10311  011A7E  20F4               	addwfc	prodh,w,c
 10312  011A80  6E1D               	movwf	_pBDTEntryEP0OutCurrent+1,c
 10313                           
 10314                           ;usb_device.c: 2391: pBDTEntryEP0OutNext = pBDTEntryEP0OutCurrent;
 10315  011A82  C01C  F01E         	movff	_pBDTEntryEP0OutCurrent,_pBDTEntryEP0OutNext
 10316  011A86  C01D  F01F         	movff	_pBDTEntryEP0OutCurrent+1,_pBDTEntryEP0OutNext+1
 10317                           
 10318                           ;usb_device.c: 2393: ((uint8_t_VAL*)&pBDTEntryEP0OutNext)->Val ^= 0x0004;
 10319  011A8A  0E04               	movlw	4
 10320  011A8C  1A1E               	xorwf	_pBDTEntryEP0OutNext,f,c
 10321                           
 10322                           ;usb_device.c: 2396: if(pBDTEntryEP0OutCurrent->STAT.PID == 0xD)
 10323  011A8E  C01C  FFD9         	movff	_pBDTEntryEP0OutCurrent,fsr2l
 10324  011A92  C01D  FFDA         	movff	_pBDTEntryEP0OutCurrent+1,fsr2h
 10325  011A96  30DF               	rrcf	indf2,w,c
 10326  011A98  32E8               	rrcf	wreg,f,c
 10327  011A9A  0B0F               	andlw	15
 10328  011A9C  0A0D               	xorlw	13
 10329  011A9E  A4D8               	btfss	status,2,c
 10330  011AA0  D036               	goto	i2l5828
 10331                           
 10332                           ;usb_device.c: 2397: {
 10333                           ;usb_device.c: 2398: unsigned char setup_cnt;
 10334                           ;usb_device.c: 2404: for(setup_cnt = 0; setup_cnt < 8u; setup_cnt++)
 10335  011AA2  0E00               	movlw	0
 10336  011AA4  6E4A               	movwf	USBCtrlEPService@setup_cnt,c
 10337  011AA6                     i2l5812:
 10338  011AA6  0E07               	movlw	7
 10339  011AA8  644A               	cpfsgt	USBCtrlEPService@setup_cnt,c
 10340  011AAA  D001               	goto	i2l5816
 10341  011AAC  D023               	goto	i2l5824
 10342  011AAE                     i2l5816:
 10343                           
 10344                           ;usb_device.c: 2405: {
 10345                           ;usb_device.c: 2406: *(uint8_t*)((uint8_t*)&SetupPkt + setup_cnt) = *(uint8_t*)((void *)
      +                          (pBDTEntryEP0OutCurrent->ADR));
 10346  011AAE  EE20 F002          	lfsr	2,2
 10347  011AB2  501C               	movf	_pBDTEntryEP0OutCurrent,w,c
 10348  011AB4  26D9               	addwf	fsr2l,f,c
 10349  011AB6  501D               	movf	_pBDTEntryEP0OutCurrent+1,w,c
 10350  011AB8  22DA               	addwfc	fsr2h,f,c
 10351  011ABA  CFDE F048          	movff	postinc2,??_USBCtrlEPService
 10352  011ABE  CFDD F049          	movff	postdec2,??_USBCtrlEPService+1
 10353  011AC2  C048  FFD9         	movff	??_USBCtrlEPService,fsr2l
 10354  011AC6  C049  FFDA         	movff	??_USBCtrlEPService+1,fsr2h
 10355  011ACA  504A               	movf	USBCtrlEPService@setup_cnt,w,c
 10356  011ACC  0D01               	mullw	1
 10357  011ACE  0E30               	movlw	48
 10358  011AD0  24F3               	addwf	prodl,w,c
 10359  011AD2  6EE1               	movwf	fsr1l,c
 10360  011AD4  0E0D               	movlw	13
 10361  011AD6  20F4               	addwfc	prodh,w,c
 10362  011AD8  6EE2               	movwf	fsr1h,c
 10363  011ADA  CFDF FFE7          	movff	indf2,indf1
 10364                           
 10365                           ;usb_device.c: 2407: pBDTEntryEP0OutCurrent->ADR++;
 10366  011ADE  EE20 F002          	lfsr	2,2
 10367  011AE2  501C               	movf	_pBDTEntryEP0OutCurrent,w,c
 10368  011AE4  26D9               	addwf	fsr2l,f,c
 10369  011AE6  501D               	movf	_pBDTEntryEP0OutCurrent+1,w,c
 10370  011AE8  22DA               	addwfc	fsr2h,f,c
 10371  011AEA  2ADE               	incf	postinc2,f,c
 10372  011AEC  0E00               	movlw	0
 10373  011AEE  22DD               	addwfc	postdec2,f,c
 10374  011AF0  2A4A               	incf	USBCtrlEPService@setup_cnt,f,c
 10375  011AF2  D7D9               	goto	i2l5812
 10376  011AF4                     i2l5824:
 10377                           
 10378                           ;usb_device.c: 2408: }
 10379                           ;usb_device.c: 2409: pBDTEntryEP0OutCurrent->ADR = ((uint16_t)(&SetupPkt));
 10380  011AF4  EE20 F002          	lfsr	2,2
 10381  011AF8  501C               	movf	_pBDTEntryEP0OutCurrent,w,c
 10382  011AFA  26D9               	addwf	fsr2l,f,c
 10383  011AFC  501D               	movf	_pBDTEntryEP0OutCurrent+1,w,c
 10384  011AFE  22DA               	addwfc	fsr2h,f,c
 10385  011B00  0E30               	movlw	48
 10386  011B02  6EDE               	movwf	postinc2,c
 10387  011B04  0E0D               	movlw	13
 10388  011B06  6EDD               	movwf	postdec2,c
 10389                           
 10390                           ;usb_device.c: 2412: USBCtrlTrfSetupHandler();
 10391  011B08  EC5E  F093         	call	_USBCtrlTrfSetupHandler	;wreg free
 10392                           
 10393                           ;usb_device.c: 2413: }
 10394  011B0C  0012               	return	
 10395  011B0E                     i2l5828:
 10396                           
 10397                           ;usb_device.c: 2414: else
 10398                           ;usb_device.c: 2415: {
 10399                           ;usb_device.c: 2417: USBCtrlTrfOutHandler();
 10400  011B0E  EC7D  F094         	call	_USBCtrlTrfOutHandler	;wreg free
 10401                           
 10402                           ;usb_device.c: 2418: }
 10403                           ;usb_device.c: 2419: }
 10404  011B12  0012               	return	
 10405  011B14                     i2l5830:
 10406                           
 10407                           ;usb_device.c: 2420: else if((USTATcopy.Val & ~0x02) == 0x04)
 10408  011B14  502D               	movf	_USTATcopy,w,c	;volatile
 10409  011B16  0BFD               	andlw	253
 10410  011B18  0A04               	xorlw	4
 10411  011B1A  A4D8               	btfss	status,2,c
 10412  011B1C  0012               	return	
 10413                           
 10414                           ;usb_device.c: 2421: {
 10415                           ;usb_device.c: 2424: USBCtrlTrfInHandler();
 10416  011B1E  EC2F  F090         	call	_USBCtrlTrfInHandler	;wreg free
 10417  011B22  0012               	return	
 10418  011B24                     __end_of_USBCtrlEPService:
 10419                           	opt stack 0
 10420                           pclatu	equ	0xFFB
 10421                           pclath	equ	0xFFA
 10422                           tblptru	equ	0xFF8
 10423                           tblptrh	equ	0xFF7
 10424                           tblptrl	equ	0xFF6
 10425                           tablat	equ	0xFF5
 10426                           prodh	equ	0xFF4
 10427                           prodl	equ	0xFF3
 10428                           intcon	equ	0xFF2
 10429                           intcon2	equ	0xFF1
 10430                           postinc0	equ	0xFEE
 10431                           fsr0h	equ	0xFEA
 10432                           fsr0l	equ	0xFE9
 10433                           wreg	equ	0xFE8
 10434                           indf1	equ	0xFE7
 10435                           postinc1	equ	0xFE6
 10436                           postdec1	equ	0xFE5
 10437                           fsr1h	equ	0xFE2
 10438                           fsr1l	equ	0xFE1
 10439                           indf2	equ	0xFDF
 10440                           postinc2	equ	0xFDE
 10441                           postdec2	equ	0xFDD
 10442                           plusw2	equ	0xFDB
 10443                           fsr2h	equ	0xFDA
 10444                           fsr2l	equ	0xFD9
 10445                           status	equ	0xFD8
 10446                           
 10447 ;; *************** function _USBCtrlTrfSetupHandler *****************
 10448 ;; Defined at:
 10449 ;;		line 2469 in file "../../../My_library/usb/usb_device.c"
 10450 ;; Parameters:    Size  Location     Type
 10451 ;;		None
 10452 ;; Auto vars:     Size  Location     Type
 10453 ;;		None
 10454 ;; Return value:  Size  Location     Type
 10455 ;;		None               void
 10456 ;; Registers used:
 10457 ;;		wreg, fsr0l, fsr0h, fsr2l, fsr2h, status,2, status,0, tblptrl, tblptrh, tblptru, prodl, prodh, cstack
 10458 ;; Tracked objects:
 10459 ;;		On entry : 0/0
 10460 ;;		On exit  : 0/0
 10461 ;;		Unchanged: 0/0
 10462 ;; Data sizes:     COMRAM   BANK0   BANK1   BANK2   BANK3   BANK4   BANK5   BANK6   BANK7   BANK8   BANK9  BANK10  BANK1
      +1  BANK12  BANK13  BANK14
 10463 ;;      Params:         0       0       0       0       0       0       0       0       0       0       0       0       
      +0       0       0       0
 10464 ;;      Locals:         0       0       0       0       0       0       0       0       0       0       0       0       
      +0       0       0       0
 10465 ;;      Temps:          0       0       0       0       0       0       0       0       0       0       0       0       
      +0       0       0       0
 10466 ;;      Totals:         0       0       0       0       0       0       0       0       0       0       0       0       
      +0       0       0       0
 10467 ;;Total ram usage:        0 bytes
 10468 ;; Hardware stack levels used:    1
 10469 ;; Hardware stack levels required when called:    6
 10470 ;; This function calls:
 10471 ;;		_USBCheckStdRequest
 10472 ;;		_USBCtrlEPServiceComplete
 10473 ;;		_USER_USB_CALLBACK_EVENT_HANDLER
 10474 ;; This function is called by:
 10475 ;;		_USBCtrlEPService
 10476 ;; This function uses a non-reentrant model
 10477 ;;
 10478                           
 10479                           	psect	text58
 10480  0126BC                     __ptext58:
 10481                           	opt stack 0
 10482  0126BC                     _USBCtrlTrfSetupHandler:
 10483                           	opt stack 14
 10484                           
 10485                           ;usb_device.c: 2474: shortPacketStatus = 0;
 10486                           
 10487                           ;incstack = 0
 10488  0126BC  0E00               	movlw	0
 10489  0126BE  6E2B               	movwf	_shortPacketStatus,c	;volatile
 10490                           
 10491                           ;usb_device.c: 2475: USBDeferStatusStagePacket = 0;
 10492  0126C0  0E00               	movlw	0
 10493  0126C2  6E24               	movwf	_USBDeferStatusStagePacket,c	;volatile
 10494                           
 10495                           ;usb_device.c: 2476: USBDeferINDataStagePackets = 0;
 10496  0126C4  0E00               	movlw	0
 10497  0126C6  6E22               	movwf	_USBDeferINDataStagePackets,c	;volatile
 10498                           
 10499                           ;usb_device.c: 2477: USBDeferOUTDataStagePackets = 0;
 10500  0126C8  0E00               	movlw	0
 10501  0126CA  6E23               	movwf	_USBDeferOUTDataStagePackets,c	;volatile
 10502                           
 10503                           ;usb_device.c: 2478: BothEP0OutUOWNsSet = 0;
 10504  0126CC  0E00               	movlw	0
 10505  0126CE  6E20               	movwf	_BothEP0OutUOWNsSet,c	;volatile
 10506                           
 10507                           ;usb_device.c: 2479: controlTransferState = 0;
 10508  0126D0  0E00               	movlw	0
 10509  0126D2  6E29               	movwf	_controlTransferState,c	;volatile
 10510                           
 10511                           ;usb_device.c: 2488: pBDTEntryIn[0]->STAT.Val &= ~(0x80);
 10512  0126D4  C010  FFD9         	movff	_pBDTEntryIn,fsr2l
 10513  0126D8  C011  FFDA         	movff	_pBDTEntryIn+1,fsr2h
 10514  0126DC  0E7F               	movlw	127
 10515  0126DE  16DF               	andwf	indf2,f,c
 10516                           
 10517                           ;usb_device.c: 2489: ((uint8_t_VAL*)&pBDTEntryIn[0])->Val ^= 0x0004;
 10518  0126E0  0E04               	movlw	4
 10519  0126E2  1A10               	xorwf	_pBDTEntryIn,f,c
 10520                           
 10521                           ;usb_device.c: 2490: pBDTEntryIn[0]->STAT.Val &= ~(0x80);
 10522  0126E4  C010  FFD9         	movff	_pBDTEntryIn,fsr2l
 10523  0126E8  C011  FFDA         	movff	_pBDTEntryIn+1,fsr2h
 10524  0126EC  0E7F               	movlw	127
 10525  0126EE  16DF               	andwf	indf2,f,c
 10526                           
 10527                           ;usb_device.c: 2491: ((uint8_t_VAL*)&pBDTEntryIn[0])->Val ^= 0x0004;
 10528  0126F0  0E04               	movlw	4
 10529  0126F2  1A10               	xorwf	_pBDTEntryIn,f,c
 10530                           
 10531                           ;usb_device.c: 2492: pBDTEntryEP0OutNext->STAT.Val &= ~(0x80);
 10532  0126F4  C01E  FFD9         	movff	_pBDTEntryEP0OutNext,fsr2l
 10533  0126F8  C01F  FFDA         	movff	_pBDTEntryEP0OutNext+1,fsr2h
 10534  0126FC  0E7F               	movlw	127
 10535  0126FE  16DF               	andwf	indf2,f,c
 10536                           
 10537                           ;usb_device.c: 2494: inPipes[0].info.Val = 0;
 10538  012700  0E00               	movlw	0
 10539  012702  6E0D               	movwf	_inPipes+3,c	;volatile
 10540                           
 10541                           ;usb_device.c: 2495: inPipes[0].wCount.Val = 0;
 10542  012704  0E00               	movlw	0
 10543  012706  6E0F               	movwf	_inPipes+5,c	;volatile
 10544  012708  0E00               	movlw	0
 10545  01270A  6E0E               	movwf	_inPipes+4,c	;volatile
 10546                           
 10547                           ;usb_device.c: 2496: outPipes[0].info.Val = 0;
 10548  01270C  0E00               	movlw	0
 10549  01270E  6E04               	movwf	_outPipes+3,c	;volatile
 10550                           
 10551                           ;usb_device.c: 2497: outPipes[0].wCount.Val = 0;
 10552  012710  0E00               	movlw	0
 10553  012712  6E06               	movwf	_outPipes+5,c	;volatile
 10554  012714  0E00               	movlw	0
 10555  012716  6E05               	movwf	_outPipes+4,c	;volatile
 10556                           
 10557                           ;usb_device.c: 2503: USBCheckStdRequest();
 10558  012718  ECAA  F08A         	call	_USBCheckStdRequest	;wreg free
 10559                           
 10560                           ;usb_device.c: 2504: USER_USB_CALLBACK_EVENT_HANDLER(EVENT_EP0_REQUEST,0,0);
 10561  01271C  0E00               	movlw	0
 10562  01271E  6E3B               	movwf	USER_USB_CALLBACK_EVENT_HANDLER@event+1,c
 10563  012720  0E03               	movlw	3
 10564  012722  6E3A               	movwf	USER_USB_CALLBACK_EVENT_HANDLER@event,c
 10565  012724  0E00               	movlw	0
 10566  012726  6E3C               	movwf	USER_USB_CALLBACK_EVENT_HANDLER@pdata,c
 10567  012728  0E00               	movlw	0
 10568  01272A  6E3D               	movwf	USER_USB_CALLBACK_EVENT_HANDLER@pdata+1,c
 10569  01272C  0E00               	movlw	0
 10570  01272E  6E3F               	movwf	USER_USB_CALLBACK_EVENT_HANDLER@size+1,c
 10571  012730  0E00               	movlw	0
 10572  012732  6E3E               	movwf	USER_USB_CALLBACK_EVENT_HANDLER@size,c
 10573  012734  EC77  F096         	call	_USER_USB_CALLBACK_EVENT_HANDLER	;wreg free
 10574                           
 10575                           ;usb_device.c: 2517: USBCtrlEPServiceComplete();
 10576  012738  ECF8  F087         	call	_USBCtrlEPServiceComplete	;wreg free
 10577  01273C  0012               	return		;funcret
 10578  01273E                     __end_of_USBCtrlTrfSetupHandler:
 10579                           	opt stack 0
 10580                           pclatu	equ	0xFFB
 10581                           pclath	equ	0xFFA
 10582                           tblptru	equ	0xFF8
 10583                           tblptrh	equ	0xFF7
 10584                           tblptrl	equ	0xFF6
 10585                           tablat	equ	0xFF5
 10586                           prodh	equ	0xFF4
 10587                           prodl	equ	0xFF3
 10588                           intcon	equ	0xFF2
 10589                           intcon2	equ	0xFF1
 10590                           postinc0	equ	0xFEE
 10591                           fsr0h	equ	0xFEA
 10592                           fsr0l	equ	0xFE9
 10593                           wreg	equ	0xFE8
 10594                           indf1	equ	0xFE7
 10595                           postinc1	equ	0xFE6
 10596                           postdec1	equ	0xFE5
 10597                           fsr1h	equ	0xFE2
 10598                           fsr1l	equ	0xFE1
 10599                           indf2	equ	0xFDF
 10600                           postinc2	equ	0xFDE
 10601                           postdec2	equ	0xFDD
 10602                           plusw2	equ	0xFDB
 10603                           fsr2h	equ	0xFDA
 10604                           fsr2l	equ	0xFD9
 10605                           status	equ	0xFD8
 10606                           
 10607 ;; *************** function _USBCtrlEPServiceComplete *****************
 10608 ;; Defined at:
 10609 ;;		line 1616 in file "../../../My_library/usb/usb_device.c"
 10610 ;; Parameters:    Size  Location     Type
 10611 ;;		None
 10612 ;; Auto vars:     Size  Location     Type
 10613 ;;		None
 10614 ;; Return value:  Size  Location     Type
 10615 ;;		None               void
 10616 ;; Registers used:
 10617 ;;		wreg, fsr0l, fsr0h, fsr2l, fsr2h, status,2, status,0, tblptrl, tblptrh, tblptru, cstack
 10618 ;; Tracked objects:
 10619 ;;		On entry : 0/0
 10620 ;;		On exit  : 0/0
 10621 ;;		Unchanged: 0/0
 10622 ;; Data sizes:     COMRAM   BANK0   BANK1   BANK2   BANK3   BANK4   BANK5   BANK6   BANK7   BANK8   BANK9  BANK10  BANK1
      +1  BANK12  BANK13  BANK14
 10623 ;;      Params:         0       0       0       0       0       0       0       0       0       0       0       0       
      +0       0       0       0
 10624 ;;      Locals:         0       0       0       0       0       0       0       0       0       0       0       0       
      +0       0       0       0
 10625 ;;      Temps:          0       0       0       0       0       0       0       0       0       0       0       0       
      +0       0       0       0
 10626 ;;      Totals:         0       0       0       0       0       0       0       0       0       0       0       0       
      +0       0       0       0
 10627 ;;Total ram usage:        0 bytes
 10628 ;; Hardware stack levels used:    1
 10629 ;; Hardware stack levels required when called:    2
 10630 ;; This function calls:
 10631 ;;		_USBCtrlEPAllowDataStage
 10632 ;;		_USBCtrlEPAllowStatusStage
 10633 ;; This function is called by:
 10634 ;;		_USBCtrlTrfSetupHandler
 10635 ;; This function uses a non-reentrant model
 10636 ;;
 10637                           
 10638                           	psect	text59
 10639  010FF0                     __ptext59:
 10640                           	opt stack 0
 10641  010FF0                     _USBCtrlEPServiceComplete:
 10642                           	opt stack 17
 10643                           
 10644                           ;usb_device.c: 1622: UCONbits.PKTDIS = 0;
 10645                           
 10646                           ;incstack = 0
 10647  010FF0  9865               	bcf	3941,4,c	;volatile
 10648                           
 10649                           ;usb_device.c: 1628: if(inPipes[0].info.bits.busy == 0)
 10650  010FF2  BE0D               	btfsc	_inPipes+3,7,c	;volatile
 10651  010FF4  D038               	goto	i2l1050
 10652                           
 10653                           ;usb_device.c: 1629: {
 10654                           ;usb_device.c: 1630: if(outPipes[0].info.bits.busy == 1)
 10655  010FF6  AE04               	btfss	_outPipes+3,7,c	;volatile
 10656  010FF8  D00B               	goto	i2l5126
 10657                           
 10658                           ;usb_device.c: 1631: {
 10659                           ;usb_device.c: 1632: controlTransferState = 2;
 10660  010FFA  0E02               	movlw	2
 10661  010FFC  6E29               	movwf	_controlTransferState,c	;volatile
 10662                           
 10663                           ;usb_device.c: 1643: if(USBDeferOUTDataStagePackets == 0)
 10664  010FFE  5023               	movf	_USBDeferOUTDataStagePackets,w,c	;volatile
 10665  011000  B4D8               	btfsc	status,2,c
 10666                           
 10667                           ;usb_device.c: 1644: {
 10668                           ;usb_device.c: 1645: USBCtrlEPAllowDataStage();
 10669  011002  EC3B  F092         	call	_USBCtrlEPAllowDataStage	;wreg free
 10670                           
 10671                           ;usb_device.c: 1646: }
 10672                           ;usb_device.c: 1650: USBStatusStageEnabledFlag2 = 0;
 10673  011006  0E00               	movlw	0
 10674  011008  6E27               	movwf	_USBStatusStageEnabledFlag2,c	;volatile
 10675                           
 10676                           ;usb_device.c: 1651: USBStatusStageEnabledFlag1 = 0;
 10677  01100A  0E00               	movlw	0
 10678  01100C  6E26               	movwf	_USBStatusStageEnabledFlag1,c	;volatile
 10679                           
 10680                           ;usb_device.c: 1652: }
 10681  01100E  0012               	return	
 10682  011010                     i2l5126:
 10683                           
 10684                           ;usb_device.c: 1653: else
 10685                           ;usb_device.c: 1654: {
 10686                           ;usb_device.c: 1659: pBDTEntryEP0OutNext->CNT = 8;
 10687  011010  EE20 F001          	lfsr	2,1
 10688  011014  501E               	movf	_pBDTEntryEP0OutNext,w,c
 10689  011016  26D9               	addwf	fsr2l,f,c
 10690  011018  501F               	movf	_pBDTEntryEP0OutNext+1,w,c
 10691  01101A  22DA               	addwfc	fsr2h,f,c
 10692  01101C  0E08               	movlw	8
 10693  01101E  6EDF               	movwf	indf2,c
 10694                           
 10695                           ;usb_device.c: 1660: pBDTEntryEP0OutNext->ADR = ((uint16_t)(&SetupPkt));
 10696  011020  EE20 F002          	lfsr	2,2
 10697  011024  501E               	movf	_pBDTEntryEP0OutNext,w,c
 10698  011026  26D9               	addwf	fsr2l,f,c
 10699  011028  501F               	movf	_pBDTEntryEP0OutNext+1,w,c
 10700  01102A  22DA               	addwfc	fsr2h,f,c
 10701  01102C  0E30               	movlw	48
 10702  01102E  6EDE               	movwf	postinc2,c
 10703  011030  0E0D               	movlw	13
 10704  011032  6EDD               	movwf	postdec2,c
 10705                           
 10706                           ;usb_device.c: 1661: pBDTEntryEP0OutNext->STAT.Val = 0x00|(0x08 & 0x08)|0x04;
 10707  011034  C01E  FFD9         	movff	_pBDTEntryEP0OutNext,fsr2l
 10708  011038  C01F  FFDA         	movff	_pBDTEntryEP0OutNext+1,fsr2h
 10709  01103C  0E0C               	movlw	12
 10710  01103E  6EDF               	movwf	indf2,c
 10711                           
 10712                           ;usb_device.c: 1662: pBDTEntryEP0OutNext->STAT.Val |= 0x80;
 10713  011040  C01E  FFD9         	movff	_pBDTEntryEP0OutNext,fsr2l
 10714  011044  C01F  FFDA         	movff	_pBDTEntryEP0OutNext+1,fsr2h
 10715  011048  0E00               	movlw	0
 10716  01104A  8EDB               	bsf	plusw2,7,c
 10717                           
 10718                           ;usb_device.c: 1663: pBDTEntryIn[0]->STAT.Val = 0x04;
 10719  01104C  C010  FFD9         	movff	_pBDTEntryIn,fsr2l
 10720  011050  C011  FFDA         	movff	_pBDTEntryIn+1,fsr2h
 10721  011054  0E04               	movlw	4
 10722  011056  6EDF               	movwf	indf2,c
 10723                           
 10724                           ;usb_device.c: 1664: pBDTEntryIn[0]->STAT.Val |= 0x80;
 10725  011058  C010  FFD9         	movff	_pBDTEntryIn,fsr2l
 10726  01105C  C011  FFDA         	movff	_pBDTEntryIn+1,fsr2h
 10727  011060  0E00               	movlw	0
 10728  011062  8EDB               	bsf	plusw2,7,c
 10729                           
 10730                           ;usb_device.c: 1665: }
 10731                           ;usb_device.c: 1666: }
 10732  011064  0012               	return	
 10733  011066                     i2l1050:
 10734                           
 10735                           ;usb_device.c: 1667: else
 10736                           ;usb_device.c: 1668: {
 10737                           ;usb_device.c: 1669: if(SetupPkt.DataDir == (0x80>>7))
 10738  011066  010D               	movlb	13	; () banked
 10739  011068  AF30               	btfss	48,7,b	;volatile
 10740  01106A  D010               	goto	i2l5146
 10741                           
 10742                           ; BSR set to: 13
 10743                           ;usb_device.c: 1670: {
 10744                           ;usb_device.c: 1671: controlTransferState = 1;
 10745  01106C  0E01               	movlw	1
 10746  01106E  6E29               	movwf	_controlTransferState,c	;volatile
 10747                           
 10748                           ;usb_device.c: 1685: if(USBDeferINDataStagePackets == 0)
 10749  011070  5022               	movf	_USBDeferINDataStagePackets,w,c	;volatile
 10750  011072  B4D8               	btfsc	status,2,c
 10751                           
 10752                           ; BSR set to: 13
 10753                           ;usb_device.c: 1686: {
 10754                           ;usb_device.c: 1687: USBCtrlEPAllowDataStage();
 10755  011074  EC3B  F092         	call	_USBCtrlEPAllowDataStage	;wreg free
 10756                           
 10757                           ;usb_device.c: 1688: }
 10758                           ;usb_device.c: 1710: USBStatusStageEnabledFlag2 = 0;
 10759  011078  0E00               	movlw	0
 10760  01107A  6E27               	movwf	_USBStatusStageEnabledFlag2,c	;volatile
 10761                           
 10762                           ;usb_device.c: 1711: USBStatusStageEnabledFlag1 = 0;
 10763  01107C  0E00               	movlw	0
 10764  01107E  6E26               	movwf	_USBStatusStageEnabledFlag1,c	;volatile
 10765                           
 10766                           ;usb_device.c: 1712: if(USBDeferStatusStagePacket == 0)
 10767  011080  5024               	movf	_USBDeferStatusStagePacket,w,c	;volatile
 10768  011082  A4D8               	btfss	status,2,c
 10769  011084  0012               	return	
 10770                           
 10771                           ;usb_device.c: 1713: {
 10772                           ;usb_device.c: 1714: USBCtrlEPAllowStatusStage();
 10773  011086  ECF8  F08D         	call	_USBCtrlEPAllowStatusStage	;wreg free
 10774                           
 10775                           ;usb_device.c: 1715: }
 10776                           ;usb_device.c: 1716: }
 10777  01108A  0012               	return	
 10778  01108C                     i2l5146:
 10779                           
 10780                           ;usb_device.c: 1717: else
 10781                           ;usb_device.c: 1718: {
 10782                           ;usb_device.c: 1729: controlTransferState = 2;
 10783  01108C  0E02               	movlw	2
 10784  01108E  6E29               	movwf	_controlTransferState,c	;volatile
 10785                           
 10786                           ;usb_device.c: 1732: pBDTEntryEP0OutNext->CNT = 8;
 10787  011090  EE20 F001          	lfsr	2,1
 10788  011094  501E               	movf	_pBDTEntryEP0OutNext,w,c
 10789  011096  26D9               	addwf	fsr2l,f,c
 10790  011098  501F               	movf	_pBDTEntryEP0OutNext+1,w,c
 10791  01109A  22DA               	addwfc	fsr2h,f,c
 10792  01109C  0E08               	movlw	8
 10793  01109E  6EDF               	movwf	indf2,c
 10794                           
 10795                           ;usb_device.c: 1733: pBDTEntryEP0OutNext->ADR = ((uint16_t)(&SetupPkt));
 10796  0110A0  EE20 F002          	lfsr	2,2
 10797  0110A4  501E               	movf	_pBDTEntryEP0OutNext,w,c
 10798  0110A6  26D9               	addwf	fsr2l,f,c
 10799  0110A8  501F               	movf	_pBDTEntryEP0OutNext+1,w,c
 10800  0110AA  22DA               	addwfc	fsr2h,f,c
 10801  0110AC  0E30               	movlw	48
 10802  0110AE  6EDE               	movwf	postinc2,c
 10803  0110B0  0E0D               	movlw	13
 10804  0110B2  6EDD               	movwf	postdec2,c
 10805                           
 10806                           ;usb_device.c: 1734: pBDTEntryEP0OutNext->STAT.Val = 0x04;
 10807  0110B4  C01E  FFD9         	movff	_pBDTEntryEP0OutNext,fsr2l
 10808  0110B8  C01F  FFDA         	movff	_pBDTEntryEP0OutNext+1,fsr2h
 10809  0110BC  0E04               	movlw	4
 10810  0110BE  6EDF               	movwf	indf2,c
 10811                           
 10812                           ;usb_device.c: 1735: pBDTEntryEP0OutNext->STAT.Val |= 0x80;
 10813  0110C0  C01E  FFD9         	movff	_pBDTEntryEP0OutNext,fsr2l
 10814  0110C4  C01F  FFDA         	movff	_pBDTEntryEP0OutNext+1,fsr2h
 10815  0110C8  0E00               	movlw	0
 10816  0110CA  8EDB               	bsf	plusw2,7,c
 10817                           
 10818                           ;usb_device.c: 1738: USBStatusStageEnabledFlag2 = 0;
 10819  0110CC  0E00               	movlw	0
 10820  0110CE  6E27               	movwf	_USBStatusStageEnabledFlag2,c	;volatile
 10821                           
 10822                           ;usb_device.c: 1739: USBStatusStageEnabledFlag1 = 0;
 10823  0110D0  0E00               	movlw	0
 10824  0110D2  6E26               	movwf	_USBStatusStageEnabledFlag1,c	;volatile
 10825                           
 10826                           ;usb_device.c: 1740: if(USBDeferStatusStagePacket == 0)
 10827  0110D4  5024               	movf	_USBDeferStatusStagePacket,w,c	;volatile
 10828  0110D6  A4D8               	btfss	status,2,c
 10829  0110D8  0012               	return	
 10830                           
 10831                           ;usb_device.c: 1741: {
 10832                           ;usb_device.c: 1742: USBCtrlEPAllowStatusStage();
 10833  0110DA  ECF8  F08D         	call	_USBCtrlEPAllowStatusStage	;wreg free
 10834  0110DE  0012               	return	
 10835  0110E0                     __end_of_USBCtrlEPServiceComplete:
 10836                           	opt stack 0
 10837                           pclatu	equ	0xFFB
 10838                           pclath	equ	0xFFA
 10839                           tblptru	equ	0xFF8
 10840                           tblptrh	equ	0xFF7
 10841                           tblptrl	equ	0xFF6
 10842                           tablat	equ	0xFF5
 10843                           prodh	equ	0xFF4
 10844                           prodl	equ	0xFF3
 10845                           intcon	equ	0xFF2
 10846                           intcon2	equ	0xFF1
 10847                           postinc0	equ	0xFEE
 10848                           fsr0h	equ	0xFEA
 10849                           fsr0l	equ	0xFE9
 10850                           wreg	equ	0xFE8
 10851                           indf1	equ	0xFE7
 10852                           postinc1	equ	0xFE6
 10853                           postdec1	equ	0xFE5
 10854                           fsr1h	equ	0xFE2
 10855                           fsr1l	equ	0xFE1
 10856                           indf2	equ	0xFDF
 10857                           postinc2	equ	0xFDE
 10858                           postdec2	equ	0xFDD
 10859                           plusw2	equ	0xFDB
 10860                           fsr2h	equ	0xFDA
 10861                           fsr2l	equ	0xFD9
 10862                           status	equ	0xFD8
 10863                           
 10864 ;; *************** function _USBCtrlEPAllowDataStage *****************
 10865 ;; Defined at:
 10866 ;;		line 1488 in file "../../../My_library/usb/usb_device.c"
 10867 ;; Parameters:    Size  Location     Type
 10868 ;;		None
 10869 ;; Auto vars:     Size  Location     Type
 10870 ;;		None
 10871 ;; Return value:  Size  Location     Type
 10872 ;;		None               void
 10873 ;; Registers used:
 10874 ;;		wreg, fsr0l, fsr0h, fsr2l, fsr2h, status,2, status,0, tblptrl, tblptrh, tblptru, cstack
 10875 ;; Tracked objects:
 10876 ;;		On entry : 0/0
 10877 ;;		On exit  : 0/0
 10878 ;;		Unchanged: 0/0
 10879 ;; Data sizes:     COMRAM   BANK0   BANK1   BANK2   BANK3   BANK4   BANK5   BANK6   BANK7   BANK8   BANK9  BANK10  BANK1
      +1  BANK12  BANK13  BANK14
 10880 ;;      Params:         0       0       0       0       0       0       0       0       0       0       0       0       
      +0       0       0       0
 10881 ;;      Locals:         0       0       0       0       0       0       0       0       0       0       0       0       
      +0       0       0       0
 10882 ;;      Temps:          0       0       0       0       0       0       0       0       0       0       0       0       
      +0       0       0       0
 10883 ;;      Totals:         0       0       0       0       0       0       0       0       0       0       0       0       
      +0       0       0       0
 10884 ;;Total ram usage:        0 bytes
 10885 ;; Hardware stack levels used:    1
 10886 ;; Hardware stack levels required when called:    1
 10887 ;; This function calls:
 10888 ;;		_USBCtrlTrfTxService
 10889 ;; This function is called by:
 10890 ;;		_USBCtrlEPServiceComplete
 10891 ;; This function uses a non-reentrant model
 10892 ;;
 10893                           
 10894                           	psect	text60
 10895  012476                     __ptext60:
 10896                           	opt stack 0
 10897  012476                     _USBCtrlEPAllowDataStage:
 10898                           	opt stack 17
 10899                           
 10900                           ;usb_device.c: 1490: USBDeferINDataStagePackets = 0;
 10901                           
 10902                           ;incstack = 0
 10903  012476  0E00               	movlw	0
 10904  012478  6E22               	movwf	_USBDeferINDataStagePackets,c	;volatile
 10905                           
 10906                           ;usb_device.c: 1491: USBDeferOUTDataStagePackets = 0;
 10907  01247A  0E00               	movlw	0
 10908  01247C  6E23               	movwf	_USBDeferOUTDataStagePackets,c	;volatile
 10909                           
 10910                           ;usb_device.c: 1493: if(controlTransferState == 2)
 10911  01247E  0E02               	movlw	2
 10912  012480  1829               	xorwf	_controlTransferState,w,c	;volatile
 10913  012482  A4D8               	btfss	status,2,c
 10914  012484  D01F               	goto	i2l4894
 10915                           
 10916                           ;usb_device.c: 1494: {
 10917                           ;usb_device.c: 1496: pBDTEntryEP0OutNext->CNT = 8;
 10918  012486  EE20 F001          	lfsr	2,1
 10919  01248A  501E               	movf	_pBDTEntryEP0OutNext,w,c
 10920  01248C  26D9               	addwf	fsr2l,f,c
 10921  01248E  501F               	movf	_pBDTEntryEP0OutNext+1,w,c
 10922  012490  22DA               	addwfc	fsr2h,f,c
 10923  012492  0E08               	movlw	8
 10924  012494  6EDF               	movwf	indf2,c
 10925                           
 10926                           ;usb_device.c: 1497: pBDTEntryEP0OutNext->ADR = ((uint16_t)(&CtrlTrfData));
 10927  012496  EE20 F002          	lfsr	2,2
 10928  01249A  501E               	movf	_pBDTEntryEP0OutNext,w,c
 10929  01249C  26D9               	addwf	fsr2l,f,c
 10930  01249E  501F               	movf	_pBDTEntryEP0OutNext+1,w,c
 10931  0124A0  22DA               	addwfc	fsr2h,f,c
 10932  0124A2  0E38               	movlw	56
 10933  0124A4  6EDE               	movwf	postinc2,c
 10934  0124A6  0E0D               	movlw	13
 10935  0124A8  6EDD               	movwf	postdec2,c
 10936                           
 10937                           ;usb_device.c: 1498: pBDTEntryEP0OutNext->STAT.Val = 0x40|(0x08 & 0x08);
 10938  0124AA  C01E  FFD9         	movff	_pBDTEntryEP0OutNext,fsr2l
 10939  0124AE  C01F  FFDA         	movff	_pBDTEntryEP0OutNext+1,fsr2h
 10940  0124B2  0E48               	movlw	72
 10941  0124B4  6EDF               	movwf	indf2,c
 10942                           
 10943                           ;usb_device.c: 1499: pBDTEntryEP0OutNext->STAT.Val |= 0x80;
 10944  0124B6  C01E  FFD9         	movff	_pBDTEntryEP0OutNext,fsr2l
 10945  0124BA  C01F  FFDA         	movff	_pBDTEntryEP0OutNext+1,fsr2h
 10946  0124BE  0E00               	movlw	0
 10947  0124C0  8EDB               	bsf	plusw2,7,c
 10948                           
 10949                           ;usb_device.c: 1500: }
 10950  0124C2  0012               	return	
 10951  0124C4                     i2l4894:
 10952                           
 10953                           ;usb_device.c: 1501: else
 10954                           ;usb_device.c: 1502: {
 10955                           ;usb_device.c: 1505: if(SetupPkt.wLength < inPipes[0].wCount.Val)
 10956  0124C4  500E               	movf	_inPipes+4,w,c	;volatile
 10957  0124C6  010D               	movlb	13	; () banked
 10958  0124C8  5D36               	subwf	54,w,b	;volatile
 10959  0124CA  500F               	movf	_inPipes+5,w,c	;volatile
 10960  0124CC  010D               	movlb	13	; () banked
 10961  0124CE  5937               	subwfb	55,w,b	;volatile
 10962  0124D0  B0D8               	btfsc	status,0,c
 10963  0124D2  D004               	goto	i2l4898
 10964                           
 10965                           ; BSR set to: 13
 10966                           ;usb_device.c: 1506: {
 10967                           ;usb_device.c: 1507: inPipes[0].wCount.Val = SetupPkt.wLength;
 10968  0124D4  CD36 F00E          	movff	3382,_inPipes+4	;volatile
 10969  0124D8  CD37 F00F          	movff	3383,_inPipes+5	;volatile
 10970  0124DC                     i2l4898:
 10971                           
 10972                           ; BSR set to: 13
 10973                           ;usb_device.c: 1508: }
 10974                           ;usb_device.c: 1509: USBCtrlTrfTxService();
 10975  0124DC  ECC2  F08C         	call	_USBCtrlTrfTxService	;wreg free
 10976                           
 10977                           ;usb_device.c: 1514: pBDTEntryIn[0]->ADR = ((uint16_t)(&CtrlTrfData));
 10978  0124E0  EE20 F002          	lfsr	2,2
 10979  0124E4  5010               	movf	_pBDTEntryIn,w,c
 10980  0124E6  26D9               	addwf	fsr2l,f,c
 10981  0124E8  5011               	movf	_pBDTEntryIn+1,w,c
 10982  0124EA  22DA               	addwfc	fsr2h,f,c
 10983  0124EC  0E38               	movlw	56
 10984  0124EE  6EDE               	movwf	postinc2,c
 10985  0124F0  0E0D               	movlw	13
 10986  0124F2  6EDD               	movwf	postdec2,c
 10987                           
 10988                           ;usb_device.c: 1515: pBDTEntryIn[0]->STAT.Val = 0x40|(0x08 & 0x08);
 10989  0124F4  C010  FFD9         	movff	_pBDTEntryIn,fsr2l
 10990  0124F8  C011  FFDA         	movff	_pBDTEntryIn+1,fsr2h
 10991  0124FC  0E48               	movlw	72
 10992  0124FE  6EDF               	movwf	indf2,c
 10993                           
 10994                           ;usb_device.c: 1516: pBDTEntryIn[0]->STAT.Val |= 0x80;
 10995  012500  C010  FFD9         	movff	_pBDTEntryIn,fsr2l
 10996  012504  C011  FFDA         	movff	_pBDTEntryIn+1,fsr2h
 10997  012508  0E00               	movlw	0
 10998  01250A  8EDB               	bsf	plusw2,7,c
 10999  01250C  0012               	return	
 11000  01250E                     __end_of_USBCtrlEPAllowDataStage:
 11001                           	opt stack 0
 11002                           pclatu	equ	0xFFB
 11003                           pclath	equ	0xFFA
 11004                           tblptru	equ	0xFF8
 11005                           tblptrh	equ	0xFF7
 11006                           tblptrl	equ	0xFF6
 11007                           tablat	equ	0xFF5
 11008                           prodh	equ	0xFF4
 11009                           prodl	equ	0xFF3
 11010                           intcon	equ	0xFF2
 11011                           intcon2	equ	0xFF1
 11012                           postinc0	equ	0xFEE
 11013                           fsr0h	equ	0xFEA
 11014                           fsr0l	equ	0xFE9
 11015                           wreg	equ	0xFE8
 11016                           indf1	equ	0xFE7
 11017                           postinc1	equ	0xFE6
 11018                           postdec1	equ	0xFE5
 11019                           fsr1h	equ	0xFE2
 11020                           fsr1l	equ	0xFE1
 11021                           indf2	equ	0xFDF
 11022                           postinc2	equ	0xFDE
 11023                           postdec2	equ	0xFDD
 11024                           plusw2	equ	0xFDB
 11025                           fsr2h	equ	0xFDA
 11026                           fsr2l	equ	0xFD9
 11027                           status	equ	0xFD8
 11028                           
 11029 ;; *************** function _USBCheckStdRequest *****************
 11030 ;; Defined at:
 11031 ;;		line 2689 in file "../../../My_library/usb/usb_device.c"
 11032 ;; Parameters:    Size  Location     Type
 11033 ;;		None
 11034 ;; Auto vars:     Size  Location     Type
 11035 ;;		None
 11036 ;; Return value:  Size  Location     Type
 11037 ;;		None               void
 11038 ;; Registers used:
 11039 ;;		wreg, fsr0l, fsr0h, fsr2l, fsr2h, status,2, status,0, tblptrl, tblptrh, tblptru, prodl, prodh, cstack
 11040 ;; Tracked objects:
 11041 ;;		On entry : 0/0
 11042 ;;		On exit  : 0/0
 11043 ;;		Unchanged: 0/0
 11044 ;; Data sizes:     COMRAM   BANK0   BANK1   BANK2   BANK3   BANK4   BANK5   BANK6   BANK7   BANK8   BANK9  BANK10  BANK1
      +1  BANK12  BANK13  BANK14
 11045 ;;      Params:         0       0       0       0       0       0       0       0       0       0       0       0       
      +0       0       0       0
 11046 ;;      Locals:         0       0       0       0       0       0       0       0       0       0       0       0       
      +0       0       0       0
 11047 ;;      Temps:          0       0       0       0       0       0       0       0       0       0       0       0       
      +0       0       0       0
 11048 ;;      Totals:         0       0       0       0       0       0       0       0       0       0       0       0       
      +0       0       0       0
 11049 ;;Total ram usage:        0 bytes
 11050 ;; Hardware stack levels used:    1
 11051 ;; Hardware stack levels required when called:    5
 11052 ;; This function calls:
 11053 ;;		_USBStdFeatureReqHandler
 11054 ;;		_USBStdGetDscHandler
 11055 ;;		_USBStdGetStatusHandler
 11056 ;;		_USBStdSetCfgHandler
 11057 ;;		_USER_USB_CALLBACK_EVENT_HANDLER
 11058 ;; This function is called by:
 11059 ;;		_USBCtrlTrfSetupHandler
 11060 ;; This function uses a non-reentrant model
 11061 ;;
 11062                           
 11063                           	psect	text61
 11064  011554                     __ptext61:
 11065                           	opt stack 0
 11066  011554                     _USBCheckStdRequest:
 11067                           	opt stack 14
 11068                           
 11069                           ;usb_device.c: 2691: if(SetupPkt.RequestType != (0x00>>5)) return;
 11070                           
 11071                           ;incstack = 0
 11072  011554  010D               	movlb	13	; () banked
 11073  011556  3930               	swapf	48,w,b	;volatile
 11074  011558  32E8               	rrcf	wreg,f,c
 11075  01155A  0B03               	andlw	3
 11076  01155C  0900               	iorlw	0
 11077  01155E  A4D8               	btfss	status,2,c
 11078  011560  0012               	return	
 11079  011562  D043               	goto	i2l5244
 11080  011564                     i2l1177:
 11081                           
 11082                           ; BSR set to: 13
 11083                           ;usb_device.c: 2696: inPipes[0].info.bits.busy = 1;
 11084  011564  8E0D               	bsf	_inPipes+3,7,c	;volatile
 11085                           
 11086                           ; BSR set to: 13
 11087                           ;usb_device.c: 2697: USBDeviceState = ADR_PENDING_STATE;
 11088  011566  0E08               	movlw	8
 11089  011568  6E25               	movwf	_USBDeviceState,c	;volatile
 11090                           
 11091                           ;usb_device.c: 2699: break;
 11092  01156A  0012               	return	
 11093  01156C                     i2l5214:
 11094                           
 11095                           ; BSR set to: 13
 11096                           ;usb_device.c: 2701: USBStdGetDscHandler();
 11097  01156C  ECD9  F086         	call	_USBStdGetDscHandler	;wreg free
 11098                           
 11099                           ;usb_device.c: 2702: break;
 11100  011570  0012               	return	
 11101  011572                     i2l5216:
 11102                           
 11103                           ;usb_device.c: 2704: USBStdSetCfgHandler();
 11104  011572  EC3C  F08A         	call	_USBStdSetCfgHandler	;wreg free
 11105                           
 11106                           ;usb_device.c: 2705: break;
 11107  011576  0012               	return	
 11108  011578                     i2l5218:
 11109                           
 11110                           ;usb_device.c: 2707: inPipes[0].pSrc.bRam = (uint8_t*)&USBActiveConfiguration;
 11111  011578  0E2C               	movlw	low _USBActiveConfiguration
 11112  01157A  6E0A               	movwf	_inPipes,c	;volatile
 11113  01157C  0E00               	movlw	high _USBActiveConfiguration
 11114  01157E  6E0B               	movwf	_inPipes+1,c	;volatile
 11115                           
 11116                           ;usb_device.c: 2708: inPipes[0].info.bits.ctrl_trf_mem = 0x01;
 11117  011580  800D               	bsf	_inPipes+3,0,c	;volatile
 11118                           
 11119                           ;usb_device.c: 2709: inPipes[0].wCount.v[0] = 1;
 11120  011582  0E01               	movlw	1
 11121  011584  6E0E               	movwf	_inPipes+4,c	;volatile
 11122                           
 11123                           ;usb_device.c: 2710: inPipes[0].info.bits.busy = 1;
 11124  011586  8E0D               	bsf	_inPipes+3,7,c	;volatile
 11125                           
 11126                           ;usb_device.c: 2711: break;
 11127  011588  0012               	return	
 11128  01158A                     i2l5226:
 11129                           
 11130                           ;usb_device.c: 2713: USBStdGetStatusHandler();
 11131  01158A  EC95  F091         	call	_USBStdGetStatusHandler	;wreg free
 11132                           
 11133                           ;usb_device.c: 2714: break;
 11134  01158E  0012               	return	
 11135  011590                     i2l5228:
 11136                           
 11137                           ;usb_device.c: 2716: case 3:
 11138                           ;usb_device.c: 2717: USBStdFeatureReqHandler();
 11139  011590  EC47  F081         	call	_USBStdFeatureReqHandler	;wreg free
 11140                           
 11141                           ;usb_device.c: 2718: break;
 11142  011594  0012               	return	
 11143  011596                     i2l5230:
 11144                           
 11145                           ;usb_device.c: 2720: inPipes[0].pSrc.bRam = (uint8_t*)&USBAlternateInterface[SetupPkt.bI
      +                          ntfID];
 11146  011596  010D               	movlb	13	; () banked
 11147  011598  5134               	movf	52,w,b	;volatile
 11148  01159A  0D01               	mullw	1
 11149  01159C  0EC7               	movlw	low _USBAlternateInterface
 11150  01159E  24F3               	addwf	prodl,w,c
 11151  0115A0  6E0A               	movwf	_inPipes,c	;volatile
 11152  0115A2  0E00               	movlw	high _USBAlternateInterface
 11153  0115A4  20F4               	addwfc	prodh,w,c
 11154  0115A6  6E0B               	movwf	_inPipes+1,c	;volatile
 11155                           
 11156                           ; BSR set to: 13
 11157                           ;usb_device.c: 2721: inPipes[0].info.bits.ctrl_trf_mem = 0x01;
 11158  0115A8  800D               	bsf	_inPipes+3,0,c	;volatile
 11159                           
 11160                           ; BSR set to: 13
 11161                           ;usb_device.c: 2722: inPipes[0].wCount.v[0] = 1;
 11162  0115AA  0E01               	movlw	1
 11163  0115AC  6E0E               	movwf	_inPipes+4,c	;volatile
 11164                           
 11165                           ; BSR set to: 13
 11166                           ;usb_device.c: 2723: inPipes[0].info.bits.busy = 1;
 11167  0115AE  8E0D               	bsf	_inPipes+3,7,c	;volatile
 11168                           
 11169                           ;usb_device.c: 2724: break;
 11170  0115B0  0012               	return	
 11171  0115B2                     i2l1186:
 11172                           
 11173                           ; BSR set to: 13
 11174                           ;usb_device.c: 2726: inPipes[0].info.bits.busy = 1;
 11175  0115B2  8E0D               	bsf	_inPipes+3,7,c	;volatile
 11176                           
 11177                           ; BSR set to: 13
 11178                           ;usb_device.c: 2727: USBAlternateInterface[SetupPkt.bIntfID] = SetupPkt.bAltID;
 11179  0115B4  010D               	movlb	13	; () banked
 11180  0115B6  5134               	movf	52,w,b	;volatile
 11181  0115B8  0D01               	mullw	1
 11182  0115BA  0EC7               	movlw	low _USBAlternateInterface
 11183  0115BC  24F3               	addwf	prodl,w,c
 11184  0115BE  6ED9               	movwf	fsr2l,c
 11185  0115C0  0E00               	movlw	high _USBAlternateInterface
 11186  0115C2  20F4               	addwfc	prodh,w,c
 11187  0115C4  6EDA               	movwf	fsr2h,c
 11188  0115C6  CD32 FFDF          	movff	3378,indf2	;volatile
 11189                           
 11190                           ;usb_device.c: 2728: break;
 11191  0115CA  0012               	return	
 11192  0115CC                     i2l5240:
 11193                           
 11194                           ; BSR set to: 13
 11195                           ;usb_device.c: 2730: USER_USB_CALLBACK_EVENT_HANDLER(EVENT_SET_DESCRIPTOR,0,0);
 11196  0115CC  0E00               	movlw	0
 11197  0115CE  6E3B               	movwf	USER_USB_CALLBACK_EVENT_HANDLER@event+1,c
 11198  0115D0  0E02               	movlw	2
 11199  0115D2  6E3A               	movwf	USER_USB_CALLBACK_EVENT_HANDLER@event,c
 11200  0115D4  0E00               	movlw	0
 11201  0115D6  6E3C               	movwf	USER_USB_CALLBACK_EVENT_HANDLER@pdata,c
 11202  0115D8  0E00               	movlw	0
 11203  0115DA  6E3D               	movwf	USER_USB_CALLBACK_EVENT_HANDLER@pdata+1,c
 11204  0115DC  0E00               	movlw	0
 11205  0115DE  6E3F               	movwf	USER_USB_CALLBACK_EVENT_HANDLER@size+1,c
 11206  0115E0  0E00               	movlw	0
 11207  0115E2  6E3E               	movwf	USER_USB_CALLBACK_EVENT_HANDLER@size,c
 11208  0115E4  EC77  F096         	call	_USER_USB_CALLBACK_EVENT_HANDLER	;wreg free
 11209                           
 11210                           ;usb_device.c: 2735: }
 11211                           
 11212                           ;usb_device.c: 2734: break;
 11213                           
 11214                           ;usb_device.c: 2733: default:
 11215                           
 11216                           ;usb_device.c: 2732: case 12:
 11217                           
 11218                           ;usb_device.c: 2731: break;
 11219  0115E8  0012               	return	
 11220  0115EA                     i2l5244:
 11221  0115EA  010D               	movlb	13	; () banked
 11222  0115EC  5131               	movf	49,w,b	;volatile
 11223                           
 11224                           ; Switch size 1, requested type "space"
 11225                           ; Number of cases is 11, Range of values is 0 to 12
 11226                           ; switch strategies available:
 11227                           ; Name         Instructions Cycles
 11228                           ; simple_byte           34    18 (average)
 11229                           ;	Chosen strategy is simple_byte
 11230  0115EE  0A00               	xorlw	0	; case 0
 11231  0115F0  B4D8               	btfsc	status,2,c
 11232  0115F2  D7CB               	goto	i2l5226
 11233  0115F4  0A01               	xorlw	1	; case 1
 11234  0115F6  B4D8               	btfsc	status,2,c
 11235  0115F8  D7CB               	goto	i2l5228
 11236  0115FA  0A02               	xorlw	2	; case 3
 11237  0115FC  B4D8               	btfsc	status,2,c
 11238  0115FE  D7C8               	goto	i2l5228
 11239  011600  0A06               	xorlw	6	; case 5
 11240  011602  B4D8               	btfsc	status,2,c
 11241  011604  D7AF               	goto	i2l1177
 11242  011606  0A03               	xorlw	3	; case 6
 11243  011608  B4D8               	btfsc	status,2,c
 11244  01160A  D7B0               	goto	i2l5214
 11245  01160C  0A01               	xorlw	1	; case 7
 11246  01160E  B4D8               	btfsc	status,2,c
 11247  011610  D7DD               	goto	i2l5240
 11248  011612  0A0F               	xorlw	15	; case 8
 11249  011614  B4D8               	btfsc	status,2,c
 11250  011616  D7B0               	goto	i2l5218
 11251  011618  0A01               	xorlw	1	; case 9
 11252  01161A  B4D8               	btfsc	status,2,c
 11253  01161C  D7AA               	goto	i2l5216
 11254  01161E  0A03               	xorlw	3	; case 10
 11255  011620  B4D8               	btfsc	status,2,c
 11256  011622  D7B9               	goto	i2l5230
 11257  011624  0A01               	xorlw	1	; case 11
 11258  011626  B4D8               	btfsc	status,2,c
 11259  011628  D7C4               	goto	i2l1186
 11260  01162A  0A07               	xorlw	7	; case 12
 11261  01162C  0012               	return	
 11262  01162E                     __end_of_USBCheckStdRequest:
 11263                           	opt stack 0
 11264                           pclatu	equ	0xFFB
 11265                           pclath	equ	0xFFA
 11266                           tblptru	equ	0xFF8
 11267                           tblptrh	equ	0xFF7
 11268                           tblptrl	equ	0xFF6
 11269                           tablat	equ	0xFF5
 11270                           prodh	equ	0xFF4
 11271                           prodl	equ	0xFF3
 11272                           intcon	equ	0xFF2
 11273                           intcon2	equ	0xFF1
 11274                           postinc0	equ	0xFEE
 11275                           fsr0h	equ	0xFEA
 11276                           fsr0l	equ	0xFE9
 11277                           wreg	equ	0xFE8
 11278                           indf1	equ	0xFE7
 11279                           postinc1	equ	0xFE6
 11280                           postdec1	equ	0xFE5
 11281                           fsr1h	equ	0xFE2
 11282                           fsr1l	equ	0xFE1
 11283                           indf2	equ	0xFDF
 11284                           postinc2	equ	0xFDE
 11285                           postdec2	equ	0xFDD
 11286                           plusw2	equ	0xFDB
 11287                           fsr2h	equ	0xFDA
 11288                           fsr2l	equ	0xFD9
 11289                           status	equ	0xFD8
 11290                           
 11291 ;; *************** function _USBStdSetCfgHandler *****************
 11292 ;; Defined at:
 11293 ;;		line 1968 in file "../../../My_library/usb/usb_device.c"
 11294 ;; Parameters:    Size  Location     Type
 11295 ;;		None
 11296 ;; Auto vars:     Size  Location     Type
 11297 ;;  i               1   20[COMRAM] unsigned char 
 11298 ;; Return value:  Size  Location     Type
 11299 ;;		None               void
 11300 ;; Registers used:
 11301 ;;		wreg, fsr2l, fsr2h, status,2, status,0, prodl, prodh, cstack
 11302 ;; Tracked objects:
 11303 ;;		On entry : 0/0
 11304 ;;		On exit  : 0/0
 11305 ;;		Unchanged: 0/0
 11306 ;; Data sizes:     COMRAM   BANK0   BANK1   BANK2   BANK3   BANK4   BANK5   BANK6   BANK7   BANK8   BANK9  BANK10  BANK1
      +1  BANK12  BANK13  BANK14
 11307 ;;      Params:         0       0       0       0       0       0       0       0       0       0       0       0       
      +0       0       0       0
 11308 ;;      Locals:         1       0       0       0       0       0       0       0       0       0       0       0       
      +0       0       0       0
 11309 ;;      Temps:          0       0       0       0       0       0       0       0       0       0       0       0       
      +0       0       0       0
 11310 ;;      Totals:         1       0       0       0       0       0       0       0       0       0       0       0       
      +0       0       0       0
 11311 ;;Total ram usage:        1 bytes
 11312 ;; Hardware stack levels used:    1
 11313 ;; Hardware stack levels required when called:    4
 11314 ;; This function calls:
 11315 ;;		_USER_USB_CALLBACK_EVENT_HANDLER
 11316 ;;		i2_memset
 11317 ;; This function is called by:
 11318 ;;		_USBCheckStdRequest
 11319 ;; This function uses a non-reentrant model
 11320 ;;
 11321                           
 11322                           	psect	text62
 11323  011478                     __ptext62:
 11324                           	opt stack 0
 11325  011478                     _USBStdSetCfgHandler:
 11326                           	opt stack 14
 11327                           
 11328                           ;usb_device.c: 1970: uint8_t i;
 11329                           ;usb_device.c: 1973: inPipes[0].info.bits.busy = 1;
 11330                           
 11331                           ;incstack = 0
 11332  011478  8E0D               	bsf	_inPipes+3,7,c	;volatile
 11333                           
 11334                           ;usb_device.c: 1976: memset((void*)&UEP1,0x00,(2));;
 11335  01147A  0E27               	movlw	39
 11336  01147C  6E2E               	movwf	i2memset@p1,c
 11337  01147E  0E0F               	movlw	15
 11338  011480  6E2F               	movwf	i2memset@p1+1,c
 11339  011482  0E00               	movlw	0
 11340  011484  6E31               	movwf	i2memset@c+1,c
 11341  011486  0E00               	movlw	0
 11342  011488  6E30               	movwf	i2memset@c,c
 11343  01148A  0E00               	movlw	0
 11344  01148C  6E33               	movwf	i2memset@n+1,c
 11345  01148E  0E02               	movlw	2
 11346  011490  6E32               	movwf	i2memset@n,c
 11347  011492  ECD0  F096         	call	i2_memset	;wreg free
 11348                           
 11349                           ;usb_device.c: 1979: memset((void*)&BDT[0], 0x00, sizeof(BDT));
 11350  011496  0E00               	movlw	0
 11351  011498  6E2E               	movwf	i2memset@p1,c
 11352  01149A  0E0D               	movlw	13
 11353  01149C  6E2F               	movwf	i2memset@p1+1,c
 11354  01149E  0E00               	movlw	0
 11355  0114A0  6E31               	movwf	i2memset@c+1,c
 11356  0114A2  0E00               	movlw	0
 11357  0114A4  6E30               	movwf	i2memset@c,c
 11358  0114A6  0E00               	movlw	0
 11359  0114A8  6E33               	movwf	i2memset@n+1,c
 11360  0114AA  0E30               	movlw	48
 11361  0114AC  6E32               	movwf	i2memset@n,c
 11362  0114AE  ECD0  F096         	call	i2_memset	;wreg free
 11363                           
 11364                           ;usb_device.c: 1982: UCONbits.PPBRST = 1;
 11365  0114B2  8C65               	bsf	3941,6,c	;volatile
 11366                           
 11367                           ;usb_device.c: 1987: for(i = 0; i < (uint8_t)(2+1u); i++)
 11368  0114B4  0E00               	movlw	0
 11369  0114B6  6E42               	movwf	USBStdSetCfgHandler@i,c
 11370  0114B8                     i2l4914:
 11371  0114B8  0E02               	movlw	2
 11372  0114BA  6442               	cpfsgt	USBStdSetCfgHandler@i,c
 11373  0114BC  D001               	goto	i2l4918
 11374  0114BE  D016               	goto	i2l4924
 11375  0114C0                     i2l4918:
 11376                           
 11377                           ;usb_device.c: 1988: {
 11378                           ;usb_device.c: 1989: ep_data_in[i].Val = 0u;
 11379  0114C0  5042               	movf	USBStdSetCfgHandler@i,w,c
 11380  0114C2  0D01               	mullw	1
 11381  0114C4  0E16               	movlw	low _ep_data_in
 11382  0114C6  24F3               	addwf	prodl,w,c
 11383  0114C8  6ED9               	movwf	fsr2l,c
 11384  0114CA  0E00               	movlw	high _ep_data_in
 11385  0114CC  20F4               	addwfc	prodh,w,c
 11386  0114CE  6EDA               	movwf	fsr2h,c
 11387  0114D0  0E00               	movlw	0
 11388  0114D2  6EDF               	movwf	indf2,c
 11389                           
 11390                           ;usb_device.c: 1990: ep_data_out[i].Val = 0u;
 11391  0114D4  5042               	movf	USBStdSetCfgHandler@i,w,c
 11392  0114D6  0D01               	mullw	1
 11393  0114D8  0E19               	movlw	low _ep_data_out
 11394  0114DA  24F3               	addwf	prodl,w,c
 11395  0114DC  6ED9               	movwf	fsr2l,c
 11396  0114DE  0E00               	movlw	high _ep_data_out
 11397  0114E0  20F4               	addwfc	prodh,w,c
 11398  0114E2  6EDA               	movwf	fsr2h,c
 11399  0114E4  0E00               	movlw	0
 11400  0114E6  6EDF               	movwf	indf2,c
 11401  0114E8  2A42               	incf	USBStdSetCfgHandler@i,f,c
 11402  0114EA  D7E6               	goto	i2l4914
 11403  0114EC                     i2l4924:
 11404                           
 11405                           ;usb_device.c: 1991: }
 11406                           ;usb_device.c: 1994: memset((void*)&USBAlternateInterface,0x00,2);
 11407  0114EC  0EC7               	movlw	low _USBAlternateInterface
 11408  0114EE  6E2E               	movwf	i2memset@p1,c
 11409  0114F0  0E00               	movlw	high _USBAlternateInterface
 11410  0114F2  6E2F               	movwf	i2memset@p1+1,c
 11411  0114F4  0E00               	movlw	0
 11412  0114F6  6E31               	movwf	i2memset@c+1,c
 11413  0114F8  0E00               	movlw	0
 11414  0114FA  6E30               	movwf	i2memset@c,c
 11415  0114FC  0E00               	movlw	0
 11416  0114FE  6E33               	movwf	i2memset@n+1,c
 11417  011500  0E02               	movlw	2
 11418  011502  6E32               	movwf	i2memset@n,c
 11419  011504  ECD0  F096         	call	i2_memset	;wreg free
 11420                           
 11421                           ;usb_device.c: 1997: UCONbits.PPBRST = 0;
 11422  011508  9C65               	bcf	3941,6,c	;volatile
 11423                           
 11424                           ;usb_device.c: 1999: pBDTEntryIn[0] = (volatile BDT_ENTRY*)&BDT[2];
 11425  01150A  0E08               	movlw	8
 11426  01150C  6E10               	movwf	_pBDTEntryIn,c
 11427  01150E  0E0D               	movlw	13
 11428  011510  6E11               	movwf	_pBDTEntryIn+1,c
 11429                           
 11430                           ;usb_device.c: 2002: pBDTEntryEP0OutCurrent = (volatile BDT_ENTRY*)&BDT[0];
 11431  011512  0E00               	movlw	0
 11432  011514  6E1C               	movwf	_pBDTEntryEP0OutCurrent,c
 11433  011516  0E0D               	movlw	13
 11434  011518  6E1D               	movwf	_pBDTEntryEP0OutCurrent+1,c
 11435                           
 11436                           ;usb_device.c: 2003: pBDTEntryEP0OutNext = pBDTEntryEP0OutCurrent;
 11437  01151A  C01C  F01E         	movff	_pBDTEntryEP0OutCurrent,_pBDTEntryEP0OutNext
 11438  01151E  C01D  F01F         	movff	_pBDTEntryEP0OutCurrent+1,_pBDTEntryEP0OutNext+1
 11439                           
 11440                           ;usb_device.c: 2006: USBActiveConfiguration = SetupPkt.bConfigurationValue;
 11441  011522  CD32 F02C          	movff	3378,_USBActiveConfiguration	;volatile
 11442                           
 11443                           ;usb_device.c: 2009: if(USBActiveConfiguration == 0)
 11444  011526  502C               	movf	_USBActiveConfiguration,w,c	;volatile
 11445  011528  A4D8               	btfss	status,2,c
 11446  01152A  D003               	goto	i2l4940
 11447                           
 11448                           ;usb_device.c: 2010: {
 11449                           ;usb_device.c: 2012: USBDeviceState = ADDRESS_STATE;
 11450  01152C  0E10               	movlw	16
 11451  01152E  6E25               	movwf	_USBDeviceState,c	;volatile
 11452                           
 11453                           ;usb_device.c: 2013: }
 11454  011530  0012               	return	
 11455  011532                     i2l4940:
 11456                           
 11457                           ;usb_device.c: 2014: else
 11458                           ;usb_device.c: 2015: {
 11459                           ;usb_device.c: 2017: USER_USB_CALLBACK_EVENT_HANDLER(EVENT_CONFIGURED,(void*)&USBActiveC
      +                          onfiguration,1);
 11460  011532  0E00               	movlw	0
 11461  011534  6E3B               	movwf	USER_USB_CALLBACK_EVENT_HANDLER@event+1,c
 11462  011536  0E01               	movlw	1
 11463  011538  6E3A               	movwf	USER_USB_CALLBACK_EVENT_HANDLER@event,c
 11464  01153A  0E2C               	movlw	low _USBActiveConfiguration
 11465  01153C  6E3C               	movwf	USER_USB_CALLBACK_EVENT_HANDLER@pdata,c
 11466  01153E  0E00               	movlw	high _USBActiveConfiguration
 11467  011540  6E3D               	movwf	USER_USB_CALLBACK_EVENT_HANDLER@pdata+1,c
 11468  011542  0E00               	movlw	0
 11469  011544  6E3F               	movwf	USER_USB_CALLBACK_EVENT_HANDLER@size+1,c
 11470  011546  0E01               	movlw	1
 11471  011548  6E3E               	movwf	USER_USB_CALLBACK_EVENT_HANDLER@size,c
 11472  01154A  EC77  F096         	call	_USER_USB_CALLBACK_EVENT_HANDLER	;wreg free
 11473                           
 11474                           ;usb_device.c: 2022: USBDeviceState = CONFIGURED_STATE;
 11475  01154E  0E20               	movlw	32
 11476  011550  6E25               	movwf	_USBDeviceState,c	;volatile
 11477  011552  0012               	return	
 11478  011554                     __end_of_USBStdSetCfgHandler:
 11479                           	opt stack 0
 11480                           pclatu	equ	0xFFB
 11481                           pclath	equ	0xFFA
 11482                           tblptru	equ	0xFF8
 11483                           tblptrh	equ	0xFF7
 11484                           tblptrl	equ	0xFF6
 11485                           tablat	equ	0xFF5
 11486                           prodh	equ	0xFF4
 11487                           prodl	equ	0xFF3
 11488                           intcon	equ	0xFF2
 11489                           intcon2	equ	0xFF1
 11490                           postinc0	equ	0xFEE
 11491                           fsr0h	equ	0xFEA
 11492                           fsr0l	equ	0xFE9
 11493                           wreg	equ	0xFE8
 11494                           indf1	equ	0xFE7
 11495                           postinc1	equ	0xFE6
 11496                           postdec1	equ	0xFE5
 11497                           fsr1h	equ	0xFE2
 11498                           fsr1l	equ	0xFE1
 11499                           indf2	equ	0xFDF
 11500                           postinc2	equ	0xFDE
 11501                           postdec2	equ	0xFDD
 11502                           plusw2	equ	0xFDB
 11503                           fsr2h	equ	0xFDA
 11504                           fsr2l	equ	0xFD9
 11505                           status	equ	0xFD8
 11506                           
 11507 ;; *************** function i2_memset *****************
 11508 ;; Defined at:
 11509 ;;		line 8 in file "C:\Program Files (x86)\Microchip\xc8\v1.35\sources\common\memset.c"
 11510 ;; Parameters:    Size  Location     Type
 11511 ;;  p1              2    0[COMRAM] PTR void 
 11512 ;;		 -> USBAlternateInterface(2), BDT(48), UEP1(1), 
 11513 ;;  c               2    2[COMRAM] int 
 11514 ;;  n               2    4[COMRAM] unsigned int 
 11515 ;; Auto vars:     Size  Location     Type
 11516 ;;  memset          2    6[COMRAM] PTR unsigned char 
 11517 ;;		 -> USBAlternateInterface(2), BDT(48), UEP1(1), 
 11518 ;; Return value:  Size  Location     Type
 11519 ;;                  2    0[COMRAM] PTR void 
 11520 ;; Registers used:
 11521 ;;		wreg, fsr2l, fsr2h, status,2, status,0
 11522 ;; Tracked objects:
 11523 ;;		On entry : 0/0
 11524 ;;		On exit  : 0/0
 11525 ;;		Unchanged: 0/0
 11526 ;; Data sizes:     COMRAM   BANK0   BANK1   BANK2   BANK3   BANK4   BANK5   BANK6   BANK7   BANK8   BANK9  BANK10  BANK1
      +1  BANK12  BANK13  BANK14
 11527 ;;      Params:         6       0       0       0       0       0       0       0       0       0       0       0       
      +0       0       0       0
 11528 ;;      Locals:         2       0       0       0       0       0       0       0       0       0       0       0       
      +0       0       0       0
 11529 ;;      Temps:          0       0       0       0       0       0       0       0       0       0       0       0       
      +0       0       0       0
 11530 ;;      Totals:         8       0       0       0       0       0       0       0       0       0       0       0       
      +0       0       0       0
 11531 ;;Total ram usage:        8 bytes
 11532 ;; Hardware stack levels used:    1
 11533 ;; This function calls:
 11534 ;;		Nothing
 11535 ;; This function is called by:
 11536 ;;		_USBStdSetCfgHandler
 11537 ;;		i2_USBDeviceInit
 11538 ;; This function uses a non-reentrant model
 11539 ;;
 11540                           
 11541                           	psect	text63
 11542  012DA0                     __ptext63:
 11543                           	opt stack 0
 11544  012DA0                     i2_memset:
 11545                           	opt stack 20
 11546                           
 11547                           ;incstack = 0
 11548  012DA0  C02E  F034         	movff	i2memset@p1,i2memset@p
 11549  012DA4  C02F  F035         	movff	i2memset@p1+1,i2memset@p+1
 11550  012DA8  D008               	goto	i2l4844
 11551  012DAA                     i2l4840:
 11552  012DAA  C034  FFD9         	movff	i2memset@p,fsr2l
 11553  012DAE  C035  FFDA         	movff	i2memset@p+1,fsr2h
 11554  012DB2  C030  FFDF         	movff	i2memset@c,indf2
 11555  012DB6  4A34               	infsnz	i2memset@p,f,c
 11556  012DB8  2A35               	incf	i2memset@p+1,f,c
 11557  012DBA                     i2l4844:
 11558  012DBA  0632               	decf	i2memset@n,f,c
 11559  012DBC  A0D8               	btfss	status,0,c
 11560  012DBE  0633               	decf	i2memset@n+1,f,c
 11561  012DC0  2832               	incf	i2memset@n,w,c
 11562  012DC2  E1F3               	bnz	i2l4840
 11563  012DC4  2833               	incf	i2memset@n+1,w,c
 11564  012DC6  B4D8               	btfsc	status,2,c
 11565  012DC8  0012               	return	
 11566  012DCA  D7EF               	goto	i2l4840
 11567  012DCC                     __end_ofi2_memset:
 11568                           	opt stack 0
 11569                           pclatu	equ	0xFFB
 11570                           pclath	equ	0xFFA
 11571                           tblptru	equ	0xFF8
 11572                           tblptrh	equ	0xFF7
 11573                           tblptrl	equ	0xFF6
 11574                           tablat	equ	0xFF5
 11575                           prodh	equ	0xFF4
 11576                           prodl	equ	0xFF3
 11577                           intcon	equ	0xFF2
 11578                           intcon2	equ	0xFF1
 11579                           postinc0	equ	0xFEE
 11580                           fsr0h	equ	0xFEA
 11581                           fsr0l	equ	0xFE9
 11582                           wreg	equ	0xFE8
 11583                           indf1	equ	0xFE7
 11584                           postinc1	equ	0xFE6
 11585                           postdec1	equ	0xFE5
 11586                           fsr1h	equ	0xFE2
 11587                           fsr1l	equ	0xFE1
 11588                           indf2	equ	0xFDF
 11589                           postinc2	equ	0xFDE
 11590                           postdec2	equ	0xFDD
 11591                           plusw2	equ	0xFDB
 11592                           fsr2h	equ	0xFDA
 11593                           fsr2l	equ	0xFD9
 11594                           status	equ	0xFD8
 11595                           
 11596 ;; *************** function _USBStdGetStatusHandler *****************
 11597 ;; Defined at:
 11598 ;;		line 2129 in file "../../../My_library/usb/usb_device.c"
 11599 ;; Parameters:    Size  Location     Type
 11600 ;;		None
 11601 ;; Auto vars:     Size  Location     Type
 11602 ;;  p               2    1[COMRAM] PTR struct __BDT
 11603 ;;		 -> NULL(0), BDT(48), 
 11604 ;; Return value:  Size  Location     Type
 11605 ;;		None               void
 11606 ;; Registers used:
 11607 ;;		wreg, fsr2l, fsr2h, status,2, status,0, prodl, prodh
 11608 ;; Tracked objects:
 11609 ;;		On entry : 0/0
 11610 ;;		On exit  : 0/0
 11611 ;;		Unchanged: 0/0
 11612 ;; Data sizes:     COMRAM   BANK0   BANK1   BANK2   BANK3   BANK4   BANK5   BANK6   BANK7   BANK8   BANK9  BANK10  BANK1
      +1  BANK12  BANK13  BANK14
 11613 ;;      Params:         0       0       0       0       0       0       0       0       0       0       0       0       
      +0       0       0       0
 11614 ;;      Locals:         2       0       0       0       0       0       0       0       0       0       0       0       
      +0       0       0       0
 11615 ;;      Temps:          1       0       0       0       0       0       0       0       0       0       0       0       
      +0       0       0       0
 11616 ;;      Totals:         3       0       0       0       0       0       0       0       0       0       0       0       
      +0       0       0       0
 11617 ;;Total ram usage:        3 bytes
 11618 ;; Hardware stack levels used:    1
 11619 ;; This function calls:
 11620 ;;		Nothing
 11621 ;; This function is called by:
 11622 ;;		_USBCheckStdRequest
 11623 ;; This function uses a non-reentrant model
 11624 ;;
 11625                           
 11626                           	psect	text64
 11627  01232A                     __ptext64:
 11628                           	opt stack 0
 11629  01232A                     _USBStdGetStatusHandler:
 11630                           	opt stack 18
 11631                           
 11632                           ;usb_device.c: 2131: CtrlTrfData[0] = 0;
 11633                           
 11634                           ;incstack = 0
 11635  01232A  0E00               	movlw	0
 11636  01232C  010D               	movlb	13	; () banked
 11637  01232E  6F38               	movwf	56,b	;volatile
 11638                           
 11639                           ;usb_device.c: 2132: CtrlTrfData[1] = 0;
 11640  012330  0E00               	movlw	0
 11641  012332  010D               	movlb	13	; () banked
 11642  012334  6F39               	movwf	57,b	;volatile
 11643                           
 11644                           ;usb_device.c: 2134: switch(SetupPkt.Recipient)
 11645  012336  D038               	goto	i2l4996
 11646  012338                     i2l1113:
 11647                           
 11648                           ; BSR set to: 13
 11649                           ;usb_device.c: 2137: inPipes[0].info.bits.busy = 1;
 11650  012338  8E0D               	bsf	_inPipes+3,7,c	;volatile
 11651                           
 11652                           ; BSR set to: 13
 11653                           ;usb_device.c: 2145: }
 11654                           ;usb_device.c: 2147: if(RemoteWakeup == 1)
 11655                           
 11656                           ; BSR set to: 13
 11657                           
 11658                           ; BSR set to: 13
 11659                           ;usb_device.c: 2143: {
 11660                           ;usb_device.c: 2144: CtrlTrfData[0]|=0x01;
 11661                           
 11662                           ;usb_device.c: 2142: if(0 == 1)
 11663  01233A  0421               	decf	_RemoteWakeup,w,c	;volatile
 11664  01233C  A4D8               	btfss	status,2,c
 11665  01233E  D040               	goto	i2l1116
 11666                           
 11667                           ; BSR set to: 13
 11668                           ;usb_device.c: 2148: {
 11669                           ;usb_device.c: 2149: CtrlTrfData[0]|=0x02;
 11670  012340  010D               	movlb	13	; () banked
 11671  012342  8338               	bsf	56,1,b	;volatile
 11672                           
 11673                           ; BSR set to: 13
 11674                           ;usb_device.c: 2150: }
 11675                           ;usb_device.c: 2151: break;
 11676  012344  D03D               	goto	i2l1116
 11677  012346                     i2l1117:
 11678                           
 11679                           ; BSR set to: 13
 11680                           ;usb_device.c: 2153: inPipes[0].info.bits.busy = 1;
 11681  012346  8E0D               	bsf	_inPipes+3,7,c	;volatile
 11682                           
 11683                           ;usb_device.c: 2154: break;
 11684  012348  D03B               	goto	i2l1116
 11685  01234A                     i2l1118:
 11686                           
 11687                           ; BSR set to: 13
 11688                           ;usb_device.c: 2156: inPipes[0].info.bits.busy = 1;
 11689  01234A  8E0D               	bsf	_inPipes+3,7,c	;volatile
 11690                           
 11691                           ;usb_device.c: 2160: {
 11692                           ;usb_device.c: 2161: BDT_ENTRY *p;
 11693                           ;usb_device.c: 2163: if(SetupPkt.EPDir == 0)
 11694  01234C  010D               	movlb	13	; () banked
 11695  01234E  BF34               	btfsc	52,7,b	;volatile
 11696  012350  D00B               	goto	i2l4986
 11697                           
 11698                           ; BSR set to: 13
 11699                           ;usb_device.c: 2164: {
 11700                           ;usb_device.c: 2165: p = (BDT_ENTRY*)pBDTEntryOut[SetupPkt.EPNum];
 11701  012352  010D               	movlb	13	; () banked
 11702  012354  5134               	movf	52,w,b	;volatile
 11703  012356  0B0F               	andlw	15
 11704  012358  6E2E               	movwf	??_USBStdGetStatusHandler& (0+255),c
 11705  01235A  502E               	movf	??_USBStdGetStatusHandler,w,c
 11706  01235C  0D02               	mullw	2
 11707  01235E  0E60               	movlw	low _pBDTEntryOut
 11708  012360  24F3               	addwf	prodl,w,c
 11709  012362  6ED9               	movwf	fsr2l,c
 11710  012364  0E00               	movlw	high _pBDTEntryOut
 11711  012366  D00A               	goto	L5
 11712  012368                     i2l4986:
 11713                           
 11714                           ; BSR set to: 13
 11715                           ;usb_device.c: 2167: else
 11716                           ;usb_device.c: 2168: {
 11717                           ;usb_device.c: 2169: p = (BDT_ENTRY*)pBDTEntryIn[SetupPkt.EPNum];
 11718  012368  010D               	movlb	13	; () banked
 11719  01236A  5134               	movf	52,w,b	;volatile
 11720  01236C  0B0F               	andlw	15
 11721  01236E  6E2E               	movwf	??_USBStdGetStatusHandler& (0+255),c
 11722  012370  502E               	movf	??_USBStdGetStatusHandler,w,c
 11723  012372  0D02               	mullw	2
 11724  012374  0E10               	movlw	low _pBDTEntryIn
 11725  012376  24F3               	addwf	prodl,w,c
 11726  012378  6ED9               	movwf	fsr2l,c
 11727  01237A  0E00               	movlw	high _pBDTEntryIn
 11728  01237C                     L5:
 11729  01237C  20F4               	addwfc	prodh,w,c
 11730  01237E  6EDA               	movwf	fsr2h,c
 11731  012380  CFDE F02F          	movff	postinc2,USBStdGetStatusHandler@p
 11732  012384  CFDD F030          	movff	postdec2,USBStdGetStatusHandler@p+1
 11733                           
 11734                           ; BSR set to: 13
 11735                           ;usb_device.c: 2170: }
 11736                           ;usb_device.c: 2172: if((p->STAT.UOWN == 1) && (p->STAT.BSTALL == 1))
 11737                           
 11738                           ; BSR set to: 13
 11739  012388  C02F  FFD9         	movff	USBStdGetStatusHandler@p,fsr2l
 11740  01238C  C030  FFDA         	movff	USBStdGetStatusHandler@p+1,fsr2h
 11741  012390  AEDF               	btfss	indf2,7,c
 11742  012392  D016               	goto	i2l1116
 11743                           
 11744                           ; BSR set to: 13
 11745  012394  C02F  FFD9         	movff	USBStdGetStatusHandler@p,fsr2l
 11746  012398  C030  FFDA         	movff	USBStdGetStatusHandler@p+1,fsr2h
 11747  01239C  A4DF               	btfss	indf2,2,c
 11748  01239E  D010               	goto	i2l1116
 11749                           
 11750                           ; BSR set to: 13
 11751                           ;usb_device.c: 2173: CtrlTrfData[0]=0x01;
 11752  0123A0  0E01               	movlw	1
 11753  0123A2  010D               	movlb	13	; () banked
 11754  0123A4  6F38               	movwf	56,b	;volatile
 11755                           
 11756                           ; BSR set to: 13
 11757                           ;usb_device.c: 2175: }
 11758                           ;usb_device.c: 2176: }
 11759                           
 11760                           ; BSR set to: 13
 11761                           ;usb_device.c: 2174: break;
 11762  0123A6  D00C               	goto	i2l1116
 11763  0123A8                     i2l4996:
 11764                           
 11765                           ; BSR set to: 13
 11766  0123A8  010D               	movlb	13	; () banked
 11767  0123AA  5130               	movf	48,w,b	;volatile
 11768  0123AC  0B1F               	andlw	31
 11769                           
 11770                           ; Switch size 1, requested type "space"
 11771                           ; Number of cases is 3, Range of values is 0 to 2
 11772                           ; switch strategies available:
 11773                           ; Name         Instructions Cycles
 11774                           ; simple_byte           10     6 (average)
 11775                           ;	Chosen strategy is simple_byte
 11776  0123AE  0A00               	xorlw	0	; case 0
 11777  0123B0  B4D8               	btfsc	status,2,c
 11778  0123B2  D7C2               	goto	i2l1113
 11779  0123B4  0A01               	xorlw	1	; case 1
 11780  0123B6  B4D8               	btfsc	status,2,c
 11781  0123B8  D7C6               	goto	i2l1117
 11782  0123BA  0A03               	xorlw	3	; case 2
 11783  0123BC  B4D8               	btfsc	status,2,c
 11784  0123BE  D7C5               	goto	i2l1118
 11785  0123C0                     i2l1116:
 11786                           
 11787                           ; BSR set to: 13
 11788                           ;usb_device.c: 2178: if(inPipes[0].info.bits.busy == 1)
 11789  0123C0  AE0D               	btfss	_inPipes+3,7,c	;volatile
 11790  0123C2  0012               	return	
 11791                           
 11792                           ; BSR set to: 13
 11793                           ;usb_device.c: 2179: {
 11794                           ;usb_device.c: 2180: inPipes[0].pSrc.bRam = (uint8_t*)&CtrlTrfData;
 11795  0123C4  0E38               	movlw	56
 11796  0123C6  6E0A               	movwf	_inPipes,c	;volatile
 11797  0123C8  0E0D               	movlw	13
 11798  0123CA  6E0B               	movwf	_inPipes+1,c	;volatile
 11799                           
 11800                           ; BSR set to: 13
 11801                           ;usb_device.c: 2181: inPipes[0].info.bits.ctrl_trf_mem = 0x01;
 11802  0123CC  800D               	bsf	_inPipes+3,0,c	;volatile
 11803                           
 11804                           ; BSR set to: 13
 11805                           ;usb_device.c: 2182: inPipes[0].wCount.v[0] = 2;
 11806  0123CE  0E02               	movlw	2
 11807  0123D0  6E0E               	movwf	_inPipes+4,c	;volatile
 11808  0123D2  0012               	return	
 11809  0123D4                     __end_of_USBStdGetStatusHandler:
 11810                           	opt stack 0
 11811                           pclatu	equ	0xFFB
 11812                           pclath	equ	0xFFA
 11813                           tblptru	equ	0xFF8
 11814                           tblptrh	equ	0xFF7
 11815                           tblptrl	equ	0xFF6
 11816                           tablat	equ	0xFF5
 11817                           prodh	equ	0xFF4
 11818                           prodl	equ	0xFF3
 11819                           intcon	equ	0xFF2
 11820                           intcon2	equ	0xFF1
 11821                           postinc0	equ	0xFEE
 11822                           fsr0h	equ	0xFEA
 11823                           fsr0l	equ	0xFE9
 11824                           wreg	equ	0xFE8
 11825                           indf1	equ	0xFE7
 11826                           postinc1	equ	0xFE6
 11827                           postdec1	equ	0xFE5
 11828                           fsr1h	equ	0xFE2
 11829                           fsr1l	equ	0xFE1
 11830                           indf2	equ	0xFDF
 11831                           postinc2	equ	0xFDE
 11832                           postdec2	equ	0xFDD
 11833                           plusw2	equ	0xFDB
 11834                           fsr2h	equ	0xFDA
 11835                           fsr2l	equ	0xFD9
 11836                           status	equ	0xFD8
 11837                           
 11838 ;; *************** function _USBStdGetDscHandler *****************
 11839 ;; Defined at:
 11840 ;;		line 2043 in file "../../../My_library/usb/usb_device.c"
 11841 ;; Parameters:    Size  Location     Type
 11842 ;;		None
 11843 ;; Auto vars:     Size  Location     Type
 11844 ;;		None
 11845 ;; Return value:  Size  Location     Type
 11846 ;;		None               void
 11847 ;; Registers used:
 11848 ;;		wreg, fsr0l, fsr0h, status,2, status,0, tblptrl, tblptrh, tblptru, prodl, prodh
 11849 ;; Tracked objects:
 11850 ;;		On entry : 0/0
 11851 ;;		On exit  : 0/0
 11852 ;;		Unchanged: 0/0
 11853 ;; Data sizes:     COMRAM   BANK0   BANK1   BANK2   BANK3   BANK4   BANK5   BANK6   BANK7   BANK8   BANK9  BANK10  BANK1
      +1  BANK12  BANK13  BANK14
 11854 ;;      Params:         0       0       0       0       0       0       0       0       0       0       0       0       
      +0       0       0       0
 11855 ;;      Locals:         0       0       0       0       0       0       0       0       0       0       0       0       
      +0       0       0       0
 11856 ;;      Temps:          2       0       0       0       0       0       0       0       0       0       0       0       
      +0       0       0       0
 11857 ;;      Totals:         2       0       0       0       0       0       0       0       0       0       0       0       
      +0       0       0       0
 11858 ;;Total ram usage:        2 bytes
 11859 ;; Hardware stack levels used:    1
 11860 ;; This function calls:
 11861 ;;		Nothing
 11862 ;; This function is called by:
 11863 ;;		_USBCheckStdRequest
 11864 ;; This function uses a non-reentrant model
 11865 ;;
 11866                           
 11867                           	psect	text65
 11868  010DB2                     __ptext65:
 11869                           	opt stack 0
 11870  010DB2                     _USBStdGetDscHandler:
 11871                           	opt stack 18
 11872                           
 11873                           ;usb_device.c: 2045: if(SetupPkt.bmRequestType == 0x80)
 11874                           
 11875                           ; BSR set to: 13
 11876                           ;incstack = 0
 11877  010DB2  0E80               	movlw	128
 11878  010DB4  010D               	movlb	13	; () banked
 11879  010DB6  1930               	xorwf	48,w,b	;volatile
 11880  010DB8  A4D8               	btfss	status,2,c
 11881  010DBA  0012               	return	
 11882                           
 11883                           ; BSR set to: 13
 11884                           ;usb_device.c: 2046: {
 11885                           ;usb_device.c: 2047: inPipes[0].info.Val = 0x00 | 0x80 | 0x40;
 11886  010DBC  0EC0               	movlw	192
 11887  010DBE  6E0D               	movwf	_inPipes+3,c	;volatile
 11888                           
 11889                           ;usb_device.c: 2049: switch(SetupPkt.bDescriptorType)
 11890  010DC0  D085               	goto	i2l4974
 11891  010DC2                     i2l4948:
 11892                           
 11893                           ; BSR set to: 13
 11894                           ;usb_device.c: 2055: inPipes[0].pSrc.bRom = (const uint8_t*)&device_dsc;
 11895  010DC2  0E46               	movlw	low _device_dsc
 11896  010DC4  6E0A               	movwf	_inPipes,c	;volatile
 11897  010DC6  0EFF               	movlw	high _device_dsc
 11898  010DC8  6E0B               	movwf	_inPipes+1,c	;volatile
 11899                           
 11900                           ; BSR set to: 13
 11901                           ;usb_device.c: 2057: inPipes[0].wCount.Val = sizeof(device_dsc);
 11902  010DCA  0E00               	movlw	0
 11903  010DCC  6E0F               	movwf	_inPipes+5,c	;volatile
 11904  010DCE  0E12               	movlw	18
 11905  010DD0  6E0E               	movwf	_inPipes+4,c	;volatile
 11906                           
 11907                           ;usb_device.c: 2058: break;
 11908  010DD2  0012               	return	
 11909  010DD4                     i2l4952:
 11910                           
 11911                           ; BSR set to: 13
 11912                           ;usb_device.c: 2063: if(SetupPkt.bDscIndex < 1)
 11913  010DD4  010D               	movlb	13	; () banked
 11914  010DD6  5132               	movf	50,w,b	;volatile
 11915  010DD8  A4D8               	btfss	status,2,c
 11916  010DDA  D043               	goto	i2l4960
 11917                           
 11918                           ; BSR set to: 13
 11919                           ;usb_device.c: 2064: {
 11920                           ;usb_device.c: 2068: inPipes[0].pSrc.bRom = *(USB_CD_Ptr+SetupPkt.bDscIndex);
 11921  010DDC  010D               	movlb	13	; () banked
 11922  010DDE  5132               	movf	50,w,b	;volatile
 11923  010DE0  0D02               	mullw	2
 11924  010DE2  0E7D               	movlw	low _USB_CD_Ptr
 11925  010DE4  24F3               	addwf	prodl,w,c
 11926  010DE6  6EF6               	movwf	tblptrl,c
 11927  010DE8  0EFE               	movlw	high _USB_CD_Ptr
 11928  010DEA  20F4               	addwfc	prodh,w,c
 11929  010DEC  6EF7               	movwf	tblptrh,c
 11930  010DEE                     	if	1	;There are 3 active tblptr bytes
 11931  010DEE  6AF8               	clrf	tblptru,c
 11932  010DF0  0E00               	movlw	low (__mediumconst shr (0+16))
 11933  010DF2  22F8               	addwfc	tblptru,f,c
 11934  010DF4                     	endif
 11935  010DF4  0009               	tblrd		*+
 11936  010DF6  CFF5 F00A          	movff	tablat,_inPipes	;volatile
 11937  010DFA  000A               	tblrd		*-
 11938  010DFC  CFF5 F00B          	movff	tablat,_inPipes+1	;volatile
 11939                           
 11940                           ; BSR set to: 13
 11941                           ;usb_device.c: 2074: inPipes[0].wCount.byte.LB = *(inPipes[0].pSrc.bRom+2);
 11942  010E00  0E02               	movlw	2
 11943  010E02  240A               	addwf	_inPipes,w,c	;volatile
 11944  010E04  6E2E               	movwf	??_USBStdGetDscHandler& (0+255),c
 11945  010E06  0E00               	movlw	0
 11946  010E08  200B               	addwfc	_inPipes+1,w,c	;volatile
 11947  010E0A  6E2F               	movwf	(??_USBStdGetDscHandler+1)& (0+255),c
 11948  010E0C  C02E  FFF6         	movff	??_USBStdGetDscHandler,tblptrl
 11949  010E10  C02F  FFF7         	movff	??_USBStdGetDscHandler+1,tblptrh
 11950  010E14  0E00               	movlw	low (__mediumconst shr (0+16))
 11951  010E16  6EF8               	movwf	tblptru,c
 11952  010E18  0E0E               	movlw	(high __ramtop+-1)
 11953  010E1A  64F7               	cpfsgt	tblptrh,c
 11954  010E1C  D003               	bra	i2u369_47
 11955  010E1E  0008               	tblrd		*
 11956  010E20  50F5               	movf	tablat,w,c
 11957  010E22  D005               	bra	i2u369_40
 11958  010E24                     i2u369_47:
 11959  010E24  CFF6 FFE9          	movff	tblptrl,fsr0l
 11960  010E28  CFF7 FFEA          	movff	tblptrh,fsr0h
 11961  010E2C  50EF               	movf	indf0,w,c
 11962  010E2E                     i2u369_40:
 11963  010E2E  6E0E               	movwf	_inPipes+4,c	;volatile
 11964                           
 11965                           ;usb_device.c: 2075: inPipes[0].wCount.byte.HB = *(inPipes[0].pSrc.bRom+3);
 11966  010E30  0E03               	movlw	3
 11967  010E32  240A               	addwf	_inPipes,w,c	;volatile
 11968  010E34  6E2E               	movwf	??_USBStdGetDscHandler& (0+255),c
 11969  010E36  0E00               	movlw	0
 11970  010E38  200B               	addwfc	_inPipes+1,w,c	;volatile
 11971  010E3A  6E2F               	movwf	(??_USBStdGetDscHandler+1)& (0+255),c
 11972  010E3C  C02E  FFF6         	movff	??_USBStdGetDscHandler,tblptrl
 11973  010E40  C02F  FFF7         	movff	??_USBStdGetDscHandler+1,tblptrh
 11974  010E44  0E00               	movlw	low (__mediumconst shr (0+16))
 11975  010E46  6EF8               	movwf	tblptru,c
 11976  010E48  0E0E               	movlw	(high __ramtop+-1)
 11977  010E4A  64F7               	cpfsgt	tblptrh,c
 11978  010E4C  D003               	bra	i2u370_47
 11979  010E4E  0008               	tblrd		*
 11980  010E50  50F5               	movf	tablat,w,c
 11981  010E52  D005               	bra	i2u370_40
 11982  010E54                     i2u370_47:
 11983  010E54  CFF6 FFE9          	movff	tblptrl,fsr0l
 11984  010E58  CFF7 FFEA          	movff	tblptrh,fsr0h
 11985  010E5C  50EF               	movf	indf0,w,c
 11986  010E5E                     i2u370_40:
 11987  010E5E  6E0F               	movwf	_inPipes+5,c	;volatile
 11988                           
 11989                           ;usb_device.c: 2076: }
 11990  010E60  0012               	return	
 11991  010E62                     i2l4960:
 11992                           
 11993                           ;usb_device.c: 2077: else
 11994                           ;usb_device.c: 2078: {
 11995                           ;usb_device.c: 2079: inPipes[0].info.Val = 0;
 11996  010E62  0E00               	movlw	0
 11997  010E64  6E0D               	movwf	_inPipes+3,c	;volatile
 11998                           
 11999                           ;usb_device.c: 2080: }
 12000                           ;usb_device.c: 2081: break;
 12001  010E66  0012               	return	
 12002  010E68                     i2l4962:
 12003                           
 12004                           ;usb_device.c: 2086: if(SetupPkt.bDscIndex<3)
 12005  010E68  0E03               	movlw	3
 12006  010E6A  010D               	movlb	13	; () banked
 12007  010E6C  6132               	cpfslt	50,b	;volatile
 12008  010E6E  D028               	goto	i2l4968
 12009                           
 12010                           ; BSR set to: 13
 12011                           ;usb_device.c: 2087: {
 12012                           ;usb_device.c: 2089: inPipes[0].pSrc.bRom = *(USB_SD_Ptr+SetupPkt.bDscIndex);
 12013  010E70  010D               	movlb	13	; () banked
 12014  010E72  5132               	movf	50,w,b	;volatile
 12015  010E74  0D02               	mullw	2
 12016  010E76  0E77               	movlw	low _USB_SD_Ptr
 12017  010E78  24F3               	addwf	prodl,w,c
 12018  010E7A  6EF6               	movwf	tblptrl,c
 12019  010E7C  0EFE               	movlw	high _USB_SD_Ptr
 12020  010E7E  20F4               	addwfc	prodh,w,c
 12021  010E80  6EF7               	movwf	tblptrh,c
 12022  010E82                     	if	1	;There are 3 active tblptr bytes
 12023  010E82  6AF8               	clrf	tblptru,c
 12024  010E84  0E00               	movlw	low (__mediumconst shr (0+16))
 12025  010E86  22F8               	addwfc	tblptru,f,c
 12026  010E88                     	endif
 12027  010E88  0009               	tblrd		*+
 12028  010E8A  CFF5 F00A          	movff	tablat,_inPipes	;volatile
 12029  010E8E  000A               	tblrd		*-
 12030  010E90  CFF5 F00B          	movff	tablat,_inPipes+1	;volatile
 12031                           
 12032                           ; BSR set to: 13
 12033                           ;usb_device.c: 2091: inPipes[0].wCount.Val = *inPipes[0].pSrc.bRom;
 12034  010E94  C00A  FFF6         	movff	_inPipes,tblptrl	;volatile
 12035  010E98  C00B  FFF7         	movff	_inPipes+1,tblptrh	;volatile
 12036  010E9C  0E00               	movlw	low (__mediumconst shr (0+16))
 12037  010E9E  6EF8               	movwf	tblptru,c
 12038  010EA0  0E0E               	movlw	(high __ramtop+-1)
 12039  010EA2  64F7               	cpfsgt	tblptrh,c
 12040  010EA4  D003               	bra	i2u372_47
 12041  010EA6  0008               	tblrd		*
 12042  010EA8  50F5               	movf	tablat,w,c
 12043  010EAA  D005               	bra	i2u372_40
 12044  010EAC                     i2u372_47:
 12045  010EAC  CFF6 FFE9          	movff	tblptrl,fsr0l
 12046  010EB0  CFF7 FFEA          	movff	tblptrh,fsr0h
 12047  010EB4  50EF               	movf	indf0,w,c
 12048  010EB6                     i2u372_40:
 12049  010EB6  6E2E               	movwf	??_USBStdGetDscHandler& (0+255),c
 12050  010EB8  502E               	movf	??_USBStdGetDscHandler,w,c
 12051  010EBA  6E0E               	movwf	_inPipes+4,c	;volatile
 12052  010EBC  6A0F               	clrf	_inPipes+5,c	;volatile
 12053                           
 12054                           ;usb_device.c: 2092: }
 12055  010EBE  0012               	return	
 12056  010EC0                     i2l4968:
 12057                           
 12058                           ;usb_device.c: 2102: else
 12059                           ;usb_device.c: 2103: {
 12060                           ;usb_device.c: 2104: inPipes[0].info.Val = 0;
 12061  010EC0  0E00               	movlw	0
 12062  010EC2  6E0D               	movwf	_inPipes+3,c	;volatile
 12063                           
 12064                           ;usb_device.c: 2105: }
 12065                           ;usb_device.c: 2106: break;
 12066  010EC4  0012               	return	
 12067  010EC6                     i2l4970:
 12068                           
 12069                           ;usb_device.c: 2108: inPipes[0].info.Val = 0;
 12070  010EC6  0E00               	movlw	0
 12071  010EC8  6E0D               	movwf	_inPipes+3,c	;volatile
 12072                           
 12073                           ;usb_device.c: 2110: }
 12074                           
 12075                           ;usb_device.c: 2109: break;
 12076  010ECA  0012               	return	
 12077  010ECC                     i2l4974:
 12078  010ECC  010D               	movlb	13	; () banked
 12079  010ECE  5133               	movf	51,w,b	;volatile
 12080                           
 12081                           ; Switch size 1, requested type "space"
 12082                           ; Number of cases is 3, Range of values is 1 to 3
 12083                           ; switch strategies available:
 12084                           ; Name         Instructions Cycles
 12085                           ; simple_byte           10     6 (average)
 12086                           ;	Chosen strategy is simple_byte
 12087  010ED0  0A01               	xorlw	1	; case 1
 12088  010ED2  B4D8               	btfsc	status,2,c
 12089  010ED4  D776               	goto	i2l4948
 12090  010ED6  0A03               	xorlw	3	; case 2
 12091  010ED8  B4D8               	btfsc	status,2,c
 12092  010EDA  D77C               	goto	i2l4952
 12093  010EDC  0A01               	xorlw	1	; case 3
 12094  010EDE  B4D8               	btfsc	status,2,c
 12095  010EE0  D7C3               	goto	i2l4962
 12096  010EE2  D7F1               	goto	i2l4970
 12097  010EE4                     __end_of_USBStdGetDscHandler:
 12098                           	opt stack 0
 12099                           pclatu	equ	0xFFB
 12100                           pclath	equ	0xFFA
 12101                           tblptru	equ	0xFF8
 12102                           tblptrh	equ	0xFF7
 12103                           tblptrl	equ	0xFF6
 12104                           tablat	equ	0xFF5
 12105                           prodh	equ	0xFF4
 12106                           prodl	equ	0xFF3
 12107                           intcon	equ	0xFF2
 12108                           intcon2	equ	0xFF1
 12109                           indf0	equ	0xFEF
 12110                           postinc0	equ	0xFEE
 12111                           fsr0h	equ	0xFEA
 12112                           fsr0l	equ	0xFE9
 12113                           wreg	equ	0xFE8
 12114                           indf1	equ	0xFE7
 12115                           postinc1	equ	0xFE6
 12116                           postdec1	equ	0xFE5
 12117                           fsr1h	equ	0xFE2
 12118                           fsr1l	equ	0xFE1
 12119                           indf2	equ	0xFDF
 12120                           postinc2	equ	0xFDE
 12121                           postdec2	equ	0xFDD
 12122                           plusw2	equ	0xFDB
 12123                           fsr2h	equ	0xFDA
 12124                           fsr2l	equ	0xFD9
 12125                           status	equ	0xFD8
 12126                           
 12127 ;; *************** function _USBStdFeatureReqHandler *****************
 12128 ;; Defined at:
 12129 ;;		line 2757 in file "../../../My_library/usb/usb_device.c"
 12130 ;; Parameters:    Size  Location     Type
 12131 ;;		None
 12132 ;; Auto vars:     Size  Location     Type
 12133 ;;  p               2   24[COMRAM] PTR struct __BDT
 12134 ;;		 -> NULL(0), BDT(48), 
 12135 ;;  pUEP            2   21[COMRAM] PTR unsigned char 
 12136 ;;		 -> UEP0(1), 
 12137 ;;  current_ep_d    1   23[COMRAM] struct .
 12138 ;; Return value:  Size  Location     Type
 12139 ;;		None               void
 12140 ;; Registers used:
 12141 ;;		wreg, fsr2l, fsr2h, status,2, status,0, prodl, prodh, cstack
 12142 ;; Tracked objects:
 12143 ;;		On entry : 0/0
 12144 ;;		On exit  : 0/0
 12145 ;;		Unchanged: 0/0
 12146 ;; Data sizes:     COMRAM   BANK0   BANK1   BANK2   BANK3   BANK4   BANK5   BANK6   BANK7   BANK8   BANK9  BANK10  BANK1
      +1  BANK12  BANK13  BANK14
 12147 ;;      Params:         0       0       0       0       0       0       0       0       0       0       0       0       
      +0       0       0       0
 12148 ;;      Locals:         5       0       0       0       0       0       0       0       0       0       0       0       
      +0       0       0       0
 12149 ;;      Temps:          1       0       0       0       0       0       0       0       0       0       0       0       
      +0       0       0       0
 12150 ;;      Totals:         6       0       0       0       0       0       0       0       0       0       0       0       
      +0       0       0       0
 12151 ;;Total ram usage:        6 bytes
 12152 ;; Hardware stack levels used:    1
 12153 ;; Hardware stack levels required when called:    4
 12154 ;; This function calls:
 12155 ;;		_USER_USB_CALLBACK_EVENT_HANDLER
 12156 ;; This function is called by:
 12157 ;;		_USBCheckStdRequest
 12158 ;; This function uses a non-reentrant model
 12159 ;;
 12160                           
 12161                           	psect	text66
 12162  01028E                     __ptext66:
 12163                           	opt stack 0
 12164  01028E                     _USBStdFeatureReqHandler:
 12165                           	opt stack 14
 12166                           
 12167                           ;usb_device.c: 2759: BDT_ENTRY *p;
 12168                           ;usb_device.c: 2760: EP_STATUS current_ep_data;
 12169                           ;usb_device.c: 2764: unsigned char* pUEP;
 12170                           ;usb_device.c: 2802: if((SetupPkt.bFeature == 1)&&
 12171                           ;usb_device.c: 2803: (SetupPkt.Recipient == (0x00)))
 12172                           
 12173                           ;incstack = 0
 12174  01028E  010D               	movlb	13	; () banked
 12175  010290  0532               	decf	50,w,b	;volatile
 12176  010292  A4D8               	btfss	status,2,c
 12177  010294  D010               	goto	i2l1192
 12178                           
 12179                           ; BSR set to: 13
 12180  010296  010D               	movlb	13	; () banked
 12181  010298  5130               	movf	48,w,b	;volatile
 12182  01029A  0B1F               	andlw	31
 12183  01029C  0900               	iorlw	0
 12184  01029E  A4D8               	btfss	status,2,c
 12185  0102A0  D00A               	goto	i2l1192
 12186                           
 12187                           ; BSR set to: 13
 12188                           ;usb_device.c: 2804: {
 12189                           ;usb_device.c: 2805: inPipes[0].info.bits.busy = 1;
 12190  0102A2  8E0D               	bsf	_inPipes+3,7,c	;volatile
 12191                           
 12192                           ; BSR set to: 13
 12193                           ;usb_device.c: 2806: if(SetupPkt.bRequest == 3)
 12194  0102A4  0E03               	movlw	3
 12195  0102A6  010D               	movlb	13	; () banked
 12196  0102A8  1931               	xorwf	49,w,b	;volatile
 12197  0102AA  A4D8               	btfss	status,2,c
 12198  0102AC  D002               	goto	i2l5014
 12199                           
 12200                           ; BSR set to: 13
 12201                           ;usb_device.c: 2807: RemoteWakeup = 1;
 12202  0102AE  0E01               	movlw	1
 12203  0102B0  D001               	goto	L6
 12204  0102B2                     i2l5014:
 12205                           
 12206                           ; BSR set to: 13
 12207                           ;usb_device.c: 2808: else
 12208                           ;usb_device.c: 2809: RemoteWakeup = 0;
 12209  0102B2  0E00               	movlw	0
 12210  0102B4                     L6:
 12211  0102B4  6E21               	movwf	_RemoteWakeup,c	;volatile
 12212  0102B6                     i2l1192:
 12213                           
 12214                           ; BSR set to: 13
 12215                           ;usb_device.c: 2810: }
 12216                           ;usb_device.c: 2813: if((SetupPkt.bFeature == 0)&&
 12217                           ;usb_device.c: 2814: (SetupPkt.Recipient == (0x02))&&
 12218                           ;usb_device.c: 2815: (SetupPkt.EPNum != 0) && (SetupPkt.EPNum <= 2)&&
 12219                           ;usb_device.c: 2816: (USBDeviceState == CONFIGURED_STATE))
 12220  0102B6  010D               	movlb	13	; () banked
 12221  0102B8  5132               	movf	50,w,b	;volatile
 12222  0102BA  A4D8               	btfss	status,2,c
 12223  0102BC  0012               	return	
 12224                           
 12225                           ; BSR set to: 13
 12226  0102BE  010D               	movlb	13	; () banked
 12227  0102C0  5130               	movf	48,w,b	;volatile
 12228  0102C2  0B1F               	andlw	31
 12229  0102C4  0A02               	xorlw	2
 12230  0102C6  A4D8               	btfss	status,2,c
 12231  0102C8  0012               	return	
 12232                           
 12233                           ; BSR set to: 13
 12234  0102CA  010D               	movlb	13	; () banked
 12235  0102CC  5134               	movf	52,w,b	;volatile
 12236  0102CE  0B0F               	andlw	15
 12237  0102D0  0900               	iorlw	0
 12238  0102D2  B4D8               	btfsc	status,2,c
 12239  0102D4  0012               	return	
 12240                           
 12241                           ; BSR set to: 13
 12242  0102D6  010D               	movlb	13	; () banked
 12243  0102D8  5134               	movf	52,w,b	;volatile
 12244  0102DA  0B0F               	andlw	15
 12245  0102DC  6E42               	movwf	??_USBStdFeatureReqHandler& (0+255),c
 12246  0102DE  0E03               	movlw	3
 12247  0102E0  6042               	cpfslt	??_USBStdFeatureReqHandler,c
 12248  0102E2  0012               	return	
 12249                           
 12250                           ; BSR set to: 13
 12251  0102E4  0E20               	movlw	32
 12252  0102E6  1825               	xorwf	_USBDeviceState,w,c	;volatile
 12253  0102E8  A4D8               	btfss	status,2,c
 12254  0102EA  0012               	return	
 12255                           
 12256                           ; BSR set to: 13
 12257                           ;usb_device.c: 2817: {
 12258                           ;usb_device.c: 2820: inPipes[0].info.bits.busy = 1;
 12259  0102EC  8E0D               	bsf	_inPipes+3,7,c	;volatile
 12260                           
 12261                           ;usb_device.c: 2823: if(SetupPkt.EPDir == 0)
 12262  0102EE  010D               	movlb	13	; () banked
 12263  0102F0  BF34               	btfsc	52,7,b	;volatile
 12264  0102F2  D01B               	goto	i2l5028
 12265                           
 12266                           ; BSR set to: 13
 12267                           ;usb_device.c: 2824: {
 12268                           ;usb_device.c: 2825: p = (BDT_ENTRY*)pBDTEntryOut[SetupPkt.EPNum];
 12269  0102F4  010D               	movlb	13	; () banked
 12270  0102F6  5134               	movf	52,w,b	;volatile
 12271  0102F8  0B0F               	andlw	15
 12272  0102FA  6E42               	movwf	??_USBStdFeatureReqHandler& (0+255),c
 12273  0102FC  5042               	movf	??_USBStdFeatureReqHandler,w,c
 12274  0102FE  0D02               	mullw	2
 12275  010300  0E60               	movlw	low _pBDTEntryOut
 12276  010302  24F3               	addwf	prodl,w,c
 12277  010304  6ED9               	movwf	fsr2l,c
 12278  010306  0E00               	movlw	high _pBDTEntryOut
 12279  010308  20F4               	addwfc	prodh,w,c
 12280  01030A  6EDA               	movwf	fsr2h,c
 12281  01030C  CFDE F046          	movff	postinc2,USBStdFeatureReqHandler@p
 12282  010310  CFDD F047          	movff	postdec2,USBStdFeatureReqHandler@p+1
 12283                           
 12284                           ;usb_device.c: 2826: current_ep_data.Val = ep_data_out[SetupPkt.EPNum].Val;
 12285  010314  010D               	movlb	13	; () banked
 12286  010316  5134               	movf	52,w,b	;volatile
 12287  010318  0B0F               	andlw	15
 12288  01031A  6E42               	movwf	??_USBStdFeatureReqHandler& (0+255),c
 12289  01031C  5042               	movf	??_USBStdFeatureReqHandler,w,c
 12290  01031E  0D01               	mullw	1
 12291  010320  0E19               	movlw	low _ep_data_out
 12292  010322  24F3               	addwf	prodl,w,c
 12293  010324  6ED9               	movwf	fsr2l,c
 12294  010326  0E00               	movlw	high _ep_data_out
 12295  010328  D01A               	goto	L7
 12296  01032A                     i2l5028:
 12297                           
 12298                           ; BSR set to: 13
 12299                           ;usb_device.c: 2828: else
 12300                           ;usb_device.c: 2829: {
 12301                           ;usb_device.c: 2830: p = (BDT_ENTRY*)pBDTEntryIn[SetupPkt.EPNum];
 12302  01032A  010D               	movlb	13	; () banked
 12303  01032C  5134               	movf	52,w,b	;volatile
 12304  01032E  0B0F               	andlw	15
 12305  010330  6E42               	movwf	??_USBStdFeatureReqHandler& (0+255),c
 12306  010332  5042               	movf	??_USBStdFeatureReqHandler,w,c
 12307  010334  0D02               	mullw	2
 12308  010336  0E10               	movlw	low _pBDTEntryIn
 12309  010338  24F3               	addwf	prodl,w,c
 12310  01033A  6ED9               	movwf	fsr2l,c
 12311  01033C  0E00               	movlw	high _pBDTEntryIn
 12312  01033E  20F4               	addwfc	prodh,w,c
 12313  010340  6EDA               	movwf	fsr2h,c
 12314  010342  CFDE F046          	movff	postinc2,USBStdFeatureReqHandler@p
 12315  010346  CFDD F047          	movff	postdec2,USBStdFeatureReqHandler@p+1
 12316                           
 12317                           ;usb_device.c: 2831: current_ep_data.Val = ep_data_in[SetupPkt.EPNum].Val;
 12318  01034A  010D               	movlb	13	; () banked
 12319  01034C  5134               	movf	52,w,b	;volatile
 12320  01034E  0B0F               	andlw	15
 12321  010350  6E42               	movwf	??_USBStdFeatureReqHandler& (0+255),c
 12322  010352  5042               	movf	??_USBStdFeatureReqHandler,w,c
 12323  010354  0D01               	mullw	1
 12324  010356  0E16               	movlw	low _ep_data_in
 12325  010358  24F3               	addwf	prodl,w,c
 12326  01035A  6ED9               	movwf	fsr2l,c
 12327  01035C  0E00               	movlw	high _ep_data_in
 12328  01035E                     L7:
 12329  01035E  20F4               	addwfc	prodh,w,c
 12330  010360  6EDA               	movwf	fsr2h,c
 12331  010362  50DF               	movf	indf2,w,c
 12332  010364  6E45               	movwf	USBStdFeatureReqHandler@current_ep_data,c
 12333                           
 12334                           ; BSR set to: 13
 12335                           ;usb_device.c: 2832: }
 12336                           ;usb_device.c: 2838: if(current_ep_data.bits.ping_pong_state == 0)
 12337                           
 12338                           ; BSR set to: 13
 12339  010366  B045               	btfsc	USBStdFeatureReqHandler@current_ep_data,0,c
 12340  010368  D002               	goto	i2l5034
 12341                           
 12342                           ; BSR set to: 13
 12343                           ;usb_device.c: 2839: {
 12344                           ;usb_device.c: 2840: {((uint8_t_VAL*)&p)->Val &= ~0x0004;};
 12345  01036A  9446               	bcf	USBStdFeatureReqHandler@p,2,c
 12346                           
 12347                           ;usb_device.c: 2841: }
 12348  01036C  D001               	goto	i2l5036
 12349  01036E                     i2l5034:
 12350                           
 12351                           ; BSR set to: 13
 12352                           ;usb_device.c: 2842: else
 12353                           ;usb_device.c: 2843: {
 12354                           ;usb_device.c: 2844: {((uint8_t_VAL*)&p)->Val |= 0x0004;};
 12355  01036E  8446               	bsf	USBStdFeatureReqHandler@p,2,c
 12356  010370                     i2l5036:
 12357                           
 12358                           ; BSR set to: 13
 12359                           ;usb_device.c: 2845: }
 12360                           ;usb_device.c: 2850: if(SetupPkt.EPDir == 0)
 12361  010370  010D               	movlb	13	; () banked
 12362  010372  BF34               	btfsc	52,7,b	;volatile
 12363  010374  D00B               	goto	i2l5040
 12364                           
 12365                           ; BSR set to: 13
 12366                           ;usb_device.c: 2851: {
 12367                           ;usb_device.c: 2852: pBDTEntryOut[SetupPkt.EPNum] = (volatile BDT_ENTRY *)p;
 12368  010376  010D               	movlb	13	; () banked
 12369  010378  5134               	movf	52,w,b	;volatile
 12370  01037A  0B0F               	andlw	15
 12371  01037C  6E42               	movwf	??_USBStdFeatureReqHandler& (0+255),c
 12372  01037E  5042               	movf	??_USBStdFeatureReqHandler,w,c
 12373  010380  0D02               	mullw	2
 12374  010382  0E60               	movlw	low _pBDTEntryOut
 12375  010384  24F3               	addwf	prodl,w,c
 12376  010386  6ED9               	movwf	fsr2l,c
 12377  010388  0E00               	movlw	high _pBDTEntryOut
 12378  01038A  D00A               	goto	L8
 12379  01038C                     i2l5040:
 12380                           
 12381                           ; BSR set to: 13
 12382                           ;usb_device.c: 2854: else
 12383                           ;usb_device.c: 2855: {
 12384                           ;usb_device.c: 2856: pBDTEntryIn[SetupPkt.EPNum] = (volatile BDT_ENTRY *)p;
 12385  01038C  010D               	movlb	13	; () banked
 12386  01038E  5134               	movf	52,w,b	;volatile
 12387  010390  0B0F               	andlw	15
 12388  010392  6E42               	movwf	??_USBStdFeatureReqHandler& (0+255),c
 12389  010394  5042               	movf	??_USBStdFeatureReqHandler,w,c
 12390  010396  0D02               	mullw	2
 12391  010398  0E10               	movlw	low _pBDTEntryIn
 12392  01039A  24F3               	addwf	prodl,w,c
 12393  01039C  6ED9               	movwf	fsr2l,c
 12394  01039E  0E00               	movlw	high _pBDTEntryIn
 12395  0103A0                     L8:
 12396  0103A0  20F4               	addwfc	prodh,w,c
 12397  0103A2  6EDA               	movwf	fsr2h,c
 12398  0103A4  C046  FFDE         	movff	USBStdFeatureReqHandler@p,postinc2
 12399  0103A8  C047  FFDD         	movff	USBStdFeatureReqHandler@p+1,postdec2
 12400                           
 12401                           ; BSR set to: 13
 12402                           ;usb_device.c: 2857: }
 12403                           ;usb_device.c: 2860: if(SetupPkt.bRequest == 3)
 12404                           
 12405                           ; BSR set to: 13
 12406  0103AC  0E03               	movlw	3
 12407  0103AE  010D               	movlb	13	; () banked
 12408  0103B0  1931               	xorwf	49,w,b	;volatile
 12409  0103B2  A4D8               	btfss	status,2,c
 12410  0103B4  D02E               	goto	i2l5056
 12411                           
 12412                           ; BSR set to: 13
 12413                           ;usb_device.c: 2861: {
 12414                           ;usb_device.c: 2862: if(p->STAT.UOWN == 1)
 12415  0103B6  C046  FFD9         	movff	USBStdFeatureReqHandler@p,fsr2l
 12416  0103BA  C047  FFDA         	movff	USBStdFeatureReqHandler@p+1,fsr2h
 12417  0103BE  AEDF               	btfss	indf2,7,c
 12418  0103C0  D01B               	goto	i2l5052
 12419                           
 12420                           ; BSR set to: 13
 12421                           ;usb_device.c: 2863: {
 12422                           ;usb_device.c: 2866: if(SetupPkt.EPDir == 0)
 12423  0103C2  010D               	movlb	13	; () banked
 12424  0103C4  BF34               	btfsc	52,7,b	;volatile
 12425  0103C6  D00B               	goto	i2l5050
 12426                           
 12427                           ; BSR set to: 13
 12428                           ;usb_device.c: 2867: {
 12429                           ;usb_device.c: 2868: ep_data_out[SetupPkt.EPNum].bits.transfer_terminated = 1;
 12430  0103C8  010D               	movlb	13	; () banked
 12431  0103CA  5134               	movf	52,w,b	;volatile
 12432  0103CC  0B0F               	andlw	15
 12433  0103CE  6E42               	movwf	??_USBStdFeatureReqHandler& (0+255),c
 12434  0103D0  5042               	movf	??_USBStdFeatureReqHandler,w,c
 12435  0103D2  0D01               	mullw	1
 12436  0103D4  0E19               	movlw	low _ep_data_out
 12437  0103D6  24F3               	addwf	prodl,w,c
 12438  0103D8  6ED9               	movwf	fsr2l,c
 12439  0103DA  0E00               	movlw	high _ep_data_out
 12440  0103DC  D00A               	goto	L9
 12441  0103DE                     i2l5050:
 12442                           
 12443                           ; BSR set to: 13
 12444                           ;usb_device.c: 2870: else
 12445                           ;usb_device.c: 2871: {
 12446                           ;usb_device.c: 2872: ep_data_in[SetupPkt.EPNum].bits.transfer_terminated = 1;
 12447  0103DE  010D               	movlb	13	; () banked
 12448  0103E0  5134               	movf	52,w,b	;volatile
 12449  0103E2  0B0F               	andlw	15
 12450  0103E4  6E42               	movwf	??_USBStdFeatureReqHandler& (0+255),c
 12451  0103E6  5042               	movf	??_USBStdFeatureReqHandler,w,c
 12452  0103E8  0D01               	mullw	1
 12453  0103EA  0E16               	movlw	low _ep_data_in
 12454  0103EC  24F3               	addwf	prodl,w,c
 12455  0103EE  6ED9               	movwf	fsr2l,c
 12456  0103F0  0E00               	movlw	high _ep_data_in
 12457  0103F2                     L9:
 12458  0103F2  20F4               	addwfc	prodh,w,c
 12459  0103F4  6EDA               	movwf	fsr2h,c
 12460  0103F6  82DF               	bsf	indf2,1,c
 12461  0103F8                     i2l5052:
 12462                           
 12463                           ; BSR set to: 13
 12464                           ;usb_device.c: 2873: }
 12465                           ;usb_device.c: 2874: }
 12466                           ;usb_device.c: 2877: p->STAT.Val |= 0x04;
 12467  0103F8  C046  FFD9         	movff	USBStdFeatureReqHandler@p,fsr2l
 12468  0103FC  C047  FFDA         	movff	USBStdFeatureReqHandler@p+1,fsr2h
 12469  010400  0E00               	movlw	0
 12470  010402  84DB               	bsf	plusw2,2,c
 12471                           
 12472                           ; BSR set to: 13
 12473                           ;usb_device.c: 2878: p->STAT.Val |= 0x80;
 12474  010404  C046  FFD9         	movff	USBStdFeatureReqHandler@p,fsr2l
 12475  010408  C047  FFDA         	movff	USBStdFeatureReqHandler@p+1,fsr2h
 12476  01040C  0E00               	movlw	0
 12477  01040E  8EDB               	bsf	plusw2,7,c
 12478                           
 12479                           ;usb_device.c: 2879: }
 12480  010410  0012               	return	
 12481  010412                     i2l5056:
 12482                           
 12483                           ; BSR set to: 13
 12484                           ;usb_device.c: 2880: else
 12485                           ;usb_device.c: 2881: {
 12486                           ;usb_device.c: 2885: {((uint8_t_VAL*)&p)->Val ^= 0x0004;};
 12487  010412  0E04               	movlw	4
 12488  010414  1A46               	xorwf	USBStdFeatureReqHandler@p,f,c
 12489                           
 12490                           ; BSR set to: 13
 12491                           ;usb_device.c: 2887: if(p->STAT.UOWN == 1)
 12492  010416  C046  FFD9         	movff	USBStdFeatureReqHandler@p,fsr2l
 12493  01041A  C047  FFDA         	movff	USBStdFeatureReqHandler@p+1,fsr2h
 12494  01041E  AEDF               	btfss	indf2,7,c
 12495  010420  D01B               	goto	i2l5066
 12496                           
 12497                           ; BSR set to: 13
 12498                           ;usb_device.c: 2888: {
 12499                           ;usb_device.c: 2891: p->STAT.Val &= (~0x80);
 12500  010422  C046  FFD9         	movff	USBStdFeatureReqHandler@p,fsr2l
 12501  010426  C047  FFDA         	movff	USBStdFeatureReqHandler@p+1,fsr2h
 12502  01042A  0E7F               	movlw	127
 12503  01042C  16DF               	andwf	indf2,f,c
 12504                           
 12505                           ; BSR set to: 13
 12506                           ;usb_device.c: 2892: p->STAT.Val |= 0x40;
 12507  01042E  C046  FFD9         	movff	USBStdFeatureReqHandler@p,fsr2l
 12508  010432  C047  FFDA         	movff	USBStdFeatureReqHandler@p+1,fsr2h
 12509  010436  0E00               	movlw	0
 12510  010438  8CDB               	bsf	plusw2,6,c
 12511                           
 12512                           ; BSR set to: 13
 12513                           ;usb_device.c: 2893: USER_USB_CALLBACK_EVENT_HANDLER(EVENT_TRANSFER_TERMINATED,p,sizeof(
      +                          p));
 12514  01043A  0E00               	movlw	0
 12515  01043C  6E3B               	movwf	USER_USB_CALLBACK_EVENT_HANDLER@event+1,c
 12516  01043E  0E05               	movlw	5
 12517  010440  6E3A               	movwf	USER_USB_CALLBACK_EVENT_HANDLER@event,c
 12518  010442  C046  F03C         	movff	USBStdFeatureReqHandler@p,USER_USB_CALLBACK_EVENT_HANDLER@pdata
 12519  010446  C047  F03D         	movff	USBStdFeatureReqHandler@p+1,USER_USB_CALLBACK_EVENT_HANDLER@pdata+1
 12520  01044A  0E00               	movlw	0
 12521  01044C  6E3F               	movwf	USER_USB_CALLBACK_EVENT_HANDLER@size+1,c
 12522  01044E  0E02               	movlw	2
 12523  010450  6E3E               	movwf	USER_USB_CALLBACK_EVENT_HANDLER@size,c
 12524  010452  EC77  F096         	call	_USER_USB_CALLBACK_EVENT_HANDLER	;wreg free
 12525                           
 12526                           ;usb_device.c: 2894: }
 12527  010456  D006               	goto	i2l5068
 12528  010458                     i2l5066:
 12529                           
 12530                           ;usb_device.c: 2895: else
 12531                           ;usb_device.c: 2896: {
 12532                           ;usb_device.c: 2898: p->STAT.Val |= 0x40;
 12533  010458  C046  FFD9         	movff	USBStdFeatureReqHandler@p,fsr2l
 12534  01045C  C047  FFDA         	movff	USBStdFeatureReqHandler@p+1,fsr2h
 12535  010460  0E00               	movlw	0
 12536  010462  8CDB               	bsf	plusw2,6,c
 12537  010464                     i2l5068:
 12538                           
 12539                           ;usb_device.c: 2899: }
 12540                           ;usb_device.c: 2903: {((uint8_t_VAL*)&p)->Val ^= 0x0004;};
 12541  010464  0E04               	movlw	4
 12542  010466  1A46               	xorwf	USBStdFeatureReqHandler@p,f,c
 12543                           
 12544                           ;usb_device.c: 2909: if((current_ep_data.bits.transfer_terminated != 0) || (p->STAT.UOWN
      +                           == 1))
 12545  010468  B245               	btfsc	USBStdFeatureReqHandler@current_ep_data,1,c
 12546  01046A  D006               	goto	i2l1211
 12547  01046C  C046  FFD9         	movff	USBStdFeatureReqHandler@p,fsr2l
 12548  010470  C047  FFDA         	movff	USBStdFeatureReqHandler@p+1,fsr2h
 12549  010474  AEDF               	btfss	indf2,7,c
 12550  010476  D030               	goto	i2l5082
 12551  010478                     i2l1211:
 12552                           
 12553                           ;usb_device.c: 2910: {
 12554                           ;usb_device.c: 2911: if(SetupPkt.EPDir == 0)
 12555  010478  010D               	movlb	13	; () banked
 12556  01047A  BF34               	btfsc	52,7,b	;volatile
 12557  01047C  D00B               	goto	i2l5076
 12558                           
 12559                           ; BSR set to: 13
 12560                           ;usb_device.c: 2912: {
 12561                           ;usb_device.c: 2913: ep_data_out[SetupPkt.EPNum].bits.transfer_terminated = 0;
 12562  01047E  010D               	movlb	13	; () banked
 12563  010480  5134               	movf	52,w,b	;volatile
 12564  010482  0B0F               	andlw	15
 12565  010484  6E42               	movwf	??_USBStdFeatureReqHandler& (0+255),c
 12566  010486  5042               	movf	??_USBStdFeatureReqHandler,w,c
 12567  010488  0D01               	mullw	1
 12568  01048A  0E19               	movlw	low _ep_data_out
 12569  01048C  24F3               	addwf	prodl,w,c
 12570  01048E  6ED9               	movwf	fsr2l,c
 12571  010490  0E00               	movlw	high _ep_data_out
 12572  010492  D00A               	goto	L10
 12573  010494                     i2l5076:
 12574                           
 12575                           ; BSR set to: 13
 12576                           ;usb_device.c: 2915: else
 12577                           ;usb_device.c: 2916: {
 12578                           ;usb_device.c: 2917: ep_data_in[SetupPkt.EPNum].bits.transfer_terminated = 0;
 12579  010494  010D               	movlb	13	; () banked
 12580  010496  5134               	movf	52,w,b	;volatile
 12581  010498  0B0F               	andlw	15
 12582  01049A  6E42               	movwf	??_USBStdFeatureReqHandler& (0+255),c
 12583  01049C  5042               	movf	??_USBStdFeatureReqHandler,w,c
 12584  01049E  0D01               	mullw	1
 12585  0104A0  0E16               	movlw	low _ep_data_in
 12586  0104A2  24F3               	addwf	prodl,w,c
 12587  0104A4  6ED9               	movwf	fsr2l,c
 12588  0104A6  0E00               	movlw	high _ep_data_in
 12589  0104A8                     L10:
 12590  0104A8  20F4               	addwfc	prodh,w,c
 12591  0104AA  6EDA               	movwf	fsr2h,c
 12592  0104AC  92DF               	bcf	indf2,1,c
 12593                           
 12594                           ; BSR set to: 13
 12595                           ;usb_device.c: 2918: }
 12596                           ;usb_device.c: 2920: p->STAT.Val &= ~(0x80 | 0x40 | 0x04);
 12597                           
 12598                           ; BSR set to: 13
 12599  0104AE  C046  FFD9         	movff	USBStdFeatureReqHandler@p,fsr2l
 12600  0104B2  C047  FFDA         	movff	USBStdFeatureReqHandler@p+1,fsr2h
 12601  0104B6  0E3B               	movlw	59
 12602  0104B8  16DF               	andwf	indf2,f,c
 12603                           
 12604                           ; BSR set to: 13
 12605                           ;usb_device.c: 2923: USER_USB_CALLBACK_EVENT_HANDLER(EVENT_TRANSFER_TERMINATED,p,sizeof(
      +                          p));
 12606  0104BA  0E00               	movlw	0
 12607  0104BC  6E3B               	movwf	USER_USB_CALLBACK_EVENT_HANDLER@event+1,c
 12608  0104BE  0E05               	movlw	5
 12609  0104C0  6E3A               	movwf	USER_USB_CALLBACK_EVENT_HANDLER@event,c
 12610  0104C2  C046  F03C         	movff	USBStdFeatureReqHandler@p,USER_USB_CALLBACK_EVENT_HANDLER@pdata
 12611  0104C6  C047  F03D         	movff	USBStdFeatureReqHandler@p+1,USER_USB_CALLBACK_EVENT_HANDLER@pdata+1
 12612  0104CA  0E00               	movlw	0
 12613  0104CC  6E3F               	movwf	USER_USB_CALLBACK_EVENT_HANDLER@size+1,c
 12614  0104CE  0E02               	movlw	2
 12615  0104D0  6E3E               	movwf	USER_USB_CALLBACK_EVENT_HANDLER@size,c
 12616  0104D2  EC77  F096         	call	_USER_USB_CALLBACK_EVENT_HANDLER	;wreg free
 12617                           
 12618                           ;usb_device.c: 2924: }
 12619  0104D6  D006               	goto	i2l5084
 12620  0104D8                     i2l5082:
 12621                           
 12622                           ;usb_device.c: 2925: else
 12623                           ;usb_device.c: 2926: {
 12624                           ;usb_device.c: 2928: p->STAT.Val &= ~(0x80 | 0x40 | 0x04);
 12625  0104D8  C046  FFD9         	movff	USBStdFeatureReqHandler@p,fsr2l
 12626  0104DC  C047  FFDA         	movff	USBStdFeatureReqHandler@p+1,fsr2h
 12627  0104E0  0E3B               	movlw	59
 12628  0104E2  16DF               	andwf	indf2,f,c
 12629  0104E4                     i2l5084:
 12630                           
 12631                           ;usb_device.c: 2929: }
 12632                           ;usb_device.c: 2976: pUEP = (unsigned char*)(&UEP0+SetupPkt.EPNum);
 12633  0104E4  010D               	movlb	13	; () banked
 12634  0104E6  5134               	movf	52,w,b	;volatile
 12635  0104E8  0B0F               	andlw	15
 12636  0104EA  6E42               	movwf	??_USBStdFeatureReqHandler& (0+255),c
 12637  0104EC  5042               	movf	??_USBStdFeatureReqHandler,w,c
 12638  0104EE  0D01               	mullw	1
 12639  0104F0  0E26               	movlw	38
 12640  0104F2  24F3               	addwf	prodl,w,c
 12641  0104F4  6E43               	movwf	USBStdFeatureReqHandler@pUEP,c
 12642  0104F6  0E0F               	movlw	15
 12643  0104F8  20F4               	addwfc	prodh,w,c
 12644  0104FA  6E44               	movwf	USBStdFeatureReqHandler@pUEP+1,c
 12645                           
 12646                           ; BSR set to: 13
 12647                           ;usb_device.c: 2980: *pUEP &= ~0x0001;
 12648  0104FC  C043  FFD9         	movff	USBStdFeatureReqHandler@pUEP,fsr2l
 12649  010500  C044  FFDA         	movff	USBStdFeatureReqHandler@pUEP+1,fsr2h
 12650  010504  0EFE               	movlw	254
 12651  010506  16DF               	andwf	indf2,f,c
 12652                           
 12653                           ; BSR set to: 13
 12654  010508  0012               	return	
 12655  01050A                     __end_of_USBStdFeatureReqHandler:
 12656                           	opt stack 0
 12657                           pclatu	equ	0xFFB
 12658                           pclath	equ	0xFFA
 12659                           tblptru	equ	0xFF8
 12660                           tblptrh	equ	0xFF7
 12661                           tblptrl	equ	0xFF6
 12662                           tablat	equ	0xFF5
 12663                           prodh	equ	0xFF4
 12664                           prodl	equ	0xFF3
 12665                           intcon	equ	0xFF2
 12666                           intcon2	equ	0xFF1
 12667                           indf0	equ	0xFEF
 12668                           postinc0	equ	0xFEE
 12669                           fsr0h	equ	0xFEA
 12670                           fsr0l	equ	0xFE9
 12671                           wreg	equ	0xFE8
 12672                           indf1	equ	0xFE7
 12673                           postinc1	equ	0xFE6
 12674                           postdec1	equ	0xFE5
 12675                           fsr1h	equ	0xFE2
 12676                           fsr1l	equ	0xFE1
 12677                           indf2	equ	0xFDF
 12678                           postinc2	equ	0xFDE
 12679                           postdec2	equ	0xFDD
 12680                           plusw2	equ	0xFDB
 12681                           fsr2h	equ	0xFDA
 12682                           fsr2l	equ	0xFD9
 12683                           status	equ	0xFD8
 12684                           
 12685 ;; *************** function _USER_USB_CALLBACK_EVENT_HANDLER *****************
 12686 ;; Defined at:
 12687 ;;		line 44 in file "../../../My_library/My_usb_cdc.c"
 12688 ;; Parameters:    Size  Location     Type
 12689 ;;  event           2   12[COMRAM] enum E8545
 12690 ;;  pdata           2   14[COMRAM] PTR void 
 12691 ;;		 -> USTATcopy(1), USBActiveConfiguration(1), NULL(0), BDT(48), 
 12692 ;;  size            2   16[COMRAM] unsigned int 
 12693 ;; Auto vars:     Size  Location     Type
 12694 ;;		None
 12695 ;; Return value:  Size  Location     Type
 12696 ;;                  1    wreg      unsigned char 
 12697 ;; Registers used:
 12698 ;;		wreg, fsr2l, fsr2h, status,2, status,0, prodl, prodh, cstack
 12699 ;; Tracked objects:
 12700 ;;		On entry : 0/0
 12701 ;;		On exit  : 0/0
 12702 ;;		Unchanged: 0/0
 12703 ;; Data sizes:     COMRAM   BANK0   BANK1   BANK2   BANK3   BANK4   BANK5   BANK6   BANK7   BANK8   BANK9  BANK10  BANK1
      +1  BANK12  BANK13  BANK14
 12704 ;;      Params:         6       0       0       0       0       0       0       0       0       0       0       0       
      +0       0       0       0
 12705 ;;      Locals:         0       0       0       0       0       0       0       0       0       0       0       0       
      +0       0       0       0
 12706 ;;      Temps:          2       0       0       0       0       0       0       0       0       0       0       0       
      +0       0       0       0
 12707 ;;      Totals:         8       0       0       0       0       0       0       0       0       0       0       0       
      +0       0       0       0
 12708 ;;Total ram usage:        8 bytes
 12709 ;; Hardware stack levels used:    1
 12710 ;; Hardware stack levels required when called:    3
 12711 ;; This function calls:
 12712 ;;		_CDCInitEP
 12713 ;;		_USBCheckCDCRequest
 12714 ;; This function is called by:
 12715 ;;		_USBDeviceTasks
 12716 ;;		_USBStdSetCfgHandler
 12717 ;;		_USBSuspend
 12718 ;;		_USBWakeFromSuspend
 12719 ;;		_USBCtrlTrfSetupHandler
 12720 ;;		_USBCheckStdRequest
 12721 ;;		_USBStdFeatureReqHandler
 12722 ;; This function uses a non-reentrant model
 12723 ;;
 12724                           
 12725                           	psect	text67
 12726  012CEE                     __ptext67:
 12727                           	opt stack 0
 12728  012CEE                     _USER_USB_CALLBACK_EVENT_HANDLER:
 12729                           	opt stack 18
 12730                           
 12731                           ;My_usb_cdc.c: 45: switch ((int) event) {
 12732                           
 12733                           ; BSR set to: 13
 12734                           ;incstack = 0
 12735  012CEE  D006               	goto	i2l4788
 12736  012CF0                     i2l4782:
 12737                           
 12738                           ;My_usb_cdc.c: 47: CDCInitEP();
 12739  012CF0  ECDA  F093         	call	_CDCInitEP	;wreg free
 12740                           
 12741                           ;My_usb_cdc.c: 48: break;
 12742  012CF4  0012               	return	
 12743  012CF6                     i2l4784:
 12744                           
 12745                           ;My_usb_cdc.c: 50: USBCheckCDCRequest();
 12746  012CF6  ECE7  F090         	call	_USBCheckCDCRequest	;wreg free
 12747                           
 12748                           ;My_usb_cdc.c: 52: }
 12749                           
 12750                           ;My_usb_cdc.c: 51: break;
 12751  012CFA  0012               	return	
 12752  012CFC                     i2l4788:
 12753  012CFC  C03A  F040         	movff	USER_USB_CALLBACK_EVENT_HANDLER@event,??_USER_USB_CALLBACK_EVENT_HANDLER
 12754  012D00  C03B  F041         	movff	USER_USB_CALLBACK_EVENT_HANDLER@event+1,??_USER_USB_CALLBACK_EVENT_HANDLER+1
 12755                           
 12756                           ; Switch on 2 bytes has been partitioned into a top level switch of size 1, and 1 sub-sw
      +                          itches
 12757                           ; Switch size 1, requested type "space"
 12758                           ; Number of cases is 1, Range of values is 0 to 0
 12759                           ; switch strategies available:
 12760                           ; Name         Instructions Cycles
 12761                           ; simple_byte            4     3 (average)
 12762                           ;	Chosen strategy is simple_byte
 12763  012D04  5041               	movf	??_USER_USB_CALLBACK_EVENT_HANDLER+1,w,c
 12764  012D06  0A00               	xorlw	0	; case 0
 12765  012D08  A4D8               	btfss	status,2,c
 12766  012D0A  0012               	return	
 12767                           
 12768                           ; Switch size 1, requested type "space"
 12769                           ; Number of cases is 2, Range of values is 1 to 3
 12770                           ; switch strategies available:
 12771                           ; Name         Instructions Cycles
 12772                           ; simple_byte            7     4 (average)
 12773                           ;	Chosen strategy is simple_byte
 12774  012D0C  5040               	movf	??_USER_USB_CALLBACK_EVENT_HANDLER,w,c
 12775  012D0E  0A01               	xorlw	1	; case 1
 12776  012D10  B4D8               	btfsc	status,2,c
 12777  012D12  D7EE               	goto	i2l4782
 12778  012D14  0A02               	xorlw	2	; case 3
 12779  012D16  A4D8               	btfss	status,2,c
 12780  012D18  0012               	return	
 12781  012D1A  D7ED               	goto	i2l4784
 12782  012D1C                     __end_of_USER_USB_CALLBACK_EVENT_HANDLER:
 12783                           	opt stack 0
 12784                           pclatu	equ	0xFFB
 12785                           pclath	equ	0xFFA
 12786                           tblptru	equ	0xFF8
 12787                           tblptrh	equ	0xFF7
 12788                           tblptrl	equ	0xFF6
 12789                           tablat	equ	0xFF5
 12790                           prodh	equ	0xFF4
 12791                           prodl	equ	0xFF3
 12792                           intcon	equ	0xFF2
 12793                           intcon2	equ	0xFF1
 12794                           indf0	equ	0xFEF
 12795                           postinc0	equ	0xFEE
 12796                           fsr0h	equ	0xFEA
 12797                           fsr0l	equ	0xFE9
 12798                           wreg	equ	0xFE8
 12799                           indf1	equ	0xFE7
 12800                           postinc1	equ	0xFE6
 12801                           postdec1	equ	0xFE5
 12802                           fsr1h	equ	0xFE2
 12803                           fsr1l	equ	0xFE1
 12804                           indf2	equ	0xFDF
 12805                           postinc2	equ	0xFDE
 12806                           postdec2	equ	0xFDD
 12807                           plusw2	equ	0xFDB
 12808                           fsr2h	equ	0xFDA
 12809                           fsr2l	equ	0xFD9
 12810                           status	equ	0xFD8
 12811                           
 12812 ;; *************** function _USBCheckCDCRequest *****************
 12813 ;; Defined at:
 12814 ;;		line 204 in file "../../../My_library/usb/usb_device_cdc.c"
 12815 ;; Parameters:    Size  Location     Type
 12816 ;;		None
 12817 ;; Auto vars:     Size  Location     Type
 12818 ;;		None
 12819 ;; Return value:  Size  Location     Type
 12820 ;;		None               void
 12821 ;; Registers used:
 12822 ;;		wreg, status,2, status,0
 12823 ;; Tracked objects:
 12824 ;;		On entry : 0/0
 12825 ;;		On exit  : 0/0
 12826 ;;		Unchanged: 0/0
 12827 ;; Data sizes:     COMRAM   BANK0   BANK1   BANK2   BANK3   BANK4   BANK5   BANK6   BANK7   BANK8   BANK9  BANK10  BANK1
      +1  BANK12  BANK13  BANK14
 12828 ;;      Params:         0       0       0       0       0       0       0       0       0       0       0       0       
      +0       0       0       0
 12829 ;;      Locals:         0       0       0       0       0       0       0       0       0       0       0       0       
      +0       0       0       0
 12830 ;;      Temps:          0       0       0       0       0       0       0       0       0       0       0       0       
      +0       0       0       0
 12831 ;;      Totals:         0       0       0       0       0       0       0       0       0       0       0       0       
      +0       0       0       0
 12832 ;;Total ram usage:        0 bytes
 12833 ;; Hardware stack levels used:    1
 12834 ;; This function calls:
 12835 ;;		Nothing
 12836 ;; This function is called by:
 12837 ;;		_USER_USB_CALLBACK_EVENT_HANDLER
 12838 ;; This function uses a non-reentrant model
 12839 ;;
 12840                           
 12841                           	psect	text68
 12842  0121CE                     __ptext68:
 12843                           	opt stack 0
 12844  0121CE                     _USBCheckCDCRequest:
 12845                           	opt stack 20
 12846                           
 12847                           ;usb_device_cdc.c: 209: if(SetupPkt.Recipient != (0x01)) return;
 12848                           
 12849                           ;incstack = 0
 12850  0121CE  010D               	movlb	13	; () banked
 12851  0121D0  5130               	movf	48,w,b	;volatile
 12852  0121D2  0B1F               	andlw	31
 12853  0121D4  06E8               	decf	wreg,f,c
 12854  0121D6  A4D8               	btfss	status,2,c
 12855  0121D8  0012               	return	
 12856                           
 12857                           ; BSR set to: 13
 12858                           ;usb_device_cdc.c: 214: if(SetupPkt.RequestType != (0x20>>5)) return;
 12859                           
 12860                           ; BSR set to: 13
 12861                           
 12862                           ; BSR set to: 13
 12863  0121DA  010D               	movlb	13	; () banked
 12864  0121DC  3930               	swapf	48,w,b	;volatile
 12865  0121DE  32E8               	rrcf	wreg,f,c
 12866  0121E0  0B03               	andlw	3
 12867  0121E2  06E8               	decf	wreg,f,c
 12868  0121E4  A4D8               	btfss	status,2,c
 12869  0121E6  0012               	return	
 12870                           
 12871                           ; BSR set to: 13
 12872                           ;usb_device_cdc.c: 220: if((SetupPkt.bIntfID != 0x0)&&
 12873                           ;usb_device_cdc.c: 221: (SetupPkt.bIntfID != 0x01)) return;
 12874                           
 12875                           ; BSR set to: 13
 12876                           
 12877                           ; BSR set to: 13
 12878  0121E8  010D               	movlb	13	; () banked
 12879  0121EA  5134               	movf	52,w,b	;volatile
 12880  0121EC  B4D8               	btfsc	status,2,c
 12881  0121EE  D035               	goto	i2l4778
 12882                           
 12883                           ; BSR set to: 13
 12884  0121F0  010D               	movlb	13	; () banked
 12885  0121F2  0534               	decf	52,w,b	;volatile
 12886  0121F4  A4D8               	btfss	status,2,c
 12887  0121F6  0012               	return	
 12888  0121F8  D030               	goto	i2l4778
 12889  0121FA                     i2l4754:
 12890                           
 12891                           ; BSR set to: 13
 12892                           ;usb_device_cdc.c: 228: inPipes[0].pSrc.bRam = (uint8_t*)&dummy_encapsulated_cmd_respons
      +                          e;
 12893  0121FA  0EEE               	movlw	low _dummy_encapsulated_cmd_response
 12894  0121FC  6E0A               	movwf	_inPipes,c	;volatile
 12895  0121FE  0E01               	movlw	high _dummy_encapsulated_cmd_response
 12896  012200  6E0B               	movwf	_inPipes+1,c	;volatile
 12897                           
 12898                           ; BSR set to: 13
 12899                           ;usb_device_cdc.c: 229: inPipes[0].wCount.Val = 0x08;
 12900  012202  0E00               	movlw	0
 12901  012204  6E0F               	movwf	_inPipes+5,c	;volatile
 12902  012206  0E08               	movlw	8
 12903  012208  6E0E               	movwf	_inPipes+4,c	;volatile
 12904                           
 12905                           ; BSR set to: 13
 12906                           ;usb_device_cdc.c: 230: inPipes[0].info.bits.ctrl_trf_mem = 0x01;
 12907  01220A  800D               	bsf	_inPipes+3,0,c	;volatile
 12908                           
 12909                           ; BSR set to: 13
 12910                           ;usb_device_cdc.c: 231: inPipes[0].info.bits.busy = 1;
 12911  01220C  8E0D               	bsf	_inPipes+3,7,c	;volatile
 12912                           
 12913                           ;usb_device_cdc.c: 232: break;
 12914  01220E  0012               	return	
 12915  012210                     i2l4762:
 12916                           
 12917                           ; BSR set to: 13
 12918                           ;usb_device_cdc.c: 235: inPipes[0].pSrc.bRam = (uint8_t*)&dummy_encapsulated_cmd_respons
      +                          e;
 12919  012210  0EEE               	movlw	low _dummy_encapsulated_cmd_response
 12920  012212  6E0A               	movwf	_inPipes,c	;volatile
 12921  012214  0E01               	movlw	high _dummy_encapsulated_cmd_response
 12922  012216  6E0B               	movwf	_inPipes+1,c	;volatile
 12923                           
 12924                           ; BSR set to: 13
 12925                           ;usb_device_cdc.c: 236: inPipes[0].info.bits.busy = 1;
 12926  012218  8E0D               	bsf	_inPipes+3,7,c	;volatile
 12927                           
 12928                           ;usb_device_cdc.c: 237: break;
 12929  01221A  0012               	return	
 12930  01221C                     i2l1268:
 12931                           
 12932                           ; BSR set to: 13
 12933                           ;usb_device_cdc.c: 242: outPipes[0].wCount.Val = SetupPkt.wLength;
 12934  01221C  CD36 F005          	movff	3382,_outPipes+4	;volatile
 12935  012220  CD37 F006          	movff	3383,_outPipes+5	;volatile
 12936                           
 12937                           ; BSR set to: 13
 12938                           ;usb_device_cdc.c: 243: outPipes[0].pDst.bRam = (uint8_t*)&line_coding._byte[0];
 12939  012224  0EC0               	movlw	low _line_coding
 12940  012226  6E01               	movwf	_outPipes,c	;volatile
 12941  012228  0E00               	movlw	high _line_coding
 12942  01222A  6E02               	movwf	_outPipes+1,c	;volatile
 12943                           
 12944                           ;usb_device_cdc.c: 244: outPipes[0].pFunc = (0);
 12945  01222C  0E00               	movlw	0
 12946  01222E  6E07               	movwf	_outPipes+6,c	;volatile
 12947  012230  0E00               	movlw	0
 12948  012232  6E08               	movwf	_outPipes+7,c	;volatile
 12949  012234  0E00               	movlw	0
 12950  012236  6E09               	movwf	_outPipes+8,c	;volatile
 12951                           
 12952                           ; BSR set to: 13
 12953                           ;usb_device_cdc.c: 245: outPipes[0].info.bits.busy = 1;
 12954  012238  8E04               	bsf	_outPipes+3,7,c	;volatile
 12955                           
 12956                           ;usb_device_cdc.c: 246: break;
 12957  01223A  0012               	return	
 12958  01223C                     i2l4770:
 12959                           
 12960                           ; BSR set to: 13
 12961                           ;usb_device_cdc.c: 249: { inPipes[0].pSrc.bRam = (uint8_t*)&line_coding; inPipes[0].wCou
      +                          nt.Val = 0x07; inPipes[0].info.Val = 0x40 | 0x80 | 0x01; };
 12962  01223C  0EC0               	movlw	low _line_coding
 12963  01223E  6E0A               	movwf	_inPipes,c	;volatile
 12964  012240  0E00               	movlw	high _line_coding
 12965  012242  6E0B               	movwf	_inPipes+1,c	;volatile
 12966                           
 12967                           ; BSR set to: 13
 12968  012244  0E00               	movlw	0
 12969  012246  6E0F               	movwf	_inPipes+5,c	;volatile
 12970  012248  0E07               	movlw	7
 12971  01224A  6E0E               	movwf	_inPipes+4,c	;volatile
 12972                           
 12973                           ; BSR set to: 13
 12974  01224C  0EC1               	movlw	193
 12975  01224E  6E0D               	movwf	_inPipes+3,c	;volatile
 12976                           
 12977                           ;usb_device_cdc.c: 253: break;
 12978  012250  0012               	return	
 12979  012252                     i2l1270:
 12980                           
 12981                           ; BSR set to: 13
 12982                           ;usb_device_cdc.c: 256: control_signal_bitmap._byte = (uint8_t)SetupPkt.wValue;
 12983  012252  CD32 F086          	movff	3378,_control_signal_bitmap	;volatile
 12984                           
 12985                           ;usb_device_cdc.c: 288: inPipes[0].info.bits.busy = 1;
 12986  012256  8E0D               	bsf	_inPipes+3,7,c	;volatile
 12987                           
 12988                           ; BSR set to: 13
 12989                           ;usb_device_cdc.c: 315: }
 12990                           
 12991                           ; BSR set to: 13
 12992                           ;usb_device_cdc.c: 314: break;
 12993                           
 12994                           ;usb_device_cdc.c: 313: default:
 12995                           
 12996                           ;usb_device_cdc.c: 289: break;
 12997  012258  0012               	return	
 12998  01225A                     i2l4778:
 12999                           
 13000                           ; BSR set to: 13
 13001  01225A  010D               	movlb	13	; () banked
 13002  01225C  5131               	movf	49,w,b	;volatile
 13003                           
 13004                           ; Switch size 1, requested type "space"
 13005                           ; Number of cases is 5, Range of values is 0 to 34
 13006                           ; switch strategies available:
 13007                           ; Name         Instructions Cycles
 13008                           ; simple_byte           16     9 (average)
 13009                           ;	Chosen strategy is simple_byte
 13010  01225E  0A00               	xorlw	0	; case 0
 13011  012260  B4D8               	btfsc	status,2,c
 13012  012262  D7CB               	goto	i2l4754
 13013  012264  0A01               	xorlw	1	; case 1
 13014  012266  B4D8               	btfsc	status,2,c
 13015  012268  D7D3               	goto	i2l4762
 13016  01226A  0A21               	xorlw	33	; case 32
 13017  01226C  B4D8               	btfsc	status,2,c
 13018  01226E  D7D6               	goto	i2l1268
 13019  012270  0A01               	xorlw	1	; case 33
 13020  012272  B4D8               	btfsc	status,2,c
 13021  012274  D7E3               	goto	i2l4770
 13022  012276  0A03               	xorlw	3	; case 34
 13023  012278  A4D8               	btfss	status,2,c
 13024  01227A  0012               	return	
 13025  01227C  D7EA               	goto	i2l1270
 13026  01227E                     __end_of_USBCheckCDCRequest:
 13027                           	opt stack 0
 13028                           pclatu	equ	0xFFB
 13029                           pclath	equ	0xFFA
 13030                           tblptru	equ	0xFF8
 13031                           tblptrh	equ	0xFF7
 13032                           tblptrl	equ	0xFF6
 13033                           tablat	equ	0xFF5
 13034                           prodh	equ	0xFF4
 13035                           prodl	equ	0xFF3
 13036                           intcon	equ	0xFF2
 13037                           intcon2	equ	0xFF1
 13038                           indf0	equ	0xFEF
 13039                           postinc0	equ	0xFEE
 13040                           fsr0h	equ	0xFEA
 13041                           fsr0l	equ	0xFE9
 13042                           wreg	equ	0xFE8
 13043                           indf1	equ	0xFE7
 13044                           postinc1	equ	0xFE6
 13045                           postdec1	equ	0xFE5
 13046                           fsr1h	equ	0xFE2
 13047                           fsr1l	equ	0xFE1
 13048                           indf2	equ	0xFDF
 13049                           postinc2	equ	0xFDE
 13050                           postdec2	equ	0xFDD
 13051                           plusw2	equ	0xFDB
 13052                           fsr2h	equ	0xFDA
 13053                           fsr2l	equ	0xFD9
 13054                           status	equ	0xFD8
 13055                           
 13056 ;; *************** function _CDCInitEP *****************
 13057 ;; Defined at:
 13058 ;;		line 351 in file "../../../My_library/usb/usb_device_cdc.c"
 13059 ;; Parameters:    Size  Location     Type
 13060 ;;		None
 13061 ;; Auto vars:     Size  Location     Type
 13062 ;;		None
 13063 ;; Return value:  Size  Location     Type
 13064 ;;		None               void
 13065 ;; Registers used:
 13066 ;;		wreg, fsr2l, fsr2h, status,2, status,0, prodl, prodh, cstack
 13067 ;; Tracked objects:
 13068 ;;		On entry : 0/0
 13069 ;;		On exit  : 0/0
 13070 ;;		Unchanged: 0/0
 13071 ;; Data sizes:     COMRAM   BANK0   BANK1   BANK2   BANK3   BANK4   BANK5   BANK6   BANK7   BANK8   BANK9  BANK10  BANK1
      +1  BANK12  BANK13  BANK14
 13072 ;;      Params:         0       0       0       0       0       0       0       0       0       0       0       0       
      +0       0       0       0
 13073 ;;      Locals:         0       0       0       0       0       0       0       0       0       0       0       0       
      +0       0       0       0
 13074 ;;      Temps:          0       0       0       0       0       0       0       0       0       0       0       0       
      +0       0       0       0
 13075 ;;      Totals:         0       0       0       0       0       0       0       0       0       0       0       0       
      +0       0       0       0
 13076 ;;Total ram usage:        0 bytes
 13077 ;; Hardware stack levels used:    1
 13078 ;; Hardware stack levels required when called:    2
 13079 ;; This function calls:
 13080 ;;		_USBEnableEndpoint
 13081 ;;		i2_USBTransferOnePacket
 13082 ;; This function is called by:
 13083 ;;		_USER_USB_CALLBACK_EVENT_HANDLER
 13084 ;; This function uses a non-reentrant model
 13085 ;;
 13086                           
 13087                           	psect	text69
 13088  0127B4                     __ptext69:
 13089                           	opt stack 0
 13090  0127B4                     _CDCInitEP:
 13091                           	opt stack 18
 13092                           
 13093                           ;usb_device_cdc.c: 354: line_coding.dwDTERate = 19200;
 13094                           
 13095                           ; BSR set to: 13
 13096                           ;incstack = 0
 13097  0127B4  0E00               	movlw	0
 13098  0127B6  0100               	movlb	0	; () banked
 13099  0127B8  6FC0               	movwf	_line_coding& (0+255),b
 13100  0127BA  0E4B               	movlw	75
 13101  0127BC  6FC1               	movwf	(_line_coding+1)& (0+255),b
 13102  0127BE  0E00               	movlw	0
 13103  0127C0  6FC2               	movwf	(_line_coding+2)& (0+255),b
 13104  0127C2  0E00               	movlw	0
 13105  0127C4  6FC3               	movwf	(_line_coding+3)& (0+255),b
 13106                           
 13107                           ;usb_device_cdc.c: 355: line_coding.bCharFormat = 0x00;
 13108  0127C6  0E00               	movlw	0
 13109  0127C8  0100               	movlb	0	; () banked
 13110  0127CA  6FC4               	movwf	(_line_coding+4)& (0+255),b
 13111                           
 13112                           ;usb_device_cdc.c: 356: line_coding.bParityType = 0x00;
 13113  0127CC  0E00               	movlw	0
 13114  0127CE  0100               	movlb	0	; () banked
 13115  0127D0  6FC5               	movwf	(_line_coding+5)& (0+255),b
 13116                           
 13117                           ;usb_device_cdc.c: 357: line_coding.bDataBits = 0x08;
 13118  0127D2  0E08               	movlw	8
 13119  0127D4  0100               	movlb	0	; () banked
 13120  0127D6  6FC6               	movwf	(_line_coding+6)& (0+255),b
 13121                           
 13122                           ;usb_device_cdc.c: 359: cdc_rx_len = 0;
 13123  0127D8  0E00               	movlw	0
 13124  0127DA  0100               	movlb	0	; () banked
 13125  0127DC  6F83               	movwf	_cdc_rx_len& (0+255),b
 13126                           
 13127                           ; BSR set to: 0
 13128                           ;usb_device_cdc.c: 372: USBEnableEndpoint(1,0x02|0x10|0x08);
 13129  0127DE  0E1A               	movlw	26
 13130  0127E0  6E36               	movwf	USBEnableEndpoint@options,c
 13131  0127E2  0E01               	movlw	1
 13132  0127E4  EC8A  F095         	call	_USBEnableEndpoint
 13133                           
 13134                           ;usb_device_cdc.c: 373: USBEnableEndpoint(2,0x02|0x04|0x10|0x08);
 13135  0127E8  0E1E               	movlw	30
 13136  0127EA  6E36               	movwf	USBEnableEndpoint@options,c
 13137  0127EC  0E02               	movlw	2
 13138  0127EE  EC8A  F095         	call	_USBEnableEndpoint
 13139                           
 13140                           ;usb_device_cdc.c: 375: CDCDataOutHandle = USBTransferOnePacket(2,0,(uint8_t*)&cdc_data_
      +                          rx,sizeof(cdc_data_rx));
 13141  0127F2  0E00               	movlw	0
 13142  0127F4  6E2E               	movwf	i2USBTransferOnePacket@dir,c
 13143  0127F6  0E0A               	movlw	low _cdc_data_rx
 13144  0127F8  6E2F               	movwf	i2USBTransferOnePacket@data,c
 13145  0127FA  0E01               	movlw	high _cdc_data_rx
 13146  0127FC  6E30               	movwf	i2USBTransferOnePacket@data+1,c
 13147  0127FE  0E40               	movlw	64
 13148  012800  6E31               	movwf	i2USBTransferOnePacket@len,c
 13149  012802  0E02               	movlw	2
 13150  012804  ECD2  F08F         	call	i2_USBTransferOnePacket
 13151  012808  C02E  F078         	movff	?i2_USBTransferOnePacket,_CDCDataOutHandle
 13152  01280C  C02F  F079         	movff	?i2_USBTransferOnePacket+1,_CDCDataOutHandle+1
 13153                           
 13154                           ;usb_device_cdc.c: 376: CDCDataInHandle = (0);
 13155  012810  0E00               	movlw	0
 13156  012812  0100               	movlb	0	; () banked
 13157  012814  6F76               	movwf	_CDCDataInHandle& (0+255),b
 13158  012816  0E00               	movlw	0
 13159  012818  0100               	movlb	0	; () banked
 13160  01281A  6F77               	movwf	(_CDCDataInHandle+1)& (0+255),b
 13161                           
 13162                           ; BSR set to: 0
 13163                           ;usb_device_cdc.c: 403: cdc_trf_state = 0;
 13164  01281C  0E00               	movlw	0
 13165  01281E  0100               	movlb	0	; () banked
 13166  012820  6F84               	movwf	_cdc_trf_state& (0+255),b
 13167                           
 13168                           ; BSR set to: 0
 13169  012822  0012               	return		;funcret
 13170  012824                     __end_of_CDCInitEP:
 13171                           	opt stack 0
 13172                           pclatu	equ	0xFFB
 13173                           pclath	equ	0xFFA
 13174                           tblptru	equ	0xFF8
 13175                           tblptrh	equ	0xFF7
 13176                           tblptrl	equ	0xFF6
 13177                           tablat	equ	0xFF5
 13178                           prodh	equ	0xFF4
 13179                           prodl	equ	0xFF3
 13180                           intcon	equ	0xFF2
 13181                           intcon2	equ	0xFF1
 13182                           indf0	equ	0xFEF
 13183                           postinc0	equ	0xFEE
 13184                           fsr0h	equ	0xFEA
 13185                           fsr0l	equ	0xFE9
 13186                           wreg	equ	0xFE8
 13187                           indf1	equ	0xFE7
 13188                           postinc1	equ	0xFE6
 13189                           postdec1	equ	0xFE5
 13190                           fsr1h	equ	0xFE2
 13191                           fsr1l	equ	0xFE1
 13192                           indf2	equ	0xFDF
 13193                           postinc2	equ	0xFDE
 13194                           postdec2	equ	0xFDD
 13195                           plusw2	equ	0xFDB
 13196                           fsr2h	equ	0xFDA
 13197                           fsr2l	equ	0xFD9
 13198                           status	equ	0xFD8
 13199                           
 13200 ;; *************** function i2_USBTransferOnePacket *****************
 13201 ;; Defined at:
 13202 ;;		line 995 in file "../../../My_library/usb/usb_device.c"
 13203 ;; Parameters:    Size  Location     Type
 13204 ;;  ep              1    wreg     unsigned char 
 13205 ;;  dir             1    0[COMRAM] unsigned char 
 13206 ;;  data            2    1[COMRAM] PTR unsigned char 
 13207 ;;		 -> cdc_data_tx(64), cdc_data_rx(64), NULL(0), 
 13208 ;;  len             1    3[COMRAM] unsigned char 
 13209 ;; Auto vars:     Size  Location     Type
 13210 ;;  ep              1    4[COMRAM] unsigned char 
 13211 ;;  USBTransferO    2    5[COMRAM] PTR volatile struct __BD
 13212 ;;		 -> NULL(0), BDT(48), 
 13213 ;; Return value:  Size  Location     Type
 13214 ;;                  2    0[COMRAM] PTR void 
 13215 ;; Registers used:
 13216 ;;		wreg, fsr2l, fsr2h, status,2, status,0, prodl, prodh
 13217 ;; Tracked objects:
 13218 ;;		On entry : 0/0
 13219 ;;		On exit  : 0/0
 13220 ;;		Unchanged: 0/0
 13221 ;; Data sizes:     COMRAM   BANK0   BANK1   BANK2   BANK3   BANK4   BANK5   BANK6   BANK7   BANK8   BANK9  BANK10  BANK1
      +1  BANK12  BANK13  BANK14
 13222 ;;      Params:         4       0       0       0       0       0       0       0       0       0       0       0       
      +0       0       0       0
 13223 ;;      Locals:         3       0       0       0       0       0       0       0       0       0       0       0       
      +0       0       0       0
 13224 ;;      Temps:          0       0       0       0       0       0       0       0       0       0       0       0       
      +0       0       0       0
 13225 ;;      Totals:         7       0       0       0       0       0       0       0       0       0       0       0       
      +0       0       0       0
 13226 ;;Total ram usage:        7 bytes
 13227 ;; Hardware stack levels used:    1
 13228 ;; This function calls:
 13229 ;;		Nothing
 13230 ;; This function is called by:
 13231 ;;		_CDCInitEP
 13232 ;; This function uses a non-reentrant model
 13233 ;;
 13234                           
 13235                           	psect	text70
 13236  011FA4                     __ptext70:
 13237                           	opt stack 0
 13238  011FA4                     i2_USBTransferOnePacket:
 13239                           	opt stack 19
 13240                           
 13241                           ; BSR set to: 0
 13242                           ;incstack = 0
 13243                           ;i2USBTransferOnePacket@ep stored from wreg
 13244  011FA4  6E32               	movwf	i2USBTransferOnePacket@ep,c
 13245                           
 13246                           ;usb_device.c: 997: volatile BDT_ENTRY* handle;
 13247                           ;usb_device.c: 1000: if(dir != 0)
 13248  011FA6  502E               	movf	i2USBTransferOnePacket@dir,w,c
 13249  011FA8  B4D8               	btfsc	status,2,c
 13250  011FAA  D007               	goto	i2l4702
 13251                           
 13252                           ;usb_device.c: 1001: {
 13253                           ;usb_device.c: 1003: handle = pBDTEntryIn[ep];
 13254  011FAC  5032               	movf	i2USBTransferOnePacket@ep,w,c
 13255  011FAE  0D02               	mullw	2
 13256  011FB0  0E10               	movlw	low _pBDTEntryIn
 13257  011FB2  24F3               	addwf	prodl,w,c
 13258  011FB4  6ED9               	movwf	fsr2l,c
 13259  011FB6  0E00               	movlw	high _pBDTEntryIn
 13260  011FB8  D006               	goto	L11
 13261  011FBA                     i2l4702:
 13262                           
 13263                           ;usb_device.c: 1005: else
 13264                           ;usb_device.c: 1006: {
 13265                           ;usb_device.c: 1008: handle = pBDTEntryOut[ep];
 13266  011FBA  5032               	movf	i2USBTransferOnePacket@ep,w,c
 13267  011FBC  0D02               	mullw	2
 13268  011FBE  0E60               	movlw	low _pBDTEntryOut
 13269  011FC0  24F3               	addwf	prodl,w,c
 13270  011FC2  6ED9               	movwf	fsr2l,c
 13271  011FC4  0E00               	movlw	high _pBDTEntryOut
 13272  011FC6                     L11:
 13273  011FC6  20F4               	addwfc	prodh,w,c
 13274  011FC8  6EDA               	movwf	fsr2h,c
 13275  011FCA  CFDE F033          	movff	postinc2,i2USBTransferOnePacket@handle
 13276  011FCE  CFDD F034          	movff	postdec2,i2USBTransferOnePacket@handle+1
 13277                           
 13278                           ;usb_device.c: 1009: }
 13279                           ;usb_device.c: 1013: if(handle == 0)
 13280  011FD2  5033               	movf	i2USBTransferOnePacket@handle,w,c
 13281  011FD4  1034               	iorwf	i2USBTransferOnePacket@handle+1,w,c
 13282  011FD6  A4D8               	btfss	status,2,c
 13283  011FD8  D005               	goto	i2l4710
 13284                           
 13285                           ;usb_device.c: 1014: {
 13286                           ;usb_device.c: 1015: return 0;
 13287  011FDA  0E00               	movlw	0
 13288  011FDC  6E2E               	movwf	?i2_USBTransferOnePacket,c
 13289  011FDE  0E00               	movlw	0
 13290  011FE0  6E2F               	movwf	?i2_USBTransferOnePacket+1,c
 13291  011FE2  0012               	return	
 13292  011FE4                     i2l4710:
 13293                           
 13294                           ;usb_device.c: 1016: }
 13295                           ;usb_device.c: 1029: handle->ADR = ((uint16_t)(data));
 13296  011FE4  EE20 F002          	lfsr	2,2
 13297  011FE8  5033               	movf	i2USBTransferOnePacket@handle,w,c
 13298  011FEA  26D9               	addwf	fsr2l,f,c
 13299  011FEC  5034               	movf	i2USBTransferOnePacket@handle+1,w,c
 13300  011FEE  22DA               	addwfc	fsr2h,f,c
 13301  011FF0  C02F  FFDE         	movff	i2USBTransferOnePacket@data,postinc2
 13302  011FF4  C030  FFDD         	movff	i2USBTransferOnePacket@data+1,postdec2
 13303                           
 13304                           ;usb_device.c: 1030: handle->CNT = len;
 13305  011FF8  EE20 F001          	lfsr	2,1
 13306  011FFC  5033               	movf	i2USBTransferOnePacket@handle,w,c
 13307  011FFE  26D9               	addwf	fsr2l,f,c
 13308  012000  5034               	movf	i2USBTransferOnePacket@handle+1,w,c
 13309  012002  22DA               	addwfc	fsr2h,f,c
 13310  012004  C031  FFDF         	movff	i2USBTransferOnePacket@len,indf2
 13311                           
 13312                           ;usb_device.c: 1031: handle->STAT.Val &= 0x40;
 13313  012008  C033  FFD9         	movff	i2USBTransferOnePacket@handle,fsr2l
 13314  01200C  C034  FFDA         	movff	i2USBTransferOnePacket@handle+1,fsr2h
 13315  012010  0E40               	movlw	64
 13316  012012  16DF               	andwf	indf2,f,c
 13317                           
 13318                           ;usb_device.c: 1032: handle->STAT.Val |= (0x08 & 0x08);
 13319  012014  C033  FFD9         	movff	i2USBTransferOnePacket@handle,fsr2l
 13320  012018  C034  FFDA         	movff	i2USBTransferOnePacket@handle+1,fsr2h
 13321  01201C  0E00               	movlw	0
 13322  01201E  86DB               	bsf	plusw2,3,c
 13323                           
 13324                           ;usb_device.c: 1033: handle->STAT.Val |= 0x80;
 13325  012020  C033  FFD9         	movff	i2USBTransferOnePacket@handle,fsr2l
 13326  012024  C034  FFDA         	movff	i2USBTransferOnePacket@handle+1,fsr2h
 13327  012028  0E00               	movlw	0
 13328  01202A  8EDB               	bsf	plusw2,7,c
 13329                           
 13330                           ;usb_device.c: 1036: if(dir != 0)
 13331  01202C  502E               	movf	i2USBTransferOnePacket@dir,w,c
 13332  01202E  B4D8               	btfsc	status,2,c
 13333  012030  D007               	goto	i2l4722
 13334                           
 13335                           ;usb_device.c: 1037: {
 13336                           ;usb_device.c: 1039: {((uint8_t_VAL*)&pBDTEntryIn[ep])->Val ^= 0x0004;};
 13337  012032  5032               	movf	i2USBTransferOnePacket@ep,w,c
 13338  012034  0D02               	mullw	2
 13339  012036  0E10               	movlw	low _pBDTEntryIn
 13340  012038  24F3               	addwf	prodl,w,c
 13341  01203A  6ED9               	movwf	fsr2l,c
 13342  01203C  0E00               	movlw	high _pBDTEntryIn
 13343  01203E  D006               	goto	L12
 13344  012040                     i2l4722:
 13345                           
 13346                           ;usb_device.c: 1041: else
 13347                           ;usb_device.c: 1042: {
 13348                           ;usb_device.c: 1044: {((uint8_t_VAL*)&pBDTEntryOut[ep])->Val ^= 0x0004;};
 13349  012040  5032               	movf	i2USBTransferOnePacket@ep,w,c
 13350  012042  0D02               	mullw	2
 13351  012044  0E60               	movlw	low _pBDTEntryOut
 13352  012046  24F3               	addwf	prodl,w,c
 13353  012048  6ED9               	movwf	fsr2l,c
 13354  01204A  0E00               	movlw	high _pBDTEntryOut
 13355  01204C                     L12:
 13356  01204C  20F4               	addwfc	prodh,w,c
 13357  01204E  6EDA               	movwf	fsr2h,c
 13358  012050  0E04               	movlw	4
 13359  012052  1ADF               	xorwf	indf2,f,c
 13360                           
 13361                           ;usb_device.c: 1045: }
 13362                           ;usb_device.c: 1046: return (void*)handle;
 13363  012054  C033  F02E         	movff	i2USBTransferOnePacket@handle,?i2_USBTransferOnePacket
 13364  012058  C034  F02F         	movff	i2USBTransferOnePacket@handle+1,?i2_USBTransferOnePacket+1
 13365  01205C  0012               	return	
 13366  01205E                     __end_ofi2_USBTransferOnePacket:
 13367                           	opt stack 0
 13368                           pclatu	equ	0xFFB
 13369                           pclath	equ	0xFFA
 13370                           tblptru	equ	0xFF8
 13371                           tblptrh	equ	0xFF7
 13372                           tblptrl	equ	0xFF6
 13373                           tablat	equ	0xFF5
 13374                           prodh	equ	0xFF4
 13375                           prodl	equ	0xFF3
 13376                           intcon	equ	0xFF2
 13377                           intcon2	equ	0xFF1
 13378                           indf0	equ	0xFEF
 13379                           postinc0	equ	0xFEE
 13380                           fsr0h	equ	0xFEA
 13381                           fsr0l	equ	0xFE9
 13382                           wreg	equ	0xFE8
 13383                           indf1	equ	0xFE7
 13384                           postinc1	equ	0xFE6
 13385                           postdec1	equ	0xFE5
 13386                           fsr1h	equ	0xFE2
 13387                           fsr1l	equ	0xFE1
 13388                           indf2	equ	0xFDF
 13389                           postinc2	equ	0xFDE
 13390                           postdec2	equ	0xFDD
 13391                           plusw2	equ	0xFDB
 13392                           fsr2h	equ	0xFDA
 13393                           fsr2l	equ	0xFD9
 13394                           status	equ	0xFD8
 13395                           
 13396 ;; *************** function _USBEnableEndpoint *****************
 13397 ;; Defined at:
 13398 ;;		line 878 in file "../../../My_library/usb/usb_device.c"
 13399 ;; Parameters:    Size  Location     Type
 13400 ;;  ep              1    wreg     unsigned char 
 13401 ;;  options         1    8[COMRAM] unsigned char 
 13402 ;; Auto vars:     Size  Location     Type
 13403 ;;  ep              1   11[COMRAM] unsigned char 
 13404 ;;  p               2    9[COMRAM] PTR unsigned char 
 13405 ;;		 -> UEP0(1), 
 13406 ;; Return value:  Size  Location     Type
 13407 ;;		None               void
 13408 ;; Registers used:
 13409 ;;		wreg, fsr2l, fsr2h, status,2, status,0, prodl, prodh, cstack
 13410 ;; Tracked objects:
 13411 ;;		On entry : 0/0
 13412 ;;		On exit  : 0/0
 13413 ;;		Unchanged: 0/0
 13414 ;; Data sizes:     COMRAM   BANK0   BANK1   BANK2   BANK3   BANK4   BANK5   BANK6   BANK7   BANK8   BANK9  BANK10  BANK1
      +1  BANK12  BANK13  BANK14
 13415 ;;      Params:         1       0       0       0       0       0       0       0       0       0       0       0       
      +0       0       0       0
 13416 ;;      Locals:         3       0       0       0       0       0       0       0       0       0       0       0       
      +0       0       0       0
 13417 ;;      Temps:          0       0       0       0       0       0       0       0       0       0       0       0       
      +0       0       0       0
 13418 ;;      Totals:         4       0       0       0       0       0       0       0       0       0       0       0       
      +0       0       0       0
 13419 ;;Total ram usage:        4 bytes
 13420 ;; Hardware stack levels used:    1
 13421 ;; Hardware stack levels required when called:    1
 13422 ;; This function calls:
 13423 ;;		_USBConfigureEndpoint
 13424 ;; This function is called by:
 13425 ;;		_CDCInitEP
 13426 ;; This function uses a non-reentrant model
 13427 ;;
 13428                           
 13429                           	psect	text71
 13430  012B14                     __ptext71:
 13431                           	opt stack 0
 13432  012B14                     _USBEnableEndpoint:
 13433                           	opt stack 18
 13434                           
 13435                           ;incstack = 0
 13436                           ;USBEnableEndpoint@ep stored from wreg
 13437  012B14  6E39               	movwf	USBEnableEndpoint@ep,c
 13438                           
 13439                           ;usb_device.c: 880: unsigned char* p;
 13440                           ;usb_device.c: 884: if(options & 0x04)
 13441  012B16  A436               	btfss	USBEnableEndpoint@options,2,c
 13442  012B18  D005               	goto	i2l4690
 13443                           
 13444                           ;usb_device.c: 885: {
 13445                           ;usb_device.c: 886: USBConfigureEndpoint(ep, 0);
 13446  012B1A  0E00               	movlw	0
 13447  012B1C  6E2E               	movwf	USBConfigureEndpoint@direction,c
 13448  012B1E  5039               	movf	USBEnableEndpoint@ep,w,c
 13449  012B20  EC87  F092         	call	_USBConfigureEndpoint
 13450  012B24                     i2l4690:
 13451                           
 13452                           ;usb_device.c: 887: }
 13453                           ;usb_device.c: 888: if(options & 0x02)
 13454  012B24  A236               	btfss	USBEnableEndpoint@options,1,c
 13455  012B26  D005               	goto	i2l4694
 13456                           
 13457                           ;usb_device.c: 889: {
 13458                           ;usb_device.c: 890: USBConfigureEndpoint(ep, 1);
 13459  012B28  0E01               	movlw	1
 13460  012B2A  6E2E               	movwf	USBConfigureEndpoint@direction,c
 13461  012B2C  5039               	movf	USBEnableEndpoint@ep,w,c
 13462  012B2E  EC87  F092         	call	_USBConfigureEndpoint
 13463  012B32                     i2l4694:
 13464                           
 13465                           ;usb_device.c: 891: }
 13466                           ;usb_device.c: 899: p = (unsigned char*)(&UEP0+ep);
 13467  012B32  5039               	movf	USBEnableEndpoint@ep,w,c
 13468  012B34  0D01               	mullw	1
 13469  012B36  0E26               	movlw	38
 13470  012B38  24F3               	addwf	prodl,w,c
 13471  012B3A  6E37               	movwf	USBEnableEndpoint@p,c
 13472  012B3C  0E0F               	movlw	15
 13473  012B3E  20F4               	addwfc	prodh,w,c
 13474  012B40  6E38               	movwf	USBEnableEndpoint@p+1,c
 13475                           
 13476                           ;usb_device.c: 901: *p = options;
 13477  012B42  C037  FFD9         	movff	USBEnableEndpoint@p,fsr2l
 13478  012B46  C038  FFDA         	movff	USBEnableEndpoint@p+1,fsr2h
 13479  012B4A  C036  FFDF         	movff	USBEnableEndpoint@options,indf2
 13480  012B4E  0012               	return		;funcret
 13481  012B50                     __end_of_USBEnableEndpoint:
 13482                           	opt stack 0
 13483                           pclatu	equ	0xFFB
 13484                           pclath	equ	0xFFA
 13485                           tblptru	equ	0xFF8
 13486                           tblptrh	equ	0xFF7
 13487                           tblptrl	equ	0xFF6
 13488                           tablat	equ	0xFF5
 13489                           prodh	equ	0xFF4
 13490                           prodl	equ	0xFF3
 13491                           intcon	equ	0xFF2
 13492                           intcon2	equ	0xFF1
 13493                           indf0	equ	0xFEF
 13494                           postinc0	equ	0xFEE
 13495                           fsr0h	equ	0xFEA
 13496                           fsr0l	equ	0xFE9
 13497                           wreg	equ	0xFE8
 13498                           indf1	equ	0xFE7
 13499                           postinc1	equ	0xFE6
 13500                           postdec1	equ	0xFE5
 13501                           fsr1h	equ	0xFE2
 13502                           fsr1l	equ	0xFE1
 13503                           indf2	equ	0xFDF
 13504                           postinc2	equ	0xFDE
 13505                           postdec2	equ	0xFDD
 13506                           plusw2	equ	0xFDB
 13507                           fsr2h	equ	0xFDA
 13508                           fsr2l	equ	0xFD9
 13509                           status	equ	0xFD8
 13510                           
 13511 ;; *************** function _USBConfigureEndpoint *****************
 13512 ;; Defined at:
 13513 ;;		line 1543 in file "../../../My_library/usb/usb_device.c"
 13514 ;; Parameters:    Size  Location     Type
 13515 ;;  EPNum           1    wreg     unsigned char 
 13516 ;;  direction       1    0[COMRAM] unsigned char 
 13517 ;; Auto vars:     Size  Location     Type
 13518 ;;  EPNum           1    5[COMRAM] unsigned char 
 13519 ;;  handle          2    6[COMRAM] PTR volatile struct __BD
 13520 ;;		 -> BDT(48), 
 13521 ;; Return value:  Size  Location     Type
 13522 ;;		None               void
 13523 ;; Registers used:
 13524 ;;		wreg, fsr2l, fsr2h, status,2, status,0, prodl, prodh
 13525 ;; Tracked objects:
 13526 ;;		On entry : 0/0
 13527 ;;		On exit  : 0/0
 13528 ;;		Unchanged: 0/0
 13529 ;; Data sizes:     COMRAM   BANK0   BANK1   BANK2   BANK3   BANK4   BANK5   BANK6   BANK7   BANK8   BANK9  BANK10  BANK1
      +1  BANK12  BANK13  BANK14
 13530 ;;      Params:         1       0       0       0       0       0       0       0       0       0       0       0       
      +0       0       0       0
 13531 ;;      Locals:         3       0       0       0       0       0       0       0       0       0       0       0       
      +0       0       0       0
 13532 ;;      Temps:          4       0       0       0       0       0       0       0       0       0       0       0       
      +0       0       0       0
 13533 ;;      Totals:         8       0       0       0       0       0       0       0       0       0       0       0       
      +0       0       0       0
 13534 ;;Total ram usage:        8 bytes
 13535 ;; Hardware stack levels used:    1
 13536 ;; This function calls:
 13537 ;;		Nothing
 13538 ;; This function is called by:
 13539 ;;		_USBEnableEndpoint
 13540 ;; This function uses a non-reentrant model
 13541 ;;
 13542                           
 13543                           	psect	text72
 13544  01250E                     __ptext72:
 13545                           	opt stack 0
 13546  01250E                     _USBConfigureEndpoint:
 13547                           	opt stack 18
 13548                           
 13549                           ;incstack = 0
 13550                           ;USBConfigureEndpoint@EPNum stored from wreg
 13551  01250E  6E33               	movwf	USBConfigureEndpoint@EPNum,c
 13552                           
 13553                           ;usb_device.c: 1545: volatile BDT_ENTRY* handle;
 13554                           ;usb_device.c: 1549: handle = (volatile BDT_ENTRY*)&BDT[0];
 13555  012510  0E00               	movlw	0
 13556  012512  6E34               	movwf	USBConfigureEndpoint@handle,c
 13557  012514  0E0D               	movlw	13
 13558  012516  6E35               	movwf	USBConfigureEndpoint@handle+1,c
 13559                           
 13560                           ;usb_device.c: 1550: handle += (4*EPNum+2*direction+0u);
 13561  012518  502E               	movf	USBConfigureEndpoint@direction,w,c
 13562  01251A  6E2F               	movwf	??_USBConfigureEndpoint& (0+255),c
 13563  01251C  6A30               	clrf	(??_USBConfigureEndpoint+1)& (0+255),c
 13564  01251E  90D8               	bcf	status,0,c
 13565  012520  362F               	rlcf	??_USBConfigureEndpoint,f,c
 13566  012522  3630               	rlcf	??_USBConfigureEndpoint+1,f,c
 13567  012524  5033               	movf	USBConfigureEndpoint@EPNum,w,c
 13568  012526  6E31               	movwf	(??_USBConfigureEndpoint+2)& (0+255),c
 13569  012528  6A32               	clrf	(??_USBConfigureEndpoint+3)& (0+255),c
 13570  01252A  90D8               	bcf	status,0,c
 13571  01252C  3631               	rlcf	??_USBConfigureEndpoint+2,f,c
 13572  01252E  3632               	rlcf	??_USBConfigureEndpoint+3,f,c
 13573  012530  90D8               	bcf	status,0,c
 13574  012532  3631               	rlcf	??_USBConfigureEndpoint+2,f,c
 13575  012534  3632               	rlcf	??_USBConfigureEndpoint+3,f,c
 13576  012536  502F               	movf	??_USBConfigureEndpoint,w,c
 13577  012538  2631               	addwf	??_USBConfigureEndpoint+2,f,c
 13578  01253A  5030               	movf	??_USBConfigureEndpoint+1,w,c
 13579  01253C  2232               	addwfc	??_USBConfigureEndpoint+3,f,c
 13580  01253E  90D8               	bcf	status,0,c
 13581  012540  3631               	rlcf	??_USBConfigureEndpoint+2,f,c
 13582  012542  3632               	rlcf	??_USBConfigureEndpoint+3,f,c
 13583  012544  90D8               	bcf	status,0,c
 13584  012546  3631               	rlcf	??_USBConfigureEndpoint+2,f,c
 13585  012548  3632               	rlcf	??_USBConfigureEndpoint+3,f,c
 13586  01254A  5031               	movf	??_USBConfigureEndpoint+2,w,c
 13587  01254C  2634               	addwf	USBConfigureEndpoint@handle,f,c
 13588  01254E  5032               	movf	??_USBConfigureEndpoint+3,w,c
 13589  012550  2235               	addwfc	USBConfigureEndpoint@handle+1,f,c
 13590                           
 13591                           ;usb_device.c: 1552: handle->STAT.UOWN = 0;
 13592  012552  C034  FFD9         	movff	USBConfigureEndpoint@handle,fsr2l
 13593  012556  C035  FFDA         	movff	USBConfigureEndpoint@handle+1,fsr2h
 13594  01255A  9EDF               	bcf	indf2,7,c
 13595                           
 13596                           ;usb_device.c: 1557: if(direction == 0)
 13597  01255C  502E               	movf	USBConfigureEndpoint@direction,w,c
 13598  01255E  A4D8               	btfss	status,2,c
 13599  012560  D007               	goto	i2l4680
 13600                           
 13601                           ;usb_device.c: 1558: {
 13602                           ;usb_device.c: 1559: pBDTEntryOut[EPNum] = handle;
 13603  012562  5033               	movf	USBConfigureEndpoint@EPNum,w,c
 13604  012564  0D02               	mullw	2
 13605  012566  0E60               	movlw	low _pBDTEntryOut
 13606  012568  24F3               	addwf	prodl,w,c
 13607  01256A  6ED9               	movwf	fsr2l,c
 13608  01256C  0E00               	movlw	high _pBDTEntryOut
 13609  01256E  D006               	goto	L13
 13610  012570                     i2l4680:
 13611                           
 13612                           ;usb_device.c: 1561: else
 13613                           ;usb_device.c: 1562: {
 13614                           ;usb_device.c: 1563: pBDTEntryIn[EPNum] = handle;
 13615  012570  5033               	movf	USBConfigureEndpoint@EPNum,w,c
 13616  012572  0D02               	mullw	2
 13617  012574  0E10               	movlw	low _pBDTEntryIn
 13618  012576  24F3               	addwf	prodl,w,c
 13619  012578  6ED9               	movwf	fsr2l,c
 13620  01257A  0E00               	movlw	high _pBDTEntryIn
 13621  01257C                     L13:
 13622  01257C  20F4               	addwfc	prodh,w,c
 13623  01257E  6EDA               	movwf	fsr2h,c
 13624  012580  C034  FFDE         	movff	USBConfigureEndpoint@handle,postinc2
 13625  012584  C035  FFDD         	movff	USBConfigureEndpoint@handle+1,postdec2
 13626                           
 13627                           ;usb_device.c: 1564: }
 13628                           ;usb_device.c: 1567: handle->STAT.DTS = 0;
 13629  012588  C034  FFD9         	movff	USBConfigureEndpoint@handle,fsr2l
 13630  01258C  C035  FFDA         	movff	USBConfigureEndpoint@handle+1,fsr2h
 13631  012590  9CDF               	bcf	indf2,6,c
 13632                           
 13633                           ;usb_device.c: 1568: (handle+1)->STAT.DTS = 1;
 13634  012592  EE20 F004          	lfsr	2,4
 13635  012596  5034               	movf	USBConfigureEndpoint@handle,w,c
 13636  012598  26D9               	addwf	fsr2l,f,c
 13637  01259A  5035               	movf	USBConfigureEndpoint@handle+1,w,c
 13638  01259C  22DA               	addwfc	fsr2h,f,c
 13639  01259E  8CDF               	bsf	indf2,6,c
 13640  0125A0  0012               	return		;funcret
 13641  0125A2                     __end_of_USBConfigureEndpoint:
 13642                           	opt stack 0
 13643                           pclatu	equ	0xFFB
 13644                           pclath	equ	0xFFA
 13645                           tblptru	equ	0xFF8
 13646                           tblptrh	equ	0xFF7
 13647                           tblptrl	equ	0xFF6
 13648                           tablat	equ	0xFF5
 13649                           prodh	equ	0xFF4
 13650                           prodl	equ	0xFF3
 13651                           intcon	equ	0xFF2
 13652                           intcon2	equ	0xFF1
 13653                           indf0	equ	0xFEF
 13654                           postinc0	equ	0xFEE
 13655                           fsr0h	equ	0xFEA
 13656                           fsr0l	equ	0xFE9
 13657                           wreg	equ	0xFE8
 13658                           indf1	equ	0xFE7
 13659                           postinc1	equ	0xFE6
 13660                           postdec1	equ	0xFE5
 13661                           fsr1h	equ	0xFE2
 13662                           fsr1l	equ	0xFE1
 13663                           indf2	equ	0xFDF
 13664                           postinc2	equ	0xFDE
 13665                           postdec2	equ	0xFDD
 13666                           plusw2	equ	0xFDB
 13667                           fsr2h	equ	0xFDA
 13668                           fsr2l	equ	0xFD9
 13669                           status	equ	0xFD8
 13670                           
 13671 ;; *************** function _USBCtrlTrfOutHandler *****************
 13672 ;; Defined at:
 13673 ;;		line 2541 in file "../../../My_library/usb/usb_device.c"
 13674 ;; Parameters:    Size  Location     Type
 13675 ;;		None
 13676 ;; Auto vars:     Size  Location     Type
 13677 ;;		None
 13678 ;; Return value:  Size  Location     Type
 13679 ;;		None               void
 13680 ;; Registers used:
 13681 ;;		wreg, fsr1l, fsr1h, fsr2l, fsr2h, status,2, status,0, prodl, prodh, cstack
 13682 ;; Tracked objects:
 13683 ;;		On entry : 0/0
 13684 ;;		On exit  : 0/0
 13685 ;;		Unchanged: 0/0
 13686 ;; Data sizes:     COMRAM   BANK0   BANK1   BANK2   BANK3   BANK4   BANK5   BANK6   BANK7   BANK8   BANK9  BANK10  BANK1
      +1  BANK12  BANK13  BANK14
 13687 ;;      Params:         0       0       0       0       0       0       0       0       0       0       0       0       
      +0       0       0       0
 13688 ;;      Locals:         0       0       0       0       0       0       0       0       0       0       0       0       
      +0       0       0       0
 13689 ;;      Temps:          0       0       0       0       0       0       0       0       0       0       0       0       
      +0       0       0       0
 13690 ;;      Totals:         0       0       0       0       0       0       0       0       0       0       0       0       
      +0       0       0       0
 13691 ;;Total ram usage:        0 bytes
 13692 ;; Hardware stack levels used:    1
 13693 ;; Hardware stack levels required when called:    2
 13694 ;; This function calls:
 13695 ;;		_USBCtrlTrfRxService
 13696 ;; This function is called by:
 13697 ;;		_USBCtrlEPService
 13698 ;; This function uses a non-reentrant model
 13699 ;;
 13700                           
 13701                           	psect	text73
 13702  0128FA                     __ptext73:
 13703                           	opt stack 0
 13704  0128FA                     _USBCtrlTrfOutHandler:
 13705                           	opt stack 18
 13706                           
 13707                           ;usb_device.c: 2543: if(controlTransferState == 2)
 13708                           
 13709                           ;incstack = 0
 13710  0128FA  0E02               	movlw	2
 13711  0128FC  1829               	xorwf	_controlTransferState,w,c	;volatile
 13712  0128FE  A4D8               	btfss	status,2,c
 13713  012900  D003               	goto	i2l5374
 13714                           
 13715                           ;usb_device.c: 2544: {
 13716                           ;usb_device.c: 2545: USBCtrlTrfRxService();
 13717  012902  EC72  F087         	call	_USBCtrlTrfRxService	;wreg free
 13718                           
 13719                           ;usb_device.c: 2546: }
 13720  012906  0012               	return	
 13721  012908                     i2l5374:
 13722                           
 13723                           ;usb_device.c: 2547: else
 13724                           ;usb_device.c: 2548: {
 13725                           ;usb_device.c: 2551: controlTransferState = 0;
 13726  012908  0E00               	movlw	0
 13727  01290A  6E29               	movwf	_controlTransferState,c	;volatile
 13728                           
 13729                           ;usb_device.c: 2558: if(BothEP0OutUOWNsSet == 0)
 13730  01290C  5020               	movf	_BothEP0OutUOWNsSet,w,c	;volatile
 13731  01290E  A4D8               	btfss	status,2,c
 13732  012910  D01F               	goto	i2l5382
 13733                           
 13734                           ;usb_device.c: 2559: {
 13735                           ;usb_device.c: 2560: pBDTEntryEP0OutNext->CNT = 8;
 13736  012912  EE20 F001          	lfsr	2,1
 13737  012916  501E               	movf	_pBDTEntryEP0OutNext,w,c
 13738  012918  26D9               	addwf	fsr2l,f,c
 13739  01291A  501F               	movf	_pBDTEntryEP0OutNext+1,w,c
 13740  01291C  22DA               	addwfc	fsr2h,f,c
 13741  01291E  0E08               	movlw	8
 13742  012920  6EDF               	movwf	indf2,c
 13743                           
 13744                           ;usb_device.c: 2561: pBDTEntryEP0OutNext->ADR = ((uint16_t)(&SetupPkt));
 13745  012922  EE20 F002          	lfsr	2,2
 13746  012926  501E               	movf	_pBDTEntryEP0OutNext,w,c
 13747  012928  26D9               	addwf	fsr2l,f,c
 13748  01292A  501F               	movf	_pBDTEntryEP0OutNext+1,w,c
 13749  01292C  22DA               	addwfc	fsr2h,f,c
 13750  01292E  0E30               	movlw	48
 13751  012930  6EDE               	movwf	postinc2,c
 13752  012932  0E0D               	movlw	13
 13753  012934  6EDD               	movwf	postdec2,c
 13754                           
 13755                           ;usb_device.c: 2562: pBDTEntryEP0OutNext->STAT.Val = 0x00|(0x08 & 0x08)|0x04;
 13756  012936  C01E  FFD9         	movff	_pBDTEntryEP0OutNext,fsr2l
 13757  01293A  C01F  FFDA         	movff	_pBDTEntryEP0OutNext+1,fsr2h
 13758  01293E  0E0C               	movlw	12
 13759  012940  6EDF               	movwf	indf2,c
 13760                           
 13761                           ;usb_device.c: 2563: pBDTEntryEP0OutNext->STAT.Val |= 0x80;
 13762  012942  C01E  FFD9         	movff	_pBDTEntryEP0OutNext,fsr2l
 13763  012946  C01F  FFDA         	movff	_pBDTEntryEP0OutNext+1,fsr2h
 13764  01294A  0E00               	movlw	0
 13765  01294C  8EDB               	bsf	plusw2,7,c
 13766                           
 13767                           ;usb_device.c: 2564: }
 13768  01294E  0012               	return	
 13769  012950                     i2l5382:
 13770                           
 13771                           ;usb_device.c: 2565: else
 13772                           ;usb_device.c: 2566: {
 13773                           ;usb_device.c: 2567: BothEP0OutUOWNsSet = 0;
 13774  012950  0E00               	movlw	0
 13775  012952  6E20               	movwf	_BothEP0OutUOWNsSet,c	;volatile
 13776  012954  0012               	return	
 13777  012956                     __end_of_USBCtrlTrfOutHandler:
 13778                           	opt stack 0
 13779                           pclatu	equ	0xFFB
 13780                           pclath	equ	0xFFA
 13781                           tblptru	equ	0xFF8
 13782                           tblptrh	equ	0xFF7
 13783                           tblptrl	equ	0xFF6
 13784                           tablat	equ	0xFF5
 13785                           prodh	equ	0xFF4
 13786                           prodl	equ	0xFF3
 13787                           intcon	equ	0xFF2
 13788                           intcon2	equ	0xFF1
 13789                           indf0	equ	0xFEF
 13790                           postinc0	equ	0xFEE
 13791                           fsr0h	equ	0xFEA
 13792                           fsr0l	equ	0xFE9
 13793                           wreg	equ	0xFE8
 13794                           indf1	equ	0xFE7
 13795                           postinc1	equ	0xFE6
 13796                           postdec1	equ	0xFE5
 13797                           fsr1h	equ	0xFE2
 13798                           fsr1l	equ	0xFE1
 13799                           indf2	equ	0xFDF
 13800                           postinc2	equ	0xFDE
 13801                           postdec2	equ	0xFDD
 13802                           plusw2	equ	0xFDB
 13803                           fsr2h	equ	0xFDA
 13804                           fsr2l	equ	0xFD9
 13805                           status	equ	0xFD8
 13806                           
 13807 ;; *************** function _USBCtrlTrfRxService *****************
 13808 ;; Defined at:
 13809 ;;		line 1852 in file "../../../My_library/usb/usb_device.c"
 13810 ;; Parameters:    Size  Location     Type
 13811 ;;		None
 13812 ;; Auto vars:     Size  Location     Type
 13813 ;;  byteToRead      1    1[COMRAM] unsigned char 
 13814 ;;  i               1    0[COMRAM] unsigned char 
 13815 ;; Return value:  Size  Location     Type
 13816 ;;		None               void
 13817 ;; Registers used:
 13818 ;;		wreg, fsr1l, fsr1h, fsr2l, fsr2h, status,2, status,0, prodl, prodh, cstack
 13819 ;; Tracked objects:
 13820 ;;		On entry : 0/0
 13821 ;;		On exit  : 0/0
 13822 ;;		Unchanged: 0/0
 13823 ;; Data sizes:     COMRAM   BANK0   BANK1   BANK2   BANK3   BANK4   BANK5   BANK6   BANK7   BANK8   BANK9  BANK10  BANK1
      +1  BANK12  BANK13  BANK14
 13824 ;;      Params:         0       0       0       0       0       0       0       0       0       0       0       0       
      +0       0       0       0
 13825 ;;      Locals:         2       0       0       0       0       0       0       0       0       0       0       0       
      +0       0       0       0
 13826 ;;      Temps:          0       0       0       0       0       0       0       0       0       0       0       0       
      +0       0       0       0
 13827 ;;      Totals:         2       0       0       0       0       0       0       0       0       0       0       0       
      +0       0       0       0
 13828 ;;Total ram usage:        2 bytes
 13829 ;; Hardware stack levels used:    1
 13830 ;; Hardware stack levels required when called:    1
 13831 ;; This function calls:
 13832 ;;		_USBCtrlEPAllowStatusStage
 13833 ;; This function is called by:
 13834 ;;		_USBCtrlTrfOutHandler
 13835 ;; This function uses a non-reentrant model
 13836 ;;
 13837                           
 13838                           	psect	text74
 13839  010EE4                     __ptext74:
 13840                           	opt stack 0
 13841  010EE4                     _USBCtrlTrfRxService:
 13842                           	opt stack 18
 13843                           
 13844                           ;usb_device.c: 1854: uint8_t byteToRead;
 13845                           ;usb_device.c: 1855: uint8_t i;
 13846                           ;usb_device.c: 1859: byteToRead = pBDTEntryEP0OutCurrent->CNT;
 13847                           
 13848                           ;incstack = 0
 13849  010EE4  EE20 F001          	lfsr	2,1
 13850  010EE8  501C               	movf	_pBDTEntryEP0OutCurrent,w,c
 13851  010EEA  26D9               	addwf	fsr2l,f,c
 13852  010EEC  501D               	movf	_pBDTEntryEP0OutCurrent+1,w,c
 13853  010EEE  22DA               	addwfc	fsr2h,f,c
 13854  010EF0  50DF               	movf	indf2,w,c
 13855  010EF2  6E2F               	movwf	USBCtrlTrfRxService@byteToRead,c
 13856                           
 13857                           ;usb_device.c: 1865: if(byteToRead > outPipes[0].wCount.Val)
 13858  010EF4  502F               	movf	USBCtrlTrfRxService@byteToRead,w,c
 13859  010EF6  5C05               	subwf	_outPipes+4,w,c	;volatile
 13860  010EF8  0E00               	movlw	0
 13861  010EFA  5806               	subwfb	_outPipes+5,w,c	;volatile
 13862  010EFC  A0D8               	btfss	status,0,c
 13863                           
 13864                           ;usb_device.c: 1866: {
 13865                           ;usb_device.c: 1867: byteToRead = outPipes[0].wCount.Val;
 13866  010EFE  C005  F02F         	movff	_outPipes+4,USBCtrlTrfRxService@byteToRead	;volatile
 13867                           
 13868                           ;usb_device.c: 1868: }
 13869                           ;usb_device.c: 1870: outPipes[0].wCount.Val -= byteToRead;
 13870  010F02  502F               	movf	USBCtrlTrfRxService@byteToRead,w,c
 13871  010F04  5E05               	subwf	_outPipes+4,f,c	;volatile
 13872  010F06  0E00               	movlw	0
 13873  010F08  5A06               	subwfb	_outPipes+5,f,c	;volatile
 13874                           
 13875                           ;usb_device.c: 1874: for(i=0;i<byteToRead;i++)
 13876  010F0A  0E00               	movlw	0
 13877  010F0C  6E2E               	movwf	USBCtrlTrfRxService@i,c
 13878  010F0E  D011               	goto	i2l5180
 13879  010F10                     i2l5174:
 13880                           
 13881                           ;usb_device.c: 1875: {
 13882                           ;usb_device.c: 1876: *outPipes[0].pDst.bRam++ = CtrlTrfData[i];
 13883  010F10  502E               	movf	USBCtrlTrfRxService@i,w,c
 13884  010F12  0D01               	mullw	1
 13885  010F14  0E38               	movlw	56
 13886  010F16  24F3               	addwf	prodl,w,c
 13887  010F18  6ED9               	movwf	fsr2l,c
 13888  010F1A  0E0D               	movlw	13
 13889  010F1C  20F4               	addwfc	prodh,w,c
 13890  010F1E  6EDA               	movwf	fsr2h,c
 13891  010F20  C001  FFE1         	movff	_outPipes,fsr1l	;volatile
 13892  010F24  C002  FFE2         	movff	_outPipes+1,fsr1h	;volatile
 13893  010F28  CFDF FFE7          	movff	indf2,indf1
 13894  010F2C  4A01               	infsnz	_outPipes,f,c	;volatile
 13895  010F2E  2A02               	incf	_outPipes+1,f,c	;volatile
 13896  010F30  2A2E               	incf	USBCtrlTrfRxService@i,f,c
 13897  010F32                     i2l5180:
 13898  010F32  502F               	movf	USBCtrlTrfRxService@byteToRead,w,c
 13899  010F34  5C2E               	subwf	USBCtrlTrfRxService@i,w,c
 13900  010F36  A0D8               	btfss	status,0,c
 13901  010F38  D7EB               	goto	i2l5174
 13902                           
 13903                           ;usb_device.c: 1877: }
 13904                           ;usb_device.c: 1881: if(outPipes[0].wCount.Val > 0)
 13905  010F3A  5005               	movf	_outPipes+4,w,c	;volatile
 13906  010F3C  1006               	iorwf	_outPipes+5,w,c	;volatile
 13907  010F3E  B4D8               	btfsc	status,2,c
 13908  010F40  D032               	goto	i2l5196
 13909                           
 13910                           ;usb_device.c: 1882: {
 13911                           ;usb_device.c: 1883: pBDTEntryEP0OutNext->CNT = 8;
 13912  010F42  EE20 F001          	lfsr	2,1
 13913  010F46  501E               	movf	_pBDTEntryEP0OutNext,w,c
 13914  010F48  26D9               	addwf	fsr2l,f,c
 13915  010F4A  501F               	movf	_pBDTEntryEP0OutNext+1,w,c
 13916  010F4C  22DA               	addwfc	fsr2h,f,c
 13917  010F4E  0E08               	movlw	8
 13918  010F50  6EDF               	movwf	indf2,c
 13919                           
 13920                           ;usb_device.c: 1884: pBDTEntryEP0OutNext->ADR = ((uint16_t)(&CtrlTrfData));
 13921  010F52  EE20 F002          	lfsr	2,2
 13922  010F56  501E               	movf	_pBDTEntryEP0OutNext,w,c
 13923  010F58  26D9               	addwf	fsr2l,f,c
 13924  010F5A  501F               	movf	_pBDTEntryEP0OutNext+1,w,c
 13925  010F5C  22DA               	addwfc	fsr2h,f,c
 13926  010F5E  0E38               	movlw	56
 13927  010F60  6EDE               	movwf	postinc2,c
 13928  010F62  0E0D               	movlw	13
 13929  010F64  6EDD               	movwf	postdec2,c
 13930                           
 13931                           ;usb_device.c: 1885: if(pBDTEntryEP0OutCurrent->STAT.DTS == 0)
 13932  010F66  C01C  FFD9         	movff	_pBDTEntryEP0OutCurrent,fsr2l
 13933  010F6A  C01D  FFDA         	movff	_pBDTEntryEP0OutCurrent+1,fsr2h
 13934  010F6E  BCDF               	btfsc	indf2,6,c
 13935  010F70  D00D               	goto	i2l5192
 13936                           
 13937                           ;usb_device.c: 1886: {
 13938                           ;usb_device.c: 1887: pBDTEntryEP0OutNext->STAT.Val = 0x40|(0x08 & 0x08);
 13939  010F72  C01E  FFD9         	movff	_pBDTEntryEP0OutNext,fsr2l
 13940  010F76  C01F  FFDA         	movff	_pBDTEntryEP0OutNext+1,fsr2h
 13941  010F7A  0E48               	movlw	72
 13942  010F7C  6EDF               	movwf	indf2,c
 13943                           
 13944                           ;usb_device.c: 1888: pBDTEntryEP0OutNext->STAT.Val |= 0x80;
 13945  010F7E  C01E  FFD9         	movff	_pBDTEntryEP0OutNext,fsr2l
 13946  010F82  C01F  FFDA         	movff	_pBDTEntryEP0OutNext+1,fsr2h
 13947  010F86  0E00               	movlw	0
 13948  010F88  8EDB               	bsf	plusw2,7,c
 13949                           
 13950                           ;usb_device.c: 1889: }
 13951  010F8A  0012               	return	
 13952  010F8C                     i2l5192:
 13953                           
 13954                           ;usb_device.c: 1890: else
 13955                           ;usb_device.c: 1891: {
 13956                           ;usb_device.c: 1892: pBDTEntryEP0OutNext->STAT.Val = 0x00|(0x08 & 0x08);
 13957  010F8C  C01E  FFD9         	movff	_pBDTEntryEP0OutNext,fsr2l
 13958  010F90  C01F  FFDA         	movff	_pBDTEntryEP0OutNext+1,fsr2h
 13959  010F94  0E08               	movlw	8
 13960  010F96  6EDF               	movwf	indf2,c
 13961                           
 13962                           ;usb_device.c: 1893: pBDTEntryEP0OutNext->STAT.Val |= 0x80;
 13963  010F98  C01E  FFD9         	movff	_pBDTEntryEP0OutNext,fsr2l
 13964  010F9C  C01F  FFDA         	movff	_pBDTEntryEP0OutNext+1,fsr2h
 13965  010FA0  0E00               	movlw	0
 13966  010FA2  8EDB               	bsf	plusw2,7,c
 13967                           
 13968                           ;usb_device.c: 1894: }
 13969                           ;usb_device.c: 1895: }
 13970  010FA4  0012               	return	
 13971  010FA6                     i2l5196:
 13972                           
 13973                           ;usb_device.c: 1896: else
 13974                           ;usb_device.c: 1897: {
 13975                           ;usb_device.c: 1901: pBDTEntryEP0OutNext->CNT = 8;
 13976  010FA6  EE20 F001          	lfsr	2,1
 13977  010FAA  501E               	movf	_pBDTEntryEP0OutNext,w,c
 13978  010FAC  26D9               	addwf	fsr2l,f,c
 13979  010FAE  501F               	movf	_pBDTEntryEP0OutNext+1,w,c
 13980  010FB0  22DA               	addwfc	fsr2h,f,c
 13981  010FB2  0E08               	movlw	8
 13982  010FB4  6EDF               	movwf	indf2,c
 13983                           
 13984                           ;usb_device.c: 1902: pBDTEntryEP0OutNext->ADR = ((uint16_t)(&SetupPkt));
 13985  010FB6  EE20 F002          	lfsr	2,2
 13986  010FBA  501E               	movf	_pBDTEntryEP0OutNext,w,c
 13987  010FBC  26D9               	addwf	fsr2l,f,c
 13988  010FBE  501F               	movf	_pBDTEntryEP0OutNext+1,w,c
 13989  010FC0  22DA               	addwfc	fsr2h,f,c
 13990  010FC2  0E30               	movlw	48
 13991  010FC4  6EDE               	movwf	postinc2,c
 13992  010FC6  0E0D               	movlw	13
 13993  010FC8  6EDD               	movwf	postdec2,c
 13994                           
 13995                           ;usb_device.c: 1906: pBDTEntryEP0OutNext->STAT.Val = 0x04;
 13996  010FCA  C01E  FFD9         	movff	_pBDTEntryEP0OutNext,fsr2l
 13997  010FCE  C01F  FFDA         	movff	_pBDTEntryEP0OutNext+1,fsr2h
 13998  010FD2  0E04               	movlw	4
 13999  010FD4  6EDF               	movwf	indf2,c
 14000                           
 14001                           ;usb_device.c: 1907: pBDTEntryEP0OutNext->STAT.Val |= 0x80;
 14002  010FD6  C01E  FFD9         	movff	_pBDTEntryEP0OutNext,fsr2l
 14003  010FDA  C01F  FFDA         	movff	_pBDTEntryEP0OutNext+1,fsr2h
 14004  010FDE  0E00               	movlw	0
 14005  010FE0  8EDB               	bsf	plusw2,7,c
 14006                           
 14007                           ;usb_device.c: 1926: }
 14008                           ;usb_device.c: 1927: outPipes[0].info.bits.busy = 0;
 14009                           
 14010                           ;usb_device.c: 1915: {
 14011                           ;usb_device.c: 1921: outPipes[0].pFunc();
 14012  010FE2  9E04               	bcf	_outPipes+3,7,c	;volatile
 14013                           
 14014                           ;usb_device.c: 1941: if(USBDeferStatusStagePacket == 0)
 14015  010FE4  5024               	movf	_USBDeferStatusStagePacket,w,c	;volatile
 14016  010FE6  A4D8               	btfss	status,2,c
 14017  010FE8  0012               	return	
 14018                           
 14019                           ;usb_device.c: 1942: {
 14020                           ;usb_device.c: 1943: USBCtrlEPAllowStatusStage();
 14021  010FEA  ECF8  F08D         	call	_USBCtrlEPAllowStatusStage	;wreg free
 14022  010FEE  0012               	return	
 14023  010FF0                     __end_of_USBCtrlTrfRxService:
 14024                           	opt stack 0
 14025                           pclatu	equ	0xFFB
 14026                           pclath	equ	0xFFA
 14027                           tblptru	equ	0xFF8
 14028                           tblptrh	equ	0xFF7
 14029                           tblptrl	equ	0xFF6
 14030                           tablat	equ	0xFF5
 14031                           prodh	equ	0xFF4
 14032                           prodl	equ	0xFF3
 14033                           intcon	equ	0xFF2
 14034                           intcon2	equ	0xFF1
 14035                           indf0	equ	0xFEF
 14036                           postinc0	equ	0xFEE
 14037                           fsr0h	equ	0xFEA
 14038                           fsr0l	equ	0xFE9
 14039                           wreg	equ	0xFE8
 14040                           indf1	equ	0xFE7
 14041                           postinc1	equ	0xFE6
 14042                           postdec1	equ	0xFE5
 14043                           fsr1h	equ	0xFE2
 14044                           fsr1l	equ	0xFE1
 14045                           indf2	equ	0xFDF
 14046                           postinc2	equ	0xFDE
 14047                           postdec2	equ	0xFDD
 14048                           plusw2	equ	0xFDB
 14049                           fsr2h	equ	0xFDA
 14050                           fsr2l	equ	0xFD9
 14051                           status	equ	0xFD8
 14052                           
 14053 ;; *************** function _USBCtrlEPAllowStatusStage *****************
 14054 ;; Defined at:
 14055 ;;		line 1416 in file "../../../My_library/usb/usb_device.c"
 14056 ;; Parameters:    Size  Location     Type
 14057 ;;		None
 14058 ;; Auto vars:     Size  Location     Type
 14059 ;;		None
 14060 ;; Return value:  Size  Location     Type
 14061 ;;		None               void
 14062 ;; Registers used:
 14063 ;;		wreg, fsr2l, fsr2h, status,2, status,0
 14064 ;; Tracked objects:
 14065 ;;		On entry : 0/0
 14066 ;;		On exit  : 0/0
 14067 ;;		Unchanged: 0/0
 14068 ;; Data sizes:     COMRAM   BANK0   BANK1   BANK2   BANK3   BANK4   BANK5   BANK6   BANK7   BANK8   BANK9  BANK10  BANK1
      +1  BANK12  BANK13  BANK14
 14069 ;;      Params:         0       0       0       0       0       0       0       0       0       0       0       0       
      +0       0       0       0
 14070 ;;      Locals:         0       0       0       0       0       0       0       0       0       0       0       0       
      +0       0       0       0
 14071 ;;      Temps:          0       0       0       0       0       0       0       0       0       0       0       0       
      +0       0       0       0
 14072 ;;      Totals:         0       0       0       0       0       0       0       0       0       0       0       0       
      +0       0       0       0
 14073 ;;Total ram usage:        0 bytes
 14074 ;; Hardware stack levels used:    1
 14075 ;; This function calls:
 14076 ;;		Nothing
 14077 ;; This function is called by:
 14078 ;;		_USBDeviceTasks
 14079 ;;		_USBCtrlEPServiceComplete
 14080 ;;		_USBCtrlTrfRxService
 14081 ;; This function uses a non-reentrant model
 14082 ;;
 14083                           
 14084                           	psect	text75
 14085  011BF0                     __ptext75:
 14086                           	opt stack 0
 14087  011BF0                     _USBCtrlEPAllowStatusStage:
 14088                           	opt stack 18
 14089                           
 14090                           ;usb_device.c: 1423: if(USBStatusStageEnabledFlag1 == 0)
 14091                           
 14092                           ;incstack = 0
 14093  011BF0  5026               	movf	_USBStatusStageEnabledFlag1,w,c	;volatile
 14094  011BF2  A4D8               	btfss	status,2,c
 14095  011BF4  0012               	return	
 14096                           
 14097                           ;usb_device.c: 1424: {
 14098                           ;usb_device.c: 1425: USBStatusStageEnabledFlag1 = 1;
 14099  011BF6  0E01               	movlw	1
 14100  011BF8  6E26               	movwf	_USBStatusStageEnabledFlag1,c	;volatile
 14101                           
 14102                           ;usb_device.c: 1426: if(USBStatusStageEnabledFlag2 == 0)
 14103  011BFA  5027               	movf	_USBStatusStageEnabledFlag2,w,c	;volatile
 14104  011BFC  A4D8               	btfss	status,2,c
 14105  011BFE  0012               	return	
 14106                           
 14107                           ;usb_device.c: 1427: {
 14108                           ;usb_device.c: 1428: USBStatusStageEnabledFlag2 = 1;
 14109  011C00  0E01               	movlw	1
 14110  011C02  6E27               	movwf	_USBStatusStageEnabledFlag2,c	;volatile
 14111                           
 14112                           ;usb_device.c: 1432: if(controlTransferState == 2)
 14113  011C04  0E02               	movlw	2
 14114  011C06  1829               	xorwf	_controlTransferState,w,c	;volatile
 14115  011C08  A4D8               	btfss	status,2,c
 14116  011C0A  D015               	goto	i2l4864
 14117                           
 14118                           ;usb_device.c: 1433: {
 14119                           ;usb_device.c: 1434: pBDTEntryIn[0]->CNT = 0;
 14120  011C0C  EE20 F001          	lfsr	2,1
 14121  011C10  5010               	movf	_pBDTEntryIn,w,c
 14122  011C12  26D9               	addwf	fsr2l,f,c
 14123  011C14  5011               	movf	_pBDTEntryIn+1,w,c
 14124  011C16  22DA               	addwfc	fsr2h,f,c
 14125  011C18  0E00               	movlw	0
 14126  011C1A  6EDF               	movwf	indf2,c
 14127                           
 14128                           ;usb_device.c: 1435: pBDTEntryIn[0]->STAT.Val = 0x40|(0x08 & 0x08);
 14129  011C1C  C010  FFD9         	movff	_pBDTEntryIn,fsr2l
 14130  011C20  C011  FFDA         	movff	_pBDTEntryIn+1,fsr2h
 14131  011C24  0E48               	movlw	72
 14132  011C26  6EDF               	movwf	indf2,c
 14133                           
 14134                           ;usb_device.c: 1436: pBDTEntryIn[0]->STAT.Val |= 0x80;
 14135  011C28  C010  FFD9         	movff	_pBDTEntryIn,fsr2l
 14136  011C2C  C011  FFDA         	movff	_pBDTEntryIn+1,fsr2h
 14137  011C30  0E00               	movlw	0
 14138  011C32  8EDB               	bsf	plusw2,7,c
 14139                           
 14140                           ;usb_device.c: 1437: }
 14141  011C34  0012               	return	
 14142  011C36                     i2l4864:
 14143                           
 14144                           ;usb_device.c: 1438: else if(controlTransferState == 1)
 14145  011C36  0429               	decf	_controlTransferState,w,c	;volatile
 14146  011C38  A4D8               	btfss	status,2,c
 14147  011C3A  0012               	return	
 14148                           
 14149                           ;usb_device.c: 1439: {
 14150                           ;usb_device.c: 1440: BothEP0OutUOWNsSet = 0;
 14151  011C3C  0E00               	movlw	0
 14152  011C3E  6E20               	movwf	_BothEP0OutUOWNsSet,c	;volatile
 14153                           
 14154                           ;usb_device.c: 1445: pBDTEntryEP0OutCurrent->CNT = 8;
 14155  011C40  EE20 F001          	lfsr	2,1
 14156  011C44  501C               	movf	_pBDTEntryEP0OutCurrent,w,c
 14157  011C46  26D9               	addwf	fsr2l,f,c
 14158  011C48  501D               	movf	_pBDTEntryEP0OutCurrent+1,w,c
 14159  011C4A  22DA               	addwfc	fsr2h,f,c
 14160  011C4C  0E08               	movlw	8
 14161  011C4E  6EDF               	movwf	indf2,c
 14162                           
 14163                           ;usb_device.c: 1446: pBDTEntryEP0OutCurrent->ADR = ((uint16_t)(&SetupPkt));
 14164  011C50  EE20 F002          	lfsr	2,2
 14165  011C54  501C               	movf	_pBDTEntryEP0OutCurrent,w,c
 14166  011C56  26D9               	addwf	fsr2l,f,c
 14167  011C58  501D               	movf	_pBDTEntryEP0OutCurrent+1,w,c
 14168  011C5A  22DA               	addwfc	fsr2h,f,c
 14169  011C5C  0E30               	movlw	48
 14170  011C5E  6EDE               	movwf	postinc2,c
 14171  011C60  0E0D               	movlw	13
 14172  011C62  6EDD               	movwf	postdec2,c
 14173                           
 14174                           ;usb_device.c: 1447: pBDTEntryEP0OutCurrent->STAT.Val = 0x04;
 14175  011C64  C01C  FFD9         	movff	_pBDTEntryEP0OutCurrent,fsr2l
 14176  011C68  C01D  FFDA         	movff	_pBDTEntryEP0OutCurrent+1,fsr2h
 14177  011C6C  0E04               	movlw	4
 14178  011C6E  6EDF               	movwf	indf2,c
 14179                           
 14180                           ;usb_device.c: 1448: pBDTEntryEP0OutCurrent->STAT.Val |= 0x80;
 14181  011C70  C01C  FFD9         	movff	_pBDTEntryEP0OutCurrent,fsr2l
 14182  011C74  C01D  FFDA         	movff	_pBDTEntryEP0OutCurrent+1,fsr2h
 14183  011C78  0E00               	movlw	0
 14184  011C7A  8EDB               	bsf	plusw2,7,c
 14185                           
 14186                           ;usb_device.c: 1449: BothEP0OutUOWNsSet = 1;
 14187  011C7C  0E01               	movlw	1
 14188  011C7E  6E20               	movwf	_BothEP0OutUOWNsSet,c	;volatile
 14189                           
 14190                           ;usb_device.c: 1453: pBDTEntryEP0OutNext->CNT = 8;
 14191  011C80  EE20 F001          	lfsr	2,1
 14192  011C84  501E               	movf	_pBDTEntryEP0OutNext,w,c
 14193  011C86  26D9               	addwf	fsr2l,f,c
 14194  011C88  501F               	movf	_pBDTEntryEP0OutNext+1,w,c
 14195  011C8A  22DA               	addwfc	fsr2h,f,c
 14196  011C8C  0E08               	movlw	8
 14197  011C8E  6EDF               	movwf	indf2,c
 14198                           
 14199                           ;usb_device.c: 1454: pBDTEntryEP0OutNext->ADR = ((uint16_t)(&SetupPkt));
 14200  011C90  EE20 F002          	lfsr	2,2
 14201  011C94  501E               	movf	_pBDTEntryEP0OutNext,w,c
 14202  011C96  26D9               	addwf	fsr2l,f,c
 14203  011C98  501F               	movf	_pBDTEntryEP0OutNext+1,w,c
 14204  011C9A  22DA               	addwfc	fsr2h,f,c
 14205  011C9C  0E30               	movlw	48
 14206  011C9E  6EDE               	movwf	postinc2,c
 14207  011CA0  0E0D               	movlw	13
 14208  011CA2  6EDD               	movwf	postdec2,c
 14209                           
 14210                           ;usb_device.c: 1455: pBDTEntryEP0OutNext->STAT.Val = 0x80;
 14211  011CA4  C01E  FFD9         	movff	_pBDTEntryEP0OutNext,fsr2l
 14212  011CA8  C01F  FFDA         	movff	_pBDTEntryEP0OutNext+1,fsr2h
 14213  011CAC  0E80               	movlw	128
 14214  011CAE  6EDF               	movwf	indf2,c
 14215  011CB0  0012               	return	
 14216  011CB2                     __end_of_USBCtrlEPAllowStatusStage:
 14217                           	opt stack 0
 14218                           pclatu	equ	0xFFB
 14219                           pclath	equ	0xFFA
 14220                           tblptru	equ	0xFF8
 14221                           tblptrh	equ	0xFF7
 14222                           tblptrl	equ	0xFF6
 14223                           tablat	equ	0xFF5
 14224                           prodh	equ	0xFF4
 14225                           prodl	equ	0xFF3
 14226                           intcon	equ	0xFF2
 14227                           intcon2	equ	0xFF1
 14228                           indf0	equ	0xFEF
 14229                           postinc0	equ	0xFEE
 14230                           fsr0h	equ	0xFEA
 14231                           fsr0l	equ	0xFE9
 14232                           wreg	equ	0xFE8
 14233                           indf1	equ	0xFE7
 14234                           postinc1	equ	0xFE6
 14235                           postdec1	equ	0xFE5
 14236                           fsr1h	equ	0xFE2
 14237                           fsr1l	equ	0xFE1
 14238                           indf2	equ	0xFDF
 14239                           postinc2	equ	0xFDE
 14240                           postdec2	equ	0xFDD
 14241                           plusw2	equ	0xFDB
 14242                           fsr2h	equ	0xFDA
 14243                           fsr2l	equ	0xFD9
 14244                           status	equ	0xFD8
 14245                           
 14246 ;; *************** function _USBCtrlTrfInHandler *****************
 14247 ;; Defined at:
 14248 ;;		line 2595 in file "../../../My_library/usb/usb_device.c"
 14249 ;; Parameters:    Size  Location     Type
 14250 ;;		None
 14251 ;; Auto vars:     Size  Location     Type
 14252 ;;  lastDTS         1    1[COMRAM] unsigned char 
 14253 ;; Return value:  Size  Location     Type
 14254 ;;		None               void
 14255 ;; Registers used:
 14256 ;;		wreg, fsr0l, fsr0h, fsr2l, fsr2h, status,2, status,0, tblptrl, tblptrh, tblptru, cstack
 14257 ;; Tracked objects:
 14258 ;;		On entry : 0/0
 14259 ;;		On exit  : 0/0
 14260 ;;		Unchanged: 0/0
 14261 ;; Data sizes:     COMRAM   BANK0   BANK1   BANK2   BANK3   BANK4   BANK5   BANK6   BANK7   BANK8   BANK9  BANK10  BANK1
      +1  BANK12  BANK13  BANK14
 14262 ;;      Params:         0       0       0       0       0       0       0       0       0       0       0       0       
      +0       0       0       0
 14263 ;;      Locals:         1       0       0       0       0       0       0       0       0       0       0       0       
      +0       0       0       0
 14264 ;;      Temps:          0       0       0       0       0       0       0       0       0       0       0       0       
      +0       0       0       0
 14265 ;;      Totals:         1       0       0       0       0       0       0       0       0       0       0       0       
      +0       0       0       0
 14266 ;;Total ram usage:        1 bytes
 14267 ;; Hardware stack levels used:    1
 14268 ;; Hardware stack levels required when called:    1
 14269 ;; This function calls:
 14270 ;;		_USBCtrlTrfTxService
 14271 ;; This function is called by:
 14272 ;;		_USBCtrlEPService
 14273 ;; This function uses a non-reentrant model
 14274 ;;
 14275                           
 14276                           	psect	text76
 14277  01205E                     __ptext76:
 14278                           	opt stack 0
 14279  01205E                     _USBCtrlTrfInHandler:
 14280                           	opt stack 19
 14281                           
 14282                           ;usb_device.c: 2597: uint8_t lastDTS;
 14283                           ;usb_device.c: 2599: lastDTS = pBDTEntryIn[0]->STAT.DTS;
 14284                           
 14285                           ;incstack = 0
 14286  01205E  C010  FFD9         	movff	_pBDTEntryIn,fsr2l
 14287  012062  C011  FFDA         	movff	_pBDTEntryIn+1,fsr2h
 14288  012066  0E00               	movlw	0
 14289  012068  BCDF               	btfsc	indf2,6,c
 14290  01206A  0E01               	movlw	1
 14291  01206C  6E2F               	movwf	USBCtrlTrfInHandler@lastDTS,c
 14292                           
 14293                           ;usb_device.c: 2602: ((uint8_t_VAL*)&pBDTEntryIn[0])->Val ^= 0x0004;
 14294  01206E  0E04               	movlw	4
 14295  012070  1A10               	xorwf	_pBDTEntryIn,f,c
 14296                           
 14297                           ;usb_device.c: 2607: if(USBDeviceState == ADR_PENDING_STATE)
 14298  012072  0E08               	movlw	8
 14299  012074  1825               	xorwf	_USBDeviceState,w,c	;volatile
 14300  012076  A4D8               	btfss	status,2,c
 14301  012078  D00D               	goto	i2l5398
 14302                           
 14303                           ;usb_device.c: 2608: {
 14304                           ;usb_device.c: 2609: UADDR = (SetupPkt.bDevADR & 0x7F);
 14305  01207A  010D               	movlb	13	; () banked
 14306  01207C  5132               	movf	50,w,b	;volatile
 14307  01207E  0B7F               	andlw	127
 14308  012080  010F               	movlb	15	; () banked
 14309  012082  6F38               	movwf	56,b	;volatile
 14310                           
 14311                           ; BSR set to: 15
 14312                           ;usb_device.c: 2610: if(UADDR != 0u)
 14313  012084  010F               	movlb	15	; () banked
 14314  012086  5138               	movf	56,w,b	;volatile
 14315  012088  B4D8               	btfsc	status,2,c
 14316  01208A  D002               	goto	i2l5396
 14317                           
 14318                           ; BSR set to: 15
 14319                           ;usb_device.c: 2611: {
 14320                           ;usb_device.c: 2612: USBDeviceState=ADDRESS_STATE;
 14321  01208C  0E10               	movlw	16
 14322  01208E  D001               	goto	L14
 14323  012090                     i2l5396:
 14324                           
 14325                           ; BSR set to: 15
 14326                           ;usb_device.c: 2614: else
 14327                           ;usb_device.c: 2615: {
 14328                           ;usb_device.c: 2616: USBDeviceState=DEFAULT_STATE;
 14329  012090  0E04               	movlw	4
 14330  012092                     L14:
 14331  012092  6E25               	movwf	_USBDeviceState,c	;volatile
 14332  012094                     i2l5398:
 14333                           
 14334                           ;usb_device.c: 2617: }
 14335                           ;usb_device.c: 2618: }
 14336                           ;usb_device.c: 2621: if(controlTransferState == 1)
 14337  012094  0429               	decf	_controlTransferState,w,c	;volatile
 14338  012096  A4D8               	btfss	status,2,c
 14339  012098  D03A               	goto	i2l1163
 14340                           
 14341                           ;usb_device.c: 2622: {
 14342                           ;usb_device.c: 2623: pBDTEntryIn[0]->ADR = ((uint16_t)(CtrlTrfData));
 14343  01209A  EE20 F002          	lfsr	2,2
 14344  01209E  5010               	movf	_pBDTEntryIn,w,c
 14345  0120A0  26D9               	addwf	fsr2l,f,c
 14346  0120A2  5011               	movf	_pBDTEntryIn+1,w,c
 14347  0120A4  22DA               	addwfc	fsr2h,f,c
 14348  0120A6  0E38               	movlw	56
 14349  0120A8  6EDE               	movwf	postinc2,c
 14350  0120AA  0E0D               	movlw	13
 14351  0120AC  6EDD               	movwf	postdec2,c
 14352                           
 14353                           ;usb_device.c: 2624: USBCtrlTrfTxService();
 14354  0120AE  ECC2  F08C         	call	_USBCtrlTrfTxService	;wreg free
 14355                           
 14356                           ;usb_device.c: 2630: if(shortPacketStatus == 2)
 14357  0120B2  0E02               	movlw	2
 14358  0120B4  182B               	xorwf	_shortPacketStatus,w,c	;volatile
 14359  0120B6  A4D8               	btfss	status,2,c
 14360  0120B8  D00D               	goto	i2l5410
 14361                           
 14362                           ;usb_device.c: 2631: {
 14363                           ;usb_device.c: 2634: pBDTEntryIn[0]->STAT.Val = 0x04;
 14364  0120BA  C010  FFD9         	movff	_pBDTEntryIn,fsr2l
 14365  0120BE  C011  FFDA         	movff	_pBDTEntryIn+1,fsr2h
 14366  0120C2  0E04               	movlw	4
 14367  0120C4  6EDF               	movwf	indf2,c
 14368                           
 14369                           ;usb_device.c: 2635: pBDTEntryIn[0]->STAT.Val |= 0x80;
 14370  0120C6  C010  FFD9         	movff	_pBDTEntryIn,fsr2l
 14371  0120CA  C011  FFDA         	movff	_pBDTEntryIn+1,fsr2h
 14372  0120CE  0E00               	movlw	0
 14373  0120D0  8EDB               	bsf	plusw2,7,c
 14374                           
 14375                           ;usb_device.c: 2636: }
 14376  0120D2  0012               	return	
 14377  0120D4                     i2l5410:
 14378                           
 14379                           ;usb_device.c: 2637: else
 14380                           ;usb_device.c: 2638: {
 14381                           ;usb_device.c: 2639: if(lastDTS == 0)
 14382  0120D4  502F               	movf	USBCtrlTrfInHandler@lastDTS,w,c
 14383  0120D6  A4D8               	btfss	status,2,c
 14384  0120D8  D00D               	goto	i2l5416
 14385                           
 14386                           ;usb_device.c: 2640: {
 14387                           ;usb_device.c: 2641: pBDTEntryIn[0]->STAT.Val = 0x40|(0x08 & 0x08);
 14388  0120DA  C010  FFD9         	movff	_pBDTEntryIn,fsr2l
 14389  0120DE  C011  FFDA         	movff	_pBDTEntryIn+1,fsr2h
 14390  0120E2  0E48               	movlw	72
 14391  0120E4  6EDF               	movwf	indf2,c
 14392                           
 14393                           ;usb_device.c: 2642: pBDTEntryIn[0]->STAT.Val |= 0x80;
 14394  0120E6  C010  FFD9         	movff	_pBDTEntryIn,fsr2l
 14395  0120EA  C011  FFDA         	movff	_pBDTEntryIn+1,fsr2h
 14396  0120EE  0E00               	movlw	0
 14397  0120F0  8EDB               	bsf	plusw2,7,c
 14398                           
 14399                           ;usb_device.c: 2643: }
 14400  0120F2  0012               	return	
 14401  0120F4                     i2l5416:
 14402                           
 14403                           ;usb_device.c: 2644: else
 14404                           ;usb_device.c: 2645: {
 14405                           ;usb_device.c: 2646: pBDTEntryIn[0]->STAT.Val = 0x00|(0x08 & 0x08);
 14406  0120F4  C010  FFD9         	movff	_pBDTEntryIn,fsr2l
 14407  0120F8  C011  FFDA         	movff	_pBDTEntryIn+1,fsr2h
 14408  0120FC  0E08               	movlw	8
 14409  0120FE  6EDF               	movwf	indf2,c
 14410                           
 14411                           ;usb_device.c: 2647: pBDTEntryIn[0]->STAT.Val |= 0x80;
 14412  012100  C010  FFD9         	movff	_pBDTEntryIn,fsr2l
 14413  012104  C011  FFDA         	movff	_pBDTEntryIn+1,fsr2h
 14414  012108  0E00               	movlw	0
 14415  01210A  8EDB               	bsf	plusw2,7,c
 14416                           
 14417                           ;usb_device.c: 2648: }
 14418                           ;usb_device.c: 2649: }
 14419                           ;usb_device.c: 2650: }
 14420  01210C  0012               	return	
 14421  01210E                     i2l1163:
 14422                           
 14423                           ;usb_device.c: 2651: else
 14424                           ;usb_device.c: 2652: {
 14425                           ;usb_device.c: 2656: if(outPipes[0].info.bits.busy == 1)
 14426  01210E  BE04               	btfsc	_outPipes+3,7,c	;volatile
 14427                           
 14428                           ;usb_device.c: 2661: }
 14429                           ;usb_device.c: 2662: outPipes[0].info.bits.busy = 0;
 14430                           
 14431                           ;usb_device.c: 2659: {
 14432                           ;usb_device.c: 2660: outPipes[0].pFunc();
 14433  012110  9E04               	bcf	_outPipes+3,7,c	;volatile
 14434                           
 14435                           ;usb_device.c: 2663: }
 14436                           ;usb_device.c: 2665: controlTransferState = 0;
 14437  012112  0E00               	movlw	0
 14438  012114  6E29               	movwf	_controlTransferState,c	;volatile
 14439  012116  0012               	return	
 14440  012118                     __end_of_USBCtrlTrfInHandler:
 14441                           	opt stack 0
 14442                           pclatu	equ	0xFFB
 14443                           pclath	equ	0xFFA
 14444                           tblptru	equ	0xFF8
 14445                           tblptrh	equ	0xFF7
 14446                           tblptrl	equ	0xFF6
 14447                           tablat	equ	0xFF5
 14448                           prodh	equ	0xFF4
 14449                           prodl	equ	0xFF3
 14450                           intcon	equ	0xFF2
 14451                           intcon2	equ	0xFF1
 14452                           indf0	equ	0xFEF
 14453                           postinc0	equ	0xFEE
 14454                           fsr0h	equ	0xFEA
 14455                           fsr0l	equ	0xFE9
 14456                           wreg	equ	0xFE8
 14457                           indf1	equ	0xFE7
 14458                           postinc1	equ	0xFE6
 14459                           postdec1	equ	0xFE5
 14460                           fsr1h	equ	0xFE2
 14461                           fsr1l	equ	0xFE1
 14462                           indf2	equ	0xFDF
 14463                           postinc2	equ	0xFDE
 14464                           postdec2	equ	0xFDD
 14465                           plusw2	equ	0xFDB
 14466                           fsr2h	equ	0xFDA
 14467                           fsr2l	equ	0xFD9
 14468                           status	equ	0xFD8
 14469                           
 14470 ;; *************** function _USBCtrlTrfTxService *****************
 14471 ;; Defined at:
 14472 ;;		line 1771 in file "../../../My_library/usb/usb_device.c"
 14473 ;; Parameters:    Size  Location     Type
 14474 ;;		None
 14475 ;; Auto vars:     Size  Location     Type
 14476 ;;  byteToSend      1    0[COMRAM] unsigned char 
 14477 ;; Return value:  Size  Location     Type
 14478 ;;		None               void
 14479 ;; Registers used:
 14480 ;;		wreg, fsr0l, fsr0h, fsr2l, fsr2h, status,2, status,0, tblptrl, tblptrh, tblptru
 14481 ;; Tracked objects:
 14482 ;;		On entry : 0/0
 14483 ;;		On exit  : 0/0
 14484 ;;		Unchanged: 0/0
 14485 ;; Data sizes:     COMRAM   BANK0   BANK1   BANK2   BANK3   BANK4   BANK5   BANK6   BANK7   BANK8   BANK9  BANK10  BANK1
      +1  BANK12  BANK13  BANK14
 14486 ;;      Params:         0       0       0       0       0       0       0       0       0       0       0       0       
      +0       0       0       0
 14487 ;;      Locals:         1       0       0       0       0       0       0       0       0       0       0       0       
      +0       0       0       0
 14488 ;;      Temps:          0       0       0       0       0       0       0       0       0       0       0       0       
      +0       0       0       0
 14489 ;;      Totals:         1       0       0       0       0       0       0       0       0       0       0       0       
      +0       0       0       0
 14490 ;;Total ram usage:        1 bytes
 14491 ;; Hardware stack levels used:    1
 14492 ;; This function calls:
 14493 ;;		Nothing
 14494 ;; This function is called by:
 14495 ;;		_USBCtrlEPAllowDataStage
 14496 ;;		_USBCtrlTrfInHandler
 14497 ;; This function uses a non-reentrant model
 14498 ;;
 14499                           
 14500                           	psect	text77
 14501  011984                     __ptext77:
 14502                           	opt stack 0
 14503  011984                     _USBCtrlTrfTxService:
 14504                           	opt stack 17
 14505                           
 14506                           ;usb_device.c: 1773: uint8_t byteToSend;
 14507                           ;usb_device.c: 1777: byteToSend = 8;
 14508                           
 14509                           ;incstack = 0
 14510  011984  0E08               	movlw	8
 14511  011986  6E2E               	movwf	USBCtrlTrfTxService@byteToSend,c
 14512                           
 14513                           ;usb_device.c: 1778: if(inPipes[0].wCount.Val < (uint8_t)8)
 14514  011988  500F               	movf	_inPipes+5,w,c	;volatile
 14515  01198A  E110               	bnz	i2l4808
 14516  01198C  0E08               	movlw	8
 14517  01198E  5C0E               	subwf	_inPipes+4,w,c	;volatile
 14518  011990  B0D8               	btfsc	status,0,c
 14519  011992  D00C               	goto	i2l4808
 14520                           
 14521                           ;usb_device.c: 1779: {
 14522                           ;usb_device.c: 1780: byteToSend = inPipes[0].wCount.Val;
 14523  011994  C00E  F02E         	movff	_inPipes+4,USBCtrlTrfTxService@byteToSend	;volatile
 14524                           
 14525                           ;usb_device.c: 1787: if(shortPacketStatus == 0)
 14526  011998  502B               	movf	_shortPacketStatus,w,c	;volatile
 14527  01199A  A4D8               	btfss	status,2,c
 14528  01199C  D002               	goto	i2l4804
 14529                           
 14530                           ;usb_device.c: 1788: {
 14531                           ;usb_device.c: 1789: shortPacketStatus = 1;
 14532  01199E  0E01               	movlw	1
 14533  0119A0  D004               	goto	L15
 14534  0119A2                     i2l4804:
 14535                           
 14536                           ;usb_device.c: 1791: else if(shortPacketStatus == 1)
 14537  0119A2  042B               	decf	_shortPacketStatus,w,c	;volatile
 14538  0119A4  A4D8               	btfss	status,2,c
 14539  0119A6  D002               	goto	i2l4808
 14540                           
 14541                           ;usb_device.c: 1792: {
 14542                           ;usb_device.c: 1793: shortPacketStatus = 2;
 14543  0119A8  0E02               	movlw	2
 14544  0119AA                     L15:
 14545  0119AA  6E2B               	movwf	_shortPacketStatus,c	;volatile
 14546  0119AC                     i2l4808:
 14547                           
 14548                           ;usb_device.c: 1794: }
 14549                           ;usb_device.c: 1795: }
 14550                           ;usb_device.c: 1799: inPipes[0].wCount.Val -= byteToSend;
 14551  0119AC  502E               	movf	USBCtrlTrfTxService@byteToSend,w,c
 14552  0119AE  5E0E               	subwf	_inPipes+4,f,c	;volatile
 14553  0119B0  0E00               	movlw	0
 14554  0119B2  5A0F               	subwfb	_inPipes+5,f,c	;volatile
 14555                           
 14556                           ;usb_device.c: 1804: pBDTEntryIn[0]->CNT = byteToSend;
 14557  0119B4  EE20 F001          	lfsr	2,1
 14558  0119B8  5010               	movf	_pBDTEntryIn,w,c
 14559  0119BA  26D9               	addwf	fsr2l,f,c
 14560  0119BC  5011               	movf	_pBDTEntryIn+1,w,c
 14561  0119BE  22DA               	addwfc	fsr2h,f,c
 14562  0119C0  C02E  FFDF         	movff	USBCtrlTrfTxService@byteToSend,indf2
 14563                           
 14564                           ;usb_device.c: 1808: pDst = (volatile uint8_t*)CtrlTrfData;
 14565  0119C4  0E38               	movlw	56
 14566  0119C6  0100               	movlb	0	; () banked
 14567  0119C8  6F7A               	movwf	_pDst& (0+255),b
 14568  0119CA  0E0D               	movlw	13
 14569  0119CC  0100               	movlb	0	; () banked
 14570  0119CE  6F7B               	movwf	(_pDst+1)& (0+255),b
 14571                           
 14572                           ; BSR set to: 0
 14573                           ;usb_device.c: 1809: if(inPipes[0].info.bits.ctrl_trf_mem == 0x00)
 14574  0119D0  A00D               	btfss	_inPipes+3,0,c	;volatile
 14575  0119D2  D01D               	goto	i2l4826
 14576  0119D4  D03C               	goto	i2l4836
 14577  0119D6                     i2l4818:
 14578                           
 14579                           ; BSR set to: 0
 14580                           ;usb_device.c: 1812: {
 14581                           ;usb_device.c: 1813: *pDst++ = *inPipes[0].pSrc.bRom++;
 14582  0119D6  C00A  FFF6         	movff	_inPipes,tblptrl	;volatile
 14583  0119DA  C00B  FFF7         	movff	_inPipes+1,tblptrh	;volatile
 14584  0119DE  0E00               	movlw	low (__mediumconst shr (0+16))
 14585  0119E0  6EF8               	movwf	tblptru,c
 14586  0119E2  C07A  FFD9         	movff	_pDst,fsr2l
 14587  0119E6  C07B  FFDA         	movff	_pDst+1,fsr2h
 14588  0119EA  0E0E               	movlw	(high __ramtop+-1)
 14589  0119EC  64F7               	cpfsgt	tblptrh,c
 14590  0119EE  D003               	bra	i2u352_47
 14591  0119F0  0008               	tblrd		*
 14592  0119F2  50F5               	movf	tablat,w,c
 14593  0119F4  D005               	bra	i2u352_40
 14594  0119F6                     i2u352_47:
 14595  0119F6  CFF6 FFE9          	movff	tblptrl,fsr0l
 14596  0119FA  CFF7 FFEA          	movff	tblptrh,fsr0h
 14597  0119FE  50EF               	movf	indf0,w,c
 14598  011A00                     i2u352_40:
 14599  011A00  6EDF               	movwf	indf2,c
 14600  011A02  4A0A               	infsnz	_inPipes,f,c	;volatile
 14601  011A04  2A0B               	incf	_inPipes+1,f,c	;volatile
 14602  011A06  0100               	movlb	0	; () banked
 14603  011A08  4B7A               	infsnz	_pDst& (0+255),f,b
 14604  011A0A  2B7B               	incf	(_pDst+1)& (0+255),f,b
 14605                           
 14606                           ; BSR set to: 0
 14607                           ;usb_device.c: 1814: byteToSend--;
 14608  011A0C  062E               	decf	USBCtrlTrfTxService@byteToSend,f,c
 14609  011A0E                     i2l4826:
 14610                           
 14611                           ; BSR set to: 0
 14612  011A0E  502E               	movf	USBCtrlTrfTxService@byteToSend,w,c
 14613  011A10  B4D8               	btfsc	status,2,c
 14614  011A12  0012               	return	
 14615  011A14  D7E0               	goto	i2l4818
 14616  011A16                     i2l4828:
 14617                           
 14618                           ; BSR set to: 0
 14619                           ;usb_device.c: 1820: {
 14620                           ;usb_device.c: 1821: *pDst++ = *inPipes[0].pSrc.bRam++;
 14621  011A16  C00A  FFF6         	movff	_inPipes,tblptrl	;volatile
 14622  011A1A  C00B  FFF7         	movff	_inPipes+1,tblptrh	;volatile
 14623  011A1E  0E00               	movlw	low (__mediumconst shr (0+16))
 14624  011A20  6EF8               	movwf	tblptru,c
 14625  011A22  C07A  FFD9         	movff	_pDst,fsr2l
 14626  011A26  C07B  FFDA         	movff	_pDst+1,fsr2h
 14627  011A2A  0E0E               	movlw	(high __ramtop+-1)
 14628  011A2C  64F7               	cpfsgt	tblptrh,c
 14629  011A2E  D003               	bra	i2u354_47
 14630  011A30  0008               	tblrd		*
 14631  011A32  50F5               	movf	tablat,w,c
 14632  011A34  D005               	bra	i2u354_40
 14633  011A36                     i2u354_47:
 14634  011A36  CFF6 FFE9          	movff	tblptrl,fsr0l
 14635  011A3A  CFF7 FFEA          	movff	tblptrh,fsr0h
 14636  011A3E  50EF               	movf	indf0,w,c
 14637  011A40                     i2u354_40:
 14638  011A40  6EDF               	movwf	indf2,c
 14639  011A42  4A0A               	infsnz	_inPipes,f,c	;volatile
 14640  011A44  2A0B               	incf	_inPipes+1,f,c	;volatile
 14641  011A46  0100               	movlb	0	; () banked
 14642  011A48  4B7A               	infsnz	_pDst& (0+255),f,b
 14643  011A4A  2B7B               	incf	(_pDst+1)& (0+255),f,b
 14644                           
 14645                           ; BSR set to: 0
 14646                           ;usb_device.c: 1822: byteToSend--;
 14647  011A4C  062E               	decf	USBCtrlTrfTxService@byteToSend,f,c
 14648  011A4E                     i2l4836:
 14649                           
 14650                           ; BSR set to: 0
 14651  011A4E  502E               	movf	USBCtrlTrfTxService@byteToSend,w,c
 14652  011A50  B4D8               	btfsc	status,2,c
 14653  011A52  0012               	return	
 14654  011A54  D7E0               	goto	i2l4828
 14655  011A56                     __end_of_USBCtrlTrfTxService:
 14656                           	opt stack 0
 14657                           pclatu	equ	0xFFB
 14658                           pclath	equ	0xFFA
 14659                           tblptru	equ	0xFF8
 14660                           tblptrh	equ	0xFF7
 14661                           tblptrl	equ	0xFF6
 14662                           tablat	equ	0xFF5
 14663                           prodh	equ	0xFF4
 14664                           prodl	equ	0xFF3
 14665                           intcon	equ	0xFF2
 14666                           intcon2	equ	0xFF1
 14667                           indf0	equ	0xFEF
 14668                           postinc0	equ	0xFEE
 14669                           fsr0h	equ	0xFEA
 14670                           fsr0l	equ	0xFE9
 14671                           wreg	equ	0xFE8
 14672                           indf1	equ	0xFE7
 14673                           postinc1	equ	0xFE6
 14674                           postdec1	equ	0xFE5
 14675                           fsr1h	equ	0xFE2
 14676                           fsr1l	equ	0xFE1
 14677                           indf2	equ	0xFDF
 14678                           postinc2	equ	0xFDE
 14679                           postdec2	equ	0xFDD
 14680                           plusw2	equ	0xFDB
 14681                           fsr2h	equ	0xFDA
 14682                           fsr2l	equ	0xFD9
 14683                           status	equ	0xFD8
 14684                           
 14685 ;; *************** function _UART_ISR *****************
 14686 ;; Defined at:
 14687 ;;		line 190 in file "../../../My_library/My_PIC.c"
 14688 ;; Parameters:    Size  Location     Type
 14689 ;;		None
 14690 ;; Auto vars:     Size  Location     Type
 14691 ;;  ascii           1   15[COMRAM] unsigned char 
 14692 ;; Return value:  Size  Location     Type
 14693 ;;		None               void
 14694 ;; Registers used:
 14695 ;;		wreg, fsr1l, fsr1h, fsr2l, fsr2h, status,2, status,0, cstack
 14696 ;; Tracked objects:
 14697 ;;		On entry : 0/0
 14698 ;;		On exit  : 0/0
 14699 ;;		Unchanged: 0/0
 14700 ;; Data sizes:     COMRAM   BANK0   BANK1   BANK2   BANK3   BANK4   BANK5   BANK6   BANK7   BANK8   BANK9  BANK10  BANK1
      +1  BANK12  BANK13  BANK14
 14701 ;;      Params:         0       0       0       0       0       0       0       0       0       0       0       0       
      +0       0       0       0
 14702 ;;      Locals:         1       0       0       0       0       0       0       0       0       0       0       0       
      +0       0       0       0
 14703 ;;      Temps:          0       0       0       0       0       0       0       0       0       0       0       0       
      +0       0       0       0
 14704 ;;      Totals:         1       0       0       0       0       0       0       0       0       0       0       0       
      +0       0       0       0
 14705 ;;Total ram usage:        1 bytes
 14706 ;; Hardware stack levels used:    1
 14707 ;; Hardware stack levels required when called:    2
 14708 ;; This function calls:
 14709 ;;		i2_ringbuf_num
 14710 ;;		i2_ringbuf_pop
 14711 ;;		i2_ringbuf_put
 14712 ;; This function is called by:
 14713 ;;		_ISR
 14714 ;; This function uses a non-reentrant model
 14715 ;;
 14716                           
 14717                           	psect	text78
 14718  012A48                     __ptext78:
 14719                           	opt stack 0
 14720  012A48                     _UART_ISR:
 14721                           	opt stack 21
 14722                           
 14723                           ;My_PIC.c: 191: if (PIE1bits.TXIE && PIR1bits.TXIF) {
 14724                           
 14725                           ; BSR set to: 0
 14726                           ;incstack = 0
 14727  012A48  B89D               	btfsc	3997,4,c	;volatile
 14728  012A4A  A89E               	btfss	3998,4,c	;volatile
 14729  012A4C  D013               	goto	i2l298
 14730                           
 14731                           ;My_PIC.c: 192: if (ringbuf_num(&uart_tx)) {
 14732  012A4E  0EA0               	movlw	low _uart_tx
 14733  012A50  6E2E               	movwf	i2ringbuf_num@rb,c
 14734  012A52  0E00               	movlw	high _uart_tx
 14735  012A54  6E2F               	movwf	i2ringbuf_num@rb+1,c
 14736  012A56  EC74  F08F         	call	i2_ringbuf_num	;wreg free
 14737  012A5A  502E               	movf	?i2_ringbuf_num,w,c
 14738  012A5C  102F               	iorwf	?i2_ringbuf_num+1,w,c
 14739  012A5E  B4D8               	btfsc	status,2,c
 14740  012A60  D008               	goto	i2l299
 14741                           
 14742                           ;My_PIC.c: 193: TXREG1 = ringbuf_pop(&uart_tx);
 14743  012A62  0EA0               	movlw	low _uart_tx
 14744  012A64  6E36               	movwf	i2ringbuf_pop@rb,c
 14745  012A66  0E00               	movlw	high _uart_tx
 14746  012A68  6E37               	movwf	i2ringbuf_pop@rb+1,c
 14747  012A6A  EC3F  F091         	call	i2_ringbuf_pop	;wreg free
 14748  012A6E  6EAE               	movwf	4014,c	;volatile
 14749                           
 14750                           ;My_PIC.c: 194: } else {
 14751  012A70  D001               	goto	i2l298
 14752  012A72                     i2l299:
 14753                           
 14754                           ;My_PIC.c: 195: PIE1bits.TXIE = 0;
 14755  012A72  989D               	bcf	3997,4,c	;volatile
 14756  012A74                     i2l298:
 14757                           
 14758                           ;My_PIC.c: 196: }
 14759                           ;My_PIC.c: 197: }
 14760                           ;My_PIC.c: 198: if (PIE1bits.RCIE && PIR1bits.RCIF) {
 14761  012A74  AA9D               	btfss	3997,5,c	;volatile
 14762  012A76  0012               	return	
 14763  012A78  AA9E               	btfss	3998,5,c	;volatile
 14764  012A7A  0012               	return	
 14765                           
 14766                           ;My_PIC.c: 199: char ascii = RCREG1;
 14767  012A7C  CFAF F03D          	movff	4015,UART_ISR@ascii	;volatile
 14768                           
 14769                           ;My_PIC.c: 200: ringbuf_put(&uart_rx, ascii);
 14770  012A80  0E98               	movlw	low _uart_rx
 14771  012A82  6E36               	movwf	i2ringbuf_put@rb,c
 14772  012A84  0E00               	movlw	high _uart_rx
 14773  012A86  6E37               	movwf	i2ringbuf_put@rb+1,c
 14774  012A88  C03D  F038         	movff	UART_ISR@ascii,i2ringbuf_put@asciicode
 14775  012A8C  EC8C  F090         	call	i2_ringbuf_put	;wreg free
 14776  012A90  0012               	return	
 14777  012A92                     __end_of_UART_ISR:
 14778                           	opt stack 0
 14779                           pclatu	equ	0xFFB
 14780                           pclath	equ	0xFFA
 14781                           tblptru	equ	0xFF8
 14782                           tblptrh	equ	0xFF7
 14783                           tblptrl	equ	0xFF6
 14784                           tablat	equ	0xFF5
 14785                           prodh	equ	0xFF4
 14786                           prodl	equ	0xFF3
 14787                           intcon	equ	0xFF2
 14788                           intcon2	equ	0xFF1
 14789                           indf0	equ	0xFEF
 14790                           postinc0	equ	0xFEE
 14791                           fsr0h	equ	0xFEA
 14792                           fsr0l	equ	0xFE9
 14793                           wreg	equ	0xFE8
 14794                           indf1	equ	0xFE7
 14795                           postinc1	equ	0xFE6
 14796                           postdec1	equ	0xFE5
 14797                           fsr1h	equ	0xFE2
 14798                           fsr1l	equ	0xFE1
 14799                           indf2	equ	0xFDF
 14800                           postinc2	equ	0xFDE
 14801                           postdec2	equ	0xFDD
 14802                           plusw2	equ	0xFDB
 14803                           fsr2h	equ	0xFDA
 14804                           fsr2l	equ	0xFD9
 14805                           status	equ	0xFD8
 14806                           
 14807 ;; *************** function i2_ringbuf_put *****************
 14808 ;; Defined at:
 14809 ;;		line 20 in file "../../../My_library/My_ringbuf.c"
 14810 ;; Parameters:    Size  Location     Type
 14811 ;;  rb              2    8[COMRAM] PTR struct ringbuf
 14812 ;;		 -> terminal_task@command(8), uart_rx(8), uart_tx(8), usb_rx(8), 
 14813 ;;		 -> usb_tx(8), 
 14814 ;;  asciicode       1   10[COMRAM] unsigned char 
 14815 ;; Auto vars:     Size  Location     Type
 14816 ;;		None
 14817 ;; Return value:  Size  Location     Type
 14818 ;;		None               void
 14819 ;; Registers used:
 14820 ;;		wreg, fsr1l, fsr1h, fsr2l, fsr2h, status,2, status,0, cstack
 14821 ;; Tracked objects:
 14822 ;;		On entry : 0/0
 14823 ;;		On exit  : 0/0
 14824 ;;		Unchanged: 0/0
 14825 ;; Data sizes:     COMRAM   BANK0   BANK1   BANK2   BANK3   BANK4   BANK5   BANK6   BANK7   BANK8   BANK9  BANK10  BANK1
      +1  BANK12  BANK13  BANK14
 14826 ;;      Params:         3       0       0       0       0       0       0       0       0       0       0       0       
      +0       0       0       0
 14827 ;;      Locals:         0       0       0       0       0       0       0       0       0       0       0       0       
      +0       0       0       0
 14828 ;;      Temps:          4       0       0       0       0       0       0       0       0       0       0       0       
      +0       0       0       0
 14829 ;;      Totals:         7       0       0       0       0       0       0       0       0       0       0       0       
      +0       0       0       0
 14830 ;;Total ram usage:        7 bytes
 14831 ;; Hardware stack levels used:    1
 14832 ;; Hardware stack levels required when called:    1
 14833 ;; This function calls:
 14834 ;;		i2_ringbuf_num
 14835 ;; This function is called by:
 14836 ;;		_UART_ISR
 14837 ;; This function uses a non-reentrant model
 14838 ;;
 14839                           
 14840                           	psect	text79
 14841  012118                     __ptext79:
 14842                           	opt stack 0
 14843  012118                     i2_ringbuf_put:
 14844                           	opt stack 21
 14845                           
 14846                           ;My_ringbuf.c: 21: if (ringbuf_num(rb) < rb->size) {
 14847                           
 14848                           ;incstack = 0
 14849  012118  C036  F02E         	movff	i2ringbuf_put@rb,i2ringbuf_num@rb
 14850  01211C  C037  F02F         	movff	i2ringbuf_put@rb+1,i2ringbuf_num@rb+1
 14851  012120  EC74  F08F         	call	i2_ringbuf_num	;wreg free
 14852  012124  EE20 F002          	lfsr	2,2
 14853  012128  5036               	movf	i2ringbuf_put@rb,w,c
 14854  01212A  26D9               	addwf	fsr2l,f,c
 14855  01212C  5037               	movf	i2ringbuf_put@rb+1,w,c
 14856  01212E  22DA               	addwfc	fsr2h,f,c
 14857  012130  50DE               	movf	postinc2,w,c
 14858  012132  5C2E               	subwf	?i2_ringbuf_num,w,c
 14859  012134  50DE               	movf	postinc2,w,c
 14860  012136  582F               	subwfb	?i2_ringbuf_num+1,w,c
 14861  012138  B0D8               	btfsc	status,0,c
 14862  01213A  0012               	return	
 14863                           
 14864                           ;My_ringbuf.c: 22: rb->buf[rb->head] = asciicode;
 14865  01213C  EE20 F004          	lfsr	2,4
 14866  012140  5036               	movf	i2ringbuf_put@rb,w,c
 14867  012142  26D9               	addwf	fsr2l,f,c
 14868  012144  5037               	movf	i2ringbuf_put@rb+1,w,c
 14869  012146  22DA               	addwfc	fsr2h,f,c
 14870  012148  CFDE F039          	movff	postinc2,??i2_ringbuf_put
 14871  01214C  CFDD F03A          	movff	postdec2,??i2_ringbuf_put+1
 14872  012150  C036  FFD9         	movff	i2ringbuf_put@rb,fsr2l
 14873  012154  C037  FFDA         	movff	i2ringbuf_put@rb+1,fsr2h
 14874  012158  CFDE F03B          	movff	postinc2,??i2_ringbuf_put+2
 14875  01215C  CFDD F03C          	movff	postdec2,??i2_ringbuf_put+3
 14876  012160  5039               	movf	??i2_ringbuf_put,w,c
 14877  012162  243B               	addwf	??i2_ringbuf_put+2,w,c
 14878  012164  6ED9               	movwf	fsr2l,c
 14879  012166  503A               	movf	??i2_ringbuf_put+1,w,c
 14880  012168  203C               	addwfc	??i2_ringbuf_put+3,w,c
 14881  01216A  6EDA               	movwf	fsr2h,c
 14882  01216C  C038  FFDF         	movff	i2ringbuf_put@asciicode,indf2
 14883                           
 14884                           ;My_ringbuf.c: 23: if (rb->head + 1 < rb->size) rb->head++;
 14885  012170  EE20 F002          	lfsr	2,2
 14886  012174  5036               	movf	i2ringbuf_put@rb,w,c
 14887  012176  26D9               	addwf	fsr2l,f,c
 14888  012178  5037               	movf	i2ringbuf_put@rb+1,w,c
 14889  01217A  22DA               	addwfc	fsr2h,f,c
 14890  01217C  EE10 F004          	lfsr	1,4
 14891  012180  5036               	movf	i2ringbuf_put@rb,w,c
 14892  012182  26E1               	addwf	fsr1l,f,c
 14893  012184  5037               	movf	i2ringbuf_put@rb+1,w,c
 14894  012186  22E2               	addwfc	fsr1h,f,c
 14895  012188  CFE6 F03B          	movff	postinc1,??i2_ringbuf_put+2
 14896  01218C  CFE5 F03C          	movff	postdec1,??i2_ringbuf_put+3
 14897  012190  0E01               	movlw	1
 14898  012192  263B               	addwf	??i2_ringbuf_put+2,f,c
 14899  012194  0E00               	movlw	0
 14900  012196  223C               	addwfc	??i2_ringbuf_put+3,f,c
 14901  012198  50DE               	movf	postinc2,w,c
 14902  01219A  5C3B               	subwf	??i2_ringbuf_put+2,w,c
 14903  01219C  50DE               	movf	postinc2,w,c
 14904  01219E  583C               	subwfb	??i2_ringbuf_put+3,w,c
 14905  0121A0  B0D8               	btfsc	status,0,c
 14906  0121A2  D00A               	goto	i2l6306
 14907  0121A4  EE20 F004          	lfsr	2,4
 14908  0121A8  5036               	movf	i2ringbuf_put@rb,w,c
 14909  0121AA  26D9               	addwf	fsr2l,f,c
 14910  0121AC  5037               	movf	i2ringbuf_put@rb+1,w,c
 14911  0121AE  22DA               	addwfc	fsr2h,f,c
 14912  0121B0  2ADE               	incf	postinc2,f,c
 14913  0121B2  0E00               	movlw	0
 14914  0121B4  22DD               	addwfc	postdec2,f,c
 14915  0121B6  0012               	return	
 14916  0121B8                     i2l6306:
 14917                           
 14918                           ;My_ringbuf.c: 24: else rb->head = 0;
 14919  0121B8  EE20 F004          	lfsr	2,4
 14920  0121BC  5036               	movf	i2ringbuf_put@rb,w,c
 14921  0121BE  26D9               	addwf	fsr2l,f,c
 14922  0121C0  5037               	movf	i2ringbuf_put@rb+1,w,c
 14923  0121C2  22DA               	addwfc	fsr2h,f,c
 14924  0121C4  0E00               	movlw	0
 14925  0121C6  6EDE               	movwf	postinc2,c
 14926  0121C8  0E00               	movlw	0
 14927  0121CA  6EDD               	movwf	postdec2,c
 14928  0121CC  0012               	return	
 14929  0121CE                     __end_ofi2_ringbuf_put:
 14930                           	opt stack 0
 14931                           pclatu	equ	0xFFB
 14932                           pclath	equ	0xFFA
 14933                           tblptru	equ	0xFF8
 14934                           tblptrh	equ	0xFF7
 14935                           tblptrl	equ	0xFF6
 14936                           tablat	equ	0xFF5
 14937                           prodh	equ	0xFF4
 14938                           prodl	equ	0xFF3
 14939                           intcon	equ	0xFF2
 14940                           intcon2	equ	0xFF1
 14941                           indf0	equ	0xFEF
 14942                           postinc0	equ	0xFEE
 14943                           fsr0h	equ	0xFEA
 14944                           fsr0l	equ	0xFE9
 14945                           wreg	equ	0xFE8
 14946                           indf1	equ	0xFE7
 14947                           postinc1	equ	0xFE6
 14948                           postdec1	equ	0xFE5
 14949                           fsr1h	equ	0xFE2
 14950                           fsr1l	equ	0xFE1
 14951                           indf2	equ	0xFDF
 14952                           postinc2	equ	0xFDE
 14953                           postdec2	equ	0xFDD
 14954                           plusw2	equ	0xFDB
 14955                           fsr2h	equ	0xFDA
 14956                           fsr2l	equ	0xFD9
 14957                           status	equ	0xFD8
 14958                           
 14959 ;; *************** function i2_ringbuf_pop *****************
 14960 ;; Defined at:
 14961 ;;		line 45 in file "../../../My_library/My_ringbuf.c"
 14962 ;; Parameters:    Size  Location     Type
 14963 ;;  rb              2    8[COMRAM] PTR struct ringbuf
 14964 ;;		 -> terminal_task@command(8), uart_rx(8), uart_tx(8), usb_rx(8), 
 14965 ;;		 -> usb_tx(8), 
 14966 ;; Auto vars:     Size  Location     Type
 14967 ;;  ringbuf_pop     1   14[COMRAM] unsigned char 
 14968 ;; Return value:  Size  Location     Type
 14969 ;;                  1    wreg      unsigned char 
 14970 ;; Registers used:
 14971 ;;		wreg, fsr1l, fsr1h, fsr2l, fsr2h, status,2, status,0, cstack
 14972 ;; Tracked objects:
 14973 ;;		On entry : 0/0
 14974 ;;		On exit  : 0/0
 14975 ;;		Unchanged: 0/0
 14976 ;; Data sizes:     COMRAM   BANK0   BANK1   BANK2   BANK3   BANK4   BANK5   BANK6   BANK7   BANK8   BANK9  BANK10  BANK1
      +1  BANK12  BANK13  BANK14
 14977 ;;      Params:         2       0       0       0       0       0       0       0       0       0       0       0       
      +0       0       0       0
 14978 ;;      Locals:         1       0       0       0       0       0       0       0       0       0       0       0       
      +0       0       0       0
 14979 ;;      Temps:          4       0       0       0       0       0       0       0       0       0       0       0       
      +0       0       0       0
 14980 ;;      Totals:         7       0       0       0       0       0       0       0       0       0       0       0       
      +0       0       0       0
 14981 ;;Total ram usage:        7 bytes
 14982 ;; Hardware stack levels used:    1
 14983 ;; Hardware stack levels required when called:    1
 14984 ;; This function calls:
 14985 ;;		i2_ringbuf_num
 14986 ;; This function is called by:
 14987 ;;		_UART_ISR
 14988 ;; This function uses a non-reentrant model
 14989 ;;
 14990                           
 14991                           	psect	text80
 14992  01227E                     __ptext80:
 14993                           	opt stack 0
 14994  01227E                     i2_ringbuf_pop:
 14995                           	opt stack 21
 14996                           
 14997                           ;My_ringbuf.c: 46: if (ringbuf_num(rb)) {
 14998                           
 14999                           ;incstack = 0
 15000  01227E  C036  F02E         	movff	i2ringbuf_pop@rb,i2ringbuf_num@rb
 15001  012282  C037  F02F         	movff	i2ringbuf_pop@rb+1,i2ringbuf_num@rb+1
 15002  012286  EC74  F08F         	call	i2_ringbuf_num	;wreg free
 15003  01228A  502E               	movf	?i2_ringbuf_num,w,c
 15004  01228C  102F               	iorwf	?i2_ringbuf_num+1,w,c
 15005  01228E  B4D8               	btfsc	status,2,c
 15006  012290  D04A               	goto	i2l6324
 15007                           
 15008                           ;My_ringbuf.c: 47: char ret = rb->buf[rb->tail];
 15009  012292  EE20 F006          	lfsr	2,6
 15010  012296  5036               	movf	i2ringbuf_pop@rb,w,c
 15011  012298  26D9               	addwf	fsr2l,f,c
 15012  01229A  5037               	movf	i2ringbuf_pop@rb+1,w,c
 15013  01229C  22DA               	addwfc	fsr2h,f,c
 15014  01229E  CFDE F038          	movff	postinc2,??i2_ringbuf_pop
 15015  0122A2  CFDD F039          	movff	postdec2,??i2_ringbuf_pop+1
 15016  0122A6  C036  FFD9         	movff	i2ringbuf_pop@rb,fsr2l
 15017  0122AA  C037  FFDA         	movff	i2ringbuf_pop@rb+1,fsr2h
 15018  0122AE  CFDE F03A          	movff	postinc2,??i2_ringbuf_pop+2
 15019  0122B2  CFDD F03B          	movff	postdec2,??i2_ringbuf_pop+3
 15020  0122B6  5038               	movf	??i2_ringbuf_pop,w,c
 15021  0122B8  243A               	addwf	??i2_ringbuf_pop+2,w,c
 15022  0122BA  6ED9               	movwf	fsr2l,c
 15023  0122BC  5039               	movf	??i2_ringbuf_pop+1,w,c
 15024  0122BE  203B               	addwfc	??i2_ringbuf_pop+3,w,c
 15025  0122C0  6EDA               	movwf	fsr2h,c
 15026  0122C2  50DF               	movf	indf2,w,c
 15027  0122C4  6E3C               	movwf	i2ringbuf_pop@ret,c
 15028                           
 15029                           ;My_ringbuf.c: 48: if (rb->tail + 1 < rb->size) {
 15030  0122C6  EE20 F002          	lfsr	2,2
 15031  0122CA  5036               	movf	i2ringbuf_pop@rb,w,c
 15032  0122CC  26D9               	addwf	fsr2l,f,c
 15033  0122CE  5037               	movf	i2ringbuf_pop@rb+1,w,c
 15034  0122D0  22DA               	addwfc	fsr2h,f,c
 15035  0122D2  EE10 F006          	lfsr	1,6
 15036  0122D6  5036               	movf	i2ringbuf_pop@rb,w,c
 15037  0122D8  26E1               	addwf	fsr1l,f,c
 15038  0122DA  5037               	movf	i2ringbuf_pop@rb+1,w,c
 15039  0122DC  22E2               	addwfc	fsr1h,f,c
 15040  0122DE  CFE6 F03A          	movff	postinc1,??i2_ringbuf_pop+2
 15041  0122E2  CFE5 F03B          	movff	postdec1,??i2_ringbuf_pop+3
 15042  0122E6  0E01               	movlw	1
 15043  0122E8  263A               	addwf	??i2_ringbuf_pop+2,f,c
 15044  0122EA  0E00               	movlw	0
 15045  0122EC  223B               	addwfc	??i2_ringbuf_pop+3,f,c
 15046  0122EE  50DE               	movf	postinc2,w,c
 15047  0122F0  5C3A               	subwf	??i2_ringbuf_pop+2,w,c
 15048  0122F2  50DE               	movf	postinc2,w,c
 15049  0122F4  583B               	subwfb	??i2_ringbuf_pop+3,w,c
 15050  0122F6  B0D8               	btfsc	status,0,c
 15051  0122F8  D00A               	goto	i2l6316
 15052                           
 15053                           ;My_ringbuf.c: 49: rb->tail++;
 15054  0122FA  EE20 F006          	lfsr	2,6
 15055  0122FE  5036               	movf	i2ringbuf_pop@rb,w,c
 15056  012300  26D9               	addwf	fsr2l,f,c
 15057  012302  5037               	movf	i2ringbuf_pop@rb+1,w,c
 15058  012304  22DA               	addwfc	fsr2h,f,c
 15059  012306  2ADE               	incf	postinc2,f,c
 15060  012308  0E00               	movlw	0
 15061  01230A  22DD               	addwfc	postdec2,f,c
 15062                           
 15063                           ;My_ringbuf.c: 50: } else {
 15064  01230C  D00A               	goto	i2l6318
 15065  01230E                     i2l6316:
 15066                           
 15067                           ;My_ringbuf.c: 51: rb->tail = 0;
 15068  01230E  EE20 F006          	lfsr	2,6
 15069  012312  5036               	movf	i2ringbuf_pop@rb,w,c
 15070  012314  26D9               	addwf	fsr2l,f,c
 15071  012316  5037               	movf	i2ringbuf_pop@rb+1,w,c
 15072  012318  22DA               	addwfc	fsr2h,f,c
 15073  01231A  0E00               	movlw	0
 15074  01231C  6EDE               	movwf	postinc2,c
 15075  01231E  0E00               	movlw	0
 15076  012320  6EDD               	movwf	postdec2,c
 15077  012322                     i2l6318:
 15078                           
 15079                           ;My_ringbuf.c: 52: }
 15080                           ;My_ringbuf.c: 53: return ret;
 15081  012322  503C               	movf	i2ringbuf_pop@ret,w,c
 15082                           
 15083                           ;My_ringbuf.c: 54: } else {
 15084  012324  0012               	return	
 15085  012326                     i2l6324:
 15086                           
 15087                           ;My_ringbuf.c: 55: return 0;
 15088  012326  0E00               	movlw	0
 15089  012328  0012               	return	
 15090  01232A                     __end_ofi2_ringbuf_pop:
 15091                           	opt stack 0
 15092                           pclatu	equ	0xFFB
 15093                           pclath	equ	0xFFA
 15094                           tblptru	equ	0xFF8
 15095                           tblptrh	equ	0xFF7
 15096                           tblptrl	equ	0xFF6
 15097                           tablat	equ	0xFF5
 15098                           prodh	equ	0xFF4
 15099                           prodl	equ	0xFF3
 15100                           intcon	equ	0xFF2
 15101                           intcon2	equ	0xFF1
 15102                           indf0	equ	0xFEF
 15103                           postinc0	equ	0xFEE
 15104                           fsr0h	equ	0xFEA
 15105                           fsr0l	equ	0xFE9
 15106                           wreg	equ	0xFE8
 15107                           indf1	equ	0xFE7
 15108                           postinc1	equ	0xFE6
 15109                           postdec1	equ	0xFE5
 15110                           fsr1h	equ	0xFE2
 15111                           fsr1l	equ	0xFE1
 15112                           indf2	equ	0xFDF
 15113                           postinc2	equ	0xFDE
 15114                           postdec2	equ	0xFDD
 15115                           plusw2	equ	0xFDB
 15116                           fsr2h	equ	0xFDA
 15117                           fsr2l	equ	0xFD9
 15118                           status	equ	0xFD8
 15119                           
 15120 ;; *************** function i2_ringbuf_num *****************
 15121 ;; Defined at:
 15122 ;;		line 12 in file "../../../My_library/My_ringbuf.c"
 15123 ;; Parameters:    Size  Location     Type
 15124 ;;  rb              2    0[COMRAM] PTR struct ringbuf
 15125 ;;		 -> terminal_task@command(8), uart_rx(8), uart_tx(8), usb_rx(8), 
 15126 ;;		 -> usb_tx(8), 
 15127 ;; Auto vars:     Size  Location     Type
 15128 ;;		None
 15129 ;; Return value:  Size  Location     Type
 15130 ;;                  2    0[COMRAM] unsigned int 
 15131 ;; Registers used:
 15132 ;;		wreg, fsr1l, fsr1h, fsr2l, fsr2h, status,2, status,0
 15133 ;; Tracked objects:
 15134 ;;		On entry : 0/0
 15135 ;;		On exit  : 0/0
 15136 ;;		Unchanged: 0/0
 15137 ;; Data sizes:     COMRAM   BANK0   BANK1   BANK2   BANK3   BANK4   BANK5   BANK6   BANK7   BANK8   BANK9  BANK10  BANK1
      +1  BANK12  BANK13  BANK14
 15138 ;;      Params:         2       0       0       0       0       0       0       0       0       0       0       0       
      +0       0       0       0
 15139 ;;      Locals:         0       0       0       0       0       0       0       0       0       0       0       0       
      +0       0       0       0
 15140 ;;      Temps:          6       0       0       0       0       0       0       0       0       0       0       0       
      +0       0       0       0
 15141 ;;      Totals:         8       0       0       0       0       0       0       0       0       0       0       0       
      +0       0       0       0
 15142 ;;Total ram usage:        8 bytes
 15143 ;; Hardware stack levels used:    1
 15144 ;; This function calls:
 15145 ;;		Nothing
 15146 ;; This function is called by:
 15147 ;;		_UART_ISR
 15148 ;;		i2_ringbuf_put
 15149 ;;		i2_ringbuf_pop
 15150 ;; This function uses a non-reentrant model
 15151 ;;
 15152                           
 15153                           	psect	text81
 15154  011EE8                     __ptext81:
 15155                           	opt stack 0
 15156  011EE8                     i2_ringbuf_num:
 15157                           	opt stack 21
 15158                           
 15159                           ;My_ringbuf.c: 13: if (rb->head >= rb->tail) {
 15160                           
 15161                           ;incstack = 0
 15162  011EE8  EE20 F006          	lfsr	2,6
 15163  011EEC  502E               	movf	i2ringbuf_num@rb,w,c
 15164  011EEE  26D9               	addwf	fsr2l,f,c
 15165  011EF0  502F               	movf	i2ringbuf_num@rb+1,w,c
 15166  011EF2  22DA               	addwfc	fsr2h,f,c
 15167  011EF4  EE10 F004          	lfsr	1,4
 15168  011EF8  502E               	movf	i2ringbuf_num@rb,w,c
 15169  011EFA  26E1               	addwf	fsr1l,f,c
 15170  011EFC  502F               	movf	i2ringbuf_num@rb+1,w,c
 15171  011EFE  22E2               	addwfc	fsr1h,f,c
 15172  011F00  50DE               	movf	postinc2,w,c
 15173  011F02  5CE6               	subwf	postinc1,w,c
 15174  011F04  50DE               	movf	postinc2,w,c
 15175  011F06  58E6               	subwfb	postinc1,w,c
 15176  011F08  A0D8               	btfss	status,0,c
 15177  011F0A  D01F               	goto	i2l5842
 15178                           
 15179                           ;My_ringbuf.c: 14: return (rb->head - rb->tail);
 15180  011F0C  EE20 F004          	lfsr	2,4
 15181  011F10  502E               	movf	i2ringbuf_num@rb,w,c
 15182  011F12  26D9               	addwf	fsr2l,f,c
 15183  011F14  502F               	movf	i2ringbuf_num@rb+1,w,c
 15184  011F16  22DA               	addwfc	fsr2h,f,c
 15185  011F18  CFDE F030          	movff	postinc2,??i2_ringbuf_num
 15186  011F1C  CFDD F031          	movff	postdec2,??i2_ringbuf_num+1
 15187  011F20  EE20 F006          	lfsr	2,6
 15188  011F24  502E               	movf	i2ringbuf_num@rb,w,c
 15189  011F26  26D9               	addwf	fsr2l,f,c
 15190  011F28  502F               	movf	i2ringbuf_num@rb+1,w,c
 15191  011F2A  22DA               	addwfc	fsr2h,f,c
 15192  011F2C  CFDE F032          	movff	postinc2,??i2_ringbuf_num+2
 15193  011F30  CFDD F033          	movff	postdec2,??i2_ringbuf_num+3
 15194  011F34  1E32               	comf	??i2_ringbuf_num+2,f,c
 15195  011F36  1E33               	comf	??i2_ringbuf_num+3,f,c
 15196  011F38  4A32               	infsnz	??i2_ringbuf_num+2,f,c
 15197  011F3A  2A33               	incf	??i2_ringbuf_num+3,f,c
 15198  011F3C  5030               	movf	??i2_ringbuf_num,w,c
 15199  011F3E  2432               	addwf	??i2_ringbuf_num+2,w,c
 15200  011F40  6E2E               	movwf	?i2_ringbuf_num,c
 15201  011F42  5031               	movf	??i2_ringbuf_num+1,w,c
 15202  011F44  2033               	addwfc	??i2_ringbuf_num+3,w,c
 15203  011F46  6E2F               	movwf	?i2_ringbuf_num+1,c
 15204                           
 15205                           ;My_ringbuf.c: 15: } else {
 15206  011F48  0012               	return	
 15207  011F4A                     i2l5842:
 15208                           
 15209                           ;My_ringbuf.c: 16: return (rb->size + rb->head - rb->tail);
 15210  011F4A  EE20 F004          	lfsr	2,4
 15211  011F4E  502E               	movf	i2ringbuf_num@rb,w,c
 15212  011F50  26D9               	addwf	fsr2l,f,c
 15213  011F52  502F               	movf	i2ringbuf_num@rb+1,w,c
 15214  011F54  22DA               	addwfc	fsr2h,f,c
 15215  011F56  CFDE F030          	movff	postinc2,??i2_ringbuf_num
 15216  011F5A  CFDD F031          	movff	postdec2,??i2_ringbuf_num+1
 15217  011F5E  EE20 F002          	lfsr	2,2
 15218  011F62  502E               	movf	i2ringbuf_num@rb,w,c
 15219  011F64  26D9               	addwf	fsr2l,f,c
 15220  011F66  502F               	movf	i2ringbuf_num@rb+1,w,c
 15221  011F68  22DA               	addwfc	fsr2h,f,c
 15222  011F6A  CFDE F032          	movff	postinc2,??i2_ringbuf_num+2
 15223  011F6E  CFDD F033          	movff	postdec2,??i2_ringbuf_num+3
 15224  011F72  EE20 F006          	lfsr	2,6
 15225  011F76  502E               	movf	i2ringbuf_num@rb,w,c
 15226  011F78  26D9               	addwf	fsr2l,f,c
 15227  011F7A  502F               	movf	i2ringbuf_num@rb+1,w,c
 15228  011F7C  22DA               	addwfc	fsr2h,f,c
 15229  011F7E  CFDE F034          	movff	postinc2,??i2_ringbuf_num+4
 15230  011F82  CFDD F035          	movff	postdec2,??i2_ringbuf_num+5
 15231  011F86  1E34               	comf	??i2_ringbuf_num+4,f,c
 15232  011F88  1E35               	comf	??i2_ringbuf_num+5,f,c
 15233  011F8A  4A34               	infsnz	??i2_ringbuf_num+4,f,c
 15234  011F8C  2A35               	incf	??i2_ringbuf_num+5,f,c
 15235  011F8E  5032               	movf	??i2_ringbuf_num+2,w,c
 15236  011F90  2634               	addwf	??i2_ringbuf_num+4,f,c
 15237  011F92  5033               	movf	??i2_ringbuf_num+3,w,c
 15238  011F94  2235               	addwfc	??i2_ringbuf_num+5,f,c
 15239  011F96  5030               	movf	??i2_ringbuf_num,w,c
 15240  011F98  2434               	addwf	??i2_ringbuf_num+4,w,c
 15241  011F9A  6E2E               	movwf	?i2_ringbuf_num,c
 15242  011F9C  5031               	movf	??i2_ringbuf_num+1,w,c
 15243  011F9E  2035               	addwfc	??i2_ringbuf_num+5,w,c
 15244  011FA0  6E2F               	movwf	?i2_ringbuf_num+1,c
 15245  011FA2  0012               	return	
 15246  011FA4                     __end_ofi2_ringbuf_num:
 15247                           	opt stack 0
 15248                           pclatu	equ	0xFFB
 15249                           pclath	equ	0xFFA
 15250                           tblptru	equ	0xFF8
 15251                           tblptrh	equ	0xFF7
 15252                           tblptrl	equ	0xFF6
 15253                           tablat	equ	0xFF5
 15254                           prodh	equ	0xFF4
 15255                           prodl	equ	0xFF3
 15256                           intcon	equ	0xFF2
 15257                           intcon2	equ	0xFF1
 15258                           indf0	equ	0xFEF
 15259                           postinc0	equ	0xFEE
 15260                           fsr0h	equ	0xFEA
 15261                           fsr0l	equ	0xFE9
 15262                           wreg	equ	0xFE8
 15263                           indf1	equ	0xFE7
 15264                           postinc1	equ	0xFE6
 15265                           postdec1	equ	0xFE5
 15266                           fsr1h	equ	0xFE2
 15267                           fsr1l	equ	0xFE1
 15268                           indf2	equ	0xFDF
 15269                           postinc2	equ	0xFDE
 15270                           postdec2	equ	0xFDD
 15271                           plusw2	equ	0xFDB
 15272                           fsr2h	equ	0xFDA
 15273                           fsr2l	equ	0xFD9
 15274                           status	equ	0xFD8
 15275                           pclatu	equ	0xFFB
 15276                           pclath	equ	0xFFA
 15277                           tblptru	equ	0xFF8
 15278                           tblptrh	equ	0xFF7
 15279                           tblptrl	equ	0xFF6
 15280                           tablat	equ	0xFF5
 15281                           prodh	equ	0xFF4
 15282                           prodl	equ	0xFF3
 15283                           intcon	equ	0xFF2
 15284                           intcon2	equ	0xFF1
 15285                           indf0	equ	0xFEF
 15286                           postinc0	equ	0xFEE
 15287                           fsr0h	equ	0xFEA
 15288                           fsr0l	equ	0xFE9
 15289                           wreg	equ	0xFE8
 15290                           indf1	equ	0xFE7
 15291                           postinc1	equ	0xFE6
 15292                           postdec1	equ	0xFE5
 15293                           fsr1h	equ	0xFE2
 15294                           fsr1l	equ	0xFE1
 15295                           indf2	equ	0xFDF
 15296                           postinc2	equ	0xFDE
 15297                           postdec2	equ	0xFDD
 15298                           plusw2	equ	0xFDB
 15299                           fsr2h	equ	0xFDA
 15300                           fsr2l	equ	0xFD9
 15301                           status	equ	0xFD8
 15302                           
 15303                           	psect	rparam
 15304  0000                     pclatu	equ	0xFFB
 15305                           pclath	equ	0xFFA
 15306                           tblptru	equ	0xFF8
 15307                           tblptrh	equ	0xFF7
 15308                           tblptrl	equ	0xFF6
 15309                           tablat	equ	0xFF5
 15310                           prodh	equ	0xFF4
 15311                           prodl	equ	0xFF3
 15312                           intcon	equ	0xFF2
 15313                           intcon2	equ	0xFF1
 15314                           indf0	equ	0xFEF
 15315                           postinc0	equ	0xFEE
 15316                           fsr0h	equ	0xFEA
 15317                           fsr0l	equ	0xFE9
 15318                           wreg	equ	0xFE8
 15319                           indf1	equ	0xFE7
 15320                           postinc1	equ	0xFE6
 15321                           postdec1	equ	0xFE5
 15322                           fsr1h	equ	0xFE2
 15323                           fsr1l	equ	0xFE1
 15324                           indf2	equ	0xFDF
 15325                           postinc2	equ	0xFDE
 15326                           postdec2	equ	0xFDD
 15327                           plusw2	equ	0xFDB
 15328                           fsr2h	equ	0xFDA
 15329                           fsr2l	equ	0xFD9
 15330                           status	equ	0xFD8
 15331                           
 15332                           	psect	temp
 15333  00005B                     btemp:
 15334                           	opt stack 0
 15335  00005B                     	ds	1
 15336  0000                     int$flags	set	btemp
 15337                           pclatu	equ	0xFFB
 15338                           pclath	equ	0xFFA
 15339                           tblptru	equ	0xFF8
 15340                           tblptrh	equ	0xFF7
 15341                           tblptrl	equ	0xFF6
 15342                           tablat	equ	0xFF5
 15343                           prodh	equ	0xFF4
 15344                           prodl	equ	0xFF3
 15345                           intcon	equ	0xFF2
 15346                           intcon2	equ	0xFF1
 15347                           indf0	equ	0xFEF
 15348                           postinc0	equ	0xFEE
 15349                           fsr0h	equ	0xFEA
 15350                           fsr0l	equ	0xFE9
 15351                           wreg	equ	0xFE8
 15352                           indf1	equ	0xFE7
 15353                           postinc1	equ	0xFE6
 15354                           postdec1	equ	0xFE5
 15355                           fsr1h	equ	0xFE2
 15356                           fsr1l	equ	0xFE1
 15357                           indf2	equ	0xFDF
 15358                           postinc2	equ	0xFDE
 15359                           postdec2	equ	0xFDD
 15360                           plusw2	equ	0xFDB
 15361                           fsr2h	equ	0xFDA
 15362                           fsr2l	equ	0xFD9
 15363                           status	equ	0xFD8


Data Sizes:
    Strings     162
    Constant    239
    Data        3
    BSS         2596
    Persistent  0
    Stack       0

Auto Spaces:
    Space          Size  Autos    Used
    COMRAM           94     45      90
    BANK0           160     50     158
    BANK1           256      0     246
    BANK2           256      0     200
    BANK3           256      0       0
    BANK4           256      0       0
    BANK5           256      0       0
    BANK6           256      0       0
    BANK7           256      0       0
    BANK8           256      0       0
    BANK9           256      0       0
    BANK10          256      0       0
    BANK11          256      0       0
    BANK12          256      0       0
    BANK13          192      0       0
    BANK14          176      0       0

Pointer List with Targets:

    USER_USB_CALLBACK_EVENT_HANDLER@pdata	PTR void  size(2) Largest target is 48
		 -> USTATcopy(COMRAM[1]), USBActiveConfiguration(COMRAM[1]), NULL(NULL[0]), BDT(BIGRAMl[48]), 

    terminal_operation$4	PTR unsigned char  size(2) Largest target is 25
		 -> terminal_task@op3(BANK1[25]), 

    terminal_operation$3	PTR unsigned char  size(2) Largest target is 25
		 -> terminal_task@op2(BANK1[25]), 

    terminal_operation$2	PTR unsigned char  size(2) Largest target is 25
		 -> terminal_task@op1(BANK1[25]), 

    terminal_operation$1	PTR unsigned char  size(2) Largest target is 25
		 -> terminal_task@op0(BANK1[25]), 

    terminal_operation$0	PTR struct ringbuf size(2) Largest target is 0

    memset@p1	PTR void  size(2) Largest target is 48
		 -> USBAlternateInterface(BANK0[2]), BDT(BIGRAMl[48]), UEP1(SFR_1[1]), 

    memset@p	PTR unsigned char  size(2) Largest target is 48
		 -> USBAlternateInterface(BANK0[2]), BDT(BIGRAMl[48]), UEP1(SFR_1[1]), 

    putUSBUSART@data	PTR unsigned char  size(2) Largest target is 1
		 -> USB_task@data(BANK0[1]), 

    getsUSBUSART@buffer	PTR unsigned char  size(2) Largest target is 1
		 -> USB_task@data(BANK0[1]), 

    CDCDataInHandle	PTR void  size(2) Largest target is 48
		 -> NULL(NULL[0]), BDT(BIGRAMl[48]), 

    CDCDataOutHandle	PTR void  size(2) Largest target is 48
		 -> NULL(NULL[0]), BDT(BIGRAMl[48]), 

    pCDCDst.wRom	PTR const unsigned int  size(2) Largest target is 0

    pCDCDst.bRom	PTR const unsigned char  size(2) Largest target is 0

    pCDCDst.wRam	PTR unsigned int  size(2) Largest target is 0

    pCDCDst.bRam	PTR unsigned char  size(2) Largest target is 0

    S4860_POINTER$wRom	PTR const unsigned int  size(2) Largest target is 0

    pCDCSrc.wRom	PTR const unsigned int  size(2) Largest target is 0

    S4860_POINTER$bRom	PTR const unsigned char  size(2) Largest target is 0

    pCDCSrc.bRom	PTR const unsigned char  size(2) Largest target is 0

    S4860_POINTER$wRam	PTR unsigned int  size(2) Largest target is 0

    pCDCSrc.wRam	PTR unsigned int  size(2) Largest target is 0

    S4860_POINTER$bRam	PTR unsigned char  size(2) Largest target is 0

    pCDCSrc.bRam	PTR unsigned char  size(2) Largest target is 0

    USBStdFeatureReqHandler@pUEP	PTR unsigned char  size(2) Largest target is 1
		 -> UEP0(SFR_1[1]), 

    USBStdFeatureReqHandler@p	PTR struct __BDT size(2) Largest target is 48
		 -> NULL(NULL[0]), BDT(BIGRAMl[48]), 

    USBStdGetStatusHandler@p	PTR struct __BDT size(2) Largest target is 48
		 -> NULL(NULL[0]), BDT(BIGRAMl[48]), 

    pDst	PTR volatile unsigned char  size(2) Largest target is 8
		 -> CtrlTrfData(BIGRAMh[8]), NULL(NULL[0]), 

    USBConfigureEndpoint@handle	PTR volatile struct __BDT size(2) Largest target is 48
		 -> BDT(BIGRAMl[48]), 

    pBDTEntryEP0OutCurrent	PTR volatile struct __BDT size(2) Largest target is 48
		 -> NULL(NULL[0]), BDT(BIGRAMl[48]), 

    pBDTEntryEP0OutNext	PTR volatile struct __BDT size(2) Largest target is 48
		 -> NULL(NULL[0]), BDT(BIGRAMl[48]), 

    USBTransferOnePacket@data	PTR unsigned char  size(2) Largest target is 64
		 -> cdc_data_tx(BANK1[64]), cdc_data_rx(BANK1[64]), NULL(NULL[0]), 

    sp__USBTransferOnePacket	PTR void  size(2) Largest target is 48
		 -> NULL(NULL[0]), BDT(BIGRAMl[48]), 

    USBTransferOnePacket@handle	PTR volatile struct __BDT size(2) Largest target is 48
		 -> NULL(NULL[0]), BDT(BIGRAMl[48]), 

    USBEnableEndpoint@p	PTR unsigned char  size(2) Largest target is 1
		 -> UEP0(SFR_1[1]), 

    pBDTEntryOut	PTR volatile struct __BDT[3] size(2) Largest target is 48
		 -> NULL(NULL[0]), BDT(BIGRAMl[48]), 

    pBDTEntryIn	PTR volatile struct __BDT[3] size(2) Largest target is 48
		 -> NULL(NULL[0]), BDT(BIGRAMl[48]), 

    S3607$pFunc	PTR FTN()void  size(3) Largest target is 0
		 -> Absolute function(), 

    outPipes.pFunc	PTR FTN()void  size(3) Largest target is 0
		 -> Absolute function(), 

    S3597$wRam	PTR unsigned int  size(2) Largest target is 0

    outPipes.pDst.wRam	PTR unsigned int  size(2) Largest target is 0

    S3597$bRam	PTR unsigned char  size(2) Largest target is 0

    outPipes.pDst.bRam	PTR unsigned char  size(2) Largest target is 0

    S3573$wRom	PTR const unsigned int  size(2) Largest target is 0

    inPipes.pSrc.wRom	PTR const unsigned int  size(2) Largest target is 0

    S3573$wRam	PTR unsigned int  size(2) Largest target is 0

    inPipes.pSrc.wRam	PTR unsigned int  size(2) Largest target is 0

    S3573$bRom	PTR const unsigned char  size(2) Largest target is 0

    inPipes.pSrc.bRom	PTR const unsigned char  size(2) Largest target is 0

    S3573$bRam	PTR unsigned char  size(2) Largest target is 0

    inPipes.pSrc.bRam	PTR unsigned char  size(2) Largest target is 0

    sp__memset	PTR void  size(2) Largest target is 48
		 -> USBAlternateInterface(BANK0[2]), BDT(BIGRAMl[48]), UEP1(SFR_1[1]), 

    USB_SD_Ptr	const PTR const unsigned char [3] size(2) Largest target is 52
		 -> sd002(CODE[52]), sd001(CODE[52]), sd000(CODE[4]), 

    USB_CD_Ptr	const PTR const unsigned char [1] size(2) Largest target is 67
		 -> configDescriptor1(CODE[67]), 

    get_string_usb@s	PTR unsigned char  size(2) Largest target is 1
		 -> USB_task@data(BANK0[1]), 

    put_string_usb@s	PTR unsigned char  size(2) Largest target is 1
		 -> USB_task@data(BANK0[1]), 

    F8959.buf	PTR unsigned char  size(2) Largest target is 1000
		 -> terminal_task@buf(BANK0[100]), main_init@uartrx(BANK2[100]), main_init@uarttx(BIGRAMl[1000]), main_init@usbrx(BANK2[100]), 
		 -> main_init@usbtx(BIGRAMl[1000]), 

    I2C_LCD_Puts@s	PTR const unsigned char  size(2) Largest target is 9
		 -> STR_2(CODE[9]), STR_1(CODE[9]), 

    sp__strcpy	PTR unsigned char  size(2) Largest target is 0

    sp__strcat	PTR unsigned char  size(2) Largest target is 0

    RTCC_from_epoch@tm	PTR struct . size(2) Largest target is 14
		 -> now(BANK0[14]), 

    RTCC_from_RTCC@tm	PTR struct . size(2) Largest target is 14
		 -> now(BANK0[14]), 

    caltime_to_epoch@tm	PTR struct . size(2) Largest target is 14
		 -> now(BANK0[14]), 

    epoch_to_caltime@tm	PTR struct . size(2) Largest target is 14
		 -> now(BANK0[14]), 

    caltime_to_RTCC@tm	PTR struct . size(2) Largest target is 14
		 -> now(BANK0[14]), 

    RTCC_to_caltime@tm	PTR struct . size(2) Largest target is 14
		 -> now(BANK0[14]), 

    get_quot_rem@quot	PTR unsigned long  size(2) Largest target is 4
		 -> epoch_to_caltime@num(BANK0[4]), 

    ringbuf_delete@rb.buf	PTR unsigned char  size(2) Largest target is 1000
		 -> terminal_task@buf(BANK0[100]), main_init@uartrx(BANK2[100]), main_init@uarttx(BIGRAMl[1000]), main_init@usbrx(BANK2[100]), 
		 -> main_init@usbtx(BIGRAMl[1000]), 

    ringbuf_backspace@rb.buf	PTR unsigned char  size(2) Largest target is 1000
		 -> terminal_task@buf(BANK0[100]), main_init@uartrx(BANK2[100]), main_init@uarttx(BIGRAMl[1000]), main_init@usbrx(BANK2[100]), 
		 -> main_init@usbtx(BIGRAMl[1000]), 

    ringbuf_pop@rb.buf	PTR unsigned char  size(2) Largest target is 1000
		 -> terminal_task@buf(BANK0[100]), main_init@uartrx(BANK2[100]), main_init@uarttx(BIGRAMl[1000]), main_init@usbrx(BANK2[100]), 
		 -> main_init@usbtx(BIGRAMl[1000]), 

    ringbuf_pop@rb	PTR struct ringbuf size(2) Largest target is 9
		 -> terminal_task@command(BANK0[8]), uart_rx(BANK0[8]), uart_tx(BANK0[8]), usb_rx(BANK0[8]), 
		 -> usb_tx(BANK0[8]), 

    ringbuf_put@rb.buf	PTR unsigned char  size(2) Largest target is 1000
		 -> terminal_task@buf(BANK0[100]), main_init@uartrx(BANK2[100]), main_init@uarttx(BIGRAMl[1000]), main_init@usbrx(BANK2[100]), 
		 -> main_init@usbtx(BIGRAMl[1000]), 

    ringbuf_put@rb	PTR struct ringbuf size(2) Largest target is 9
		 -> terminal_task@command(BANK0[8]), uart_rx(BANK0[8]), uart_tx(BANK0[8]), usb_rx(BANK0[8]), 
		 -> usb_tx(BANK0[8]), 

    ringbuf_num@rb.buf	PTR unsigned char  size(2) Largest target is 1000
		 -> terminal_task@buf(BANK0[100]), main_init@uartrx(BANK2[100]), main_init@uarttx(BIGRAMl[1000]), main_init@usbrx(BANK2[100]), 
		 -> main_init@usbtx(BIGRAMl[1000]), 

    ringbuf_num@rb	PTR struct ringbuf size(2) Largest target is 9
		 -> terminal_task@command(BANK0[8]), uart_rx(BANK0[8]), uart_tx(BANK0[8]), usb_rx(BANK0[8]), 
		 -> usb_tx(BANK0[8]), 

    ringbuf_init@rb.buf	PTR unsigned char  size(2) Largest target is 1000
		 -> terminal_task@buf(BANK0[100]), main_init@uartrx(BANK2[100]), main_init@uarttx(BIGRAMl[1000]), main_init@usbrx(BANK2[100]), 
		 -> main_init@usbtx(BIGRAMl[1000]), 

    ringbuf_init@internal_buf	PTR unsigned char  size(2) Largest target is 1000
		 -> terminal_task@buf(BANK0[100]), main_init@uartrx(BANK2[100]), main_init@uarttx(BIGRAMl[1000]), main_init@usbrx(BANK2[100]), 
		 -> main_init@usbtx(BIGRAMl[1000]), 

    ringbuf_init@rb	PTR struct ringbuf size(2) Largest target is 9
		 -> terminal_task@command(BANK0[8]), uart_rx(BANK0[8]), uart_tx(BANK0[8]), usb_rx(BANK0[8]), 
		 -> usb_tx(BANK0[8]), 

    uart_rx.buf	PTR unsigned char  size(2) Largest target is 1000
		 -> terminal_task@buf(BANK0[100]), main_init@uartrx(BANK2[100]), main_init@uarttx(BIGRAMl[1000]), main_init@usbrx(BANK2[100]), 
		 -> main_init@usbtx(BIGRAMl[1000]), 

    uart_tx.buf	PTR unsigned char  size(2) Largest target is 1000
		 -> terminal_task@buf(BANK0[100]), main_init@uartrx(BANK2[100]), main_init@uarttx(BIGRAMl[1000]), main_init@usbrx(BANK2[100]), 
		 -> main_init@usbtx(BIGRAMl[1000]), 

    usb_rx.buf	PTR unsigned char  size(2) Largest target is 1000
		 -> terminal_task@buf(BANK0[100]), main_init@uartrx(BANK2[100]), main_init@uarttx(BIGRAMl[1000]), main_init@usbrx(BANK2[100]), 
		 -> main_init@usbtx(BIGRAMl[1000]), 

    S398ringbuf$buf	PTR unsigned char  size(2) Largest target is 1000
		 -> terminal_task@buf(BANK0[100]), main_init@uartrx(BANK2[100]), main_init@uarttx(BIGRAMl[1000]), main_init@usbrx(BANK2[100]), 
		 -> main_init@usbtx(BIGRAMl[1000]), 

    usb_tx.buf	PTR unsigned char  size(2) Largest target is 1000
		 -> terminal_task@buf(BANK0[100]), main_init@uartrx(BANK2[100]), main_init@uarttx(BIGRAMl[1000]), main_init@usbrx(BANK2[100]), 
		 -> main_init@usbtx(BIGRAMl[1000]), 


Critical Paths under _main in COMRAM

    None.

Critical Paths under _ISR in COMRAM

    _USB_ISR->_USBDeviceTasks
    _USBDeviceTasks->_USBCtrlEPService
    i2_USBDeviceInit->i2_memset
    _USBWakeFromSuspend->_USER_USB_CALLBACK_EVENT_HANDLER
    _USBSuspend->_USER_USB_CALLBACK_EVENT_HANDLER
    _USBCtrlEPAllowDataStage->_USBCtrlTrfTxService
    _USBCheckStdRequest->_USBStdFeatureReqHandler
    _USBStdSetCfgHandler->_USER_USB_CALLBACK_EVENT_HANDLER
    _USBStdFeatureReqHandler->_USER_USB_CALLBACK_EVENT_HANDLER
    _CDCInitEP->_USBEnableEndpoint
    _USBEnableEndpoint->_USBConfigureEndpoint
    _USBCtrlTrfOutHandler->_USBCtrlTrfRxService
    _USBCtrlTrfInHandler->_USBCtrlTrfTxService
    _UART_ISR->i2_ringbuf_pop
    _UART_ISR->i2_ringbuf_put
    i2_ringbuf_put->i2_ringbuf_num
    i2_ringbuf_pop->i2_ringbuf_num

Critical Paths under _main in BANK0

    _main->_RTCC_from_epoch
    _main_init->_I2C_LCD_init
    _USB_init->_USBDeviceInit
    _USBDeviceInit->_memset
    _I2C_LCD_init->_I2C_LCD_Clear
    _I2C_LCD_Clear->_I2C_LCD_Command
    _USB_task->_ringbuf_put
    _ringbuf_put->_ringbuf_pop
    _ringbuf_pop->_ringbuf_num
    _put_string_usb->_CDCTxService
    _get_string_usb->_getsUSBUSART
    _getsUSBUSART->_USBTransferOnePacket
    _CDCTxService->_USBTransferOnePacket
    _UART_task->_ringbuf_num
    _RTCC_task->_RTCC_from_RTCC
    _RTCC_from_RTCC->_caltime_to_epoch
    _caltime_to_epoch->___lmul
    _RTCC_to_caltime->_x_to_d
    _RTCC_from_epoch->_epoch_to_caltime
    _epoch_to_caltime->_get_quot_rem
    _month_length->___awmod
    _get_quot_rem->___lmul
    ___lmul->___lldiv
    _caltime_to_RTCC->_d_to_x
    _d_to_x->___awdiv
    _I2C_LCD_SetCursor->_I2C_LCD_Command
    _I2C_LCD_Command->_I2C_Start
    _I2C_LCD_Puts->_I2C_Start
    _I2C_Stop->_I2C_IdleCheck
    _I2C_Start->_I2C_IdleCheck
    _I2C_Send->_I2C_IdleCheck

Critical Paths under _ISR in BANK0

    None.

Critical Paths under _main in BANK1

    None.

Critical Paths under _ISR in BANK1

    None.

Critical Paths under _main in BANK2

    None.

Critical Paths under _ISR in BANK2

    None.

Critical Paths under _main in BANK3

    None.

Critical Paths under _ISR in BANK3

    None.

Critical Paths under _main in BANK4

    None.

Critical Paths under _ISR in BANK4

    None.

Critical Paths under _main in BANK5

    None.

Critical Paths under _ISR in BANK5

    None.

Critical Paths under _main in BANK6

    None.

Critical Paths under _ISR in BANK6

    None.

Critical Paths under _main in BANK7

    None.

Critical Paths under _ISR in BANK7

    None.

Critical Paths under _main in BANK8

    None.

Critical Paths under _ISR in BANK8

    None.

Critical Paths under _main in BANK9

    None.

Critical Paths under _ISR in BANK9

    None.

Critical Paths under _main in BANK10

    None.

Critical Paths under _ISR in BANK10

    None.

Critical Paths under _main in BANK11

    None.

Critical Paths under _ISR in BANK11

    None.

Critical Paths under _main in BANK12

    None.

Critical Paths under _ISR in BANK12

    None.

Critical Paths under _main in BANK13

    None.

Critical Paths under _ISR in BANK13

    None.

Critical Paths under _main in BANK14

    None.

Critical Paths under _ISR in BANK14

    None.

Call Graph Tables:

 ---------------------------------------------------------------------------------
 (Depth) Function   	        Calls       Base Space   Used Autos Params    Refs
 ---------------------------------------------------------------------------------
 (0) _main                                                 1     1      0   60554
                                             49 BANK0      1     1      0
                      _I2C_LCD_Clear
                       _I2C_LCD_Puts
                  _I2C_LCD_SetCursor
                     _RTCC_from_RTCC
                    _RTCC_from_epoch
                          _RTCC_task
                          _UART_task
                           _USB_task
                          _main_init
                        _ringbuf_num
                        _ringbuf_pop
                        _ringbuf_put
 ---------------------------------------------------------------------------------
 (1) _main_init                                            0     0      0    5407
                       _I2C_LCD_init
                           _I2C_init
                           _OSC_init
                          _RTCC_init
                          _UART_init
                           _USB_init
                       _ringbuf_init
                        _timer0_init
                        _timer1_init
                        _timer3_init
 ---------------------------------------------------------------------------------
 (2) _timer3_init                                          2     2      0      31
                                              0 BANK0      2     2      0
 ---------------------------------------------------------------------------------
 (2) _timer1_init                                          3     2      1     212
                                              0 BANK0      3     2      1
 ---------------------------------------------------------------------------------
 (2) _timer0_init                                          2     2      0      62
                                              0 BANK0      2     2      0
 ---------------------------------------------------------------------------------
 (2) _ringbuf_init                                         6     0      6    1971
                                              0 BANK0      6     0      6
 ---------------------------------------------------------------------------------
 (2) _USB_init                                             0     0      0    1541
                    _USBDeviceAttach
                      _USBDeviceInit
 ---------------------------------------------------------------------------------
 (3) _USBDeviceInit                                        1     1      0    1541
                                              8 BANK0      1     1      0
                             _memset
 ---------------------------------------------------------------------------------
 (4) _memset                                               8     2      6    1250
                                              0 BANK0      8     2      6
 ---------------------------------------------------------------------------------
 (3) _USBDeviceAttach                                      0     0      0       0
 ---------------------------------------------------------------------------------
 (2) _UART_init                                            0     0      0       0
 ---------------------------------------------------------------------------------
 (2) _RTCC_init                                            0     0      0       0
 ---------------------------------------------------------------------------------
 (2) _OSC_init                                             0     0      0       0
 ---------------------------------------------------------------------------------
 (2) _I2C_init                                             0     0      0       0
 ---------------------------------------------------------------------------------
 (2) _I2C_LCD_init                                         3     3      0    1590
                                              7 BANK0      3     3      0
                      _I2C_LCD_Clear
                    _I2C_LCD_Command
 ---------------------------------------------------------------------------------
 (3) _I2C_LCD_Clear                                        1     1      0     727
                                              6 BANK0      1     1      0
                    _I2C_LCD_Command
 ---------------------------------------------------------------------------------
 (1) _USB_task                                             3     3      0   17513
                                             22 BANK0      3     3      0
                     _get_string_usb
                     _put_string_usb
                        _ringbuf_num
                        _ringbuf_pop
                        _ringbuf_put
 ---------------------------------------------------------------------------------
 (1) _ringbuf_put                                          7     4      3    4794
                                             15 BANK0      7     4      3
                        _ringbuf_num
                        _ringbuf_pop (ARG)
 ---------------------------------------------------------------------------------
 (1) _ringbuf_pop                                          7     5      2    2778
                                              8 BANK0      7     5      2
                        _ringbuf_num
 ---------------------------------------------------------------------------------
 (2) _put_string_usb                                       4     0      4    3026
                                             12 BANK0      4     0      4
                       _CDCTxService
                   _is_usb_available
                        _putUSBUSART
 ---------------------------------------------------------------------------------
 (3) _putUSBUSART                                          3     0      3     300
                                              0 BANK0      3     0      3
 ---------------------------------------------------------------------------------
 (2) _get_string_usb                                       7     3      4    5282
                                             13 BANK0      7     3      4
                       _CDCTxService
                       _getsUSBUSART
                   _is_usb_available
 ---------------------------------------------------------------------------------
 (3) _is_usb_available                                     1     1      0      37
                                              0 BANK0      1     1      0
 ---------------------------------------------------------------------------------
 (3) _getsUSBUSART                                         6     3      3    2522
                                              7 BANK0      6     3      3
               _USBTransferOnePacket
 ---------------------------------------------------------------------------------
 (3) _CDCTxService                                         5     5      0    2389
                                              7 BANK0      5     5      0
               _USBTransferOnePacket
 ---------------------------------------------------------------------------------
 (4) _USBTransferOnePacket                                 7     3      4    2151
                                              0 BANK0      7     3      4
 ---------------------------------------------------------------------------------
 (1) _UART_task                                            0     0      0    1491
                        _ringbuf_num
 ---------------------------------------------------------------------------------
 (2) _ringbuf_num                                          8     6      2    1491
                                              0 BANK0      8     6      2
 ---------------------------------------------------------------------------------
 (1) _RTCC_task                                            0     0      0    7223
                     _RTCC_from_RTCC
 ---------------------------------------------------------------------------------
 (2) _RTCC_from_RTCC                                       2     0      2    7223
                                             38 BANK0      2     0      2
                    _RTCC_to_caltime
                   _caltime_to_epoch
 ---------------------------------------------------------------------------------
 (3) _caltime_to_epoch                                    13    11      2    5927
                                             25 BANK0     13    11      2
                             ___lmul
                       _month_length
 ---------------------------------------------------------------------------------
 (3) _RTCC_to_caltime                                      3     1      2     401
                                              2 BANK0      3     1      2
                             _x_to_d
 ---------------------------------------------------------------------------------
 (4) _x_to_d                                               2     2      0      62
                                              0 BANK0      2     2      0
 ---------------------------------------------------------------------------------
 (1) _RTCC_from_epoch                                      2     0      2    9844
                                             47 BANK0      2     0      2
                    _caltime_to_RTCC
                   _epoch_to_caltime
 ---------------------------------------------------------------------------------
 (2) _epoch_to_caltime                                    14    12      2    8225
                                             33 BANK0     14    12      2
                       _get_quot_rem
                       _month_length
 ---------------------------------------------------------------------------------
 (4) _month_length                                         6     5      1    2404
                                              6 BANK0      6     5      1
                            ___awmod
 ---------------------------------------------------------------------------------
 (5) ___awmod                                              6     2      4     909
                                              0 BANK0      6     2      4
 ---------------------------------------------------------------------------------
 (3) _get_quot_rem                                         8     4      4    4608
                                             25 BANK0      8     4      4
                            ___lldiv
                             ___lmul
 ---------------------------------------------------------------------------------
 (4) ___lmul                                              12     4      8    2750
                                             13 BANK0     12     4      8
                            ___lldiv (ARG)
                       _month_length (ARG)
 ---------------------------------------------------------------------------------
 (4) ___lldiv                                             13     5      8     717
                                              0 BANK0     13     5      8
 ---------------------------------------------------------------------------------
 (2) _caltime_to_RTCC                                      2     0      2    1200
                                              9 BANK0      2     0      2
                             _d_to_x
 ---------------------------------------------------------------------------------
 (3) _d_to_x                                               1     1      0     745
                                              8 BANK0      1     1      0
                            ___awdiv
 ---------------------------------------------------------------------------------
 (4) ___awdiv                                              8     4      4     683
                                              0 BANK0      8     4      4
 ---------------------------------------------------------------------------------
 (1) _I2C_LCD_SetCursor                                    4     3      1    1064
                                              6 BANK0      4     3      1
                    _I2C_LCD_Command
 ---------------------------------------------------------------------------------
 (3) _I2C_LCD_Command                                      2     2      0     727
                                              4 BANK0      2     2      0
                           _I2C_Send
                          _I2C_Start
                           _I2C_Stop
 ---------------------------------------------------------------------------------
 (1) _I2C_LCD_Puts                                         5     3      2     999
                                              4 BANK0      5     3      2
                           _I2C_Send
                          _I2C_Start
                           _I2C_Stop
 ---------------------------------------------------------------------------------
 (4) _I2C_Stop                                             0     0      0      31
                      _I2C_IdleCheck
 ---------------------------------------------------------------------------------
 (4) _I2C_Start                                            2     1      1     569
                                              2 BANK0      2     1      1
                      _I2C_IdleCheck
 ---------------------------------------------------------------------------------
 (4) _I2C_Send                                             1     1      0      62
                                              2 BANK0      1     1      0
                      _I2C_IdleCheck
 ---------------------------------------------------------------------------------
 (5) _I2C_IdleCheck                                        2     2      0      31
                                              0 BANK0      2     2      0
 ---------------------------------------------------------------------------------
 Estimated maximum stack depth 5
 ---------------------------------------------------------------------------------
 (Depth) Function   	        Calls       Base Space   Used Autos Params    Refs
 ---------------------------------------------------------------------------------
 (7) _ISR                                                 15    15      0   33321
                                             30 COMRAM    15    15      0
                           _UART_ISR
                            _USB_ISR
 ---------------------------------------------------------------------------------
 (8) _USB_ISR                                              0     0      0   32149
                     _USBDeviceTasks
 ---------------------------------------------------------------------------------
 (9) _USBDeviceTasks                                       1     1      0   32149
                                             29 COMRAM     1     1      0
          _USBCtrlEPAllowStatusStage
                   _USBCtrlEPService
                    _USBStallHandler
                         _USBSuspend
                 _USBWakeFromSuspend
    _USER_USB_CALLBACK_EVENT_HANDLER
                    i2_USBDeviceInit
 ---------------------------------------------------------------------------------
 (10) i2_USBDeviceInit                                     1     1      0     610
                                              8 COMRAM     1     1      0
                           i2_memset
 ---------------------------------------------------------------------------------
 (10) _USBWakeFromSuspend                                  0     0      0    4311
    _USER_USB_CALLBACK_EVENT_HANDLER
 ---------------------------------------------------------------------------------
 (10) _USBSuspend                                          0     0      0    4311
    _USER_USB_CALLBACK_EVENT_HANDLER
 ---------------------------------------------------------------------------------
 (10) _USBStallHandler                                     1     1      0       0
                                              0 COMRAM     1     1      0
 ---------------------------------------------------------------------------------
 (10) _USBCtrlEPService                                    3     3      0   18560
                                             26 COMRAM     3     3      0
                _USBCtrlTrfInHandler
               _USBCtrlTrfOutHandler
             _USBCtrlTrfSetupHandler
 ---------------------------------------------------------------------------------
 (11) _USBCtrlTrfSetupHandler                              0     0      0   18263
                 _USBCheckStdRequest
           _USBCtrlEPServiceComplete
    _USER_USB_CALLBACK_EVENT_HANDLER
 ---------------------------------------------------------------------------------
 (12) _USBCtrlEPServiceComplete                            0     0      0      92
            _USBCtrlEPAllowDataStage
          _USBCtrlEPAllowStatusStage
 ---------------------------------------------------------------------------------
 (13) _USBCtrlEPAllowDataStage                             0     0      0      92
                _USBCtrlTrfTxService
 ---------------------------------------------------------------------------------
 (12) _USBCheckStdRequest                                  0     0      0   13860
            _USBStdFeatureReqHandler
                _USBStdGetDscHandler
             _USBStdGetStatusHandler
                _USBStdSetCfgHandler
    _USER_USB_CALLBACK_EVENT_HANDLER
 ---------------------------------------------------------------------------------
 (13) _USBStdSetCfgHandler                                 1     1      0    4809
                                             20 COMRAM     1     1      0
    _USER_USB_CALLBACK_EVENT_HANDLER
                           i2_memset
 ---------------------------------------------------------------------------------
 (11) i2_memset                                            8     2      6     408
                                              0 COMRAM     8     2      6
 ---------------------------------------------------------------------------------
 (13) _USBStdGetStatusHandler                              3     3      0      46
                                              0 COMRAM     3     3      0
 ---------------------------------------------------------------------------------
 (13) _USBStdGetDscHandler                                 2     2      0       0
                                              0 COMRAM     2     2      0
 ---------------------------------------------------------------------------------
 (13) _USBStdFeatureReqHandler                             6     6      0    4694
                                             20 COMRAM     6     6      0
    _USER_USB_CALLBACK_EVENT_HANDLER
 ---------------------------------------------------------------------------------
 (10) _USER_USB_CALLBACK_EVENT_HANDLER                     8     2      6    4311
                                             12 COMRAM     8     2      6
                          _CDCInitEP
                 _USBCheckCDCRequest
 ---------------------------------------------------------------------------------
 (11) _USBCheckCDCRequest                                  0     0      0       0
 ---------------------------------------------------------------------------------
 (11) _CDCInitEP                                           0     0      0    1199
                  _USBEnableEndpoint
             i2_USBTransferOnePacket
 ---------------------------------------------------------------------------------
 (12) i2_USBTransferOnePacket                              7     3      4     410
                                              0 COMRAM     7     3      4
 ---------------------------------------------------------------------------------
 (12) _USBEnableEndpoint                                   4     3      1     789
                                              8 COMRAM     4     3      1
               _USBConfigureEndpoint
 ---------------------------------------------------------------------------------
 (13) _USBConfigureEndpoint                                8     7      1     428
                                              0 COMRAM     8     7      1
 ---------------------------------------------------------------------------------
 (11) _USBCtrlTrfOutHandler                                0     0      0     114
                _USBCtrlTrfRxService
 ---------------------------------------------------------------------------------
 (12) _USBCtrlTrfRxService                                 2     2      0     114
                                              0 COMRAM     2     2      0
          _USBCtrlEPAllowStatusStage
 ---------------------------------------------------------------------------------
 (13) _USBCtrlEPAllowStatusStage                           0     0      0       0
 ---------------------------------------------------------------------------------
 (11) _USBCtrlTrfInHandler                                 1     1      0     115
                                              1 COMRAM     1     1      0
                _USBCtrlTrfTxService
 ---------------------------------------------------------------------------------
 (14) _USBCtrlTrfTxService                                 1     1      0      92
                                              0 COMRAM     1     1      0
 ---------------------------------------------------------------------------------
 (8) _UART_ISR                                             1     1      0    1172
                                             15 COMRAM     1     1      0
                      i2_ringbuf_num
                      i2_ringbuf_pop
                      i2_ringbuf_put
 ---------------------------------------------------------------------------------
 (9) i2_ringbuf_put                                        7     4      3     482
                                              8 COMRAM     7     4      3
                      i2_ringbuf_num
 ---------------------------------------------------------------------------------
 (9) i2_ringbuf_pop                                        7     5      2     435
                                              8 COMRAM     7     5      2
                      i2_ringbuf_num
 ---------------------------------------------------------------------------------
 (10) i2_ringbuf_num                                       8     6      2     232
                                              0 COMRAM     8     6      2
 ---------------------------------------------------------------------------------
 Estimated maximum stack depth 14
 ---------------------------------------------------------------------------------

 Call Graph Graphs:

 _main (ROOT)
   _I2C_LCD_Clear
     _I2C_LCD_Command
       _I2C_Send
         _I2C_IdleCheck
       _I2C_Start
         _I2C_IdleCheck
       _I2C_Stop
         _I2C_IdleCheck
   _I2C_LCD_Puts
     _I2C_Send
       _I2C_IdleCheck
     _I2C_Start
       _I2C_IdleCheck
     _I2C_Stop
       _I2C_IdleCheck
   _I2C_LCD_SetCursor
     _I2C_LCD_Command
       _I2C_Send
         _I2C_IdleCheck
       _I2C_Start
         _I2C_IdleCheck
       _I2C_Stop
         _I2C_IdleCheck
   _RTCC_from_RTCC
     _RTCC_to_caltime
       _x_to_d
     _caltime_to_epoch
       ___lmul
         ___lldiv (ARG)
         _month_length (ARG)
           ___awmod
       _month_length
         ___awmod
   _RTCC_from_epoch
     _caltime_to_RTCC
       _d_to_x
         ___awdiv
     _epoch_to_caltime
       _get_quot_rem
         ___lldiv
         ___lmul
           ___lldiv (ARG)
           _month_length (ARG)
             ___awmod
       _month_length
         ___awmod
   _RTCC_task
     _RTCC_from_RTCC
       _RTCC_to_caltime
         _x_to_d
       _caltime_to_epoch
         ___lmul
           ___lldiv (ARG)
           _month_length (ARG)
             ___awmod
         _month_length
           ___awmod
   _UART_task
     _ringbuf_num
   _USB_task
     _get_string_usb
       _CDCTxService
         _USBTransferOnePacket
       _getsUSBUSART
         _USBTransferOnePacket
       _is_usb_available
     _put_string_usb
       _CDCTxService
         _USBTransferOnePacket
       _is_usb_available
       _putUSBUSART
     _ringbuf_num
     _ringbuf_pop
       _ringbuf_num
     _ringbuf_put
       _ringbuf_num
       _ringbuf_pop (ARG)
         _ringbuf_num
   _main_init
     _I2C_LCD_init
       _I2C_LCD_Clear
         _I2C_LCD_Command
           _I2C_Send
             _I2C_IdleCheck
           _I2C_Start
             _I2C_IdleCheck
           _I2C_Stop
             _I2C_IdleCheck
       _I2C_LCD_Command
         _I2C_Send
           _I2C_IdleCheck
         _I2C_Start
           _I2C_IdleCheck
         _I2C_Stop
           _I2C_IdleCheck
     _I2C_init
     _OSC_init
     _RTCC_init
     _UART_init
     _USB_init
       _USBDeviceAttach
       _USBDeviceInit
         _memset
     _ringbuf_init
     _timer0_init
     _timer1_init
     _timer3_init
   _ringbuf_num
   _ringbuf_pop
     _ringbuf_num
   _ringbuf_put
     _ringbuf_num
     _ringbuf_pop (ARG)
       _ringbuf_num

 _ISR (ROOT)
   _UART_ISR
     i2_ringbuf_num
     i2_ringbuf_pop
       i2_ringbuf_num
     i2_ringbuf_put
       i2_ringbuf_num
   _USB_ISR
     _USBDeviceTasks
       _USBCtrlEPAllowStatusStage
       _USBCtrlEPService
         _USBCtrlTrfInHandler
           _USBCtrlTrfTxService
         _USBCtrlTrfOutHandler
           _USBCtrlTrfRxService
             _USBCtrlEPAllowStatusStage
         _USBCtrlTrfSetupHandler
           _USBCheckStdRequest
             _USBStdFeatureReqHandler
               _USER_USB_CALLBACK_EVENT_HANDLER
                 _CDCInitEP
                   _USBEnableEndpoint
                     _USBConfigureEndpoint
                   i2_USBTransferOnePacket
                 _USBCheckCDCRequest
             _USBStdGetDscHandler
             _USBStdGetStatusHandler
             _USBStdSetCfgHandler
               _USER_USB_CALLBACK_EVENT_HANDLER
                 _CDCInitEP
                   _USBEnableEndpoint
                     _USBConfigureEndpoint
                   i2_USBTransferOnePacket
                 _USBCheckCDCRequest
               i2_memset
             _USER_USB_CALLBACK_EVENT_HANDLER
               _CDCInitEP
                 _USBEnableEndpoint
                   _USBConfigureEndpoint
                 i2_USBTransferOnePacket
               _USBCheckCDCRequest
           _USBCtrlEPServiceComplete
             _USBCtrlEPAllowDataStage
               _USBCtrlTrfTxService
             _USBCtrlEPAllowStatusStage
           _USER_USB_CALLBACK_EVENT_HANDLER
             _CDCInitEP
               _USBEnableEndpoint
                 _USBConfigureEndpoint
               i2_USBTransferOnePacket
             _USBCheckCDCRequest
       _USBStallHandler
       _USBSuspend
         _USER_USB_CALLBACK_EVENT_HANDLER
           _CDCInitEP
             _USBEnableEndpoint
               _USBConfigureEndpoint
             i2_USBTransferOnePacket
           _USBCheckCDCRequest
       _USBWakeFromSuspend
         _USER_USB_CALLBACK_EVENT_HANDLER
           _CDCInitEP
             _USBEnableEndpoint
               _USBConfigureEndpoint
             i2_USBTransferOnePacket
           _USBCheckCDCRequest
       _USER_USB_CALLBACK_EVENT_HANDLER
         _CDCInitEP
           _USBEnableEndpoint
             _USBConfigureEndpoint
           i2_USBTransferOnePacket
         _USBCheckCDCRequest
       i2_USBDeviceInit
         i2_memset

 Address spaces:
Name               Size   Autos  Total    Cost      Usage
BIGRAMl            CFF      0     7D0      36       60.1%
BIGRAMh            170      0       0      35        0.0%
BITBANK12          100      0       0      29        0.0%
BANK12             100      0       0      30        0.0%
BITBANK11          100      0       0      27        0.0%
BANK11             100      0       0      28        0.0%
BITBANK10          100      0       0      25        0.0%
BANK10             100      0       0      26        0.0%
BITBANK9           100      0       0      23        0.0%
BANK9              100      0       0      24        0.0%
BITBANK8           100      0       0      21        0.0%
BANK8              100      0       0      22        0.0%
BITBANK7           100      0       0      19        0.0%
BANK7              100      0       0      20        0.0%
BITBANK6           100      0       0      17        0.0%
BANK6              100      0       0      18        0.0%
BITBANK5           100      0       0      15        0.0%
BANK5              100      0       0      16        0.0%
BITBANK4           100      0       0      13        0.0%
BANK4              100      0       0      14        0.0%
BITBANK3           100      0       0      11        0.0%
BANK3              100      0       0      12        0.0%
BITBANK2           100      0       0       9        0.0%
BANK2              100      0      C8      10       78.1%
BITBANK1           100      0       0       6        0.0%
BANK1              100      0      F6       7       96.1%
BITBANK13           C0      0       0      31        0.0%
BANK13              C0      0       0      32        0.0%
BITBANK14           B0      0       0      33        0.0%
BANK14              B0      0       0      34        0.0%
BITBANK0            A0      0       0       4        0.0%
BANK0               A0     32      9E       5       98.8%
BITCOMRAM           5E      0       0       0        0.0%
COMRAM              5E     2D      5A       1       95.7%
BITSFR_2             0      0       0      40        0.0%
SFR_2                0      0       0      40        0.0%
BITSFR_1             0      0       0      40        0.0%
SFR_1                0      0       0      40        0.0%
BITSFR               0      0       0      40        0.0%
SFR                  0      0       0      40        0.0%
STACK                0      0       0       2        0.0%
NULL                 0      0       0       0        0.0%
ABS                  0      0     2B6       8        0.0%
DATA                 0      0     A86       3        0.0%
CODE                 0      0       0       0        0.0%


Microchip Technology PIC18 Macro Assembler V1.35 build -356382666 
Symbol Table                                                                                   Wed Nov 11 00:53:14 2015

                         get_string_usb@s 00D6                                _USB_SD_Ptr FE77  
                      __size_of_I2C_Start 0030                              ___awdiv@sign 00CE  
                                      _ms 006A                             _USBDeviceInit 0888  
                       ??_RTCC_from_epoch 00FA                        __size_of_CDCInitEP 0070  
                            __CFG_CP0$OFF 000000      USER_USB_CALLBACK_EVENT_HANDLER@event 003A  
    USER_USB_CALLBACK_EVENT_HANDLER@pdata 003C               __end_of_USBStdGetDscHandler 0EE4  
                                     l182 2F2E                                       l167 2CB0  
                                     l263 2B68                                       l435 1706  
                                     l268 29D4                                       l429 1D70  
                                     l551 2AD8                                       l448 05F6  
                                     l591 2BEE                                       l816 25E4  
                                     _BDT 000D00                                       l784 2ECA  
                                     l964 08FE                                       _ISR 1008  
                                     _UIE 000F36                                       _UIR 000F62  
                       get_string_usb@len 00D8                             ?_get_quot_rem 00E2  
                      caltime_to_epoch@tm 00E2                                _USBSuspend 2D74  
                                     _now 008A                              ___awmod@sign 00CE  
                    USBStdSetCfgHandler@i 0042                                       prod 000FF3  
                                     wreg 000FE8                            _USBDeviceTasks 0B34  
                              _TXSTA1bits 000FAD                            _USBDeviceState 0025  
                   ??_USBCtrlTrfRxService 002E                              _I2C_LCD_Puts 2890  
                __size_ofi2_USBDeviceInit 013A                            ??_getsUSBUSART 00D3  
                USBEnableEndpoint@options 0036                         ??_I2C_LCD_Command 00CD  
                                    ?_ISR 002E                    __end_of_get_string_usb 2A48  
                            _I2C_LCD_init 2630                                      l1025 2BB8  
                                    l1026 2BB6                                      l1322 075A  
                                    l1327 07B6                USBConfigureEndpoint@handle 0034  
                                    l1773 1ED6                                      l8022 0674  
                                    l8016 0668                                      l7314 2E7E  
                                    l8130 28DE                                      l8018 066C  
                                    l8050 2CD0                                      l8124 28BE  
                                    l8132 28F4                                      l7500 1E5A  
                                    l7404 2C04                                      l7502 1E6A  
                                    l7350 23F0                                      l7422 1680  
                                    l7414 164C                                      l8302 0A5C  
                                    l7512 1EC4                                      l7504 1E70  
                                    l7360 2420                                      l8064 2A10  
                                    l8048 2CCC                                      l7408 2C16  
                      __CFG_WPFP$PAGE_127 000000                                      l7442 2750  
                                    l7362 2426                                      l7370 2458  
                                    l7354 2400                                      l7434 16E6  
                                    l8066 2A14                                      l7602 08D4  
                                    l8322 0B30                                      l8316 0ACC  
                                    l7470 1D02                                      l7446 2776  
                                    l7374 246C                                      l7366 244A  
                                    l7358 2414                                      l7390 1424  
                                    l7710 07BA                                      l7630 093E  
                                    l7606 08DE                                      l7472 1D0E  
                                    l7464 1CE4                                      l7560 0020  
                                    l7528 1158                                      l7704 079E  
                                    l7640 09AE                                      l7490 1D66  
                                    l7482 1D44                                      l7474 1D14  
                                    l7458 1CCE                                      l7570 0084  
                                    l7634 0948                                      l7618 090C  
                                    l7626 091E                                      l8290 0A1E  
                                    l7580 010C                                      l7564 002A  
                                    l7572 0088                                      l7804 2B80  
                                    l7486 1D52                                      l7558 001A  
                                    l7718 07E4                                      l7726 0808  
                                    l7576 00A8                                      l7744 085A  
                                    l7728 0814                                      l7736 0838  
                                    l7816 29D6                                      l7746 0860  
                                    l7738 0842                                      l7770 1206  
                                    l7762 2E16                                      l7748 0884  
                                    l7692 074A                                      l7780 1250  
                                    l7772 1210                                      l7932 1BD0  
                                    l7940 1BEC                                      l7686 0730  
                                    l7934 1BE6                                      l7870 2682  
                                    l7862 2640                                      l7688 073A  
                                    l7784 1280                                      l7952 1898  
                                    l7698 0766                                      l7778 1248  
                                    l7874 268C                                      l7866 2658  
                                    l7858 2636                                      l7788 12B2  
                                    l7878 26A4                                      l7886 2C76  
                                    STR_1 FFA1                                      STR_2 FFAA  
                                    STR_3 FFE0                                      STR_6 FFFA  
                                    STR_9 FFFC                                      u7000 13CE  
                                    u7010 13D0                                      u7020 1400  
                                    u7040 1416                                      u7050 1418  
                                    u7060 1470                                      u7070 1472  
                                    u7038 1404                                      u8050 0AB6  
                                    u7430 0720                     ??_USBCtrlTrfTxService 002E  
                                    u8080 0B18                                      i2l90 107E  
                                    u8068 0ABA                                      u6910 2CBC  
                                    u7438 0724                                      i2l87 1052  
                                    _UCFG 000F39                                      u7570 11F6  
                                    u8098 0B1C                                      _UEP0 000F26  
                                    _UEP1 000F27                                      u7578 11FA  
                                    _UEIE 000F37                                      u8557 2648  
                                    u8567 2694                                      u8577 2EDE  
                                    u8587 2BF4                                      u8597 28DA  
                                    _UEIR 000F63                                      _UCON 000F65  
                         _CDCDataInHandle 0076    USBStdFeatureReqHandler@current_ep_data 0045  
                                    _pDst 007A                                      _main 09E0  
                ??i2_USBTransferOnePacket 0032                                      fsr0h 000FEA  
                                    fsr1h 000FE2                                      indf0 000FEF  
                                    fsr0l 000FE9                                      fsr2h 000FDA  
                                    indf1 000FE7                               _BaudRateGen 0066  
                                    fsr1l 000FE1                                      indf2 000FDF  
                                    fsr2l 000FD9                          __end_of_I2C_Send 2F36  
                         _USBDeviceAttach 2B8A                                      btemp 005B  
                  __CFG_DSWDTOSC$T1OSCREF 000000                           __end_of_USB_ISR 2F66  
                        __end_of_I2C_Stop 2F60                                      pclat 000FFA  
                        __end_of_I2C_init 2F48                                      prodh 000FF4  
                                    prodl 000FF3                                      start 10BA  
                           __CFG_IESO$OFF 000000                __end_of_USBCheckStdRequest 162E  
                  ??_USBCtrlTrfOutHandler 0030                              ___param_bank 000010  
               ??_USBStdFeatureReqHandler 0042                             _I2C_LCD_Clear 2ED0  
                   __end_ofi2_ringbuf_pop 232A                     __end_ofi2_ringbuf_num 1FA4  
                   __end_ofi2_ringbuf_put 21CE                                     ??_ISR 004C  
                  __size_of_I2C_IdleCheck 001E                  ??_USBStdGetStatusHandler 002E  
                          ?_USBDeviceInit 002E                         ??_RTCC_to_caltime 00CD  
                           __CFG_PLLDIV$2 000000                              _BAUDCON1bits 000F7E  
                                   ?_main 002E                   __size_of_put_string_usb 002E  
                          ??_get_quot_rem 00E6                           __end_of___awdiv 1D70  
                                   _ADRES 000FC3                                     STR_11 FFF8  
                                   STR_21 FFE5                                     STR_30 FF81  
                                   STR_15 FFF6                                     STR_32 FFD6  
                                   STR_40 FFC9                                     STR_41 FFF4  
                                   STR_33 FFF0                                     STR_17 FF98  
                                   STR_25 FF5C                                     STR_34 FFD0  
                                   STR_42 FFC2                                     STR_26 FFB3  
                                   STR_43 FFBB                                     STR_27 FF8D  
                                   STR_36 FFE9                           __end_of___awmod 2476  
                                   STR_29 FFED                                     STR_38 FFDB  
                                   STR_39 FFF2         __size_of_USBCtrlEPServiceComplete 00F0  
                         __end_of___lldiv 1EE8                           ___awdiv@divisor 00CB  
                  __end_of_USBDeviceTasks 0C78                                     _LATB2 007C52  
               ?_USBCtrlEPServiceComplete 002E                                     i2l298 2A74  
                                   i2l299 2A72                                     _UADDR 000F38  
                                   i2l964 0CDE                           ___awdiv@counter 00CD  
                                   i2l976 0B64                                     i2l986 0BFE  
                                   i2l987 0C74                                     i2l988 0C10  
                                   _TMR1H 000FCF                                     _TRISA 000F92  
                                   _TRISB 000F93                                     _TRISC 000F94  
                                   _USTAT 000F64        __size_of_USBCtrlEPAllowStatusStage 00C2  
                     ___lmul@multiplicand 00DA                            __CFG_FCMEN$OFF 000000  
                        __end_of_UART_ISR 2A92           __end_of_USBCtrlEPAllowDataStage 250E  
                                   _sd000 FF58                                     _sd001 FEC2  
                                   _sd002 FEF6                      caltime_to_epoch@year 00E8  
                              i2memset@p1 002E                        __size_of_UART_init 0020  
                         __end_of_dpowers FE77                        __size_of_UART_task 0020  
                        __end_of_OSC_init 2F56                        __size_of_RTCC_init 0030  
                         ?_get_string_usb 00D6                        __size_of_RTCC_task 003C  
                       __end_of_I2C_Start 2CC0                                     tablat 000FF5  
                                   plusw2 000FDB                         __end_of_CDCInitEP 2824  
                        __end_of_USB_init 2EB4                          __end_of_USB_task 2630  
                                   status 000FD8                          __end_ofi2_memset 2DCC  
                       month_length@month 00CF                           putUSBUSART@data 00C9  
            __size_of_USBStdSetCfgHandler 00DC                            ?_I2C_LCD_Clear 002E  
                         __initialization 2824                              __end_of_main 0B34  
                   _control_signal_bitmap 0086                       ringbuf_init@bufsize 00CD  
                        RTCC_from_RTCC@tm 00EF                 __size_of_USBCtrlEPService 00CE  
                                  ??_main 00FA                             __activetblptr 000003  
                         ?_USBDeviceTasks 002E                               ?_USBSuspend 002E  
                            _cdc_mem_type 0082                                    _BCL1IF 007D0B  
                           _I2C_IdleCheck 2E7A                   __end_of_USBDeviceAttach 2BC2  
                        _CDCDataOutHandle 0078                         _getsUSBUSART$5238 00D4  
                       _I2C_LCD_SetCursor 2D48                                    _EECON2 000FA7  
                                  _ANCON0 000F48                                    _ANCON1 000F49  
                        ___awdiv@dividend 00C9                                 ??_USB_ISR 004C  
                      I2C_LCD_Command@ans 00CE                           getsUSBUSART@len 00D2  
                   __size_of_CDCTxService 018C                                    i2l1113 2338  
                                  i2l1050 1066                                    i2l1211 0478  
                                  i2l1116 23C0                                    i2l1117 2346  
                                  i2l1118 234A                                    i2l1126 2AD4  
                                  i2l1163 210E                                    i2l1270 2252  
                                  i2l1192 02B6                                    i2l1177 1564  
                                  i2l1186 15B2                                    i2l1268 221C  
                                  i2l3228 2AD0                                    i2l5014 02B2  
                          __CFG_WDTEN$OFF 000000                                    i2l5040 038C  
                                  i2l5050 03DE                                    i2l5034 036E  
                                  i2l5052 03F8                                    i2l5036 0370  
                                  i2l5028 032A                                    i2l5230 1596  
                                  i2l5214 156C                                    i2l5126 1010  
                                  i2l5056 0412                                    i2l5240 15CC  
                                  i2l5216 1572                                    i2l5410 20D4  
                                  i2l5082 04D8                                    i2l5066 0458  
                                  i2l5226 158A                                    i2l5218 1578  
                                  i2l5146 108C                                    i2l5180 0F32  
                                  i2l5084 04E4                                    i2l5076 0494  
                                  i2l5068 0464                                    i2l5228 1590  
                                  i2l5244 15EA                                    i2l6212 0BB0  
                                  i2l5174 0F10                                    i2l4710 1FE4  
                                  i2l4702 1FBA                                    i2l6222 0BC0  
                                  i2l6206 0B8A                                    i2l5416 20F4  
                                  i2l5192 0F8C                                    i2l6306 21B8  
                                  i2l4722 2040                                    i2l6242 0C08  
                                  i2l6316 230E                                    i2l6324 2326  
                                  i2l4804 19A2                                    i2l5196 0FA6  
                                  i2l6236 0BF4                                    i2l6228 0BCC  
                                  i2l6318 2322                                    i2l5382 2950  
                                  i2l5374 2908                                    i2l6262 0C54  
                                  i2l4808 19AC                                    i2l4680 2570  
                                  i2l4840 2DAA                                    i2l6264 0C70  
                                  i2l6256 0C36                                    i2l6184 0B5C  
                                  i2l6176 0B4C                                    i2l4818 19D6  
                                  i2l4826 1A0E                                    i2l4690 2B24  
                                  i2l4770 223C                                    i2l4762 2210  
                                  i2l4754 21FA                                    i2l4914 14B8  
                                  i2l4828 1A16                                    i2l4836 1A4E  
                                  i2l5396 2090                                    i2l4844 2DBA  
                                  i2l4940 1532                                    i2l4924 14EC  
                                  i2l5812 1AA6                                    i2l5398 2094  
                                  i2l4694 2B32                                    i2l4782 2CF0  
                                  i2l4918 14C0                                    i2l5830 1B14  
                                  i2l6198 0B7A                                    i2l4864 1C36  
                                  i2l4784 2CF6                                    i2l4960 0E62  
                                  i2l4952 0DD4                                    i2l5824 1AF4  
                                  i2l5816 1AAE                                    i2l5842 1F4A  
                                  i2l4778 225A                                    i2l4970 0EC6  
                                  i2l4962 0E68                                    i2l4788 2CFC  
                                  i2l4948 0DC2                                    i2l5828 1B0E  
                                  i2l5860 0CBA                                    i2l4974 0ECC  
                                  i2l4894 24C4                                    i2l4968 0EC0  
                                  i2l5784 2C58                                    i2l5864 0CC2  
                                  i2l4986 2368                                    i2l4898 24DC  
                                  i2l5786 2C5A                                    i2l4996 23A8  
                                  i2l5892 0D24                                    i2l5876 0CEC  
                                  i2l5884 0CFE                                    i2l6588 1076  
                                  i2l5888 0D1C                                    i2l5898 0D80  
                      ?_I2C_LCD_SetCursor 00CF                                    _RCREG1 000FAF  
                           CDCTxService@i 00D3                                    _RTCCAL 000F3E  
                                  _SPBRG1 000FB0                                    _SSP1IF 007CF3  
                          __CFG_WPCFG$OFF 000000                                    _TXREG1 000FAE  
                i2USBTransferOnePacket@ep 0032                         ??i2_USBDeviceInit 0036  
                         i2ringbuf_pop@rb 0036                           i2ringbuf_num@rb 002E  
         __size_ofi2_USBTransferOnePacket 00BA                           i2ringbuf_put@rb 0036  
                          __CFG_WPDIS$OFF 000000                  __end_of_is_usb_available 2ED0  
                      epoch_to_caltime@tm 00EA                      get_string_usb@rx_len 00DB  
                       _shortPacketStatus 002B                       ??_I2C_LCD_SetCursor 00D0  
                          __CFG_XINST$OFF 000000                         ?_epoch_to_caltime 00EA  
                         USBDeviceTasks@i 004B                     caltime_to_epoch@epoch 00EA  
             USBStdFeatureReqHandler@pUEP 0043                  USBTransferOnePacket@data 00CA  
              USBCtrlTrfInHandler@lastDTS 002F                           ??_USBDeviceInit 00D1  
                            ?_ringbuf_pop 00D1                              ?_ringbuf_num 00C9  
                            ?_ringbuf_put 00D8                     caltime_to_epoch@month 00EE  
                                  ___lmul 273E                              ?_putUSBUSART 00C9  
                         _caltime_to_RTCC 1706                        ??_epoch_to_caltime 00EC  
                       __end_of_UART_init 2E3A                                 ??___awdiv 00CD  
                       __end_of_UART_task 2E5A                                 ??___awmod 00CD  
                                  _d_to_x 2DCC                                 ??___lldiv 00D1  
                    __end_of_getsUSBUSART 12B8                              ?_timer0_init 002E  
                       __end_of_RTCC_init 2C90                              ?_timer1_init 00C9  
                       __end_of_RTCC_task 2B14                              ?_timer3_init 002E  
                       _USBEnableEndpoint 2B14           __size_of_USBStdGetStatusHandler 00AA  
                                  _memset 2BFA                                    clear_0 282C  
                                  clear_1 283E                                    clear_2 284A  
                         put_string_usb@s 00D5                                    clear_3 2856  
                                  clear_4 2862                           __CFG_CLKOEC$OFF 000000  
                        ___awdiv@quotient 00CF                           ___awmod@divisor 00CB  
                         ___awmod@counter 00CD                                    _x_to_d 2E5A  
                      ?_USBEnableEndpoint 0036                                    _usb_rx 00A8  
                                  _usb_tx 00B0             __size_of_USBTransferOnePacket 00D8  
               __size_of_caltime_to_epoch 028E                                 ?_I2C_Send 002E  
                            _CDCTxService 06FC                                 ?_I2C_Stop 002E  
                            __mediumconst FE6C                                 ?_I2C_init 002E  
               __end_of_I2C_LCD_SetCursor 2D74                                    tblptrh 000FF7  
                                  tblptrl 000FF6                                    tblptru 000FF8  
                     ??_USBEnableEndpoint 0037                            ?_I2C_IdleCheck 002E  
                             _CtrlTrfData 000D38                      _controlTransferState 0029  
                    __CFG_LS48MHZ$SYS48X8 000000                                __accesstop 0060  
                 __end_of__initialization 2886                              __pbssBIGRAMl 02C8  
                    __end_of_get_quot_rem 1984                             ___rparam_used 000001  
                         ??_I2C_LCD_Clear 00CF                           _RTCC_from_epoch 2F04  
                __size_of_USBStallHandler 0046                      __CFG_WPEND$PAGE_WPFP 000000  
                     __size_of_USBSuspend 002C                          terminal_task@op0 018A  
                        terminal_task@op1 01A3                          terminal_task@op2 01BC  
                        terminal_task@op3 01D5                            __pcstackCOMRAM 002E  
               __end_of_USBEnableEndpoint 2B50                             __end_of_sd000 FF5C  
                           __end_of_sd001 FEF6                             __end_of_sd002 FF2A  
                            __pidataBANK0 2F66                                 ?_UART_ISR 002E  
        __size_of_USBCtrlEPAllowDataStage 0098             __size_of_USBConfigureEndpoint 0094  
                               ?_OSC_init 002E               __end_of_USBCtrlTrfInHandler 2118  
                         __CFG_DSWDTPS$G2 000000                           _I2C_LCD_Command 2BC2  
                          _put_string_usb 2CC0                    i2_USBTransferOnePacket 1FA4  
                    terminal_task@command 00B8                                 ?_USB_init 002E  
                               ?_USB_task 002E                          I2C_LCD_Command@c 00CD  
                              ??_I2C_Send 00CB                         _CDCTxService$5286 00D1  
                              ??_I2C_Stop 00CB                                _cdc_notice 0100  
                               ?i2_memset 002E                                _cdc_rx_len 0083  
                              ??_I2C_init 00C9                                _cdc_tx_len 0085  
              caltime_to_epoch@month_2389 00E9                  ??_USBCtrlTrfSetupHandler 0048  
                        ?_USBDeviceAttach 002E                    _USBStdGetStatusHandler 232A  
                      __size_of_main_init 00E2                                __pbssBANK0 0060  
                              __pbssBANK1 0100                                __pbssBANK2 0200  
                 __end_of_caltime_to_RTCC 17DC                           _RTCC_to_caltime 1D70  
             __size_of_USBWakeFromSuspend 0032                               _pBDTEntryIn 0010  
        __end_of_USBCtrlEPServiceComplete 10E0               __size_of_USBCheckCDCRequest 00B0  
                   __end_of_weekday_3char FF46                     RTCC_task@prev_halfsec 0080  
                    USBCtrlTrfRxService@i 002E                                   ?___lmul 00D6  
                              ??_UART_ISR 003D                                   ?_d_to_x 002E  
                  __end_of_put_string_usb 2CEE                                ??_OSC_init 00C9  
                                 ?_memset 00C9                      I2C_LCD_SetCursor@col 00D2  
                          ___lmul@product 00DE                                _device_dsc FF46  
                    I2C_LCD_SetCursor@row 00CF                          _USBCtrlEPService 1A56  
                                 ?_x_to_d 002E                              I2C_Send@data 00CB  
                              _ep_data_in 0016               __end_of_USBCtrlTrfRxService 0FF0  
                      _USBCheckStdRequest 1554                                ??_USB_init 00D2  
                       _configDescriptor1 FE7F                                ??_USB_task 00DF  
                        ??_get_string_usb 00DA                        __CFG_OSC$INTOSCPLL 000000  
                         ??_I2C_IdleCheck 00C9                                ??i2_memset 0034  
             __end_of_USBCtrlTrfTxService 1A56                       _USBStdSetCfgHandler 1478  
              __size_of_I2C_LCD_SetCursor 002C                    I2C_LCD_SetCursor@F8630 00FB  
                         __CFG_WDTPS$1024 000000                                   _SPBRGH1 000F7F  
                                 _SSP1ADD 000FC8                                   _SSP1BUF 000FC9  
                                 _RTCVALH 000F3B                                   _RTCVALL 000F3A  
                     ?_USBCheckStdRequest 002E              __size_of_USBStdGetDscHandler 0132  
                                 _UIEbits 000F36                                   _USB_ISR 2F60  
                 __end_of_RTCC_from_epoch 2F1E                      timer1_init@prescaler 00CB  
                                 _UIRbits 000F62                          i2ringbuf_pop@ret 003C  
                        __CFG_CFGPLLEN$ON 000000                             _cdc_trf_state 0084  
                           ?_month_length 00CF                       epoch_to_caltime@day 00F0  
                     epoch_to_caltime@num 00F4                         RTCC_from_epoch@tm 00F8  
                               _I2C_Start 2C90                                   _pCDCDst 006E  
                                 _pCDCSrc 0071                     __size_of_getsUSBUSART 00EA  
                                 __Hparam 0000                      ?_USBStdSetCfgHandler 002E  
                               _CDCInitEP 27B4                                   __Lparam 0000  
                 __end_of_I2C_LCD_Command 2BFA                __size_of_USBEnableEndpoint 003C  
                            USB_task@data 00E1                      ??_USBCheckStdRequest 0048  
           __size_of_USBCtrlTrfOutHandler 005C                             ?_ringbuf_init 00C9  
                                 ___awdiv 1CB2                           __size_of___lmul 0076  
                                 ___awmod 23D4                                   ___lldiv 1E2C  
                        ??_USBDeviceTasks 004B                           ?_put_string_usb 00D5  
                       ??_USBStallHandler 002E                           __size_of_d_to_x 0028  
                    __size_of_ringbuf_pop 00CC                      __size_of_ringbuf_num 00EE  
                    __size_of_ringbuf_put 00D4                           __CFG_STVREN$OFF 000000  
                       __end_of_main_init 139A                      __size_of_putUSBUSART 0026  
             epoch_to_caltime@month_cache 00FD                                   __pcinit 2824  
                      getsUSBUSART@buffer 00D0                           __size_of_memset 0034  
               __end_of_configDescriptor1 FEC2                                   __ramtop 0F00  
                    __size_of_timer0_init 003A                      __size_of_timer1_init 0050  
                                 __ptext0 09E0                                   __ptext1 12B8  
                                 __ptext2 2D1C                                   __ptext3 29AA  
                                 __ptext4 2B50                                   __ptext5 2956  
                                 __ptext6 2E98                                   __ptext7 0888  
                                 __ptext8 2BFA                                   __ptext9 2B8A  
                                 _inPipes 000A                      __size_of_timer3_init 002C  
                         __size_of_x_to_d 0020                             I2C_LCD_Puts@s 00CD  
             _USBDeferOUTDataStagePackets 0023                                 _T0CONbits 000FD5  
                        _time_change_flag 0087                          _caltime_to_epoch 0000  
                            __size_of_ISR 00B2                                 _T1CONbits 000FCD  
                                 _dpowers FE6D                              ??_USBSuspend 0042  
                 __size_of_RTCC_from_RTCC 001A                                 _T3CONbits 000F79  
                        ___awmod@dividend 00C9                             I2C_LCD_init@i 00D1  
                               _T5CONbits 000F22                           i2_USBDeviceInit 0C78  
                        i2USBDeviceInit@i 0036                                   _uart_rx 0098  
                                 _uart_tx 00A0                        __end_of_USB_CD_Ptr FE7F  
         __size_of_USBCtrlTrfSetupHandler 0082                   __end_of_RTCC_to_caltime 1E2C  
                   __size_of_get_quot_rem 00D4                      end_of_initialization 2886  
                            _getsUSBUSART 11CE                    __size_ofi2_ringbuf_pop 00AC  
                  __size_ofi2_ringbuf_num 00BC                    __size_ofi2_ringbuf_put 00B6  
                            _CTMUCONHbits 000FB3                        __end_of_USB_SD_Ptr FE7D  
                            _CTMUCONLbits 000FB2                       _pBDTEntryEP0OutNext 001E  
                          ??_month_length 00D0                                   memset@c 00CB  
                                 memset@n 00CD                                   memset@p 00CF  
         _dummy_encapsulated_cmd_response 01EE                  ?_USBStdFeatureReqHandler 002E  
                        ?_caltime_to_RTCC 00D2                                ?_I2C_Start 00CB  
                   ??_USBStdSetCfgHandler 0042                           ___lldiv@divisor 00CD  
                    timer3_init@prescaler 00CA                                ?_CDCInitEP 002E  
                         ___lldiv@counter 00D5                         ?_is_usb_available 002E  
                      __end_of_USBSuspend 2DA0                            ??_ringbuf_init 00CF  
                 _USBCtrlEPAllowDataStage 2476                        ??_is_usb_available 00C9  
                                 postdec1 000FE5                                   postdec2 000FDD  
                                 postinc0 000FEE                                   postinc1 000FE6  
                                 postinc2 000FDE                  _USBCtrlEPServiceComplete 0FF0  
              _USBStatusStageEnabledFlag1 0026                _USBStatusStageEnabledFlag2 0027  
                      USBEnableEndpoint@p 0037                                 _UART_init 2E1A  
                               _UART_task 2E3A                          __CFG_DSBOREN$OFF 000000  
                               _RTCC_init 2C60                                 _RTCC_task 2AD8  
               epoch_to_caltime@day_cache 007C                    i2ringbuf_put@asciicode 0038  
                            _get_quot_rem 18B0                 __size_of_epoch_to_caltime 01F2  
                        __CFG_CPUDIV$OSC1 000000                        _BothEP0OutUOWNsSet 0020  
                       __size_of_I2C_Send 0018                         __size_of_I2C_Stop 000A  
                       __size_of_I2C_init 0012                 USBConfigureEndpoint@EPNum 0033  
              ?_USBCtrlEPAllowStatusStage 002E                          ?_RTCC_from_epoch 00F8  
     USER_USB_CALLBACK_EVENT_HANDLER@size 003E                                 _USTATcopy 002D  
                 timer1_init@clock_select 00C9              __end_of_USBTransferOnePacket 1706  
                        __CFG_IOL1WAY$OFF 000000                         putUSBUSART@length 00CB  
                     __CFG_MSSP7B_EN$MSK7 000000                          ?_I2C_LCD_Command 002E  
                          ringbuf_init@rb 00C9                    _USBCtrlTrfSetupHandler 26BC  
                          ringbuf_pop@ret 00D7                             i2_ringbuf_pop 227E  
                           i2_ringbuf_num 1EE8                   ?i2_USBTransferOnePacket 002E  
                           i2_ringbuf_put 2118                     __end_of_USBDeviceInit 09E0  
                          __end_of___lmul 27B4                            __end_of_d_to_x 2DF4  
                       __size_of_UART_ISR 004A                   __end_ofi2_USBDeviceInit 0DB2  
                              ?_UART_init 002E                                 i2memset@c 0030  
                               i2memset@n 0032                                 i2memset@p 0034  
                              ?_UART_task 002E                            __end_of_memset 2C2E  
                              ?_RTCC_init 002E                         __size_of_OSC_init 000E  
                              ?_RTCC_task 002E                          __CFG_DSWDTEN$OFF 000000  
                       _USBBusIsSuspended 0081                            __end_of_x_to_d 2E7A  
                   epoch_to_caltime@month 00F3                       start_initialization 2824  
                        month_length@year 00D4                   ?_USBStdGetStatusHandler 002E  
                             __end_of_ISR 10BA             USBCtrlTrfRxService@byteToRead 002F  
                       __size_of_USB_init 001C                         __size_of_USB_task 008E  
                           ?_I2C_LCD_Puts 00CD                             ?_I2C_LCD_init 002E  
                             _cdc_data_rx 010A                               _cdc_data_tx 014A  
                       __size_ofi2_memset 002C                             UART_ISR@ascii 003D  
            __end_of_USBConfigureEndpoint 25A2                          ?_RTCC_to_caltime 00CB  
         __end_of_USBStdFeatureReqHandler 050A         __end_of_USBCtrlEPAllowStatusStage 1CB2  
                __end_of_USBCtrlEPService 1B24                               ??_I2C_Start 00CC  
               ??_USBCtrlEPAllowDataStage 002F                               ??_CDCInitEP 003A  
                          USBDeviceInit@i 00D1                     __end_of_I2C_LCD_Clear 2EEA  
                  _pBDTEntryEP0OutCurrent 001C                   USBTransferOnePacket@dir 00C9  
                 USBTransferOnePacket@len 00CC            __end_ofi2_USBTransferOnePacket 205E  
                                ??___lmul 00DE                            ?i2_ringbuf_pop 0036  
                          ?i2_ringbuf_num 002E                            ?i2_ringbuf_put 0036  
                     _USBStdGetDscHandler 0DB2                                  ??_d_to_x 00D1  
                       __CFG_ADCSEL$BIT12 000000                               __pdataBANK0 00FB  
                                ??_memset 00CF                                  ??_x_to_d 00C9  
                    __end_of_month_length 1478                            _RTCC_from_RTCC 2EEA  
                  _USBActiveConfiguration 002C            __end_of_USBStdGetStatusHandler 23D4  
                             __pbssCOMRAM 0001                            USB_task@rx_len 00DF  
                     RTCC_to_caltime@dumy 00CD                             __pcstackBANK0 00C9  
            __size_of_USBCtrlTrfInHandler 00BA                            ??_I2C_LCD_Puts 00CF  
                          ??_I2C_LCD_init 00D0                      __end_of_ringbuf_init 29AA  
                    ?_USBStdGetDscHandler 002E                                  ?_USB_ISR 002E  
              __end_of_USBWakeFromSuspend 2C60                           _USBStallHandler 2A92  
                            _pBDTEntryOut 0060                __end_of_USBCheckCDCRequest 227E  
                __end_of_caltime_to_epoch 028E                           millis_timer@cnt 007E  
                __size_of_USBDeviceAttach 0038                          ??_put_string_usb 00D9  
                               __pintcode 1008                             __pmediumconst FE6C  
                                ?___awdiv 00C9                                  ?___awmod 00C9  
                                ?___lldiv 00C9                     _is_usb_available$3421 00C9  
                  __end_of_RTCC_from_RTCC 2F04                           I2C_LCD_Puts@ans 00D0  
                        ?i2_USBDeviceInit 002E                               ??_UART_init 00C9  
              USBCBSendResume@delay_count 0074                               ??_UART_task 00D1  
                             ??_RTCC_init 00C9                               ??_RTCC_task 00F1  
                    _USBTransferOnePacket 162E                                 _main_init 12B8  
                             I2C_Start@rw 00CB                          _epoch_to_caltime 050A  
                                _I2C_Send 2F1E                                  _I2C_Stop 2F56  
                    __CFG_RTCOSC$T1OSCREF 000000                                  _I2C_init 2F36  
                   __end_of_I2C_IdleCheck 2E98                               _PADCFG1bits 000F3C  
            __end_of_USBCtrlTrfOutHandler 2956                     ??_USBStdGetDscHandler 002E  
                             _ep_data_out 0019              __size_of_USBCtrlTrfRxService 010C  
           USBConfigureEndpoint@direction 002E                                 d_to_x@dec 00D1  
                                _CTMUCONH 000FB3                                  _CTMUCONL 000FB2  
                                _CTMUICON 000FB1              __size_of_USBCtrlTrfTxService 00D2  
                ringbuf_init@internal_buf 00CB                                  _LATAbits 000F89  
                                _LATBbits 000F8A                ??_USBCtrlEPServiceComplete 002F  
                                _IPR1bits 000F9F                                  _IPR2bits 000FA2  
                                _PIE1bits 000F9D                                  _PIE2bits 000FA0  
                                _IPR5bits 000F99                                  _PIE5bits 000F91  
                         ??i2_ringbuf_pop 0038                           ??i2_ringbuf_num 0030  
                         ??i2_ringbuf_put 0039                                  i2u352_40 1A00  
                                i2u352_47 19F6                                  _PIR1bits 000F9E  
                                i2u354_40 1A40                                  i2u370_40 0E5E  
                                i2u354_47 1A36                                  i2u370_47 0E54  
                                _PIR2bits 000FA1                                  i2u372_40 0EB6  
                                i2u372_47 0EAC                                  i2u369_40 0E2E  
                                _PIR5bits 000F98                                  i2u369_47 0E24  
              epoch_to_caltime@year_cache 0088                                  i2u581_40 1068  
                                i2u582_48 106A                 USBCtrlEPService@setup_cnt 004A  
                           ??_ringbuf_pop 00D3                             ??_ringbuf_num 00CB  
                           ??_ringbuf_put 00DB                                  _RCONbits 000FD0  
                           ??_putUSBUSART 00CC                                  _UEP0bits 000F26  
              _USBDeferINDataStagePackets 0022                                  _UART_ISR 2A48  
                                _SSP1CON1 000FC6                                  _SSP1CON2 000FC5  
                           ??_timer0_init 00C9                             ??_timer1_init 00CA  
             __size_of_USBCheckStdRequest 00DA                             ??_timer3_init 00C9  
                                _SSP1STAT 000FC7                                  _UCONbits 000F65  
                    _USBConfigureEndpoint 250E                                  _OSC_init 2F48  
                         ?_RTCC_from_RTCC 00EF          __size_of_USBStdFeatureReqHandler 027C  
                              _ADCON0bits 000FC2                                _ADCON1bits 000FC1  
                   ?_USBTransferOnePacket 00C9                          __CFG_SOSCSEL$LOW 000000  
                                _USB_init 2E98                                  _USB_task 25A2  
                              ?_main_init 002E                 __size_of_is_usb_available 001C  
                           ?_CDCTxService 002E                              _RemoteWakeup 0021  
                      I2C_LCD_init@i_3142 00D2                                  i2_memset 2DA0  
                           ringbuf_pop@rb 00D1                             ringbuf_num@rb 00C9  
                 __end_of_USBStallHandler 2AD8                             I2C_Start@adrs 00CC  
                           ringbuf_put@rb 00D8                         ___lmul@multiplier 00D6  
                             _INTCON2bits 000FF1               ??_USBCtrlEPAllowStatusStage 002E  
             __end_of_USBStdSetCfgHandler 1554                          __size_of_USB_ISR 0006  
                    epoch_to_caltime@year 00F2                           main_init@uartrx 0200  
                         main_init@uarttx 02C8                   __size_of_get_string_usb 004E  
                      __end_of_device_dsc FF58                   ?_USBCtrlTrfSetupHandler 002E  
                 USBStdGetStatusHandler@p 002F                                  __Hrparam 0000  
                                __Lrparam 0000                    USBTransferOnePacket@ep 00CD  
                    __end_of_I2C_LCD_Puts 28FA                                  _SetupPkt 000D30  
                           _weekday_3char FF2A                      __end_of_I2C_LCD_init 26BC  
                   __size_of_month_length 00DE                     ?_USBConfigureEndpoint 002E  
                __size_of_caltime_to_RTCC 00D6                         ??_USBDeviceAttach 00C9  
                        __size_of___awdiv 00BE                          __size_of___awmod 00A2  
                       I2C_IdleCheck@mask 00CA                          __size_of___lldiv 00BC  
                     __end_of_ringbuf_pop 1BF0                       __end_of_ringbuf_num 11CE  
                     __end_of_ringbuf_put 18B0                       __end_of_putUSBUSART 2E1A  
                             _line_coding 00C0                            ??_CDCTxService 00D0  
                     __end_of_timer0_init 2B8A                     __size_of_ringbuf_init 0054  
                     __end_of_timer1_init 29FA                       __end_of_timer3_init 2D48  
                 __size_of_USBDeviceTasks 0144                      timer0_init@prescaler 00CA  
                                __ptext10 2E1A                                  __ptext11 2C60  
                                __ptext20 2DF4                                  __ptext12 2F48  
                                __ptext21 29FA                                  __ptext13 2F36  
                                __ptext30 0000                                  __ptext22 2EB4  
                                __ptext14 2630                                  __ptext31 1D70  
                                __ptext23 11CE                                  __ptext15 2ED0  
                                __ptext40 1706                                  __ptext32 2E5A  
                                __ptext24 06FC                                  __ptext16 25A2  
                                __ptext41 2DCC                                  __ptext33 2F04  
                                __ptext25 162E                                  __ptext17 17DC  
                                __ptext42 1CB2                                  __ptext34 050A  
                                __ptext26 2E3A                                  __ptext18 1B24  
                                __ptext51 2F60                                  __ptext43 2D48  
                                __ptext35 139A                                  __ptext27 10E0  
                                __ptext19 2CC0                                  __ptext60 2476  
                                __ptext52 0B34                                  __ptext44 2BC2  
                                __ptext36 23D4                                  __ptext28 2AD8  
                                __ptext61 1554                                  __ptext53 0C78  
                                __ptext45 2890                                  __ptext37 18B0  
                                __ptext29 2EEA                                  __ptext70 1FA4  
                                __ptext62 1478                                  __ptext54 2C2E  
                                __ptext46 2F56                                  __ptext38 273E  
                                __ptext71 2B14                                  __ptext63 2DA0  
                                __ptext55 2D74                                  __ptext47 2C90  
                                __ptext39 1E2C                                  __ptext80 227E  
                                __ptext72 250E                                  __ptext64 232A  
                                __ptext56 2A92                                  __ptext48 2F1E  
                                __ptext81 1EE8                                  __ptext73 28FA  
                                __ptext65 0DB2                                  __ptext57 1A56  
                                __ptext49 2E7A                                  __ptext74 0EE4  
                                __ptext66 028E                                  __ptext58 26BC  
                                __ptext75 1BF0                                  __ptext67 2CEE  
                                __ptext59 0FF0                                  __ptext76 205E  
                                __ptext68 21CE                                  __ptext77 1984  
                                __ptext69 27B4                                  __ptext78 2A48  
                                __ptext79 2118                              _SSP1CON1bits 000FC6  
                            _SSP1CON2bits 000FC5            __end_of_USBCtrlTrfSetupHandler 273E  
                           __size_of_main 0154                         ?_USBCtrlEPService 002E  
                            _month_length 139A                         put_string_usb@len 00D7  
                      ??_USBCtrlEPService 0048                  __size_of_RTCC_from_epoch 001A  
                     _USBCtrlTrfInHandler 205E                                  _outPipes 0001  
                    _USBCtrlTrfOutHandler 28FA                                  int$flags 005B  
                            _ringbuf_init 2956                 _USBCtrlEPAllowStatusStage 1BF0  
                               x_to_d@hex 00CA                              _SSP1STATbits 000FC7  
                  ??_USBTransferOnePacket 00CD                  __size_of_I2C_LCD_Command 0038  
               _USBDeferStatusStagePacket 0024                  CDCTxService@byte_to_send 00D4  
                          main_init@usbrx 0264                            main_init@usbtx 06B0  
                             ??_main_init 00D3                               _OSCTUNEbits 000F9B  
                              _INTCONbits 000FF2                      ringbuf_put@asciicode 00DA  
                    ?_USBCtrlTrfInHandler 002E             USBCtrlTrfTxService@byteToSend 002E  
            I2C_LCD_SetCursor@row_offsets 00D0                                  memset@p1 00C9  
                        ?_USBStallHandler 002E                  USBStdFeatureReqHandler@p 0046  
                        get_quot_rem@quot 00E2                 terminal_task@command_init 0089  
                       RTCC_to_caltime@tm 00CB                                  intlevel2 0000  
                  __size_of_USBDeviceInit 0158   __end_of_USER_USB_CALLBACK_EVENT_HANDLER 2D1C  
__size_of_USER_USB_CALLBACK_EVENT_HANDLER 002E         ??_USER_USB_CALLBACK_EVENT_HANDLER 0040  
        ?_USER_USB_CALLBACK_EVENT_HANDLER 003A           _USER_USB_CALLBACK_EVENT_HANDLER 2CEE  
            i2USBTransferOnePacket@handle 0033                          ___lldiv@dividend 00C9  
                              _RCSTA1bits 000FAC                         ?_caltime_to_epoch 00E2  
                __end_of_epoch_to_caltime 06FC                  __size_of_RTCC_to_caltime 00BC  
                              _OSCCONbits 000FD3                i2USBTransferOnePacket@data 002F  
                      ??_caltime_to_epoch 00E4                    ??_USBConfigureEndpoint 002F  
                   ?_USBCtrlTrfOutHandler 002E                               _ringbuf_pop 1B24  
                             _ringbuf_num 10E0                               _ringbuf_put 17DC  
                             _putUSBUSART 2DF4                       _USBCtrlTrfRxService 0EE4  
                             _timer0_init 2B50                        _USBWakeFromSuspend 2C2E  
                             _timer1_init 29AA                               _timer3_init 2D1C  
                 _USBStdFeatureReqHandler 028E                        _USBCheckCDCRequest 21CE  
                     _USBCtrlTrfTxService 1984                           get_quot_rem@div 00E4  
                         get_quot_rem@num 00E6                                _RTCCFGbits 000F3F  
                     ?_USBWakeFromSuspend 002E                          _is_usb_available 2EB4  
                        ___lldiv@quotient 00D1                         caltime_to_RTCC@tm 00D2  
                       ??_caltime_to_RTCC 00D4                     ??_USBCtrlTrfInHandler 002F  
                   _USBAlternateInterface 00C7                       ?_USBCheckCDCRequest 002E  
               i2USBTransferOnePacket@dir 002E                 i2USBTransferOnePacket@len 0031  
                     USBEnableEndpoint@ep 0039                           _endpoint_number 002A  
                  __size_of_I2C_LCD_Clear 001A                      ?_USBCtrlTrfRxService 002E  
         epoch_to_caltime@day_since_epoch 00EE                             ?_getsUSBUSART 00D0  
                ?_USBCtrlEPAllowDataStage 002E                            _get_string_usb 29FA  
                    ?_USBCtrlTrfTxService 002E              _USBStatusStageTimeoutCounter 0028  
                   __size_of_I2C_LCD_Puts 006A                     __size_of_I2C_LCD_init 008C  
                    ??_USBWakeFromSuspend 0042                USBTransferOnePacket@handle 00CE  
                    __end_of_CDCTxService 0888                      ??_USBCheckCDCRequest 002E  
                              _USB_CD_Ptr FE7D                          ??_RTCC_from_RTCC 00F1  
