

Microchip Technology PIC LITE Macro Assembler V1.35 build -356382666 
                                                                                               Mon Nov 16 18:45:16 2015

Microchip Technology Omniscient Code Generator v1.35 (Free mode) build 201507080246
     1                           	processor	16F1827
     2                           	opt	pw 120
     3                           	opt	lm
     4                           	psect	cinit,global,class=CODE,merge=1,delta=2
     5                           	psect	bssBANK0,global,class=BANK0,space=1,delta=1
     6                           	psect	bssBANK1,global,class=BANK1,space=1,delta=1
     7                           	psect	clrtext,global,class=CODE,delta=2
     8                           	psect	cstackBANK1,global,class=BANK1,space=1,delta=1
     9                           	psect	cstackCOMMON,global,class=COMMON,space=1,delta=1
    10                           	psect	cstackBANK0,global,class=BANK0,space=1,delta=1
    11                           	psect	maintext,global,class=CODE,merge=1,split=1,delta=2
    12                           	psect	text1,local,class=CODE,merge=1,delta=2
    13                           	psect	text2,local,class=CODE,merge=1,delta=2
    14                           	psect	text3,local,class=CODE,merge=1,delta=2
    15                           	psect	text4,local,class=CODE,merge=1,delta=2
    16                           	psect	text5,local,class=CODE,merge=1,delta=2
    17                           	psect	intentry,global,class=CODE,delta=2
    18                           	psect	text7,local,class=CODE,merge=1,delta=2
    19                           	psect	text8,local,class=CODE,merge=1,delta=2
    20                           	psect	text9,local,class=CODE,merge=1,delta=2
    21                           	psect	text10,local,class=CODE,merge=1,delta=2
    22                           	psect	text11,local,class=CODE,merge=1,delta=2
    23                           	psect	text12,local,class=CODE,merge=1,delta=2
    24                           	psect	text13,local,class=CODE,merge=1,delta=2
    25                           	psect	text14,local,class=CODE,merge=1,delta=2
    26                           	psect	text15,local,class=CODE,merge=1,delta=2
    27                           	psect	text16,local,class=CODE,merge=1,delta=2
    28                           	psect	text17,local,class=CODE,merge=1,delta=2
    29                           	psect	text18,local,class=CODE,merge=1,delta=2
    30                           	psect	text19,local,class=CODE,merge=1,delta=2
    31                           	dabs	1,0x7E,2
    32  0000                     	;# 
    33  0001                     	;# 
    34  0002                     	;# 
    35  0003                     	;# 
    36  0004                     	;# 
    37  0005                     	;# 
    38  0006                     	;# 
    39  0007                     	;# 
    40  0008                     	;# 
    41  0009                     	;# 
    42  000A                     	;# 
    43  000B                     	;# 
    44  000C                     	;# 
    45  000D                     	;# 
    46  0011                     	;# 
    47  0012                     	;# 
    48  0013                     	;# 
    49  0014                     	;# 
    50  0015                     	;# 
    51  0016                     	;# 
    52  0016                     	;# 
    53  0017                     	;# 
    54  0018                     	;# 
    55  0019                     	;# 
    56  001A                     	;# 
    57  001B                     	;# 
    58  001C                     	;# 
    59  001E                     	;# 
    60  001F                     	;# 
    61  008C                     	;# 
    62  008D                     	;# 
    63  0091                     	;# 
    64  0092                     	;# 
    65  0093                     	;# 
    66  0094                     	;# 
    67  0095                     	;# 
    68  0096                     	;# 
    69  0097                     	;# 
    70  0098                     	;# 
    71  0099                     	;# 
    72  009A                     	;# 
    73  009B                     	;# 
    74  009B                     	;# 
    75  009C                     	;# 
    76  009D                     	;# 
    77  009E                     	;# 
    78  010C                     	;# 
    79  010D                     	;# 
    80  0111                     	;# 
    81  0112                     	;# 
    82  0113                     	;# 
    83  0114                     	;# 
    84  0115                     	;# 
    85  0116                     	;# 
    86  0117                     	;# 
    87  0118                     	;# 
    88  0119                     	;# 
    89  011A                     	;# 
    90  011B                     	;# 
    91  011D                     	;# 
    92  011E                     	;# 
    93  018C                     	;# 
    94  018D                     	;# 
    95  0191                     	;# 
    96  0191                     	;# 
    97  0192                     	;# 
    98  0193                     	;# 
    99  0193                     	;# 
   100  0193                     	;# 
   101  0194                     	;# 
   102  0195                     	;# 
   103  0196                     	;# 
   104  0199                     	;# 
   105  019A                     	;# 
   106  019B                     	;# 
   107  019B                     	;# 
   108  019B                     	;# 
   109  019B                     	;# 
   110  019C                     	;# 
   111  019C                     	;# 
   112  019D                     	;# 
   113  019E                     	;# 
   114  019F                     	;# 
   115  020C                     	;# 
   116  020D                     	;# 
   117  0211                     	;# 
   118  0211                     	;# 
   119  0212                     	;# 
   120  0212                     	;# 
   121  0213                     	;# 
   122  0213                     	;# 
   123  0214                     	;# 
   124  0214                     	;# 
   125  0215                     	;# 
   126  0215                     	;# 
   127  0215                     	;# 
   128  0216                     	;# 
   129  0216                     	;# 
   130  0217                     	;# 
   131  0217                     	;# 
   132  0219                     	;# 
   133  021A                     	;# 
   134  021B                     	;# 
   135  021C                     	;# 
   136  021D                     	;# 
   137  021E                     	;# 
   138  021F                     	;# 
   139  0291                     	;# 
   140  0291                     	;# 
   141  0292                     	;# 
   142  0293                     	;# 
   143  0294                     	;# 
   144  0295                     	;# 
   145  0295                     	;# 
   146  0296                     	;# 
   147  0298                     	;# 
   148  0298                     	;# 
   149  0299                     	;# 
   150  029A                     	;# 
   151  029B                     	;# 
   152  029C                     	;# 
   153  029C                     	;# 
   154  029D                     	;# 
   155  029E                     	;# 
   156  029E                     	;# 
   157  0311                     	;# 
   158  0311                     	;# 
   159  0312                     	;# 
   160  0313                     	;# 
   161  0318                     	;# 
   162  0318                     	;# 
   163  0319                     	;# 
   164  031A                     	;# 
   165  0394                     	;# 
   166  0395                     	;# 
   167  0396                     	;# 
   168  039A                     	;# 
   169  039C                     	;# 
   170  039D                     	;# 
   171  039E                     	;# 
   172  039F                     	;# 
   173  0415                     	;# 
   174  0416                     	;# 
   175  0417                     	;# 
   176  041C                     	;# 
   177  041D                     	;# 
   178  041E                     	;# 
   179  0FE4                     	;# 
   180  0FE5                     	;# 
   181  0FE6                     	;# 
   182  0FE7                     	;# 
   183  0FE8                     	;# 
   184  0FE9                     	;# 
   185  0FEA                     	;# 
   186  0FEB                     	;# 
   187  0FED                     	;# 
   188  0FEE                     	;# 
   189  0FEF                     	;# 
   190  000B                     _INTCONbits	set	11
   191  0011                     _PIR1bits	set	17
   192  000C                     _PORTA	set	12
   193  000C                     _PORTAbits	set	12
   194  000D                     _PORTBbits	set	13
   195  0018                     _T1CON	set	24
   196  0017                     _TMR1H	set	23
   197  0016                     _TMR1L	set	22
   198  009B                     _ADRES	set	155
   199  009D                     _ADCON0bits	set	157
   200  009E                     _ADCON1	set	158
   201  0095                     _OPTION_REG	set	149
   202  0099                     _OSCCON	set	153
   203  0091                     _PIE1bits	set	145
   204  008C                     _TRISA	set	140
   205  008D                     _TRISB	set	141
   206  0117                     _FVRCON	set	279
   207  08EF                     _RXDTSEL	set	2287
   208  08F0                     _TXCKSEL	set	2288
   209  018C                     _ANSELA	set	396
   210  018D                     _ANSELB	set	397
   211  019D                     _RCSTA	set	413
   212  019C                     _SPBRGH	set	412
   213  019B                     _SPBRGL	set	411
   214  019A                     _TXREG	set	410
   215  019E                     _TXSTA	set	414
   216  0CFB                     _BRG16	set	3323
   217  0CEF                     _SPEN	set	3311
   218                           
   219                           ; #config settings
   220  0000                     
   221                           	psect	cinit
   222  00A6                     start_initialization:	
   223  00A6                     __initialization:	
   224                           
   225                           ; Clear objects allocated to BANK0
   226  00A6  302F               	movlw	low __pbssBANK0
   227  00A7  0084               	movwf	4
   228  00A8  3000               	movlw	high __pbssBANK0
   229  00A9  0085               	movwf	5
   230  00AA  300E               	movlw	14
   231  00AB  3185  2574  3180   	fcall	clear_ram0
   232                           
   233                           ; Clear objects allocated to BANK1
   234  00AE  30D3               	movlw	low __pbssBANK1
   235  00AF  0084               	movwf	4
   236  00B0  3000               	movlw	high __pbssBANK1
   237  00B1  0085               	movwf	5
   238  00B2  300A               	movlw	10
   239  00B3  3185  2574         	fcall	clear_ram0
   240  00B5                     end_of_initialization:	
   241                           ;End of C runtime variable initialization code
   242                           
   243  00B5                     __end_of__initialization:	
   244  00B5  107E               	bcf	int$flags,0	;clear compiler interrupt flag (level 1)
   245  00B6  0020               	movlb	0
   246  00B7  3182  2AA9         	ljmp	_main	;jump to C main() function
   247                           
   248                           	psect	bssBANK0
   249  002F                     __pbssBANK0:	
   250  002F                     _v:	
   251  002F                     	ds	6
   252  0035                     _cnt:	
   253  0035                     	ds	3
   254  0038                     _cntf:	
   255  0038                     	ds	3
   256  003B                     _cnt0:	
   257  003B                     	ds	2
   258                           
   259                           	psect	bssBANK1
   260  00D3                     __pbssBANK1:	
   261  00D3                     _cut:	
   262  00D3                     	ds	6
   263  00D9                     _tx_buf:	
   264  00D9                     	ds	4
   265                           
   266                           	psect	clrtext
   267  0574                     clear_ram0:	
   268                           ;	Called with FSR0 containing the base address, and
   269                           ;	WREG with the size to clear
   270                           
   271  0574  0064               	clrwdt	;clear the watchdog before getting into this loop
   272  0575                     clrloop0:	
   273  0575  0180               	clrf	0	;clear RAM location pointed to by FSR
   274  0576  3101               	addfsr 0,1
   275  0577  0B89               	decfsz	9,f	;Have we reached the end of clearing yet?
   276  0578  2D75               	goto	clrloop0	;have we reached the end yet?
   277  0579  3400               	retlw	0	;all done for this memory range, return
   278                           
   279                           	psect	cstackBANK1
   280  00A0                     __pcstackBANK1:	
   281  00A0                     main@ringbuf:	
   282                           
   283                           ; 50 bytes @ 0x0
   284  00A0                     	ds	50
   285  00D2                     main@i:	
   286                           
   287                           ; 1 bytes @ 0x32
   288  00D2                     	ds	1
   289                           
   290                           	psect	cstackCOMMON
   291  0070                     __pcstackCOMMON:	
   292  0070                     ??_ringbuf_num:	
   293  0070                     ??_ringbuf_pop:	
   294                           ; 0 bytes @ 0x0
   295                           
   296  0070                     ?_display:	
   297                           ; 0 bytes @ 0x0
   298                           
   299  0070                     ?_lchika:	
   300                           ; 0 bytes @ 0x0
   301                           
   302  0070                     ?_tx_send:	
   303                           ; 0 bytes @ 0x0
   304                           
   305  0070                     ?_ringbuf_put:	
   306                           ; 0 bytes @ 0x0
   307                           
   308  0070                     ?_isr:	
   309                           ; 0 bytes @ 0x0
   310                           
   311  0070                     ?_main_init:	
   312                           ; 0 bytes @ 0x0
   313                           
   314  0070                     ?i1_OUT:	
   315                           ; 0 bytes @ 0x0
   316                           
   317  0070                     ?i1_LED:	
   318                           ; 0 bytes @ 0x0
   319                           
   320  0070                     ?_ringbuf_num:	
   321                           ; 0 bytes @ 0x0
   322                           
   323  0070                     ?_ringbuf_pop:	
   324                           ; 1 bytes @ 0x0
   325                           
   326  0070                     ?_SW:	
   327                           ; 1 bytes @ 0x0
   328                           
   329  0070                     ?_adc:	
   330                           ; 1 bytes @ 0x0
   331                           
   332  0070                     ?_main:	
   333                           ; 2 bytes @ 0x0
   334                           
   335  0070                     ?___awdiv:	
   336                           ; 2 bytes @ 0x0
   337                           
   338  0070                     ?___lwmod:	
   339                           ; 2 bytes @ 0x0
   340                           
   341  0070                     ringbuf_put@asciicode:	
   342                           ; 2 bytes @ 0x0
   343                           
   344  0070                     i1OUT@value:	
   345                           ; 1 bytes @ 0x0
   346                           
   347  0070                     i1LED@value:	
   348                           ; 1 bytes @ 0x0
   349                           
   350  0070                     ___awdiv@divisor:	
   351                           ; 1 bytes @ 0x0
   352                           
   353  0070                     ___lwmod@divisor:	
   354                           ; 2 bytes @ 0x0
   355                           
   356                           
   357                           ; 2 bytes @ 0x0
   358  0070                     	ds	1
   359  0071                     ??_ringbuf_put:	
   360  0071                     ??i1_OUT:	
   361                           ; 0 bytes @ 0x1
   362                           
   363  0071                     ??i1_LED:	
   364                           ; 0 bytes @ 0x1
   365                           
   366  0071                     ringbuf_num@rb:	
   367                           ; 0 bytes @ 0x1
   368                           
   369  0071                     i1OUT@b:	
   370                           ; 1 bytes @ 0x1
   371                           
   372  0071                     i1LED@b:	
   373                           ; 1 bytes @ 0x1
   374                           
   375                           
   376                           ; 1 bytes @ 0x1
   377  0071                     	ds	1
   378  0072                     ??_adc:	
   379  0072                     ringbuf_pop@ret:	
   380                           ; 0 bytes @ 0x2
   381                           
   382  0072                     ___awdiv@dividend:	
   383                           ; 1 bytes @ 0x2
   384                           
   385  0072                     ___lwmod@dividend:	
   386                           ; 2 bytes @ 0x2
   387                           
   388                           
   389                           ; 2 bytes @ 0x2
   390  0072                     	ds	1
   391  0073                     ringbuf_put@rb:	
   392  0073                     ringbuf_pop@rb:	
   393                           ; 1 bytes @ 0x3
   394                           
   395  0073                     adc@ch:	
   396                           ; 1 bytes @ 0x3
   397                           
   398                           
   399                           ; 1 bytes @ 0x3
   400  0073                     	ds	1
   401  0074                     ??_tx_send:	
   402  0074                     ??___awdiv:	
   403                           ; 0 bytes @ 0x4
   404                           
   405  0074                     ??___lwmod:	
   406                           ; 0 bytes @ 0x4
   407                           
   408  0074                     ?___wmul:	
   409                           ; 0 bytes @ 0x4
   410                           
   411  0074                     ___wmul@multiplier:	
   412                           ; 2 bytes @ 0x4
   413                           
   414                           
   415                           ; 2 bytes @ 0x4
   416  0074                     	ds	1
   417  0075                     tx_send@asciicode:	
   418  0075                     ___awdiv@counter:	
   419                           ; 1 bytes @ 0x5
   420                           
   421  0075                     ___lwmod@counter:	
   422                           ; 1 bytes @ 0x5
   423                           
   424                           
   425                           ; 1 bytes @ 0x5
   426  0075                     	ds	1
   427  0076                     ?___lwdiv:	
   428  0076                     ___awdiv@sign:	
   429                           ; 2 bytes @ 0x6
   430                           
   431  0076                     ___wmul@multiplicand:	
   432                           ; 1 bytes @ 0x6
   433                           
   434  0076                     ___lwdiv@divisor:	
   435                           ; 2 bytes @ 0x6
   436                           
   437                           
   438                           ; 2 bytes @ 0x6
   439  0076                     	ds	1
   440  0077                     ___awdiv@quotient:	
   441                           
   442                           ; 2 bytes @ 0x7
   443  0077                     	ds	1
   444  0078                     ??___wmul:	
   445  0078                     ___wmul@product:	
   446                           ; 0 bytes @ 0x8
   447                           
   448  0078                     ___lwdiv@dividend:	
   449                           ; 2 bytes @ 0x8
   450                           
   451                           
   452                           ; 2 bytes @ 0x8
   453  0078                     	ds	2
   454  007A                     ??___lwdiv:	
   455                           
   456                           ; 0 bytes @ 0xA
   457  007A                     	ds	1
   458  007B                     ___lwdiv@quotient:	
   459                           
   460                           ; 2 bytes @ 0xB
   461  007B                     	ds	2
   462  007D                     ___lwdiv@counter:	
   463                           
   464                           ; 1 bytes @ 0xD
   465  007D                     	ds	1
   466  007E                     ??_display:	
   467                           
   468                           	psect	cstackBANK0
   469  0020                     __pcstackBANK0:	
   470                           ; 0 bytes @ 0xE
   471                           
   472  0020                     ??_lchika:	
   473                           
   474                           ; 0 bytes @ 0x0
   475  0020                     	ds	4
   476  0024                     lchika@i:	
   477                           
   478                           ; 1 bytes @ 0x4
   479  0024                     	ds	1
   480  0025                     ??_isr:	
   481                           
   482                           ; 0 bytes @ 0x5
   483  0025                     	ds	3
   484  0028                     isr@i:	
   485                           
   486                           ; 1 bytes @ 0x8
   487  0028                     	ds	1
   488  0029                     ?_OUT:	
   489  0029                     ?_LED:	
   490                           ; 0 bytes @ 0x9
   491                           
   492  0029                     ?_init_ringbuf:	
   493                           ; 0 bytes @ 0x9
   494                           
   495  0029                     ??_SW:	
   496                           ; 0 bytes @ 0x9
   497                           
   498  0029                     ??_main_init:	
   499                           ; 0 bytes @ 0x9
   500                           
   501  0029                     init_ringbuf@internal_buf:	
   502                           ; 0 bytes @ 0x9
   503                           
   504  0029                     OUT@value:	
   505                           ; 1 bytes @ 0x9
   506                           
   507  0029                     LED@value:	
   508                           ; 1 bytes @ 0x9
   509                           
   510                           
   511                           ; 1 bytes @ 0x9
   512  0029                     	ds	1
   513  002A                     ??_OUT:	
   514  002A                     ??_LED:	
   515                           ; 0 bytes @ 0xA
   516                           
   517  002A                     init_ringbuf@bufsize:	
   518                           ; 0 bytes @ 0xA
   519                           
   520  002A                     OUT@b:	
   521                           ; 1 bytes @ 0xA
   522                           
   523  002A                     LED@b:	
   524                           ; 1 bytes @ 0xA
   525                           
   526  002A                     SW@b:	
   527                           ; 1 bytes @ 0xA
   528                           
   529                           
   530                           ; 1 bytes @ 0xA
   531  002A                     	ds	1
   532  002B                     ??_init_ringbuf:	
   533  002B                     SW@temp:	
   534                           ; 0 bytes @ 0xB
   535                           
   536                           
   537                           ; 1 bytes @ 0xB
   538  002B                     	ds	1
   539  002C                     init_ringbuf@rb:	
   540                           
   541                           ; 1 bytes @ 0xC
   542  002C                     	ds	1
   543  002D                     ??_main:	
   544                           
   545                           ; 0 bytes @ 0xD
   546  002D                     	ds	2
   547                           
   548                           	psect	maintext
   549  02A9                     __pmaintext:	
   550 ;;
   551 ;;Main: autosize = 0, tempsize = 2, incstack = 0, save=0
   552 ;;
   553 ;; *************** function _main *****************
   554 ;; Defined at:
   555 ;;		line 290 in file "PIC16F1827-ChargeStation3-01.c"
   556 ;; Parameters:    Size  Location     Type
   557 ;;		None
   558 ;; Auto vars:     Size  Location     Type
   559 ;;  ringbuf        50    0[BANK1 ] unsigned char [50]
   560 ;;  i               1   50[BANK1 ] unsigned char 
   561 ;; Return value:  Size  Location     Type
   562 ;;                  2  180[None  ] int 
   563 ;; Registers used:
   564 ;;		wreg, fsr0l, fsr0h, fsr1l, fsr1h, status,2, status,0, pclath, cstack
   565 ;; Tracked objects:
   566 ;;		On entry : B1F/0
   567 ;;		On exit  : 0/0
   568 ;;		Unchanged: 0/0
   569 ;; Data sizes:     COMMON   BANK0   BANK1   BANK2   BANK3   BANK4
   570 ;;      Params:         0       0       0       0       0       0
   571 ;;      Locals:         0       0      51       0       0       0
   572 ;;      Temps:          0       2       0       0       0       0
   573 ;;      Totals:         0       2      51       0       0       0
   574 ;;Total ram usage:       53 bytes
   575 ;; Hardware stack levels required when called:    5
   576 ;; This function calls:
   577 ;;		_LED
   578 ;;		_OUT
   579 ;;		_SW
   580 ;;		_init_ringbuf
   581 ;;		_main_init
   582 ;; This function is called by:
   583 ;;		Startup code after reset
   584 ;; This function uses a non-reentrant model
   585 ;;
   586                           
   587                           
   588                           ;psect for function _main
   589  02A9                     _main:	
   590                           
   591                           ;PIC16F1827-ChargeStation3-01.c: 291: main_init();
   592                           
   593                           ;incstack = 0
   594                           ; Regs used in _main: [wreg-fsr1h+status,2+status,0+pclath+cstack]
   595  02A9  3183  2394  3182   	fcall	_main_init
   596                           
   597                           ;PIC16F1827-ChargeStation3-01.c: 293: OUT(0, 1);
   598  02AC  0020               	movlb	0	; select bank0
   599  02AD  01A9               	clrf	OUT@value
   600  02AE  0AA9               	incf	OUT@value,f
   601  02AF  3000               	movlw	0
   602  02B0  3184  2498  3182   	fcall	_OUT
   603                           
   604                           ;PIC16F1827-ChargeStation3-01.c: 294: OUT(1, 1);
   605  02B3  0020               	movlb	0	; select bank0
   606  02B4  01A9               	clrf	OUT@value
   607  02B5  0AA9               	incf	OUT@value,f
   608  02B6  3001               	movlw	1
   609  02B7  3184  2498  3182   	fcall	_OUT
   610                           
   611                           ;PIC16F1827-ChargeStation3-01.c: 295: OUT(2, 1);
   612  02BA  0020               	movlb	0	; select bank0
   613  02BB  01A9               	clrf	OUT@value
   614  02BC  0AA9               	incf	OUT@value,f
   615  02BD  3002               	movlw	2
   616  02BE  3184  2498  3182   	fcall	_OUT
   617                           
   618                           ;PIC16F1827-ChargeStation3-01.c: 296: LED(0, 1);
   619  02C1  0020               	movlb	0	; select bank0
   620  02C2  01A9               	clrf	LED@value
   621  02C3  0AA9               	incf	LED@value,f
   622  02C4  3000               	movlw	0
   623  02C5  3184  24DF  3182   	fcall	_LED
   624                           
   625                           ;PIC16F1827-ChargeStation3-01.c: 297: LED(1, 1);
   626  02C8  0020               	movlb	0	; select bank0
   627  02C9  01A9               	clrf	LED@value
   628  02CA  0AA9               	incf	LED@value,f
   629  02CB  3001               	movlw	1
   630  02CC  3184  24DF  3182   	fcall	_LED
   631                           
   632                           ;PIC16F1827-ChargeStation3-01.c: 298: LED(2, 1);
   633  02CF  0020               	movlb	0	; select bank0
   634  02D0  01A9               	clrf	LED@value
   635  02D1  0AA9               	incf	LED@value,f
   636  02D2  3002               	movlw	2
   637  02D3  3184  24DF  3182   	fcall	_LED
   638                           
   639                           ;PIC16F1827-ChargeStation3-01.c: 300: uint8_t ringbuf[50];
   640                           ;PIC16F1827-ChargeStation3-01.c: 301: init_ringbuf(&tx_buf, ringbuf, sizeof (ringbuf));
   641  02D6  30A0               	movlw	(low (main@ringbuf| 0))& (0+255)
   642  02D7  0020               	movlb	0	; select bank0
   643  02D8  00AD               	movwf	??_main
   644  02D9  082D               	movf	??_main,w
   645  02DA  00A9               	movwf	init_ringbuf@internal_buf
   646  02DB  3032               	movlw	50
   647  02DC  00AE               	movwf	??_main+1
   648  02DD  082E               	movf	??_main+1,w
   649  02DE  00AA               	movwf	init_ringbuf@bufsize
   650  02DF  30D9               	movlw	(low (_tx_buf| 0))& (0+255)
   651  02E0  3185  2500  3182   	fcall	_init_ringbuf
   652  02E3                     l1561:	
   653                           ;PIC16F1827-ChargeStation3-01.c: 303: uint8_t i;
   654                           ;PIC16F1827-ChargeStation3-01.c: 305: while (1) {
   655                           
   656                           
   657                           ;PIC16F1827-ChargeStation3-01.c: 306: for (i = 0; i < 3; i++) {
   658  02E3  0021               	movlb	1	; select bank1
   659  02E4  01D2               	clrf	main@i^(0+128)
   660  02E5                     L1:	
   661  02E5  3003               	movlw	3
   662  02E6  0252               	subwf	main@i^(0+128),w
   663  02E7  1803               	btfsc	3,0
   664  02E8  2AE3               	goto	l1561
   665                           
   666                           ;PIC16F1827-ChargeStation3-01.c: 307: if (SW(i)) {
   667  02E9  0852               	movf	main@i^(0+128),w
   668  02EA  3185  2551  3182   	fcall	_SW
   669  02ED  3A00               	xorlw	0
   670  02EE  1903               	skipnz
   671  02EF  2B08               	goto	l1573
   672                           
   673                           ;PIC16F1827-ChargeStation3-01.c: 308: OUT(i, 1);
   674  02F0  0020               	movlb	0	; select bank0
   675  02F1  01A9               	clrf	OUT@value
   676  02F2  0AA9               	incf	OUT@value,f
   677  02F3  0021               	movlb	1	; select bank1
   678  02F4  0852               	movf	main@i^(0+128),w
   679  02F5  3184  2498  3182   	fcall	_OUT
   680                           
   681                           ;PIC16F1827-ChargeStation3-01.c: 309: LED(i, 1);
   682  02F8  0020               	movlb	0	; select bank0
   683  02F9  01A9               	clrf	LED@value
   684  02FA  0AA9               	incf	LED@value,f
   685  02FB  0021               	movlb	1	; select bank1
   686  02FC  0852               	movf	main@i^(0+128),w
   687  02FD  3184  24DF  3182   	fcall	_LED
   688                           
   689                           ;PIC16F1827-ChargeStation3-01.c: 310: cut[i] = 0;
   690  0300  0021               	movlb	1	; select bank1
   691  0301  3552               	lslf	main@i^(0+128),w
   692  0302  3ED3               	addlw	(low (_cut| 0))& (0+255)
   693  0303  0086               	movwf	6
   694  0304  0187               	clrf	7
   695  0305  3000               	movlw	0
   696  0306  3FC0               	movwi [0]fsr1
   697  0307  3FC1               	movwi [1]fsr1
   698  0308                     l1573:	
   699  0308  3001               	movlw	1
   700  0309  0020               	movlb	0	; select bank0
   701  030A  00AD               	movwf	??_main
   702  030B  082D               	movf	??_main,w
   703  030C  0021               	movlb	1	; select bank1
   704  030D  07D2               	addwf	main@i^(0+128),f
   705  030E  2AE5               	goto	L1
   706  030F                     __end_of_main:	
   707                           ;PIC16F1827-ChargeStation3-01.c: 311: }
   708                           ;PIC16F1827-ChargeStation3-01.c: 312: }
   709                           ;PIC16F1827-ChargeStation3-01.c: 313: }
   710                           ;PIC16F1827-ChargeStation3-01.c: 314: return 0;
   711                           ;	Return value of _main is never used
   712                           
   713                           
   714                           	psect	text1
   715  0394                     __ptext1:	
   716 ;; *************** function _main_init *****************
   717 ;; Defined at:
   718 ;;		line 260 in file "PIC16F1827-ChargeStation3-01.c"
   719 ;; Parameters:    Size  Location     Type
   720 ;;		None
   721 ;; Auto vars:     Size  Location     Type
   722 ;;		None
   723 ;; Return value:  Size  Location     Type
   724 ;;		None               void
   725 ;; Registers used:
   726 ;;		wreg, status,2
   727 ;; Tracked objects:
   728 ;;		On entry : 0/0
   729 ;;		On exit  : 0/0
   730 ;;		Unchanged: 0/0
   731 ;; Data sizes:     COMMON   BANK0   BANK1   BANK2   BANK3   BANK4
   732 ;;      Params:         0       0       0       0       0       0
   733 ;;      Locals:         0       0       0       0       0       0
   734 ;;      Temps:          0       0       0       0       0       0
   735 ;;      Totals:         0       0       0       0       0       0
   736 ;;Total ram usage:        0 bytes
   737 ;; Hardware stack levels used:    1
   738 ;; Hardware stack levels required when called:    4
   739 ;; This function calls:
   740 ;;		Nothing
   741 ;; This function is called by:
   742 ;;		_main
   743 ;; This function uses a non-reentrant model
   744 ;;
   745                           
   746                           
   747                           ;psect for function _main_init
   748  0394                     _main_init:	
   749                           
   750                           ;PIC16F1827-ChargeStation3-01.c: 261: OSCCON = 0x70;
   751                           
   752                           ;incstack = 0
   753                           ; Regs used in _main_init: [wreg+status,2]
   754  0394  3070               	movlw	112
   755  0395  0021               	movlb	1	; select bank1
   756  0396  0099               	movwf	25	;volatile
   757                           
   758                           ;PIC16F1827-ChargeStation3-01.c: 262: TRISA = 0x3F;
   759  0397  303F               	movlw	63
   760  0398  008C               	movwf	12	;volatile
   761                           
   762                           ;PIC16F1827-ChargeStation3-01.c: 263: TRISB = 0x02;
   763  0399  3002               	movlw	2
   764  039A  008D               	movwf	13	;volatile
   765                           
   766                           ;PIC16F1827-ChargeStation3-01.c: 264: ANSELA = 0x07;
   767  039B  3007               	movlw	7
   768  039C  0023               	movlb	3	; select bank3
   769  039D  008C               	movwf	12	;volatile
   770                           
   771                           ;PIC16F1827-ChargeStation3-01.c: 265: ANSELB = 0x00;
   772  039E  018D               	clrf	13	;volatile
   773                           
   774                           ;PIC16F1827-ChargeStation3-01.c: 266: ADCON1 = 0x93;
   775  039F  3093               	movlw	147
   776  03A0  0021               	movlb	1	; select bank1
   777  03A1  009E               	movwf	30	;volatile
   778                           
   779                           ;PIC16F1827-ChargeStation3-01.c: 267: FVRCON = 0x83;
   780  03A2  3083               	movlw	131
   781  03A3  0022               	movlb	2	; select bank2
   782  03A4  0097               	movwf	23	;volatile
   783                           
   784                           ;PIC16F1827-ChargeStation3-01.c: 269: SPEN = 1;
   785  03A5  0023               	movlb	3	; select bank3
   786  03A6  179D               	bsf	29,7	;volatile
   787                           
   788                           ;PIC16F1827-ChargeStation3-01.c: 270: TXCKSEL = 0;
   789  03A7  0022               	movlb	2	; select bank2
   790  03A8  101E               	bcf	30,0	;volatile
   791                           
   792                           ;PIC16F1827-ChargeStation3-01.c: 271: RXDTSEL = 0;
   793  03A9  139D               	bcf	29,7	;volatile
   794                           
   795                           ;PIC16F1827-ChargeStation3-01.c: 272: RCSTA = 0X90;
   796  03AA  3090               	movlw	144
   797  03AB  0023               	movlb	3	; select bank3
   798  03AC  009D               	movwf	29	;volatile
   799                           
   800                           ;PIC16F1827-ChargeStation3-01.c: 273: BRG16 = 0;
   801  03AD  119F               	bcf	31,3	;volatile
   802                           
   803                           ;PIC16F1827-ChargeStation3-01.c: 274: SPBRGH = 0;
   804  03AE  019C               	clrf	28	;volatile
   805                           
   806                           ;PIC16F1827-ChargeStation3-01.c: 275: SPBRGL = 207;
   807  03AF  30CF               	movlw	207
   808  03B0  009B               	movwf	27	;volatile
   809                           
   810                           ;PIC16F1827-ChargeStation3-01.c: 276: TXSTA = 0X24;
   811  03B1  3024               	movlw	36
   812  03B2  009E               	movwf	30	;volatile
   813                           
   814                           ;PIC16F1827-ChargeStation3-01.c: 278: OPTION_REG = 0b10010011;
   815  03B3  3093               	movlw	147
   816  03B4  0021               	movlb	1	; select bank1
   817  03B5  0095               	movwf	21	;volatile
   818                           
   819                           ;PIC16F1827-ChargeStation3-01.c: 279: INTCONbits.TMR0IE = 1;
   820  03B6  168B               	bsf	11,5	;volatile
   821                           
   822                           ;PIC16F1827-ChargeStation3-01.c: 281: T1CON = 0x21;
   823  03B7  3021               	movlw	33
   824  03B8  0020               	movlb	0	; select bank0
   825  03B9  0098               	movwf	24	;volatile
   826                           
   827                           ;PIC16F1827-ChargeStation3-01.c: 282: TMR1H = 0x00;
   828  03BA  0197               	clrf	23	;volatile
   829                           
   830                           ;PIC16F1827-ChargeStation3-01.c: 283: TMR1L = 0x00;
   831  03BB  0196               	clrf	22	;volatile
   832                           
   833                           ;PIC16F1827-ChargeStation3-01.c: 284: PIE1bits.TMR1IE = 1;
   834  03BC  0021               	movlb	1	; select bank1
   835  03BD  1411               	bsf	17,0	;volatile
   836                           
   837                           ;PIC16F1827-ChargeStation3-01.c: 286: INTCONbits.PEIE = 1;
   838  03BE  170B               	bsf	11,6	;volatile
   839                           
   840                           ;PIC16F1827-ChargeStation3-01.c: 287: INTCONbits.GIE = 1;
   841  03BF  178B               	bsf	11,7	;volatile
   842  03C0  0008               	return
   843  03C1                     __end_of_main_init:	
   844                           
   845                           	psect	text2
   846  0500                     __ptext2:	
   847 ;; *************** function _init_ringbuf *****************
   848 ;; Defined at:
   849 ;;		line 185 in file "PIC16F1827-ChargeStation3-01.c"
   850 ;; Parameters:    Size  Location     Type
   851 ;;  rb              1    wreg     PTR struct ringbuf
   852 ;;		 -> tx_buf(4), 
   853 ;;  internal_buf    1    9[BANK0 ] PTR unsigned char 
   854 ;;		 -> main@ringbuf(50), 
   855 ;;  bufsize         1   10[BANK0 ] unsigned char 
   856 ;; Auto vars:     Size  Location     Type
   857 ;;  rb              1   12[BANK0 ] PTR struct ringbuf
   858 ;;		 -> tx_buf(4), 
   859 ;; Return value:  Size  Location     Type
   860 ;;		None               void
   861 ;; Registers used:
   862 ;;		wreg, fsr1l, fsr1h, status,2, status,0
   863 ;; Tracked objects:
   864 ;;		On entry : 0/0
   865 ;;		On exit  : 0/0
   866 ;;		Unchanged: 0/0
   867 ;; Data sizes:     COMMON   BANK0   BANK1   BANK2   BANK3   BANK4
   868 ;;      Params:         0       2       0       0       0       0
   869 ;;      Locals:         0       1       0       0       0       0
   870 ;;      Temps:          0       1       0       0       0       0
   871 ;;      Totals:         0       4       0       0       0       0
   872 ;;Total ram usage:        4 bytes
   873 ;; Hardware stack levels used:    1
   874 ;; Hardware stack levels required when called:    4
   875 ;; This function calls:
   876 ;;		Nothing
   877 ;; This function is called by:
   878 ;;		_main
   879 ;; This function uses a non-reentrant model
   880 ;;
   881                           
   882                           
   883                           ;psect for function _init_ringbuf
   884  0500                     _init_ringbuf:	
   885                           
   886                           ;incstack = 0
   887                           ; Regs used in _init_ringbuf: [wreg+fsr1l+fsr1h+status,2+status,0]
   888                           ;init_ringbuf@rb stored from wreg
   889  0500  0020               	movlb	0	; select bank0
   890  0501  00AC               	movwf	init_ringbuf@rb
   891                           
   892                           ;PIC16F1827-ChargeStation3-01.c: 186: rb->buf = internal_buf;
   893  0502  0829               	movf	init_ringbuf@internal_buf,w
   894  0503  00AB               	movwf	??_init_ringbuf
   895  0504  082C               	movf	init_ringbuf@rb,w
   896  0505  0086               	movwf	6
   897  0506  0187               	clrf	7
   898  0507  082B               	movf	??_init_ringbuf,w
   899  0508  0081               	movwf	1
   900                           
   901                           ;PIC16F1827-ChargeStation3-01.c: 187: rb->size = bufsize;
   902  0509  082A               	movf	init_ringbuf@bufsize,w
   903  050A  00AB               	movwf	??_init_ringbuf
   904  050B  0A2C               	incf	init_ringbuf@rb,w
   905  050C  0086               	movwf	6
   906  050D  0187               	clrf	7
   907  050E  082B               	movf	??_init_ringbuf,w
   908  050F  0081               	movwf	1
   909                           
   910                           ;PIC16F1827-ChargeStation3-01.c: 188: rb->head = 0;
   911  0510  082C               	movf	init_ringbuf@rb,w
   912  0511  3E02               	addlw	2
   913  0512  0086               	movwf	6
   914  0513  0187               	clrf	7
   915  0514  0181               	clrf	1
   916                           
   917                           ;PIC16F1827-ChargeStation3-01.c: 189: rb->tail = 0;
   918  0515  082C               	movf	init_ringbuf@rb,w
   919  0516  3E03               	addlw	3
   920  0517  0086               	movwf	6
   921  0518  0187               	clrf	7
   922  0519  0181               	clrf	1
   923  051A  0008               	return
   924  051B                     __end_of_init_ringbuf:	
   925                           
   926                           	psect	text3
   927  0551                     __ptext3:	
   928 ;; *************** function _SW *****************
   929 ;; Defined at:
   930 ;;		line 245 in file "PIC16F1827-ChargeStation3-01.c"
   931 ;; Parameters:    Size  Location     Type
   932 ;;  b               1    wreg     unsigned char 
   933 ;; Auto vars:     Size  Location     Type
   934 ;;  b               1   10[BANK0 ] unsigned char 
   935 ;;  temp            1   11[BANK0 ] unsigned char 
   936 ;; Return value:  Size  Location     Type
   937 ;;                  1    wreg      unsigned char 
   938 ;; Registers used:
   939 ;;		wreg, status,2, status,0
   940 ;; Tracked objects:
   941 ;;		On entry : 0/0
   942 ;;		On exit  : 0/0
   943 ;;		Unchanged: 0/0
   944 ;; Data sizes:     COMMON   BANK0   BANK1   BANK2   BANK3   BANK4
   945 ;;      Params:         0       0       0       0       0       0
   946 ;;      Locals:         0       2       0       0       0       0
   947 ;;      Temps:          0       1       0       0       0       0
   948 ;;      Totals:         0       3       0       0       0       0
   949 ;;Total ram usage:        3 bytes
   950 ;; Hardware stack levels used:    1
   951 ;; Hardware stack levels required when called:    4
   952 ;; This function calls:
   953 ;;		Nothing
   954 ;; This function is called by:
   955 ;;		_main
   956 ;; This function uses a non-reentrant model
   957 ;;
   958                           
   959                           
   960                           ;psect for function _SW
   961  0551                     _SW:	
   962                           
   963                           ;incstack = 0
   964                           ; Regs used in _SW: [wreg+status,2+status,0]
   965                           ;SW@b stored from wreg
   966  0551  0020               	movlb	0	; select bank0
   967  0552  00AA               	movwf	SW@b
   968                           
   969                           ;PIC16F1827-ChargeStation3-01.c: 246: uint8_t temp;
   970                           ;PIC16F1827-ChargeStation3-01.c: 247: temp = PORTA;
   971  0553  080C               	movf	12,w	;volatile
   972  0554  00A9               	movwf	??_SW
   973  0555  0829               	movf	??_SW,w
   974  0556  00AB               	movwf	SW@temp
   975                           
   976                           ;PIC16F1827-ChargeStation3-01.c: 248: if (temp & (0x01 << (2 - b + 3))) {
   977  0557  3001               	movlw	1
   978  0558  00A9               	movwf	??_SW
   979  0559  032A               	decf	SW@b,w
   980  055A  3AFF               	xorlw	255
   981  055B  3E05               	addlw	5
   982  055C  0A89               	incf	9,f
   983  055D  2D5F               	goto	u1194
   984  055E                     u1195:	
   985  055E  35A9               	lslf	??_SW,f
   986  055F                     u1194:	
   987  055F  0B89               	decfsz	9,f
   988  0560  2D5E               	goto	u1195
   989  0561  0829               	movf	??_SW,w
   990  0562  052B               	andwf	SW@temp,w
   991  0563  1903               	btfsc	3,2
   992  0564  2D67               	goto	l1467
   993                           
   994                           ;PIC16F1827-ChargeStation3-01.c: 249: return 0;
   995  0565  3000               	movlw	0
   996                           
   997                           ;PIC16F1827-ChargeStation3-01.c: 250: } else {
   998  0566  0008               	return
   999  0567                     l1467:	
  1000                           
  1001                           ;PIC16F1827-ChargeStation3-01.c: 251: return 1;
  1002  0567  3001               	movlw	1
  1003  0568  0008               	return
  1004  0569                     __end_of_SW:	
  1005                           
  1006                           	psect	text4
  1007  0498                     __ptext4:	
  1008 ;; *************** function _OUT *****************
  1009 ;; Defined at:
  1010 ;;		line 201 in file "PIC16F1827-ChargeStation3-01.c"
  1011 ;; Parameters:    Size  Location     Type
  1012 ;;  b               1    wreg     unsigned char 
  1013 ;;  value           1    9[BANK0 ] unsigned char 
  1014 ;; Auto vars:     Size  Location     Type
  1015 ;;  b               1   10[BANK0 ] unsigned char 
  1016 ;; Return value:  Size  Location     Type
  1017 ;;		None               void
  1018 ;; Registers used:
  1019 ;;		wreg, fsr0l, fsr0h, status,2, status,0
  1020 ;; Tracked objects:
  1021 ;;		On entry : 0/0
  1022 ;;		On exit  : 0/0
  1023 ;;		Unchanged: 0/0
  1024 ;; Data sizes:     COMMON   BANK0   BANK1   BANK2   BANK3   BANK4
  1025 ;;      Params:         0       1       0       0       0       0
  1026 ;;      Locals:         0       1       0       0       0       0
  1027 ;;      Temps:          0       0       0       0       0       0
  1028 ;;      Totals:         0       2       0       0       0       0
  1029 ;;Total ram usage:        2 bytes
  1030 ;; Hardware stack levels used:    1
  1031 ;; Hardware stack levels required when called:    4
  1032 ;; This function calls:
  1033 ;;		Nothing
  1034 ;; This function is called by:
  1035 ;;		_main
  1036 ;; This function uses a non-reentrant model
  1037 ;;
  1038                           
  1039                           
  1040                           ;psect for function _OUT
  1041  0498                     _OUT:	
  1042                           
  1043                           ;incstack = 0
  1044                           ; Regs used in _OUT: [wreg-fsr0h+status,2+status,0]
  1045                           ;OUT@b stored from wreg
  1046  0498  0020               	movlb	0	; select bank0
  1047  0499  00AA               	movwf	OUT@b
  1048                           
  1049                           ;PIC16F1827-ChargeStation3-01.c: 202: switch (b) {
  1050  049A  2CB0               	goto	l1435
  1051  049B                     l1421:	
  1052                           ;PIC16F1827-ChargeStation3-01.c: 203: case 0:
  1053                           
  1054                           
  1055                           ;PIC16F1827-ChargeStation3-01.c: 204: if (value) {
  1056  049B  0829               	movf	OUT@value,w
  1057  049C  1903               	btfsc	3,2
  1058  049D  2CA0               	goto	l145
  1059                           
  1060                           ;PIC16F1827-ChargeStation3-01.c: 205: PORTBbits.RB0 = 0;
  1061  049E  100D               	bcf	13,0	;volatile
  1062                           
  1063                           ;PIC16F1827-ChargeStation3-01.c: 206: } else {
  1064  049F  0008               	return
  1065  04A0                     l145:	
  1066                           
  1067                           ;PIC16F1827-ChargeStation3-01.c: 207: PORTBbits.RB0 = 1;
  1068  04A0  140D               	bsf	13,0	;volatile
  1069                           
  1070                           ;PIC16F1827-ChargeStation3-01.c: 208: }
  1071                           ;PIC16F1827-ChargeStation3-01.c: 209: break;
  1072  04A1  0008               	return
  1073  04A2                     l1425:	
  1074                           ;PIC16F1827-ChargeStation3-01.c: 210: case 1:
  1075                           
  1076                           
  1077                           ;PIC16F1827-ChargeStation3-01.c: 211: if (value) {
  1078  04A2  0829               	movf	OUT@value,w
  1079  04A3  1903               	btfsc	3,2
  1080  04A4  2CA7               	goto	l149
  1081                           
  1082                           ;PIC16F1827-ChargeStation3-01.c: 212: PORTBbits.RB3 = 0;
  1083  04A5  118D               	bcf	13,3	;volatile
  1084                           
  1085                           ;PIC16F1827-ChargeStation3-01.c: 213: } else {
  1086  04A6  0008               	return
  1087  04A7                     l149:	
  1088                           
  1089                           ;PIC16F1827-ChargeStation3-01.c: 214: PORTBbits.RB3 = 1;
  1090  04A7  158D               	bsf	13,3	;volatile
  1091                           
  1092                           ;PIC16F1827-ChargeStation3-01.c: 215: }
  1093                           ;PIC16F1827-ChargeStation3-01.c: 216: break;
  1094  04A8  0008               	return
  1095  04A9                     l1429:	
  1096                           ;PIC16F1827-ChargeStation3-01.c: 217: case 2:
  1097                           
  1098                           
  1099                           ;PIC16F1827-ChargeStation3-01.c: 218: if (value) {
  1100  04A9  0829               	movf	OUT@value,w
  1101  04AA  1903               	btfsc	3,2
  1102  04AB  2CAE               	goto	l152
  1103                           
  1104                           ;PIC16F1827-ChargeStation3-01.c: 219: PORTBbits.RB4 = 0;
  1105  04AC  120D               	bcf	13,4	;volatile
  1106                           
  1107                           ;PIC16F1827-ChargeStation3-01.c: 220: } else {
  1108  04AD  0008               	return
  1109  04AE                     l152:	
  1110                           
  1111                           ;PIC16F1827-ChargeStation3-01.c: 221: PORTBbits.RB4 = 1;
  1112  04AE  160D               	bsf	13,4	;volatile
  1113                           
  1114                           ;PIC16F1827-ChargeStation3-01.c: 226: }
  1115                           
  1116                           ;PIC16F1827-ChargeStation3-01.c: 225: break;
  1117                           
  1118                           ;PIC16F1827-ChargeStation3-01.c: 224: default:
  1119                           
  1120                           ;PIC16F1827-ChargeStation3-01.c: 222: }
  1121                           ;PIC16F1827-ChargeStation3-01.c: 223: break;
  1122  04AF  0008               	return
  1123  04B0                     l1435:	
  1124  04B0  082A               	movf	OUT@b,w
  1125                           
  1126                           ; Switch size 1, requested type "space"
  1127                           ; Number of cases is 3, Range of values is 0 to 2
  1128                           ; switch strategies available:
  1129                           ; Name         Instructions Cycles
  1130                           ; simple_byte           10     6 (average)
  1131                           ; direct_byte           12     6 (fixed)
  1132                           ; jumptable            260     6 (fixed)
  1133                           ;	Chosen strategy is simple_byte
  1134  04B1  3A00               	xorlw	0	; case 0
  1135  04B2  1903               	skipnz
  1136  04B3  2C9B               	goto	l1421
  1137  04B4  3A01               	xorlw	1	; case 1
  1138  04B5  1903               	skipnz
  1139  04B6  2CA2               	goto	l1425
  1140  04B7  3A03               	xorlw	3	; case 2
  1141  04B8  1903               	skipnz
  1142  04B9  2CA9               	goto	l1429
  1143  04BA  2CBB               	goto	l155
  1144  04BB                     l155:	
  1145  04BB  0008               	return
  1146  04BC                     __end_of_OUT:	
  1147                           
  1148                           	psect	text5
  1149  04DF                     __ptext5:	
  1150 ;; *************** function _LED *****************
  1151 ;; Defined at:
  1152 ;;		line 229 in file "PIC16F1827-ChargeStation3-01.c"
  1153 ;; Parameters:    Size  Location     Type
  1154 ;;  b               1    wreg     unsigned char 
  1155 ;;  value           1    9[BANK0 ] unsigned char 
  1156 ;; Auto vars:     Size  Location     Type
  1157 ;;  b               1   10[BANK0 ] unsigned char 
  1158 ;; Return value:  Size  Location     Type
  1159 ;;		None               void
  1160 ;; Registers used:
  1161 ;;		wreg, fsr0l, fsr0h, status,2, status,0
  1162 ;; Tracked objects:
  1163 ;;		On entry : 0/0
  1164 ;;		On exit  : 0/0
  1165 ;;		Unchanged: 0/0
  1166 ;; Data sizes:     COMMON   BANK0   BANK1   BANK2   BANK3   BANK4
  1167 ;;      Params:         0       1       0       0       0       0
  1168 ;;      Locals:         0       1       0       0       0       0
  1169 ;;      Temps:          0       0       0       0       0       0
  1170 ;;      Totals:         0       2       0       0       0       0
  1171 ;;Total ram usage:        2 bytes
  1172 ;; Hardware stack levels used:    1
  1173 ;; Hardware stack levels required when called:    4
  1174 ;; This function calls:
  1175 ;;		Nothing
  1176 ;; This function is called by:
  1177 ;;		_main
  1178 ;; This function uses a non-reentrant model
  1179 ;;
  1180                           
  1181                           
  1182                           ;psect for function _LED
  1183  04DF                     _LED:	
  1184                           
  1185                           ;incstack = 0
  1186                           ; Regs used in _LED: [wreg-fsr0h+status,2+status,0]
  1187                           ;LED@b stored from wreg
  1188  04DF  0020               	movlb	0	; select bank0
  1189  04E0  00AA               	movwf	LED@b
  1190                           
  1191                           ;PIC16F1827-ChargeStation3-01.c: 230: switch (b) {
  1192  04E1  2CF4               	goto	l1449
  1193  04E2                     l1441:	
  1194                           ;PIC16F1827-ChargeStation3-01.c: 231: case 0:
  1195                           
  1196                           
  1197                           ;PIC16F1827-ChargeStation3-01.c: 232: PORTBbits.RB5 = value;
  1198  04E2  0829               	movf	LED@value,w
  1199  04E3  1D03               	skipz
  1200  04E4  168D               	bsf	13,5	;volatile
  1201  04E5  1903               	skipnz
  1202  04E6  128D               	bcf	13,5	;volatile
  1203                           
  1204                           ;PIC16F1827-ChargeStation3-01.c: 233: break;
  1205  04E7  0008               	return
  1206  04E8                     l1443:	
  1207                           ;PIC16F1827-ChargeStation3-01.c: 234: case 1:
  1208                           
  1209                           
  1210                           ;PIC16F1827-ChargeStation3-01.c: 235: PORTAbits.RA6 = value;
  1211  04E8  0829               	movf	LED@value,w
  1212  04E9  1D03               	skipz
  1213  04EA  170C               	bsf	12,6	;volatile
  1214  04EB  1903               	skipnz
  1215  04EC  130C               	bcf	12,6	;volatile
  1216                           
  1217                           ;PIC16F1827-ChargeStation3-01.c: 236: break;
  1218  04ED  0008               	return
  1219  04EE                     l1445:	
  1220                           ;PIC16F1827-ChargeStation3-01.c: 237: case 2:
  1221                           
  1222                           
  1223                           ;PIC16F1827-ChargeStation3-01.c: 238: PORTAbits.RA7 = value;
  1224  04EE  0829               	movf	LED@value,w
  1225  04EF  1D03               	skipz
  1226  04F0  178C               	bsf	12,7	;volatile
  1227  04F1  1903               	skipnz
  1228  04F2  138C               	bcf	12,7	;volatile
  1229                           
  1230                           ;PIC16F1827-ChargeStation3-01.c: 242: }
  1231                           
  1232                           ;PIC16F1827-ChargeStation3-01.c: 241: break;
  1233                           
  1234                           ;PIC16F1827-ChargeStation3-01.c: 240: default:
  1235                           
  1236                           ;PIC16F1827-ChargeStation3-01.c: 239: break;
  1237  04F3  0008               	return
  1238  04F4                     l1449:	
  1239  04F4  082A               	movf	LED@b,w
  1240                           
  1241                           ; Switch size 1, requested type "space"
  1242                           ; Number of cases is 3, Range of values is 0 to 2
  1243                           ; switch strategies available:
  1244                           ; Name         Instructions Cycles
  1245                           ; simple_byte           10     6 (average)
  1246                           ; direct_byte           12     6 (fixed)
  1247                           ; jumptable            260     6 (fixed)
  1248                           ;	Chosen strategy is simple_byte
  1249  04F5  3A00               	xorlw	0	; case 0
  1250  04F6  1903               	skipnz
  1251  04F7  2CE2               	goto	l1441
  1252  04F8  3A01               	xorlw	1	; case 1
  1253  04F9  1903               	skipnz
  1254  04FA  2CE8               	goto	l1443
  1255  04FB  3A03               	xorlw	3	; case 2
  1256  04FC  1903               	skipnz
  1257  04FD  2CEE               	goto	l1445
  1258  04FE  2CFF               	goto	l164
  1259  04FF                     l164:	
  1260  04FF  0008               	return
  1261  0500                     __end_of_LED:	
  1262                           
  1263                           	psect	intentry
  1264  0004                     __pintentry:	
  1265 ;; *************** function _isr *****************
  1266 ;; Defined at:
  1267 ;;		line 62 in file "PIC16F1827-ChargeStation3-01.c"
  1268 ;; Parameters:    Size  Location     Type
  1269 ;;		None
  1270 ;; Auto vars:     Size  Location     Type
  1271 ;;  i               1    8[BANK0 ] unsigned char 
  1272 ;; Return value:  Size  Location     Type
  1273 ;;		None               void
  1274 ;; Registers used:
  1275 ;;		wreg, fsr0l, fsr0h, fsr1l, fsr1h, status,2, status,0, pclath, cstack
  1276 ;; Tracked objects:
  1277 ;;		On entry : 0/0
  1278 ;;		On exit  : 0/0
  1279 ;;		Unchanged: 0/0
  1280 ;; Data sizes:     COMMON   BANK0   BANK1   BANK2   BANK3   BANK4
  1281 ;;      Params:         0       0       0       0       0       0
  1282 ;;      Locals:         0       1       0       0       0       0
  1283 ;;      Temps:          0       3       0       0       0       0
  1284 ;;      Totals:         0       4       0       0       0       0
  1285 ;;Total ram usage:        4 bytes
  1286 ;; Hardware stack levels used:    1
  1287 ;; Hardware stack levels required when called:    3
  1288 ;; This function calls:
  1289 ;;		___wmul
  1290 ;;		_adc
  1291 ;;		_display
  1292 ;;		_lchika
  1293 ;;		_ringbuf_num
  1294 ;;		_ringbuf_pop
  1295 ;;		i1_OUT
  1296 ;; This function is called by:
  1297 ;;		Interrupt level 1
  1298 ;; This function uses a non-reentrant model
  1299 ;;
  1300                           
  1301  0004                     _isr:	
  1302                           
  1303                           ;incstack = 0
  1304                           ; Regs used in _isr: [wreg-fsr1h+status,2+status,0+pclath+cstack]
  1305  0004  147E               	bsf	126,0	;set compiler interrupt flag (level 1)
  1306  0005  3180               	pagesel	$
  1307  0006  0020               	movlb	0	; select bank0
  1308  0007  087F               	movf	127,w
  1309  0008  00A7               	movwf	??_isr+2
  1310                           
  1311                           ;PIC16F1827-ChargeStation3-01.c: 63: uint8_t i;
  1312                           ;PIC16F1827-ChargeStation3-01.c: 64: if (PIR1bits.TXIF & PIE1bits.TXIE) {
  1313  0009  0021               	movlb	1	; select bank1
  1314  000A  0E11               	swapf	17,w	;volatile
  1315  000B  3901               	andlw	1
  1316  000C  0020               	movlb	0	; select bank0
  1317  000D  00A5               	movwf	??_isr
  1318  000E  0E11               	swapf	17,w	;volatile
  1319  000F  3901               	andlw	1
  1320  0010  0525               	andwf	??_isr,w
  1321  0011  1903               	btfsc	3,2
  1322  0012  2823               	goto	i1l91
  1323                           
  1324                           ;PIC16F1827-ChargeStation3-01.c: 65: if (ringbuf_num(&tx_buf)) {
  1325  0013  30D9               	movlw	(low (_tx_buf| 0))& (0+255)
  1326  0014  3184  2419  3180   	fcall	_ringbuf_num
  1327  0017  3A00               	xorlw	0
  1328  0018  1903               	skipnz
  1329  0019  2821               	goto	i1l92
  1330                           
  1331                           ;PIC16F1827-ChargeStation3-01.c: 66: TXREG = ringbuf_pop(&tx_buf);
  1332  001A  30D9               	movlw	(low (_tx_buf| 0))& (0+255)
  1333  001B  3183  23C1  3180   	fcall	_ringbuf_pop
  1334  001E  0023               	movlb	3	; select bank3
  1335  001F  009A               	movwf	26	;volatile
  1336                           
  1337                           ;PIC16F1827-ChargeStation3-01.c: 67: } else {
  1338  0020  2823               	goto	i1l91
  1339  0021                     i1l92:	
  1340                           
  1341                           ;PIC16F1827-ChargeStation3-01.c: 68: PIE1bits.TXIE = 0;
  1342  0021  0021               	movlb	1	; select bank1
  1343  0022  1211               	bcf	17,4	;volatile
  1344  0023                     i1l91:	
  1345                           
  1346                           ;PIC16F1827-ChargeStation3-01.c: 69: }
  1347                           ;PIC16F1827-ChargeStation3-01.c: 70: }
  1348                           ;PIC16F1827-ChargeStation3-01.c: 71: if (PIR1bits.TMR1IF == 1) {
  1349  0023  0020               	movlb	0	; select bank0
  1350  0024  1C11               	btfss	17,0	;volatile
  1351  0025  288A               	goto	i1l94
  1352                           
  1353                           ;PIC16F1827-ChargeStation3-01.c: 72: PIR1bits.TMR1IF = 0;
  1354  0026  1011               	bcf	17,0	;volatile
  1355                           
  1356                           ;PIC16F1827-ChargeStation3-01.c: 73: for (i = 0; i < 3; i++) {
  1357  0027  01A8               	clrf	isr@i
  1358  0028  3003               	movlw	3
  1359  0029  0228               	subwf	isr@i,w
  1360  002A  1803               	btfsc	3,0
  1361  002B  288A               	goto	i1l94
  1362  002C                     i1l1519:	
  1363                           
  1364                           ;PIC16F1827-ChargeStation3-01.c: 74: v[i] = 2 * adc(i) * 3 / 4;
  1365  002C  0828               	movf	isr@i,w
  1366  002D  3185  251B  3180   	fcall	_adc
  1367  0030  3570               	lslf	?_adc,w
  1368  0031  00F4               	movwf	___wmul@multiplier
  1369  0032  0D71               	rlf	?_adc+1,w
  1370  0033  00F5               	movwf	___wmul@multiplier+1
  1371  0034  3003               	movlw	3
  1372  0035  00F6               	movwf	___wmul@multiplicand
  1373  0036  3000               	movlw	0
  1374  0037  00F7               	movwf	___wmul@multiplicand+1
  1375  0038  3185  2536  3180   	fcall	___wmul
  1376  003B  0874               	movf	?___wmul,w
  1377  003C  0020               	movlb	0	; select bank0
  1378  003D  00A5               	movwf	??_isr
  1379  003E  0875               	movf	?___wmul+1,w
  1380  003F  00A6               	movwf	??_isr+1
  1381  0040  36A6               	lsrf	??_isr+1,f
  1382  0041  0CA5               	rrf	??_isr,f
  1383  0042  36A6               	lsrf	??_isr+1,f
  1384  0043  0CA5               	rrf	??_isr,f
  1385  0044  3528               	lslf	isr@i,w
  1386  0045  3E2F               	addlw	(low (_v| 0))& (0+255)
  1387  0046  0086               	movwf	6
  1388  0047  0187               	clrf	7
  1389  0048  0825               	movf	??_isr,w
  1390  0049  3FC0               	movwi [0]fsr1
  1391  004A  0826               	movf	??_isr+1,w
  1392  004B  3FC1               	movwi [1]fsr1
  1393                           
  1394                           ;PIC16F1827-ChargeStation3-01.c: 76: if (v[i] < 50) {
  1395  004C  3528               	lslf	isr@i,w
  1396  004D  3E2F               	addlw	(low (_v| 0))& (0+255)
  1397  004E  0086               	movwf	6
  1398  004F  0187               	clrf	7
  1399  0050  3F40               	moviw [0]fsr1
  1400  0051  00A5               	movwf	??_isr
  1401  0052  3F41               	moviw [1]fsr1
  1402  0053  00A6               	movwf	??_isr+1
  1403  0054  3000               	movlw	0
  1404  0055  0226               	subwf	??_isr+1,w
  1405  0056  3032               	movlw	50
  1406  0057  1903               	skipnz
  1407  0058  0225               	subwf	??_isr,w
  1408  0059  1803               	skipnc
  1409  005A  2879               	goto	i1l1527
  1410                           
  1411                           ;PIC16F1827-ChargeStation3-01.c: 77: cut[i]++;
  1412  005B  3528               	lslf	isr@i,w
  1413  005C  3ED3               	addlw	(low (_cut| 0))& (0+255)
  1414  005D  0086               	movwf	6
  1415  005E  0187               	clrf	7
  1416  005F  3001               	movlw	1
  1417  0060  0781               	addwf	1,f
  1418  0061  3141               	addfsr 1,1
  1419  0062  1803               	skipnc
  1420  0063  0A81               	incf	1,f
  1421                           
  1422                           ;PIC16F1827-ChargeStation3-01.c: 78: if (cut[i] >= 8 * 6) {
  1423  0064  3528               	lslf	isr@i,w
  1424  0065  3ED3               	addlw	(low (_cut| 0))& (0+255)
  1425  0066  0086               	movwf	6
  1426  0067  0187               	clrf	7
  1427  0068  3F40               	moviw [0]fsr1
  1428  0069  00A5               	movwf	??_isr
  1429  006A  3F41               	moviw [1]fsr1
  1430  006B  00A6               	movwf	??_isr+1
  1431  006C  3000               	movlw	0
  1432  006D  0226               	subwf	??_isr+1,w
  1433  006E  3030               	movlw	48
  1434  006F  1903               	skipnz
  1435  0070  0225               	subwf	??_isr,w
  1436  0071  1C03               	skipc
  1437  0072  2881               	goto	i1l1529
  1438                           
  1439                           ;PIC16F1827-ChargeStation3-01.c: 79: OUT(i, 0);
  1440  0073  01F0               	clrf	i1OUT@value
  1441  0074  0828               	movf	isr@i,w
  1442  0075  3184  246F  3180   	fcall	i1_OUT
  1443                           
  1444                           ;PIC16F1827-ChargeStation3-01.c: 80: }
  1445                           ;PIC16F1827-ChargeStation3-01.c: 81: } else {
  1446  0078  2881               	goto	i1l1529
  1447  0079                     i1l1527:	
  1448                           
  1449                           ;PIC16F1827-ChargeStation3-01.c: 82: cut[i] = 0;
  1450  0079  0020               	movlb	0	; select bank0
  1451  007A  3528               	lslf	isr@i,w
  1452  007B  3ED3               	addlw	(low (_cut| 0))& (0+255)
  1453  007C  0086               	movwf	6
  1454  007D  0187               	clrf	7
  1455  007E  3000               	movlw	0
  1456  007F  3FC0               	movwi [0]fsr1
  1457  0080  3FC1               	movwi [1]fsr1
  1458  0081                     i1l1529:	
  1459  0081  3001               	movlw	1
  1460  0082  0020               	movlb	0	; select bank0
  1461  0083  00A5               	movwf	??_isr
  1462  0084  0825               	movf	??_isr,w
  1463  0085  07A8               	addwf	isr@i,f
  1464  0086  3003               	movlw	3
  1465  0087  0228               	subwf	isr@i,w
  1466  0088  1C03               	skipc
  1467  0089  282C               	goto	i1l1519
  1468  008A                     i1l94:	
  1469                           
  1470                           ;PIC16F1827-ChargeStation3-01.c: 83: }
  1471                           ;PIC16F1827-ChargeStation3-01.c: 84: }
  1472                           ;PIC16F1827-ChargeStation3-01.c: 85: }
  1473                           ;PIC16F1827-ChargeStation3-01.c: 86: if (INTCONbits.TMR0IF == 1) {
  1474  008A  1D0B               	btfss	11,2	;volatile
  1475  008B  289F               	goto	i1l102
  1476                           
  1477                           ;PIC16F1827-ChargeStation3-01.c: 87: INTCONbits.TMR0IF = 0;
  1478  008C  110B               	bcf	11,2	;volatile
  1479                           
  1480                           ;PIC16F1827-ChargeStation3-01.c: 88: cnt0++;
  1481  008D  3001               	movlw	1
  1482  008E  07BB               	addwf	_cnt0,f
  1483  008F  3000               	movlw	0
  1484  0090  3DBC               	addwfc	_cnt0+1,f
  1485                           
  1486                           ;PIC16F1827-ChargeStation3-01.c: 89: if (cnt0 == 400) {
  1487  0091  3090               	movlw	144
  1488  0092  063B               	xorwf	_cnt0,w
  1489  0093  1D03               	skipz
  1490  0094  289F               	goto	i1l102
  1491  0095  033C               	decf	_cnt0+1,w
  1492  0096  1D03               	btfss	3,2
  1493  0097  289F               	goto	i1l102
  1494                           
  1495                           ;PIC16F1827-ChargeStation3-01.c: 90: cnt0 = 0;
  1496  0098  01BB               	clrf	_cnt0
  1497  0099  01BC               	clrf	_cnt0+1
  1498                           
  1499                           ;PIC16F1827-ChargeStation3-01.c: 91: display();
  1500  009A  3180  20B9  3180   	fcall	_display
  1501                           
  1502                           ;PIC16F1827-ChargeStation3-01.c: 92: lchika();
  1503  009D  3182  2234         	fcall	_lchika
  1504  009F                     i1l102:	
  1505  009F  0020               	movlb	0	; select bank0
  1506  00A0  0827               	movf	??_isr+2,w
  1507  00A1  00FF               	movwf	127
  1508  00A2  107E               	bcf	126,0	;clear compiler interrupt flag (level 1)
  1509  00A3  0009               	retfie
  1510  00A4                     __end_of_isr:	
  1511                           
  1512                           	psect	text7
  1513  046F                     __ptext7:	
  1514 ;; *************** function i1_OUT *****************
  1515 ;; Defined at:
  1516 ;;		line 201 in file "PIC16F1827-ChargeStation3-01.c"
  1517 ;; Parameters:    Size  Location     Type
  1518 ;;  b               1    wreg     unsigned char 
  1519 ;;  value           1    0[COMMON] unsigned char 
  1520 ;; Auto vars:     Size  Location     Type
  1521 ;;  b               1    1[COMMON] unsigned char 
  1522 ;; Return value:  Size  Location     Type
  1523 ;;		None               void
  1524 ;; Registers used:
  1525 ;;		wreg, fsr0l, fsr0h, status,2, status,0
  1526 ;; Tracked objects:
  1527 ;;		On entry : 0/0
  1528 ;;		On exit  : 0/0
  1529 ;;		Unchanged: 0/0
  1530 ;; Data sizes:     COMMON   BANK0   BANK1   BANK2   BANK3   BANK4
  1531 ;;      Params:         1       0       0       0       0       0
  1532 ;;      Locals:         1       0       0       0       0       0
  1533 ;;      Temps:          0       0       0       0       0       0
  1534 ;;      Totals:         2       0       0       0       0       0
  1535 ;;Total ram usage:        2 bytes
  1536 ;; Hardware stack levels used:    1
  1537 ;; This function calls:
  1538 ;;		Nothing
  1539 ;; This function is called by:
  1540 ;;		_isr
  1541 ;; This function uses a non-reentrant model
  1542 ;;
  1543                           
  1544                           
  1545                           ;psect for function i1_OUT
  1546  046F                     i1_OUT:	
  1547                           
  1548                           ;incstack = 0
  1549                           ; Regs used in i1_OUT: [wreg-fsr0h+status,2+status,0]
  1550                           ;i1OUT@b stored from wreg
  1551  046F  00F1               	movwf	i1OUT@b
  1552                           
  1553                           ;PIC16F1827-ChargeStation3-01.c: 202: switch (b) {
  1554  0470  2C8C               	goto	i1l1321
  1555  0471                     i1l1307:	
  1556                           ;PIC16F1827-ChargeStation3-01.c: 203: case 0:
  1557                           
  1558                           
  1559                           ;PIC16F1827-ChargeStation3-01.c: 204: if (value) {
  1560  0471  0870               	movf	i1OUT@value,w
  1561  0472  1903               	btfsc	3,2
  1562  0473  2C77               	goto	i1l145
  1563                           
  1564                           ;PIC16F1827-ChargeStation3-01.c: 205: PORTBbits.RB0 = 0;
  1565  0474  0020               	movlb	0	; select bank0
  1566  0475  100D               	bcf	13,0	;volatile
  1567                           
  1568                           ;PIC16F1827-ChargeStation3-01.c: 206: } else {
  1569  0476  0008               	return
  1570  0477                     i1l145:	
  1571                           
  1572                           ;PIC16F1827-ChargeStation3-01.c: 207: PORTBbits.RB0 = 1;
  1573  0477  0020               	movlb	0	; select bank0
  1574  0478  140D               	bsf	13,0	;volatile
  1575                           
  1576                           ;PIC16F1827-ChargeStation3-01.c: 208: }
  1577                           ;PIC16F1827-ChargeStation3-01.c: 209: break;
  1578  0479  0008               	return
  1579  047A                     i1l1311:	
  1580                           ;PIC16F1827-ChargeStation3-01.c: 210: case 1:
  1581                           
  1582                           
  1583                           ;PIC16F1827-ChargeStation3-01.c: 211: if (value) {
  1584  047A  0870               	movf	i1OUT@value,w
  1585  047B  1903               	btfsc	3,2
  1586  047C  2C80               	goto	i1l149
  1587                           
  1588                           ;PIC16F1827-ChargeStation3-01.c: 212: PORTBbits.RB3 = 0;
  1589  047D  0020               	movlb	0	; select bank0
  1590  047E  118D               	bcf	13,3	;volatile
  1591                           
  1592                           ;PIC16F1827-ChargeStation3-01.c: 213: } else {
  1593  047F  0008               	return
  1594  0480                     i1l149:	
  1595                           
  1596                           ;PIC16F1827-ChargeStation3-01.c: 214: PORTBbits.RB3 = 1;
  1597  0480  0020               	movlb	0	; select bank0
  1598  0481  158D               	bsf	13,3	;volatile
  1599                           
  1600                           ;PIC16F1827-ChargeStation3-01.c: 215: }
  1601                           ;PIC16F1827-ChargeStation3-01.c: 216: break;
  1602  0482  0008               	return
  1603  0483                     i1l1315:	
  1604                           ;PIC16F1827-ChargeStation3-01.c: 217: case 2:
  1605                           
  1606                           
  1607                           ;PIC16F1827-ChargeStation3-01.c: 218: if (value) {
  1608  0483  0870               	movf	i1OUT@value,w
  1609  0484  1903               	btfsc	3,2
  1610  0485  2C89               	goto	i1l152
  1611                           
  1612                           ;PIC16F1827-ChargeStation3-01.c: 219: PORTBbits.RB4 = 0;
  1613  0486  0020               	movlb	0	; select bank0
  1614  0487  120D               	bcf	13,4	;volatile
  1615                           
  1616                           ;PIC16F1827-ChargeStation3-01.c: 220: } else {
  1617  0488  0008               	return
  1618  0489                     i1l152:	
  1619                           
  1620                           ;PIC16F1827-ChargeStation3-01.c: 221: PORTBbits.RB4 = 1;
  1621  0489  0020               	movlb	0	; select bank0
  1622  048A  160D               	bsf	13,4	;volatile
  1623                           
  1624                           ;PIC16F1827-ChargeStation3-01.c: 226: }
  1625                           
  1626                           ;PIC16F1827-ChargeStation3-01.c: 225: break;
  1627                           
  1628                           ;PIC16F1827-ChargeStation3-01.c: 224: default:
  1629                           
  1630                           ;PIC16F1827-ChargeStation3-01.c: 222: }
  1631                           ;PIC16F1827-ChargeStation3-01.c: 223: break;
  1632  048B  0008               	return
  1633  048C                     i1l1321:	
  1634  048C  0871               	movf	i1OUT@b,w
  1635                           
  1636                           ; Switch size 1, requested type "space"
  1637                           ; Number of cases is 3, Range of values is 0 to 2
  1638                           ; switch strategies available:
  1639                           ; Name         Instructions Cycles
  1640                           ; simple_byte           10     6 (average)
  1641                           ; direct_byte           12     6 (fixed)
  1642                           ; jumptable            260     6 (fixed)
  1643                           ;	Chosen strategy is simple_byte
  1644  048D  3A00               	xorlw	0	; case 0
  1645  048E  1903               	skipnz
  1646  048F  2C71               	goto	i1l1307
  1647  0490  3A01               	xorlw	1	; case 1
  1648  0491  1903               	skipnz
  1649  0492  2C7A               	goto	i1l1311
  1650  0493  3A03               	xorlw	3	; case 2
  1651  0494  1903               	skipnz
  1652  0495  2C83               	goto	i1l1315
  1653  0496  2C97               	goto	i1l155
  1654  0497                     i1l155:	
  1655  0497  0008               	return
  1656  0498                     __end_ofi1_OUT:	
  1657                           
  1658                           	psect	text8
  1659  03C1                     __ptext8:	
  1660 ;; *************** function _ringbuf_pop *****************
  1661 ;; Defined at:
  1662 ;;		line 168 in file "PIC16F1827-ChargeStation3-01.c"
  1663 ;; Parameters:    Size  Location     Type
  1664 ;;  rb              1    wreg     PTR struct ringbuf
  1665 ;;		 -> tx_buf(4), 
  1666 ;; Auto vars:     Size  Location     Type
  1667 ;;  rb              1    3[COMMON] PTR struct ringbuf
  1668 ;;		 -> tx_buf(4), 
  1669 ;;  ret             1    2[COMMON] unsigned char 
  1670 ;; Return value:  Size  Location     Type
  1671 ;;                  1    wreg      unsigned char 
  1672 ;; Registers used:
  1673 ;;		wreg, fsr0l, fsr0h, fsr1l, fsr1h, status,2, status,0
  1674 ;; Tracked objects:
  1675 ;;		On entry : 0/0
  1676 ;;		On exit  : 0/0
  1677 ;;		Unchanged: 0/0
  1678 ;; Data sizes:     COMMON   BANK0   BANK1   BANK2   BANK3   BANK4
  1679 ;;      Params:         0       0       0       0       0       0
  1680 ;;      Locals:         2       0       0       0       0       0
  1681 ;;      Temps:          2       0       0       0       0       0
  1682 ;;      Totals:         4       0       0       0       0       0
  1683 ;;Total ram usage:        4 bytes
  1684 ;; Hardware stack levels used:    1
  1685 ;; This function calls:
  1686 ;;		Nothing
  1687 ;; This function is called by:
  1688 ;;		_isr
  1689 ;; This function uses a non-reentrant model
  1690 ;;
  1691                           
  1692                           
  1693                           ;psect for function _ringbuf_pop
  1694  03C1                     _ringbuf_pop:	
  1695                           
  1696                           ;incstack = 0
  1697                           ; Regs used in _ringbuf_pop: [wreg-fsr1h+status,2+status,0]
  1698                           ;ringbuf_pop@rb stored from wreg
  1699  03C1  00F3               	movwf	ringbuf_pop@rb
  1700                           
  1701                           ;PIC16F1827-ChargeStation3-01.c: 169: uint8_t ret = rb->buf[rb->tail];
  1702  03C2  0873               	movf	ringbuf_pop@rb,w
  1703  03C3  0086               	movwf	6
  1704  03C4  0187               	clrf	7
  1705  03C5  0873               	movf	ringbuf_pop@rb,w
  1706  03C6  3E03               	addlw	3
  1707  03C7  0084               	movwf	4
  1708  03C8  0185               	clrf	5
  1709  03C9  0800               	movf	0,w
  1710  03CA  0701               	addwf	1,w
  1711  03CB  00F0               	movwf	??_ringbuf_pop
  1712  03CC  0870               	movf	??_ringbuf_pop,w
  1713  03CD  0086               	movwf	6
  1714  03CE  0187               	clrf	7
  1715  03CF  0801               	movf	1,w
  1716  03D0  00F1               	movwf	??_ringbuf_pop+1
  1717  03D1  0871               	movf	??_ringbuf_pop+1,w
  1718  03D2  00F2               	movwf	ringbuf_pop@ret
  1719                           
  1720                           ;PIC16F1827-ChargeStation3-01.c: 170: rb->tail++;
  1721  03D3  3001               	movlw	1
  1722  03D4  00F0               	movwf	??_ringbuf_pop
  1723  03D5  0873               	movf	ringbuf_pop@rb,w
  1724  03D6  3E03               	addlw	3
  1725  03D7  0086               	movwf	6
  1726  03D8  0187               	clrf	7
  1727  03D9  0870               	movf	??_ringbuf_pop,w
  1728  03DA  0781               	addwf	1,f
  1729                           
  1730                           ;PIC16F1827-ChargeStation3-01.c: 171: if (rb->tail >= rb->size) {
  1731  03DB  0873               	movf	ringbuf_pop@rb,w
  1732  03DC  3E03               	addlw	3
  1733  03DD  0086               	movwf	6
  1734  03DE  0187               	clrf	7
  1735  03DF  0A73               	incf	ringbuf_pop@rb,w
  1736  03E0  0084               	movwf	4
  1737  03E1  0185               	clrf	5
  1738  03E2  0800               	movf	0,w
  1739  03E3  0201               	subwf	1,w
  1740  03E4  1C03               	skipc
  1741  03E5  2BEB               	goto	i1l1415
  1742                           
  1743                           ;PIC16F1827-ChargeStation3-01.c: 172: rb->tail = 0;
  1744  03E6  0873               	movf	ringbuf_pop@rb,w
  1745  03E7  3E03               	addlw	3
  1746  03E8  0086               	movwf	6
  1747  03E9  0187               	clrf	7
  1748  03EA  0181               	clrf	1
  1749  03EB                     i1l1415:	
  1750                           
  1751                           ;PIC16F1827-ChargeStation3-01.c: 173: }
  1752                           ;PIC16F1827-ChargeStation3-01.c: 174: return ret;
  1753  03EB  0872               	movf	ringbuf_pop@ret,w
  1754  03EC  0008               	return
  1755  03ED                     __end_of_ringbuf_pop:	
  1756                           
  1757                           	psect	text9
  1758  0419                     __ptext9:	
  1759 ;; *************** function _ringbuf_num *****************
  1760 ;; Defined at:
  1761 ;;		line 177 in file "PIC16F1827-ChargeStation3-01.c"
  1762 ;; Parameters:    Size  Location     Type
  1763 ;;  rb              1    wreg     PTR struct ringbuf
  1764 ;;		 -> tx_buf(4), 
  1765 ;; Auto vars:     Size  Location     Type
  1766 ;;  rb              1    1[COMMON] PTR struct ringbuf
  1767 ;;		 -> tx_buf(4), 
  1768 ;; Return value:  Size  Location     Type
  1769 ;;                  1    wreg      unsigned char 
  1770 ;; Registers used:
  1771 ;;		wreg, fsr0l, fsr0h, fsr1l, fsr1h, status,2, status,0
  1772 ;; Tracked objects:
  1773 ;;		On entry : 0/0
  1774 ;;		On exit  : 0/0
  1775 ;;		Unchanged: 0/0
  1776 ;; Data sizes:     COMMON   BANK0   BANK1   BANK2   BANK3   BANK4
  1777 ;;      Params:         0       0       0       0       0       0
  1778 ;;      Locals:         1       0       0       0       0       0
  1779 ;;      Temps:          1       0       0       0       0       0
  1780 ;;      Totals:         2       0       0       0       0       0
  1781 ;;Total ram usage:        2 bytes
  1782 ;; Hardware stack levels used:    1
  1783 ;; This function calls:
  1784 ;;		Nothing
  1785 ;; This function is called by:
  1786 ;;		_isr
  1787 ;; This function uses a non-reentrant model
  1788 ;;
  1789                           
  1790                           
  1791                           ;psect for function _ringbuf_num
  1792  0419                     _ringbuf_num:	
  1793                           
  1794                           ;incstack = 0
  1795                           ; Regs used in _ringbuf_num: [wreg-fsr1h+status,2+status,0]
  1796                           ;ringbuf_num@rb stored from wreg
  1797  0419  00F1               	movwf	ringbuf_num@rb
  1798                           
  1799                           ;PIC16F1827-ChargeStation3-01.c: 178: if (rb->head >= rb->tail) {
  1800  041A  0871               	movf	ringbuf_num@rb,w
  1801  041B  3E02               	addlw	2
  1802  041C  0086               	movwf	6
  1803  041D  0187               	clrf	7
  1804  041E  0871               	movf	ringbuf_num@rb,w
  1805  041F  3E03               	addlw	3
  1806  0420  0084               	movwf	4
  1807  0421  0185               	clrf	5
  1808  0422  0800               	movf	0,w
  1809  0423  0201               	subwf	1,w
  1810  0424  1C03               	skipc
  1811  0425  2C32               	goto	i1l1149
  1812                           
  1813                           ;PIC16F1827-ChargeStation3-01.c: 179: return (rb->head - rb->tail);
  1814  0426  0871               	movf	ringbuf_num@rb,w
  1815  0427  3E02               	addlw	2
  1816  0428  0086               	movwf	6
  1817  0429  0187               	clrf	7
  1818  042A  0871               	movf	ringbuf_num@rb,w
  1819  042B  3E03               	addlw	3
  1820  042C  0084               	movwf	4
  1821  042D  0185               	clrf	5
  1822  042E  0300               	decf	0,w
  1823  042F  3AFF               	xorlw	255
  1824  0430  0701               	addwf	1,w
  1825                           
  1826                           ;PIC16F1827-ChargeStation3-01.c: 180: } else {
  1827  0431  0008               	return
  1828  0432                     i1l1149:	
  1829                           
  1830                           ;PIC16F1827-ChargeStation3-01.c: 181: return (rb->size + rb->head - rb->tail);
  1831  0432  0871               	movf	ringbuf_num@rb,w
  1832  0433  3E02               	addlw	2
  1833  0434  0086               	movwf	6
  1834  0435  0187               	clrf	7
  1835  0436  0A71               	incf	ringbuf_num@rb,w
  1836  0437  0084               	movwf	4
  1837  0438  0185               	clrf	5
  1838  0439  0800               	movf	0,w
  1839  043A  00F0               	movwf	??_ringbuf_num
  1840  043B  0871               	movf	ringbuf_num@rb,w
  1841  043C  3E03               	addlw	3
  1842  043D  0084               	movwf	4
  1843  043E  0185               	clrf	5
  1844  043F  0300               	decf	0,w
  1845  0440  3AFF               	xorlw	255
  1846  0441  0770               	addwf	??_ringbuf_num,w
  1847  0442  0701               	addwf	1,w
  1848  0443  0008               	return
  1849  0444                     __end_of_ringbuf_num:	
  1850                           
  1851                           	psect	text10
  1852  0234                     __ptext10:	
  1853 ;; *************** function _lchika *****************
  1854 ;; Defined at:
  1855 ;;		line 97 in file "PIC16F1827-ChargeStation3-01.c"
  1856 ;; Parameters:    Size  Location     Type
  1857 ;;		None
  1858 ;; Auto vars:     Size  Location     Type
  1859 ;;  i               1    4[BANK0 ] unsigned char 
  1860 ;; Return value:  Size  Location     Type
  1861 ;;		None               void
  1862 ;; Registers used:
  1863 ;;		wreg, fsr0l, fsr0h, fsr1l, fsr1h, status,2, status,0, pclath, cstack
  1864 ;; Tracked objects:
  1865 ;;		On entry : 0/0
  1866 ;;		On exit  : 0/0
  1867 ;;		Unchanged: 0/0
  1868 ;; Data sizes:     COMMON   BANK0   BANK1   BANK2   BANK3   BANK4
  1869 ;;      Params:         0       0       0       0       0       0
  1870 ;;      Locals:         0       1       0       0       0       0
  1871 ;;      Temps:          0       4       0       0       0       0
  1872 ;;      Totals:         0       5       0       0       0       0
  1873 ;;Total ram usage:        5 bytes
  1874 ;; Hardware stack levels used:    1
  1875 ;; Hardware stack levels required when called:    1
  1876 ;; This function calls:
  1877 ;;		___awdiv
  1878 ;;		___lwdiv
  1879 ;;		i1_LED
  1880 ;; This function is called by:
  1881 ;;		_isr
  1882 ;; This function uses a non-reentrant model
  1883 ;;
  1884                           
  1885                           
  1886                           ;psect for function _lchika
  1887  0234                     _lchika:	
  1888                           
  1889                           ;PIC16F1827-ChargeStation3-01.c: 98: uint8_t i;
  1890                           ;PIC16F1827-ChargeStation3-01.c: 99: for (i = 0; i < 3; i++) {
  1891                           
  1892                           ;incstack = 0
  1893                           ; Regs used in _lchika: [wreg-fsr1h+status,2+status,0+pclath+cstack]
  1894  0234  0020               	movlb	0	; select bank0
  1895  0235  01A4               	clrf	lchika@i
  1896  0236                     L3:	
  1897  0236  3003               	movlw	3
  1898  0237  0224               	subwf	lchika@i,w
  1899  0238  1803               	btfsc	3,0
  1900  0239  0008               	return
  1901                           
  1902                           ;PIC16F1827-ChargeStation3-01.c: 100: cnt[i]++;
  1903  023A  3001               	movlw	1
  1904  023B  00A0               	movwf	??_lchika
  1905  023C  0824               	movf	lchika@i,w
  1906  023D  3E35               	addlw	(low (_cnt| 0))& (0+255)
  1907  023E  0086               	movwf	6
  1908  023F  0187               	clrf	7
  1909  0240  0820               	movf	??_lchika,w
  1910  0241  0781               	addwf	1,f
  1911                           
  1912                           ;PIC16F1827-ChargeStation3-01.c: 102: if (cnt[i] % 2 == 1) {
  1913  0242  0824               	movf	lchika@i,w
  1914  0243  3E35               	addlw	(low (_cnt| 0))& (0+255)
  1915  0244  0086               	movwf	6
  1916  0245  0187               	clrf	7
  1917  0246  1C01               	btfss	1,0
  1918  0247  2A4E               	goto	i1l1207
  1919                           
  1920                           ;PIC16F1827-ChargeStation3-01.c: 103: LED(i, 0);
  1921  0248  01F0               	clrf	i1LED@value
  1922  0249  0824               	movf	lchika@i,w
  1923  024A  3184  24BC  3182   	fcall	i1_LED
  1924                           
  1925                           ;PIC16F1827-ChargeStation3-01.c: 104: } else {
  1926  024D  2AA3               	goto	i1l1221
  1927  024E                     i1l1207:	
  1928                           
  1929                           ;PIC16F1827-ChargeStation3-01.c: 105: if (cnt[i] / 2 <= v[i] / 100) {
  1930  024E  3064               	movlw	100
  1931  024F  00F6               	movwf	___lwdiv@divisor
  1932  0250  3000               	movlw	0
  1933  0251  00F7               	movwf	___lwdiv@divisor+1
  1934  0252  0020               	movlb	0	; select bank0
  1935  0253  3524               	lslf	lchika@i,w
  1936  0254  3E2F               	addlw	(low (_v| 0))& (0+255)
  1937  0255  0086               	movwf	6
  1938  0256  0187               	clrf	7
  1939  0257  3F40               	moviw [0]fsr1
  1940  0258  00F8               	movwf	___lwdiv@dividend
  1941  0259  3F41               	moviw [1]fsr1
  1942  025A  00F9               	movwf	___lwdiv@dividend+1
  1943  025B  3183  2360  3182   	fcall	___lwdiv
  1944  025E  0876               	movf	?___lwdiv,w
  1945  025F  0020               	movlb	0	; select bank0
  1946  0260  00A0               	movwf	??_lchika
  1947  0261  0877               	movf	?___lwdiv+1,w
  1948  0262  00A1               	movwf	??_lchika+1
  1949  0263  3002               	movlw	2
  1950  0264  00F0               	movwf	___awdiv@divisor
  1951  0265  3000               	movlw	0
  1952  0266  00F1               	movwf	___awdiv@divisor+1
  1953  0267  0824               	movf	lchika@i,w
  1954  0268  3E35               	addlw	(low (_cnt| 0))& (0+255)
  1955  0269  0086               	movwf	6
  1956  026A  0187               	clrf	7
  1957  026B  0801               	movf	1,w
  1958  026C  00A2               	movwf	??_lchika+2
  1959  026D  01A3               	clrf	??_lchika+3
  1960  026E  0822               	movf	??_lchika+2,w
  1961  026F  00F2               	movwf	___awdiv@dividend
  1962  0270  0823               	movf	??_lchika+3,w
  1963  0271  00F3               	movwf	___awdiv@dividend+1
  1964  0272  3183  230F  3182   	fcall	___awdiv
  1965  0275  0871               	movf	?___awdiv+1,w
  1966  0276  0020               	movlb	0	; select bank0
  1967  0277  0221               	subwf	??_lchika+1,w
  1968  0278  1D03               	skipz
  1969  0279  2A7C               	goto	u90_25
  1970  027A  0870               	movf	?___awdiv,w
  1971  027B  0220               	subwf	??_lchika,w
  1972  027C                     u90_25:	
  1973  027C  1C03               	skipc
  1974  027D  2A88               	goto	i1l1213
  1975                           
  1976                           ;PIC16F1827-ChargeStation3-01.c: 106: LED(i, 1);
  1977  027E  01F0               	clrf	i1LED@value
  1978  027F  0AF0               	incf	i1LED@value,f
  1979  0280  0824               	movf	lchika@i,w
  1980  0281  3184  24BC  3182   	fcall	i1_LED
  1981                           
  1982                           ;PIC16F1827-ChargeStation3-01.c: 107: cntf[i] = 0;
  1983  0284  0020               	movlb	0	; select bank0
  1984  0285  0824               	movf	lchika@i,w
  1985  0286  3E38               	addlw	(low (_cntf| 0))& (0+255)
  1986  0287  2AA0               	goto	L2
  1987  0288                     i1l1213:	
  1988                           ;PIC16F1827-ChargeStation3-01.c: 108: } else {
  1989                           
  1990                           
  1991                           ;PIC16F1827-ChargeStation3-01.c: 109: cntf[i]++;
  1992  0288  3001               	movlw	1
  1993  0289  00A0               	movwf	??_lchika
  1994  028A  0824               	movf	lchika@i,w
  1995  028B  3E38               	addlw	(low (_cntf| 0))& (0+255)
  1996  028C  0086               	movwf	6
  1997  028D  0187               	clrf	7
  1998  028E  0820               	movf	??_lchika,w
  1999  028F  0781               	addwf	1,f
  2000                           
  2001                           ;PIC16F1827-ChargeStation3-01.c: 110: LED(i, 0);
  2002  0290  01F0               	clrf	i1LED@value
  2003  0291  0824               	movf	lchika@i,w
  2004  0292  3184  24BC  3182   	fcall	i1_LED
  2005                           
  2006                           ;PIC16F1827-ChargeStation3-01.c: 111: if (cntf[i] >= 2) {
  2007  0295  0020               	movlb	0	; select bank0
  2008  0296  0824               	movf	lchika@i,w
  2009  0297  3E38               	addlw	(low (_cntf| 0))& (0+255)
  2010  0298  0086               	movwf	6
  2011  0299  0187               	clrf	7
  2012  029A  3002               	movlw	2
  2013  029B  0201               	subwf	1,w
  2014  029C  1C03               	skipc
  2015  029D  2AA3               	goto	i1l1221
  2016                           
  2017                           ;PIC16F1827-ChargeStation3-01.c: 112: cnt[i] = 0;
  2018  029E  0824               	movf	lchika@i,w
  2019  029F  3E35               	addlw	(low (_cnt| 0))& (0+255)
  2020  02A0                     L2:	
  2021  02A0  0086               	movwf	6
  2022  02A1  0187               	clrf	7
  2023  02A2  0181               	clrf	1
  2024  02A3                     i1l1221:	
  2025  02A3  3001               	movlw	1
  2026  02A4  0020               	movlb	0	; select bank0
  2027  02A5  00A0               	movwf	??_lchika
  2028  02A6  0820               	movf	??_lchika,w
  2029  02A7  07A4               	addwf	lchika@i,f
  2030  02A8  2A36               	goto	L3
  2031  02A9                     __end_of_lchika:	
  2032                           
  2033                           	psect	text11
  2034  04BC                     __ptext11:	
  2035 ;; *************** function i1_LED *****************
  2036 ;; Defined at:
  2037 ;;		line 229 in file "PIC16F1827-ChargeStation3-01.c"
  2038 ;; Parameters:    Size  Location     Type
  2039 ;;  b               1    wreg     unsigned char 
  2040 ;;  value           1    0[COMMON] unsigned char 
  2041 ;; Auto vars:     Size  Location     Type
  2042 ;;  b               1    1[COMMON] unsigned char 
  2043 ;; Return value:  Size  Location     Type
  2044 ;;		None               void
  2045 ;; Registers used:
  2046 ;;		wreg, fsr0l, fsr0h, status,2, status,0
  2047 ;; Tracked objects:
  2048 ;;		On entry : 0/0
  2049 ;;		On exit  : 0/0
  2050 ;;		Unchanged: 0/0
  2051 ;; Data sizes:     COMMON   BANK0   BANK1   BANK2   BANK3   BANK4
  2052 ;;      Params:         1       0       0       0       0       0
  2053 ;;      Locals:         1       0       0       0       0       0
  2054 ;;      Temps:          0       0       0       0       0       0
  2055 ;;      Totals:         2       0       0       0       0       0
  2056 ;;Total ram usage:        2 bytes
  2057 ;; Hardware stack levels used:    1
  2058 ;; This function calls:
  2059 ;;		Nothing
  2060 ;; This function is called by:
  2061 ;;		_lchika
  2062 ;; This function uses a non-reentrant model
  2063 ;;
  2064                           
  2065                           
  2066                           ;psect for function i1_LED
  2067  04BC                     i1_LED:	
  2068                           
  2069                           ;incstack = 0
  2070                           ; Regs used in i1_LED: [wreg-fsr0h+status,2+status,0]
  2071                           ;i1LED@b stored from wreg
  2072  04BC  00F1               	movwf	i1LED@b
  2073                           
  2074                           ;PIC16F1827-ChargeStation3-01.c: 230: switch (b) {
  2075  04BD  2CD3               	goto	i1l1139
  2076  04BE                     i1l1131:	
  2077                           ;PIC16F1827-ChargeStation3-01.c: 231: case 0:
  2078                           
  2079                           
  2080                           ;PIC16F1827-ChargeStation3-01.c: 232: PORTBbits.RB5 = value;
  2081  04BE  0870               	movf	i1LED@value,w
  2082  04BF  0020               	movlb	0	; select bank0
  2083  04C0  1D03               	skipz
  2084  04C1  168D               	bsf	13,5	;volatile
  2085  04C2  1903               	skipnz
  2086  04C3  128D               	bcf	13,5	;volatile
  2087                           
  2088                           ;PIC16F1827-ChargeStation3-01.c: 233: break;
  2089  04C4  0008               	return
  2090  04C5                     i1l1133:	
  2091                           ;PIC16F1827-ChargeStation3-01.c: 234: case 1:
  2092                           
  2093                           
  2094                           ;PIC16F1827-ChargeStation3-01.c: 235: PORTAbits.RA6 = value;
  2095  04C5  0870               	movf	i1LED@value,w
  2096  04C6  0020               	movlb	0	; select bank0
  2097  04C7  1D03               	skipz
  2098  04C8  170C               	bsf	12,6	;volatile
  2099  04C9  1903               	skipnz
  2100  04CA  130C               	bcf	12,6	;volatile
  2101                           
  2102                           ;PIC16F1827-ChargeStation3-01.c: 236: break;
  2103  04CB  0008               	return
  2104  04CC                     i1l1135:	
  2105                           ;PIC16F1827-ChargeStation3-01.c: 237: case 2:
  2106                           
  2107                           
  2108                           ;PIC16F1827-ChargeStation3-01.c: 238: PORTAbits.RA7 = value;
  2109  04CC  0870               	movf	i1LED@value,w
  2110  04CD  0020               	movlb	0	; select bank0
  2111  04CE  1D03               	skipz
  2112  04CF  178C               	bsf	12,7	;volatile
  2113  04D0  1903               	skipnz
  2114  04D1  138C               	bcf	12,7	;volatile
  2115                           
  2116                           ;PIC16F1827-ChargeStation3-01.c: 242: }
  2117                           
  2118                           ;PIC16F1827-ChargeStation3-01.c: 241: break;
  2119                           
  2120                           ;PIC16F1827-ChargeStation3-01.c: 240: default:
  2121                           
  2122                           ;PIC16F1827-ChargeStation3-01.c: 239: break;
  2123  04D2  0008               	return
  2124  04D3                     i1l1139:	
  2125  04D3  0871               	movf	i1LED@b,w
  2126                           
  2127                           ; Switch size 1, requested type "space"
  2128                           ; Number of cases is 3, Range of values is 0 to 2
  2129                           ; switch strategies available:
  2130                           ; Name         Instructions Cycles
  2131                           ; simple_byte           10     6 (average)
  2132                           ; direct_byte           12     6 (fixed)
  2133                           ; jumptable            260     6 (fixed)
  2134                           ;	Chosen strategy is simple_byte
  2135  04D4  3A00               	xorlw	0	; case 0
  2136  04D5  1903               	skipnz
  2137  04D6  2CBE               	goto	i1l1131
  2138  04D7  3A01               	xorlw	1	; case 1
  2139  04D8  1903               	skipnz
  2140  04D9  2CC5               	goto	i1l1133
  2141  04DA  3A03               	xorlw	3	; case 2
  2142  04DB  1903               	skipnz
  2143  04DC  2CCC               	goto	i1l1135
  2144  04DD  2CDE               	goto	i1l164
  2145  04DE                     i1l164:	
  2146  04DE  0008               	return
  2147  04DF                     __end_ofi1_LED:	
  2148                           
  2149                           	psect	text12
  2150  030F                     __ptext12:	
  2151 ;; *************** function ___awdiv *****************
  2152 ;; Defined at:
  2153 ;;		line 6 in file "C:\Program Files (x86)\Microchip\xc8\v1.35\sources\common\awdiv.c"
  2154 ;; Parameters:    Size  Location     Type
  2155 ;;  divisor         2    0[COMMON] int 
  2156 ;;  dividend        2    2[COMMON] int 
  2157 ;; Auto vars:     Size  Location     Type
  2158 ;;  quotient        2    7[COMMON] int 
  2159 ;;  sign            1    6[COMMON] unsigned char 
  2160 ;;  counter         1    5[COMMON] unsigned char 
  2161 ;; Return value:  Size  Location     Type
  2162 ;;                  2    0[COMMON] int 
  2163 ;; Registers used:
  2164 ;;		wreg, status,2, status,0
  2165 ;; Tracked objects:
  2166 ;;		On entry : 0/0
  2167 ;;		On exit  : 0/0
  2168 ;;		Unchanged: 0/0
  2169 ;; Data sizes:     COMMON   BANK0   BANK1   BANK2   BANK3   BANK4
  2170 ;;      Params:         4       0       0       0       0       0
  2171 ;;      Locals:         4       0       0       0       0       0
  2172 ;;      Temps:          1       0       0       0       0       0
  2173 ;;      Totals:         9       0       0       0       0       0
  2174 ;;Total ram usage:        9 bytes
  2175 ;; Hardware stack levels used:    1
  2176 ;; This function calls:
  2177 ;;		Nothing
  2178 ;; This function is called by:
  2179 ;;		_lchika
  2180 ;; This function uses a non-reentrant model
  2181 ;;
  2182                           
  2183                           
  2184                           ;psect for function ___awdiv
  2185  030F                     ___awdiv:	
  2186                           
  2187                           ;incstack = 0
  2188                           ; Regs used in ___awdiv: [wreg+status,2+status,0]
  2189  030F  01F6               	clrf	___awdiv@sign
  2190  0310  1FF1               	btfss	___awdiv@divisor+1,7
  2191  0311  2B19               	goto	i1l1045
  2192  0312  09F0               	comf	___awdiv@divisor,f
  2193  0313  09F1               	comf	___awdiv@divisor+1,f
  2194  0314  0AF0               	incf	___awdiv@divisor,f
  2195  0315  1903               	skipnz
  2196  0316  0AF1               	incf	___awdiv@divisor+1,f
  2197  0317  01F6               	clrf	___awdiv@sign
  2198  0318  0AF6               	incf	___awdiv@sign,f
  2199  0319                     i1l1045:	
  2200  0319  1FF3               	btfss	___awdiv@dividend+1,7
  2201  031A  2B24               	goto	i1l1051
  2202  031B  09F2               	comf	___awdiv@dividend,f
  2203  031C  09F3               	comf	___awdiv@dividend+1,f
  2204  031D  0AF2               	incf	___awdiv@dividend,f
  2205  031E  1903               	skipnz
  2206  031F  0AF3               	incf	___awdiv@dividend+1,f
  2207  0320  3001               	movlw	1
  2208  0321  00F4               	movwf	??___awdiv
  2209  0322  0874               	movf	??___awdiv,w
  2210  0323  06F6               	xorwf	___awdiv@sign,f
  2211  0324                     i1l1051:	
  2212  0324  01F7               	clrf	___awdiv@quotient
  2213  0325  01F8               	clrf	___awdiv@quotient+1
  2214  0326  0870               	movf	___awdiv@divisor,w
  2215  0327  0471               	iorwf	___awdiv@divisor+1,w
  2216  0328  1903               	btfsc	3,2
  2217  0329  2B53               	goto	i1l1073
  2218  032A  01F5               	clrf	___awdiv@counter
  2219  032B  0AF5               	incf	___awdiv@counter,f
  2220  032C                     i1l1061:	
  2221  032C  1BF1               	btfsc	___awdiv@divisor+1,7
  2222  032D  2B38               	goto	i1l1063
  2223  032E  3001               	movlw	1
  2224  032F                     u62_25:	
  2225  032F  35F0               	lslf	___awdiv@divisor,f
  2226  0330  0DF1               	rlf	___awdiv@divisor+1,f
  2227  0331  0B89               	decfsz	9,f
  2228  0332  2B2F               	goto	u62_25
  2229  0333  3001               	movlw	1
  2230  0334  00F4               	movwf	??___awdiv
  2231  0335  0874               	movf	??___awdiv,w
  2232  0336  07F5               	addwf	___awdiv@counter,f
  2233  0337  2B2C               	goto	i1l1061
  2234  0338                     i1l1063:	
  2235  0338  3001               	movlw	1
  2236  0339                     u64_25:	
  2237  0339  35F7               	lslf	___awdiv@quotient,f
  2238  033A  0DF8               	rlf	___awdiv@quotient+1,f
  2239  033B  0B89               	decfsz	9,f
  2240  033C  2B39               	goto	u64_25
  2241  033D  0871               	movf	___awdiv@divisor+1,w
  2242  033E  0273               	subwf	___awdiv@dividend+1,w
  2243  033F  1D03               	skipz
  2244  0340  2B43               	goto	u65_25
  2245  0341  0870               	movf	___awdiv@divisor,w
  2246  0342  0272               	subwf	___awdiv@dividend,w
  2247  0343                     u65_25:	
  2248  0343  1C03               	skipc
  2249  0344  2B4A               	goto	i1l1069
  2250  0345  0870               	movf	___awdiv@divisor,w
  2251  0346  02F2               	subwf	___awdiv@dividend,f
  2252  0347  0871               	movf	___awdiv@divisor+1,w
  2253  0348  3BF3               	subwfb	___awdiv@dividend+1,f
  2254  0349  1477               	bsf	___awdiv@quotient,0
  2255  034A                     i1l1069:	
  2256  034A  3001               	movlw	1
  2257  034B                     u66_25:	
  2258  034B  36F1               	lsrf	___awdiv@divisor+1,f
  2259  034C  0CF0               	rrf	___awdiv@divisor,f
  2260  034D  0B89               	decfsz	9,f
  2261  034E  2B4B               	goto	u66_25
  2262  034F  3001               	movlw	1
  2263  0350  02F5               	subwf	___awdiv@counter,f
  2264  0351  1D03               	btfss	3,2
  2265  0352  2B38               	goto	i1l1063
  2266  0353                     i1l1073:	
  2267  0353  0876               	movf	___awdiv@sign,w
  2268  0354  1903               	btfsc	3,2
  2269  0355  2B5B               	goto	i1l1077
  2270  0356  09F7               	comf	___awdiv@quotient,f
  2271  0357  09F8               	comf	___awdiv@quotient+1,f
  2272  0358  0AF7               	incf	___awdiv@quotient,f
  2273  0359  1903               	skipnz
  2274  035A  0AF8               	incf	___awdiv@quotient+1,f
  2275  035B                     i1l1077:	
  2276  035B  0878               	movf	___awdiv@quotient+1,w
  2277  035C  00F1               	movwf	?___awdiv+1
  2278  035D  0877               	movf	___awdiv@quotient,w
  2279  035E  00F0               	movwf	?___awdiv
  2280  035F  0008               	return
  2281  0360                     __end_of___awdiv:	
  2282                           
  2283                           	psect	text13
  2284  00B9                     __ptext13:	
  2285 ;; *************** function _display *****************
  2286 ;; Defined at:
  2287 ;;		line 119 in file "PIC16F1827-ChargeStation3-01.c"
  2288 ;; Parameters:    Size  Location     Type
  2289 ;;		None
  2290 ;; Auto vars:     Size  Location     Type
  2291 ;;		None
  2292 ;; Return value:  Size  Location     Type
  2293 ;;		None               void
  2294 ;; Registers used:
  2295 ;;		wreg, fsr0l, fsr0h, fsr1l, fsr1h, status,2, status,0, pclath, cstack
  2296 ;; Tracked objects:
  2297 ;;		On entry : 0/0
  2298 ;;		On exit  : 0/0
  2299 ;;		Unchanged: 0/0
  2300 ;; Data sizes:     COMMON   BANK0   BANK1   BANK2   BANK3   BANK4
  2301 ;;      Params:         0       0       0       0       0       0
  2302 ;;      Locals:         0       0       0       0       0       0
  2303 ;;      Temps:          0       0       0       0       0       0
  2304 ;;      Totals:         0       0       0       0       0       0
  2305 ;;Total ram usage:        0 bytes
  2306 ;; Hardware stack levels used:    1
  2307 ;; Hardware stack levels required when called:    2
  2308 ;; This function calls:
  2309 ;;		___lwdiv
  2310 ;;		___lwmod
  2311 ;;		_tx_send
  2312 ;; This function is called by:
  2313 ;;		_isr
  2314 ;; This function uses a non-reentrant model
  2315 ;;
  2316                           
  2317                           
  2318                           ;psect for function _display
  2319  00B9                     _display:	
  2320                           
  2321                           ;PIC16F1827-ChargeStation3-01.c: 120: tx_send('P');
  2322                           
  2323                           ;incstack = 0
  2324                           ; Regs used in _display: [wreg-fsr1h+status,2+status,0+pclath+cstack]
  2325  00B9  3050               	movlw	80
  2326  00BA  3185  2569  3180   	fcall	_tx_send
  2327                           
  2328                           ;PIC16F1827-ChargeStation3-01.c: 121: tx_send('0');
  2329  00BD  3030               	movlw	48
  2330  00BE  3185  2569  3180   	fcall	_tx_send
  2331                           
  2332                           ;PIC16F1827-ChargeStation3-01.c: 122: tx_send(' ');
  2333  00C1  3020               	movlw	32
  2334  00C2  3185  2569  3180   	fcall	_tx_send
  2335                           
  2336                           ;PIC16F1827-ChargeStation3-01.c: 123: tx_send((v[0] % 10000) / 1000 + '0');
  2337  00C5  30E8               	movlw	232
  2338  00C6  00F6               	movwf	___lwdiv@divisor
  2339  00C7  3003               	movlw	3
  2340  00C8  00F7               	movwf	___lwdiv@divisor+1
  2341  00C9  0020               	movlb	0	; select bank0
  2342  00CA  0830               	movf	_v+1,w
  2343  00CB  00F3               	movwf	___lwmod@dividend+1
  2344  00CC  082F               	movf	_v,w
  2345  00CD  00F2               	movwf	___lwmod@dividend
  2346  00CE  3010               	movlw	16
  2347  00CF  00F0               	movwf	___lwmod@divisor
  2348  00D0  3027               	movlw	39
  2349  00D1  00F1               	movwf	___lwmod@divisor+1
  2350  00D2  3183  23ED  3180   	fcall	___lwmod
  2351  00D5  0871               	movf	?___lwmod+1,w
  2352  00D6  00F9               	movwf	___lwdiv@dividend+1
  2353  00D7  0870               	movf	?___lwmod,w
  2354  00D8  00F8               	movwf	___lwdiv@dividend
  2355  00D9  3183  2360  3180   	fcall	___lwdiv
  2356  00DC  0876               	movf	?___lwdiv,w
  2357  00DD  3E30               	addlw	48
  2358  00DE  3185  2569  3180   	fcall	_tx_send
  2359                           
  2360                           ;PIC16F1827-ChargeStation3-01.c: 124: tx_send((v[0] % 1000) / 100 + '0');
  2361  00E1  3064               	movlw	100
  2362  00E2  00F6               	movwf	___lwdiv@divisor
  2363  00E3  3000               	movlw	0
  2364  00E4  00F7               	movwf	___lwdiv@divisor+1
  2365  00E5  0020               	movlb	0	; select bank0
  2366  00E6  0830               	movf	_v+1,w
  2367  00E7  00F3               	movwf	___lwmod@dividend+1
  2368  00E8  082F               	movf	_v,w
  2369  00E9  00F2               	movwf	___lwmod@dividend
  2370  00EA  30E8               	movlw	232
  2371  00EB  00F0               	movwf	___lwmod@divisor
  2372  00EC  3003               	movlw	3
  2373  00ED  00F1               	movwf	___lwmod@divisor+1
  2374  00EE  3183  23ED  3180   	fcall	___lwmod
  2375  00F1  0871               	movf	?___lwmod+1,w
  2376  00F2  00F9               	movwf	___lwdiv@dividend+1
  2377  00F3  0870               	movf	?___lwmod,w
  2378  00F4  00F8               	movwf	___lwdiv@dividend
  2379  00F5  3183  2360  3180   	fcall	___lwdiv
  2380  00F8  0876               	movf	?___lwdiv,w
  2381  00F9  3E30               	addlw	48
  2382  00FA  3185  2569  3180   	fcall	_tx_send
  2383                           
  2384                           ;PIC16F1827-ChargeStation3-01.c: 125: tx_send((v[0] % 100) / 10 + '0');
  2385  00FD  300A               	movlw	10
  2386  00FE  00F6               	movwf	___lwdiv@divisor
  2387  00FF  3000               	movlw	0
  2388  0100  00F7               	movwf	___lwdiv@divisor+1
  2389  0101  0020               	movlb	0	; select bank0
  2390  0102  0830               	movf	_v+1,w
  2391  0103  00F3               	movwf	___lwmod@dividend+1
  2392  0104  082F               	movf	_v,w
  2393  0105  00F2               	movwf	___lwmod@dividend
  2394  0106  3064               	movlw	100
  2395  0107  00F0               	movwf	___lwmod@divisor
  2396  0108  3000               	movlw	0
  2397  0109  00F1               	movwf	___lwmod@divisor+1
  2398  010A  3183  23ED  3180   	fcall	___lwmod
  2399  010D  0871               	movf	?___lwmod+1,w
  2400  010E  00F9               	movwf	___lwdiv@dividend+1
  2401  010F  0870               	movf	?___lwmod,w
  2402  0110  00F8               	movwf	___lwdiv@dividend
  2403  0111  3183  2360  3180   	fcall	___lwdiv
  2404  0114  0876               	movf	?___lwdiv,w
  2405  0115  3E30               	addlw	48
  2406  0116  3185  2569  3180   	fcall	_tx_send
  2407                           
  2408                           ;PIC16F1827-ChargeStation3-01.c: 126: tx_send((v[0] % 10) / 1 + '0');
  2409  0119  300A               	movlw	10
  2410  011A  00F0               	movwf	___lwmod@divisor
  2411  011B  3000               	movlw	0
  2412  011C  00F1               	movwf	___lwmod@divisor+1
  2413  011D  0020               	movlb	0	; select bank0
  2414  011E  0830               	movf	_v+1,w
  2415  011F  00F3               	movwf	___lwmod@dividend+1
  2416  0120  082F               	movf	_v,w
  2417  0121  00F2               	movwf	___lwmod@dividend
  2418  0122  3183  23ED  3180   	fcall	___lwmod
  2419  0125  0870               	movf	?___lwmod,w
  2420  0126  3E30               	addlw	48
  2421  0127  3185  2569  3180   	fcall	_tx_send
  2422                           
  2423                           ;PIC16F1827-ChargeStation3-01.c: 127: tx_send('m');
  2424  012A  306D               	movlw	109
  2425  012B  3185  2569  3180   	fcall	_tx_send
  2426                           
  2427                           ;PIC16F1827-ChargeStation3-01.c: 128: tx_send('A');
  2428  012E  3041               	movlw	65
  2429  012F  3185  2569  3180   	fcall	_tx_send
  2430                           
  2431                           ;PIC16F1827-ChargeStation3-01.c: 129: tx_send('\n');
  2432  0132  300A               	movlw	10
  2433  0133  3185  2569  3180   	fcall	_tx_send
  2434                           
  2435                           ;PIC16F1827-ChargeStation3-01.c: 131: tx_send('P');
  2436  0136  3050               	movlw	80
  2437  0137  3185  2569  3180   	fcall	_tx_send
  2438                           
  2439                           ;PIC16F1827-ChargeStation3-01.c: 132: tx_send('1');
  2440  013A  3031               	movlw	49
  2441  013B  3185  2569  3180   	fcall	_tx_send
  2442                           
  2443                           ;PIC16F1827-ChargeStation3-01.c: 133: tx_send(' ');
  2444  013E  3020               	movlw	32
  2445  013F  3185  2569  3180   	fcall	_tx_send
  2446                           
  2447                           ;PIC16F1827-ChargeStation3-01.c: 134: tx_send((v[1] % 10000) / 1000 + '0');
  2448  0142  30E8               	movlw	232
  2449  0143  00F6               	movwf	___lwdiv@divisor
  2450  0144  3003               	movlw	3
  2451  0145  00F7               	movwf	___lwdiv@divisor+1
  2452  0146  0020               	movlb	0	; select bank0
  2453  0147  0832               	movf	_v+3,w
  2454  0148  00F3               	movwf	___lwmod@dividend+1
  2455  0149  0831               	movf	_v+2,w
  2456  014A  00F2               	movwf	___lwmod@dividend
  2457  014B  3010               	movlw	16
  2458  014C  00F0               	movwf	___lwmod@divisor
  2459  014D  3027               	movlw	39
  2460  014E  00F1               	movwf	___lwmod@divisor+1
  2461  014F  3183  23ED  3180   	fcall	___lwmod
  2462  0152  0871               	movf	?___lwmod+1,w
  2463  0153  00F9               	movwf	___lwdiv@dividend+1
  2464  0154  0870               	movf	?___lwmod,w
  2465  0155  00F8               	movwf	___lwdiv@dividend
  2466  0156  3183  2360  3180   	fcall	___lwdiv
  2467  0159  0876               	movf	?___lwdiv,w
  2468  015A  3E30               	addlw	48
  2469  015B  3185  2569  3180   	fcall	_tx_send
  2470                           
  2471                           ;PIC16F1827-ChargeStation3-01.c: 135: tx_send((v[1] % 1000) / 100 + '0');
  2472  015E  3064               	movlw	100
  2473  015F  00F6               	movwf	___lwdiv@divisor
  2474  0160  3000               	movlw	0
  2475  0161  00F7               	movwf	___lwdiv@divisor+1
  2476  0162  0020               	movlb	0	; select bank0
  2477  0163  0832               	movf	_v+3,w
  2478  0164  00F3               	movwf	___lwmod@dividend+1
  2479  0165  0831               	movf	_v+2,w
  2480  0166  00F2               	movwf	___lwmod@dividend
  2481  0167  30E8               	movlw	232
  2482  0168  00F0               	movwf	___lwmod@divisor
  2483  0169  3003               	movlw	3
  2484  016A  00F1               	movwf	___lwmod@divisor+1
  2485  016B  3183  23ED  3180   	fcall	___lwmod
  2486  016E  0871               	movf	?___lwmod+1,w
  2487  016F  00F9               	movwf	___lwdiv@dividend+1
  2488  0170  0870               	movf	?___lwmod,w
  2489  0171  00F8               	movwf	___lwdiv@dividend
  2490  0172  3183  2360  3180   	fcall	___lwdiv
  2491  0175  0876               	movf	?___lwdiv,w
  2492  0176  3E30               	addlw	48
  2493  0177  3185  2569  3180   	fcall	_tx_send
  2494                           
  2495                           ;PIC16F1827-ChargeStation3-01.c: 136: tx_send((v[1] % 100) / 10 + '0');
  2496  017A  300A               	movlw	10
  2497  017B  00F6               	movwf	___lwdiv@divisor
  2498  017C  3000               	movlw	0
  2499  017D  00F7               	movwf	___lwdiv@divisor+1
  2500  017E  0020               	movlb	0	; select bank0
  2501  017F  0832               	movf	_v+3,w
  2502  0180  00F3               	movwf	___lwmod@dividend+1
  2503  0181  0831               	movf	_v+2,w
  2504  0182  00F2               	movwf	___lwmod@dividend
  2505  0183  3064               	movlw	100
  2506  0184  00F0               	movwf	___lwmod@divisor
  2507  0185  3000               	movlw	0
  2508  0186  00F1               	movwf	___lwmod@divisor+1
  2509  0187  3183  23ED  3180   	fcall	___lwmod
  2510  018A  0871               	movf	?___lwmod+1,w
  2511  018B  00F9               	movwf	___lwdiv@dividend+1
  2512  018C  0870               	movf	?___lwmod,w
  2513  018D  00F8               	movwf	___lwdiv@dividend
  2514  018E  3183  2360  3180   	fcall	___lwdiv
  2515  0191  0876               	movf	?___lwdiv,w
  2516  0192  3E30               	addlw	48
  2517  0193  3185  2569  3180   	fcall	_tx_send
  2518                           
  2519                           ;PIC16F1827-ChargeStation3-01.c: 137: tx_send((v[1] % 10) / 1 + '0');
  2520  0196  300A               	movlw	10
  2521  0197  00F0               	movwf	___lwmod@divisor
  2522  0198  3000               	movlw	0
  2523  0199  00F1               	movwf	___lwmod@divisor+1
  2524  019A  0020               	movlb	0	; select bank0
  2525  019B  0832               	movf	_v+3,w
  2526  019C  00F3               	movwf	___lwmod@dividend+1
  2527  019D  0831               	movf	_v+2,w
  2528  019E  00F2               	movwf	___lwmod@dividend
  2529  019F  3183  23ED  3180   	fcall	___lwmod
  2530  01A2  0870               	movf	?___lwmod,w
  2531  01A3  3E30               	addlw	48
  2532  01A4  3185  2569  3180   	fcall	_tx_send
  2533                           
  2534                           ;PIC16F1827-ChargeStation3-01.c: 138: tx_send('m');
  2535  01A7  306D               	movlw	109
  2536  01A8  3185  2569  3180   	fcall	_tx_send
  2537                           
  2538                           ;PIC16F1827-ChargeStation3-01.c: 139: tx_send('A');
  2539  01AB  3041               	movlw	65
  2540  01AC  3185  2569  3180   	fcall	_tx_send
  2541                           
  2542                           ;PIC16F1827-ChargeStation3-01.c: 140: tx_send('\n');
  2543  01AF  300A               	movlw	10
  2544  01B0  3185  2569  3180   	fcall	_tx_send
  2545                           
  2546                           ;PIC16F1827-ChargeStation3-01.c: 142: tx_send('P');
  2547  01B3  3050               	movlw	80
  2548  01B4  3185  2569  3180   	fcall	_tx_send
  2549                           
  2550                           ;PIC16F1827-ChargeStation3-01.c: 143: tx_send('2');
  2551  01B7  3032               	movlw	50
  2552  01B8  3185  2569  3180   	fcall	_tx_send
  2553                           
  2554                           ;PIC16F1827-ChargeStation3-01.c: 144: tx_send(' ');
  2555  01BB  3020               	movlw	32
  2556  01BC  3185  2569  3180   	fcall	_tx_send
  2557                           
  2558                           ;PIC16F1827-ChargeStation3-01.c: 145: tx_send((v[2] % 10000) / 1000 + '0');
  2559  01BF  30E8               	movlw	232
  2560  01C0  00F6               	movwf	___lwdiv@divisor
  2561  01C1  3003               	movlw	3
  2562  01C2  00F7               	movwf	___lwdiv@divisor+1
  2563  01C3  0020               	movlb	0	; select bank0
  2564  01C4  0834               	movf	_v+5,w
  2565  01C5  00F3               	movwf	___lwmod@dividend+1
  2566  01C6  0833               	movf	_v+4,w
  2567  01C7  00F2               	movwf	___lwmod@dividend
  2568  01C8  3010               	movlw	16
  2569  01C9  00F0               	movwf	___lwmod@divisor
  2570  01CA  3027               	movlw	39
  2571  01CB  00F1               	movwf	___lwmod@divisor+1
  2572  01CC  3183  23ED  3180   	fcall	___lwmod
  2573  01CF  0871               	movf	?___lwmod+1,w
  2574  01D0  00F9               	movwf	___lwdiv@dividend+1
  2575  01D1  0870               	movf	?___lwmod,w
  2576  01D2  00F8               	movwf	___lwdiv@dividend
  2577  01D3  3183  2360  3180   	fcall	___lwdiv
  2578  01D6  0876               	movf	?___lwdiv,w
  2579  01D7  3E30               	addlw	48
  2580  01D8  3185  2569  3180   	fcall	_tx_send
  2581                           
  2582                           ;PIC16F1827-ChargeStation3-01.c: 146: tx_send((v[2] % 1000) / 100 + '0');
  2583  01DB  3064               	movlw	100
  2584  01DC  00F6               	movwf	___lwdiv@divisor
  2585  01DD  3000               	movlw	0
  2586  01DE  00F7               	movwf	___lwdiv@divisor+1
  2587  01DF  0020               	movlb	0	; select bank0
  2588  01E0  0834               	movf	_v+5,w
  2589  01E1  00F3               	movwf	___lwmod@dividend+1
  2590  01E2  0833               	movf	_v+4,w
  2591  01E3  00F2               	movwf	___lwmod@dividend
  2592  01E4  30E8               	movlw	232
  2593  01E5  00F0               	movwf	___lwmod@divisor
  2594  01E6  3003               	movlw	3
  2595  01E7  00F1               	movwf	___lwmod@divisor+1
  2596  01E8  3183  23ED  3180   	fcall	___lwmod
  2597  01EB  0871               	movf	?___lwmod+1,w
  2598  01EC  00F9               	movwf	___lwdiv@dividend+1
  2599  01ED  0870               	movf	?___lwmod,w
  2600  01EE  00F8               	movwf	___lwdiv@dividend
  2601  01EF  3183  2360  3180   	fcall	___lwdiv
  2602  01F2  0876               	movf	?___lwdiv,w
  2603  01F3  3E30               	addlw	48
  2604  01F4  3185  2569  3180   	fcall	_tx_send
  2605                           
  2606                           ;PIC16F1827-ChargeStation3-01.c: 147: tx_send((v[2] % 100) / 10 + '0');
  2607  01F7  300A               	movlw	10
  2608  01F8  00F6               	movwf	___lwdiv@divisor
  2609  01F9  3000               	movlw	0
  2610  01FA  00F7               	movwf	___lwdiv@divisor+1
  2611  01FB  0020               	movlb	0	; select bank0
  2612  01FC  0834               	movf	_v+5,w
  2613  01FD  00F3               	movwf	___lwmod@dividend+1
  2614  01FE  0833               	movf	_v+4,w
  2615  01FF  00F2               	movwf	___lwmod@dividend
  2616  0200  3064               	movlw	100
  2617  0201  00F0               	movwf	___lwmod@divisor
  2618  0202  3000               	movlw	0
  2619  0203  00F1               	movwf	___lwmod@divisor+1
  2620  0204  3183  23ED  3180   	fcall	___lwmod
  2621  0207  0871               	movf	?___lwmod+1,w
  2622  0208  00F9               	movwf	___lwdiv@dividend+1
  2623  0209  0870               	movf	?___lwmod,w
  2624  020A  00F8               	movwf	___lwdiv@dividend
  2625  020B  3183  2360  3180   	fcall	___lwdiv
  2626  020E  0876               	movf	?___lwdiv,w
  2627  020F  3E30               	addlw	48
  2628  0210  3185  2569  3180   	fcall	_tx_send
  2629                           
  2630                           ;PIC16F1827-ChargeStation3-01.c: 148: tx_send((v[2] % 10) / 1 + '0');
  2631  0213  300A               	movlw	10
  2632  0214  00F0               	movwf	___lwmod@divisor
  2633  0215  3000               	movlw	0
  2634  0216  00F1               	movwf	___lwmod@divisor+1
  2635  0217  0020               	movlb	0	; select bank0
  2636  0218  0834               	movf	_v+5,w
  2637  0219  00F3               	movwf	___lwmod@dividend+1
  2638  021A  0833               	movf	_v+4,w
  2639  021B  00F2               	movwf	___lwmod@dividend
  2640  021C  3183  23ED  3180   	fcall	___lwmod
  2641  021F  0870               	movf	?___lwmod,w
  2642  0220  3E30               	addlw	48
  2643  0221  3185  2569  3180   	fcall	_tx_send
  2644                           
  2645                           ;PIC16F1827-ChargeStation3-01.c: 149: tx_send('m');
  2646  0224  306D               	movlw	109
  2647  0225  3185  2569  3180   	fcall	_tx_send
  2648                           
  2649                           ;PIC16F1827-ChargeStation3-01.c: 150: tx_send('A');
  2650  0228  3041               	movlw	65
  2651  0229  3185  2569  3180   	fcall	_tx_send
  2652                           
  2653                           ;PIC16F1827-ChargeStation3-01.c: 151: tx_send('\n');
  2654  022C  300A               	movlw	10
  2655  022D  3185  2569  3180   	fcall	_tx_send
  2656                           
  2657                           ;PIC16F1827-ChargeStation3-01.c: 152: tx_send('\n');
  2658  0230  300A               	movlw	10
  2659  0231  3185  2569         	fcall	_tx_send
  2660  0233  0008               	return
  2661  0234                     __end_of_display:	
  2662                           
  2663                           	psect	text14
  2664  0569                     __ptext14:	
  2665 ;; *************** function _tx_send *****************
  2666 ;; Defined at:
  2667 ;;		line 155 in file "PIC16F1827-ChargeStation3-01.c"
  2668 ;; Parameters:    Size  Location     Type
  2669 ;;  asciicode       1    wreg     unsigned char 
  2670 ;; Auto vars:     Size  Location     Type
  2671 ;;  asciicode       1    5[COMMON] unsigned char 
  2672 ;; Return value:  Size  Location     Type
  2673 ;;		None               void
  2674 ;; Registers used:
  2675 ;;		wreg, fsr0l, fsr0h, fsr1l, fsr1h, status,2, status,0, pclath, cstack
  2676 ;; Tracked objects:
  2677 ;;		On entry : 0/0
  2678 ;;		On exit  : 0/0
  2679 ;;		Unchanged: 0/0
  2680 ;; Data sizes:     COMMON   BANK0   BANK1   BANK2   BANK3   BANK4
  2681 ;;      Params:         0       0       0       0       0       0
  2682 ;;      Locals:         1       0       0       0       0       0
  2683 ;;      Temps:          1       0       0       0       0       0
  2684 ;;      Totals:         2       0       0       0       0       0
  2685 ;;Total ram usage:        2 bytes
  2686 ;; Hardware stack levels used:    1
  2687 ;; Hardware stack levels required when called:    1
  2688 ;; This function calls:
  2689 ;;		_ringbuf_put
  2690 ;; This function is called by:
  2691 ;;		_display
  2692 ;; This function uses a non-reentrant model
  2693 ;;
  2694                           
  2695                           
  2696                           ;psect for function _tx_send
  2697  0569                     _tx_send:	
  2698                           
  2699                           ;incstack = 0
  2700                           ; Regs used in _tx_send: [wreg-fsr1h+status,2+status,0+pclath+cstack]
  2701                           ;tx_send@asciicode stored from wreg
  2702  0569  00F5               	movwf	tx_send@asciicode
  2703                           
  2704                           ;PIC16F1827-ChargeStation3-01.c: 156: ringbuf_put(&tx_buf, asciicode);
  2705  056A  0875               	movf	tx_send@asciicode,w
  2706  056B  00F4               	movwf	??_tx_send
  2707  056C  0874               	movf	??_tx_send,w
  2708  056D  00F0               	movwf	ringbuf_put@asciicode
  2709  056E  30D9               	movlw	(low (_tx_buf| 0))& (0+255)
  2710  056F  3184  2444         	fcall	_ringbuf_put
  2711                           
  2712                           ;PIC16F1827-ChargeStation3-01.c: 157: PIE1bits.TXIE = 1;
  2713  0571  0021               	movlb	1	; select bank1
  2714  0572  1611               	bsf	17,4	;volatile
  2715  0573  0008               	return
  2716  0574                     __end_of_tx_send:	
  2717                           
  2718                           	psect	text15
  2719  0444                     __ptext15:	
  2720 ;; *************** function _ringbuf_put *****************
  2721 ;; Defined at:
  2722 ;;		line 160 in file "PIC16F1827-ChargeStation3-01.c"
  2723 ;; Parameters:    Size  Location     Type
  2724 ;;  rb              1    wreg     PTR struct ringbuf
  2725 ;;		 -> tx_buf(4), 
  2726 ;;  asciicode       1    0[COMMON] unsigned char 
  2727 ;; Auto vars:     Size  Location     Type
  2728 ;;  rb              1    3[COMMON] PTR struct ringbuf
  2729 ;;		 -> tx_buf(4), 
  2730 ;; Return value:  Size  Location     Type
  2731 ;;		None               void
  2732 ;; Registers used:
  2733 ;;		wreg, fsr0l, fsr0h, fsr1l, fsr1h, status,2, status,0
  2734 ;; Tracked objects:
  2735 ;;		On entry : 0/0
  2736 ;;		On exit  : 0/0
  2737 ;;		Unchanged: 0/0
  2738 ;; Data sizes:     COMMON   BANK0   BANK1   BANK2   BANK3   BANK4
  2739 ;;      Params:         1       0       0       0       0       0
  2740 ;;      Locals:         1       0       0       0       0       0
  2741 ;;      Temps:          2       0       0       0       0       0
  2742 ;;      Totals:         4       0       0       0       0       0
  2743 ;;Total ram usage:        4 bytes
  2744 ;; Hardware stack levels used:    1
  2745 ;; This function calls:
  2746 ;;		Nothing
  2747 ;; This function is called by:
  2748 ;;		_tx_send
  2749 ;; This function uses a non-reentrant model
  2750 ;;
  2751                           
  2752                           
  2753                           ;psect for function _ringbuf_put
  2754  0444                     _ringbuf_put:	
  2755                           
  2756                           ;incstack = 0
  2757                           ; Regs used in _ringbuf_put: [wreg-fsr1h+status,2+status,0]
  2758                           ;ringbuf_put@rb stored from wreg
  2759  0444  00F3               	movwf	ringbuf_put@rb
  2760                           
  2761                           ;PIC16F1827-ChargeStation3-01.c: 161: rb->buf[rb->head] = asciicode;
  2762  0445  0870               	movf	ringbuf_put@asciicode,w
  2763  0446  00F1               	movwf	??_ringbuf_put
  2764  0447  0873               	movf	ringbuf_put@rb,w
  2765  0448  0086               	movwf	6
  2766  0449  0187               	clrf	7
  2767  044A  0873               	movf	ringbuf_put@rb,w
  2768  044B  3E02               	addlw	2
  2769  044C  0084               	movwf	4
  2770  044D  0185               	clrf	5
  2771  044E  0800               	movf	0,w
  2772  044F  0701               	addwf	1,w
  2773  0450  00F2               	movwf	??_ringbuf_put+1
  2774  0451  0872               	movf	??_ringbuf_put+1,w
  2775  0452  0086               	movwf	6
  2776  0453  0187               	clrf	7
  2777  0454  0871               	movf	??_ringbuf_put,w
  2778  0455  0081               	movwf	1
  2779                           
  2780                           ;PIC16F1827-ChargeStation3-01.c: 162: rb->head++;
  2781  0456  3001               	movlw	1
  2782  0457  00F1               	movwf	??_ringbuf_put
  2783  0458  0873               	movf	ringbuf_put@rb,w
  2784  0459  3E02               	addlw	2
  2785  045A  0086               	movwf	6
  2786  045B  0187               	clrf	7
  2787  045C  0871               	movf	??_ringbuf_put,w
  2788  045D  0781               	addwf	1,f
  2789                           
  2790                           ;PIC16F1827-ChargeStation3-01.c: 163: if (rb->head >= rb->size) {
  2791  045E  0873               	movf	ringbuf_put@rb,w
  2792  045F  3E02               	addlw	2
  2793  0460  0086               	movwf	6
  2794  0461  0187               	clrf	7
  2795  0462  0A73               	incf	ringbuf_put@rb,w
  2796  0463  0084               	movwf	4
  2797  0464  0185               	clrf	5
  2798  0465  0800               	movf	0,w
  2799  0466  0201               	subwf	1,w
  2800  0467  1C03               	skipc
  2801  0468  0008               	return
  2802                           
  2803                           ;PIC16F1827-ChargeStation3-01.c: 164: rb->head = 0;
  2804  0469  0873               	movf	ringbuf_put@rb,w
  2805  046A  3E02               	addlw	2
  2806  046B  0086               	movwf	6
  2807  046C  0187               	clrf	7
  2808  046D  0181               	clrf	1
  2809  046E  0008               	return
  2810  046F                     __end_of_ringbuf_put:	
  2811                           
  2812                           	psect	text16
  2813  03ED                     __ptext16:	
  2814 ;; *************** function ___lwmod *****************
  2815 ;; Defined at:
  2816 ;;		line 6 in file "C:\Program Files (x86)\Microchip\xc8\v1.35\sources\common\lwmod.c"
  2817 ;; Parameters:    Size  Location     Type
  2818 ;;  divisor         2    0[COMMON] unsigned int 
  2819 ;;  dividend        2    2[COMMON] unsigned int 
  2820 ;; Auto vars:     Size  Location     Type
  2821 ;;  counter         1    5[COMMON] unsigned char 
  2822 ;; Return value:  Size  Location     Type
  2823 ;;                  2    0[COMMON] unsigned int 
  2824 ;; Registers used:
  2825 ;;		wreg, status,2, status,0
  2826 ;; Tracked objects:
  2827 ;;		On entry : 0/0
  2828 ;;		On exit  : 0/0
  2829 ;;		Unchanged: 0/0
  2830 ;; Data sizes:     COMMON   BANK0   BANK1   BANK2   BANK3   BANK4
  2831 ;;      Params:         4       0       0       0       0       0
  2832 ;;      Locals:         1       0       0       0       0       0
  2833 ;;      Temps:          1       0       0       0       0       0
  2834 ;;      Totals:         6       0       0       0       0       0
  2835 ;;Total ram usage:        6 bytes
  2836 ;; Hardware stack levels used:    1
  2837 ;; This function calls:
  2838 ;;		Nothing
  2839 ;; This function is called by:
  2840 ;;		_display
  2841 ;; This function uses a non-reentrant model
  2842 ;;
  2843                           
  2844                           
  2845                           ;psect for function ___lwmod
  2846  03ED                     ___lwmod:	
  2847                           
  2848                           ;incstack = 0
  2849                           ; Regs used in ___lwmod: [wreg+status,2+status,0]
  2850  03ED  0870               	movf	___lwmod@divisor,w
  2851  03EE  0471               	iorwf	___lwmod@divisor+1,w
  2852  03EF  1903               	btfsc	3,2
  2853  03F0  2C14               	goto	i1l1125
  2854  03F1  01F5               	clrf	___lwmod@counter
  2855  03F2  0AF5               	incf	___lwmod@counter,f
  2856  03F3                     i1l1115:	
  2857  03F3  1BF1               	btfsc	___lwmod@divisor+1,7
  2858  03F4  2BFF               	goto	i1l1117
  2859  03F5  3001               	movlw	1
  2860  03F6                     u77_25:	
  2861  03F6  35F0               	lslf	___lwmod@divisor,f
  2862  03F7  0DF1               	rlf	___lwmod@divisor+1,f
  2863  03F8  0B89               	decfsz	9,f
  2864  03F9  2BF6               	goto	u77_25
  2865  03FA  3001               	movlw	1
  2866  03FB  00F4               	movwf	??___lwmod
  2867  03FC  0874               	movf	??___lwmod,w
  2868  03FD  07F5               	addwf	___lwmod@counter,f
  2869  03FE  2BF3               	goto	i1l1115
  2870  03FF                     i1l1117:	
  2871  03FF  0871               	movf	___lwmod@divisor+1,w
  2872  0400  0273               	subwf	___lwmod@dividend+1,w
  2873  0401  1D03               	skipz
  2874  0402  2C05               	goto	u79_25
  2875  0403  0870               	movf	___lwmod@divisor,w
  2876  0404  0272               	subwf	___lwmod@dividend,w
  2877  0405                     u79_25:	
  2878  0405  1C03               	skipc
  2879  0406  2C0B               	goto	i1l1121
  2880  0407  0870               	movf	___lwmod@divisor,w
  2881  0408  02F2               	subwf	___lwmod@dividend,f
  2882  0409  0871               	movf	___lwmod@divisor+1,w
  2883  040A  3BF3               	subwfb	___lwmod@dividend+1,f
  2884  040B                     i1l1121:	
  2885  040B  3001               	movlw	1
  2886  040C                     u80_25:	
  2887  040C  36F1               	lsrf	___lwmod@divisor+1,f
  2888  040D  0CF0               	rrf	___lwmod@divisor,f
  2889  040E  0B89               	decfsz	9,f
  2890  040F  2C0C               	goto	u80_25
  2891  0410  3001               	movlw	1
  2892  0411  02F5               	subwf	___lwmod@counter,f
  2893  0412  1D03               	btfss	3,2
  2894  0413  2BFF               	goto	i1l1117
  2895  0414                     i1l1125:	
  2896  0414  0873               	movf	___lwmod@dividend+1,w
  2897  0415  00F1               	movwf	?___lwmod+1
  2898  0416  0872               	movf	___lwmod@dividend,w
  2899  0417  00F0               	movwf	?___lwmod
  2900  0418  0008               	return
  2901  0419                     __end_of___lwmod:	
  2902                           
  2903                           	psect	text17
  2904  0360                     __ptext17:	
  2905 ;; *************** function ___lwdiv *****************
  2906 ;; Defined at:
  2907 ;;		line 6 in file "C:\Program Files (x86)\Microchip\xc8\v1.35\sources\common\lwdiv.c"
  2908 ;; Parameters:    Size  Location     Type
  2909 ;;  divisor         2    6[COMMON] unsigned int 
  2910 ;;  dividend        2    8[COMMON] unsigned int 
  2911 ;; Auto vars:     Size  Location     Type
  2912 ;;  quotient        2   11[COMMON] unsigned int 
  2913 ;;  counter         1   13[COMMON] unsigned char 
  2914 ;; Return value:  Size  Location     Type
  2915 ;;                  2    6[COMMON] unsigned int 
  2916 ;; Registers used:
  2917 ;;		wreg, status,2, status,0
  2918 ;; Tracked objects:
  2919 ;;		On entry : 0/0
  2920 ;;		On exit  : 0/0
  2921 ;;		Unchanged: 0/0
  2922 ;; Data sizes:     COMMON   BANK0   BANK1   BANK2   BANK3   BANK4
  2923 ;;      Params:         4       0       0       0       0       0
  2924 ;;      Locals:         3       0       0       0       0       0
  2925 ;;      Temps:          1       0       0       0       0       0
  2926 ;;      Totals:         8       0       0       0       0       0
  2927 ;;Total ram usage:        8 bytes
  2928 ;; Hardware stack levels used:    1
  2929 ;; This function calls:
  2930 ;;		Nothing
  2931 ;; This function is called by:
  2932 ;;		_lchika
  2933 ;;		_display
  2934 ;; This function uses a non-reentrant model
  2935 ;;
  2936                           
  2937                           
  2938                           ;psect for function ___lwdiv
  2939  0360                     ___lwdiv:	
  2940                           
  2941                           ;incstack = 0
  2942                           ; Regs used in ___lwdiv: [wreg+status,2+status,0]
  2943  0360  01FB               	clrf	___lwdiv@quotient
  2944  0361  01FC               	clrf	___lwdiv@quotient+1
  2945  0362  0876               	movf	___lwdiv@divisor,w
  2946  0363  0477               	iorwf	___lwdiv@divisor+1,w
  2947  0364  1903               	btfsc	3,2
  2948  0365  2B8F               	goto	i1l1103
  2949  0366  01FD               	clrf	___lwdiv@counter
  2950  0367  0AFD               	incf	___lwdiv@counter,f
  2951  0368                     i1l1091:	
  2952  0368  1BF7               	btfsc	___lwdiv@divisor+1,7
  2953  0369  2B74               	goto	i1l1093
  2954  036A  3001               	movlw	1
  2955  036B                     u70_25:	
  2956  036B  35F6               	lslf	___lwdiv@divisor,f
  2957  036C  0DF7               	rlf	___lwdiv@divisor+1,f
  2958  036D  0B89               	decfsz	9,f
  2959  036E  2B6B               	goto	u70_25
  2960  036F  3001               	movlw	1
  2961  0370  00FA               	movwf	??___lwdiv
  2962  0371  087A               	movf	??___lwdiv,w
  2963  0372  07FD               	addwf	___lwdiv@counter,f
  2964  0373  2B68               	goto	i1l1091
  2965  0374                     i1l1093:	
  2966  0374  3001               	movlw	1
  2967  0375                     u72_25:	
  2968  0375  35FB               	lslf	___lwdiv@quotient,f
  2969  0376  0DFC               	rlf	___lwdiv@quotient+1,f
  2970  0377  0B89               	decfsz	9,f
  2971  0378  2B75               	goto	u72_25
  2972  0379  0877               	movf	___lwdiv@divisor+1,w
  2973  037A  0279               	subwf	___lwdiv@dividend+1,w
  2974  037B  1D03               	skipz
  2975  037C  2B7F               	goto	u73_25
  2976  037D  0876               	movf	___lwdiv@divisor,w
  2977  037E  0278               	subwf	___lwdiv@dividend,w
  2978  037F                     u73_25:	
  2979  037F  1C03               	skipc
  2980  0380  2B86               	goto	i1l1099
  2981  0381  0876               	movf	___lwdiv@divisor,w
  2982  0382  02F8               	subwf	___lwdiv@dividend,f
  2983  0383  0877               	movf	___lwdiv@divisor+1,w
  2984  0384  3BF9               	subwfb	___lwdiv@dividend+1,f
  2985  0385  147B               	bsf	___lwdiv@quotient,0
  2986  0386                     i1l1099:	
  2987  0386  3001               	movlw	1
  2988  0387                     u74_25:	
  2989  0387  36F7               	lsrf	___lwdiv@divisor+1,f
  2990  0388  0CF6               	rrf	___lwdiv@divisor,f
  2991  0389  0B89               	decfsz	9,f
  2992  038A  2B87               	goto	u74_25
  2993  038B  3001               	movlw	1
  2994  038C  02FD               	subwf	___lwdiv@counter,f
  2995  038D  1D03               	btfss	3,2
  2996  038E  2B74               	goto	i1l1093
  2997  038F                     i1l1103:	
  2998  038F  087C               	movf	___lwdiv@quotient+1,w
  2999  0390  00F7               	movwf	?___lwdiv+1
  3000  0391  087B               	movf	___lwdiv@quotient,w
  3001  0392  00F6               	movwf	?___lwdiv
  3002  0393  0008               	return
  3003  0394                     __end_of___lwdiv:	
  3004                           
  3005                           	psect	text18
  3006  051B                     __ptext18:	
  3007 ;; *************** function _adc *****************
  3008 ;; Defined at:
  3009 ;;		line 192 in file "PIC16F1827-ChargeStation3-01.c"
  3010 ;; Parameters:    Size  Location     Type
  3011 ;;  ch              1    wreg     unsigned char 
  3012 ;; Auto vars:     Size  Location     Type
  3013 ;;  ch              1    3[COMMON] unsigned char 
  3014 ;; Return value:  Size  Location     Type
  3015 ;;                  2    0[COMMON] unsigned int 
  3016 ;; Registers used:
  3017 ;;		wreg, status,2, status,0
  3018 ;; Tracked objects:
  3019 ;;		On entry : 0/0
  3020 ;;		On exit  : 0/0
  3021 ;;		Unchanged: 0/0
  3022 ;; Data sizes:     COMMON   BANK0   BANK1   BANK2   BANK3   BANK4
  3023 ;;      Params:         2       0       0       0       0       0
  3024 ;;      Locals:         1       0       0       0       0       0
  3025 ;;      Temps:          1       0       0       0       0       0
  3026 ;;      Totals:         4       0       0       0       0       0
  3027 ;;Total ram usage:        4 bytes
  3028 ;; Hardware stack levels used:    1
  3029 ;; This function calls:
  3030 ;;		Nothing
  3031 ;; This function is called by:
  3032 ;;		_isr
  3033 ;; This function uses a non-reentrant model
  3034 ;;
  3035                           
  3036                           
  3037                           ;psect for function _adc
  3038  051B                     _adc:	
  3039                           
  3040                           ;incstack = 0
  3041                           ; Regs used in _adc: [wreg+status,2+status,0]
  3042                           ;adc@ch stored from wreg
  3043  051B  00F3               	movwf	adc@ch
  3044                           
  3045                           ;PIC16F1827-ChargeStation3-01.c: 193: ADCON0bits.ADON = 1;
  3046  051C  0021               	movlb	1	; select bank1
  3047  051D  141D               	bsf	29,0	;volatile
  3048                           
  3049                           ;PIC16F1827-ChargeStation3-01.c: 194: ADCON0bits.CHS = 2 - ch;
  3050  051E  0373               	decf	adc@ch,w
  3051  051F  3AFF               	xorlw	255
  3052  0520  3E02               	addlw	2
  3053  0521  00F2               	movwf	??_adc
  3054  0522  0DF2               	rlf	??_adc,f
  3055  0523  0DF2               	rlf	??_adc,f
  3056  0524  081D               	movf	29,w	;volatile
  3057  0525  0672               	xorwf	??_adc,w
  3058  0526  3983               	andlw	-125
  3059  0527  0672               	xorwf	??_adc,w
  3060  0528  009D               	movwf	29	;volatile
  3061                           
  3062                           ;PIC16F1827-ChargeStation3-01.c: 195: _delay((unsigned long)((20)*(32000000/4000000.0)))
      +                          ;
  3063  0529  3035               	movlw	53
  3064  052A  00F2               	movwf	??_adc
  3065  052B                     u133_27:	
  3066  052B  0BF2               	decfsz	??_adc,f
  3067  052C  2D2B               	goto	u133_27
  3068                           
  3069                           ;PIC16F1827-ChargeStation3-01.c: 196: ADCON0bits.GO_nDONE = 1;
  3070  052D  0021               	movlb	1	; select bank1
  3071  052E  149D               	bsf	29,1	;volatile
  3072  052F                     i1l137:	
  3073                           ;PIC16F1827-ChargeStation3-01.c: 197: while (ADCON0bits.GO_nDONE);
  3074                           
  3075  052F  189D               	btfsc	29,1	;volatile
  3076  0530  2D2F               	goto	i1l137
  3077                           
  3078                           ;PIC16F1827-ChargeStation3-01.c: 198: return ADRES;
  3079  0531  081C               	movf	28,w	;volatile
  3080  0532  00F1               	movwf	?_adc+1
  3081  0533  081B               	movf	27,w	;volatile
  3082  0534  00F0               	movwf	?_adc
  3083  0535  0008               	return
  3084  0536                     __end_of_adc:	
  3085                           
  3086                           	psect	text19
  3087  0536                     __ptext19:	
  3088 ;; *************** function ___wmul *****************
  3089 ;; Defined at:
  3090 ;;		line 15 in file "C:\Program Files (x86)\Microchip\xc8\v1.35\sources\common\Umul16.c"
  3091 ;; Parameters:    Size  Location     Type
  3092 ;;  multiplier      2    4[COMMON] unsigned int 
  3093 ;;  multiplicand    2    6[COMMON] unsigned int 
  3094 ;; Auto vars:     Size  Location     Type
  3095 ;;  product         2    8[COMMON] unsigned int 
  3096 ;; Return value:  Size  Location     Type
  3097 ;;                  2    4[COMMON] unsigned int 
  3098 ;; Registers used:
  3099 ;;		wreg, status,2, status,0
  3100 ;; Tracked objects:
  3101 ;;		On entry : 0/0
  3102 ;;		On exit  : 0/0
  3103 ;;		Unchanged: 0/0
  3104 ;; Data sizes:     COMMON   BANK0   BANK1   BANK2   BANK3   BANK4
  3105 ;;      Params:         4       0       0       0       0       0
  3106 ;;      Locals:         2       0       0       0       0       0
  3107 ;;      Temps:          0       0       0       0       0       0
  3108 ;;      Totals:         6       0       0       0       0       0
  3109 ;;Total ram usage:        6 bytes
  3110 ;; Hardware stack levels used:    1
  3111 ;; This function calls:
  3112 ;;		Nothing
  3113 ;; This function is called by:
  3114 ;;		_isr
  3115 ;; This function uses a non-reentrant model
  3116 ;;
  3117                           
  3118                           
  3119                           ;psect for function ___wmul
  3120  0536                     ___wmul:	
  3121                           
  3122                           ;incstack = 0
  3123                           ; Regs used in ___wmul: [wreg+status,2+status,0]
  3124  0536  01F8               	clrf	___wmul@product
  3125  0537  01F9               	clrf	___wmul@product+1
  3126  0538                     i1l1293:	
  3127  0538  1C74               	btfss	___wmul@multiplier,0
  3128  0539  2D3E               	goto	i1l271
  3129  053A  0876               	movf	___wmul@multiplicand,w
  3130  053B  07F8               	addwf	___wmul@product,f
  3131  053C  0877               	movf	___wmul@multiplicand+1,w
  3132  053D  3DF9               	addwfc	___wmul@product+1,f
  3133  053E                     i1l271:	
  3134  053E  3001               	movlw	1
  3135  053F                     u96_25:	
  3136  053F  35F6               	lslf	___wmul@multiplicand,f
  3137  0540  0DF7               	rlf	___wmul@multiplicand+1,f
  3138  0541  0B89               	decfsz	9,f
  3139  0542  2D3F               	goto	u96_25
  3140  0543  3001               	movlw	1
  3141  0544                     u97_25:	
  3142  0544  36F5               	lsrf	___wmul@multiplier+1,f
  3143  0545  0CF4               	rrf	___wmul@multiplier,f
  3144  0546  0B89               	decfsz	9,f
  3145  0547  2D44               	goto	u97_25
  3146  0548  0874               	movf	___wmul@multiplier,w
  3147  0549  0475               	iorwf	___wmul@multiplier+1,w
  3148  054A  1D03               	btfss	3,2
  3149  054B  2D38               	goto	i1l1293
  3150  054C  0879               	movf	___wmul@product+1,w
  3151  054D  00F5               	movwf	?___wmul+1
  3152  054E  0878               	movf	___wmul@product,w
  3153  054F  00F4               	movwf	?___wmul
  3154  0550  0008               	return
  3155  0551                     __end_of___wmul:	
  3156  007E                     btemp	set	126	;btemp
  3157  007E                     int$flags	set	126
  3158  007E                     wtemp	set	126
  3159  007E                     wtemp0	set	126
  3160  0080                     wtemp1	set	128
  3161  0082                     wtemp2	set	130
  3162  0084                     wtemp3	set	132
  3163  0086                     wtemp4	set	134
  3164  0088                     wtemp5	set	136
  3165  007F                     wtemp6	set	127
  3166  007E                     ttemp	set	126
  3167  007E                     ttemp0	set	126
  3168  0081                     ttemp1	set	129
  3169  0084                     ttemp2	set	132
  3170  0087                     ttemp3	set	135
  3171  007F                     ttemp4	set	127
  3172  007E                     ltemp	set	126
  3173  007E                     ltemp0	set	126
  3174  0082                     ltemp1	set	130
  3175  0086                     ltemp2	set	134
  3176  0080                     ltemp3	set	128


Data Sizes:
    Strings     0
    Constant    0
    Data        0
    BSS         24
    Persistent  0
    Stack       0

Auto Spaces:
    Space          Size  Autos    Used
    COMMON           14     14      14
    BANK0            80     15      29
    BANK1            80     51      61
    BANK2            80      0       0
    BANK3            80      0       0
    BANK4            48      0       0

Pointer List with Targets:

    init_ringbuf@rb.buf	PTR unsigned char  size(1) Largest target is 50
		 -> main@ringbuf(BANK1[50]), 

    init_ringbuf@internal_buf	PTR unsigned char  size(1) Largest target is 50
		 -> main@ringbuf(BANK1[50]), 

    init_ringbuf@rb	PTR struct ringbuf size(1) Largest target is 5
		 -> tx_buf(BANK1[4]), 

    ringbuf_num@rb.buf	PTR unsigned char  size(1) Largest target is 50
		 -> main@ringbuf(BANK1[50]), 

    ringbuf_num@rb	PTR struct ringbuf size(1) Largest target is 5
		 -> tx_buf(BANK1[4]), 

    ringbuf_pop@rb.buf	PTR unsigned char  size(1) Largest target is 50
		 -> main@ringbuf(BANK1[50]), 

    ringbuf_pop@rb	PTR struct ringbuf size(1) Largest target is 5
		 -> tx_buf(BANK1[4]), 

    ringbuf_put@rb.buf	PTR unsigned char  size(1) Largest target is 50
		 -> main@ringbuf(BANK1[50]), 

    ringbuf_put@rb	PTR struct ringbuf size(1) Largest target is 5
		 -> tx_buf(BANK1[4]), 

    S19ringbuf$buf	PTR unsigned char  size(1) Largest target is 50
		 -> main@ringbuf(BANK1[50]), 

    tx_buf.buf	PTR unsigned char  size(1) Largest target is 50
		 -> main@ringbuf(BANK1[50]), 


Critical Paths under _main in COMMON

    None.

Critical Paths under _isr in COMMON

    _lchika->___lwdiv
    _display->___lwdiv
    _tx_send->_ringbuf_put
    ___lwdiv->___lwmod
    ___wmul->_adc

Critical Paths under _main in BANK0

    _main->_init_ringbuf

Critical Paths under _isr in BANK0

    _isr->_lchika

Critical Paths under _main in BANK1

    None.

Critical Paths under _isr in BANK1

    None.

Critical Paths under _main in BANK2

    None.

Critical Paths under _isr in BANK2

    None.

Critical Paths under _main in BANK3

    None.

Critical Paths under _isr in BANK3

    None.

Critical Paths under _main in BANK4

    None.

Critical Paths under _isr in BANK4

    None.

Call Graph Tables:

 ---------------------------------------------------------------------------------
 (Depth) Function   	        Calls       Base Space   Used Autos Params    Refs
 ---------------------------------------------------------------------------------
 (0) _main                                                53    53      0    1702
                                             13 BANK0      2     2      0
                                              0 BANK1     51    51      0
                                _LED
                                _OUT
                                 _SW
                       _init_ringbuf
                          _main_init
 ---------------------------------------------------------------------------------
 (1) _main_init                                            0     0      0       0
 ---------------------------------------------------------------------------------
 (1) _init_ringbuf                                         4     2      2     373
                                              9 BANK0      4     2      2
 ---------------------------------------------------------------------------------
 (1) _SW                                                   3     3      0      65
                                              9 BANK0      3     3      0
 ---------------------------------------------------------------------------------
 (1) _OUT                                                  2     1      1     474
                                              9 BANK0      2     1      1
 ---------------------------------------------------------------------------------
 (1) _LED                                                  2     1      1     558
                                              9 BANK0      2     1      1
 ---------------------------------------------------------------------------------
 Estimated maximum stack depth 1
 ---------------------------------------------------------------------------------
 (Depth) Function   	        Calls       Base Space   Used Autos Params    Refs
 ---------------------------------------------------------------------------------
 (2) _isr                                                  4     4      0    6897
                                              5 BANK0      4     4      0
                             ___wmul
                                _adc
                            _display
                             _lchika
                        _ringbuf_num
                        _ringbuf_pop
                              i1_OUT
 ---------------------------------------------------------------------------------
 (3) i1_OUT                                                2     1      1     114
                                              0 COMMON     2     1      1
 ---------------------------------------------------------------------------------
 (3) _ringbuf_pop                                          4     4      0     253
                                              0 COMMON     4     4      0
 ---------------------------------------------------------------------------------
 (3) _ringbuf_num                                          2     2      0     184
                                              0 COMMON     2     2      0
 ---------------------------------------------------------------------------------
 (3) _lchika                                               5     5      0    2324
                                              0 BANK0      5     5      0
                            ___awdiv
                            ___lwdiv
                              i1_LED
 ---------------------------------------------------------------------------------
 (4) i1_LED                                                2     1      1     166
                                              0 COMMON     2     1      1
 ---------------------------------------------------------------------------------
 (4) ___awdiv                                              9     5      4     428
                                              0 COMMON     9     5      4
 ---------------------------------------------------------------------------------
 (3) _display                                              0     0      0    3495
                            ___lwdiv
                            ___lwmod
                            _tx_send
 ---------------------------------------------------------------------------------
 (4) _tx_send                                              2     2      0     358
                                              4 COMMON     2     2      0
                        _ringbuf_put
 ---------------------------------------------------------------------------------
 (5) _ringbuf_put                                          4     3      1     327
                                              0 COMMON     4     3      1
 ---------------------------------------------------------------------------------
 (4) ___lwmod                                              6     2      4    1695
                                              0 COMMON     6     2      4
 ---------------------------------------------------------------------------------
 (4) ___lwdiv                                              8     4      4    1442
                                              6 COMMON     8     4      4
                            ___lwmod (ARG)
 ---------------------------------------------------------------------------------
 (3) _adc                                                  4     2      2      22
                                              0 COMMON     4     2      2
 ---------------------------------------------------------------------------------
 (3) ___wmul                                               6     2      4     220
                                              4 COMMON     6     2      4
                                _adc (ARG)
 ---------------------------------------------------------------------------------
 Estimated maximum stack depth 5
 ---------------------------------------------------------------------------------

 Call Graph Graphs:

 _main (ROOT)
   _LED
   _OUT
   _SW
   _init_ringbuf
   _main_init

 _isr (ROOT)
   ___wmul
     _adc (ARG)
   _adc
   _display
     ___lwdiv
       ___lwmod (ARG)
     ___lwmod
     _tx_send
       _ringbuf_put
   _lchika
     ___awdiv
     ___lwdiv
       ___lwmod (ARG)
     i1_LED
   _ringbuf_num
   _ringbuf_pop
   i1_OUT

 Address spaces:
Name               Size   Autos  Total    Cost      Usage
BIGRAM             170      0       0       0        0.0%
EEDATA             100      0       0       0        0.0%
NULL                 0      0       0       0        0.0%
CODE                 0      0       0       0        0.0%
BITCOMMON            E      0       0       1        0.0%
BITSFR0              0      0       0       1        0.0%
SFR0                 0      0       0       1        0.0%
COMMON               E      E       E       2      100.0%
BITSFR1              0      0       0       2        0.0%
SFR1                 0      0       0       2        0.0%
BITSFR2              0      0       0       3        0.0%
SFR2                 0      0       0       3        0.0%
STACK                0      0       0       3        0.0%
BITSFR3              0      0       0       4        0.0%
SFR3                 0      0       0       4        0.0%
ABS                  0      0      68       4        0.0%
BITBANK0            50      0       0       5        0.0%
BITSFR4              0      0       0       5        0.0%
SFR4                 0      0       0       5        0.0%
BANK0               50      F      1D       6       36.3%
BITSFR5              0      0       0       6        0.0%
SFR5                 0      0       0       6        0.0%
BITBANK1            50      0       0       7        0.0%
BITSFR6              0      0       0       7        0.0%
SFR6                 0      0       0       7        0.0%
BANK1               50     33      3D       8       76.3%
BITSFR7              0      0       0       8        0.0%
SFR7                 0      0       0       8        0.0%
BITBANK2            50      0       0       9        0.0%
BITSFR8              0      0       0       9        0.0%
SFR8                 0      0       0       9        0.0%
BANK2               50      0       0      10        0.0%
BITSFR9              0      0       0      10        0.0%
SFR9                 0      0       0      10        0.0%
BITBANK3            50      0       0      11        0.0%
BITSFR10             0      0       0      11        0.0%
SFR10                0      0       0      11        0.0%
BANK3               50      0       0      12        0.0%
BITSFR11             0      0       0      12        0.0%
SFR11                0      0       0      12        0.0%
BITBANK4            30      0       0      13        0.0%
BITSFR12             0      0       0      13        0.0%
SFR12                0      0       0      13        0.0%
BANK4               30      0       0      14        0.0%
BITSFR13             0      0       0      14        0.0%
SFR13                0      0       0      14        0.0%
BITSFR14             0      0       0      15        0.0%
SFR14                0      0       0      15        0.0%
DATA                 0      0      68      15        0.0%
BITSFR15             0      0       0      16        0.0%
SFR15                0      0       0      16        0.0%
BITSFR16             0      0       0      17        0.0%
SFR16                0      0       0      17        0.0%
BITSFR17             0      0       0      18        0.0%
SFR17                0      0       0      18        0.0%
BITSFR18             0      0       0      19        0.0%
SFR18                0      0       0      19        0.0%
BITSFR19             0      0       0      20        0.0%
SFR19                0      0       0      20        0.0%
BITSFR20             0      0       0      21        0.0%
SFR20                0      0       0      21        0.0%
BITSFR21             0      0       0      22        0.0%
SFR21                0      0       0      22        0.0%
BITSFR22             0      0       0      23        0.0%
SFR22                0      0       0      23        0.0%
BITSFR23             0      0       0      24        0.0%
SFR23                0      0       0      24        0.0%
BITSFR24             0      0       0      25        0.0%
SFR24                0      0       0      25        0.0%
BITSFR25             0      0       0      26        0.0%
SFR25                0      0       0      26        0.0%
BITSFR26             0      0       0      27        0.0%
SFR26                0      0       0      27        0.0%
BITSFR27             0      0       0      28        0.0%
SFR27                0      0       0      28        0.0%
BITSFR28             0      0       0      29        0.0%
SFR28                0      0       0      29        0.0%
BITSFR29             0      0       0      30        0.0%
SFR29                0      0       0      30        0.0%
BITSFR30             0      0       0      31        0.0%
SFR30                0      0       0      31        0.0%
BITSFR31             0      0       0      32        0.0%
SFR31                0      0       0      32        0.0%


Microchip Technology PIC Macro Assembler V1.35 build -356382666 
Symbol Table                                                                                   Mon Nov 16 18:45:16 2015

                       _v 002F               __CFG_CP$OFF 0000                        _SW 0551  
            ___awdiv@sign 0076       ___wmul@multiplicand 0076                       ?_SW 0070  
                     l152 04AE                       l145 04A0                       l155 04BB  
                     l164 04FF                       l149 04A7                       SW@b 002A  
                     _LED 04DF              __CFG_CPD$OFF 0000                       _OUT 0498  
                     _adc 051B                       _cnt 0035                       _cut 00D3  
                     _isr 0004              __CFG_BORV$LO 0000                       wreg 0009  
                    ??_SW 0029              __CFG_LVP$OFF 0000                      LED@b 002A  
                    ?_LED 0029                      ?_OUT 0029                      ?_adc 0070  
                    l1421 049B                      l1441 04E2                      l1425 04A2  
                    l1443 04E8                      l1435 04B0                      l1445 04EE  
                    l1429 04A9                      l1449 04F4                      l1561 02E3  
                    l1467 0567                      l1573 0308                      OUT@b 002A  
                    ?_isr 0070                      u1194 055F                      u1195 055E  
                    i1l91 0023                      i1l92 0021                      i1l94 008A  
                    _SPEN 0CEF              __CFG_WRT$OFF 0000                      _cnt0 003B  
                    _cntf 0038                      _main 02A9               main@ringbuf 00A0  
                    fsr0h 0005                      fsr1h 0007                      fsr0l 0004  
                    indf0 0000                      indf1 0001                      fsr1l 0006  
                    btemp 007E                      isr@i 0028                      ltemp 007E  
                    start 00A4                      ttemp 007E                      wtemp 007E  
           __CFG_IESO$OFF 0000                     ??_LED 002A                     ??_OUT 002A  
                   ??_adc 0072                     ??_isr 0025             __CFG_PLLEN$ON 0000  
                   ?_main 0070           __end_of___awdiv 0360                     _ADRES 009B  
                   _BRG16 0CFB             __CFG_WDTE$OFF 0000           ___awdiv@divisor 0070  
                   _T1CON 0018           __end_of___lwdiv 0394                     i1l102 009F  
                   i1l152 0489                     i1l137 052F                     i1l145 0477  
                   i1l155 0497                     i1l164 04DE                     i1l149 0480  
                   i1l271 053E           __end_of___lwmod 0419           ___awdiv@counter 0075  
                   i1_LED 04BC                     _RCSTA 019D                     i1_OUT 046F  
                   _TMR1H 0017                     _TMR1L 0016                     _PORTA 000C  
                   u70_25 036B                     u62_25 032F                     u72_25 0375  
                   u80_25 040C                     u64_25 0339                     _TRISA 008C  
                   _TRISB 008D                     u73_25 037F                     u65_25 0343  
                   u74_25 0387                     u66_25 034B                     u90_25 027C  
                   u77_25 03F6                     u79_25 0405                     u96_25 053F  
                   _TXREG 019A                     u97_25 0544                     _TXSTA 019E  
          __CFG_FCMEN$OFF 0000           __end_of_display 0234                     adc@ch 0073  
                   main@i 00D2            __CFG_BOREN$OFF 0000                     ltemp0 007E  
                   ltemp1 0082                     ltemp2 0086                     ltemp3 0080  
                   ttemp0 007E                     ttemp1 0081                     ttemp2 0084  
                   ttemp3 0087                     ttemp4 007F                     status 0003  
                   wtemp0 007E                     wtemp1 0080                     wtemp2 0082  
                   wtemp3 0084                     wtemp4 0086                     wtemp5 0088  
                   wtemp6 007F           __end_of_tx_send 0574            __CFG_MCLRE$OFF 0000  
         __initialization 00A6              __end_of_main 030F                    ??_main 002D  
                  ?i1_LED 0070                    ?i1_OUT 0070                    _ADCON1 009E  
        ___awdiv@dividend 0072                    i1LED@b 0071                    _ANSELA 018C  
                  _ANSELB 018D                    i1l1103 038F                    i1l1121 040B  
                  i1l1115 03F3                    i1l1051 0324                    i1l1131 04BE  
                  i1l1117 03FF                    i1l1125 0414                    i1l1061 032C  
                  i1l1045 0319                    i1l1133 04C5                    i1l1213 0288  
                  i1l1221 02A3                    i1l1063 0338                    i1l1135 04CC  
                  i1l1207 024E                    i1l1311 047A                    i1l1073 0353  
                  i1l1321 048C                    i1l1091 0368                    i1l1139 04D3  
                  i1l1315 0483                    i1l1307 0471                    i1l1093 0374  
                  i1l1077 035B                    i1l1069 034A                    i1l1149 0432  
                  i1l1415 03EB                    i1l1099 0386                    i1l1293 0538  
                  i1l1527 0079                    i1l1519 002C                    i1l1529 0081  
                  SW@temp 002B                    i1OUT@b 0071                    u133_27 052B  
                  _FVRCON 0117                    _OSCCON 0099                    _SPBRGH 019C  
                  _SPBRGL 019B  init_ringbuf@internal_buf 0029             ?_init_ringbuf 0029  
          __CFG_PWRTE$OFF 0000              ?_ringbuf_pop 0070              ?_ringbuf_num 0070  
            ?_ringbuf_put 0070                    ___wmul 0536                 ??___awdiv 0074  
               ??___lwdiv 007A                 ??___lwmod 0074                    _lchika 0234  
        ___awdiv@quotient 0077                    _tx_buf 00D9                 ??_display 007E  
               ??_tx_send 0074   __end_of__initialization 00B5            ??_init_ringbuf 002B  
           __end_ofi1_LED 04DF             __end_ofi1_OUT 0498            __pcstackCOMMON 0070  
              __end_of_SW 0569                   ??i1_LED 0071                   ??i1_OUT 0071  
      __size_of_main_init 002D                __pbssBANK0 002F                __pbssBANK1 00D3  
              __pmaintext 02A9                   ?___wmul 0074                __pintentry 0004  
                 ?_lchika 0070                   _RXDTSEL 08EF                   _TXCKSEL 08F0  
                 ___awdiv 030F           __size_of___wmul 001B                   ___lwdiv 0360  
                 ___lwmod 03ED      __size_of_ringbuf_pop 002C      __size_of_ringbuf_num 002B  
    __size_of_ringbuf_put 002B           __CFG_STVREN$OFF 0000           __size_of_lchika 0075  
       __end_of_main_init 03C1                   __ptext1 0394                   __ptext2 0500  
                 __ptext3 0551                   __ptext4 0498                   __ptext5 04DF  
                 __ptext7 046F                   __ptext8 03C1                   __ptext9 0419  
                 _display 00B9              __size_of_LED 0021              __size_of_OUT 0024  
            __size_of_adc 001B      __end_of_init_ringbuf 051B              __size_of_isr 00A0  
                 clrloop0 0575                   _tx_send 0569                   lchika@i 0024  
    end_of_initialization 00B5                 _PORTAbits 000C                 _PORTBbits 000D  
        __CFG_FOSC$INTOSC 0000            ringbuf_pop@ret 0072            __end_of___wmul 0551  
          __end_of_lchika 02A9       start_initialization 00A6               __end_of_LED 0500  
             __end_of_OUT 04BC               __end_of_adc 0536               __end_of_isr 00A4  
                ??___wmul 0078                  ??_lchika 0020     __size_of_init_ringbuf 001B  
               ___latbits 0001                  LED@value 0029             __pcstackBANK0 0020  
           __pcstackBANK1 00A0          tx_send@asciicode 0075              _init_ringbuf 0500  
        ___lwdiv@dividend 0078                  ?___awdiv 0070                  ?___lwdiv 0076  
                ?___lwmod 0070                  ?_display 0070            __size_ofi1_LED 0023  
               _main_init 0394            __size_ofi1_OUT 0029                  OUT@value 0029  
        ___lwdiv@quotient 007B                  ?_tx_send 0070               __size_of_SW 0018  
          ___wmul@product 0078                 clear_ram0 0574                  _PIE1bits 0091  
                _PIR1bits 0011             ??_ringbuf_pop 0070             ??_ringbuf_num 0070  
           ??_ringbuf_put 0071                _ADCON0bits 009D         ___wmul@multiplier 0074  
              ?_main_init 0070             ringbuf_pop@rb 0073             ringbuf_num@rb 0071  
           ringbuf_put@rb 0073          __size_of___awdiv 0051       init_ringbuf@bufsize 002A  
        __size_of___lwdiv 0034          __size_of___lwmod 002C       __end_of_ringbuf_pop 03ED  
     __end_of_ringbuf_num 0444       __end_of_ringbuf_put 046F                i1LED@value 0070  
        __size_of_display 017B           ___lwdiv@divisor 0076           ___lwdiv@counter 007D  
                __ptext10 0234                  __ptext11 04BC                  __ptext12 030F  
                __ptext13 00B9                  __ptext14 0569                  __ptext15 0444  
                __ptext16 03ED                  __ptext17 0360                  __ptext18 051B  
                __ptext19 0536            init_ringbuf@rb 002C          __size_of_tx_send 000B  
           __size_of_main 0066                  int$flags 007E                i1OUT@value 0070  
             ??_main_init 0029                _INTCONbits 000B      ringbuf_put@asciicode 0070  
                intlevel1 0000          ___lwmod@dividend 0072         __CFG_CLKOUTEN$OFF 0000  
             _ringbuf_pop 03C1               _ringbuf_num 0419               _ringbuf_put 0444  
              _OPTION_REG 0095           ___lwmod@divisor 0070           ___lwmod@counter 0075  
